
log_test.elf:     file format elf32-littlearm

Sections:
Idx Name          Size      VMA       LMA       File off  Algn
  0 .isr_vector   0000010c  08000000  08000000  00010000  2**0
                  CONTENTS, ALLOC, LOAD, READONLY, DATA
  1 .text         00001a88  0800010c  0800010c  0001010c  2**2
                  CONTENTS, ALLOC, LOAD, READONLY, CODE
  2 .rodata       0000002c  08001b94  08001b94  00011b94  2**2
                  CONTENTS, ALLOC, LOAD, READONLY, DATA
  3 .ARM.extab    00000000  08001bc0  08001bc0  0002000c  2**0
                  CONTENTS
  4 .ARM          00000000  08001bc0  08001bc0  0002000c  2**0
                  CONTENTS
  5 .preinit_array 00000000  08001bc0  08001bc0  0002000c  2**0
                  CONTENTS, ALLOC, LOAD, DATA
  6 .init_array   00000004  08001bc0  08001bc0  00011bc0  2**2
                  CONTENTS, ALLOC, LOAD, DATA
  7 .fini_array   00000004  08001bc4  08001bc4  00011bc4  2**2
                  CONTENTS, ALLOC, LOAD, DATA
  8 .data         0000000c  20000000  08001bc8  00020000  2**2
                  CONTENTS, ALLOC, LOAD, DATA
  9 .bss          00000074  2000000c  08001bd4  0002000c  2**2
                  ALLOC
 10 ._user_heap_stack 00000600  20000080  08001bd4  00020080  2**0
                  ALLOC
 11 .ARM.attributes 00000029  00000000  00000000  0002000c  2**0
                  CONTENTS, READONLY
 12 .debug_info   00005da3  00000000  00000000  00020035  2**0
                  CONTENTS, READONLY, DEBUGGING
 13 .debug_abbrev 00001087  00000000  00000000  00025dd8  2**0
                  CONTENTS, READONLY, DEBUGGING
 14 .debug_aranges 00000688  00000000  00000000  00026e60  2**3
                  CONTENTS, READONLY, DEBUGGING
 15 .debug_ranges 00000618  00000000  00000000  000274e8  2**3
                  CONTENTS, READONLY, DEBUGGING
 16 .debug_macro  00015d39  00000000  00000000  00027b00  2**0
                  CONTENTS, READONLY, DEBUGGING
 17 .debug_line   0000596e  00000000  00000000  0003d839  2**0
                  CONTENTS, READONLY, DEBUGGING
 18 .debug_str    0007e1bc  00000000  00000000  000431a7  2**0
                  CONTENTS, READONLY, DEBUGGING
 19 .comment      0000007b  00000000  00000000  000c1363  2**0
                  CONTENTS, READONLY
 20 .debug_frame  000019f8  00000000  00000000  000c13e0  2**2
                  CONTENTS, READONLY, DEBUGGING

Disassembly of section .text:

0800010c <__do_global_dtors_aux>:
 800010c:	b510      	push	{r4, lr}
 800010e:	4c05      	ldr	r4, [pc, #20]	; (8000124 <__do_global_dtors_aux+0x18>)
 8000110:	7823      	ldrb	r3, [r4, #0]
 8000112:	b933      	cbnz	r3, 8000122 <__do_global_dtors_aux+0x16>
 8000114:	4b04      	ldr	r3, [pc, #16]	; (8000128 <__do_global_dtors_aux+0x1c>)
 8000116:	b113      	cbz	r3, 800011e <__do_global_dtors_aux+0x12>
 8000118:	4804      	ldr	r0, [pc, #16]	; (800012c <__do_global_dtors_aux+0x20>)
 800011a:	f3af 8000 	nop.w
 800011e:	2301      	movs	r3, #1
 8000120:	7023      	strb	r3, [r4, #0]
 8000122:	bd10      	pop	{r4, pc}
 8000124:	2000000c 	.word	0x2000000c
 8000128:	00000000 	.word	0x00000000
 800012c:	08001b7c 	.word	0x08001b7c

08000130 <frame_dummy>:
 8000130:	b508      	push	{r3, lr}
 8000132:	4b03      	ldr	r3, [pc, #12]	; (8000140 <frame_dummy+0x10>)
 8000134:	b11b      	cbz	r3, 800013e <frame_dummy+0xe>
 8000136:	4903      	ldr	r1, [pc, #12]	; (8000144 <frame_dummy+0x14>)
 8000138:	4803      	ldr	r0, [pc, #12]	; (8000148 <frame_dummy+0x18>)
 800013a:	f3af 8000 	nop.w
 800013e:	bd08      	pop	{r3, pc}
 8000140:	00000000 	.word	0x00000000
 8000144:	20000010 	.word	0x20000010
 8000148:	08001b7c 	.word	0x08001b7c

0800014c <main>:
/**
  * @brief  The application entry point.
  * @retval int
  */
int main(void)
{
 800014c:	b580      	push	{r7, lr}
 800014e:	b08a      	sub	sp, #40	; 0x28
 8000150:	af02      	add	r7, sp, #8
  /* USER CODE END 1 */

  /* MCU Configuration--------------------------------------------------------*/

  /* Reset of all peripherals, Initializes the Flash interface and the Systick. */
  HAL_Init();
 8000152:	f000 f9c5 	bl	80004e0 <HAL_Init>
  /* USER CODE BEGIN Init */

  /* USER CODE END Init */

  /* Configure the system clock */
  SystemClock_Config();
 8000156:	f000 f84d 	bl	80001f4 <SystemClock_Config>
  /* USER CODE BEGIN SysInit */

  /* USER CODE END SysInit */

  /* Initialize all configured peripherals */
  MX_GPIO_Init();
 800015a:	f000 f8bf 	bl	80002dc <MX_GPIO_Init>
  MX_I2C1_Init();
 800015e:	f000 f88f 	bl	8000280 <MX_I2C1_Init>
  /* USER CODE BEGIN WHILE */
  while (1)
  {
    /* USER CODE END WHILE */
	  	uint8_t bsl[26];
	  	for(int i=0;i<26;i++){bsl[i]=0;}
 8000162:	2300      	movs	r3, #0
 8000164:	61fb      	str	r3, [r7, #28]
 8000166:	e007      	b.n	8000178 <main+0x2c>
 8000168:	463a      	mov	r2, r7
 800016a:	69fb      	ldr	r3, [r7, #28]
 800016c:	4413      	add	r3, r2
 800016e:	2200      	movs	r2, #0
 8000170:	701a      	strb	r2, [r3, #0]
 8000172:	69fb      	ldr	r3, [r7, #28]
 8000174:	3301      	adds	r3, #1
 8000176:	61fb      	str	r3, [r7, #28]
 8000178:	69fb      	ldr	r3, [r7, #28]
 800017a:	2b19      	cmp	r3, #25
 800017c:	ddf4      	ble.n	8000168 <main+0x1c>
		HAL_Delay(5000); /*JUST IN CASE*/
 800017e:	f241 3088 	movw	r0, #5000	; 0x1388
 8000182:	f000 fa0f 	bl	80005a4 <HAL_Delay>
		bsl[1] = 0xAA;
 8000186:	23aa      	movs	r3, #170	; 0xaa
 8000188:	707b      	strb	r3, [r7, #1]
		bsl[11] = 0xBB;
 800018a:	23bb      	movs	r3, #187	; 0xbb
 800018c:	72fb      	strb	r3, [r7, #11]
		bsl[21] = 0xCC;
 800018e:	23cc      	movs	r3, #204	; 0xcc
 8000190:	757b      	strb	r3, [r7, #21]
		bsl[0] = 0x00;
 8000192:	2300      	movs	r3, #0
 8000194:	703b      	strb	r3, [r7, #0]
		bsl[10] = 0x00;
 8000196:	2300      	movs	r3, #0
 8000198:	72bb      	strb	r3, [r7, #10]
		bsl[20] = 0x00;
 800019a:	2300      	movs	r3, #0
 800019c:	753b      	strb	r3, [r7, #20]
		HAL_I2C_Master_Transmit(&hi2c1, (0x08 << 1), bsl, 26, 10);
 800019e:	463a      	mov	r2, r7
 80001a0:	230a      	movs	r3, #10
 80001a2:	9300      	str	r3, [sp, #0]
 80001a4:	231a      	movs	r3, #26
 80001a6:	2110      	movs	r1, #16
 80001a8:	4810      	ldr	r0, [pc, #64]	; (80001ec <main+0xa0>)
 80001aa:	f000 fdad 	bl	8000d08 <HAL_I2C_Master_Transmit>
		HAL_GPIO_TogglePin(GPIOC, GPIO_PIN_13);
 80001ae:	f44f 5100 	mov.w	r1, #8192	; 0x2000
 80001b2:	480f      	ldr	r0, [pc, #60]	; (80001f0 <main+0xa4>)
 80001b4:	f000 fc56 	bl	8000a64 <HAL_GPIO_TogglePin>
		HAL_Delay(5000); /*JUST IN CASE*/
 80001b8:	f241 3088 	movw	r0, #5000	; 0x1388
 80001bc:	f000 f9f2 	bl	80005a4 <HAL_Delay>
		bsl[0] = 0xDD;
 80001c0:	23dd      	movs	r3, #221	; 0xdd
 80001c2:	703b      	strb	r3, [r7, #0]
		bsl[10] = 0xEE;
 80001c4:	23ee      	movs	r3, #238	; 0xee
 80001c6:	72bb      	strb	r3, [r7, #10]
		bsl[20] = 0xFF;
 80001c8:	23ff      	movs	r3, #255	; 0xff
 80001ca:	753b      	strb	r3, [r7, #20]
		bsl[1] = 0x00;
 80001cc:	2300      	movs	r3, #0
 80001ce:	707b      	strb	r3, [r7, #1]
		bsl[11] = 0x00;
 80001d0:	2300      	movs	r3, #0
 80001d2:	72fb      	strb	r3, [r7, #11]
		bsl[21] = 0x00;
 80001d4:	2300      	movs	r3, #0
 80001d6:	757b      	strb	r3, [r7, #21]
		HAL_I2C_Master_Transmit(&hi2c1, (0x08 << 1), bsl, 26, 10);
 80001d8:	463a      	mov	r2, r7
 80001da:	230a      	movs	r3, #10
 80001dc:	9300      	str	r3, [sp, #0]
 80001de:	231a      	movs	r3, #26
 80001e0:	2110      	movs	r1, #16
 80001e2:	4802      	ldr	r0, [pc, #8]	; (80001ec <main+0xa0>)
 80001e4:	f000 fd90 	bl	8000d08 <HAL_I2C_Master_Transmit>
  {
 80001e8:	e7bb      	b.n	8000162 <main+0x16>
 80001ea:	bf00      	nop
 80001ec:	20000028 	.word	0x20000028
 80001f0:	40011000 	.word	0x40011000

080001f4 <SystemClock_Config>:
/**
  * @brief System Clock Configuration
  * @retval None
  */
void SystemClock_Config(void)
{
 80001f4:	b580      	push	{r7, lr}
 80001f6:	b090      	sub	sp, #64	; 0x40
 80001f8:	af00      	add	r7, sp, #0
  RCC_OscInitTypeDef RCC_OscInitStruct = {0};
 80001fa:	f107 0318 	add.w	r3, r7, #24
 80001fe:	2228      	movs	r2, #40	; 0x28
 8000200:	2100      	movs	r1, #0
 8000202:	4618      	mov	r0, r3
 8000204:	f001 fcb2 	bl	8001b6c <memset>
  RCC_ClkInitTypeDef RCC_ClkInitStruct = {0};
 8000208:	1d3b      	adds	r3, r7, #4
 800020a:	2200      	movs	r2, #0
 800020c:	601a      	str	r2, [r3, #0]
 800020e:	605a      	str	r2, [r3, #4]
 8000210:	609a      	str	r2, [r3, #8]
 8000212:	60da      	str	r2, [r3, #12]
 8000214:	611a      	str	r2, [r3, #16]

  /** Initializes the RCC Oscillators according to the specified parameters
  * in the RCC_OscInitTypeDef structure.
  */
  RCC_OscInitStruct.OscillatorType = RCC_OSCILLATORTYPE_HSE;
 8000216:	2301      	movs	r3, #1
 8000218:	61bb      	str	r3, [r7, #24]
  RCC_OscInitStruct.HSEState = RCC_HSE_ON;
 800021a:	f44f 3380 	mov.w	r3, #65536	; 0x10000
 800021e:	61fb      	str	r3, [r7, #28]
  RCC_OscInitStruct.HSEPredivValue = RCC_HSE_PREDIV_DIV1;
 8000220:	2300      	movs	r3, #0
 8000222:	623b      	str	r3, [r7, #32]
  RCC_OscInitStruct.HSIState = RCC_HSI_ON;
 8000224:	2301      	movs	r3, #1
 8000226:	62bb      	str	r3, [r7, #40]	; 0x28
  RCC_OscInitStruct.PLL.PLLState = RCC_PLL_ON;
 8000228:	2302      	movs	r3, #2
 800022a:	637b      	str	r3, [r7, #52]	; 0x34
  RCC_OscInitStruct.PLL.PLLSource = RCC_PLLSOURCE_HSE;
 800022c:	f44f 3380 	mov.w	r3, #65536	; 0x10000
 8000230:	63bb      	str	r3, [r7, #56]	; 0x38
  RCC_OscInitStruct.PLL.PLLMUL = RCC_PLL_MUL9;
 8000232:	f44f 13e0 	mov.w	r3, #1835008	; 0x1c0000
 8000236:	63fb      	str	r3, [r7, #60]	; 0x3c
  if (HAL_RCC_OscConfig(&RCC_OscInitStruct) != HAL_OK)
 8000238:	f107 0318 	add.w	r3, r7, #24
 800023c:	4618      	mov	r0, r3
 800023e:	f001 f869 	bl	8001314 <HAL_RCC_OscConfig>
 8000242:	4603      	mov	r3, r0
 8000244:	2b00      	cmp	r3, #0
 8000246:	d001      	beq.n	800024c <SystemClock_Config+0x58>
  {
    Error_Handler();
 8000248:	f000 f882 	bl	8000350 <Error_Handler>
  }
  /** Initializes the CPU, AHB and APB buses clocks
  */
  RCC_ClkInitStruct.ClockType = RCC_CLOCKTYPE_HCLK|RCC_CLOCKTYPE_SYSCLK
 800024c:	230f      	movs	r3, #15
 800024e:	607b      	str	r3, [r7, #4]
                              |RCC_CLOCKTYPE_PCLK1|RCC_CLOCKTYPE_PCLK2;
  RCC_ClkInitStruct.SYSCLKSource = RCC_SYSCLKSOURCE_PLLCLK;
 8000250:	2302      	movs	r3, #2
 8000252:	60bb      	str	r3, [r7, #8]
  RCC_ClkInitStruct.AHBCLKDivider = RCC_SYSCLK_DIV1;
 8000254:	2300      	movs	r3, #0
 8000256:	60fb      	str	r3, [r7, #12]
  RCC_ClkInitStruct.APB1CLKDivider = RCC_HCLK_DIV2;
 8000258:	f44f 6380 	mov.w	r3, #1024	; 0x400
 800025c:	613b      	str	r3, [r7, #16]
  RCC_ClkInitStruct.APB2CLKDivider = RCC_HCLK_DIV1;
 800025e:	2300      	movs	r3, #0
 8000260:	617b      	str	r3, [r7, #20]

  if (HAL_RCC_ClockConfig(&RCC_ClkInitStruct, FLASH_LATENCY_2) != HAL_OK)
 8000262:	1d3b      	adds	r3, r7, #4
 8000264:	2102      	movs	r1, #2
 8000266:	4618      	mov	r0, r3
 8000268:	f001 fad4 	bl	8001814 <HAL_RCC_ClockConfig>
 800026c:	4603      	mov	r3, r0
 800026e:	2b00      	cmp	r3, #0
 8000270:	d001      	beq.n	8000276 <SystemClock_Config+0x82>
  {
    Error_Handler();
 8000272:	f000 f86d 	bl	8000350 <Error_Handler>
  }
}
 8000276:	bf00      	nop
 8000278:	3740      	adds	r7, #64	; 0x40
 800027a:	46bd      	mov	sp, r7
 800027c:	bd80      	pop	{r7, pc}
	...

08000280 <MX_I2C1_Init>:
  * @brief I2C1 Initialization Function
  * @param None
  * @retval None
  */
static void MX_I2C1_Init(void)
{
 8000280:	b580      	push	{r7, lr}
 8000282:	af00      	add	r7, sp, #0
  /* USER CODE END I2C1_Init 0 */

  /* USER CODE BEGIN I2C1_Init 1 */

  /* USER CODE END I2C1_Init 1 */
	hi2c1.Instance = I2C1;
 8000284:	4b12      	ldr	r3, [pc, #72]	; (80002d0 <MX_I2C1_Init+0x50>)
 8000286:	4a13      	ldr	r2, [pc, #76]	; (80002d4 <MX_I2C1_Init+0x54>)
 8000288:	601a      	str	r2, [r3, #0]
	hi2c1.Init.ClockSpeed = 400000;
 800028a:	4b11      	ldr	r3, [pc, #68]	; (80002d0 <MX_I2C1_Init+0x50>)
 800028c:	4a12      	ldr	r2, [pc, #72]	; (80002d8 <MX_I2C1_Init+0x58>)
 800028e:	605a      	str	r2, [r3, #4]
	hi2c1.Init.DutyCycle = I2C_DUTYCYCLE_2;
 8000290:	4b0f      	ldr	r3, [pc, #60]	; (80002d0 <MX_I2C1_Init+0x50>)
 8000292:	2200      	movs	r2, #0
 8000294:	609a      	str	r2, [r3, #8]
	hi2c1.Init.OwnAddress1 = 0;
 8000296:	4b0e      	ldr	r3, [pc, #56]	; (80002d0 <MX_I2C1_Init+0x50>)
 8000298:	2200      	movs	r2, #0
 800029a:	60da      	str	r2, [r3, #12]
	hi2c1.Init.AddressingMode = I2C_ADDRESSINGMODE_7BIT;
 800029c:	4b0c      	ldr	r3, [pc, #48]	; (80002d0 <MX_I2C1_Init+0x50>)
 800029e:	f44f 4280 	mov.w	r2, #16384	; 0x4000
 80002a2:	611a      	str	r2, [r3, #16]
	hi2c1.Init.DualAddressMode = I2C_DUALADDRESS_DISABLE;
 80002a4:	4b0a      	ldr	r3, [pc, #40]	; (80002d0 <MX_I2C1_Init+0x50>)
 80002a6:	2200      	movs	r2, #0
 80002a8:	615a      	str	r2, [r3, #20]
	hi2c1.Init.OwnAddress2 = 0;
 80002aa:	4b09      	ldr	r3, [pc, #36]	; (80002d0 <MX_I2C1_Init+0x50>)
 80002ac:	2200      	movs	r2, #0
 80002ae:	619a      	str	r2, [r3, #24]
	hi2c1.Init.GeneralCallMode = I2C_GENERALCALL_DISABLE;
 80002b0:	4b07      	ldr	r3, [pc, #28]	; (80002d0 <MX_I2C1_Init+0x50>)
 80002b2:	2200      	movs	r2, #0
 80002b4:	61da      	str	r2, [r3, #28]
	hi2c1.Init.NoStretchMode = I2C_NOSTRETCH_ENABLE;
 80002b6:	4b06      	ldr	r3, [pc, #24]	; (80002d0 <MX_I2C1_Init+0x50>)
 80002b8:	2280      	movs	r2, #128	; 0x80
 80002ba:	621a      	str	r2, [r3, #32]
	if (HAL_I2C_Init(&hi2c1) != HAL_OK) {
 80002bc:	4804      	ldr	r0, [pc, #16]	; (80002d0 <MX_I2C1_Init+0x50>)
 80002be:	f000 fbeb 	bl	8000a98 <HAL_I2C_Init>
 80002c2:	4603      	mov	r3, r0
 80002c4:	2b00      	cmp	r3, #0
 80002c6:	d001      	beq.n	80002cc <MX_I2C1_Init+0x4c>
		Error_Handler();
 80002c8:	f000 f842 	bl	8000350 <Error_Handler>
	}
  /* USER CODE BEGIN I2C1_Init 2 */

  /* USER CODE END I2C1_Init 2 */

}
 80002cc:	bf00      	nop
 80002ce:	bd80      	pop	{r7, pc}
 80002d0:	20000028 	.word	0x20000028
 80002d4:	40005400 	.word	0x40005400
 80002d8:	00061a80 	.word	0x00061a80

080002dc <MX_GPIO_Init>:
  * @brief GPIO Initialization Function
  * @param None
  * @retval None
  */
static void MX_GPIO_Init(void)
{
 80002dc:	b480      	push	{r7}
 80002de:	b085      	sub	sp, #20
 80002e0:	af00      	add	r7, sp, #0

  /* GPIO Ports Clock Enable */
  __HAL_RCC_GPIOC_CLK_ENABLE();
 80002e2:	4b1a      	ldr	r3, [pc, #104]	; (800034c <MX_GPIO_Init+0x70>)
 80002e4:	699b      	ldr	r3, [r3, #24]
 80002e6:	4a19      	ldr	r2, [pc, #100]	; (800034c <MX_GPIO_Init+0x70>)
 80002e8:	f043 0310 	orr.w	r3, r3, #16
 80002ec:	6193      	str	r3, [r2, #24]
 80002ee:	4b17      	ldr	r3, [pc, #92]	; (800034c <MX_GPIO_Init+0x70>)
 80002f0:	699b      	ldr	r3, [r3, #24]
 80002f2:	f003 0310 	and.w	r3, r3, #16
 80002f6:	60fb      	str	r3, [r7, #12]
 80002f8:	68fb      	ldr	r3, [r7, #12]
  __HAL_RCC_GPIOD_CLK_ENABLE();
 80002fa:	4b14      	ldr	r3, [pc, #80]	; (800034c <MX_GPIO_Init+0x70>)
 80002fc:	699b      	ldr	r3, [r3, #24]
 80002fe:	4a13      	ldr	r2, [pc, #76]	; (800034c <MX_GPIO_Init+0x70>)
 8000300:	f043 0320 	orr.w	r3, r3, #32
 8000304:	6193      	str	r3, [r2, #24]
 8000306:	4b11      	ldr	r3, [pc, #68]	; (800034c <MX_GPIO_Init+0x70>)
 8000308:	699b      	ldr	r3, [r3, #24]
 800030a:	f003 0320 	and.w	r3, r3, #32
 800030e:	60bb      	str	r3, [r7, #8]
 8000310:	68bb      	ldr	r3, [r7, #8]
  __HAL_RCC_GPIOA_CLK_ENABLE();
 8000312:	4b0e      	ldr	r3, [pc, #56]	; (800034c <MX_GPIO_Init+0x70>)
 8000314:	699b      	ldr	r3, [r3, #24]
 8000316:	4a0d      	ldr	r2, [pc, #52]	; (800034c <MX_GPIO_Init+0x70>)
 8000318:	f043 0304 	orr.w	r3, r3, #4
 800031c:	6193      	str	r3, [r2, #24]
 800031e:	4b0b      	ldr	r3, [pc, #44]	; (800034c <MX_GPIO_Init+0x70>)
 8000320:	699b      	ldr	r3, [r3, #24]
 8000322:	f003 0304 	and.w	r3, r3, #4
 8000326:	607b      	str	r3, [r7, #4]
 8000328:	687b      	ldr	r3, [r7, #4]
  __HAL_RCC_GPIOB_CLK_ENABLE();
 800032a:	4b08      	ldr	r3, [pc, #32]	; (800034c <MX_GPIO_Init+0x70>)
 800032c:	699b      	ldr	r3, [r3, #24]
 800032e:	4a07      	ldr	r2, [pc, #28]	; (800034c <MX_GPIO_Init+0x70>)
 8000330:	f043 0308 	orr.w	r3, r3, #8
 8000334:	6193      	str	r3, [r2, #24]
 8000336:	4b05      	ldr	r3, [pc, #20]	; (800034c <MX_GPIO_Init+0x70>)
 8000338:	699b      	ldr	r3, [r3, #24]
 800033a:	f003 0308 	and.w	r3, r3, #8
 800033e:	603b      	str	r3, [r7, #0]
 8000340:	683b      	ldr	r3, [r7, #0]

}
 8000342:	bf00      	nop
 8000344:	3714      	adds	r7, #20
 8000346:	46bd      	mov	sp, r7
 8000348:	bc80      	pop	{r7}
 800034a:	4770      	bx	lr
 800034c:	40021000 	.word	0x40021000

08000350 <Error_Handler>:
/**
  * @brief  This function is executed in case of error occurrence.
  * @retval None
  */
void Error_Handler(void)
{
 8000350:	b480      	push	{r7}
 8000352:	af00      	add	r7, sp, #0
  \details Disables IRQ interrupts by setting the I-bit in the CPSR.
           Can only be executed in Privileged modes.
 */
__STATIC_FORCEINLINE void __disable_irq(void)
{
  __ASM volatile ("cpsid i" : : : "memory");
 8000354:	b672      	cpsid	i
  /* USER CODE BEGIN Error_Handler_Debug */
  /* User can add his own implementation to report the HAL error return state */
  __disable_irq();
  while (1)
 8000356:	e7fe      	b.n	8000356 <Error_Handler+0x6>

08000358 <HAL_MspInit>:
/* USER CODE END 0 */
/**
  * Initializes the Global MSP.
  */
void HAL_MspInit(void)
{
 8000358:	b480      	push	{r7}
 800035a:	b085      	sub	sp, #20
 800035c:	af00      	add	r7, sp, #0
  /* USER CODE BEGIN MspInit 0 */

  /* USER CODE END MspInit 0 */

  __HAL_RCC_AFIO_CLK_ENABLE();
 800035e:	4b15      	ldr	r3, [pc, #84]	; (80003b4 <HAL_MspInit+0x5c>)
 8000360:	699b      	ldr	r3, [r3, #24]
 8000362:	4a14      	ldr	r2, [pc, #80]	; (80003b4 <HAL_MspInit+0x5c>)
 8000364:	f043 0301 	orr.w	r3, r3, #1
 8000368:	6193      	str	r3, [r2, #24]
 800036a:	4b12      	ldr	r3, [pc, #72]	; (80003b4 <HAL_MspInit+0x5c>)
 800036c:	699b      	ldr	r3, [r3, #24]
 800036e:	f003 0301 	and.w	r3, r3, #1
 8000372:	60bb      	str	r3, [r7, #8]
 8000374:	68bb      	ldr	r3, [r7, #8]
  __HAL_RCC_PWR_CLK_ENABLE();
 8000376:	4b0f      	ldr	r3, [pc, #60]	; (80003b4 <HAL_MspInit+0x5c>)
 8000378:	69db      	ldr	r3, [r3, #28]
 800037a:	4a0e      	ldr	r2, [pc, #56]	; (80003b4 <HAL_MspInit+0x5c>)
 800037c:	f043 5380 	orr.w	r3, r3, #268435456	; 0x10000000
 8000380:	61d3      	str	r3, [r2, #28]
 8000382:	4b0c      	ldr	r3, [pc, #48]	; (80003b4 <HAL_MspInit+0x5c>)
 8000384:	69db      	ldr	r3, [r3, #28]
 8000386:	f003 5380 	and.w	r3, r3, #268435456	; 0x10000000
 800038a:	607b      	str	r3, [r7, #4]
 800038c:	687b      	ldr	r3, [r7, #4]

  /* System interrupt init*/

  /** NOJTAG: JTAG-DP Disabled and SW-DP Enabled
  */
  __HAL_AFIO_REMAP_SWJ_NOJTAG();
 800038e:	4b0a      	ldr	r3, [pc, #40]	; (80003b8 <HAL_MspInit+0x60>)
 8000390:	685b      	ldr	r3, [r3, #4]
 8000392:	60fb      	str	r3, [r7, #12]
 8000394:	68fb      	ldr	r3, [r7, #12]
 8000396:	f023 63e0 	bic.w	r3, r3, #117440512	; 0x7000000
 800039a:	60fb      	str	r3, [r7, #12]
 800039c:	68fb      	ldr	r3, [r7, #12]
 800039e:	f043 7300 	orr.w	r3, r3, #33554432	; 0x2000000
 80003a2:	60fb      	str	r3, [r7, #12]
 80003a4:	4a04      	ldr	r2, [pc, #16]	; (80003b8 <HAL_MspInit+0x60>)
 80003a6:	68fb      	ldr	r3, [r7, #12]
 80003a8:	6053      	str	r3, [r2, #4]

  /* USER CODE BEGIN MspInit 1 */

  /* USER CODE END MspInit 1 */
}
 80003aa:	bf00      	nop
 80003ac:	3714      	adds	r7, #20
 80003ae:	46bd      	mov	sp, r7
 80003b0:	bc80      	pop	{r7}
 80003b2:	4770      	bx	lr
 80003b4:	40021000 	.word	0x40021000
 80003b8:	40010000 	.word	0x40010000

080003bc <HAL_I2C_MspInit>:
* This function configures the hardware resources used in this example
* @param hi2c: I2C handle pointer
* @retval None
*/
void HAL_I2C_MspInit(I2C_HandleTypeDef* hi2c)
{
 80003bc:	b580      	push	{r7, lr}
 80003be:	b088      	sub	sp, #32
 80003c0:	af00      	add	r7, sp, #0
 80003c2:	6078      	str	r0, [r7, #4]
  GPIO_InitTypeDef GPIO_InitStruct = {0};
 80003c4:	f107 0310 	add.w	r3, r7, #16
 80003c8:	2200      	movs	r2, #0
 80003ca:	601a      	str	r2, [r3, #0]
 80003cc:	605a      	str	r2, [r3, #4]
 80003ce:	609a      	str	r2, [r3, #8]
 80003d0:	60da      	str	r2, [r3, #12]
  if(hi2c->Instance==I2C1)
 80003d2:	687b      	ldr	r3, [r7, #4]
 80003d4:	681b      	ldr	r3, [r3, #0]
 80003d6:	4a15      	ldr	r2, [pc, #84]	; (800042c <HAL_I2C_MspInit+0x70>)
 80003d8:	4293      	cmp	r3, r2
 80003da:	d123      	bne.n	8000424 <HAL_I2C_MspInit+0x68>
  {
  /* USER CODE BEGIN I2C1_MspInit 0 */

  /* USER CODE END I2C1_MspInit 0 */

    __HAL_RCC_GPIOB_CLK_ENABLE();
 80003dc:	4b14      	ldr	r3, [pc, #80]	; (8000430 <HAL_I2C_MspInit+0x74>)
 80003de:	699b      	ldr	r3, [r3, #24]
 80003e0:	4a13      	ldr	r2, [pc, #76]	; (8000430 <HAL_I2C_MspInit+0x74>)
 80003e2:	f043 0308 	orr.w	r3, r3, #8
 80003e6:	6193      	str	r3, [r2, #24]
 80003e8:	4b11      	ldr	r3, [pc, #68]	; (8000430 <HAL_I2C_MspInit+0x74>)
 80003ea:	699b      	ldr	r3, [r3, #24]
 80003ec:	f003 0308 	and.w	r3, r3, #8
 80003f0:	60fb      	str	r3, [r7, #12]
 80003f2:	68fb      	ldr	r3, [r7, #12]
    __HAL_RCC_I2C1_CLK_ENABLE();
 80003f4:	4b0e      	ldr	r3, [pc, #56]	; (8000430 <HAL_I2C_MspInit+0x74>)
 80003f6:	69db      	ldr	r3, [r3, #28]
 80003f8:	4a0d      	ldr	r2, [pc, #52]	; (8000430 <HAL_I2C_MspInit+0x74>)
 80003fa:	f443 1300 	orr.w	r3, r3, #2097152	; 0x200000
 80003fe:	61d3      	str	r3, [r2, #28]
 8000400:	4b0b      	ldr	r3, [pc, #44]	; (8000430 <HAL_I2C_MspInit+0x74>)
 8000402:	69db      	ldr	r3, [r3, #28]
 8000404:	f403 1300 	and.w	r3, r3, #2097152	; 0x200000
 8000408:	60bb      	str	r3, [r7, #8]
 800040a:	68bb      	ldr	r3, [r7, #8]
    /**I2C1 GPIO Configuration
    PB6     ------> I2C1_SCL
    PB7     ------> I2C1_SDA
    */
    GPIO_InitStruct.Pin = GPIO_PIN_6|GPIO_PIN_7;
 800040c:	23c0      	movs	r3, #192	; 0xc0
 800040e:	613b      	str	r3, [r7, #16]
    GPIO_InitStruct.Mode = GPIO_MODE_AF_OD;
 8000410:	2312      	movs	r3, #18
 8000412:	617b      	str	r3, [r7, #20]
    GPIO_InitStruct.Speed = GPIO_SPEED_FREQ_HIGH;
 8000414:	2303      	movs	r3, #3
 8000416:	61fb      	str	r3, [r7, #28]
    HAL_GPIO_Init(GPIOB, &GPIO_InitStruct);
 8000418:	f107 0310 	add.w	r3, r7, #16
 800041c:	4619      	mov	r1, r3
 800041e:	4805      	ldr	r0, [pc, #20]	; (8000434 <HAL_I2C_MspInit+0x78>)
 8000420:	f000 f9c6 	bl	80007b0 <HAL_GPIO_Init>
  /* USER CODE BEGIN I2C1_MspInit 1 */

  /* USER CODE END I2C1_MspInit 1 */
  }

}
 8000424:	bf00      	nop
 8000426:	3720      	adds	r7, #32
 8000428:	46bd      	mov	sp, r7
 800042a:	bd80      	pop	{r7, pc}
 800042c:	40005400 	.word	0x40005400
 8000430:	40021000 	.word	0x40021000
 8000434:	40010c00 	.word	0x40010c00

08000438 <NMI_Handler>:
/******************************************************************************/
/**
  * @brief This function handles Non maskable interrupt.
  */
void NMI_Handler(void)
{
 8000438:	b480      	push	{r7}
 800043a:	af00      	add	r7, sp, #0
  /* USER CODE BEGIN NonMaskableInt_IRQn 0 */

  /* USER CODE END NonMaskableInt_IRQn 0 */
  /* USER CODE BEGIN NonMaskableInt_IRQn 1 */
  while (1)
 800043c:	e7fe      	b.n	800043c <NMI_Handler+0x4>

0800043e <HardFault_Handler>:

/**
  * @brief This function handles Hard fault interrupt.
  */
void HardFault_Handler(void)
{
 800043e:	b480      	push	{r7}
 8000440:	af00      	add	r7, sp, #0
  /* USER CODE BEGIN HardFault_IRQn 0 */

  /* USER CODE END HardFault_IRQn 0 */
  while (1)
 8000442:	e7fe      	b.n	8000442 <HardFault_Handler+0x4>

08000444 <MemManage_Handler>:

/**
  * @brief This function handles Memory management fault.
  */
void MemManage_Handler(void)
{
 8000444:	b480      	push	{r7}
 8000446:	af00      	add	r7, sp, #0
  /* USER CODE BEGIN MemoryManagement_IRQn 0 */

  /* USER CODE END MemoryManagement_IRQn 0 */
  while (1)
 8000448:	e7fe      	b.n	8000448 <MemManage_Handler+0x4>

0800044a <BusFault_Handler>:

/**
  * @brief This function handles Prefetch fault, memory access fault.
  */
void BusFault_Handler(void)
{
 800044a:	b480      	push	{r7}
 800044c:	af00      	add	r7, sp, #0
  /* USER CODE BEGIN BusFault_IRQn 0 */

  /* USER CODE END BusFault_IRQn 0 */
  while (1)
 800044e:	e7fe      	b.n	800044e <BusFault_Handler+0x4>

08000450 <UsageFault_Handler>:

/**
  * @brief This function handles Undefined instruction or illegal state.
  */
void UsageFault_Handler(void)
{
 8000450:	b480      	push	{r7}
 8000452:	af00      	add	r7, sp, #0
  /* USER CODE BEGIN UsageFault_IRQn 0 */

  /* USER CODE END UsageFault_IRQn 0 */
  while (1)
 8000454:	e7fe      	b.n	8000454 <UsageFault_Handler+0x4>

08000456 <SVC_Handler>:

/**
  * @brief This function handles System service call via SWI instruction.
  */
void SVC_Handler(void)
{
 8000456:	b480      	push	{r7}
 8000458:	af00      	add	r7, sp, #0

  /* USER CODE END SVCall_IRQn 0 */
  /* USER CODE BEGIN SVCall_IRQn 1 */

  /* USER CODE END SVCall_IRQn 1 */
}
 800045a:	bf00      	nop
 800045c:	46bd      	mov	sp, r7
 800045e:	bc80      	pop	{r7}
 8000460:	4770      	bx	lr

08000462 <DebugMon_Handler>:

/**
  * @brief This function handles Debug monitor.
  */
void DebugMon_Handler(void)
{
 8000462:	b480      	push	{r7}
 8000464:	af00      	add	r7, sp, #0

  /* USER CODE END DebugMonitor_IRQn 0 */
  /* USER CODE BEGIN DebugMonitor_IRQn 1 */

  /* USER CODE END DebugMonitor_IRQn 1 */
}
 8000466:	bf00      	nop
 8000468:	46bd      	mov	sp, r7
 800046a:	bc80      	pop	{r7}
 800046c:	4770      	bx	lr

0800046e <PendSV_Handler>:

/**
  * @brief This function handles Pendable request for system service.
  */
void PendSV_Handler(void)
{
 800046e:	b480      	push	{r7}
 8000470:	af00      	add	r7, sp, #0

  /* USER CODE END PendSV_IRQn 0 */
  /* USER CODE BEGIN PendSV_IRQn 1 */

  /* USER CODE END PendSV_IRQn 1 */
}
 8000472:	bf00      	nop
 8000474:	46bd      	mov	sp, r7
 8000476:	bc80      	pop	{r7}
 8000478:	4770      	bx	lr

0800047a <SysTick_Handler>:

/**
  * @brief This function handles System tick timer.
  */
void SysTick_Handler(void)
{
 800047a:	b580      	push	{r7, lr}
 800047c:	af00      	add	r7, sp, #0
  /* USER CODE BEGIN SysTick_IRQn 0 */

  /* USER CODE END SysTick_IRQn 0 */
  HAL_IncTick();
 800047e:	f000 f875 	bl	800056c <HAL_IncTick>
  /* USER CODE BEGIN SysTick_IRQn 1 */

  /* USER CODE END SysTick_IRQn 1 */
}
 8000482:	bf00      	nop
 8000484:	bd80      	pop	{r7, pc}

08000486 <SystemInit>:
  * @note   This function should be used only after reset.
  * @param  None
  * @retval None
  */
void SystemInit (void)
{
 8000486:	b480      	push	{r7}
 8000488:	af00      	add	r7, sp, #0

  /* Configure the Vector Table location -------------------------------------*/
#if defined(USER_VECT_TAB_ADDRESS)
  SCB->VTOR = VECT_TAB_BASE_ADDRESS | VECT_TAB_OFFSET; /* Vector Table Relocation in Internal SRAM. */
#endif /* USER_VECT_TAB_ADDRESS */
}
 800048a:	bf00      	nop
 800048c:	46bd      	mov	sp, r7
 800048e:	bc80      	pop	{r7}
 8000490:	4770      	bx	lr
	...

08000494 <Reset_Handler>:
  .weak Reset_Handler
  .type Reset_Handler, %function
Reset_Handler:

/* Copy the data segment initializers from flash to SRAM */
  ldr r0, =_sdata
 8000494:	480c      	ldr	r0, [pc, #48]	; (80004c8 <LoopFillZerobss+0x12>)
  ldr r1, =_edata
 8000496:	490d      	ldr	r1, [pc, #52]	; (80004cc <LoopFillZerobss+0x16>)
  ldr r2, =_sidata
 8000498:	4a0d      	ldr	r2, [pc, #52]	; (80004d0 <LoopFillZerobss+0x1a>)
  movs r3, #0
 800049a:	2300      	movs	r3, #0
  b LoopCopyDataInit
 800049c:	e002      	b.n	80004a4 <LoopCopyDataInit>

0800049e <CopyDataInit>:

CopyDataInit:
  ldr r4, [r2, r3]
 800049e:	58d4      	ldr	r4, [r2, r3]
  str r4, [r0, r3]
 80004a0:	50c4      	str	r4, [r0, r3]
  adds r3, r3, #4
 80004a2:	3304      	adds	r3, #4

080004a4 <LoopCopyDataInit>:

LoopCopyDataInit:
  adds r4, r0, r3
 80004a4:	18c4      	adds	r4, r0, r3
  cmp r4, r1
 80004a6:	428c      	cmp	r4, r1
  bcc CopyDataInit
 80004a8:	d3f9      	bcc.n	800049e <CopyDataInit>
  
/* Zero fill the bss segment. */
  ldr r2, =_sbss
 80004aa:	4a0a      	ldr	r2, [pc, #40]	; (80004d4 <LoopFillZerobss+0x1e>)
  ldr r4, =_ebss
 80004ac:	4c0a      	ldr	r4, [pc, #40]	; (80004d8 <LoopFillZerobss+0x22>)
  movs r3, #0
 80004ae:	2300      	movs	r3, #0
  b LoopFillZerobss
 80004b0:	e001      	b.n	80004b6 <LoopFillZerobss>

080004b2 <FillZerobss>:

FillZerobss:
  str  r3, [r2]
 80004b2:	6013      	str	r3, [r2, #0]
  adds r2, r2, #4
 80004b4:	3204      	adds	r2, #4

080004b6 <LoopFillZerobss>:

LoopFillZerobss:
  cmp r2, r4
 80004b6:	42a2      	cmp	r2, r4
  bcc FillZerobss
 80004b8:	d3fb      	bcc.n	80004b2 <FillZerobss>

/* Call the clock system intitialization function.*/
    bl  SystemInit
 80004ba:	f7ff ffe4 	bl	8000486 <SystemInit>
/* Call static constructors */
    bl __libc_init_array
 80004be:	f001 fb31 	bl	8001b24 <__libc_init_array>
/* Call the application's entry point.*/
  bl main
 80004c2:	f7ff fe43 	bl	800014c <main>
  bx lr
 80004c6:	4770      	bx	lr
  ldr r0, =_sdata
 80004c8:	20000000 	.word	0x20000000
  ldr r1, =_edata
 80004cc:	2000000c 	.word	0x2000000c
  ldr r2, =_sidata
 80004d0:	08001bc8 	.word	0x08001bc8
  ldr r2, =_sbss
 80004d4:	2000000c 	.word	0x2000000c
  ldr r4, =_ebss
 80004d8:	20000080 	.word	0x20000080

080004dc <ADC1_2_IRQHandler>:
 * @retval : None
*/
    .section .text.Default_Handler,"ax",%progbits
Default_Handler:
Infinite_Loop:
  b Infinite_Loop
 80004dc:	e7fe      	b.n	80004dc <ADC1_2_IRQHandler>
	...

080004e0 <HAL_Init>:
  *         need to ensure that the SysTick time base is always set to 1 millisecond
  *         to have correct HAL operation.
  * @retval HAL status
  */
HAL_StatusTypeDef HAL_Init(void)
{
 80004e0:	b580      	push	{r7, lr}
 80004e2:	af00      	add	r7, sp, #0
    defined(STM32F102x6) || defined(STM32F102xB) || \
    defined(STM32F103x6) || defined(STM32F103xB) || defined(STM32F103xE) || defined(STM32F103xG) || \
    defined(STM32F105xC) || defined(STM32F107xC)

  /* Prefetch buffer is not available on value line devices */
  __HAL_FLASH_PREFETCH_BUFFER_ENABLE();
 80004e4:	4b08      	ldr	r3, [pc, #32]	; (8000508 <HAL_Init+0x28>)
 80004e6:	681b      	ldr	r3, [r3, #0]
 80004e8:	4a07      	ldr	r2, [pc, #28]	; (8000508 <HAL_Init+0x28>)
 80004ea:	f043 0310 	orr.w	r3, r3, #16
 80004ee:	6013      	str	r3, [r2, #0]
#endif
#endif /* PREFETCH_ENABLE */

  /* Set Interrupt Group Priority */
  HAL_NVIC_SetPriorityGrouping(NVIC_PRIORITYGROUP_4);
 80004f0:	2003      	movs	r0, #3
 80004f2:	f000 f929 	bl	8000748 <HAL_NVIC_SetPriorityGrouping>

  /* Use systick as time base source and configure 1ms tick (default clock after Reset is HSI) */
  HAL_InitTick(TICK_INT_PRIORITY);
 80004f6:	2000      	movs	r0, #0
 80004f8:	f000 f808 	bl	800050c <HAL_InitTick>

  /* Init the low level hardware */
  HAL_MspInit();
 80004fc:	f7ff ff2c 	bl	8000358 <HAL_MspInit>

  /* Return function status */
  return HAL_OK;
 8000500:	2300      	movs	r3, #0
}
 8000502:	4618      	mov	r0, r3
 8000504:	bd80      	pop	{r7, pc}
 8000506:	bf00      	nop
 8000508:	40022000 	.word	0x40022000

0800050c <HAL_InitTick>:
  *       implementation  in user file.
  * @param TickPriority Tick interrupt priority.
  * @retval HAL status
  */
__weak HAL_StatusTypeDef HAL_InitTick(uint32_t TickPriority)
{
 800050c:	b580      	push	{r7, lr}
 800050e:	b082      	sub	sp, #8
 8000510:	af00      	add	r7, sp, #0
 8000512:	6078      	str	r0, [r7, #4]
  /* Configure the SysTick to have interrupt in 1ms time basis*/
  if (HAL_SYSTICK_Config(SystemCoreClock / (1000U / uwTickFreq)) > 0U)
 8000514:	4b12      	ldr	r3, [pc, #72]	; (8000560 <HAL_InitTick+0x54>)
 8000516:	681a      	ldr	r2, [r3, #0]
 8000518:	4b12      	ldr	r3, [pc, #72]	; (8000564 <HAL_InitTick+0x58>)
 800051a:	781b      	ldrb	r3, [r3, #0]
 800051c:	4619      	mov	r1, r3
 800051e:	f44f 737a 	mov.w	r3, #1000	; 0x3e8
 8000522:	fbb3 f3f1 	udiv	r3, r3, r1
 8000526:	fbb2 f3f3 	udiv	r3, r2, r3
 800052a:	4618      	mov	r0, r3
 800052c:	f000 f933 	bl	8000796 <HAL_SYSTICK_Config>
 8000530:	4603      	mov	r3, r0
 8000532:	2b00      	cmp	r3, #0
 8000534:	d001      	beq.n	800053a <HAL_InitTick+0x2e>
  {
    return HAL_ERROR;
 8000536:	2301      	movs	r3, #1
 8000538:	e00e      	b.n	8000558 <HAL_InitTick+0x4c>
  }

  /* Configure the SysTick IRQ priority */
  if (TickPriority < (1UL << __NVIC_PRIO_BITS))
 800053a:	687b      	ldr	r3, [r7, #4]
 800053c:	2b0f      	cmp	r3, #15
 800053e:	d80a      	bhi.n	8000556 <HAL_InitTick+0x4a>
  {
    HAL_NVIC_SetPriority(SysTick_IRQn, TickPriority, 0U);
 8000540:	2200      	movs	r2, #0
 8000542:	6879      	ldr	r1, [r7, #4]
 8000544:	f04f 30ff 	mov.w	r0, #4294967295
 8000548:	f000 f909 	bl	800075e <HAL_NVIC_SetPriority>
    uwTickPrio = TickPriority;
 800054c:	4a06      	ldr	r2, [pc, #24]	; (8000568 <HAL_InitTick+0x5c>)
 800054e:	687b      	ldr	r3, [r7, #4]
 8000550:	6013      	str	r3, [r2, #0]
  {
    return HAL_ERROR;
  }

  /* Return function status */
  return HAL_OK;
 8000552:	2300      	movs	r3, #0
 8000554:	e000      	b.n	8000558 <HAL_InitTick+0x4c>
    return HAL_ERROR;
 8000556:	2301      	movs	r3, #1
}
 8000558:	4618      	mov	r0, r3
 800055a:	3708      	adds	r7, #8
 800055c:	46bd      	mov	sp, r7
 800055e:	bd80      	pop	{r7, pc}
 8000560:	20000000 	.word	0x20000000
 8000564:	20000008 	.word	0x20000008
 8000568:	20000004 	.word	0x20000004

0800056c <HAL_IncTick>:
  * @note This function is declared as __weak to be overwritten in case of other
  *      implementations in user file.
  * @retval None
  */
__weak void HAL_IncTick(void)
{
 800056c:	b480      	push	{r7}
 800056e:	af00      	add	r7, sp, #0
  uwTick += uwTickFreq;
 8000570:	4b05      	ldr	r3, [pc, #20]	; (8000588 <HAL_IncTick+0x1c>)
 8000572:	781b      	ldrb	r3, [r3, #0]
 8000574:	461a      	mov	r2, r3
 8000576:	4b05      	ldr	r3, [pc, #20]	; (800058c <HAL_IncTick+0x20>)
 8000578:	681b      	ldr	r3, [r3, #0]
 800057a:	4413      	add	r3, r2
 800057c:	4a03      	ldr	r2, [pc, #12]	; (800058c <HAL_IncTick+0x20>)
 800057e:	6013      	str	r3, [r2, #0]
}
 8000580:	bf00      	nop
 8000582:	46bd      	mov	sp, r7
 8000584:	bc80      	pop	{r7}
 8000586:	4770      	bx	lr
 8000588:	20000008 	.word	0x20000008
 800058c:	2000007c 	.word	0x2000007c

08000590 <HAL_GetTick>:
  * @note  This function is declared as __weak to be overwritten in case of other
  *       implementations in user file.
  * @retval tick value
  */
__weak uint32_t HAL_GetTick(void)
{
 8000590:	b480      	push	{r7}
 8000592:	af00      	add	r7, sp, #0
  return uwTick;
 8000594:	4b02      	ldr	r3, [pc, #8]	; (80005a0 <HAL_GetTick+0x10>)
 8000596:	681b      	ldr	r3, [r3, #0]
}
 8000598:	4618      	mov	r0, r3
 800059a:	46bd      	mov	sp, r7
 800059c:	bc80      	pop	{r7}
 800059e:	4770      	bx	lr
 80005a0:	2000007c 	.word	0x2000007c

080005a4 <HAL_Delay>:
  *       implementations in user file.
  * @param Delay specifies the delay time length, in milliseconds.
  * @retval None
  */
__weak void HAL_Delay(uint32_t Delay)
{
 80005a4:	b580      	push	{r7, lr}
 80005a6:	b084      	sub	sp, #16
 80005a8:	af00      	add	r7, sp, #0
 80005aa:	6078      	str	r0, [r7, #4]
  uint32_t tickstart = HAL_GetTick();
 80005ac:	f7ff fff0 	bl	8000590 <HAL_GetTick>
 80005b0:	60b8      	str	r0, [r7, #8]
  uint32_t wait = Delay;
 80005b2:	687b      	ldr	r3, [r7, #4]
 80005b4:	60fb      	str	r3, [r7, #12]

  /* Add a freq to guarantee minimum wait */
  if (wait < HAL_MAX_DELAY)
 80005b6:	68fb      	ldr	r3, [r7, #12]
 80005b8:	f1b3 3fff 	cmp.w	r3, #4294967295
 80005bc:	d005      	beq.n	80005ca <HAL_Delay+0x26>
  {
    wait += (uint32_t)(uwTickFreq);
 80005be:	4b09      	ldr	r3, [pc, #36]	; (80005e4 <HAL_Delay+0x40>)
 80005c0:	781b      	ldrb	r3, [r3, #0]
 80005c2:	461a      	mov	r2, r3
 80005c4:	68fb      	ldr	r3, [r7, #12]
 80005c6:	4413      	add	r3, r2
 80005c8:	60fb      	str	r3, [r7, #12]
  }

  while ((HAL_GetTick() - tickstart) < wait)
 80005ca:	bf00      	nop
 80005cc:	f7ff ffe0 	bl	8000590 <HAL_GetTick>
 80005d0:	4602      	mov	r2, r0
 80005d2:	68bb      	ldr	r3, [r7, #8]
 80005d4:	1ad3      	subs	r3, r2, r3
 80005d6:	68fa      	ldr	r2, [r7, #12]
 80005d8:	429a      	cmp	r2, r3
 80005da:	d8f7      	bhi.n	80005cc <HAL_Delay+0x28>
  {
  }
}
 80005dc:	bf00      	nop
 80005de:	3710      	adds	r7, #16
 80005e0:	46bd      	mov	sp, r7
 80005e2:	bd80      	pop	{r7, pc}
 80005e4:	20000008 	.word	0x20000008

080005e8 <__NVIC_SetPriorityGrouping>:
           In case of a conflict between priority grouping and available
           priority bits (__NVIC_PRIO_BITS), the smallest possible priority group is set.
  \param [in]      PriorityGroup  Priority grouping field.
 */
__STATIC_INLINE void __NVIC_SetPriorityGrouping(uint32_t PriorityGroup)
{
 80005e8:	b480      	push	{r7}
 80005ea:	b085      	sub	sp, #20
 80005ec:	af00      	add	r7, sp, #0
 80005ee:	6078      	str	r0, [r7, #4]
  uint32_t reg_value;
  uint32_t PriorityGroupTmp = (PriorityGroup & (uint32_t)0x07UL);             /* only values 0..7 are used          */
 80005f0:	687b      	ldr	r3, [r7, #4]
 80005f2:	f003 0307 	and.w	r3, r3, #7
 80005f6:	60fb      	str	r3, [r7, #12]

  reg_value  =  SCB->AIRCR;                                                   /* read old register configuration    */
 80005f8:	4b0c      	ldr	r3, [pc, #48]	; (800062c <__NVIC_SetPriorityGrouping+0x44>)
 80005fa:	68db      	ldr	r3, [r3, #12]
 80005fc:	60bb      	str	r3, [r7, #8]
  reg_value &= ~((uint32_t)(SCB_AIRCR_VECTKEY_Msk | SCB_AIRCR_PRIGROUP_Msk)); /* clear bits to change               */
 80005fe:	68ba      	ldr	r2, [r7, #8]
 8000600:	f64f 03ff 	movw	r3, #63743	; 0xf8ff
 8000604:	4013      	ands	r3, r2
 8000606:	60bb      	str	r3, [r7, #8]
  reg_value  =  (reg_value                                   |
                ((uint32_t)0x5FAUL << SCB_AIRCR_VECTKEY_Pos) |
                (PriorityGroupTmp << SCB_AIRCR_PRIGROUP_Pos) );               /* Insert write key and priority group */
 8000608:	68fb      	ldr	r3, [r7, #12]
 800060a:	021a      	lsls	r2, r3, #8
                ((uint32_t)0x5FAUL << SCB_AIRCR_VECTKEY_Pos) |
 800060c:	68bb      	ldr	r3, [r7, #8]
 800060e:	4313      	orrs	r3, r2
  reg_value  =  (reg_value                                   |
 8000610:	f043 63bf 	orr.w	r3, r3, #100139008	; 0x5f80000
 8000614:	f443 3300 	orr.w	r3, r3, #131072	; 0x20000
 8000618:	60bb      	str	r3, [r7, #8]
  SCB->AIRCR =  reg_value;
 800061a:	4a04      	ldr	r2, [pc, #16]	; (800062c <__NVIC_SetPriorityGrouping+0x44>)
 800061c:	68bb      	ldr	r3, [r7, #8]
 800061e:	60d3      	str	r3, [r2, #12]
}
 8000620:	bf00      	nop
 8000622:	3714      	adds	r7, #20
 8000624:	46bd      	mov	sp, r7
 8000626:	bc80      	pop	{r7}
 8000628:	4770      	bx	lr
 800062a:	bf00      	nop
 800062c:	e000ed00 	.word	0xe000ed00

08000630 <__NVIC_GetPriorityGrouping>:
  \brief   Get Priority Grouping
  \details Reads the priority grouping field from the NVIC Interrupt Controller.
  \return                Priority grouping field (SCB->AIRCR [10:8] PRIGROUP field).
 */
__STATIC_INLINE uint32_t __NVIC_GetPriorityGrouping(void)
{
 8000630:	b480      	push	{r7}
 8000632:	af00      	add	r7, sp, #0
  return ((uint32_t)((SCB->AIRCR & SCB_AIRCR_PRIGROUP_Msk) >> SCB_AIRCR_PRIGROUP_Pos));
 8000634:	4b04      	ldr	r3, [pc, #16]	; (8000648 <__NVIC_GetPriorityGrouping+0x18>)
 8000636:	68db      	ldr	r3, [r3, #12]
 8000638:	0a1b      	lsrs	r3, r3, #8
 800063a:	f003 0307 	and.w	r3, r3, #7
}
 800063e:	4618      	mov	r0, r3
 8000640:	46bd      	mov	sp, r7
 8000642:	bc80      	pop	{r7}
 8000644:	4770      	bx	lr
 8000646:	bf00      	nop
 8000648:	e000ed00 	.word	0xe000ed00

0800064c <__NVIC_SetPriority>:
  \param [in]      IRQn  Interrupt number.
  \param [in]  priority  Priority to set.
  \note    The priority cannot be set for every processor exception.
 */
__STATIC_INLINE void __NVIC_SetPriority(IRQn_Type IRQn, uint32_t priority)
{
 800064c:	b480      	push	{r7}
 800064e:	b083      	sub	sp, #12
 8000650:	af00      	add	r7, sp, #0
 8000652:	4603      	mov	r3, r0
 8000654:	6039      	str	r1, [r7, #0]
 8000656:	71fb      	strb	r3, [r7, #7]
  if ((int32_t)(IRQn) >= 0)
 8000658:	f997 3007 	ldrsb.w	r3, [r7, #7]
 800065c:	2b00      	cmp	r3, #0
 800065e:	db0a      	blt.n	8000676 <__NVIC_SetPriority+0x2a>
  {
    NVIC->IP[((uint32_t)IRQn)]               = (uint8_t)((priority << (8U - __NVIC_PRIO_BITS)) & (uint32_t)0xFFUL);
 8000660:	683b      	ldr	r3, [r7, #0]
 8000662:	b2da      	uxtb	r2, r3
 8000664:	490c      	ldr	r1, [pc, #48]	; (8000698 <__NVIC_SetPriority+0x4c>)
 8000666:	f997 3007 	ldrsb.w	r3, [r7, #7]
 800066a:	0112      	lsls	r2, r2, #4
 800066c:	b2d2      	uxtb	r2, r2
 800066e:	440b      	add	r3, r1
 8000670:	f883 2300 	strb.w	r2, [r3, #768]	; 0x300
  }
  else
  {
    SCB->SHP[(((uint32_t)IRQn) & 0xFUL)-4UL] = (uint8_t)((priority << (8U - __NVIC_PRIO_BITS)) & (uint32_t)0xFFUL);
  }
}
 8000674:	e00a      	b.n	800068c <__NVIC_SetPriority+0x40>
    SCB->SHP[(((uint32_t)IRQn) & 0xFUL)-4UL] = (uint8_t)((priority << (8U - __NVIC_PRIO_BITS)) & (uint32_t)0xFFUL);
 8000676:	683b      	ldr	r3, [r7, #0]
 8000678:	b2da      	uxtb	r2, r3
 800067a:	4908      	ldr	r1, [pc, #32]	; (800069c <__NVIC_SetPriority+0x50>)
 800067c:	79fb      	ldrb	r3, [r7, #7]
 800067e:	f003 030f 	and.w	r3, r3, #15
 8000682:	3b04      	subs	r3, #4
 8000684:	0112      	lsls	r2, r2, #4
 8000686:	b2d2      	uxtb	r2, r2
 8000688:	440b      	add	r3, r1
 800068a:	761a      	strb	r2, [r3, #24]
}
 800068c:	bf00      	nop
 800068e:	370c      	adds	r7, #12
 8000690:	46bd      	mov	sp, r7
 8000692:	bc80      	pop	{r7}
 8000694:	4770      	bx	lr
 8000696:	bf00      	nop
 8000698:	e000e100 	.word	0xe000e100
 800069c:	e000ed00 	.word	0xe000ed00

080006a0 <NVIC_EncodePriority>:
  \param [in]   PreemptPriority  Preemptive priority value (starting from 0).
  \param [in]       SubPriority  Subpriority value (starting from 0).
  \return                        Encoded priority. Value can be used in the function \ref NVIC_SetPriority().
 */
__STATIC_INLINE uint32_t NVIC_EncodePriority (uint32_t PriorityGroup, uint32_t PreemptPriority, uint32_t SubPriority)
{
 80006a0:	b480      	push	{r7}
 80006a2:	b089      	sub	sp, #36	; 0x24
 80006a4:	af00      	add	r7, sp, #0
 80006a6:	60f8      	str	r0, [r7, #12]
 80006a8:	60b9      	str	r1, [r7, #8]
 80006aa:	607a      	str	r2, [r7, #4]
  uint32_t PriorityGroupTmp = (PriorityGroup & (uint32_t)0x07UL);   /* only values 0..7 are used          */
 80006ac:	68fb      	ldr	r3, [r7, #12]
 80006ae:	f003 0307 	and.w	r3, r3, #7
 80006b2:	61fb      	str	r3, [r7, #28]
  uint32_t PreemptPriorityBits;
  uint32_t SubPriorityBits;

  PreemptPriorityBits = ((7UL - PriorityGroupTmp) > (uint32_t)(__NVIC_PRIO_BITS)) ? (uint32_t)(__NVIC_PRIO_BITS) : (uint32_t)(7UL - PriorityGroupTmp);
 80006b4:	69fb      	ldr	r3, [r7, #28]
 80006b6:	f1c3 0307 	rsb	r3, r3, #7
 80006ba:	2b04      	cmp	r3, #4
 80006bc:	bf28      	it	cs
 80006be:	2304      	movcs	r3, #4
 80006c0:	61bb      	str	r3, [r7, #24]
  SubPriorityBits     = ((PriorityGroupTmp + (uint32_t)(__NVIC_PRIO_BITS)) < (uint32_t)7UL) ? (uint32_t)0UL : (uint32_t)((PriorityGroupTmp - 7UL) + (uint32_t)(__NVIC_PRIO_BITS));
 80006c2:	69fb      	ldr	r3, [r7, #28]
 80006c4:	3304      	adds	r3, #4
 80006c6:	2b06      	cmp	r3, #6
 80006c8:	d902      	bls.n	80006d0 <NVIC_EncodePriority+0x30>
 80006ca:	69fb      	ldr	r3, [r7, #28]
 80006cc:	3b03      	subs	r3, #3
 80006ce:	e000      	b.n	80006d2 <NVIC_EncodePriority+0x32>
 80006d0:	2300      	movs	r3, #0
 80006d2:	617b      	str	r3, [r7, #20]

  return (
           ((PreemptPriority & (uint32_t)((1UL << (PreemptPriorityBits)) - 1UL)) << SubPriorityBits) |
 80006d4:	f04f 32ff 	mov.w	r2, #4294967295
 80006d8:	69bb      	ldr	r3, [r7, #24]
 80006da:	fa02 f303 	lsl.w	r3, r2, r3
 80006de:	43da      	mvns	r2, r3
 80006e0:	68bb      	ldr	r3, [r7, #8]
 80006e2:	401a      	ands	r2, r3
 80006e4:	697b      	ldr	r3, [r7, #20]
 80006e6:	409a      	lsls	r2, r3
           ((SubPriority     & (uint32_t)((1UL << (SubPriorityBits    )) - 1UL)))
 80006e8:	f04f 31ff 	mov.w	r1, #4294967295
 80006ec:	697b      	ldr	r3, [r7, #20]
 80006ee:	fa01 f303 	lsl.w	r3, r1, r3
 80006f2:	43d9      	mvns	r1, r3
 80006f4:	687b      	ldr	r3, [r7, #4]
 80006f6:	400b      	ands	r3, r1
           ((PreemptPriority & (uint32_t)((1UL << (PreemptPriorityBits)) - 1UL)) << SubPriorityBits) |
 80006f8:	4313      	orrs	r3, r2
         );
}
 80006fa:	4618      	mov	r0, r3
 80006fc:	3724      	adds	r7, #36	; 0x24
 80006fe:	46bd      	mov	sp, r7
 8000700:	bc80      	pop	{r7}
 8000702:	4770      	bx	lr

08000704 <SysTick_Config>:
  \note    When the variable <b>__Vendor_SysTickConfig</b> is set to 1, then the
           function <b>SysTick_Config</b> is not included. In this case, the file <b><i>device</i>.h</b>
           must contain a vendor-specific implementation of this function.
 */
__STATIC_INLINE uint32_t SysTick_Config(uint32_t ticks)
{
 8000704:	b580      	push	{r7, lr}
 8000706:	b082      	sub	sp, #8
 8000708:	af00      	add	r7, sp, #0
 800070a:	6078      	str	r0, [r7, #4]
  if ((ticks - 1UL) > SysTick_LOAD_RELOAD_Msk)
 800070c:	687b      	ldr	r3, [r7, #4]
 800070e:	3b01      	subs	r3, #1
 8000710:	f1b3 7f80 	cmp.w	r3, #16777216	; 0x1000000
 8000714:	d301      	bcc.n	800071a <SysTick_Config+0x16>
  {
    return (1UL);                                                   /* Reload value impossible */
 8000716:	2301      	movs	r3, #1
 8000718:	e00f      	b.n	800073a <SysTick_Config+0x36>
  }

  SysTick->LOAD  = (uint32_t)(ticks - 1UL);                         /* set reload register */
 800071a:	4a0a      	ldr	r2, [pc, #40]	; (8000744 <SysTick_Config+0x40>)
 800071c:	687b      	ldr	r3, [r7, #4]
 800071e:	3b01      	subs	r3, #1
 8000720:	6053      	str	r3, [r2, #4]
  NVIC_SetPriority (SysTick_IRQn, (1UL << __NVIC_PRIO_BITS) - 1UL); /* set Priority for Systick Interrupt */
 8000722:	210f      	movs	r1, #15
 8000724:	f04f 30ff 	mov.w	r0, #4294967295
 8000728:	f7ff ff90 	bl	800064c <__NVIC_SetPriority>
  SysTick->VAL   = 0UL;                                             /* Load the SysTick Counter Value */
 800072c:	4b05      	ldr	r3, [pc, #20]	; (8000744 <SysTick_Config+0x40>)
 800072e:	2200      	movs	r2, #0
 8000730:	609a      	str	r2, [r3, #8]
  SysTick->CTRL  = SysTick_CTRL_CLKSOURCE_Msk |
 8000732:	4b04      	ldr	r3, [pc, #16]	; (8000744 <SysTick_Config+0x40>)
 8000734:	2207      	movs	r2, #7
 8000736:	601a      	str	r2, [r3, #0]
                   SysTick_CTRL_TICKINT_Msk   |
                   SysTick_CTRL_ENABLE_Msk;                         /* Enable SysTick IRQ and SysTick Timer */
  return (0UL);                                                     /* Function successful */
 8000738:	2300      	movs	r3, #0
}
 800073a:	4618      	mov	r0, r3
 800073c:	3708      	adds	r7, #8
 800073e:	46bd      	mov	sp, r7
 8000740:	bd80      	pop	{r7, pc}
 8000742:	bf00      	nop
 8000744:	e000e010 	.word	0xe000e010

08000748 <HAL_NVIC_SetPriorityGrouping>:
  * @note   When the NVIC_PriorityGroup_0 is selected, IRQ preemption is no more possible. 
  *         The pending IRQ priority will be managed only by the subpriority. 
  * @retval None
  */
void HAL_NVIC_SetPriorityGrouping(uint32_t PriorityGroup)
{
 8000748:	b580      	push	{r7, lr}
 800074a:	b082      	sub	sp, #8
 800074c:	af00      	add	r7, sp, #0
 800074e:	6078      	str	r0, [r7, #4]
  /* Check the parameters */
  assert_param(IS_NVIC_PRIORITY_GROUP(PriorityGroup));
  
  /* Set the PRIGROUP[10:8] bits according to the PriorityGroup parameter value */
  NVIC_SetPriorityGrouping(PriorityGroup);
 8000750:	6878      	ldr	r0, [r7, #4]
 8000752:	f7ff ff49 	bl	80005e8 <__NVIC_SetPriorityGrouping>
}
 8000756:	bf00      	nop
 8000758:	3708      	adds	r7, #8
 800075a:	46bd      	mov	sp, r7
 800075c:	bd80      	pop	{r7, pc}

0800075e <HAL_NVIC_SetPriority>:
  *         This parameter can be a value between 0 and 15
  *         A lower priority value indicates a higher priority.          
  * @retval None
  */
void HAL_NVIC_SetPriority(IRQn_Type IRQn, uint32_t PreemptPriority, uint32_t SubPriority)
{ 
 800075e:	b580      	push	{r7, lr}
 8000760:	b086      	sub	sp, #24
 8000762:	af00      	add	r7, sp, #0
 8000764:	4603      	mov	r3, r0
 8000766:	60b9      	str	r1, [r7, #8]
 8000768:	607a      	str	r2, [r7, #4]
 800076a:	73fb      	strb	r3, [r7, #15]
  uint32_t prioritygroup = 0x00U;
 800076c:	2300      	movs	r3, #0
 800076e:	617b      	str	r3, [r7, #20]
  
  /* Check the parameters */
  assert_param(IS_NVIC_SUB_PRIORITY(SubPriority));
  assert_param(IS_NVIC_PREEMPTION_PRIORITY(PreemptPriority));
  
  prioritygroup = NVIC_GetPriorityGrouping();
 8000770:	f7ff ff5e 	bl	8000630 <__NVIC_GetPriorityGrouping>
 8000774:	6178      	str	r0, [r7, #20]
  
  NVIC_SetPriority(IRQn, NVIC_EncodePriority(prioritygroup, PreemptPriority, SubPriority));
 8000776:	687a      	ldr	r2, [r7, #4]
 8000778:	68b9      	ldr	r1, [r7, #8]
 800077a:	6978      	ldr	r0, [r7, #20]
 800077c:	f7ff ff90 	bl	80006a0 <NVIC_EncodePriority>
 8000780:	4602      	mov	r2, r0
 8000782:	f997 300f 	ldrsb.w	r3, [r7, #15]
 8000786:	4611      	mov	r1, r2
 8000788:	4618      	mov	r0, r3
 800078a:	f7ff ff5f 	bl	800064c <__NVIC_SetPriority>
}
 800078e:	bf00      	nop
 8000790:	3718      	adds	r7, #24
 8000792:	46bd      	mov	sp, r7
 8000794:	bd80      	pop	{r7, pc}

08000796 <HAL_SYSTICK_Config>:
  * @param  TicksNumb: Specifies the ticks Number of ticks between two interrupts.
  * @retval status:  - 0  Function succeeded.
  *                  - 1  Function failed.
  */
uint32_t HAL_SYSTICK_Config(uint32_t TicksNumb)
{
 8000796:	b580      	push	{r7, lr}
 8000798:	b082      	sub	sp, #8
 800079a:	af00      	add	r7, sp, #0
 800079c:	6078      	str	r0, [r7, #4]
   return SysTick_Config(TicksNumb);
 800079e:	6878      	ldr	r0, [r7, #4]
 80007a0:	f7ff ffb0 	bl	8000704 <SysTick_Config>
 80007a4:	4603      	mov	r3, r0
}
 80007a6:	4618      	mov	r0, r3
 80007a8:	3708      	adds	r7, #8
 80007aa:	46bd      	mov	sp, r7
 80007ac:	bd80      	pop	{r7, pc}
	...

080007b0 <HAL_GPIO_Init>:
  * @param  GPIO_Init: pointer to a GPIO_InitTypeDef structure that contains
  *         the configuration information for the specified GPIO peripheral.
  * @retval None
  */
void HAL_GPIO_Init(GPIO_TypeDef  *GPIOx, GPIO_InitTypeDef *GPIO_Init)
{
 80007b0:	b480      	push	{r7}
 80007b2:	b08b      	sub	sp, #44	; 0x2c
 80007b4:	af00      	add	r7, sp, #0
 80007b6:	6078      	str	r0, [r7, #4]
 80007b8:	6039      	str	r1, [r7, #0]
  uint32_t position = 0x00u;
 80007ba:	2300      	movs	r3, #0
 80007bc:	627b      	str	r3, [r7, #36]	; 0x24
  uint32_t ioposition;
  uint32_t iocurrent;
  uint32_t temp;
  uint32_t config = 0x00u;
 80007be:	2300      	movs	r3, #0
 80007c0:	623b      	str	r3, [r7, #32]
  assert_param(IS_GPIO_ALL_INSTANCE(GPIOx));
  assert_param(IS_GPIO_PIN(GPIO_Init->Pin));
  assert_param(IS_GPIO_MODE(GPIO_Init->Mode));

  /* Configure the port pins */
  while (((GPIO_Init->Pin) >> position) != 0x00u)
 80007c2:	e127      	b.n	8000a14 <HAL_GPIO_Init+0x264>
  {
    /* Get the IO position */
    ioposition = (0x01uL << position);
 80007c4:	2201      	movs	r2, #1
 80007c6:	6a7b      	ldr	r3, [r7, #36]	; 0x24
 80007c8:	fa02 f303 	lsl.w	r3, r2, r3
 80007cc:	61fb      	str	r3, [r7, #28]

    /* Get the current IO position */
    iocurrent = (uint32_t)(GPIO_Init->Pin) & ioposition;
 80007ce:	683b      	ldr	r3, [r7, #0]
 80007d0:	681b      	ldr	r3, [r3, #0]
 80007d2:	69fa      	ldr	r2, [r7, #28]
 80007d4:	4013      	ands	r3, r2
 80007d6:	61bb      	str	r3, [r7, #24]

    if (iocurrent == ioposition)
 80007d8:	69ba      	ldr	r2, [r7, #24]
 80007da:	69fb      	ldr	r3, [r7, #28]
 80007dc:	429a      	cmp	r2, r3
 80007de:	f040 8116 	bne.w	8000a0e <HAL_GPIO_Init+0x25e>
    {
      /* Check the Alternate function parameters */
      assert_param(IS_GPIO_AF_INSTANCE(GPIOx));

      /* Based on the required mode, filling config variable with MODEy[1:0] and CNFy[3:2] corresponding bits */
      switch (GPIO_Init->Mode)
 80007e2:	683b      	ldr	r3, [r7, #0]
 80007e4:	685b      	ldr	r3, [r3, #4]
 80007e6:	2b12      	cmp	r3, #18
 80007e8:	d034      	beq.n	8000854 <HAL_GPIO_Init+0xa4>
 80007ea:	2b12      	cmp	r3, #18
 80007ec:	d80d      	bhi.n	800080a <HAL_GPIO_Init+0x5a>
 80007ee:	2b02      	cmp	r3, #2
 80007f0:	d02b      	beq.n	800084a <HAL_GPIO_Init+0x9a>
 80007f2:	2b02      	cmp	r3, #2
 80007f4:	d804      	bhi.n	8000800 <HAL_GPIO_Init+0x50>
 80007f6:	2b00      	cmp	r3, #0
 80007f8:	d031      	beq.n	800085e <HAL_GPIO_Init+0xae>
 80007fa:	2b01      	cmp	r3, #1
 80007fc:	d01c      	beq.n	8000838 <HAL_GPIO_Init+0x88>
          config = GPIO_CR_MODE_INPUT + GPIO_CR_CNF_ANALOG;
          break;

        /* Parameters are checked with assert_param */
        default:
          break;
 80007fe:	e048      	b.n	8000892 <HAL_GPIO_Init+0xe2>
      switch (GPIO_Init->Mode)
 8000800:	2b03      	cmp	r3, #3
 8000802:	d043      	beq.n	800088c <HAL_GPIO_Init+0xdc>
 8000804:	2b11      	cmp	r3, #17
 8000806:	d01b      	beq.n	8000840 <HAL_GPIO_Init+0x90>
          break;
 8000808:	e043      	b.n	8000892 <HAL_GPIO_Init+0xe2>
      switch (GPIO_Init->Mode)
 800080a:	4a89      	ldr	r2, [pc, #548]	; (8000a30 <HAL_GPIO_Init+0x280>)
 800080c:	4293      	cmp	r3, r2
 800080e:	d026      	beq.n	800085e <HAL_GPIO_Init+0xae>
 8000810:	4a87      	ldr	r2, [pc, #540]	; (8000a30 <HAL_GPIO_Init+0x280>)
 8000812:	4293      	cmp	r3, r2
 8000814:	d806      	bhi.n	8000824 <HAL_GPIO_Init+0x74>
 8000816:	4a87      	ldr	r2, [pc, #540]	; (8000a34 <HAL_GPIO_Init+0x284>)
 8000818:	4293      	cmp	r3, r2
 800081a:	d020      	beq.n	800085e <HAL_GPIO_Init+0xae>
 800081c:	4a86      	ldr	r2, [pc, #536]	; (8000a38 <HAL_GPIO_Init+0x288>)
 800081e:	4293      	cmp	r3, r2
 8000820:	d01d      	beq.n	800085e <HAL_GPIO_Init+0xae>
          break;
 8000822:	e036      	b.n	8000892 <HAL_GPIO_Init+0xe2>
      switch (GPIO_Init->Mode)
 8000824:	4a85      	ldr	r2, [pc, #532]	; (8000a3c <HAL_GPIO_Init+0x28c>)
 8000826:	4293      	cmp	r3, r2
 8000828:	d019      	beq.n	800085e <HAL_GPIO_Init+0xae>
 800082a:	4a85      	ldr	r2, [pc, #532]	; (8000a40 <HAL_GPIO_Init+0x290>)
 800082c:	4293      	cmp	r3, r2
 800082e:	d016      	beq.n	800085e <HAL_GPIO_Init+0xae>
 8000830:	4a84      	ldr	r2, [pc, #528]	; (8000a44 <HAL_GPIO_Init+0x294>)
 8000832:	4293      	cmp	r3, r2
 8000834:	d013      	beq.n	800085e <HAL_GPIO_Init+0xae>
          break;
 8000836:	e02c      	b.n	8000892 <HAL_GPIO_Init+0xe2>
          config = GPIO_Init->Speed + GPIO_CR_CNF_GP_OUTPUT_PP;
 8000838:	683b      	ldr	r3, [r7, #0]
 800083a:	68db      	ldr	r3, [r3, #12]
 800083c:	623b      	str	r3, [r7, #32]
          break;
 800083e:	e028      	b.n	8000892 <HAL_GPIO_Init+0xe2>
          config = GPIO_Init->Speed + GPIO_CR_CNF_GP_OUTPUT_OD;
 8000840:	683b      	ldr	r3, [r7, #0]
 8000842:	68db      	ldr	r3, [r3, #12]
 8000844:	3304      	adds	r3, #4
 8000846:	623b      	str	r3, [r7, #32]
          break;
 8000848:	e023      	b.n	8000892 <HAL_GPIO_Init+0xe2>
          config = GPIO_Init->Speed + GPIO_CR_CNF_AF_OUTPUT_PP;
 800084a:	683b      	ldr	r3, [r7, #0]
 800084c:	68db      	ldr	r3, [r3, #12]
 800084e:	3308      	adds	r3, #8
 8000850:	623b      	str	r3, [r7, #32]
          break;
 8000852:	e01e      	b.n	8000892 <HAL_GPIO_Init+0xe2>
          config = GPIO_Init->Speed + GPIO_CR_CNF_AF_OUTPUT_OD;
 8000854:	683b      	ldr	r3, [r7, #0]
 8000856:	68db      	ldr	r3, [r3, #12]
 8000858:	330c      	adds	r3, #12
 800085a:	623b      	str	r3, [r7, #32]
          break;
 800085c:	e019      	b.n	8000892 <HAL_GPIO_Init+0xe2>
          if (GPIO_Init->Pull == GPIO_NOPULL)
 800085e:	683b      	ldr	r3, [r7, #0]
 8000860:	689b      	ldr	r3, [r3, #8]
 8000862:	2b00      	cmp	r3, #0
 8000864:	d102      	bne.n	800086c <HAL_GPIO_Init+0xbc>
            config = GPIO_CR_MODE_INPUT + GPIO_CR_CNF_INPUT_FLOATING;
 8000866:	2304      	movs	r3, #4
 8000868:	623b      	str	r3, [r7, #32]
          break;
 800086a:	e012      	b.n	8000892 <HAL_GPIO_Init+0xe2>
          else if (GPIO_Init->Pull == GPIO_PULLUP)
 800086c:	683b      	ldr	r3, [r7, #0]
 800086e:	689b      	ldr	r3, [r3, #8]
 8000870:	2b01      	cmp	r3, #1
 8000872:	d105      	bne.n	8000880 <HAL_GPIO_Init+0xd0>
            config = GPIO_CR_MODE_INPUT + GPIO_CR_CNF_INPUT_PU_PD;
 8000874:	2308      	movs	r3, #8
 8000876:	623b      	str	r3, [r7, #32]
            GPIOx->BSRR = ioposition;
 8000878:	687b      	ldr	r3, [r7, #4]
 800087a:	69fa      	ldr	r2, [r7, #28]
 800087c:	611a      	str	r2, [r3, #16]
          break;
 800087e:	e008      	b.n	8000892 <HAL_GPIO_Init+0xe2>
            config = GPIO_CR_MODE_INPUT + GPIO_CR_CNF_INPUT_PU_PD;
 8000880:	2308      	movs	r3, #8
 8000882:	623b      	str	r3, [r7, #32]
            GPIOx->BRR = ioposition;
 8000884:	687b      	ldr	r3, [r7, #4]
 8000886:	69fa      	ldr	r2, [r7, #28]
 8000888:	615a      	str	r2, [r3, #20]
          break;
 800088a:	e002      	b.n	8000892 <HAL_GPIO_Init+0xe2>
          config = GPIO_CR_MODE_INPUT + GPIO_CR_CNF_ANALOG;
 800088c:	2300      	movs	r3, #0
 800088e:	623b      	str	r3, [r7, #32]
          break;
 8000890:	bf00      	nop
      }

      /* Check if the current bit belongs to first half or last half of the pin count number
       in order to address CRH or CRL register*/
      configregister = (iocurrent < GPIO_PIN_8) ? &GPIOx->CRL     : &GPIOx->CRH;
 8000892:	69bb      	ldr	r3, [r7, #24]
 8000894:	2bff      	cmp	r3, #255	; 0xff
 8000896:	d801      	bhi.n	800089c <HAL_GPIO_Init+0xec>
 8000898:	687b      	ldr	r3, [r7, #4]
 800089a:	e001      	b.n	80008a0 <HAL_GPIO_Init+0xf0>
 800089c:	687b      	ldr	r3, [r7, #4]
 800089e:	3304      	adds	r3, #4
 80008a0:	617b      	str	r3, [r7, #20]
      registeroffset = (iocurrent < GPIO_PIN_8) ? (position << 2u) : ((position - 8u) << 2u);
 80008a2:	69bb      	ldr	r3, [r7, #24]
 80008a4:	2bff      	cmp	r3, #255	; 0xff
 80008a6:	d802      	bhi.n	80008ae <HAL_GPIO_Init+0xfe>
 80008a8:	6a7b      	ldr	r3, [r7, #36]	; 0x24
 80008aa:	009b      	lsls	r3, r3, #2
 80008ac:	e002      	b.n	80008b4 <HAL_GPIO_Init+0x104>
 80008ae:	6a7b      	ldr	r3, [r7, #36]	; 0x24
 80008b0:	3b08      	subs	r3, #8
 80008b2:	009b      	lsls	r3, r3, #2
 80008b4:	613b      	str	r3, [r7, #16]

      /* Apply the new configuration of the pin to the register */
      MODIFY_REG((*configregister), ((GPIO_CRL_MODE0 | GPIO_CRL_CNF0) << registeroffset), (config << registeroffset));
 80008b6:	697b      	ldr	r3, [r7, #20]
 80008b8:	681a      	ldr	r2, [r3, #0]
 80008ba:	210f      	movs	r1, #15
 80008bc:	693b      	ldr	r3, [r7, #16]
 80008be:	fa01 f303 	lsl.w	r3, r1, r3
 80008c2:	43db      	mvns	r3, r3
 80008c4:	401a      	ands	r2, r3
 80008c6:	6a39      	ldr	r1, [r7, #32]
 80008c8:	693b      	ldr	r3, [r7, #16]
 80008ca:	fa01 f303 	lsl.w	r3, r1, r3
 80008ce:	431a      	orrs	r2, r3
 80008d0:	697b      	ldr	r3, [r7, #20]
 80008d2:	601a      	str	r2, [r3, #0]

      /*--------------------- EXTI Mode Configuration ------------------------*/
      /* Configure the External Interrupt or event for the current IO */
      if ((GPIO_Init->Mode & EXTI_MODE) == EXTI_MODE)
 80008d4:	683b      	ldr	r3, [r7, #0]
 80008d6:	685b      	ldr	r3, [r3, #4]
 80008d8:	f003 5380 	and.w	r3, r3, #268435456	; 0x10000000
 80008dc:	2b00      	cmp	r3, #0
 80008de:	f000 8096 	beq.w	8000a0e <HAL_GPIO_Init+0x25e>
      {
        /* Enable AFIO Clock */
        __HAL_RCC_AFIO_CLK_ENABLE();
 80008e2:	4b59      	ldr	r3, [pc, #356]	; (8000a48 <HAL_GPIO_Init+0x298>)
 80008e4:	699b      	ldr	r3, [r3, #24]
 80008e6:	4a58      	ldr	r2, [pc, #352]	; (8000a48 <HAL_GPIO_Init+0x298>)
 80008e8:	f043 0301 	orr.w	r3, r3, #1
 80008ec:	6193      	str	r3, [r2, #24]
 80008ee:	4b56      	ldr	r3, [pc, #344]	; (8000a48 <HAL_GPIO_Init+0x298>)
 80008f0:	699b      	ldr	r3, [r3, #24]
 80008f2:	f003 0301 	and.w	r3, r3, #1
 80008f6:	60bb      	str	r3, [r7, #8]
 80008f8:	68bb      	ldr	r3, [r7, #8]
        temp = AFIO->EXTICR[position >> 2u];
 80008fa:	4a54      	ldr	r2, [pc, #336]	; (8000a4c <HAL_GPIO_Init+0x29c>)
 80008fc:	6a7b      	ldr	r3, [r7, #36]	; 0x24
 80008fe:	089b      	lsrs	r3, r3, #2
 8000900:	3302      	adds	r3, #2
 8000902:	f852 3023 	ldr.w	r3, [r2, r3, lsl #2]
 8000906:	60fb      	str	r3, [r7, #12]
        CLEAR_BIT(temp, (0x0Fu) << (4u * (position & 0x03u)));
 8000908:	6a7b      	ldr	r3, [r7, #36]	; 0x24
 800090a:	f003 0303 	and.w	r3, r3, #3
 800090e:	009b      	lsls	r3, r3, #2
 8000910:	220f      	movs	r2, #15
 8000912:	fa02 f303 	lsl.w	r3, r2, r3
 8000916:	43db      	mvns	r3, r3
 8000918:	68fa      	ldr	r2, [r7, #12]
 800091a:	4013      	ands	r3, r2
 800091c:	60fb      	str	r3, [r7, #12]
        SET_BIT(temp, (GPIO_GET_INDEX(GPIOx)) << (4u * (position & 0x03u)));
 800091e:	687b      	ldr	r3, [r7, #4]
 8000920:	4a4b      	ldr	r2, [pc, #300]	; (8000a50 <HAL_GPIO_Init+0x2a0>)
 8000922:	4293      	cmp	r3, r2
 8000924:	d013      	beq.n	800094e <HAL_GPIO_Init+0x19e>
 8000926:	687b      	ldr	r3, [r7, #4]
 8000928:	4a4a      	ldr	r2, [pc, #296]	; (8000a54 <HAL_GPIO_Init+0x2a4>)
 800092a:	4293      	cmp	r3, r2
 800092c:	d00d      	beq.n	800094a <HAL_GPIO_Init+0x19a>
 800092e:	687b      	ldr	r3, [r7, #4]
 8000930:	4a49      	ldr	r2, [pc, #292]	; (8000a58 <HAL_GPIO_Init+0x2a8>)
 8000932:	4293      	cmp	r3, r2
 8000934:	d007      	beq.n	8000946 <HAL_GPIO_Init+0x196>
 8000936:	687b      	ldr	r3, [r7, #4]
 8000938:	4a48      	ldr	r2, [pc, #288]	; (8000a5c <HAL_GPIO_Init+0x2ac>)
 800093a:	4293      	cmp	r3, r2
 800093c:	d101      	bne.n	8000942 <HAL_GPIO_Init+0x192>
 800093e:	2303      	movs	r3, #3
 8000940:	e006      	b.n	8000950 <HAL_GPIO_Init+0x1a0>
 8000942:	2304      	movs	r3, #4
 8000944:	e004      	b.n	8000950 <HAL_GPIO_Init+0x1a0>
 8000946:	2302      	movs	r3, #2
 8000948:	e002      	b.n	8000950 <HAL_GPIO_Init+0x1a0>
 800094a:	2301      	movs	r3, #1
 800094c:	e000      	b.n	8000950 <HAL_GPIO_Init+0x1a0>
 800094e:	2300      	movs	r3, #0
 8000950:	6a7a      	ldr	r2, [r7, #36]	; 0x24
 8000952:	f002 0203 	and.w	r2, r2, #3
 8000956:	0092      	lsls	r2, r2, #2
 8000958:	4093      	lsls	r3, r2
 800095a:	68fa      	ldr	r2, [r7, #12]
 800095c:	4313      	orrs	r3, r2
 800095e:	60fb      	str	r3, [r7, #12]
        AFIO->EXTICR[position >> 2u] = temp;
 8000960:	493a      	ldr	r1, [pc, #232]	; (8000a4c <HAL_GPIO_Init+0x29c>)
 8000962:	6a7b      	ldr	r3, [r7, #36]	; 0x24
 8000964:	089b      	lsrs	r3, r3, #2
 8000966:	3302      	adds	r3, #2
 8000968:	68fa      	ldr	r2, [r7, #12]
 800096a:	f841 2023 	str.w	r2, [r1, r3, lsl #2]


        /* Configure the interrupt mask */
        if ((GPIO_Init->Mode & GPIO_MODE_IT) == GPIO_MODE_IT)
 800096e:	683b      	ldr	r3, [r7, #0]
 8000970:	685b      	ldr	r3, [r3, #4]
 8000972:	f403 3380 	and.w	r3, r3, #65536	; 0x10000
 8000976:	2b00      	cmp	r3, #0
 8000978:	d006      	beq.n	8000988 <HAL_GPIO_Init+0x1d8>
        {
          SET_BIT(EXTI->IMR, iocurrent);
 800097a:	4b39      	ldr	r3, [pc, #228]	; (8000a60 <HAL_GPIO_Init+0x2b0>)
 800097c:	681a      	ldr	r2, [r3, #0]
 800097e:	4938      	ldr	r1, [pc, #224]	; (8000a60 <HAL_GPIO_Init+0x2b0>)
 8000980:	69bb      	ldr	r3, [r7, #24]
 8000982:	4313      	orrs	r3, r2
 8000984:	600b      	str	r3, [r1, #0]
 8000986:	e006      	b.n	8000996 <HAL_GPIO_Init+0x1e6>
        }
        else
        {
          CLEAR_BIT(EXTI->IMR, iocurrent);
 8000988:	4b35      	ldr	r3, [pc, #212]	; (8000a60 <HAL_GPIO_Init+0x2b0>)
 800098a:	681a      	ldr	r2, [r3, #0]
 800098c:	69bb      	ldr	r3, [r7, #24]
 800098e:	43db      	mvns	r3, r3
 8000990:	4933      	ldr	r1, [pc, #204]	; (8000a60 <HAL_GPIO_Init+0x2b0>)
 8000992:	4013      	ands	r3, r2
 8000994:	600b      	str	r3, [r1, #0]
        }

        /* Configure the event mask */
        if ((GPIO_Init->Mode & GPIO_MODE_EVT) == GPIO_MODE_EVT)
 8000996:	683b      	ldr	r3, [r7, #0]
 8000998:	685b      	ldr	r3, [r3, #4]
 800099a:	f403 3300 	and.w	r3, r3, #131072	; 0x20000
 800099e:	2b00      	cmp	r3, #0
 80009a0:	d006      	beq.n	80009b0 <HAL_GPIO_Init+0x200>
        {
          SET_BIT(EXTI->EMR, iocurrent);
 80009a2:	4b2f      	ldr	r3, [pc, #188]	; (8000a60 <HAL_GPIO_Init+0x2b0>)
 80009a4:	685a      	ldr	r2, [r3, #4]
 80009a6:	492e      	ldr	r1, [pc, #184]	; (8000a60 <HAL_GPIO_Init+0x2b0>)
 80009a8:	69bb      	ldr	r3, [r7, #24]
 80009aa:	4313      	orrs	r3, r2
 80009ac:	604b      	str	r3, [r1, #4]
 80009ae:	e006      	b.n	80009be <HAL_GPIO_Init+0x20e>
        }
        else
        {
          CLEAR_BIT(EXTI->EMR, iocurrent);
 80009b0:	4b2b      	ldr	r3, [pc, #172]	; (8000a60 <HAL_GPIO_Init+0x2b0>)
 80009b2:	685a      	ldr	r2, [r3, #4]
 80009b4:	69bb      	ldr	r3, [r7, #24]
 80009b6:	43db      	mvns	r3, r3
 80009b8:	4929      	ldr	r1, [pc, #164]	; (8000a60 <HAL_GPIO_Init+0x2b0>)
 80009ba:	4013      	ands	r3, r2
 80009bc:	604b      	str	r3, [r1, #4]
        }

        /* Enable or disable the rising trigger */
        if ((GPIO_Init->Mode & RISING_EDGE) == RISING_EDGE)
 80009be:	683b      	ldr	r3, [r7, #0]
 80009c0:	685b      	ldr	r3, [r3, #4]
 80009c2:	f403 1380 	and.w	r3, r3, #1048576	; 0x100000
 80009c6:	2b00      	cmp	r3, #0
 80009c8:	d006      	beq.n	80009d8 <HAL_GPIO_Init+0x228>
        {
          SET_BIT(EXTI->RTSR, iocurrent);
 80009ca:	4b25      	ldr	r3, [pc, #148]	; (8000a60 <HAL_GPIO_Init+0x2b0>)
 80009cc:	689a      	ldr	r2, [r3, #8]
 80009ce:	4924      	ldr	r1, [pc, #144]	; (8000a60 <HAL_GPIO_Init+0x2b0>)
 80009d0:	69bb      	ldr	r3, [r7, #24]
 80009d2:	4313      	orrs	r3, r2
 80009d4:	608b      	str	r3, [r1, #8]
 80009d6:	e006      	b.n	80009e6 <HAL_GPIO_Init+0x236>
        }
        else
        {
          CLEAR_BIT(EXTI->RTSR, iocurrent);
 80009d8:	4b21      	ldr	r3, [pc, #132]	; (8000a60 <HAL_GPIO_Init+0x2b0>)
 80009da:	689a      	ldr	r2, [r3, #8]
 80009dc:	69bb      	ldr	r3, [r7, #24]
 80009de:	43db      	mvns	r3, r3
 80009e0:	491f      	ldr	r1, [pc, #124]	; (8000a60 <HAL_GPIO_Init+0x2b0>)
 80009e2:	4013      	ands	r3, r2
 80009e4:	608b      	str	r3, [r1, #8]
        }

        /* Enable or disable the falling trigger */
        if ((GPIO_Init->Mode & FALLING_EDGE) == FALLING_EDGE)
 80009e6:	683b      	ldr	r3, [r7, #0]
 80009e8:	685b      	ldr	r3, [r3, #4]
 80009ea:	f403 1300 	and.w	r3, r3, #2097152	; 0x200000
 80009ee:	2b00      	cmp	r3, #0
 80009f0:	d006      	beq.n	8000a00 <HAL_GPIO_Init+0x250>
        {
          SET_BIT(EXTI->FTSR, iocurrent);
 80009f2:	4b1b      	ldr	r3, [pc, #108]	; (8000a60 <HAL_GPIO_Init+0x2b0>)
 80009f4:	68da      	ldr	r2, [r3, #12]
 80009f6:	491a      	ldr	r1, [pc, #104]	; (8000a60 <HAL_GPIO_Init+0x2b0>)
 80009f8:	69bb      	ldr	r3, [r7, #24]
 80009fa:	4313      	orrs	r3, r2
 80009fc:	60cb      	str	r3, [r1, #12]
 80009fe:	e006      	b.n	8000a0e <HAL_GPIO_Init+0x25e>
        }
        else
        {
          CLEAR_BIT(EXTI->FTSR, iocurrent);
 8000a00:	4b17      	ldr	r3, [pc, #92]	; (8000a60 <HAL_GPIO_Init+0x2b0>)
 8000a02:	68da      	ldr	r2, [r3, #12]
 8000a04:	69bb      	ldr	r3, [r7, #24]
 8000a06:	43db      	mvns	r3, r3
 8000a08:	4915      	ldr	r1, [pc, #84]	; (8000a60 <HAL_GPIO_Init+0x2b0>)
 8000a0a:	4013      	ands	r3, r2
 8000a0c:	60cb      	str	r3, [r1, #12]
        }
      }
    }

	position++;
 8000a0e:	6a7b      	ldr	r3, [r7, #36]	; 0x24
 8000a10:	3301      	adds	r3, #1
 8000a12:	627b      	str	r3, [r7, #36]	; 0x24
  while (((GPIO_Init->Pin) >> position) != 0x00u)
 8000a14:	683b      	ldr	r3, [r7, #0]
 8000a16:	681a      	ldr	r2, [r3, #0]
 8000a18:	6a7b      	ldr	r3, [r7, #36]	; 0x24
 8000a1a:	fa22 f303 	lsr.w	r3, r2, r3
 8000a1e:	2b00      	cmp	r3, #0
 8000a20:	f47f aed0 	bne.w	80007c4 <HAL_GPIO_Init+0x14>
  }
}
 8000a24:	bf00      	nop
 8000a26:	372c      	adds	r7, #44	; 0x2c
 8000a28:	46bd      	mov	sp, r7
 8000a2a:	bc80      	pop	{r7}
 8000a2c:	4770      	bx	lr
 8000a2e:	bf00      	nop
 8000a30:	10210000 	.word	0x10210000
 8000a34:	10110000 	.word	0x10110000
 8000a38:	10120000 	.word	0x10120000
 8000a3c:	10310000 	.word	0x10310000
 8000a40:	10320000 	.word	0x10320000
 8000a44:	10220000 	.word	0x10220000
 8000a48:	40021000 	.word	0x40021000
 8000a4c:	40010000 	.word	0x40010000
 8000a50:	40010800 	.word	0x40010800
 8000a54:	40010c00 	.word	0x40010c00
 8000a58:	40011000 	.word	0x40011000
 8000a5c:	40011400 	.word	0x40011400
 8000a60:	40010400 	.word	0x40010400

08000a64 <HAL_GPIO_TogglePin>:
  * @param  GPIOx: where x can be (A..G depending on device used) to select the GPIO peripheral
  * @param  GPIO_Pin: Specifies the pins to be toggled.
  * @retval None
  */
void HAL_GPIO_TogglePin(GPIO_TypeDef *GPIOx, uint16_t GPIO_Pin)
{
 8000a64:	b480      	push	{r7}
 8000a66:	b085      	sub	sp, #20
 8000a68:	af00      	add	r7, sp, #0
 8000a6a:	6078      	str	r0, [r7, #4]
 8000a6c:	460b      	mov	r3, r1
 8000a6e:	807b      	strh	r3, [r7, #2]

  /* Check the parameters */
  assert_param(IS_GPIO_PIN(GPIO_Pin));

  /* get current Ouput Data Register value */
  odr = GPIOx->ODR;
 8000a70:	687b      	ldr	r3, [r7, #4]
 8000a72:	68db      	ldr	r3, [r3, #12]
 8000a74:	60fb      	str	r3, [r7, #12]

  /* Set selected pins that were at low level, and reset ones that were high */
  GPIOx->BSRR = ((odr & GPIO_Pin) << GPIO_NUMBER) | (~odr & GPIO_Pin);
 8000a76:	887a      	ldrh	r2, [r7, #2]
 8000a78:	68fb      	ldr	r3, [r7, #12]
 8000a7a:	4013      	ands	r3, r2
 8000a7c:	041a      	lsls	r2, r3, #16
 8000a7e:	68fb      	ldr	r3, [r7, #12]
 8000a80:	43d9      	mvns	r1, r3
 8000a82:	887b      	ldrh	r3, [r7, #2]
 8000a84:	400b      	ands	r3, r1
 8000a86:	431a      	orrs	r2, r3
 8000a88:	687b      	ldr	r3, [r7, #4]
 8000a8a:	611a      	str	r2, [r3, #16]
}
 8000a8c:	bf00      	nop
 8000a8e:	3714      	adds	r7, #20
 8000a90:	46bd      	mov	sp, r7
 8000a92:	bc80      	pop	{r7}
 8000a94:	4770      	bx	lr
	...

08000a98 <HAL_I2C_Init>:
  * @param  hi2c Pointer to a I2C_HandleTypeDef structure that contains
  *                the configuration information for the specified I2C.
  * @retval HAL status
  */
HAL_StatusTypeDef HAL_I2C_Init(I2C_HandleTypeDef *hi2c)
{
 8000a98:	b580      	push	{r7, lr}
 8000a9a:	b084      	sub	sp, #16
 8000a9c:	af00      	add	r7, sp, #0
 8000a9e:	6078      	str	r0, [r7, #4]
  uint32_t freqrange;
  uint32_t pclk1;

  /* Check the I2C handle allocation */
  if (hi2c == NULL)
 8000aa0:	687b      	ldr	r3, [r7, #4]
 8000aa2:	2b00      	cmp	r3, #0
 8000aa4:	d101      	bne.n	8000aaa <HAL_I2C_Init+0x12>
  {
    return HAL_ERROR;
 8000aa6:	2301      	movs	r3, #1
 8000aa8:	e11f      	b.n	8000cea <HAL_I2C_Init+0x252>
  assert_param(IS_I2C_DUAL_ADDRESS(hi2c->Init.DualAddressMode));
  assert_param(IS_I2C_OWN_ADDRESS2(hi2c->Init.OwnAddress2));
  assert_param(IS_I2C_GENERAL_CALL(hi2c->Init.GeneralCallMode));
  assert_param(IS_I2C_NO_STRETCH(hi2c->Init.NoStretchMode));

  if (hi2c->State == HAL_I2C_STATE_RESET)
 8000aaa:	687b      	ldr	r3, [r7, #4]
 8000aac:	f893 303d 	ldrb.w	r3, [r3, #61]	; 0x3d
 8000ab0:	b2db      	uxtb	r3, r3
 8000ab2:	2b00      	cmp	r3, #0
 8000ab4:	d106      	bne.n	8000ac4 <HAL_I2C_Init+0x2c>
  {
    /* Allocate lock resource and initialize it */
    hi2c->Lock = HAL_UNLOCKED;
 8000ab6:	687b      	ldr	r3, [r7, #4]
 8000ab8:	2200      	movs	r2, #0
 8000aba:	f883 203c 	strb.w	r2, [r3, #60]	; 0x3c

    /* Init the low level hardware : GPIO, CLOCK, NVIC */
    hi2c->MspInitCallback(hi2c);
#else
    /* Init the low level hardware : GPIO, CLOCK, NVIC */
    HAL_I2C_MspInit(hi2c);
 8000abe:	6878      	ldr	r0, [r7, #4]
 8000ac0:	f7ff fc7c 	bl	80003bc <HAL_I2C_MspInit>
#endif /* USE_HAL_I2C_REGISTER_CALLBACKS */
  }

  hi2c->State = HAL_I2C_STATE_BUSY;
 8000ac4:	687b      	ldr	r3, [r7, #4]
 8000ac6:	2224      	movs	r2, #36	; 0x24
 8000ac8:	f883 203d 	strb.w	r2, [r3, #61]	; 0x3d

  /* Disable the selected I2C peripheral */
  __HAL_I2C_DISABLE(hi2c);
 8000acc:	687b      	ldr	r3, [r7, #4]
 8000ace:	681b      	ldr	r3, [r3, #0]
 8000ad0:	681a      	ldr	r2, [r3, #0]
 8000ad2:	687b      	ldr	r3, [r7, #4]
 8000ad4:	681b      	ldr	r3, [r3, #0]
 8000ad6:	f022 0201 	bic.w	r2, r2, #1
 8000ada:	601a      	str	r2, [r3, #0]

  /*Reset I2C*/
  hi2c->Instance->CR1 |= I2C_CR1_SWRST;
 8000adc:	687b      	ldr	r3, [r7, #4]
 8000ade:	681b      	ldr	r3, [r3, #0]
 8000ae0:	681a      	ldr	r2, [r3, #0]
 8000ae2:	687b      	ldr	r3, [r7, #4]
 8000ae4:	681b      	ldr	r3, [r3, #0]
 8000ae6:	f442 4200 	orr.w	r2, r2, #32768	; 0x8000
 8000aea:	601a      	str	r2, [r3, #0]
  hi2c->Instance->CR1 &= ~I2C_CR1_SWRST;
 8000aec:	687b      	ldr	r3, [r7, #4]
 8000aee:	681b      	ldr	r3, [r3, #0]
 8000af0:	681a      	ldr	r2, [r3, #0]
 8000af2:	687b      	ldr	r3, [r7, #4]
 8000af4:	681b      	ldr	r3, [r3, #0]
 8000af6:	f422 4200 	bic.w	r2, r2, #32768	; 0x8000
 8000afa:	601a      	str	r2, [r3, #0]

  /* Get PCLK1 frequency */
  pclk1 = HAL_RCC_GetPCLK1Freq();
 8000afc:	f000 ffe0 	bl	8001ac0 <HAL_RCC_GetPCLK1Freq>
 8000b00:	60f8      	str	r0, [r7, #12]

  /* Check the minimum allowed PCLK1 frequency */
  if (I2C_MIN_PCLK_FREQ(pclk1, hi2c->Init.ClockSpeed) == 1U)
 8000b02:	687b      	ldr	r3, [r7, #4]
 8000b04:	685b      	ldr	r3, [r3, #4]
 8000b06:	4a7b      	ldr	r2, [pc, #492]	; (8000cf4 <HAL_I2C_Init+0x25c>)
 8000b08:	4293      	cmp	r3, r2
 8000b0a:	d807      	bhi.n	8000b1c <HAL_I2C_Init+0x84>
 8000b0c:	68fb      	ldr	r3, [r7, #12]
 8000b0e:	4a7a      	ldr	r2, [pc, #488]	; (8000cf8 <HAL_I2C_Init+0x260>)
 8000b10:	4293      	cmp	r3, r2
 8000b12:	bf94      	ite	ls
 8000b14:	2301      	movls	r3, #1
 8000b16:	2300      	movhi	r3, #0
 8000b18:	b2db      	uxtb	r3, r3
 8000b1a:	e006      	b.n	8000b2a <HAL_I2C_Init+0x92>
 8000b1c:	68fb      	ldr	r3, [r7, #12]
 8000b1e:	4a77      	ldr	r2, [pc, #476]	; (8000cfc <HAL_I2C_Init+0x264>)
 8000b20:	4293      	cmp	r3, r2
 8000b22:	bf94      	ite	ls
 8000b24:	2301      	movls	r3, #1
 8000b26:	2300      	movhi	r3, #0
 8000b28:	b2db      	uxtb	r3, r3
 8000b2a:	2b00      	cmp	r3, #0
 8000b2c:	d001      	beq.n	8000b32 <HAL_I2C_Init+0x9a>
  {
    return HAL_ERROR;
 8000b2e:	2301      	movs	r3, #1
 8000b30:	e0db      	b.n	8000cea <HAL_I2C_Init+0x252>
  }

  /* Calculate frequency range */
  freqrange = I2C_FREQRANGE(pclk1);
 8000b32:	68fb      	ldr	r3, [r7, #12]
 8000b34:	4a72      	ldr	r2, [pc, #456]	; (8000d00 <HAL_I2C_Init+0x268>)
 8000b36:	fba2 2303 	umull	r2, r3, r2, r3
 8000b3a:	0c9b      	lsrs	r3, r3, #18
 8000b3c:	60bb      	str	r3, [r7, #8]

  /*---------------------------- I2Cx CR2 Configuration ----------------------*/
  /* Configure I2Cx: Frequency range */
  MODIFY_REG(hi2c->Instance->CR2, I2C_CR2_FREQ, freqrange);
 8000b3e:	687b      	ldr	r3, [r7, #4]
 8000b40:	681b      	ldr	r3, [r3, #0]
 8000b42:	685b      	ldr	r3, [r3, #4]
 8000b44:	f023 013f 	bic.w	r1, r3, #63	; 0x3f
 8000b48:	687b      	ldr	r3, [r7, #4]
 8000b4a:	681b      	ldr	r3, [r3, #0]
 8000b4c:	68ba      	ldr	r2, [r7, #8]
 8000b4e:	430a      	orrs	r2, r1
 8000b50:	605a      	str	r2, [r3, #4]

  /*---------------------------- I2Cx TRISE Configuration --------------------*/
  /* Configure I2Cx: Rise Time */
  MODIFY_REG(hi2c->Instance->TRISE, I2C_TRISE_TRISE, I2C_RISE_TIME(freqrange, hi2c->Init.ClockSpeed));
 8000b52:	687b      	ldr	r3, [r7, #4]
 8000b54:	681b      	ldr	r3, [r3, #0]
 8000b56:	6a1b      	ldr	r3, [r3, #32]
 8000b58:	f023 013f 	bic.w	r1, r3, #63	; 0x3f
 8000b5c:	687b      	ldr	r3, [r7, #4]
 8000b5e:	685b      	ldr	r3, [r3, #4]
 8000b60:	4a64      	ldr	r2, [pc, #400]	; (8000cf4 <HAL_I2C_Init+0x25c>)
 8000b62:	4293      	cmp	r3, r2
 8000b64:	d802      	bhi.n	8000b6c <HAL_I2C_Init+0xd4>
 8000b66:	68bb      	ldr	r3, [r7, #8]
 8000b68:	3301      	adds	r3, #1
 8000b6a:	e009      	b.n	8000b80 <HAL_I2C_Init+0xe8>
 8000b6c:	68bb      	ldr	r3, [r7, #8]
 8000b6e:	f44f 7296 	mov.w	r2, #300	; 0x12c
 8000b72:	fb02 f303 	mul.w	r3, r2, r3
 8000b76:	4a63      	ldr	r2, [pc, #396]	; (8000d04 <HAL_I2C_Init+0x26c>)
 8000b78:	fba2 2303 	umull	r2, r3, r2, r3
 8000b7c:	099b      	lsrs	r3, r3, #6
 8000b7e:	3301      	adds	r3, #1
 8000b80:	687a      	ldr	r2, [r7, #4]
 8000b82:	6812      	ldr	r2, [r2, #0]
 8000b84:	430b      	orrs	r3, r1
 8000b86:	6213      	str	r3, [r2, #32]

  /*---------------------------- I2Cx CCR Configuration ----------------------*/
  /* Configure I2Cx: Speed */
  MODIFY_REG(hi2c->Instance->CCR, (I2C_CCR_FS | I2C_CCR_DUTY | I2C_CCR_CCR), I2C_SPEED(pclk1, hi2c->Init.ClockSpeed, hi2c->Init.DutyCycle));
 8000b88:	687b      	ldr	r3, [r7, #4]
 8000b8a:	681b      	ldr	r3, [r3, #0]
 8000b8c:	69db      	ldr	r3, [r3, #28]
 8000b8e:	f423 424f 	bic.w	r2, r3, #52992	; 0xcf00
 8000b92:	f022 02ff 	bic.w	r2, r2, #255	; 0xff
 8000b96:	687b      	ldr	r3, [r7, #4]
 8000b98:	685b      	ldr	r3, [r3, #4]
 8000b9a:	4956      	ldr	r1, [pc, #344]	; (8000cf4 <HAL_I2C_Init+0x25c>)
 8000b9c:	428b      	cmp	r3, r1
 8000b9e:	d80d      	bhi.n	8000bbc <HAL_I2C_Init+0x124>
 8000ba0:	68fb      	ldr	r3, [r7, #12]
 8000ba2:	1e59      	subs	r1, r3, #1
 8000ba4:	687b      	ldr	r3, [r7, #4]
 8000ba6:	685b      	ldr	r3, [r3, #4]
 8000ba8:	005b      	lsls	r3, r3, #1
 8000baa:	fbb1 f3f3 	udiv	r3, r1, r3
 8000bae:	3301      	adds	r3, #1
 8000bb0:	f3c3 030b 	ubfx	r3, r3, #0, #12
 8000bb4:	2b04      	cmp	r3, #4
 8000bb6:	bf38      	it	cc
 8000bb8:	2304      	movcc	r3, #4
 8000bba:	e04f      	b.n	8000c5c <HAL_I2C_Init+0x1c4>
 8000bbc:	687b      	ldr	r3, [r7, #4]
 8000bbe:	689b      	ldr	r3, [r3, #8]
 8000bc0:	2b00      	cmp	r3, #0
 8000bc2:	d111      	bne.n	8000be8 <HAL_I2C_Init+0x150>
 8000bc4:	68fb      	ldr	r3, [r7, #12]
 8000bc6:	1e58      	subs	r0, r3, #1
 8000bc8:	687b      	ldr	r3, [r7, #4]
 8000bca:	6859      	ldr	r1, [r3, #4]
 8000bcc:	460b      	mov	r3, r1
 8000bce:	005b      	lsls	r3, r3, #1
 8000bd0:	440b      	add	r3, r1
 8000bd2:	fbb0 f3f3 	udiv	r3, r0, r3
 8000bd6:	3301      	adds	r3, #1
 8000bd8:	f3c3 030b 	ubfx	r3, r3, #0, #12
 8000bdc:	2b00      	cmp	r3, #0
 8000bde:	bf0c      	ite	eq
 8000be0:	2301      	moveq	r3, #1
 8000be2:	2300      	movne	r3, #0
 8000be4:	b2db      	uxtb	r3, r3
 8000be6:	e012      	b.n	8000c0e <HAL_I2C_Init+0x176>
 8000be8:	68fb      	ldr	r3, [r7, #12]
 8000bea:	1e58      	subs	r0, r3, #1
 8000bec:	687b      	ldr	r3, [r7, #4]
 8000bee:	6859      	ldr	r1, [r3, #4]
 8000bf0:	460b      	mov	r3, r1
 8000bf2:	009b      	lsls	r3, r3, #2
 8000bf4:	440b      	add	r3, r1
 8000bf6:	0099      	lsls	r1, r3, #2
 8000bf8:	440b      	add	r3, r1
 8000bfa:	fbb0 f3f3 	udiv	r3, r0, r3
 8000bfe:	3301      	adds	r3, #1
 8000c00:	f3c3 030b 	ubfx	r3, r3, #0, #12
 8000c04:	2b00      	cmp	r3, #0
 8000c06:	bf0c      	ite	eq
 8000c08:	2301      	moveq	r3, #1
 8000c0a:	2300      	movne	r3, #0
 8000c0c:	b2db      	uxtb	r3, r3
 8000c0e:	2b00      	cmp	r3, #0
 8000c10:	d001      	beq.n	8000c16 <HAL_I2C_Init+0x17e>
 8000c12:	2301      	movs	r3, #1
 8000c14:	e022      	b.n	8000c5c <HAL_I2C_Init+0x1c4>
 8000c16:	687b      	ldr	r3, [r7, #4]
 8000c18:	689b      	ldr	r3, [r3, #8]
 8000c1a:	2b00      	cmp	r3, #0
 8000c1c:	d10e      	bne.n	8000c3c <HAL_I2C_Init+0x1a4>
 8000c1e:	68fb      	ldr	r3, [r7, #12]
 8000c20:	1e58      	subs	r0, r3, #1
 8000c22:	687b      	ldr	r3, [r7, #4]
 8000c24:	6859      	ldr	r1, [r3, #4]
 8000c26:	460b      	mov	r3, r1
 8000c28:	005b      	lsls	r3, r3, #1
 8000c2a:	440b      	add	r3, r1
 8000c2c:	fbb0 f3f3 	udiv	r3, r0, r3
 8000c30:	3301      	adds	r3, #1
 8000c32:	f3c3 030b 	ubfx	r3, r3, #0, #12
 8000c36:	f443 4300 	orr.w	r3, r3, #32768	; 0x8000
 8000c3a:	e00f      	b.n	8000c5c <HAL_I2C_Init+0x1c4>
 8000c3c:	68fb      	ldr	r3, [r7, #12]
 8000c3e:	1e58      	subs	r0, r3, #1
 8000c40:	687b      	ldr	r3, [r7, #4]
 8000c42:	6859      	ldr	r1, [r3, #4]
 8000c44:	460b      	mov	r3, r1
 8000c46:	009b      	lsls	r3, r3, #2
 8000c48:	440b      	add	r3, r1
 8000c4a:	0099      	lsls	r1, r3, #2
 8000c4c:	440b      	add	r3, r1
 8000c4e:	fbb0 f3f3 	udiv	r3, r0, r3
 8000c52:	3301      	adds	r3, #1
 8000c54:	f3c3 030b 	ubfx	r3, r3, #0, #12
 8000c58:	f443 4340 	orr.w	r3, r3, #49152	; 0xc000
 8000c5c:	6879      	ldr	r1, [r7, #4]
 8000c5e:	6809      	ldr	r1, [r1, #0]
 8000c60:	4313      	orrs	r3, r2
 8000c62:	61cb      	str	r3, [r1, #28]

  /*---------------------------- I2Cx CR1 Configuration ----------------------*/
  /* Configure I2Cx: Generalcall and NoStretch mode */
  MODIFY_REG(hi2c->Instance->CR1, (I2C_CR1_ENGC | I2C_CR1_NOSTRETCH), (hi2c->Init.GeneralCallMode | hi2c->Init.NoStretchMode));
 8000c64:	687b      	ldr	r3, [r7, #4]
 8000c66:	681b      	ldr	r3, [r3, #0]
 8000c68:	681b      	ldr	r3, [r3, #0]
 8000c6a:	f023 01c0 	bic.w	r1, r3, #192	; 0xc0
 8000c6e:	687b      	ldr	r3, [r7, #4]
 8000c70:	69da      	ldr	r2, [r3, #28]
 8000c72:	687b      	ldr	r3, [r7, #4]
 8000c74:	6a1b      	ldr	r3, [r3, #32]
 8000c76:	431a      	orrs	r2, r3
 8000c78:	687b      	ldr	r3, [r7, #4]
 8000c7a:	681b      	ldr	r3, [r3, #0]
 8000c7c:	430a      	orrs	r2, r1
 8000c7e:	601a      	str	r2, [r3, #0]

  /*---------------------------- I2Cx OAR1 Configuration ---------------------*/
  /* Configure I2Cx: Own Address1 and addressing mode */
  MODIFY_REG(hi2c->Instance->OAR1, (I2C_OAR1_ADDMODE | I2C_OAR1_ADD8_9 | I2C_OAR1_ADD1_7 | I2C_OAR1_ADD0), (hi2c->Init.AddressingMode | hi2c->Init.OwnAddress1));
 8000c80:	687b      	ldr	r3, [r7, #4]
 8000c82:	681b      	ldr	r3, [r3, #0]
 8000c84:	689b      	ldr	r3, [r3, #8]
 8000c86:	f423 4303 	bic.w	r3, r3, #33536	; 0x8300
 8000c8a:	f023 03ff 	bic.w	r3, r3, #255	; 0xff
 8000c8e:	687a      	ldr	r2, [r7, #4]
 8000c90:	6911      	ldr	r1, [r2, #16]
 8000c92:	687a      	ldr	r2, [r7, #4]
 8000c94:	68d2      	ldr	r2, [r2, #12]
 8000c96:	4311      	orrs	r1, r2
 8000c98:	687a      	ldr	r2, [r7, #4]
 8000c9a:	6812      	ldr	r2, [r2, #0]
 8000c9c:	430b      	orrs	r3, r1
 8000c9e:	6093      	str	r3, [r2, #8]

  /*---------------------------- I2Cx OAR2 Configuration ---------------------*/
  /* Configure I2Cx: Dual mode and Own Address2 */
  MODIFY_REG(hi2c->Instance->OAR2, (I2C_OAR2_ENDUAL | I2C_OAR2_ADD2), (hi2c->Init.DualAddressMode | hi2c->Init.OwnAddress2));
 8000ca0:	687b      	ldr	r3, [r7, #4]
 8000ca2:	681b      	ldr	r3, [r3, #0]
 8000ca4:	68db      	ldr	r3, [r3, #12]
 8000ca6:	f023 01ff 	bic.w	r1, r3, #255	; 0xff
 8000caa:	687b      	ldr	r3, [r7, #4]
 8000cac:	695a      	ldr	r2, [r3, #20]
 8000cae:	687b      	ldr	r3, [r7, #4]
 8000cb0:	699b      	ldr	r3, [r3, #24]
 8000cb2:	431a      	orrs	r2, r3
 8000cb4:	687b      	ldr	r3, [r7, #4]
 8000cb6:	681b      	ldr	r3, [r3, #0]
 8000cb8:	430a      	orrs	r2, r1
 8000cba:	60da      	str	r2, [r3, #12]

  /* Enable the selected I2C peripheral */
  __HAL_I2C_ENABLE(hi2c);
 8000cbc:	687b      	ldr	r3, [r7, #4]
 8000cbe:	681b      	ldr	r3, [r3, #0]
 8000cc0:	681a      	ldr	r2, [r3, #0]
 8000cc2:	687b      	ldr	r3, [r7, #4]
 8000cc4:	681b      	ldr	r3, [r3, #0]
 8000cc6:	f042 0201 	orr.w	r2, r2, #1
 8000cca:	601a      	str	r2, [r3, #0]

  hi2c->ErrorCode = HAL_I2C_ERROR_NONE;
 8000ccc:	687b      	ldr	r3, [r7, #4]
 8000cce:	2200      	movs	r2, #0
 8000cd0:	641a      	str	r2, [r3, #64]	; 0x40
  hi2c->State = HAL_I2C_STATE_READY;
 8000cd2:	687b      	ldr	r3, [r7, #4]
 8000cd4:	2220      	movs	r2, #32
 8000cd6:	f883 203d 	strb.w	r2, [r3, #61]	; 0x3d
  hi2c->PreviousState = I2C_STATE_NONE;
 8000cda:	687b      	ldr	r3, [r7, #4]
 8000cdc:	2200      	movs	r2, #0
 8000cde:	631a      	str	r2, [r3, #48]	; 0x30
  hi2c->Mode = HAL_I2C_MODE_NONE;
 8000ce0:	687b      	ldr	r3, [r7, #4]
 8000ce2:	2200      	movs	r2, #0
 8000ce4:	f883 203e 	strb.w	r2, [r3, #62]	; 0x3e

  return HAL_OK;
 8000ce8:	2300      	movs	r3, #0
}
 8000cea:	4618      	mov	r0, r3
 8000cec:	3710      	adds	r7, #16
 8000cee:	46bd      	mov	sp, r7
 8000cf0:	bd80      	pop	{r7, pc}
 8000cf2:	bf00      	nop
 8000cf4:	000186a0 	.word	0x000186a0
 8000cf8:	001e847f 	.word	0x001e847f
 8000cfc:	003d08ff 	.word	0x003d08ff
 8000d00:	431bde83 	.word	0x431bde83
 8000d04:	10624dd3 	.word	0x10624dd3

08000d08 <HAL_I2C_Master_Transmit>:
  * @param  Size Amount of data to be sent
  * @param  Timeout Timeout duration
  * @retval HAL status
  */
HAL_StatusTypeDef HAL_I2C_Master_Transmit(I2C_HandleTypeDef *hi2c, uint16_t DevAddress, uint8_t *pData, uint16_t Size, uint32_t Timeout)
{
 8000d08:	b580      	push	{r7, lr}
 8000d0a:	b088      	sub	sp, #32
 8000d0c:	af02      	add	r7, sp, #8
 8000d0e:	60f8      	str	r0, [r7, #12]
 8000d10:	607a      	str	r2, [r7, #4]
 8000d12:	461a      	mov	r2, r3
 8000d14:	460b      	mov	r3, r1
 8000d16:	817b      	strh	r3, [r7, #10]
 8000d18:	4613      	mov	r3, r2
 8000d1a:	813b      	strh	r3, [r7, #8]
  /* Init tickstart for timeout management*/
  uint32_t tickstart = HAL_GetTick();
 8000d1c:	f7ff fc38 	bl	8000590 <HAL_GetTick>
 8000d20:	6178      	str	r0, [r7, #20]

  if (hi2c->State == HAL_I2C_STATE_READY)
 8000d22:	68fb      	ldr	r3, [r7, #12]
 8000d24:	f893 303d 	ldrb.w	r3, [r3, #61]	; 0x3d
 8000d28:	b2db      	uxtb	r3, r3
 8000d2a:	2b20      	cmp	r3, #32
 8000d2c:	f040 80e0 	bne.w	8000ef0 <HAL_I2C_Master_Transmit+0x1e8>
  {
    /* Wait until BUSY flag is reset */
    if (I2C_WaitOnFlagUntilTimeout(hi2c, I2C_FLAG_BUSY, SET, I2C_TIMEOUT_BUSY_FLAG, tickstart) != HAL_OK)
 8000d30:	697b      	ldr	r3, [r7, #20]
 8000d32:	9300      	str	r3, [sp, #0]
 8000d34:	2319      	movs	r3, #25
 8000d36:	2201      	movs	r2, #1
 8000d38:	4970      	ldr	r1, [pc, #448]	; (8000efc <HAL_I2C_Master_Transmit+0x1f4>)
 8000d3a:	68f8      	ldr	r0, [r7, #12]
 8000d3c:	f000 f964 	bl	8001008 <I2C_WaitOnFlagUntilTimeout>
 8000d40:	4603      	mov	r3, r0
 8000d42:	2b00      	cmp	r3, #0
 8000d44:	d001      	beq.n	8000d4a <HAL_I2C_Master_Transmit+0x42>
    {
      return HAL_BUSY;
 8000d46:	2302      	movs	r3, #2
 8000d48:	e0d3      	b.n	8000ef2 <HAL_I2C_Master_Transmit+0x1ea>
    }

    /* Process Locked */
    __HAL_LOCK(hi2c);
 8000d4a:	68fb      	ldr	r3, [r7, #12]
 8000d4c:	f893 303c 	ldrb.w	r3, [r3, #60]	; 0x3c
 8000d50:	2b01      	cmp	r3, #1
 8000d52:	d101      	bne.n	8000d58 <HAL_I2C_Master_Transmit+0x50>
 8000d54:	2302      	movs	r3, #2
 8000d56:	e0cc      	b.n	8000ef2 <HAL_I2C_Master_Transmit+0x1ea>
 8000d58:	68fb      	ldr	r3, [r7, #12]
 8000d5a:	2201      	movs	r2, #1
 8000d5c:	f883 203c 	strb.w	r2, [r3, #60]	; 0x3c

    /* Check if the I2C is already enabled */
    if ((hi2c->Instance->CR1 & I2C_CR1_PE) != I2C_CR1_PE)
 8000d60:	68fb      	ldr	r3, [r7, #12]
 8000d62:	681b      	ldr	r3, [r3, #0]
 8000d64:	681b      	ldr	r3, [r3, #0]
 8000d66:	f003 0301 	and.w	r3, r3, #1
 8000d6a:	2b01      	cmp	r3, #1
 8000d6c:	d007      	beq.n	8000d7e <HAL_I2C_Master_Transmit+0x76>
    {
      /* Enable I2C peripheral */
      __HAL_I2C_ENABLE(hi2c);
 8000d6e:	68fb      	ldr	r3, [r7, #12]
 8000d70:	681b      	ldr	r3, [r3, #0]
 8000d72:	681a      	ldr	r2, [r3, #0]
 8000d74:	68fb      	ldr	r3, [r7, #12]
 8000d76:	681b      	ldr	r3, [r3, #0]
 8000d78:	f042 0201 	orr.w	r2, r2, #1
 8000d7c:	601a      	str	r2, [r3, #0]
    }

    /* Disable Pos */
    CLEAR_BIT(hi2c->Instance->CR1, I2C_CR1_POS);
 8000d7e:	68fb      	ldr	r3, [r7, #12]
 8000d80:	681b      	ldr	r3, [r3, #0]
 8000d82:	681a      	ldr	r2, [r3, #0]
 8000d84:	68fb      	ldr	r3, [r7, #12]
 8000d86:	681b      	ldr	r3, [r3, #0]
 8000d88:	f422 6200 	bic.w	r2, r2, #2048	; 0x800
 8000d8c:	601a      	str	r2, [r3, #0]

    hi2c->State       = HAL_I2C_STATE_BUSY_TX;
 8000d8e:	68fb      	ldr	r3, [r7, #12]
 8000d90:	2221      	movs	r2, #33	; 0x21
 8000d92:	f883 203d 	strb.w	r2, [r3, #61]	; 0x3d
    hi2c->Mode        = HAL_I2C_MODE_MASTER;
 8000d96:	68fb      	ldr	r3, [r7, #12]
 8000d98:	2210      	movs	r2, #16
 8000d9a:	f883 203e 	strb.w	r2, [r3, #62]	; 0x3e
    hi2c->ErrorCode   = HAL_I2C_ERROR_NONE;
 8000d9e:	68fb      	ldr	r3, [r7, #12]
 8000da0:	2200      	movs	r2, #0
 8000da2:	641a      	str	r2, [r3, #64]	; 0x40

    /* Prepare transfer parameters */
    hi2c->pBuffPtr    = pData;
 8000da4:	68fb      	ldr	r3, [r7, #12]
 8000da6:	687a      	ldr	r2, [r7, #4]
 8000da8:	625a      	str	r2, [r3, #36]	; 0x24
    hi2c->XferCount   = Size;
 8000daa:	68fb      	ldr	r3, [r7, #12]
 8000dac:	893a      	ldrh	r2, [r7, #8]
 8000dae:	855a      	strh	r2, [r3, #42]	; 0x2a
    hi2c->XferSize    = hi2c->XferCount;
 8000db0:	68fb      	ldr	r3, [r7, #12]
 8000db2:	8d5b      	ldrh	r3, [r3, #42]	; 0x2a
 8000db4:	b29a      	uxth	r2, r3
 8000db6:	68fb      	ldr	r3, [r7, #12]
 8000db8:	851a      	strh	r2, [r3, #40]	; 0x28
    hi2c->XferOptions = I2C_NO_OPTION_FRAME;
 8000dba:	68fb      	ldr	r3, [r7, #12]
 8000dbc:	4a50      	ldr	r2, [pc, #320]	; (8000f00 <HAL_I2C_Master_Transmit+0x1f8>)
 8000dbe:	62da      	str	r2, [r3, #44]	; 0x2c

    /* Send Slave Address */
    if (I2C_MasterRequestWrite(hi2c, DevAddress, Timeout, tickstart) != HAL_OK)
 8000dc0:	8979      	ldrh	r1, [r7, #10]
 8000dc2:	697b      	ldr	r3, [r7, #20]
 8000dc4:	6a3a      	ldr	r2, [r7, #32]
 8000dc6:	68f8      	ldr	r0, [r7, #12]
 8000dc8:	f000 f89c 	bl	8000f04 <I2C_MasterRequestWrite>
 8000dcc:	4603      	mov	r3, r0
 8000dce:	2b00      	cmp	r3, #0
 8000dd0:	d001      	beq.n	8000dd6 <HAL_I2C_Master_Transmit+0xce>
    {
      return HAL_ERROR;
 8000dd2:	2301      	movs	r3, #1
 8000dd4:	e08d      	b.n	8000ef2 <HAL_I2C_Master_Transmit+0x1ea>
    }

    /* Clear ADDR flag */
    __HAL_I2C_CLEAR_ADDRFLAG(hi2c);
 8000dd6:	2300      	movs	r3, #0
 8000dd8:	613b      	str	r3, [r7, #16]
 8000dda:	68fb      	ldr	r3, [r7, #12]
 8000ddc:	681b      	ldr	r3, [r3, #0]
 8000dde:	695b      	ldr	r3, [r3, #20]
 8000de0:	613b      	str	r3, [r7, #16]
 8000de2:	68fb      	ldr	r3, [r7, #12]
 8000de4:	681b      	ldr	r3, [r3, #0]
 8000de6:	699b      	ldr	r3, [r3, #24]
 8000de8:	613b      	str	r3, [r7, #16]
 8000dea:	693b      	ldr	r3, [r7, #16]

    while (hi2c->XferSize > 0U)
 8000dec:	e066      	b.n	8000ebc <HAL_I2C_Master_Transmit+0x1b4>
    {
      /* Wait until TXE flag is set */
      if (I2C_WaitOnTXEFlagUntilTimeout(hi2c, Timeout, tickstart) != HAL_OK)
 8000dee:	697a      	ldr	r2, [r7, #20]
 8000df0:	6a39      	ldr	r1, [r7, #32]
 8000df2:	68f8      	ldr	r0, [r7, #12]
 8000df4:	f000 f9de 	bl	80011b4 <I2C_WaitOnTXEFlagUntilTimeout>
 8000df8:	4603      	mov	r3, r0
 8000dfa:	2b00      	cmp	r3, #0
 8000dfc:	d00d      	beq.n	8000e1a <HAL_I2C_Master_Transmit+0x112>
      {
        if (hi2c->ErrorCode == HAL_I2C_ERROR_AF)
 8000dfe:	68fb      	ldr	r3, [r7, #12]
 8000e00:	6c1b      	ldr	r3, [r3, #64]	; 0x40
 8000e02:	2b04      	cmp	r3, #4
 8000e04:	d107      	bne.n	8000e16 <HAL_I2C_Master_Transmit+0x10e>
        {
          /* Generate Stop */
          SET_BIT(hi2c->Instance->CR1, I2C_CR1_STOP);
 8000e06:	68fb      	ldr	r3, [r7, #12]
 8000e08:	681b      	ldr	r3, [r3, #0]
 8000e0a:	681a      	ldr	r2, [r3, #0]
 8000e0c:	68fb      	ldr	r3, [r7, #12]
 8000e0e:	681b      	ldr	r3, [r3, #0]
 8000e10:	f442 7200 	orr.w	r2, r2, #512	; 0x200
 8000e14:	601a      	str	r2, [r3, #0]
        }
        return HAL_ERROR;
 8000e16:	2301      	movs	r3, #1
 8000e18:	e06b      	b.n	8000ef2 <HAL_I2C_Master_Transmit+0x1ea>
      }

      /* Write data to DR */
      hi2c->Instance->DR = *hi2c->pBuffPtr;
 8000e1a:	68fb      	ldr	r3, [r7, #12]
 8000e1c:	6a5b      	ldr	r3, [r3, #36]	; 0x24
 8000e1e:	781a      	ldrb	r2, [r3, #0]
 8000e20:	68fb      	ldr	r3, [r7, #12]
 8000e22:	681b      	ldr	r3, [r3, #0]
 8000e24:	611a      	str	r2, [r3, #16]

      /* Increment Buffer pointer */
      hi2c->pBuffPtr++;
 8000e26:	68fb      	ldr	r3, [r7, #12]
 8000e28:	6a5b      	ldr	r3, [r3, #36]	; 0x24
 8000e2a:	1c5a      	adds	r2, r3, #1
 8000e2c:	68fb      	ldr	r3, [r7, #12]
 8000e2e:	625a      	str	r2, [r3, #36]	; 0x24

      /* Update counter */
      hi2c->XferCount--;
 8000e30:	68fb      	ldr	r3, [r7, #12]
 8000e32:	8d5b      	ldrh	r3, [r3, #42]	; 0x2a
 8000e34:	b29b      	uxth	r3, r3
 8000e36:	3b01      	subs	r3, #1
 8000e38:	b29a      	uxth	r2, r3
 8000e3a:	68fb      	ldr	r3, [r7, #12]
 8000e3c:	855a      	strh	r2, [r3, #42]	; 0x2a
      hi2c->XferSize--;
 8000e3e:	68fb      	ldr	r3, [r7, #12]
 8000e40:	8d1b      	ldrh	r3, [r3, #40]	; 0x28
 8000e42:	3b01      	subs	r3, #1
 8000e44:	b29a      	uxth	r2, r3
 8000e46:	68fb      	ldr	r3, [r7, #12]
 8000e48:	851a      	strh	r2, [r3, #40]	; 0x28

      if ((__HAL_I2C_GET_FLAG(hi2c, I2C_FLAG_BTF) == SET) && (hi2c->XferSize != 0U))
 8000e4a:	68fb      	ldr	r3, [r7, #12]
 8000e4c:	681b      	ldr	r3, [r3, #0]
 8000e4e:	695b      	ldr	r3, [r3, #20]
 8000e50:	f003 0304 	and.w	r3, r3, #4
 8000e54:	2b04      	cmp	r3, #4
 8000e56:	d11b      	bne.n	8000e90 <HAL_I2C_Master_Transmit+0x188>
 8000e58:	68fb      	ldr	r3, [r7, #12]
 8000e5a:	8d1b      	ldrh	r3, [r3, #40]	; 0x28
 8000e5c:	2b00      	cmp	r3, #0
 8000e5e:	d017      	beq.n	8000e90 <HAL_I2C_Master_Transmit+0x188>
      {
        /* Write data to DR */
        hi2c->Instance->DR = *hi2c->pBuffPtr;
 8000e60:	68fb      	ldr	r3, [r7, #12]
 8000e62:	6a5b      	ldr	r3, [r3, #36]	; 0x24
 8000e64:	781a      	ldrb	r2, [r3, #0]
 8000e66:	68fb      	ldr	r3, [r7, #12]
 8000e68:	681b      	ldr	r3, [r3, #0]
 8000e6a:	611a      	str	r2, [r3, #16]

        /* Increment Buffer pointer */
        hi2c->pBuffPtr++;
 8000e6c:	68fb      	ldr	r3, [r7, #12]
 8000e6e:	6a5b      	ldr	r3, [r3, #36]	; 0x24
 8000e70:	1c5a      	adds	r2, r3, #1
 8000e72:	68fb      	ldr	r3, [r7, #12]
 8000e74:	625a      	str	r2, [r3, #36]	; 0x24

        /* Update counter */
        hi2c->XferCount--;
 8000e76:	68fb      	ldr	r3, [r7, #12]
 8000e78:	8d5b      	ldrh	r3, [r3, #42]	; 0x2a
 8000e7a:	b29b      	uxth	r3, r3
 8000e7c:	3b01      	subs	r3, #1
 8000e7e:	b29a      	uxth	r2, r3
 8000e80:	68fb      	ldr	r3, [r7, #12]
 8000e82:	855a      	strh	r2, [r3, #42]	; 0x2a
        hi2c->XferSize--;
 8000e84:	68fb      	ldr	r3, [r7, #12]
 8000e86:	8d1b      	ldrh	r3, [r3, #40]	; 0x28
 8000e88:	3b01      	subs	r3, #1
 8000e8a:	b29a      	uxth	r2, r3
 8000e8c:	68fb      	ldr	r3, [r7, #12]
 8000e8e:	851a      	strh	r2, [r3, #40]	; 0x28
      }

      /* Wait until BTF flag is set */
      if (I2C_WaitOnBTFFlagUntilTimeout(hi2c, Timeout, tickstart) != HAL_OK)
 8000e90:	697a      	ldr	r2, [r7, #20]
 8000e92:	6a39      	ldr	r1, [r7, #32]
 8000e94:	68f8      	ldr	r0, [r7, #12]
 8000e96:	f000 f9ce 	bl	8001236 <I2C_WaitOnBTFFlagUntilTimeout>
 8000e9a:	4603      	mov	r3, r0
 8000e9c:	2b00      	cmp	r3, #0
 8000e9e:	d00d      	beq.n	8000ebc <HAL_I2C_Master_Transmit+0x1b4>
      {
        if (hi2c->ErrorCode == HAL_I2C_ERROR_AF)
 8000ea0:	68fb      	ldr	r3, [r7, #12]
 8000ea2:	6c1b      	ldr	r3, [r3, #64]	; 0x40
 8000ea4:	2b04      	cmp	r3, #4
 8000ea6:	d107      	bne.n	8000eb8 <HAL_I2C_Master_Transmit+0x1b0>
        {
          /* Generate Stop */
          SET_BIT(hi2c->Instance->CR1, I2C_CR1_STOP);
 8000ea8:	68fb      	ldr	r3, [r7, #12]
 8000eaa:	681b      	ldr	r3, [r3, #0]
 8000eac:	681a      	ldr	r2, [r3, #0]
 8000eae:	68fb      	ldr	r3, [r7, #12]
 8000eb0:	681b      	ldr	r3, [r3, #0]
 8000eb2:	f442 7200 	orr.w	r2, r2, #512	; 0x200
 8000eb6:	601a      	str	r2, [r3, #0]
        }
        return HAL_ERROR;
 8000eb8:	2301      	movs	r3, #1
 8000eba:	e01a      	b.n	8000ef2 <HAL_I2C_Master_Transmit+0x1ea>
    while (hi2c->XferSize > 0U)
 8000ebc:	68fb      	ldr	r3, [r7, #12]
 8000ebe:	8d1b      	ldrh	r3, [r3, #40]	; 0x28
 8000ec0:	2b00      	cmp	r3, #0
 8000ec2:	d194      	bne.n	8000dee <HAL_I2C_Master_Transmit+0xe6>
      }
    }

    /* Generate Stop */
    SET_BIT(hi2c->Instance->CR1, I2C_CR1_STOP);
 8000ec4:	68fb      	ldr	r3, [r7, #12]
 8000ec6:	681b      	ldr	r3, [r3, #0]
 8000ec8:	681a      	ldr	r2, [r3, #0]
 8000eca:	68fb      	ldr	r3, [r7, #12]
 8000ecc:	681b      	ldr	r3, [r3, #0]
 8000ece:	f442 7200 	orr.w	r2, r2, #512	; 0x200
 8000ed2:	601a      	str	r2, [r3, #0]

    hi2c->State = HAL_I2C_STATE_READY;
 8000ed4:	68fb      	ldr	r3, [r7, #12]
 8000ed6:	2220      	movs	r2, #32
 8000ed8:	f883 203d 	strb.w	r2, [r3, #61]	; 0x3d
    hi2c->Mode = HAL_I2C_MODE_NONE;
 8000edc:	68fb      	ldr	r3, [r7, #12]
 8000ede:	2200      	movs	r2, #0
 8000ee0:	f883 203e 	strb.w	r2, [r3, #62]	; 0x3e

    /* Process Unlocked */
    __HAL_UNLOCK(hi2c);
 8000ee4:	68fb      	ldr	r3, [r7, #12]
 8000ee6:	2200      	movs	r2, #0
 8000ee8:	f883 203c 	strb.w	r2, [r3, #60]	; 0x3c

    return HAL_OK;
 8000eec:	2300      	movs	r3, #0
 8000eee:	e000      	b.n	8000ef2 <HAL_I2C_Master_Transmit+0x1ea>
  }
  else
  {
    return HAL_BUSY;
 8000ef0:	2302      	movs	r3, #2
  }
}
 8000ef2:	4618      	mov	r0, r3
 8000ef4:	3718      	adds	r7, #24
 8000ef6:	46bd      	mov	sp, r7
 8000ef8:	bd80      	pop	{r7, pc}
 8000efa:	bf00      	nop
 8000efc:	00100002 	.word	0x00100002
 8000f00:	ffff0000 	.word	0xffff0000

08000f04 <I2C_MasterRequestWrite>:
  * @param  Timeout Timeout duration
  * @param  Tickstart Tick start value
  * @retval HAL status
  */
static HAL_StatusTypeDef I2C_MasterRequestWrite(I2C_HandleTypeDef *hi2c, uint16_t DevAddress, uint32_t Timeout, uint32_t Tickstart)
{
 8000f04:	b580      	push	{r7, lr}
 8000f06:	b088      	sub	sp, #32
 8000f08:	af02      	add	r7, sp, #8
 8000f0a:	60f8      	str	r0, [r7, #12]
 8000f0c:	607a      	str	r2, [r7, #4]
 8000f0e:	603b      	str	r3, [r7, #0]
 8000f10:	460b      	mov	r3, r1
 8000f12:	817b      	strh	r3, [r7, #10]
  /* Declaration of temporary variable to prevent undefined behavior of volatile usage */
  uint32_t CurrentXferOptions = hi2c->XferOptions;
 8000f14:	68fb      	ldr	r3, [r7, #12]
 8000f16:	6adb      	ldr	r3, [r3, #44]	; 0x2c
 8000f18:	617b      	str	r3, [r7, #20]

  /* Generate Start condition if first transfer */
  if ((CurrentXferOptions == I2C_FIRST_AND_LAST_FRAME) || (CurrentXferOptions == I2C_FIRST_FRAME) || (CurrentXferOptions == I2C_NO_OPTION_FRAME))
 8000f1a:	697b      	ldr	r3, [r7, #20]
 8000f1c:	2b08      	cmp	r3, #8
 8000f1e:	d006      	beq.n	8000f2e <I2C_MasterRequestWrite+0x2a>
 8000f20:	697b      	ldr	r3, [r7, #20]
 8000f22:	2b01      	cmp	r3, #1
 8000f24:	d003      	beq.n	8000f2e <I2C_MasterRequestWrite+0x2a>
 8000f26:	697b      	ldr	r3, [r7, #20]
 8000f28:	f513 3f80 	cmn.w	r3, #65536	; 0x10000
 8000f2c:	d108      	bne.n	8000f40 <I2C_MasterRequestWrite+0x3c>
  {
    /* Generate Start */
    SET_BIT(hi2c->Instance->CR1, I2C_CR1_START);
 8000f2e:	68fb      	ldr	r3, [r7, #12]
 8000f30:	681b      	ldr	r3, [r3, #0]
 8000f32:	681a      	ldr	r2, [r3, #0]
 8000f34:	68fb      	ldr	r3, [r7, #12]
 8000f36:	681b      	ldr	r3, [r3, #0]
 8000f38:	f442 7280 	orr.w	r2, r2, #256	; 0x100
 8000f3c:	601a      	str	r2, [r3, #0]
 8000f3e:	e00b      	b.n	8000f58 <I2C_MasterRequestWrite+0x54>
  }
  else if (hi2c->PreviousState == I2C_STATE_MASTER_BUSY_RX)
 8000f40:	68fb      	ldr	r3, [r7, #12]
 8000f42:	6b1b      	ldr	r3, [r3, #48]	; 0x30
 8000f44:	2b12      	cmp	r3, #18
 8000f46:	d107      	bne.n	8000f58 <I2C_MasterRequestWrite+0x54>
  {
    /* Generate ReStart */
    SET_BIT(hi2c->Instance->CR1, I2C_CR1_START);
 8000f48:	68fb      	ldr	r3, [r7, #12]
 8000f4a:	681b      	ldr	r3, [r3, #0]
 8000f4c:	681a      	ldr	r2, [r3, #0]
 8000f4e:	68fb      	ldr	r3, [r7, #12]
 8000f50:	681b      	ldr	r3, [r3, #0]
 8000f52:	f442 7280 	orr.w	r2, r2, #256	; 0x100
 8000f56:	601a      	str	r2, [r3, #0]
  {
    /* Do nothing */
  }

  /* Wait until SB flag is set */
  if (I2C_WaitOnFlagUntilTimeout(hi2c, I2C_FLAG_SB, RESET, Timeout, Tickstart) != HAL_OK)
 8000f58:	683b      	ldr	r3, [r7, #0]
 8000f5a:	9300      	str	r3, [sp, #0]
 8000f5c:	687b      	ldr	r3, [r7, #4]
 8000f5e:	2200      	movs	r2, #0
 8000f60:	f04f 1101 	mov.w	r1, #65537	; 0x10001
 8000f64:	68f8      	ldr	r0, [r7, #12]
 8000f66:	f000 f84f 	bl	8001008 <I2C_WaitOnFlagUntilTimeout>
 8000f6a:	4603      	mov	r3, r0
 8000f6c:	2b00      	cmp	r3, #0
 8000f6e:	d00d      	beq.n	8000f8c <I2C_MasterRequestWrite+0x88>
  {
    if (READ_BIT(hi2c->Instance->CR1, I2C_CR1_START) == I2C_CR1_START)
 8000f70:	68fb      	ldr	r3, [r7, #12]
 8000f72:	681b      	ldr	r3, [r3, #0]
 8000f74:	681b      	ldr	r3, [r3, #0]
 8000f76:	f403 7380 	and.w	r3, r3, #256	; 0x100
 8000f7a:	f5b3 7f80 	cmp.w	r3, #256	; 0x100
 8000f7e:	d103      	bne.n	8000f88 <I2C_MasterRequestWrite+0x84>
    {
      hi2c->ErrorCode = HAL_I2C_WRONG_START;
 8000f80:	68fb      	ldr	r3, [r7, #12]
 8000f82:	f44f 7200 	mov.w	r2, #512	; 0x200
 8000f86:	641a      	str	r2, [r3, #64]	; 0x40
    }
    return HAL_TIMEOUT;
 8000f88:	2303      	movs	r3, #3
 8000f8a:	e035      	b.n	8000ff8 <I2C_MasterRequestWrite+0xf4>
  }

  if (hi2c->Init.AddressingMode == I2C_ADDRESSINGMODE_7BIT)
 8000f8c:	68fb      	ldr	r3, [r7, #12]
 8000f8e:	691b      	ldr	r3, [r3, #16]
 8000f90:	f5b3 4f80 	cmp.w	r3, #16384	; 0x4000
 8000f94:	d108      	bne.n	8000fa8 <I2C_MasterRequestWrite+0xa4>
  {
    /* Send slave address */
    hi2c->Instance->DR = I2C_7BIT_ADD_WRITE(DevAddress);
 8000f96:	897b      	ldrh	r3, [r7, #10]
 8000f98:	b2db      	uxtb	r3, r3
 8000f9a:	461a      	mov	r2, r3
 8000f9c:	68fb      	ldr	r3, [r7, #12]
 8000f9e:	681b      	ldr	r3, [r3, #0]
 8000fa0:	f002 02fe 	and.w	r2, r2, #254	; 0xfe
 8000fa4:	611a      	str	r2, [r3, #16]
 8000fa6:	e01b      	b.n	8000fe0 <I2C_MasterRequestWrite+0xdc>
  }
  else
  {
    /* Send header of slave address */
    hi2c->Instance->DR = I2C_10BIT_HEADER_WRITE(DevAddress);
 8000fa8:	897b      	ldrh	r3, [r7, #10]
 8000faa:	11db      	asrs	r3, r3, #7
 8000fac:	b2db      	uxtb	r3, r3
 8000fae:	f003 0306 	and.w	r3, r3, #6
 8000fb2:	b2db      	uxtb	r3, r3
 8000fb4:	f063 030f 	orn	r3, r3, #15
 8000fb8:	b2da      	uxtb	r2, r3
 8000fba:	68fb      	ldr	r3, [r7, #12]
 8000fbc:	681b      	ldr	r3, [r3, #0]
 8000fbe:	611a      	str	r2, [r3, #16]

    /* Wait until ADD10 flag is set */
    if (I2C_WaitOnMasterAddressFlagUntilTimeout(hi2c, I2C_FLAG_ADD10, Timeout, Tickstart) != HAL_OK)
 8000fc0:	683b      	ldr	r3, [r7, #0]
 8000fc2:	687a      	ldr	r2, [r7, #4]
 8000fc4:	490e      	ldr	r1, [pc, #56]	; (8001000 <I2C_MasterRequestWrite+0xfc>)
 8000fc6:	68f8      	ldr	r0, [r7, #12]
 8000fc8:	f000 f875 	bl	80010b6 <I2C_WaitOnMasterAddressFlagUntilTimeout>
 8000fcc:	4603      	mov	r3, r0
 8000fce:	2b00      	cmp	r3, #0
 8000fd0:	d001      	beq.n	8000fd6 <I2C_MasterRequestWrite+0xd2>
    {
      return HAL_ERROR;
 8000fd2:	2301      	movs	r3, #1
 8000fd4:	e010      	b.n	8000ff8 <I2C_MasterRequestWrite+0xf4>
    }

    /* Send slave address */
    hi2c->Instance->DR = I2C_10BIT_ADDRESS(DevAddress);
 8000fd6:	897b      	ldrh	r3, [r7, #10]
 8000fd8:	b2da      	uxtb	r2, r3
 8000fda:	68fb      	ldr	r3, [r7, #12]
 8000fdc:	681b      	ldr	r3, [r3, #0]
 8000fde:	611a      	str	r2, [r3, #16]
  }

  /* Wait until ADDR flag is set */
  if (I2C_WaitOnMasterAddressFlagUntilTimeout(hi2c, I2C_FLAG_ADDR, Timeout, Tickstart) != HAL_OK)
 8000fe0:	683b      	ldr	r3, [r7, #0]
 8000fe2:	687a      	ldr	r2, [r7, #4]
 8000fe4:	4907      	ldr	r1, [pc, #28]	; (8001004 <I2C_MasterRequestWrite+0x100>)
 8000fe6:	68f8      	ldr	r0, [r7, #12]
 8000fe8:	f000 f865 	bl	80010b6 <I2C_WaitOnMasterAddressFlagUntilTimeout>
 8000fec:	4603      	mov	r3, r0
 8000fee:	2b00      	cmp	r3, #0
 8000ff0:	d001      	beq.n	8000ff6 <I2C_MasterRequestWrite+0xf2>
  {
    return HAL_ERROR;
 8000ff2:	2301      	movs	r3, #1
 8000ff4:	e000      	b.n	8000ff8 <I2C_MasterRequestWrite+0xf4>
  }

  return HAL_OK;
 8000ff6:	2300      	movs	r3, #0
}
 8000ff8:	4618      	mov	r0, r3
 8000ffa:	3718      	adds	r7, #24
 8000ffc:	46bd      	mov	sp, r7
 8000ffe:	bd80      	pop	{r7, pc}
 8001000:	00010008 	.word	0x00010008
 8001004:	00010002 	.word	0x00010002

08001008 <I2C_WaitOnFlagUntilTimeout>:
  * @param  Timeout Timeout duration
  * @param  Tickstart Tick start value
  * @retval HAL status
  */
static HAL_StatusTypeDef I2C_WaitOnFlagUntilTimeout(I2C_HandleTypeDef *hi2c, uint32_t Flag, FlagStatus Status, uint32_t Timeout, uint32_t Tickstart)
{
 8001008:	b580      	push	{r7, lr}
 800100a:	b084      	sub	sp, #16
 800100c:	af00      	add	r7, sp, #0
 800100e:	60f8      	str	r0, [r7, #12]
 8001010:	60b9      	str	r1, [r7, #8]
 8001012:	603b      	str	r3, [r7, #0]
 8001014:	4613      	mov	r3, r2
 8001016:	71fb      	strb	r3, [r7, #7]
  /* Wait until flag is set */
  while (__HAL_I2C_GET_FLAG(hi2c, Flag) == Status)
 8001018:	e025      	b.n	8001066 <I2C_WaitOnFlagUntilTimeout+0x5e>
  {
    /* Check for the Timeout */
    if (Timeout != HAL_MAX_DELAY)
 800101a:	683b      	ldr	r3, [r7, #0]
 800101c:	f1b3 3fff 	cmp.w	r3, #4294967295
 8001020:	d021      	beq.n	8001066 <I2C_WaitOnFlagUntilTimeout+0x5e>
    {
      if (((HAL_GetTick() - Tickstart) > Timeout) || (Timeout == 0U))
 8001022:	f7ff fab5 	bl	8000590 <HAL_GetTick>
 8001026:	4602      	mov	r2, r0
 8001028:	69bb      	ldr	r3, [r7, #24]
 800102a:	1ad3      	subs	r3, r2, r3
 800102c:	683a      	ldr	r2, [r7, #0]
 800102e:	429a      	cmp	r2, r3
 8001030:	d302      	bcc.n	8001038 <I2C_WaitOnFlagUntilTimeout+0x30>
 8001032:	683b      	ldr	r3, [r7, #0]
 8001034:	2b00      	cmp	r3, #0
 8001036:	d116      	bne.n	8001066 <I2C_WaitOnFlagUntilTimeout+0x5e>
      {
        hi2c->PreviousState     = I2C_STATE_NONE;
 8001038:	68fb      	ldr	r3, [r7, #12]
 800103a:	2200      	movs	r2, #0
 800103c:	631a      	str	r2, [r3, #48]	; 0x30
        hi2c->State             = HAL_I2C_STATE_READY;
 800103e:	68fb      	ldr	r3, [r7, #12]
 8001040:	2220      	movs	r2, #32
 8001042:	f883 203d 	strb.w	r2, [r3, #61]	; 0x3d
        hi2c->Mode              = HAL_I2C_MODE_NONE;
 8001046:	68fb      	ldr	r3, [r7, #12]
 8001048:	2200      	movs	r2, #0
 800104a:	f883 203e 	strb.w	r2, [r3, #62]	; 0x3e
        hi2c->ErrorCode         |= HAL_I2C_ERROR_TIMEOUT;
 800104e:	68fb      	ldr	r3, [r7, #12]
 8001050:	6c1b      	ldr	r3, [r3, #64]	; 0x40
 8001052:	f043 0220 	orr.w	r2, r3, #32
 8001056:	68fb      	ldr	r3, [r7, #12]
 8001058:	641a      	str	r2, [r3, #64]	; 0x40

        /* Process Unlocked */
        __HAL_UNLOCK(hi2c);
 800105a:	68fb      	ldr	r3, [r7, #12]
 800105c:	2200      	movs	r2, #0
 800105e:	f883 203c 	strb.w	r2, [r3, #60]	; 0x3c

        return HAL_ERROR;
 8001062:	2301      	movs	r3, #1
 8001064:	e023      	b.n	80010ae <I2C_WaitOnFlagUntilTimeout+0xa6>
  while (__HAL_I2C_GET_FLAG(hi2c, Flag) == Status)
 8001066:	68bb      	ldr	r3, [r7, #8]
 8001068:	0c1b      	lsrs	r3, r3, #16
 800106a:	b2db      	uxtb	r3, r3
 800106c:	2b01      	cmp	r3, #1
 800106e:	d10d      	bne.n	800108c <I2C_WaitOnFlagUntilTimeout+0x84>
 8001070:	68fb      	ldr	r3, [r7, #12]
 8001072:	681b      	ldr	r3, [r3, #0]
 8001074:	695b      	ldr	r3, [r3, #20]
 8001076:	43da      	mvns	r2, r3
 8001078:	68bb      	ldr	r3, [r7, #8]
 800107a:	4013      	ands	r3, r2
 800107c:	b29b      	uxth	r3, r3
 800107e:	2b00      	cmp	r3, #0
 8001080:	bf0c      	ite	eq
 8001082:	2301      	moveq	r3, #1
 8001084:	2300      	movne	r3, #0
 8001086:	b2db      	uxtb	r3, r3
 8001088:	461a      	mov	r2, r3
 800108a:	e00c      	b.n	80010a6 <I2C_WaitOnFlagUntilTimeout+0x9e>
 800108c:	68fb      	ldr	r3, [r7, #12]
 800108e:	681b      	ldr	r3, [r3, #0]
 8001090:	699b      	ldr	r3, [r3, #24]
 8001092:	43da      	mvns	r2, r3
 8001094:	68bb      	ldr	r3, [r7, #8]
 8001096:	4013      	ands	r3, r2
 8001098:	b29b      	uxth	r3, r3
 800109a:	2b00      	cmp	r3, #0
 800109c:	bf0c      	ite	eq
 800109e:	2301      	moveq	r3, #1
 80010a0:	2300      	movne	r3, #0
 80010a2:	b2db      	uxtb	r3, r3
 80010a4:	461a      	mov	r2, r3
 80010a6:	79fb      	ldrb	r3, [r7, #7]
 80010a8:	429a      	cmp	r2, r3
 80010aa:	d0b6      	beq.n	800101a <I2C_WaitOnFlagUntilTimeout+0x12>
      }
    }
  }
  return HAL_OK;
 80010ac:	2300      	movs	r3, #0
}
 80010ae:	4618      	mov	r0, r3
 80010b0:	3710      	adds	r7, #16
 80010b2:	46bd      	mov	sp, r7
 80010b4:	bd80      	pop	{r7, pc}

080010b6 <I2C_WaitOnMasterAddressFlagUntilTimeout>:
  * @param  Timeout Timeout duration
  * @param  Tickstart Tick start value
  * @retval HAL status
  */
static HAL_StatusTypeDef I2C_WaitOnMasterAddressFlagUntilTimeout(I2C_HandleTypeDef *hi2c, uint32_t Flag, uint32_t Timeout, uint32_t Tickstart)
{
 80010b6:	b580      	push	{r7, lr}
 80010b8:	b084      	sub	sp, #16
 80010ba:	af00      	add	r7, sp, #0
 80010bc:	60f8      	str	r0, [r7, #12]
 80010be:	60b9      	str	r1, [r7, #8]
 80010c0:	607a      	str	r2, [r7, #4]
 80010c2:	603b      	str	r3, [r7, #0]
  while (__HAL_I2C_GET_FLAG(hi2c, Flag) == RESET)
 80010c4:	e051      	b.n	800116a <I2C_WaitOnMasterAddressFlagUntilTimeout+0xb4>
  {
    if (__HAL_I2C_GET_FLAG(hi2c, I2C_FLAG_AF) == SET)
 80010c6:	68fb      	ldr	r3, [r7, #12]
 80010c8:	681b      	ldr	r3, [r3, #0]
 80010ca:	695b      	ldr	r3, [r3, #20]
 80010cc:	f403 6380 	and.w	r3, r3, #1024	; 0x400
 80010d0:	f5b3 6f80 	cmp.w	r3, #1024	; 0x400
 80010d4:	d123      	bne.n	800111e <I2C_WaitOnMasterAddressFlagUntilTimeout+0x68>
    {
      /* Generate Stop */
      SET_BIT(hi2c->Instance->CR1, I2C_CR1_STOP);
 80010d6:	68fb      	ldr	r3, [r7, #12]
 80010d8:	681b      	ldr	r3, [r3, #0]
 80010da:	681a      	ldr	r2, [r3, #0]
 80010dc:	68fb      	ldr	r3, [r7, #12]
 80010de:	681b      	ldr	r3, [r3, #0]
 80010e0:	f442 7200 	orr.w	r2, r2, #512	; 0x200
 80010e4:	601a      	str	r2, [r3, #0]

      /* Clear AF Flag */
      __HAL_I2C_CLEAR_FLAG(hi2c, I2C_FLAG_AF);
 80010e6:	68fb      	ldr	r3, [r7, #12]
 80010e8:	681b      	ldr	r3, [r3, #0]
 80010ea:	f46f 6280 	mvn.w	r2, #1024	; 0x400
 80010ee:	615a      	str	r2, [r3, #20]

      hi2c->PreviousState       = I2C_STATE_NONE;
 80010f0:	68fb      	ldr	r3, [r7, #12]
 80010f2:	2200      	movs	r2, #0
 80010f4:	631a      	str	r2, [r3, #48]	; 0x30
      hi2c->State               = HAL_I2C_STATE_READY;
 80010f6:	68fb      	ldr	r3, [r7, #12]
 80010f8:	2220      	movs	r2, #32
 80010fa:	f883 203d 	strb.w	r2, [r3, #61]	; 0x3d
      hi2c->Mode                = HAL_I2C_MODE_NONE;
 80010fe:	68fb      	ldr	r3, [r7, #12]
 8001100:	2200      	movs	r2, #0
 8001102:	f883 203e 	strb.w	r2, [r3, #62]	; 0x3e
      hi2c->ErrorCode           |= HAL_I2C_ERROR_AF;
 8001106:	68fb      	ldr	r3, [r7, #12]
 8001108:	6c1b      	ldr	r3, [r3, #64]	; 0x40
 800110a:	f043 0204 	orr.w	r2, r3, #4
 800110e:	68fb      	ldr	r3, [r7, #12]
 8001110:	641a      	str	r2, [r3, #64]	; 0x40

      /* Process Unlocked */
      __HAL_UNLOCK(hi2c);
 8001112:	68fb      	ldr	r3, [r7, #12]
 8001114:	2200      	movs	r2, #0
 8001116:	f883 203c 	strb.w	r2, [r3, #60]	; 0x3c

      return HAL_ERROR;
 800111a:	2301      	movs	r3, #1
 800111c:	e046      	b.n	80011ac <I2C_WaitOnMasterAddressFlagUntilTimeout+0xf6>
    }

    /* Check for the Timeout */
    if (Timeout != HAL_MAX_DELAY)
 800111e:	687b      	ldr	r3, [r7, #4]
 8001120:	f1b3 3fff 	cmp.w	r3, #4294967295
 8001124:	d021      	beq.n	800116a <I2C_WaitOnMasterAddressFlagUntilTimeout+0xb4>
    {
      if (((HAL_GetTick() - Tickstart) > Timeout) || (Timeout == 0U))
 8001126:	f7ff fa33 	bl	8000590 <HAL_GetTick>
 800112a:	4602      	mov	r2, r0
 800112c:	683b      	ldr	r3, [r7, #0]
 800112e:	1ad3      	subs	r3, r2, r3
 8001130:	687a      	ldr	r2, [r7, #4]
 8001132:	429a      	cmp	r2, r3
 8001134:	d302      	bcc.n	800113c <I2C_WaitOnMasterAddressFlagUntilTimeout+0x86>
 8001136:	687b      	ldr	r3, [r7, #4]
 8001138:	2b00      	cmp	r3, #0
 800113a:	d116      	bne.n	800116a <I2C_WaitOnMasterAddressFlagUntilTimeout+0xb4>
      {
        hi2c->PreviousState       = I2C_STATE_NONE;
 800113c:	68fb      	ldr	r3, [r7, #12]
 800113e:	2200      	movs	r2, #0
 8001140:	631a      	str	r2, [r3, #48]	; 0x30
        hi2c->State               = HAL_I2C_STATE_READY;
 8001142:	68fb      	ldr	r3, [r7, #12]
 8001144:	2220      	movs	r2, #32
 8001146:	f883 203d 	strb.w	r2, [r3, #61]	; 0x3d
        hi2c->Mode                = HAL_I2C_MODE_NONE;
 800114a:	68fb      	ldr	r3, [r7, #12]
 800114c:	2200      	movs	r2, #0
 800114e:	f883 203e 	strb.w	r2, [r3, #62]	; 0x3e
        hi2c->ErrorCode           |= HAL_I2C_ERROR_TIMEOUT;
 8001152:	68fb      	ldr	r3, [r7, #12]
 8001154:	6c1b      	ldr	r3, [r3, #64]	; 0x40
 8001156:	f043 0220 	orr.w	r2, r3, #32
 800115a:	68fb      	ldr	r3, [r7, #12]
 800115c:	641a      	str	r2, [r3, #64]	; 0x40

        /* Process Unlocked */
        __HAL_UNLOCK(hi2c);
 800115e:	68fb      	ldr	r3, [r7, #12]
 8001160:	2200      	movs	r2, #0
 8001162:	f883 203c 	strb.w	r2, [r3, #60]	; 0x3c

        return HAL_ERROR;
 8001166:	2301      	movs	r3, #1
 8001168:	e020      	b.n	80011ac <I2C_WaitOnMasterAddressFlagUntilTimeout+0xf6>
  while (__HAL_I2C_GET_FLAG(hi2c, Flag) == RESET)
 800116a:	68bb      	ldr	r3, [r7, #8]
 800116c:	0c1b      	lsrs	r3, r3, #16
 800116e:	b2db      	uxtb	r3, r3
 8001170:	2b01      	cmp	r3, #1
 8001172:	d10c      	bne.n	800118e <I2C_WaitOnMasterAddressFlagUntilTimeout+0xd8>
 8001174:	68fb      	ldr	r3, [r7, #12]
 8001176:	681b      	ldr	r3, [r3, #0]
 8001178:	695b      	ldr	r3, [r3, #20]
 800117a:	43da      	mvns	r2, r3
 800117c:	68bb      	ldr	r3, [r7, #8]
 800117e:	4013      	ands	r3, r2
 8001180:	b29b      	uxth	r3, r3
 8001182:	2b00      	cmp	r3, #0
 8001184:	bf14      	ite	ne
 8001186:	2301      	movne	r3, #1
 8001188:	2300      	moveq	r3, #0
 800118a:	b2db      	uxtb	r3, r3
 800118c:	e00b      	b.n	80011a6 <I2C_WaitOnMasterAddressFlagUntilTimeout+0xf0>
 800118e:	68fb      	ldr	r3, [r7, #12]
 8001190:	681b      	ldr	r3, [r3, #0]
 8001192:	699b      	ldr	r3, [r3, #24]
 8001194:	43da      	mvns	r2, r3
 8001196:	68bb      	ldr	r3, [r7, #8]
 8001198:	4013      	ands	r3, r2
 800119a:	b29b      	uxth	r3, r3
 800119c:	2b00      	cmp	r3, #0
 800119e:	bf14      	ite	ne
 80011a0:	2301      	movne	r3, #1
 80011a2:	2300      	moveq	r3, #0
 80011a4:	b2db      	uxtb	r3, r3
 80011a6:	2b00      	cmp	r3, #0
 80011a8:	d18d      	bne.n	80010c6 <I2C_WaitOnMasterAddressFlagUntilTimeout+0x10>
      }
    }
  }
  return HAL_OK;
 80011aa:	2300      	movs	r3, #0
}
 80011ac:	4618      	mov	r0, r3
 80011ae:	3710      	adds	r7, #16
 80011b0:	46bd      	mov	sp, r7
 80011b2:	bd80      	pop	{r7, pc}

080011b4 <I2C_WaitOnTXEFlagUntilTimeout>:
  * @param  Timeout Timeout duration
  * @param  Tickstart Tick start value
  * @retval HAL status
  */
static HAL_StatusTypeDef I2C_WaitOnTXEFlagUntilTimeout(I2C_HandleTypeDef *hi2c, uint32_t Timeout, uint32_t Tickstart)
{
 80011b4:	b580      	push	{r7, lr}
 80011b6:	b084      	sub	sp, #16
 80011b8:	af00      	add	r7, sp, #0
 80011ba:	60f8      	str	r0, [r7, #12]
 80011bc:	60b9      	str	r1, [r7, #8]
 80011be:	607a      	str	r2, [r7, #4]
  while (__HAL_I2C_GET_FLAG(hi2c, I2C_FLAG_TXE) == RESET)
 80011c0:	e02d      	b.n	800121e <I2C_WaitOnTXEFlagUntilTimeout+0x6a>
  {
    /* Check if a NACK is detected */
    if (I2C_IsAcknowledgeFailed(hi2c) != HAL_OK)
 80011c2:	68f8      	ldr	r0, [r7, #12]
 80011c4:	f000 f878 	bl	80012b8 <I2C_IsAcknowledgeFailed>
 80011c8:	4603      	mov	r3, r0
 80011ca:	2b00      	cmp	r3, #0
 80011cc:	d001      	beq.n	80011d2 <I2C_WaitOnTXEFlagUntilTimeout+0x1e>
    {
      return HAL_ERROR;
 80011ce:	2301      	movs	r3, #1
 80011d0:	e02d      	b.n	800122e <I2C_WaitOnTXEFlagUntilTimeout+0x7a>
    }

    /* Check for the Timeout */
    if (Timeout != HAL_MAX_DELAY)
 80011d2:	68bb      	ldr	r3, [r7, #8]
 80011d4:	f1b3 3fff 	cmp.w	r3, #4294967295
 80011d8:	d021      	beq.n	800121e <I2C_WaitOnTXEFlagUntilTimeout+0x6a>
    {
      if (((HAL_GetTick() - Tickstart) > Timeout) || (Timeout == 0U))
 80011da:	f7ff f9d9 	bl	8000590 <HAL_GetTick>
 80011de:	4602      	mov	r2, r0
 80011e0:	687b      	ldr	r3, [r7, #4]
 80011e2:	1ad3      	subs	r3, r2, r3
 80011e4:	68ba      	ldr	r2, [r7, #8]
 80011e6:	429a      	cmp	r2, r3
 80011e8:	d302      	bcc.n	80011f0 <I2C_WaitOnTXEFlagUntilTimeout+0x3c>
 80011ea:	68bb      	ldr	r3, [r7, #8]
 80011ec:	2b00      	cmp	r3, #0
 80011ee:	d116      	bne.n	800121e <I2C_WaitOnTXEFlagUntilTimeout+0x6a>
      {
        hi2c->PreviousState       = I2C_STATE_NONE;
 80011f0:	68fb      	ldr	r3, [r7, #12]
 80011f2:	2200      	movs	r2, #0
 80011f4:	631a      	str	r2, [r3, #48]	; 0x30
        hi2c->State               = HAL_I2C_STATE_READY;
 80011f6:	68fb      	ldr	r3, [r7, #12]
 80011f8:	2220      	movs	r2, #32
 80011fa:	f883 203d 	strb.w	r2, [r3, #61]	; 0x3d
        hi2c->Mode                = HAL_I2C_MODE_NONE;
 80011fe:	68fb      	ldr	r3, [r7, #12]
 8001200:	2200      	movs	r2, #0
 8001202:	f883 203e 	strb.w	r2, [r3, #62]	; 0x3e
        hi2c->ErrorCode           |= HAL_I2C_ERROR_TIMEOUT;
 8001206:	68fb      	ldr	r3, [r7, #12]
 8001208:	6c1b      	ldr	r3, [r3, #64]	; 0x40
 800120a:	f043 0220 	orr.w	r2, r3, #32
 800120e:	68fb      	ldr	r3, [r7, #12]
 8001210:	641a      	str	r2, [r3, #64]	; 0x40

        /* Process Unlocked */
        __HAL_UNLOCK(hi2c);
 8001212:	68fb      	ldr	r3, [r7, #12]
 8001214:	2200      	movs	r2, #0
 8001216:	f883 203c 	strb.w	r2, [r3, #60]	; 0x3c

        return HAL_ERROR;
 800121a:	2301      	movs	r3, #1
 800121c:	e007      	b.n	800122e <I2C_WaitOnTXEFlagUntilTimeout+0x7a>
  while (__HAL_I2C_GET_FLAG(hi2c, I2C_FLAG_TXE) == RESET)
 800121e:	68fb      	ldr	r3, [r7, #12]
 8001220:	681b      	ldr	r3, [r3, #0]
 8001222:	695b      	ldr	r3, [r3, #20]
 8001224:	f003 0380 	and.w	r3, r3, #128	; 0x80
 8001228:	2b80      	cmp	r3, #128	; 0x80
 800122a:	d1ca      	bne.n	80011c2 <I2C_WaitOnTXEFlagUntilTimeout+0xe>
      }
    }
  }
  return HAL_OK;
 800122c:	2300      	movs	r3, #0
}
 800122e:	4618      	mov	r0, r3
 8001230:	3710      	adds	r7, #16
 8001232:	46bd      	mov	sp, r7
 8001234:	bd80      	pop	{r7, pc}

08001236 <I2C_WaitOnBTFFlagUntilTimeout>:
  * @param  Timeout Timeout duration
  * @param  Tickstart Tick start value
  * @retval HAL status
  */
static HAL_StatusTypeDef I2C_WaitOnBTFFlagUntilTimeout(I2C_HandleTypeDef *hi2c, uint32_t Timeout, uint32_t Tickstart)
{
 8001236:	b580      	push	{r7, lr}
 8001238:	b084      	sub	sp, #16
 800123a:	af00      	add	r7, sp, #0
 800123c:	60f8      	str	r0, [r7, #12]
 800123e:	60b9      	str	r1, [r7, #8]
 8001240:	607a      	str	r2, [r7, #4]
  while (__HAL_I2C_GET_FLAG(hi2c, I2C_FLAG_BTF) == RESET)
 8001242:	e02d      	b.n	80012a0 <I2C_WaitOnBTFFlagUntilTimeout+0x6a>
  {
    /* Check if a NACK is detected */
    if (I2C_IsAcknowledgeFailed(hi2c) != HAL_OK)
 8001244:	68f8      	ldr	r0, [r7, #12]
 8001246:	f000 f837 	bl	80012b8 <I2C_IsAcknowledgeFailed>
 800124a:	4603      	mov	r3, r0
 800124c:	2b00      	cmp	r3, #0
 800124e:	d001      	beq.n	8001254 <I2C_WaitOnBTFFlagUntilTimeout+0x1e>
    {
      return HAL_ERROR;
 8001250:	2301      	movs	r3, #1
 8001252:	e02d      	b.n	80012b0 <I2C_WaitOnBTFFlagUntilTimeout+0x7a>
    }

    /* Check for the Timeout */
    if (Timeout != HAL_MAX_DELAY)
 8001254:	68bb      	ldr	r3, [r7, #8]
 8001256:	f1b3 3fff 	cmp.w	r3, #4294967295
 800125a:	d021      	beq.n	80012a0 <I2C_WaitOnBTFFlagUntilTimeout+0x6a>
    {
      if (((HAL_GetTick() - Tickstart) > Timeout) || (Timeout == 0U))
 800125c:	f7ff f998 	bl	8000590 <HAL_GetTick>
 8001260:	4602      	mov	r2, r0
 8001262:	687b      	ldr	r3, [r7, #4]
 8001264:	1ad3      	subs	r3, r2, r3
 8001266:	68ba      	ldr	r2, [r7, #8]
 8001268:	429a      	cmp	r2, r3
 800126a:	d302      	bcc.n	8001272 <I2C_WaitOnBTFFlagUntilTimeout+0x3c>
 800126c:	68bb      	ldr	r3, [r7, #8]
 800126e:	2b00      	cmp	r3, #0
 8001270:	d116      	bne.n	80012a0 <I2C_WaitOnBTFFlagUntilTimeout+0x6a>
      {
        hi2c->PreviousState       = I2C_STATE_NONE;
 8001272:	68fb      	ldr	r3, [r7, #12]
 8001274:	2200      	movs	r2, #0
 8001276:	631a      	str	r2, [r3, #48]	; 0x30
        hi2c->State               = HAL_I2C_STATE_READY;
 8001278:	68fb      	ldr	r3, [r7, #12]
 800127a:	2220      	movs	r2, #32
 800127c:	f883 203d 	strb.w	r2, [r3, #61]	; 0x3d
        hi2c->Mode                = HAL_I2C_MODE_NONE;
 8001280:	68fb      	ldr	r3, [r7, #12]
 8001282:	2200      	movs	r2, #0
 8001284:	f883 203e 	strb.w	r2, [r3, #62]	; 0x3e
        hi2c->ErrorCode           |= HAL_I2C_ERROR_TIMEOUT;
 8001288:	68fb      	ldr	r3, [r7, #12]
 800128a:	6c1b      	ldr	r3, [r3, #64]	; 0x40
 800128c:	f043 0220 	orr.w	r2, r3, #32
 8001290:	68fb      	ldr	r3, [r7, #12]
 8001292:	641a      	str	r2, [r3, #64]	; 0x40

        /* Process Unlocked */
        __HAL_UNLOCK(hi2c);
 8001294:	68fb      	ldr	r3, [r7, #12]
 8001296:	2200      	movs	r2, #0
 8001298:	f883 203c 	strb.w	r2, [r3, #60]	; 0x3c

        return HAL_ERROR;
 800129c:	2301      	movs	r3, #1
 800129e:	e007      	b.n	80012b0 <I2C_WaitOnBTFFlagUntilTimeout+0x7a>
  while (__HAL_I2C_GET_FLAG(hi2c, I2C_FLAG_BTF) == RESET)
 80012a0:	68fb      	ldr	r3, [r7, #12]
 80012a2:	681b      	ldr	r3, [r3, #0]
 80012a4:	695b      	ldr	r3, [r3, #20]
 80012a6:	f003 0304 	and.w	r3, r3, #4
 80012aa:	2b04      	cmp	r3, #4
 80012ac:	d1ca      	bne.n	8001244 <I2C_WaitOnBTFFlagUntilTimeout+0xe>
      }
    }
  }
  return HAL_OK;
 80012ae:	2300      	movs	r3, #0
}
 80012b0:	4618      	mov	r0, r3
 80012b2:	3710      	adds	r7, #16
 80012b4:	46bd      	mov	sp, r7
 80012b6:	bd80      	pop	{r7, pc}

080012b8 <I2C_IsAcknowledgeFailed>:
  * @param  hi2c Pointer to a I2C_HandleTypeDef structure that contains
  *                the configuration information for the specified I2C.
  * @retval HAL status
  */
static HAL_StatusTypeDef I2C_IsAcknowledgeFailed(I2C_HandleTypeDef *hi2c)
{
 80012b8:	b480      	push	{r7}
 80012ba:	b083      	sub	sp, #12
 80012bc:	af00      	add	r7, sp, #0
 80012be:	6078      	str	r0, [r7, #4]
  if (__HAL_I2C_GET_FLAG(hi2c, I2C_FLAG_AF) == SET)
 80012c0:	687b      	ldr	r3, [r7, #4]
 80012c2:	681b      	ldr	r3, [r3, #0]
 80012c4:	695b      	ldr	r3, [r3, #20]
 80012c6:	f403 6380 	and.w	r3, r3, #1024	; 0x400
 80012ca:	f5b3 6f80 	cmp.w	r3, #1024	; 0x400
 80012ce:	d11b      	bne.n	8001308 <I2C_IsAcknowledgeFailed+0x50>
  {
    /* Clear NACKF Flag */
    __HAL_I2C_CLEAR_FLAG(hi2c, I2C_FLAG_AF);
 80012d0:	687b      	ldr	r3, [r7, #4]
 80012d2:	681b      	ldr	r3, [r3, #0]
 80012d4:	f46f 6280 	mvn.w	r2, #1024	; 0x400
 80012d8:	615a      	str	r2, [r3, #20]

    hi2c->PreviousState       = I2C_STATE_NONE;
 80012da:	687b      	ldr	r3, [r7, #4]
 80012dc:	2200      	movs	r2, #0
 80012de:	631a      	str	r2, [r3, #48]	; 0x30
    hi2c->State               = HAL_I2C_STATE_READY;
 80012e0:	687b      	ldr	r3, [r7, #4]
 80012e2:	2220      	movs	r2, #32
 80012e4:	f883 203d 	strb.w	r2, [r3, #61]	; 0x3d
    hi2c->Mode                = HAL_I2C_MODE_NONE;
 80012e8:	687b      	ldr	r3, [r7, #4]
 80012ea:	2200      	movs	r2, #0
 80012ec:	f883 203e 	strb.w	r2, [r3, #62]	; 0x3e
    hi2c->ErrorCode           |= HAL_I2C_ERROR_AF;
 80012f0:	687b      	ldr	r3, [r7, #4]
 80012f2:	6c1b      	ldr	r3, [r3, #64]	; 0x40
 80012f4:	f043 0204 	orr.w	r2, r3, #4
 80012f8:	687b      	ldr	r3, [r7, #4]
 80012fa:	641a      	str	r2, [r3, #64]	; 0x40

    /* Process Unlocked */
    __HAL_UNLOCK(hi2c);
 80012fc:	687b      	ldr	r3, [r7, #4]
 80012fe:	2200      	movs	r2, #0
 8001300:	f883 203c 	strb.w	r2, [r3, #60]	; 0x3c

    return HAL_ERROR;
 8001304:	2301      	movs	r3, #1
 8001306:	e000      	b.n	800130a <I2C_IsAcknowledgeFailed+0x52>
  }
  return HAL_OK;
 8001308:	2300      	movs	r3, #0
}
 800130a:	4618      	mov	r0, r3
 800130c:	370c      	adds	r7, #12
 800130e:	46bd      	mov	sp, r7
 8001310:	bc80      	pop	{r7}
 8001312:	4770      	bx	lr

08001314 <HAL_RCC_OscConfig>:
  *         supported by this macro. User should request a transition to HSE Off
  *         first and then HSE On or HSE Bypass.
  * @retval HAL status
  */
HAL_StatusTypeDef HAL_RCC_OscConfig(RCC_OscInitTypeDef  *RCC_OscInitStruct)
{
 8001314:	b580      	push	{r7, lr}
 8001316:	b086      	sub	sp, #24
 8001318:	af00      	add	r7, sp, #0
 800131a:	6078      	str	r0, [r7, #4]
  uint32_t tickstart;
  uint32_t pll_config;

  /* Check Null pointer */
  if (RCC_OscInitStruct == NULL)
 800131c:	687b      	ldr	r3, [r7, #4]
 800131e:	2b00      	cmp	r3, #0
 8001320:	d101      	bne.n	8001326 <HAL_RCC_OscConfig+0x12>
  {
    return HAL_ERROR;
 8001322:	2301      	movs	r3, #1
 8001324:	e26c      	b.n	8001800 <HAL_RCC_OscConfig+0x4ec>

  /* Check the parameters */
  assert_param(IS_RCC_OSCILLATORTYPE(RCC_OscInitStruct->OscillatorType));

  /*------------------------------- HSE Configuration ------------------------*/
  if (((RCC_OscInitStruct->OscillatorType) & RCC_OSCILLATORTYPE_HSE) == RCC_OSCILLATORTYPE_HSE)
 8001326:	687b      	ldr	r3, [r7, #4]
 8001328:	681b      	ldr	r3, [r3, #0]
 800132a:	f003 0301 	and.w	r3, r3, #1
 800132e:	2b00      	cmp	r3, #0
 8001330:	f000 8087 	beq.w	8001442 <HAL_RCC_OscConfig+0x12e>
  {
    /* Check the parameters */
    assert_param(IS_RCC_HSE(RCC_OscInitStruct->HSEState));

    /* When the HSE is used as system clock or clock source for PLL in these cases it is not allowed to be disabled */
    if ((__HAL_RCC_GET_SYSCLK_SOURCE() == RCC_SYSCLKSOURCE_STATUS_HSE)
 8001334:	4b92      	ldr	r3, [pc, #584]	; (8001580 <HAL_RCC_OscConfig+0x26c>)
 8001336:	685b      	ldr	r3, [r3, #4]
 8001338:	f003 030c 	and.w	r3, r3, #12
 800133c:	2b04      	cmp	r3, #4
 800133e:	d00c      	beq.n	800135a <HAL_RCC_OscConfig+0x46>
        || ((__HAL_RCC_GET_SYSCLK_SOURCE() == RCC_SYSCLKSOURCE_STATUS_PLLCLK) && (__HAL_RCC_GET_PLL_OSCSOURCE() == RCC_PLLSOURCE_HSE)))
 8001340:	4b8f      	ldr	r3, [pc, #572]	; (8001580 <HAL_RCC_OscConfig+0x26c>)
 8001342:	685b      	ldr	r3, [r3, #4]
 8001344:	f003 030c 	and.w	r3, r3, #12
 8001348:	2b08      	cmp	r3, #8
 800134a:	d112      	bne.n	8001372 <HAL_RCC_OscConfig+0x5e>
 800134c:	4b8c      	ldr	r3, [pc, #560]	; (8001580 <HAL_RCC_OscConfig+0x26c>)
 800134e:	685b      	ldr	r3, [r3, #4]
 8001350:	f403 3380 	and.w	r3, r3, #65536	; 0x10000
 8001354:	f5b3 3f80 	cmp.w	r3, #65536	; 0x10000
 8001358:	d10b      	bne.n	8001372 <HAL_RCC_OscConfig+0x5e>
    {
      if ((__HAL_RCC_GET_FLAG(RCC_FLAG_HSERDY) != RESET) && (RCC_OscInitStruct->HSEState == RCC_HSE_OFF))
 800135a:	4b89      	ldr	r3, [pc, #548]	; (8001580 <HAL_RCC_OscConfig+0x26c>)
 800135c:	681b      	ldr	r3, [r3, #0]
 800135e:	f403 3300 	and.w	r3, r3, #131072	; 0x20000
 8001362:	2b00      	cmp	r3, #0
 8001364:	d06c      	beq.n	8001440 <HAL_RCC_OscConfig+0x12c>
 8001366:	687b      	ldr	r3, [r7, #4]
 8001368:	685b      	ldr	r3, [r3, #4]
 800136a:	2b00      	cmp	r3, #0
 800136c:	d168      	bne.n	8001440 <HAL_RCC_OscConfig+0x12c>
      {
        return HAL_ERROR;
 800136e:	2301      	movs	r3, #1
 8001370:	e246      	b.n	8001800 <HAL_RCC_OscConfig+0x4ec>
      }
    }
    else
    {
      /* Set the new HSE configuration ---------------------------------------*/
      __HAL_RCC_HSE_CONFIG(RCC_OscInitStruct->HSEState);
 8001372:	687b      	ldr	r3, [r7, #4]
 8001374:	685b      	ldr	r3, [r3, #4]
 8001376:	f5b3 3f80 	cmp.w	r3, #65536	; 0x10000
 800137a:	d106      	bne.n	800138a <HAL_RCC_OscConfig+0x76>
 800137c:	4b80      	ldr	r3, [pc, #512]	; (8001580 <HAL_RCC_OscConfig+0x26c>)
 800137e:	681b      	ldr	r3, [r3, #0]
 8001380:	4a7f      	ldr	r2, [pc, #508]	; (8001580 <HAL_RCC_OscConfig+0x26c>)
 8001382:	f443 3380 	orr.w	r3, r3, #65536	; 0x10000
 8001386:	6013      	str	r3, [r2, #0]
 8001388:	e02e      	b.n	80013e8 <HAL_RCC_OscConfig+0xd4>
 800138a:	687b      	ldr	r3, [r7, #4]
 800138c:	685b      	ldr	r3, [r3, #4]
 800138e:	2b00      	cmp	r3, #0
 8001390:	d10c      	bne.n	80013ac <HAL_RCC_OscConfig+0x98>
 8001392:	4b7b      	ldr	r3, [pc, #492]	; (8001580 <HAL_RCC_OscConfig+0x26c>)
 8001394:	681b      	ldr	r3, [r3, #0]
 8001396:	4a7a      	ldr	r2, [pc, #488]	; (8001580 <HAL_RCC_OscConfig+0x26c>)
 8001398:	f423 3380 	bic.w	r3, r3, #65536	; 0x10000
 800139c:	6013      	str	r3, [r2, #0]
 800139e:	4b78      	ldr	r3, [pc, #480]	; (8001580 <HAL_RCC_OscConfig+0x26c>)
 80013a0:	681b      	ldr	r3, [r3, #0]
 80013a2:	4a77      	ldr	r2, [pc, #476]	; (8001580 <HAL_RCC_OscConfig+0x26c>)
 80013a4:	f423 2380 	bic.w	r3, r3, #262144	; 0x40000
 80013a8:	6013      	str	r3, [r2, #0]
 80013aa:	e01d      	b.n	80013e8 <HAL_RCC_OscConfig+0xd4>
 80013ac:	687b      	ldr	r3, [r7, #4]
 80013ae:	685b      	ldr	r3, [r3, #4]
 80013b0:	f5b3 2fa0 	cmp.w	r3, #327680	; 0x50000
 80013b4:	d10c      	bne.n	80013d0 <HAL_RCC_OscConfig+0xbc>
 80013b6:	4b72      	ldr	r3, [pc, #456]	; (8001580 <HAL_RCC_OscConfig+0x26c>)
 80013b8:	681b      	ldr	r3, [r3, #0]
 80013ba:	4a71      	ldr	r2, [pc, #452]	; (8001580 <HAL_RCC_OscConfig+0x26c>)
 80013bc:	f443 2380 	orr.w	r3, r3, #262144	; 0x40000
 80013c0:	6013      	str	r3, [r2, #0]
 80013c2:	4b6f      	ldr	r3, [pc, #444]	; (8001580 <HAL_RCC_OscConfig+0x26c>)
 80013c4:	681b      	ldr	r3, [r3, #0]
 80013c6:	4a6e      	ldr	r2, [pc, #440]	; (8001580 <HAL_RCC_OscConfig+0x26c>)
 80013c8:	f443 3380 	orr.w	r3, r3, #65536	; 0x10000
 80013cc:	6013      	str	r3, [r2, #0]
 80013ce:	e00b      	b.n	80013e8 <HAL_RCC_OscConfig+0xd4>
 80013d0:	4b6b      	ldr	r3, [pc, #428]	; (8001580 <HAL_RCC_OscConfig+0x26c>)
 80013d2:	681b      	ldr	r3, [r3, #0]
 80013d4:	4a6a      	ldr	r2, [pc, #424]	; (8001580 <HAL_RCC_OscConfig+0x26c>)
 80013d6:	f423 3380 	bic.w	r3, r3, #65536	; 0x10000
 80013da:	6013      	str	r3, [r2, #0]
 80013dc:	4b68      	ldr	r3, [pc, #416]	; (8001580 <HAL_RCC_OscConfig+0x26c>)
 80013de:	681b      	ldr	r3, [r3, #0]
 80013e0:	4a67      	ldr	r2, [pc, #412]	; (8001580 <HAL_RCC_OscConfig+0x26c>)
 80013e2:	f423 2380 	bic.w	r3, r3, #262144	; 0x40000
 80013e6:	6013      	str	r3, [r2, #0]


      /* Check the HSE State */
      if (RCC_OscInitStruct->HSEState != RCC_HSE_OFF)
 80013e8:	687b      	ldr	r3, [r7, #4]
 80013ea:	685b      	ldr	r3, [r3, #4]
 80013ec:	2b00      	cmp	r3, #0
 80013ee:	d013      	beq.n	8001418 <HAL_RCC_OscConfig+0x104>
      {
        /* Get Start Tick */
        tickstart = HAL_GetTick();
 80013f0:	f7ff f8ce 	bl	8000590 <HAL_GetTick>
 80013f4:	6138      	str	r0, [r7, #16]

        /* Wait till HSE is ready */
        while (__HAL_RCC_GET_FLAG(RCC_FLAG_HSERDY) == RESET)
 80013f6:	e008      	b.n	800140a <HAL_RCC_OscConfig+0xf6>
        {
          if ((HAL_GetTick() - tickstart) > HSE_TIMEOUT_VALUE)
 80013f8:	f7ff f8ca 	bl	8000590 <HAL_GetTick>
 80013fc:	4602      	mov	r2, r0
 80013fe:	693b      	ldr	r3, [r7, #16]
 8001400:	1ad3      	subs	r3, r2, r3
 8001402:	2b64      	cmp	r3, #100	; 0x64
 8001404:	d901      	bls.n	800140a <HAL_RCC_OscConfig+0xf6>
          {
            return HAL_TIMEOUT;
 8001406:	2303      	movs	r3, #3
 8001408:	e1fa      	b.n	8001800 <HAL_RCC_OscConfig+0x4ec>
        while (__HAL_RCC_GET_FLAG(RCC_FLAG_HSERDY) == RESET)
 800140a:	4b5d      	ldr	r3, [pc, #372]	; (8001580 <HAL_RCC_OscConfig+0x26c>)
 800140c:	681b      	ldr	r3, [r3, #0]
 800140e:	f403 3300 	and.w	r3, r3, #131072	; 0x20000
 8001412:	2b00      	cmp	r3, #0
 8001414:	d0f0      	beq.n	80013f8 <HAL_RCC_OscConfig+0xe4>
 8001416:	e014      	b.n	8001442 <HAL_RCC_OscConfig+0x12e>
        }
      }
      else
      {
        /* Get Start Tick */
        tickstart = HAL_GetTick();
 8001418:	f7ff f8ba 	bl	8000590 <HAL_GetTick>
 800141c:	6138      	str	r0, [r7, #16]

        /* Wait till HSE is disabled */
        while (__HAL_RCC_GET_FLAG(RCC_FLAG_HSERDY) != RESET)
 800141e:	e008      	b.n	8001432 <HAL_RCC_OscConfig+0x11e>
        {
          if ((HAL_GetTick() - tickstart) > HSE_TIMEOUT_VALUE)
 8001420:	f7ff f8b6 	bl	8000590 <HAL_GetTick>
 8001424:	4602      	mov	r2, r0
 8001426:	693b      	ldr	r3, [r7, #16]
 8001428:	1ad3      	subs	r3, r2, r3
 800142a:	2b64      	cmp	r3, #100	; 0x64
 800142c:	d901      	bls.n	8001432 <HAL_RCC_OscConfig+0x11e>
          {
            return HAL_TIMEOUT;
 800142e:	2303      	movs	r3, #3
 8001430:	e1e6      	b.n	8001800 <HAL_RCC_OscConfig+0x4ec>
        while (__HAL_RCC_GET_FLAG(RCC_FLAG_HSERDY) != RESET)
 8001432:	4b53      	ldr	r3, [pc, #332]	; (8001580 <HAL_RCC_OscConfig+0x26c>)
 8001434:	681b      	ldr	r3, [r3, #0]
 8001436:	f403 3300 	and.w	r3, r3, #131072	; 0x20000
 800143a:	2b00      	cmp	r3, #0
 800143c:	d1f0      	bne.n	8001420 <HAL_RCC_OscConfig+0x10c>
 800143e:	e000      	b.n	8001442 <HAL_RCC_OscConfig+0x12e>
      if ((__HAL_RCC_GET_FLAG(RCC_FLAG_HSERDY) != RESET) && (RCC_OscInitStruct->HSEState == RCC_HSE_OFF))
 8001440:	bf00      	nop
        }
      }
    }
  }
  /*----------------------------- HSI Configuration --------------------------*/
  if (((RCC_OscInitStruct->OscillatorType) & RCC_OSCILLATORTYPE_HSI) == RCC_OSCILLATORTYPE_HSI)
 8001442:	687b      	ldr	r3, [r7, #4]
 8001444:	681b      	ldr	r3, [r3, #0]
 8001446:	f003 0302 	and.w	r3, r3, #2
 800144a:	2b00      	cmp	r3, #0
 800144c:	d063      	beq.n	8001516 <HAL_RCC_OscConfig+0x202>
    /* Check the parameters */
    assert_param(IS_RCC_HSI(RCC_OscInitStruct->HSIState));
    assert_param(IS_RCC_CALIBRATION_VALUE(RCC_OscInitStruct->HSICalibrationValue));

    /* Check if HSI is used as system clock or as PLL source when PLL is selected as system clock */
    if ((__HAL_RCC_GET_SYSCLK_SOURCE() == RCC_SYSCLKSOURCE_STATUS_HSI)
 800144e:	4b4c      	ldr	r3, [pc, #304]	; (8001580 <HAL_RCC_OscConfig+0x26c>)
 8001450:	685b      	ldr	r3, [r3, #4]
 8001452:	f003 030c 	and.w	r3, r3, #12
 8001456:	2b00      	cmp	r3, #0
 8001458:	d00b      	beq.n	8001472 <HAL_RCC_OscConfig+0x15e>
        || ((__HAL_RCC_GET_SYSCLK_SOURCE() == RCC_SYSCLKSOURCE_STATUS_PLLCLK) && (__HAL_RCC_GET_PLL_OSCSOURCE() == RCC_PLLSOURCE_HSI_DIV2)))
 800145a:	4b49      	ldr	r3, [pc, #292]	; (8001580 <HAL_RCC_OscConfig+0x26c>)
 800145c:	685b      	ldr	r3, [r3, #4]
 800145e:	f003 030c 	and.w	r3, r3, #12
 8001462:	2b08      	cmp	r3, #8
 8001464:	d11c      	bne.n	80014a0 <HAL_RCC_OscConfig+0x18c>
 8001466:	4b46      	ldr	r3, [pc, #280]	; (8001580 <HAL_RCC_OscConfig+0x26c>)
 8001468:	685b      	ldr	r3, [r3, #4]
 800146a:	f403 3380 	and.w	r3, r3, #65536	; 0x10000
 800146e:	2b00      	cmp	r3, #0
 8001470:	d116      	bne.n	80014a0 <HAL_RCC_OscConfig+0x18c>
    {
      /* When HSI is used as system clock it will not disabled */
      if ((__HAL_RCC_GET_FLAG(RCC_FLAG_HSIRDY) != RESET) && (RCC_OscInitStruct->HSIState != RCC_HSI_ON))
 8001472:	4b43      	ldr	r3, [pc, #268]	; (8001580 <HAL_RCC_OscConfig+0x26c>)
 8001474:	681b      	ldr	r3, [r3, #0]
 8001476:	f003 0302 	and.w	r3, r3, #2
 800147a:	2b00      	cmp	r3, #0
 800147c:	d005      	beq.n	800148a <HAL_RCC_OscConfig+0x176>
 800147e:	687b      	ldr	r3, [r7, #4]
 8001480:	691b      	ldr	r3, [r3, #16]
 8001482:	2b01      	cmp	r3, #1
 8001484:	d001      	beq.n	800148a <HAL_RCC_OscConfig+0x176>
      {
        return HAL_ERROR;
 8001486:	2301      	movs	r3, #1
 8001488:	e1ba      	b.n	8001800 <HAL_RCC_OscConfig+0x4ec>
      }
      /* Otherwise, just the calibration is allowed */
      else
      {
        /* Adjusts the Internal High Speed oscillator (HSI) calibration value.*/
        __HAL_RCC_HSI_CALIBRATIONVALUE_ADJUST(RCC_OscInitStruct->HSICalibrationValue);
 800148a:	4b3d      	ldr	r3, [pc, #244]	; (8001580 <HAL_RCC_OscConfig+0x26c>)
 800148c:	681b      	ldr	r3, [r3, #0]
 800148e:	f023 02f8 	bic.w	r2, r3, #248	; 0xf8
 8001492:	687b      	ldr	r3, [r7, #4]
 8001494:	695b      	ldr	r3, [r3, #20]
 8001496:	00db      	lsls	r3, r3, #3
 8001498:	4939      	ldr	r1, [pc, #228]	; (8001580 <HAL_RCC_OscConfig+0x26c>)
 800149a:	4313      	orrs	r3, r2
 800149c:	600b      	str	r3, [r1, #0]
      if ((__HAL_RCC_GET_FLAG(RCC_FLAG_HSIRDY) != RESET) && (RCC_OscInitStruct->HSIState != RCC_HSI_ON))
 800149e:	e03a      	b.n	8001516 <HAL_RCC_OscConfig+0x202>
      }
    }
    else
    {
      /* Check the HSI State */
      if (RCC_OscInitStruct->HSIState != RCC_HSI_OFF)
 80014a0:	687b      	ldr	r3, [r7, #4]
 80014a2:	691b      	ldr	r3, [r3, #16]
 80014a4:	2b00      	cmp	r3, #0
 80014a6:	d020      	beq.n	80014ea <HAL_RCC_OscConfig+0x1d6>
      {
        /* Enable the Internal High Speed oscillator (HSI). */
        __HAL_RCC_HSI_ENABLE();
 80014a8:	4b36      	ldr	r3, [pc, #216]	; (8001584 <HAL_RCC_OscConfig+0x270>)
 80014aa:	2201      	movs	r2, #1
 80014ac:	601a      	str	r2, [r3, #0]

        /* Get Start Tick */
        tickstart = HAL_GetTick();
 80014ae:	f7ff f86f 	bl	8000590 <HAL_GetTick>
 80014b2:	6138      	str	r0, [r7, #16]

        /* Wait till HSI is ready */
        while (__HAL_RCC_GET_FLAG(RCC_FLAG_HSIRDY) == RESET)
 80014b4:	e008      	b.n	80014c8 <HAL_RCC_OscConfig+0x1b4>
        {
          if ((HAL_GetTick() - tickstart) > HSI_TIMEOUT_VALUE)
 80014b6:	f7ff f86b 	bl	8000590 <HAL_GetTick>
 80014ba:	4602      	mov	r2, r0
 80014bc:	693b      	ldr	r3, [r7, #16]
 80014be:	1ad3      	subs	r3, r2, r3
 80014c0:	2b02      	cmp	r3, #2
 80014c2:	d901      	bls.n	80014c8 <HAL_RCC_OscConfig+0x1b4>
          {
            return HAL_TIMEOUT;
 80014c4:	2303      	movs	r3, #3
 80014c6:	e19b      	b.n	8001800 <HAL_RCC_OscConfig+0x4ec>
        while (__HAL_RCC_GET_FLAG(RCC_FLAG_HSIRDY) == RESET)
 80014c8:	4b2d      	ldr	r3, [pc, #180]	; (8001580 <HAL_RCC_OscConfig+0x26c>)
 80014ca:	681b      	ldr	r3, [r3, #0]
 80014cc:	f003 0302 	and.w	r3, r3, #2
 80014d0:	2b00      	cmp	r3, #0
 80014d2:	d0f0      	beq.n	80014b6 <HAL_RCC_OscConfig+0x1a2>
          }
        }

        /* Adjusts the Internal High Speed oscillator (HSI) calibration value.*/
        __HAL_RCC_HSI_CALIBRATIONVALUE_ADJUST(RCC_OscInitStruct->HSICalibrationValue);
 80014d4:	4b2a      	ldr	r3, [pc, #168]	; (8001580 <HAL_RCC_OscConfig+0x26c>)
 80014d6:	681b      	ldr	r3, [r3, #0]
 80014d8:	f023 02f8 	bic.w	r2, r3, #248	; 0xf8
 80014dc:	687b      	ldr	r3, [r7, #4]
 80014de:	695b      	ldr	r3, [r3, #20]
 80014e0:	00db      	lsls	r3, r3, #3
 80014e2:	4927      	ldr	r1, [pc, #156]	; (8001580 <HAL_RCC_OscConfig+0x26c>)
 80014e4:	4313      	orrs	r3, r2
 80014e6:	600b      	str	r3, [r1, #0]
 80014e8:	e015      	b.n	8001516 <HAL_RCC_OscConfig+0x202>
      }
      else
      {
        /* Disable the Internal High Speed oscillator (HSI). */
        __HAL_RCC_HSI_DISABLE();
 80014ea:	4b26      	ldr	r3, [pc, #152]	; (8001584 <HAL_RCC_OscConfig+0x270>)
 80014ec:	2200      	movs	r2, #0
 80014ee:	601a      	str	r2, [r3, #0]

        /* Get Start Tick */
        tickstart = HAL_GetTick();
 80014f0:	f7ff f84e 	bl	8000590 <HAL_GetTick>
 80014f4:	6138      	str	r0, [r7, #16]

        /* Wait till HSI is disabled */
        while (__HAL_RCC_GET_FLAG(RCC_FLAG_HSIRDY) != RESET)
 80014f6:	e008      	b.n	800150a <HAL_RCC_OscConfig+0x1f6>
        {
          if ((HAL_GetTick() - tickstart) > HSI_TIMEOUT_VALUE)
 80014f8:	f7ff f84a 	bl	8000590 <HAL_GetTick>
 80014fc:	4602      	mov	r2, r0
 80014fe:	693b      	ldr	r3, [r7, #16]
 8001500:	1ad3      	subs	r3, r2, r3
 8001502:	2b02      	cmp	r3, #2
 8001504:	d901      	bls.n	800150a <HAL_RCC_OscConfig+0x1f6>
          {
            return HAL_TIMEOUT;
 8001506:	2303      	movs	r3, #3
 8001508:	e17a      	b.n	8001800 <HAL_RCC_OscConfig+0x4ec>
        while (__HAL_RCC_GET_FLAG(RCC_FLAG_HSIRDY) != RESET)
 800150a:	4b1d      	ldr	r3, [pc, #116]	; (8001580 <HAL_RCC_OscConfig+0x26c>)
 800150c:	681b      	ldr	r3, [r3, #0]
 800150e:	f003 0302 	and.w	r3, r3, #2
 8001512:	2b00      	cmp	r3, #0
 8001514:	d1f0      	bne.n	80014f8 <HAL_RCC_OscConfig+0x1e4>
        }
      }
    }
  }
  /*------------------------------ LSI Configuration -------------------------*/
  if (((RCC_OscInitStruct->OscillatorType) & RCC_OSCILLATORTYPE_LSI) == RCC_OSCILLATORTYPE_LSI)
 8001516:	687b      	ldr	r3, [r7, #4]
 8001518:	681b      	ldr	r3, [r3, #0]
 800151a:	f003 0308 	and.w	r3, r3, #8
 800151e:	2b00      	cmp	r3, #0
 8001520:	d03a      	beq.n	8001598 <HAL_RCC_OscConfig+0x284>
  {
    /* Check the parameters */
    assert_param(IS_RCC_LSI(RCC_OscInitStruct->LSIState));

    /* Check the LSI State */
    if (RCC_OscInitStruct->LSIState != RCC_LSI_OFF)
 8001522:	687b      	ldr	r3, [r7, #4]
 8001524:	699b      	ldr	r3, [r3, #24]
 8001526:	2b00      	cmp	r3, #0
 8001528:	d019      	beq.n	800155e <HAL_RCC_OscConfig+0x24a>
    {
      /* Enable the Internal Low Speed oscillator (LSI). */
      __HAL_RCC_LSI_ENABLE();
 800152a:	4b17      	ldr	r3, [pc, #92]	; (8001588 <HAL_RCC_OscConfig+0x274>)
 800152c:	2201      	movs	r2, #1
 800152e:	601a      	str	r2, [r3, #0]

      /* Get Start Tick */
      tickstart = HAL_GetTick();
 8001530:	f7ff f82e 	bl	8000590 <HAL_GetTick>
 8001534:	6138      	str	r0, [r7, #16]

      /* Wait till LSI is ready */
      while (__HAL_RCC_GET_FLAG(RCC_FLAG_LSIRDY) == RESET)
 8001536:	e008      	b.n	800154a <HAL_RCC_OscConfig+0x236>
      {
        if ((HAL_GetTick() - tickstart) > LSI_TIMEOUT_VALUE)
 8001538:	f7ff f82a 	bl	8000590 <HAL_GetTick>
 800153c:	4602      	mov	r2, r0
 800153e:	693b      	ldr	r3, [r7, #16]
 8001540:	1ad3      	subs	r3, r2, r3
 8001542:	2b02      	cmp	r3, #2
 8001544:	d901      	bls.n	800154a <HAL_RCC_OscConfig+0x236>
        {
          return HAL_TIMEOUT;
 8001546:	2303      	movs	r3, #3
 8001548:	e15a      	b.n	8001800 <HAL_RCC_OscConfig+0x4ec>
      while (__HAL_RCC_GET_FLAG(RCC_FLAG_LSIRDY) == RESET)
 800154a:	4b0d      	ldr	r3, [pc, #52]	; (8001580 <HAL_RCC_OscConfig+0x26c>)
 800154c:	6a5b      	ldr	r3, [r3, #36]	; 0x24
 800154e:	f003 0302 	and.w	r3, r3, #2
 8001552:	2b00      	cmp	r3, #0
 8001554:	d0f0      	beq.n	8001538 <HAL_RCC_OscConfig+0x224>
        }
      }
      /*  To have a fully stabilized clock in the specified range, a software delay of 1ms
          should be added.*/
      RCC_Delay(1);
 8001556:	2001      	movs	r0, #1
 8001558:	f000 fac6 	bl	8001ae8 <RCC_Delay>
 800155c:	e01c      	b.n	8001598 <HAL_RCC_OscConfig+0x284>
    }
    else
    {
      /* Disable the Internal Low Speed oscillator (LSI). */
      __HAL_RCC_LSI_DISABLE();
 800155e:	4b0a      	ldr	r3, [pc, #40]	; (8001588 <HAL_RCC_OscConfig+0x274>)
 8001560:	2200      	movs	r2, #0
 8001562:	601a      	str	r2, [r3, #0]

      /* Get Start Tick */
      tickstart = HAL_GetTick();
 8001564:	f7ff f814 	bl	8000590 <HAL_GetTick>
 8001568:	6138      	str	r0, [r7, #16]

      /* Wait till LSI is disabled */
      while (__HAL_RCC_GET_FLAG(RCC_FLAG_LSIRDY) != RESET)
 800156a:	e00f      	b.n	800158c <HAL_RCC_OscConfig+0x278>
      {
        if ((HAL_GetTick() - tickstart) > LSI_TIMEOUT_VALUE)
 800156c:	f7ff f810 	bl	8000590 <HAL_GetTick>
 8001570:	4602      	mov	r2, r0
 8001572:	693b      	ldr	r3, [r7, #16]
 8001574:	1ad3      	subs	r3, r2, r3
 8001576:	2b02      	cmp	r3, #2
 8001578:	d908      	bls.n	800158c <HAL_RCC_OscConfig+0x278>
        {
          return HAL_TIMEOUT;
 800157a:	2303      	movs	r3, #3
 800157c:	e140      	b.n	8001800 <HAL_RCC_OscConfig+0x4ec>
 800157e:	bf00      	nop
 8001580:	40021000 	.word	0x40021000
 8001584:	42420000 	.word	0x42420000
 8001588:	42420480 	.word	0x42420480
      while (__HAL_RCC_GET_FLAG(RCC_FLAG_LSIRDY) != RESET)
 800158c:	4b9e      	ldr	r3, [pc, #632]	; (8001808 <HAL_RCC_OscConfig+0x4f4>)
 800158e:	6a5b      	ldr	r3, [r3, #36]	; 0x24
 8001590:	f003 0302 	and.w	r3, r3, #2
 8001594:	2b00      	cmp	r3, #0
 8001596:	d1e9      	bne.n	800156c <HAL_RCC_OscConfig+0x258>
        }
      }
    }
  }
  /*------------------------------ LSE Configuration -------------------------*/
  if (((RCC_OscInitStruct->OscillatorType) & RCC_OSCILLATORTYPE_LSE) == RCC_OSCILLATORTYPE_LSE)
 8001598:	687b      	ldr	r3, [r7, #4]
 800159a:	681b      	ldr	r3, [r3, #0]
 800159c:	f003 0304 	and.w	r3, r3, #4
 80015a0:	2b00      	cmp	r3, #0
 80015a2:	f000 80a6 	beq.w	80016f2 <HAL_RCC_OscConfig+0x3de>
  {
    FlagStatus       pwrclkchanged = RESET;
 80015a6:	2300      	movs	r3, #0
 80015a8:	75fb      	strb	r3, [r7, #23]
    /* Check the parameters */
    assert_param(IS_RCC_LSE(RCC_OscInitStruct->LSEState));

    /* Update LSE configuration in Backup Domain control register    */
    /* Requires to enable write access to Backup Domain of necessary */
    if (__HAL_RCC_PWR_IS_CLK_DISABLED())
 80015aa:	4b97      	ldr	r3, [pc, #604]	; (8001808 <HAL_RCC_OscConfig+0x4f4>)
 80015ac:	69db      	ldr	r3, [r3, #28]
 80015ae:	f003 5380 	and.w	r3, r3, #268435456	; 0x10000000
 80015b2:	2b00      	cmp	r3, #0
 80015b4:	d10d      	bne.n	80015d2 <HAL_RCC_OscConfig+0x2be>
    {
      __HAL_RCC_PWR_CLK_ENABLE();
 80015b6:	4b94      	ldr	r3, [pc, #592]	; (8001808 <HAL_RCC_OscConfig+0x4f4>)
 80015b8:	69db      	ldr	r3, [r3, #28]
 80015ba:	4a93      	ldr	r2, [pc, #588]	; (8001808 <HAL_RCC_OscConfig+0x4f4>)
 80015bc:	f043 5380 	orr.w	r3, r3, #268435456	; 0x10000000
 80015c0:	61d3      	str	r3, [r2, #28]
 80015c2:	4b91      	ldr	r3, [pc, #580]	; (8001808 <HAL_RCC_OscConfig+0x4f4>)
 80015c4:	69db      	ldr	r3, [r3, #28]
 80015c6:	f003 5380 	and.w	r3, r3, #268435456	; 0x10000000
 80015ca:	60bb      	str	r3, [r7, #8]
 80015cc:	68bb      	ldr	r3, [r7, #8]
      pwrclkchanged = SET;
 80015ce:	2301      	movs	r3, #1
 80015d0:	75fb      	strb	r3, [r7, #23]
    }

    if (HAL_IS_BIT_CLR(PWR->CR, PWR_CR_DBP))
 80015d2:	4b8e      	ldr	r3, [pc, #568]	; (800180c <HAL_RCC_OscConfig+0x4f8>)
 80015d4:	681b      	ldr	r3, [r3, #0]
 80015d6:	f403 7380 	and.w	r3, r3, #256	; 0x100
 80015da:	2b00      	cmp	r3, #0
 80015dc:	d118      	bne.n	8001610 <HAL_RCC_OscConfig+0x2fc>
    {
      /* Enable write access to Backup domain */
      SET_BIT(PWR->CR, PWR_CR_DBP);
 80015de:	4b8b      	ldr	r3, [pc, #556]	; (800180c <HAL_RCC_OscConfig+0x4f8>)
 80015e0:	681b      	ldr	r3, [r3, #0]
 80015e2:	4a8a      	ldr	r2, [pc, #552]	; (800180c <HAL_RCC_OscConfig+0x4f8>)
 80015e4:	f443 7380 	orr.w	r3, r3, #256	; 0x100
 80015e8:	6013      	str	r3, [r2, #0]

      /* Wait for Backup domain Write protection disable */
      tickstart = HAL_GetTick();
 80015ea:	f7fe ffd1 	bl	8000590 <HAL_GetTick>
 80015ee:	6138      	str	r0, [r7, #16]

      while (HAL_IS_BIT_CLR(PWR->CR, PWR_CR_DBP))
 80015f0:	e008      	b.n	8001604 <HAL_RCC_OscConfig+0x2f0>
      {
        if ((HAL_GetTick() - tickstart) > RCC_DBP_TIMEOUT_VALUE)
 80015f2:	f7fe ffcd 	bl	8000590 <HAL_GetTick>
 80015f6:	4602      	mov	r2, r0
 80015f8:	693b      	ldr	r3, [r7, #16]
 80015fa:	1ad3      	subs	r3, r2, r3
 80015fc:	2b64      	cmp	r3, #100	; 0x64
 80015fe:	d901      	bls.n	8001604 <HAL_RCC_OscConfig+0x2f0>
        {
          return HAL_TIMEOUT;
 8001600:	2303      	movs	r3, #3
 8001602:	e0fd      	b.n	8001800 <HAL_RCC_OscConfig+0x4ec>
      while (HAL_IS_BIT_CLR(PWR->CR, PWR_CR_DBP))
 8001604:	4b81      	ldr	r3, [pc, #516]	; (800180c <HAL_RCC_OscConfig+0x4f8>)
 8001606:	681b      	ldr	r3, [r3, #0]
 8001608:	f403 7380 	and.w	r3, r3, #256	; 0x100
 800160c:	2b00      	cmp	r3, #0
 800160e:	d0f0      	beq.n	80015f2 <HAL_RCC_OscConfig+0x2de>
        }
      }
    }

    /* Set the new LSE configuration -----------------------------------------*/
    __HAL_RCC_LSE_CONFIG(RCC_OscInitStruct->LSEState);
 8001610:	687b      	ldr	r3, [r7, #4]
 8001612:	68db      	ldr	r3, [r3, #12]
 8001614:	2b01      	cmp	r3, #1
 8001616:	d106      	bne.n	8001626 <HAL_RCC_OscConfig+0x312>
 8001618:	4b7b      	ldr	r3, [pc, #492]	; (8001808 <HAL_RCC_OscConfig+0x4f4>)
 800161a:	6a1b      	ldr	r3, [r3, #32]
 800161c:	4a7a      	ldr	r2, [pc, #488]	; (8001808 <HAL_RCC_OscConfig+0x4f4>)
 800161e:	f043 0301 	orr.w	r3, r3, #1
 8001622:	6213      	str	r3, [r2, #32]
 8001624:	e02d      	b.n	8001682 <HAL_RCC_OscConfig+0x36e>
 8001626:	687b      	ldr	r3, [r7, #4]
 8001628:	68db      	ldr	r3, [r3, #12]
 800162a:	2b00      	cmp	r3, #0
 800162c:	d10c      	bne.n	8001648 <HAL_RCC_OscConfig+0x334>
 800162e:	4b76      	ldr	r3, [pc, #472]	; (8001808 <HAL_RCC_OscConfig+0x4f4>)
 8001630:	6a1b      	ldr	r3, [r3, #32]
 8001632:	4a75      	ldr	r2, [pc, #468]	; (8001808 <HAL_RCC_OscConfig+0x4f4>)
 8001634:	f023 0301 	bic.w	r3, r3, #1
 8001638:	6213      	str	r3, [r2, #32]
 800163a:	4b73      	ldr	r3, [pc, #460]	; (8001808 <HAL_RCC_OscConfig+0x4f4>)
 800163c:	6a1b      	ldr	r3, [r3, #32]
 800163e:	4a72      	ldr	r2, [pc, #456]	; (8001808 <HAL_RCC_OscConfig+0x4f4>)
 8001640:	f023 0304 	bic.w	r3, r3, #4
 8001644:	6213      	str	r3, [r2, #32]
 8001646:	e01c      	b.n	8001682 <HAL_RCC_OscConfig+0x36e>
 8001648:	687b      	ldr	r3, [r7, #4]
 800164a:	68db      	ldr	r3, [r3, #12]
 800164c:	2b05      	cmp	r3, #5
 800164e:	d10c      	bne.n	800166a <HAL_RCC_OscConfig+0x356>
 8001650:	4b6d      	ldr	r3, [pc, #436]	; (8001808 <HAL_RCC_OscConfig+0x4f4>)
 8001652:	6a1b      	ldr	r3, [r3, #32]
 8001654:	4a6c      	ldr	r2, [pc, #432]	; (8001808 <HAL_RCC_OscConfig+0x4f4>)
 8001656:	f043 0304 	orr.w	r3, r3, #4
 800165a:	6213      	str	r3, [r2, #32]
 800165c:	4b6a      	ldr	r3, [pc, #424]	; (8001808 <HAL_RCC_OscConfig+0x4f4>)
 800165e:	6a1b      	ldr	r3, [r3, #32]
 8001660:	4a69      	ldr	r2, [pc, #420]	; (8001808 <HAL_RCC_OscConfig+0x4f4>)
 8001662:	f043 0301 	orr.w	r3, r3, #1
 8001666:	6213      	str	r3, [r2, #32]
 8001668:	e00b      	b.n	8001682 <HAL_RCC_OscConfig+0x36e>
 800166a:	4b67      	ldr	r3, [pc, #412]	; (8001808 <HAL_RCC_OscConfig+0x4f4>)
 800166c:	6a1b      	ldr	r3, [r3, #32]
 800166e:	4a66      	ldr	r2, [pc, #408]	; (8001808 <HAL_RCC_OscConfig+0x4f4>)
 8001670:	f023 0301 	bic.w	r3, r3, #1
 8001674:	6213      	str	r3, [r2, #32]
 8001676:	4b64      	ldr	r3, [pc, #400]	; (8001808 <HAL_RCC_OscConfig+0x4f4>)
 8001678:	6a1b      	ldr	r3, [r3, #32]
 800167a:	4a63      	ldr	r2, [pc, #396]	; (8001808 <HAL_RCC_OscConfig+0x4f4>)
 800167c:	f023 0304 	bic.w	r3, r3, #4
 8001680:	6213      	str	r3, [r2, #32]
    /* Check the LSE State */
    if (RCC_OscInitStruct->LSEState != RCC_LSE_OFF)
 8001682:	687b      	ldr	r3, [r7, #4]
 8001684:	68db      	ldr	r3, [r3, #12]
 8001686:	2b00      	cmp	r3, #0
 8001688:	d015      	beq.n	80016b6 <HAL_RCC_OscConfig+0x3a2>
    {
      /* Get Start Tick */
      tickstart = HAL_GetTick();
 800168a:	f7fe ff81 	bl	8000590 <HAL_GetTick>
 800168e:	6138      	str	r0, [r7, #16]

      /* Wait till LSE is ready */
      while (__HAL_RCC_GET_FLAG(RCC_FLAG_LSERDY) == RESET)
 8001690:	e00a      	b.n	80016a8 <HAL_RCC_OscConfig+0x394>
      {
        if ((HAL_GetTick() - tickstart) > RCC_LSE_TIMEOUT_VALUE)
 8001692:	f7fe ff7d 	bl	8000590 <HAL_GetTick>
 8001696:	4602      	mov	r2, r0
 8001698:	693b      	ldr	r3, [r7, #16]
 800169a:	1ad3      	subs	r3, r2, r3
 800169c:	f241 3288 	movw	r2, #5000	; 0x1388
 80016a0:	4293      	cmp	r3, r2
 80016a2:	d901      	bls.n	80016a8 <HAL_RCC_OscConfig+0x394>
        {
          return HAL_TIMEOUT;
 80016a4:	2303      	movs	r3, #3
 80016a6:	e0ab      	b.n	8001800 <HAL_RCC_OscConfig+0x4ec>
      while (__HAL_RCC_GET_FLAG(RCC_FLAG_LSERDY) == RESET)
 80016a8:	4b57      	ldr	r3, [pc, #348]	; (8001808 <HAL_RCC_OscConfig+0x4f4>)
 80016aa:	6a1b      	ldr	r3, [r3, #32]
 80016ac:	f003 0302 	and.w	r3, r3, #2
 80016b0:	2b00      	cmp	r3, #0
 80016b2:	d0ee      	beq.n	8001692 <HAL_RCC_OscConfig+0x37e>
 80016b4:	e014      	b.n	80016e0 <HAL_RCC_OscConfig+0x3cc>
      }
    }
    else
    {
      /* Get Start Tick */
      tickstart = HAL_GetTick();
 80016b6:	f7fe ff6b 	bl	8000590 <HAL_GetTick>
 80016ba:	6138      	str	r0, [r7, #16]

      /* Wait till LSE is disabled */
      while (__HAL_RCC_GET_FLAG(RCC_FLAG_LSERDY) != RESET)
 80016bc:	e00a      	b.n	80016d4 <HAL_RCC_OscConfig+0x3c0>
      {
        if ((HAL_GetTick() - tickstart) > RCC_LSE_TIMEOUT_VALUE)
 80016be:	f7fe ff67 	bl	8000590 <HAL_GetTick>
 80016c2:	4602      	mov	r2, r0
 80016c4:	693b      	ldr	r3, [r7, #16]
 80016c6:	1ad3      	subs	r3, r2, r3
 80016c8:	f241 3288 	movw	r2, #5000	; 0x1388
 80016cc:	4293      	cmp	r3, r2
 80016ce:	d901      	bls.n	80016d4 <HAL_RCC_OscConfig+0x3c0>
        {
          return HAL_TIMEOUT;
 80016d0:	2303      	movs	r3, #3
 80016d2:	e095      	b.n	8001800 <HAL_RCC_OscConfig+0x4ec>
      while (__HAL_RCC_GET_FLAG(RCC_FLAG_LSERDY) != RESET)
 80016d4:	4b4c      	ldr	r3, [pc, #304]	; (8001808 <HAL_RCC_OscConfig+0x4f4>)
 80016d6:	6a1b      	ldr	r3, [r3, #32]
 80016d8:	f003 0302 	and.w	r3, r3, #2
 80016dc:	2b00      	cmp	r3, #0
 80016de:	d1ee      	bne.n	80016be <HAL_RCC_OscConfig+0x3aa>
        }
      }
    }

    /* Require to disable power clock if necessary */
    if (pwrclkchanged == SET)
 80016e0:	7dfb      	ldrb	r3, [r7, #23]
 80016e2:	2b01      	cmp	r3, #1
 80016e4:	d105      	bne.n	80016f2 <HAL_RCC_OscConfig+0x3de>
    {
      __HAL_RCC_PWR_CLK_DISABLE();
 80016e6:	4b48      	ldr	r3, [pc, #288]	; (8001808 <HAL_RCC_OscConfig+0x4f4>)
 80016e8:	69db      	ldr	r3, [r3, #28]
 80016ea:	4a47      	ldr	r2, [pc, #284]	; (8001808 <HAL_RCC_OscConfig+0x4f4>)
 80016ec:	f023 5380 	bic.w	r3, r3, #268435456	; 0x10000000
 80016f0:	61d3      	str	r3, [r2, #28]

#endif /* RCC_CR_PLL2ON */
  /*-------------------------------- PLL Configuration -----------------------*/
  /* Check the parameters */
  assert_param(IS_RCC_PLL(RCC_OscInitStruct->PLL.PLLState));
  if ((RCC_OscInitStruct->PLL.PLLState) != RCC_PLL_NONE)
 80016f2:	687b      	ldr	r3, [r7, #4]
 80016f4:	69db      	ldr	r3, [r3, #28]
 80016f6:	2b00      	cmp	r3, #0
 80016f8:	f000 8081 	beq.w	80017fe <HAL_RCC_OscConfig+0x4ea>
  {
    /* Check if the PLL is used as system clock or not */
    if (__HAL_RCC_GET_SYSCLK_SOURCE() != RCC_SYSCLKSOURCE_STATUS_PLLCLK)
 80016fc:	4b42      	ldr	r3, [pc, #264]	; (8001808 <HAL_RCC_OscConfig+0x4f4>)
 80016fe:	685b      	ldr	r3, [r3, #4]
 8001700:	f003 030c 	and.w	r3, r3, #12
 8001704:	2b08      	cmp	r3, #8
 8001706:	d061      	beq.n	80017cc <HAL_RCC_OscConfig+0x4b8>
    {
      if ((RCC_OscInitStruct->PLL.PLLState) == RCC_PLL_ON)
 8001708:	687b      	ldr	r3, [r7, #4]
 800170a:	69db      	ldr	r3, [r3, #28]
 800170c:	2b02      	cmp	r3, #2
 800170e:	d146      	bne.n	800179e <HAL_RCC_OscConfig+0x48a>
        /* Check the parameters */
        assert_param(IS_RCC_PLLSOURCE(RCC_OscInitStruct->PLL.PLLSource));
        assert_param(IS_RCC_PLL_MUL(RCC_OscInitStruct->PLL.PLLMUL));

        /* Disable the main PLL. */
        __HAL_RCC_PLL_DISABLE();
 8001710:	4b3f      	ldr	r3, [pc, #252]	; (8001810 <HAL_RCC_OscConfig+0x4fc>)
 8001712:	2200      	movs	r2, #0
 8001714:	601a      	str	r2, [r3, #0]

        /* Get Start Tick */
        tickstart = HAL_GetTick();
 8001716:	f7fe ff3b 	bl	8000590 <HAL_GetTick>
 800171a:	6138      	str	r0, [r7, #16]

        /* Wait till PLL is disabled */
        while (__HAL_RCC_GET_FLAG(RCC_FLAG_PLLRDY)  != RESET)
 800171c:	e008      	b.n	8001730 <HAL_RCC_OscConfig+0x41c>
        {
          if ((HAL_GetTick() - tickstart) > PLL_TIMEOUT_VALUE)
 800171e:	f7fe ff37 	bl	8000590 <HAL_GetTick>
 8001722:	4602      	mov	r2, r0
 8001724:	693b      	ldr	r3, [r7, #16]
 8001726:	1ad3      	subs	r3, r2, r3
 8001728:	2b02      	cmp	r3, #2
 800172a:	d901      	bls.n	8001730 <HAL_RCC_OscConfig+0x41c>
          {
            return HAL_TIMEOUT;
 800172c:	2303      	movs	r3, #3
 800172e:	e067      	b.n	8001800 <HAL_RCC_OscConfig+0x4ec>
        while (__HAL_RCC_GET_FLAG(RCC_FLAG_PLLRDY)  != RESET)
 8001730:	4b35      	ldr	r3, [pc, #212]	; (8001808 <HAL_RCC_OscConfig+0x4f4>)
 8001732:	681b      	ldr	r3, [r3, #0]
 8001734:	f003 7300 	and.w	r3, r3, #33554432	; 0x2000000
 8001738:	2b00      	cmp	r3, #0
 800173a:	d1f0      	bne.n	800171e <HAL_RCC_OscConfig+0x40a>
          }
        }

        /* Configure the HSE prediv factor --------------------------------*/
        /* It can be written only when the PLL is disabled. Not used in PLL source is different than HSE */
        if (RCC_OscInitStruct->PLL.PLLSource == RCC_PLLSOURCE_HSE)
 800173c:	687b      	ldr	r3, [r7, #4]
 800173e:	6a1b      	ldr	r3, [r3, #32]
 8001740:	f5b3 3f80 	cmp.w	r3, #65536	; 0x10000
 8001744:	d108      	bne.n	8001758 <HAL_RCC_OscConfig+0x444>
          /* Set PREDIV1 source */
          SET_BIT(RCC->CFGR2, RCC_OscInitStruct->Prediv1Source);
#endif /* RCC_CFGR2_PREDIV1SRC */

          /* Set PREDIV1 Value */
          __HAL_RCC_HSE_PREDIV_CONFIG(RCC_OscInitStruct->HSEPredivValue);
 8001746:	4b30      	ldr	r3, [pc, #192]	; (8001808 <HAL_RCC_OscConfig+0x4f4>)
 8001748:	685b      	ldr	r3, [r3, #4]
 800174a:	f423 3200 	bic.w	r2, r3, #131072	; 0x20000
 800174e:	687b      	ldr	r3, [r7, #4]
 8001750:	689b      	ldr	r3, [r3, #8]
 8001752:	492d      	ldr	r1, [pc, #180]	; (8001808 <HAL_RCC_OscConfig+0x4f4>)
 8001754:	4313      	orrs	r3, r2
 8001756:	604b      	str	r3, [r1, #4]
        }

        /* Configure the main PLL clock source and multiplication factors. */
        __HAL_RCC_PLL_CONFIG(RCC_OscInitStruct->PLL.PLLSource,
 8001758:	4b2b      	ldr	r3, [pc, #172]	; (8001808 <HAL_RCC_OscConfig+0x4f4>)
 800175a:	685b      	ldr	r3, [r3, #4]
 800175c:	f423 1274 	bic.w	r2, r3, #3997696	; 0x3d0000
 8001760:	687b      	ldr	r3, [r7, #4]
 8001762:	6a19      	ldr	r1, [r3, #32]
 8001764:	687b      	ldr	r3, [r7, #4]
 8001766:	6a5b      	ldr	r3, [r3, #36]	; 0x24
 8001768:	430b      	orrs	r3, r1
 800176a:	4927      	ldr	r1, [pc, #156]	; (8001808 <HAL_RCC_OscConfig+0x4f4>)
 800176c:	4313      	orrs	r3, r2
 800176e:	604b      	str	r3, [r1, #4]
                             RCC_OscInitStruct->PLL.PLLMUL);
        /* Enable the main PLL. */
        __HAL_RCC_PLL_ENABLE();
 8001770:	4b27      	ldr	r3, [pc, #156]	; (8001810 <HAL_RCC_OscConfig+0x4fc>)
 8001772:	2201      	movs	r2, #1
 8001774:	601a      	str	r2, [r3, #0]

        /* Get Start Tick */
        tickstart = HAL_GetTick();
 8001776:	f7fe ff0b 	bl	8000590 <HAL_GetTick>
 800177a:	6138      	str	r0, [r7, #16]

        /* Wait till PLL is ready */
        while (__HAL_RCC_GET_FLAG(RCC_FLAG_PLLRDY)  == RESET)
 800177c:	e008      	b.n	8001790 <HAL_RCC_OscConfig+0x47c>
        {
          if ((HAL_GetTick() - tickstart) > PLL_TIMEOUT_VALUE)
 800177e:	f7fe ff07 	bl	8000590 <HAL_GetTick>
 8001782:	4602      	mov	r2, r0
 8001784:	693b      	ldr	r3, [r7, #16]
 8001786:	1ad3      	subs	r3, r2, r3
 8001788:	2b02      	cmp	r3, #2
 800178a:	d901      	bls.n	8001790 <HAL_RCC_OscConfig+0x47c>
          {
            return HAL_TIMEOUT;
 800178c:	2303      	movs	r3, #3
 800178e:	e037      	b.n	8001800 <HAL_RCC_OscConfig+0x4ec>
        while (__HAL_RCC_GET_FLAG(RCC_FLAG_PLLRDY)  == RESET)
 8001790:	4b1d      	ldr	r3, [pc, #116]	; (8001808 <HAL_RCC_OscConfig+0x4f4>)
 8001792:	681b      	ldr	r3, [r3, #0]
 8001794:	f003 7300 	and.w	r3, r3, #33554432	; 0x2000000
 8001798:	2b00      	cmp	r3, #0
 800179a:	d0f0      	beq.n	800177e <HAL_RCC_OscConfig+0x46a>
 800179c:	e02f      	b.n	80017fe <HAL_RCC_OscConfig+0x4ea>
        }
      }
      else
      {
        /* Disable the main PLL. */
        __HAL_RCC_PLL_DISABLE();
 800179e:	4b1c      	ldr	r3, [pc, #112]	; (8001810 <HAL_RCC_OscConfig+0x4fc>)
 80017a0:	2200      	movs	r2, #0
 80017a2:	601a      	str	r2, [r3, #0]

        /* Get Start Tick */
        tickstart = HAL_GetTick();
 80017a4:	f7fe fef4 	bl	8000590 <HAL_GetTick>
 80017a8:	6138      	str	r0, [r7, #16]

        /* Wait till PLL is disabled */
        while (__HAL_RCC_GET_FLAG(RCC_FLAG_PLLRDY)  != RESET)
 80017aa:	e008      	b.n	80017be <HAL_RCC_OscConfig+0x4aa>
        {
          if ((HAL_GetTick() - tickstart) > PLL_TIMEOUT_VALUE)
 80017ac:	f7fe fef0 	bl	8000590 <HAL_GetTick>
 80017b0:	4602      	mov	r2, r0
 80017b2:	693b      	ldr	r3, [r7, #16]
 80017b4:	1ad3      	subs	r3, r2, r3
 80017b6:	2b02      	cmp	r3, #2
 80017b8:	d901      	bls.n	80017be <HAL_RCC_OscConfig+0x4aa>
          {
            return HAL_TIMEOUT;
 80017ba:	2303      	movs	r3, #3
 80017bc:	e020      	b.n	8001800 <HAL_RCC_OscConfig+0x4ec>
        while (__HAL_RCC_GET_FLAG(RCC_FLAG_PLLRDY)  != RESET)
 80017be:	4b12      	ldr	r3, [pc, #72]	; (8001808 <HAL_RCC_OscConfig+0x4f4>)
 80017c0:	681b      	ldr	r3, [r3, #0]
 80017c2:	f003 7300 	and.w	r3, r3, #33554432	; 0x2000000
 80017c6:	2b00      	cmp	r3, #0
 80017c8:	d1f0      	bne.n	80017ac <HAL_RCC_OscConfig+0x498>
 80017ca:	e018      	b.n	80017fe <HAL_RCC_OscConfig+0x4ea>
      }
    }
    else
    {
      /* Check if there is a request to disable the PLL used as System clock source */
      if ((RCC_OscInitStruct->PLL.PLLState) == RCC_PLL_OFF)
 80017cc:	687b      	ldr	r3, [r7, #4]
 80017ce:	69db      	ldr	r3, [r3, #28]
 80017d0:	2b01      	cmp	r3, #1
 80017d2:	d101      	bne.n	80017d8 <HAL_RCC_OscConfig+0x4c4>
      {
        return HAL_ERROR;
 80017d4:	2301      	movs	r3, #1
 80017d6:	e013      	b.n	8001800 <HAL_RCC_OscConfig+0x4ec>
      }
      else
      {
        /* Do not return HAL_ERROR if request repeats the current configuration */
        pll_config = RCC->CFGR;
 80017d8:	4b0b      	ldr	r3, [pc, #44]	; (8001808 <HAL_RCC_OscConfig+0x4f4>)
 80017da:	685b      	ldr	r3, [r3, #4]
 80017dc:	60fb      	str	r3, [r7, #12]
        if ((READ_BIT(pll_config, RCC_CFGR_PLLSRC) != RCC_OscInitStruct->PLL.PLLSource) ||
 80017de:	68fb      	ldr	r3, [r7, #12]
 80017e0:	f403 3280 	and.w	r2, r3, #65536	; 0x10000
 80017e4:	687b      	ldr	r3, [r7, #4]
 80017e6:	6a1b      	ldr	r3, [r3, #32]
 80017e8:	429a      	cmp	r2, r3
 80017ea:	d106      	bne.n	80017fa <HAL_RCC_OscConfig+0x4e6>
            (READ_BIT(pll_config, RCC_CFGR_PLLMULL) != RCC_OscInitStruct->PLL.PLLMUL))
 80017ec:	68fb      	ldr	r3, [r7, #12]
 80017ee:	f403 1270 	and.w	r2, r3, #3932160	; 0x3c0000
 80017f2:	687b      	ldr	r3, [r7, #4]
 80017f4:	6a5b      	ldr	r3, [r3, #36]	; 0x24
        if ((READ_BIT(pll_config, RCC_CFGR_PLLSRC) != RCC_OscInitStruct->PLL.PLLSource) ||
 80017f6:	429a      	cmp	r2, r3
 80017f8:	d001      	beq.n	80017fe <HAL_RCC_OscConfig+0x4ea>
        {
          return HAL_ERROR;
 80017fa:	2301      	movs	r3, #1
 80017fc:	e000      	b.n	8001800 <HAL_RCC_OscConfig+0x4ec>
        }
      }
    }
  }

  return HAL_OK;
 80017fe:	2300      	movs	r3, #0
}
 8001800:	4618      	mov	r0, r3
 8001802:	3718      	adds	r7, #24
 8001804:	46bd      	mov	sp, r7
 8001806:	bd80      	pop	{r7, pc}
 8001808:	40021000 	.word	0x40021000
 800180c:	40007000 	.word	0x40007000
 8001810:	42420060 	.word	0x42420060

08001814 <HAL_RCC_ClockConfig>:
  *         You can use @ref HAL_RCC_GetClockConfig() function to know which clock is
  *         currently used as system clock source.
  * @retval HAL status
  */
HAL_StatusTypeDef HAL_RCC_ClockConfig(RCC_ClkInitTypeDef  *RCC_ClkInitStruct, uint32_t FLatency)
{
 8001814:	b580      	push	{r7, lr}
 8001816:	b084      	sub	sp, #16
 8001818:	af00      	add	r7, sp, #0
 800181a:	6078      	str	r0, [r7, #4]
 800181c:	6039      	str	r1, [r7, #0]
  uint32_t tickstart;

  /* Check Null pointer */
  if (RCC_ClkInitStruct == NULL)
 800181e:	687b      	ldr	r3, [r7, #4]
 8001820:	2b00      	cmp	r3, #0
 8001822:	d101      	bne.n	8001828 <HAL_RCC_ClockConfig+0x14>
  {
    return HAL_ERROR;
 8001824:	2301      	movs	r3, #1
 8001826:	e0d0      	b.n	80019ca <HAL_RCC_ClockConfig+0x1b6>
  must be correctly programmed according to the frequency of the CPU clock
    (HCLK) of the device. */

#if defined(FLASH_ACR_LATENCY)
  /* Increasing the number of wait states because of higher CPU frequency */
  if (FLatency > __HAL_FLASH_GET_LATENCY())
 8001828:	4b6a      	ldr	r3, [pc, #424]	; (80019d4 <HAL_RCC_ClockConfig+0x1c0>)
 800182a:	681b      	ldr	r3, [r3, #0]
 800182c:	f003 0307 	and.w	r3, r3, #7
 8001830:	683a      	ldr	r2, [r7, #0]
 8001832:	429a      	cmp	r2, r3
 8001834:	d910      	bls.n	8001858 <HAL_RCC_ClockConfig+0x44>
  {
    /* Program the new number of wait states to the LATENCY bits in the FLASH_ACR register */
    __HAL_FLASH_SET_LATENCY(FLatency);
 8001836:	4b67      	ldr	r3, [pc, #412]	; (80019d4 <HAL_RCC_ClockConfig+0x1c0>)
 8001838:	681b      	ldr	r3, [r3, #0]
 800183a:	f023 0207 	bic.w	r2, r3, #7
 800183e:	4965      	ldr	r1, [pc, #404]	; (80019d4 <HAL_RCC_ClockConfig+0x1c0>)
 8001840:	683b      	ldr	r3, [r7, #0]
 8001842:	4313      	orrs	r3, r2
 8001844:	600b      	str	r3, [r1, #0]

    /* Check that the new number of wait states is taken into account to access the Flash
    memory by reading the FLASH_ACR register */
    if (__HAL_FLASH_GET_LATENCY() != FLatency)
 8001846:	4b63      	ldr	r3, [pc, #396]	; (80019d4 <HAL_RCC_ClockConfig+0x1c0>)
 8001848:	681b      	ldr	r3, [r3, #0]
 800184a:	f003 0307 	and.w	r3, r3, #7
 800184e:	683a      	ldr	r2, [r7, #0]
 8001850:	429a      	cmp	r2, r3
 8001852:	d001      	beq.n	8001858 <HAL_RCC_ClockConfig+0x44>
  {
    return HAL_ERROR;
 8001854:	2301      	movs	r3, #1
 8001856:	e0b8      	b.n	80019ca <HAL_RCC_ClockConfig+0x1b6>
  }
}

#endif /* FLASH_ACR_LATENCY */
/*-------------------------- HCLK Configuration --------------------------*/
if (((RCC_ClkInitStruct->ClockType) & RCC_CLOCKTYPE_HCLK) == RCC_CLOCKTYPE_HCLK)
 8001858:	687b      	ldr	r3, [r7, #4]
 800185a:	681b      	ldr	r3, [r3, #0]
 800185c:	f003 0302 	and.w	r3, r3, #2
 8001860:	2b00      	cmp	r3, #0
 8001862:	d020      	beq.n	80018a6 <HAL_RCC_ClockConfig+0x92>
  {
    /* Set the highest APBx dividers in order to ensure that we do not go through
    a non-spec phase whatever we decrease or increase HCLK. */
    if (((RCC_ClkInitStruct->ClockType) & RCC_CLOCKTYPE_PCLK1) == RCC_CLOCKTYPE_PCLK1)
 8001864:	687b      	ldr	r3, [r7, #4]
 8001866:	681b      	ldr	r3, [r3, #0]
 8001868:	f003 0304 	and.w	r3, r3, #4
 800186c:	2b00      	cmp	r3, #0
 800186e:	d005      	beq.n	800187c <HAL_RCC_ClockConfig+0x68>
    {
      MODIFY_REG(RCC->CFGR, RCC_CFGR_PPRE1, RCC_HCLK_DIV16);
 8001870:	4b59      	ldr	r3, [pc, #356]	; (80019d8 <HAL_RCC_ClockConfig+0x1c4>)
 8001872:	685b      	ldr	r3, [r3, #4]
 8001874:	4a58      	ldr	r2, [pc, #352]	; (80019d8 <HAL_RCC_ClockConfig+0x1c4>)
 8001876:	f443 63e0 	orr.w	r3, r3, #1792	; 0x700
 800187a:	6053      	str	r3, [r2, #4]
    }

    if (((RCC_ClkInitStruct->ClockType) & RCC_CLOCKTYPE_PCLK2) == RCC_CLOCKTYPE_PCLK2)
 800187c:	687b      	ldr	r3, [r7, #4]
 800187e:	681b      	ldr	r3, [r3, #0]
 8001880:	f003 0308 	and.w	r3, r3, #8
 8001884:	2b00      	cmp	r3, #0
 8001886:	d005      	beq.n	8001894 <HAL_RCC_ClockConfig+0x80>
    {
      MODIFY_REG(RCC->CFGR, RCC_CFGR_PPRE2, (RCC_HCLK_DIV16 << 3));
 8001888:	4b53      	ldr	r3, [pc, #332]	; (80019d8 <HAL_RCC_ClockConfig+0x1c4>)
 800188a:	685b      	ldr	r3, [r3, #4]
 800188c:	4a52      	ldr	r2, [pc, #328]	; (80019d8 <HAL_RCC_ClockConfig+0x1c4>)
 800188e:	f443 5360 	orr.w	r3, r3, #14336	; 0x3800
 8001892:	6053      	str	r3, [r2, #4]
    }

    /* Set the new HCLK clock divider */
    assert_param(IS_RCC_HCLK(RCC_ClkInitStruct->AHBCLKDivider));
    MODIFY_REG(RCC->CFGR, RCC_CFGR_HPRE, RCC_ClkInitStruct->AHBCLKDivider);
 8001894:	4b50      	ldr	r3, [pc, #320]	; (80019d8 <HAL_RCC_ClockConfig+0x1c4>)
 8001896:	685b      	ldr	r3, [r3, #4]
 8001898:	f023 02f0 	bic.w	r2, r3, #240	; 0xf0
 800189c:	687b      	ldr	r3, [r7, #4]
 800189e:	689b      	ldr	r3, [r3, #8]
 80018a0:	494d      	ldr	r1, [pc, #308]	; (80019d8 <HAL_RCC_ClockConfig+0x1c4>)
 80018a2:	4313      	orrs	r3, r2
 80018a4:	604b      	str	r3, [r1, #4]
  }

  /*------------------------- SYSCLK Configuration ---------------------------*/
  if (((RCC_ClkInitStruct->ClockType) & RCC_CLOCKTYPE_SYSCLK) == RCC_CLOCKTYPE_SYSCLK)
 80018a6:	687b      	ldr	r3, [r7, #4]
 80018a8:	681b      	ldr	r3, [r3, #0]
 80018aa:	f003 0301 	and.w	r3, r3, #1
 80018ae:	2b00      	cmp	r3, #0
 80018b0:	d040      	beq.n	8001934 <HAL_RCC_ClockConfig+0x120>
  {
    assert_param(IS_RCC_SYSCLKSOURCE(RCC_ClkInitStruct->SYSCLKSource));

    /* HSE is selected as System Clock Source */
    if (RCC_ClkInitStruct->SYSCLKSource == RCC_SYSCLKSOURCE_HSE)
 80018b2:	687b      	ldr	r3, [r7, #4]
 80018b4:	685b      	ldr	r3, [r3, #4]
 80018b6:	2b01      	cmp	r3, #1
 80018b8:	d107      	bne.n	80018ca <HAL_RCC_ClockConfig+0xb6>
    {
      /* Check the HSE ready flag */
      if (__HAL_RCC_GET_FLAG(RCC_FLAG_HSERDY) == RESET)
 80018ba:	4b47      	ldr	r3, [pc, #284]	; (80019d8 <HAL_RCC_ClockConfig+0x1c4>)
 80018bc:	681b      	ldr	r3, [r3, #0]
 80018be:	f403 3300 	and.w	r3, r3, #131072	; 0x20000
 80018c2:	2b00      	cmp	r3, #0
 80018c4:	d115      	bne.n	80018f2 <HAL_RCC_ClockConfig+0xde>
      {
        return HAL_ERROR;
 80018c6:	2301      	movs	r3, #1
 80018c8:	e07f      	b.n	80019ca <HAL_RCC_ClockConfig+0x1b6>
      }
    }
    /* PLL is selected as System Clock Source */
    else if (RCC_ClkInitStruct->SYSCLKSource == RCC_SYSCLKSOURCE_PLLCLK)
 80018ca:	687b      	ldr	r3, [r7, #4]
 80018cc:	685b      	ldr	r3, [r3, #4]
 80018ce:	2b02      	cmp	r3, #2
 80018d0:	d107      	bne.n	80018e2 <HAL_RCC_ClockConfig+0xce>
    {
      /* Check the PLL ready flag */
      if (__HAL_RCC_GET_FLAG(RCC_FLAG_PLLRDY) == RESET)
 80018d2:	4b41      	ldr	r3, [pc, #260]	; (80019d8 <HAL_RCC_ClockConfig+0x1c4>)
 80018d4:	681b      	ldr	r3, [r3, #0]
 80018d6:	f003 7300 	and.w	r3, r3, #33554432	; 0x2000000
 80018da:	2b00      	cmp	r3, #0
 80018dc:	d109      	bne.n	80018f2 <HAL_RCC_ClockConfig+0xde>
      {
        return HAL_ERROR;
 80018de:	2301      	movs	r3, #1
 80018e0:	e073      	b.n	80019ca <HAL_RCC_ClockConfig+0x1b6>
    }
    /* HSI is selected as System Clock Source */
    else
    {
      /* Check the HSI ready flag */
      if (__HAL_RCC_GET_FLAG(RCC_FLAG_HSIRDY) == RESET)
 80018e2:	4b3d      	ldr	r3, [pc, #244]	; (80019d8 <HAL_RCC_ClockConfig+0x1c4>)
 80018e4:	681b      	ldr	r3, [r3, #0]
 80018e6:	f003 0302 	and.w	r3, r3, #2
 80018ea:	2b00      	cmp	r3, #0
 80018ec:	d101      	bne.n	80018f2 <HAL_RCC_ClockConfig+0xde>
      {
        return HAL_ERROR;
 80018ee:	2301      	movs	r3, #1
 80018f0:	e06b      	b.n	80019ca <HAL_RCC_ClockConfig+0x1b6>
      }
    }
    __HAL_RCC_SYSCLK_CONFIG(RCC_ClkInitStruct->SYSCLKSource);
 80018f2:	4b39      	ldr	r3, [pc, #228]	; (80019d8 <HAL_RCC_ClockConfig+0x1c4>)
 80018f4:	685b      	ldr	r3, [r3, #4]
 80018f6:	f023 0203 	bic.w	r2, r3, #3
 80018fa:	687b      	ldr	r3, [r7, #4]
 80018fc:	685b      	ldr	r3, [r3, #4]
 80018fe:	4936      	ldr	r1, [pc, #216]	; (80019d8 <HAL_RCC_ClockConfig+0x1c4>)
 8001900:	4313      	orrs	r3, r2
 8001902:	604b      	str	r3, [r1, #4]

    /* Get Start Tick */
    tickstart = HAL_GetTick();
 8001904:	f7fe fe44 	bl	8000590 <HAL_GetTick>
 8001908:	60f8      	str	r0, [r7, #12]

    while (__HAL_RCC_GET_SYSCLK_SOURCE() != (RCC_ClkInitStruct->SYSCLKSource << RCC_CFGR_SWS_Pos))
 800190a:	e00a      	b.n	8001922 <HAL_RCC_ClockConfig+0x10e>
    {
      if ((HAL_GetTick() - tickstart) > CLOCKSWITCH_TIMEOUT_VALUE)
 800190c:	f7fe fe40 	bl	8000590 <HAL_GetTick>
 8001910:	4602      	mov	r2, r0
 8001912:	68fb      	ldr	r3, [r7, #12]
 8001914:	1ad3      	subs	r3, r2, r3
 8001916:	f241 3288 	movw	r2, #5000	; 0x1388
 800191a:	4293      	cmp	r3, r2
 800191c:	d901      	bls.n	8001922 <HAL_RCC_ClockConfig+0x10e>
      {
        return HAL_TIMEOUT;
 800191e:	2303      	movs	r3, #3
 8001920:	e053      	b.n	80019ca <HAL_RCC_ClockConfig+0x1b6>
    while (__HAL_RCC_GET_SYSCLK_SOURCE() != (RCC_ClkInitStruct->SYSCLKSource << RCC_CFGR_SWS_Pos))
 8001922:	4b2d      	ldr	r3, [pc, #180]	; (80019d8 <HAL_RCC_ClockConfig+0x1c4>)
 8001924:	685b      	ldr	r3, [r3, #4]
 8001926:	f003 020c 	and.w	r2, r3, #12
 800192a:	687b      	ldr	r3, [r7, #4]
 800192c:	685b      	ldr	r3, [r3, #4]
 800192e:	009b      	lsls	r3, r3, #2
 8001930:	429a      	cmp	r2, r3
 8001932:	d1eb      	bne.n	800190c <HAL_RCC_ClockConfig+0xf8>
    }
  }

#if defined(FLASH_ACR_LATENCY)
  /* Decreasing the number of wait states because of lower CPU frequency */
  if (FLatency < __HAL_FLASH_GET_LATENCY())
 8001934:	4b27      	ldr	r3, [pc, #156]	; (80019d4 <HAL_RCC_ClockConfig+0x1c0>)
 8001936:	681b      	ldr	r3, [r3, #0]
 8001938:	f003 0307 	and.w	r3, r3, #7
 800193c:	683a      	ldr	r2, [r7, #0]
 800193e:	429a      	cmp	r2, r3
 8001940:	d210      	bcs.n	8001964 <HAL_RCC_ClockConfig+0x150>
  {
    /* Program the new number of wait states to the LATENCY bits in the FLASH_ACR register */
    __HAL_FLASH_SET_LATENCY(FLatency);
 8001942:	4b24      	ldr	r3, [pc, #144]	; (80019d4 <HAL_RCC_ClockConfig+0x1c0>)
 8001944:	681b      	ldr	r3, [r3, #0]
 8001946:	f023 0207 	bic.w	r2, r3, #7
 800194a:	4922      	ldr	r1, [pc, #136]	; (80019d4 <HAL_RCC_ClockConfig+0x1c0>)
 800194c:	683b      	ldr	r3, [r7, #0]
 800194e:	4313      	orrs	r3, r2
 8001950:	600b      	str	r3, [r1, #0]

    /* Check that the new number of wait states is taken into account to access the Flash
    memory by reading the FLASH_ACR register */
    if (__HAL_FLASH_GET_LATENCY() != FLatency)
 8001952:	4b20      	ldr	r3, [pc, #128]	; (80019d4 <HAL_RCC_ClockConfig+0x1c0>)
 8001954:	681b      	ldr	r3, [r3, #0]
 8001956:	f003 0307 	and.w	r3, r3, #7
 800195a:	683a      	ldr	r2, [r7, #0]
 800195c:	429a      	cmp	r2, r3
 800195e:	d001      	beq.n	8001964 <HAL_RCC_ClockConfig+0x150>
  {
    return HAL_ERROR;
 8001960:	2301      	movs	r3, #1
 8001962:	e032      	b.n	80019ca <HAL_RCC_ClockConfig+0x1b6>
  }
}
#endif /* FLASH_ACR_LATENCY */

/*-------------------------- PCLK1 Configuration ---------------------------*/
if (((RCC_ClkInitStruct->ClockType) & RCC_CLOCKTYPE_PCLK1) == RCC_CLOCKTYPE_PCLK1)
 8001964:	687b      	ldr	r3, [r7, #4]
 8001966:	681b      	ldr	r3, [r3, #0]
 8001968:	f003 0304 	and.w	r3, r3, #4
 800196c:	2b00      	cmp	r3, #0
 800196e:	d008      	beq.n	8001982 <HAL_RCC_ClockConfig+0x16e>
  {
    assert_param(IS_RCC_PCLK(RCC_ClkInitStruct->APB1CLKDivider));
    MODIFY_REG(RCC->CFGR, RCC_CFGR_PPRE1, RCC_ClkInitStruct->APB1CLKDivider);
 8001970:	4b19      	ldr	r3, [pc, #100]	; (80019d8 <HAL_RCC_ClockConfig+0x1c4>)
 8001972:	685b      	ldr	r3, [r3, #4]
 8001974:	f423 62e0 	bic.w	r2, r3, #1792	; 0x700
 8001978:	687b      	ldr	r3, [r7, #4]
 800197a:	68db      	ldr	r3, [r3, #12]
 800197c:	4916      	ldr	r1, [pc, #88]	; (80019d8 <HAL_RCC_ClockConfig+0x1c4>)
 800197e:	4313      	orrs	r3, r2
 8001980:	604b      	str	r3, [r1, #4]
  }

  /*-------------------------- PCLK2 Configuration ---------------------------*/
  if (((RCC_ClkInitStruct->ClockType) & RCC_CLOCKTYPE_PCLK2) == RCC_CLOCKTYPE_PCLK2)
 8001982:	687b      	ldr	r3, [r7, #4]
 8001984:	681b      	ldr	r3, [r3, #0]
 8001986:	f003 0308 	and.w	r3, r3, #8
 800198a:	2b00      	cmp	r3, #0
 800198c:	d009      	beq.n	80019a2 <HAL_RCC_ClockConfig+0x18e>
  {
    assert_param(IS_RCC_PCLK(RCC_ClkInitStruct->APB2CLKDivider));
    MODIFY_REG(RCC->CFGR, RCC_CFGR_PPRE2, ((RCC_ClkInitStruct->APB2CLKDivider) << 3));
 800198e:	4b12      	ldr	r3, [pc, #72]	; (80019d8 <HAL_RCC_ClockConfig+0x1c4>)
 8001990:	685b      	ldr	r3, [r3, #4]
 8001992:	f423 5260 	bic.w	r2, r3, #14336	; 0x3800
 8001996:	687b      	ldr	r3, [r7, #4]
 8001998:	691b      	ldr	r3, [r3, #16]
 800199a:	00db      	lsls	r3, r3, #3
 800199c:	490e      	ldr	r1, [pc, #56]	; (80019d8 <HAL_RCC_ClockConfig+0x1c4>)
 800199e:	4313      	orrs	r3, r2
 80019a0:	604b      	str	r3, [r1, #4]
  }

  /* Update the SystemCoreClock global variable */
  SystemCoreClock = HAL_RCC_GetSysClockFreq() >> AHBPrescTable[(RCC->CFGR & RCC_CFGR_HPRE) >> RCC_CFGR_HPRE_Pos];
 80019a2:	f000 f821 	bl	80019e8 <HAL_RCC_GetSysClockFreq>
 80019a6:	4601      	mov	r1, r0
 80019a8:	4b0b      	ldr	r3, [pc, #44]	; (80019d8 <HAL_RCC_ClockConfig+0x1c4>)
 80019aa:	685b      	ldr	r3, [r3, #4]
 80019ac:	091b      	lsrs	r3, r3, #4
 80019ae:	f003 030f 	and.w	r3, r3, #15
 80019b2:	4a0a      	ldr	r2, [pc, #40]	; (80019dc <HAL_RCC_ClockConfig+0x1c8>)
 80019b4:	5cd3      	ldrb	r3, [r2, r3]
 80019b6:	fa21 f303 	lsr.w	r3, r1, r3
 80019ba:	4a09      	ldr	r2, [pc, #36]	; (80019e0 <HAL_RCC_ClockConfig+0x1cc>)
 80019bc:	6013      	str	r3, [r2, #0]

  /* Configure the source of time base considering new system clocks settings*/
  HAL_InitTick(uwTickPrio);
 80019be:	4b09      	ldr	r3, [pc, #36]	; (80019e4 <HAL_RCC_ClockConfig+0x1d0>)
 80019c0:	681b      	ldr	r3, [r3, #0]
 80019c2:	4618      	mov	r0, r3
 80019c4:	f7fe fda2 	bl	800050c <HAL_InitTick>

  return HAL_OK;
 80019c8:	2300      	movs	r3, #0
}
 80019ca:	4618      	mov	r0, r3
 80019cc:	3710      	adds	r7, #16
 80019ce:	46bd      	mov	sp, r7
 80019d0:	bd80      	pop	{r7, pc}
 80019d2:	bf00      	nop
 80019d4:	40022000 	.word	0x40022000
 80019d8:	40021000 	.word	0x40021000
 80019dc:	08001ba8 	.word	0x08001ba8
 80019e0:	20000000 	.word	0x20000000
 80019e4:	20000004 	.word	0x20000004

080019e8 <HAL_RCC_GetSysClockFreq>:
  *         right SYSCLK value. Otherwise, any configuration based on this function will be incorrect.
  *
  * @retval SYSCLK frequency
  */
uint32_t HAL_RCC_GetSysClockFreq(void)
{
 80019e8:	b490      	push	{r4, r7}
 80019ea:	b08a      	sub	sp, #40	; 0x28
 80019ec:	af00      	add	r7, sp, #0
#if defined(RCC_CFGR2_PREDIV1SRC)
  const uint8_t aPLLMULFactorTable[14] = {0, 0, 4, 5, 6, 7, 8, 9, 0, 0, 0, 0, 0, 13};
  const uint8_t aPredivFactorTable[16] = {1, 2, 3, 4, 5, 6, 7, 8, 9, 10, 11, 12, 13, 14, 15, 16};
#else
  const uint8_t aPLLMULFactorTable[16] = {2, 3, 4, 5, 6, 7, 8, 9, 10, 11, 12, 13, 14, 15, 16, 16};
 80019ee:	4b2a      	ldr	r3, [pc, #168]	; (8001a98 <HAL_RCC_GetSysClockFreq+0xb0>)
 80019f0:	1d3c      	adds	r4, r7, #4
 80019f2:	cb0f      	ldmia	r3, {r0, r1, r2, r3}
 80019f4:	e884 000f 	stmia.w	r4, {r0, r1, r2, r3}
#if defined(RCC_CFGR2_PREDIV1)
  const uint8_t aPredivFactorTable[16] = {1, 2, 3, 4, 5, 6, 7, 8, 9, 10, 11, 12, 13, 14, 15, 16};
#else
  const uint8_t aPredivFactorTable[2] = {1, 2};
 80019f8:	4b28      	ldr	r3, [pc, #160]	; (8001a9c <HAL_RCC_GetSysClockFreq+0xb4>)
 80019fa:	881b      	ldrh	r3, [r3, #0]
 80019fc:	803b      	strh	r3, [r7, #0]
#endif /*RCC_CFGR2_PREDIV1*/

#endif
  uint32_t tmpreg = 0U, prediv = 0U, pllclk = 0U, pllmul = 0U;
 80019fe:	2300      	movs	r3, #0
 8001a00:	61fb      	str	r3, [r7, #28]
 8001a02:	2300      	movs	r3, #0
 8001a04:	61bb      	str	r3, [r7, #24]
 8001a06:	2300      	movs	r3, #0
 8001a08:	627b      	str	r3, [r7, #36]	; 0x24
 8001a0a:	2300      	movs	r3, #0
 8001a0c:	617b      	str	r3, [r7, #20]
  uint32_t sysclockfreq = 0U;
 8001a0e:	2300      	movs	r3, #0
 8001a10:	623b      	str	r3, [r7, #32]
#if defined(RCC_CFGR2_PREDIV1SRC)
  uint32_t prediv2 = 0U, pll2mul = 0U;
#endif /*RCC_CFGR2_PREDIV1SRC*/

  tmpreg = RCC->CFGR;
 8001a12:	4b23      	ldr	r3, [pc, #140]	; (8001aa0 <HAL_RCC_GetSysClockFreq+0xb8>)
 8001a14:	685b      	ldr	r3, [r3, #4]
 8001a16:	61fb      	str	r3, [r7, #28]

  /* Get SYSCLK source -------------------------------------------------------*/
  switch (tmpreg & RCC_CFGR_SWS)
 8001a18:	69fb      	ldr	r3, [r7, #28]
 8001a1a:	f003 030c 	and.w	r3, r3, #12
 8001a1e:	2b04      	cmp	r3, #4
 8001a20:	d002      	beq.n	8001a28 <HAL_RCC_GetSysClockFreq+0x40>
 8001a22:	2b08      	cmp	r3, #8
 8001a24:	d003      	beq.n	8001a2e <HAL_RCC_GetSysClockFreq+0x46>
 8001a26:	e02d      	b.n	8001a84 <HAL_RCC_GetSysClockFreq+0x9c>
  {
    case RCC_SYSCLKSOURCE_STATUS_HSE:  /* HSE used as system clock */
    {
      sysclockfreq = HSE_VALUE;
 8001a28:	4b1e      	ldr	r3, [pc, #120]	; (8001aa4 <HAL_RCC_GetSysClockFreq+0xbc>)
 8001a2a:	623b      	str	r3, [r7, #32]
      break;
 8001a2c:	e02d      	b.n	8001a8a <HAL_RCC_GetSysClockFreq+0xa2>
    }
    case RCC_SYSCLKSOURCE_STATUS_PLLCLK:  /* PLL used as system clock */
    {
      pllmul = aPLLMULFactorTable[(uint32_t)(tmpreg & RCC_CFGR_PLLMULL) >> RCC_CFGR_PLLMULL_Pos];
 8001a2e:	69fb      	ldr	r3, [r7, #28]
 8001a30:	0c9b      	lsrs	r3, r3, #18
 8001a32:	f003 030f 	and.w	r3, r3, #15
 8001a36:	f107 0228 	add.w	r2, r7, #40	; 0x28
 8001a3a:	4413      	add	r3, r2
 8001a3c:	f813 3c24 	ldrb.w	r3, [r3, #-36]
 8001a40:	617b      	str	r3, [r7, #20]
      if ((tmpreg & RCC_CFGR_PLLSRC) != RCC_PLLSOURCE_HSI_DIV2)
 8001a42:	69fb      	ldr	r3, [r7, #28]
 8001a44:	f403 3380 	and.w	r3, r3, #65536	; 0x10000
 8001a48:	2b00      	cmp	r3, #0
 8001a4a:	d013      	beq.n	8001a74 <HAL_RCC_GetSysClockFreq+0x8c>
      {
#if defined(RCC_CFGR2_PREDIV1)
        prediv = aPredivFactorTable[(uint32_t)(RCC->CFGR2 & RCC_CFGR2_PREDIV1) >> RCC_CFGR2_PREDIV1_Pos];
#else
        prediv = aPredivFactorTable[(uint32_t)(RCC->CFGR & RCC_CFGR_PLLXTPRE) >> RCC_CFGR_PLLXTPRE_Pos];
 8001a4c:	4b14      	ldr	r3, [pc, #80]	; (8001aa0 <HAL_RCC_GetSysClockFreq+0xb8>)
 8001a4e:	685b      	ldr	r3, [r3, #4]
 8001a50:	0c5b      	lsrs	r3, r3, #17
 8001a52:	f003 0301 	and.w	r3, r3, #1
 8001a56:	f107 0228 	add.w	r2, r7, #40	; 0x28
 8001a5a:	4413      	add	r3, r2
 8001a5c:	f813 3c28 	ldrb.w	r3, [r3, #-40]
 8001a60:	61bb      	str	r3, [r7, #24]
        {
          pllclk = pllclk / 2;
        }
#else
        /* HSE used as PLL clock source : PLLCLK = HSE/PREDIV1 * PLLMUL */
        pllclk = (uint32_t)((HSE_VALUE  * pllmul) / prediv);
 8001a62:	697b      	ldr	r3, [r7, #20]
 8001a64:	4a0f      	ldr	r2, [pc, #60]	; (8001aa4 <HAL_RCC_GetSysClockFreq+0xbc>)
 8001a66:	fb02 f203 	mul.w	r2, r2, r3
 8001a6a:	69bb      	ldr	r3, [r7, #24]
 8001a6c:	fbb2 f3f3 	udiv	r3, r2, r3
 8001a70:	627b      	str	r3, [r7, #36]	; 0x24
 8001a72:	e004      	b.n	8001a7e <HAL_RCC_GetSysClockFreq+0x96>
#endif /*RCC_CFGR2_PREDIV1SRC*/
      }
      else
      {
        /* HSI used as PLL clock source : PLLCLK = HSI/2 * PLLMUL */
        pllclk = (uint32_t)((HSI_VALUE >> 1) * pllmul);
 8001a74:	697b      	ldr	r3, [r7, #20]
 8001a76:	4a0c      	ldr	r2, [pc, #48]	; (8001aa8 <HAL_RCC_GetSysClockFreq+0xc0>)
 8001a78:	fb02 f303 	mul.w	r3, r2, r3
 8001a7c:	627b      	str	r3, [r7, #36]	; 0x24
      }
      sysclockfreq = pllclk;
 8001a7e:	6a7b      	ldr	r3, [r7, #36]	; 0x24
 8001a80:	623b      	str	r3, [r7, #32]
      break;
 8001a82:	e002      	b.n	8001a8a <HAL_RCC_GetSysClockFreq+0xa2>
    }
    case RCC_SYSCLKSOURCE_STATUS_HSI:  /* HSI used as system clock source */
    default: /* HSI used as system clock */
    {
      sysclockfreq = HSI_VALUE;
 8001a84:	4b07      	ldr	r3, [pc, #28]	; (8001aa4 <HAL_RCC_GetSysClockFreq+0xbc>)
 8001a86:	623b      	str	r3, [r7, #32]
      break;
 8001a88:	bf00      	nop
    }
  }
  return sysclockfreq;
 8001a8a:	6a3b      	ldr	r3, [r7, #32]
}
 8001a8c:	4618      	mov	r0, r3
 8001a8e:	3728      	adds	r7, #40	; 0x28
 8001a90:	46bd      	mov	sp, r7
 8001a92:	bc90      	pop	{r4, r7}
 8001a94:	4770      	bx	lr
 8001a96:	bf00      	nop
 8001a98:	08001b94 	.word	0x08001b94
 8001a9c:	08001ba4 	.word	0x08001ba4
 8001aa0:	40021000 	.word	0x40021000
 8001aa4:	007a1200 	.word	0x007a1200
 8001aa8:	003d0900 	.word	0x003d0900

08001aac <HAL_RCC_GetHCLKFreq>:
  * @note   The SystemCoreClock CMSIS variable is used to store System Clock Frequency
  *         and updated within this function
  * @retval HCLK frequency
  */
uint32_t HAL_RCC_GetHCLKFreq(void)
{
 8001aac:	b480      	push	{r7}
 8001aae:	af00      	add	r7, sp, #0
  return SystemCoreClock;
 8001ab0:	4b02      	ldr	r3, [pc, #8]	; (8001abc <HAL_RCC_GetHCLKFreq+0x10>)
 8001ab2:	681b      	ldr	r3, [r3, #0]
}
 8001ab4:	4618      	mov	r0, r3
 8001ab6:	46bd      	mov	sp, r7
 8001ab8:	bc80      	pop	{r7}
 8001aba:	4770      	bx	lr
 8001abc:	20000000 	.word	0x20000000

08001ac0 <HAL_RCC_GetPCLK1Freq>:
  * @note   Each time PCLK1 changes, this function must be called to update the
  *         right PCLK1 value. Otherwise, any configuration based on this function will be incorrect.
  * @retval PCLK1 frequency
  */
uint32_t HAL_RCC_GetPCLK1Freq(void)
{
 8001ac0:	b580      	push	{r7, lr}
 8001ac2:	af00      	add	r7, sp, #0
  /* Get HCLK source and Compute PCLK1 frequency ---------------------------*/
  return (HAL_RCC_GetHCLKFreq() >> APBPrescTable[(RCC->CFGR & RCC_CFGR_PPRE1) >> RCC_CFGR_PPRE1_Pos]);
 8001ac4:	f7ff fff2 	bl	8001aac <HAL_RCC_GetHCLKFreq>
 8001ac8:	4601      	mov	r1, r0
 8001aca:	4b05      	ldr	r3, [pc, #20]	; (8001ae0 <HAL_RCC_GetPCLK1Freq+0x20>)
 8001acc:	685b      	ldr	r3, [r3, #4]
 8001ace:	0a1b      	lsrs	r3, r3, #8
 8001ad0:	f003 0307 	and.w	r3, r3, #7
 8001ad4:	4a03      	ldr	r2, [pc, #12]	; (8001ae4 <HAL_RCC_GetPCLK1Freq+0x24>)
 8001ad6:	5cd3      	ldrb	r3, [r2, r3]
 8001ad8:	fa21 f303 	lsr.w	r3, r1, r3
}
 8001adc:	4618      	mov	r0, r3
 8001ade:	bd80      	pop	{r7, pc}
 8001ae0:	40021000 	.word	0x40021000
 8001ae4:	08001bb8 	.word	0x08001bb8

08001ae8 <RCC_Delay>:
  * @brief  This function provides delay (in milliseconds) based on CPU cycles method.
  * @param  mdelay: specifies the delay time length, in milliseconds.
  * @retval None
  */
static void RCC_Delay(uint32_t mdelay)
{
 8001ae8:	b480      	push	{r7}
 8001aea:	b085      	sub	sp, #20
 8001aec:	af00      	add	r7, sp, #0
 8001aee:	6078      	str	r0, [r7, #4]
  __IO uint32_t Delay = mdelay * (SystemCoreClock / 8U / 1000U);
 8001af0:	4b0a      	ldr	r3, [pc, #40]	; (8001b1c <RCC_Delay+0x34>)
 8001af2:	681b      	ldr	r3, [r3, #0]
 8001af4:	4a0a      	ldr	r2, [pc, #40]	; (8001b20 <RCC_Delay+0x38>)
 8001af6:	fba2 2303 	umull	r2, r3, r2, r3
 8001afa:	0a5b      	lsrs	r3, r3, #9
 8001afc:	687a      	ldr	r2, [r7, #4]
 8001afe:	fb02 f303 	mul.w	r3, r2, r3
 8001b02:	60fb      	str	r3, [r7, #12]
  do
  {
    __NOP();
 8001b04:	bf00      	nop
  }
  while (Delay --);
 8001b06:	68fb      	ldr	r3, [r7, #12]
 8001b08:	1e5a      	subs	r2, r3, #1
 8001b0a:	60fa      	str	r2, [r7, #12]
 8001b0c:	2b00      	cmp	r3, #0
 8001b0e:	d1f9      	bne.n	8001b04 <RCC_Delay+0x1c>
}
 8001b10:	bf00      	nop
 8001b12:	3714      	adds	r7, #20
 8001b14:	46bd      	mov	sp, r7
 8001b16:	bc80      	pop	{r7}
 8001b18:	4770      	bx	lr
 8001b1a:	bf00      	nop
 8001b1c:	20000000 	.word	0x20000000
 8001b20:	10624dd3 	.word	0x10624dd3

08001b24 <__libc_init_array>:
 8001b24:	b570      	push	{r4, r5, r6, lr}
 8001b26:	2500      	movs	r5, #0
 8001b28:	4e0c      	ldr	r6, [pc, #48]	; (8001b5c <__libc_init_array+0x38>)
 8001b2a:	4c0d      	ldr	r4, [pc, #52]	; (8001b60 <__libc_init_array+0x3c>)
 8001b2c:	1ba4      	subs	r4, r4, r6
 8001b2e:	10a4      	asrs	r4, r4, #2
 8001b30:	42a5      	cmp	r5, r4
 8001b32:	d109      	bne.n	8001b48 <__libc_init_array+0x24>
 8001b34:	f000 f822 	bl	8001b7c <_init>
 8001b38:	2500      	movs	r5, #0
 8001b3a:	4e0a      	ldr	r6, [pc, #40]	; (8001b64 <__libc_init_array+0x40>)
 8001b3c:	4c0a      	ldr	r4, [pc, #40]	; (8001b68 <__libc_init_array+0x44>)
 8001b3e:	1ba4      	subs	r4, r4, r6
 8001b40:	10a4      	asrs	r4, r4, #2
 8001b42:	42a5      	cmp	r5, r4
 8001b44:	d105      	bne.n	8001b52 <__libc_init_array+0x2e>
 8001b46:	bd70      	pop	{r4, r5, r6, pc}
 8001b48:	f856 3025 	ldr.w	r3, [r6, r5, lsl #2]
 8001b4c:	4798      	blx	r3
 8001b4e:	3501      	adds	r5, #1
 8001b50:	e7ee      	b.n	8001b30 <__libc_init_array+0xc>
 8001b52:	f856 3025 	ldr.w	r3, [r6, r5, lsl #2]
 8001b56:	4798      	blx	r3
 8001b58:	3501      	adds	r5, #1
 8001b5a:	e7f2      	b.n	8001b42 <__libc_init_array+0x1e>
 8001b5c:	08001bc0 	.word	0x08001bc0
 8001b60:	08001bc0 	.word	0x08001bc0
 8001b64:	08001bc0 	.word	0x08001bc0
 8001b68:	08001bc4 	.word	0x08001bc4

08001b6c <memset>:
 8001b6c:	4603      	mov	r3, r0
 8001b6e:	4402      	add	r2, r0
 8001b70:	4293      	cmp	r3, r2
 8001b72:	d100      	bne.n	8001b76 <memset+0xa>
 8001b74:	4770      	bx	lr
 8001b76:	f803 1b01 	strb.w	r1, [r3], #1
 8001b7a:	e7f9      	b.n	8001b70 <memset+0x4>

08001b7c <_init>:
 8001b7c:	b5f8      	push	{r3, r4, r5, r6, r7, lr}
 8001b7e:	bf00      	nop
 8001b80:	bcf8      	pop	{r3, r4, r5, r6, r7}
 8001b82:	bc08      	pop	{r3}
 8001b84:	469e      	mov	lr, r3
 8001b86:	4770      	bx	lr

08001b88 <_fini>:
 8001b88:	b5f8      	push	{r3, r4, r5, r6, r7, lr}
 8001b8a:	bf00      	nop
 8001b8c:	bcf8      	pop	{r3, r4, r5, r6, r7}
 8001b8e:	bc08      	pop	{r3}
 8001b90:	469e      	mov	lr, r3
 8001b92:	4770      	bx	lr
