
Front_ECU_BootLoader.elf:     file format elf32-littlearm

Sections:
Idx Name          Size      VMA       LMA       File off  Algn
  0 .isr_vector   0000010c  08000000  08000000  00010000  2**0
                  CONTENTS, ALLOC, LOAD, READONLY, DATA
  1 .text         00002a18  0800010c  0800010c  0001010c  2**2
                  CONTENTS, ALLOC, LOAD, READONLY, CODE
  2 .rodata       00000410  08002b24  08002b24  00012b24  2**2
                  CONTENTS, ALLOC, LOAD, READONLY, DATA
  3 .ARM.extab    00000000  08002f34  08002f34  00020014  2**0
                  CONTENTS
  4 .ARM          00000000  08002f34  08002f34  00020014  2**0
                  CONTENTS
  5 .preinit_array 00000000  08002f34  08002f34  00020014  2**0
                  CONTENTS, ALLOC, LOAD, DATA
  6 .init_array   00000004  08002f34  08002f34  00012f34  2**2
                  CONTENTS, ALLOC, LOAD, DATA
  7 .fini_array   00000004  08002f38  08002f38  00012f38  2**2
                  CONTENTS, ALLOC, LOAD, DATA
  8 .data         00000014  20000000  08002f3c  00020000  2**2
                  CONTENTS, ALLOC, LOAD, DATA
  9 .bss          00000158  20000018  08002f50  00020018  2**3
                  ALLOC
 10 ._user_heap_stack 00000600  20000170  08002f50  00020170  2**0
                  ALLOC
 11 .ARM.attributes 00000029  00000000  00000000  00020014  2**0
                  CONTENTS, READONLY
 12 .debug_info   000076e0  00000000  00000000  0002003d  2**0
                  CONTENTS, READONLY, DEBUGGING
 13 .debug_abbrev 00001898  00000000  00000000  0002771d  2**0
                  CONTENTS, READONLY, DEBUGGING
 14 .debug_aranges 00000848  00000000  00000000  00028fb8  2**3
                  CONTENTS, READONLY, DEBUGGING
 15 .debug_ranges 000007b0  00000000  00000000  00029800  2**3
                  CONTENTS, READONLY, DEBUGGING
 16 .debug_macro  00017308  00000000  00000000  00029fb0  2**0
                  CONTENTS, READONLY, DEBUGGING
 17 .debug_line   00006c91  00000000  00000000  000412b8  2**0
                  CONTENTS, READONLY, DEBUGGING
 18 .debug_str    00083073  00000000  00000000  00047f49  2**0
                  CONTENTS, READONLY, DEBUGGING
 19 .comment      0000007b  00000000  00000000  000cafbc  2**0
                  CONTENTS, READONLY
 20 .debug_frame  0000208c  00000000  00000000  000cb038  2**2
                  CONTENTS, READONLY, DEBUGGING

Disassembly of section .text:

0800010c <__do_global_dtors_aux>:
 800010c:	b510      	push	{r4, lr}
 800010e:	4c05      	ldr	r4, [pc, #20]	; (8000124 <__do_global_dtors_aux+0x18>)
 8000110:	7823      	ldrb	r3, [r4, #0]
 8000112:	b933      	cbnz	r3, 8000122 <__do_global_dtors_aux+0x16>
 8000114:	4b04      	ldr	r3, [pc, #16]	; (8000128 <__do_global_dtors_aux+0x1c>)
 8000116:	b113      	cbz	r3, 800011e <__do_global_dtors_aux+0x12>
 8000118:	4804      	ldr	r0, [pc, #16]	; (800012c <__do_global_dtors_aux+0x20>)
 800011a:	f3af 8000 	nop.w
 800011e:	2301      	movs	r3, #1
 8000120:	7023      	strb	r3, [r4, #0]
 8000122:	bd10      	pop	{r4, pc}
 8000124:	20000018 	.word	0x20000018
 8000128:	00000000 	.word	0x00000000
 800012c:	08002b0c 	.word	0x08002b0c

08000130 <frame_dummy>:
 8000130:	b508      	push	{r3, lr}
 8000132:	4b03      	ldr	r3, [pc, #12]	; (8000140 <frame_dummy+0x10>)
 8000134:	b11b      	cbz	r3, 800013e <frame_dummy+0xe>
 8000136:	4903      	ldr	r1, [pc, #12]	; (8000144 <frame_dummy+0x14>)
 8000138:	4803      	ldr	r0, [pc, #12]	; (8000148 <frame_dummy+0x18>)
 800013a:	f3af 8000 	nop.w
 800013e:	bd08      	pop	{r3, pc}
 8000140:	00000000 	.word	0x00000000
 8000144:	2000001c 	.word	0x2000001c
 8000148:	08002b0c 	.word	0x08002b0c

0800014c <main>:
/**
  * @brief  The application entry point.
  * @retval int
  */
int main(void)
{
 800014c:	b580      	push	{r7, lr}
 800014e:	af00      	add	r7, sp, #0
  /* USER CODE END 1 */

  /* MCU Configuration--------------------------------------------------------*/

  /* Reset of all peripherals, Initializes the Flash interface and the Systick. */
  HAL_Init();
 8000150:	f001 f81e 	bl	8001190 <HAL_Init>
  /* USER CODE BEGIN Init */

  /* USER CODE END Init */

  /* Configure the system clock */
  SystemClock_Config();
 8000154:	f000 f818 	bl	8000188 <SystemClock_Config>
  /* USER CODE BEGIN SysInit */

  /* USER CODE END SysInit */

  /* Initialize all configured peripherals */
  MX_GPIO_Init();
 8000158:	f000 f89a 	bl	8000290 <MX_GPIO_Init>
  MX_USART3_UART_Init();
 800015c:	f000 f86e 	bl	800023c <MX_USART3_UART_Init>
  MX_CRC_Init();
 8000160:	f000 f858 	bl	8000214 <MX_CRC_Init>

  /* USER CODE END 2 */

  /* Infinite loop */
  /* USER CODE BEGIN WHILE */
	if(HAL_GPIO_ReadPin(GPIOB, GPIO_PIN_12) == GPIO_PIN_RESET){
 8000164:	f44f 5180 	mov.w	r1, #4096	; 0x1000
 8000168:	4806      	ldr	r0, [pc, #24]	; (8000184 <main+0x38>)
 800016a:	f001 fd7b 	bl	8001c64 <HAL_GPIO_ReadPin>
 800016e:	4603      	mov	r3, r0
 8000170:	2b00      	cmp	r3, #0
 8000172:	d102      	bne.n	800017a <main+0x2e>
	//	printmsg("BL_DEBUG_MSG: Enter boot..\n\r");
		bootloader_uart_read_data();
 8000174:	f000 f8e4 	bl	8000340 <bootloader_uart_read_data>
 8000178:	e001      	b.n	800017e <main+0x32>
	}
	else
	{
		bootloader_jump_to_user_app();
 800017a:	f000 f955 	bl	8000428 <bootloader_jump_to_user_app>
 800017e:	2300      	movs	r3, #0
	}
    /* USER CODE END WHILE */

    /* USER CODE BEGIN 3 */
  /* USER CODE END 3 */
}
 8000180:	4618      	mov	r0, r3
 8000182:	bd80      	pop	{r7, pc}
 8000184:	40010c00 	.word	0x40010c00

08000188 <SystemClock_Config>:
/**
  * @brief System Clock Configuration
  * @retval None
  */
void SystemClock_Config(void)
{
 8000188:	b580      	push	{r7, lr}
 800018a:	b090      	sub	sp, #64	; 0x40
 800018c:	af00      	add	r7, sp, #0
  RCC_OscInitTypeDef RCC_OscInitStruct = {0};
 800018e:	f107 0318 	add.w	r3, r7, #24
 8000192:	2228      	movs	r2, #40	; 0x28
 8000194:	2100      	movs	r1, #0
 8000196:	4618      	mov	r0, r3
 8000198:	f002 fcb0 	bl	8002afc <memset>
  RCC_ClkInitTypeDef RCC_ClkInitStruct = {0};
 800019c:	1d3b      	adds	r3, r7, #4
 800019e:	2200      	movs	r2, #0
 80001a0:	601a      	str	r2, [r3, #0]
 80001a2:	605a      	str	r2, [r3, #4]
 80001a4:	609a      	str	r2, [r3, #8]
 80001a6:	60da      	str	r2, [r3, #12]
 80001a8:	611a      	str	r2, [r3, #16]

  /** Initializes the RCC Oscillators according to the specified parameters
  * in the RCC_OscInitTypeDef structure.
  */
  RCC_OscInitStruct.OscillatorType = RCC_OSCILLATORTYPE_HSE;
 80001aa:	2301      	movs	r3, #1
 80001ac:	61bb      	str	r3, [r7, #24]
  RCC_OscInitStruct.HSEState = RCC_HSE_ON;
 80001ae:	f44f 3380 	mov.w	r3, #65536	; 0x10000
 80001b2:	61fb      	str	r3, [r7, #28]
  RCC_OscInitStruct.HSEPredivValue = RCC_HSE_PREDIV_DIV1;
 80001b4:	2300      	movs	r3, #0
 80001b6:	623b      	str	r3, [r7, #32]
  RCC_OscInitStruct.HSIState = RCC_HSI_ON;
 80001b8:	2301      	movs	r3, #1
 80001ba:	62bb      	str	r3, [r7, #40]	; 0x28
  RCC_OscInitStruct.PLL.PLLState = RCC_PLL_ON;
 80001bc:	2302      	movs	r3, #2
 80001be:	637b      	str	r3, [r7, #52]	; 0x34
  RCC_OscInitStruct.PLL.PLLSource = RCC_PLLSOURCE_HSE;
 80001c0:	f44f 3380 	mov.w	r3, #65536	; 0x10000
 80001c4:	63bb      	str	r3, [r7, #56]	; 0x38
  RCC_OscInitStruct.PLL.PLLMUL = RCC_PLL_MUL9;
 80001c6:	f44f 13e0 	mov.w	r3, #1835008	; 0x1c0000
 80001ca:	63fb      	str	r3, [r7, #60]	; 0x3c
  if (HAL_RCC_OscConfig(&RCC_OscInitStruct) != HAL_OK)
 80001cc:	f107 0318 	add.w	r3, r7, #24
 80001d0:	4618      	mov	r0, r3
 80001d2:	f001 fdf9 	bl	8001dc8 <HAL_RCC_OscConfig>
 80001d6:	4603      	mov	r3, r0
 80001d8:	2b00      	cmp	r3, #0
 80001da:	d001      	beq.n	80001e0 <SystemClock_Config+0x58>
  {
    Error_Handler();
 80001dc:	f000 fee3 	bl	8000fa6 <Error_Handler>
  }
  /** Initializes the CPU, AHB and APB buses clocks
  */
  RCC_ClkInitStruct.ClockType = RCC_CLOCKTYPE_HCLK|RCC_CLOCKTYPE_SYSCLK
 80001e0:	230f      	movs	r3, #15
 80001e2:	607b      	str	r3, [r7, #4]
                              |RCC_CLOCKTYPE_PCLK1|RCC_CLOCKTYPE_PCLK2;
  RCC_ClkInitStruct.SYSCLKSource = RCC_SYSCLKSOURCE_PLLCLK;
 80001e4:	2302      	movs	r3, #2
 80001e6:	60bb      	str	r3, [r7, #8]
  RCC_ClkInitStruct.AHBCLKDivider = RCC_SYSCLK_DIV1;
 80001e8:	2300      	movs	r3, #0
 80001ea:	60fb      	str	r3, [r7, #12]
  RCC_ClkInitStruct.APB1CLKDivider = RCC_HCLK_DIV2;
 80001ec:	f44f 6380 	mov.w	r3, #1024	; 0x400
 80001f0:	613b      	str	r3, [r7, #16]
  RCC_ClkInitStruct.APB2CLKDivider = RCC_HCLK_DIV1;
 80001f2:	2300      	movs	r3, #0
 80001f4:	617b      	str	r3, [r7, #20]

  if (HAL_RCC_ClockConfig(&RCC_ClkInitStruct, FLASH_LATENCY_2) != HAL_OK)
 80001f6:	1d3b      	adds	r3, r7, #4
 80001f8:	2102      	movs	r1, #2
 80001fa:	4618      	mov	r0, r3
 80001fc:	f002 f864 	bl	80022c8 <HAL_RCC_ClockConfig>
 8000200:	4603      	mov	r3, r0
 8000202:	2b00      	cmp	r3, #0
 8000204:	d001      	beq.n	800020a <SystemClock_Config+0x82>
  {
    Error_Handler();
 8000206:	f000 fece 	bl	8000fa6 <Error_Handler>
  }
}
 800020a:	bf00      	nop
 800020c:	3740      	adds	r7, #64	; 0x40
 800020e:	46bd      	mov	sp, r7
 8000210:	bd80      	pop	{r7, pc}
	...

08000214 <MX_CRC_Init>:
  * @brief CRC Initialization Function
  * @param None
  * @retval None
  */
static void MX_CRC_Init(void)
{
 8000214:	b580      	push	{r7, lr}
 8000216:	af00      	add	r7, sp, #0
  /* USER CODE END CRC_Init 0 */

  /* USER CODE BEGIN CRC_Init 1 */

  /* USER CODE END CRC_Init 1 */
  hcrc.Instance = CRC;
 8000218:	4b06      	ldr	r3, [pc, #24]	; (8000234 <MX_CRC_Init+0x20>)
 800021a:	4a07      	ldr	r2, [pc, #28]	; (8000238 <MX_CRC_Init+0x24>)
 800021c:	601a      	str	r2, [r3, #0]
  if (HAL_CRC_Init(&hcrc) != HAL_OK)
 800021e:	4805      	ldr	r0, [pc, #20]	; (8000234 <MX_CRC_Init+0x20>)
 8000220:	f001 f8fb 	bl	800141a <HAL_CRC_Init>
 8000224:	4603      	mov	r3, r0
 8000226:	2b00      	cmp	r3, #0
 8000228:	d001      	beq.n	800022e <MX_CRC_Init+0x1a>
  {
    Error_Handler();
 800022a:	f000 febc 	bl	8000fa6 <Error_Handler>
  }
  /* USER CODE BEGIN CRC_Init 2 */

  /* USER CODE END CRC_Init 2 */

}
 800022e:	bf00      	nop
 8000230:	bd80      	pop	{r7, pc}
 8000232:	bf00      	nop
 8000234:	20000078 	.word	0x20000078
 8000238:	40023000 	.word	0x40023000

0800023c <MX_USART3_UART_Init>:
  * @brief USART3 Initialization Function
  * @param None
  * @retval None
  */
static void MX_USART3_UART_Init(void)
{
 800023c:	b580      	push	{r7, lr}
 800023e:	af00      	add	r7, sp, #0
  /* USER CODE END USART3_Init 0 */

  /* USER CODE BEGIN USART3_Init 1 */

  /* USER CODE END USART3_Init 1 */
  huart3.Instance = USART3;
 8000240:	4b11      	ldr	r3, [pc, #68]	; (8000288 <MX_USART3_UART_Init+0x4c>)
 8000242:	4a12      	ldr	r2, [pc, #72]	; (800028c <MX_USART3_UART_Init+0x50>)
 8000244:	601a      	str	r2, [r3, #0]
  huart3.Init.BaudRate = 115200;
 8000246:	4b10      	ldr	r3, [pc, #64]	; (8000288 <MX_USART3_UART_Init+0x4c>)
 8000248:	f44f 32e1 	mov.w	r2, #115200	; 0x1c200
 800024c:	605a      	str	r2, [r3, #4]
  huart3.Init.WordLength = UART_WORDLENGTH_8B;
 800024e:	4b0e      	ldr	r3, [pc, #56]	; (8000288 <MX_USART3_UART_Init+0x4c>)
 8000250:	2200      	movs	r2, #0
 8000252:	609a      	str	r2, [r3, #8]
  huart3.Init.StopBits = UART_STOPBITS_1;
 8000254:	4b0c      	ldr	r3, [pc, #48]	; (8000288 <MX_USART3_UART_Init+0x4c>)
 8000256:	2200      	movs	r2, #0
 8000258:	60da      	str	r2, [r3, #12]
  huart3.Init.Parity = UART_PARITY_NONE;
 800025a:	4b0b      	ldr	r3, [pc, #44]	; (8000288 <MX_USART3_UART_Init+0x4c>)
 800025c:	2200      	movs	r2, #0
 800025e:	611a      	str	r2, [r3, #16]
  huart3.Init.Mode = UART_MODE_TX_RX;
 8000260:	4b09      	ldr	r3, [pc, #36]	; (8000288 <MX_USART3_UART_Init+0x4c>)
 8000262:	220c      	movs	r2, #12
 8000264:	615a      	str	r2, [r3, #20]
  huart3.Init.HwFlowCtl = UART_HWCONTROL_NONE;
 8000266:	4b08      	ldr	r3, [pc, #32]	; (8000288 <MX_USART3_UART_Init+0x4c>)
 8000268:	2200      	movs	r2, #0
 800026a:	619a      	str	r2, [r3, #24]
  huart3.Init.OverSampling = UART_OVERSAMPLING_16;
 800026c:	4b06      	ldr	r3, [pc, #24]	; (8000288 <MX_USART3_UART_Init+0x4c>)
 800026e:	2200      	movs	r2, #0
 8000270:	61da      	str	r2, [r3, #28]
  if (HAL_UART_Init(&huart3) != HAL_OK)
 8000272:	4805      	ldr	r0, [pc, #20]	; (8000288 <MX_USART3_UART_Init+0x4c>)
 8000274:	f002 f9c4 	bl	8002600 <HAL_UART_Init>
 8000278:	4603      	mov	r3, r0
 800027a:	2b00      	cmp	r3, #0
 800027c:	d001      	beq.n	8000282 <MX_USART3_UART_Init+0x46>
  {
    Error_Handler();
 800027e:	f000 fe92 	bl	8000fa6 <Error_Handler>
  }
  /* USER CODE BEGIN USART3_Init 2 */

  /* USER CODE END USART3_Init 2 */

}
 8000282:	bf00      	nop
 8000284:	bd80      	pop	{r7, pc}
 8000286:	bf00      	nop
 8000288:	20000034 	.word	0x20000034
 800028c:	40004800 	.word	0x40004800

08000290 <MX_GPIO_Init>:
  * @brief GPIO Initialization Function
  * @param None
  * @retval None
  */
static void MX_GPIO_Init(void)
{
 8000290:	b580      	push	{r7, lr}
 8000292:	b088      	sub	sp, #32
 8000294:	af00      	add	r7, sp, #0
  GPIO_InitTypeDef GPIO_InitStruct = {0};
 8000296:	f107 0310 	add.w	r3, r7, #16
 800029a:	2200      	movs	r2, #0
 800029c:	601a      	str	r2, [r3, #0]
 800029e:	605a      	str	r2, [r3, #4]
 80002a0:	609a      	str	r2, [r3, #8]
 80002a2:	60da      	str	r2, [r3, #12]

  /* GPIO Ports Clock Enable */
  __HAL_RCC_GPIOC_CLK_ENABLE();
 80002a4:	4b20      	ldr	r3, [pc, #128]	; (8000328 <MX_GPIO_Init+0x98>)
 80002a6:	699b      	ldr	r3, [r3, #24]
 80002a8:	4a1f      	ldr	r2, [pc, #124]	; (8000328 <MX_GPIO_Init+0x98>)
 80002aa:	f043 0310 	orr.w	r3, r3, #16
 80002ae:	6193      	str	r3, [r2, #24]
 80002b0:	4b1d      	ldr	r3, [pc, #116]	; (8000328 <MX_GPIO_Init+0x98>)
 80002b2:	699b      	ldr	r3, [r3, #24]
 80002b4:	f003 0310 	and.w	r3, r3, #16
 80002b8:	60fb      	str	r3, [r7, #12]
 80002ba:	68fb      	ldr	r3, [r7, #12]
  __HAL_RCC_GPIOD_CLK_ENABLE();
 80002bc:	4b1a      	ldr	r3, [pc, #104]	; (8000328 <MX_GPIO_Init+0x98>)
 80002be:	699b      	ldr	r3, [r3, #24]
 80002c0:	4a19      	ldr	r2, [pc, #100]	; (8000328 <MX_GPIO_Init+0x98>)
 80002c2:	f043 0320 	orr.w	r3, r3, #32
 80002c6:	6193      	str	r3, [r2, #24]
 80002c8:	4b17      	ldr	r3, [pc, #92]	; (8000328 <MX_GPIO_Init+0x98>)
 80002ca:	699b      	ldr	r3, [r3, #24]
 80002cc:	f003 0320 	and.w	r3, r3, #32
 80002d0:	60bb      	str	r3, [r7, #8]
 80002d2:	68bb      	ldr	r3, [r7, #8]
  __HAL_RCC_GPIOB_CLK_ENABLE();
 80002d4:	4b14      	ldr	r3, [pc, #80]	; (8000328 <MX_GPIO_Init+0x98>)
 80002d6:	699b      	ldr	r3, [r3, #24]
 80002d8:	4a13      	ldr	r2, [pc, #76]	; (8000328 <MX_GPIO_Init+0x98>)
 80002da:	f043 0308 	orr.w	r3, r3, #8
 80002de:	6193      	str	r3, [r2, #24]
 80002e0:	4b11      	ldr	r3, [pc, #68]	; (8000328 <MX_GPIO_Init+0x98>)
 80002e2:	699b      	ldr	r3, [r3, #24]
 80002e4:	f003 0308 	and.w	r3, r3, #8
 80002e8:	607b      	str	r3, [r7, #4]
 80002ea:	687b      	ldr	r3, [r7, #4]
  __HAL_RCC_GPIOA_CLK_ENABLE();
 80002ec:	4b0e      	ldr	r3, [pc, #56]	; (8000328 <MX_GPIO_Init+0x98>)
 80002ee:	699b      	ldr	r3, [r3, #24]
 80002f0:	4a0d      	ldr	r2, [pc, #52]	; (8000328 <MX_GPIO_Init+0x98>)
 80002f2:	f043 0304 	orr.w	r3, r3, #4
 80002f6:	6193      	str	r3, [r2, #24]
 80002f8:	4b0b      	ldr	r3, [pc, #44]	; (8000328 <MX_GPIO_Init+0x98>)
 80002fa:	699b      	ldr	r3, [r3, #24]
 80002fc:	f003 0304 	and.w	r3, r3, #4
 8000300:	603b      	str	r3, [r7, #0]
 8000302:	683b      	ldr	r3, [r7, #0]

  /*Configure GPIO pin : PB12 */
  GPIO_InitStruct.Pin = GPIO_PIN_12;
 8000304:	f44f 5380 	mov.w	r3, #4096	; 0x1000
 8000308:	613b      	str	r3, [r7, #16]
  GPIO_InitStruct.Mode = GPIO_MODE_INPUT;
 800030a:	2300      	movs	r3, #0
 800030c:	617b      	str	r3, [r7, #20]
  GPIO_InitStruct.Pull = GPIO_PULLUP;
 800030e:	2301      	movs	r3, #1
 8000310:	61bb      	str	r3, [r7, #24]
  HAL_GPIO_Init(GPIOB, &GPIO_InitStruct);
 8000312:	f107 0310 	add.w	r3, r7, #16
 8000316:	4619      	mov	r1, r3
 8000318:	4804      	ldr	r0, [pc, #16]	; (800032c <MX_GPIO_Init+0x9c>)
 800031a:	f001 fb49 	bl	80019b0 <HAL_GPIO_Init>

}
 800031e:	bf00      	nop
 8000320:	3720      	adds	r7, #32
 8000322:	46bd      	mov	sp, r7
 8000324:	bd80      	pop	{r7, pc}
 8000326:	bf00      	nop
 8000328:	40021000 	.word	0x40021000
 800032c:	40010c00 	.word	0x40010c00

08000330 <printmsg>:

/* USER CODE BEGIN 4 */
void printmsg(char *format, ...) {
 8000330:	b40f      	push	{r0, r1, r2, r3}
 8000332:	b480      	push	{r7}
 8000334:	af00      	add	r7, sp, #0
	va_start(args, format);
	vsprintf(str, format, args);
	HAL_UART_Transmit(C_UART, (uint8_t*) str, strlen(str), HAL_MAX_DELAY);
	va_end(args);
#endif
}
 8000336:	bf00      	nop
 8000338:	46bd      	mov	sp, r7
 800033a:	bc80      	pop	{r7}
 800033c:	b004      	add	sp, #16
 800033e:	4770      	bx	lr

08000340 <bootloader_uart_read_data>:

void bootloader_uart_read_data(void){
 8000340:	b580      	push	{r7, lr}
 8000342:	b082      	sub	sp, #8
 8000344:	af00      	add	r7, sp, #0
	uint8_t rcv_len = 0;
 8000346:	2300      	movs	r3, #0
 8000348:	71fb      	strb	r3, [r7, #7]

	while(1){
		memset(bl_rx_buffer,0,200);
 800034a:	22c8      	movs	r2, #200	; 0xc8
 800034c:	2100      	movs	r1, #0
 800034e:	4833      	ldr	r0, [pc, #204]	; (800041c <bootloader_uart_read_data+0xdc>)
 8000350:	f002 fbd4 	bl	8002afc <memset>
		//Recebe 1 byte para definir a quantidade de bytes posteriores
		HAL_UART_Receive(C_UART, bl_rx_buffer, 1, HAL_MAX_DELAY);
 8000354:	f04f 33ff 	mov.w	r3, #4294967295
 8000358:	2201      	movs	r2, #1
 800035a:	4930      	ldr	r1, [pc, #192]	; (800041c <bootloader_uart_read_data+0xdc>)
 800035c:	4830      	ldr	r0, [pc, #192]	; (8000420 <bootloader_uart_read_data+0xe0>)
 800035e:	f002 fa2e 	bl	80027be <HAL_UART_Receive>
		rcv_len = bl_rx_buffer[0];
 8000362:	4b2e      	ldr	r3, [pc, #184]	; (800041c <bootloader_uart_read_data+0xdc>)
 8000364:	781b      	ldrb	r3, [r3, #0]
 8000366:	71fb      	strb	r3, [r7, #7]
		HAL_UART_Receive(C_UART, &bl_rx_buffer[1], rcv_len, HAL_MAX_DELAY);
 8000368:	79fb      	ldrb	r3, [r7, #7]
 800036a:	b29a      	uxth	r2, r3
 800036c:	f04f 33ff 	mov.w	r3, #4294967295
 8000370:	492c      	ldr	r1, [pc, #176]	; (8000424 <bootloader_uart_read_data+0xe4>)
 8000372:	482b      	ldr	r0, [pc, #172]	; (8000420 <bootloader_uart_read_data+0xe0>)
 8000374:	f002 fa23 	bl	80027be <HAL_UART_Receive>
		switch(bl_rx_buffer[1])
 8000378:	4b28      	ldr	r3, [pc, #160]	; (800041c <bootloader_uart_read_data+0xdc>)
 800037a:	785b      	ldrb	r3, [r3, #1]
 800037c:	3b51      	subs	r3, #81	; 0x51
 800037e:	2b0b      	cmp	r3, #11
 8000380:	d84a      	bhi.n	8000418 <bootloader_uart_read_data+0xd8>
 8000382:	a201      	add	r2, pc, #4	; (adr r2, 8000388 <bootloader_uart_read_data+0x48>)
 8000384:	f852 f023 	ldr.w	pc, [r2, r3, lsl #2]
 8000388:	080003b9 	.word	0x080003b9
 800038c:	080003c1 	.word	0x080003c1
 8000390:	080003c9 	.word	0x080003c9
 8000394:	080003d1 	.word	0x080003d1
 8000398:	080003d9 	.word	0x080003d9
 800039c:	080003e1 	.word	0x080003e1
 80003a0:	080003e9 	.word	0x080003e9
 80003a4:	080003f1 	.word	0x080003f1
 80003a8:	080003f9 	.word	0x080003f9
 80003ac:	08000401 	.word	0x08000401
 80003b0:	08000409 	.word	0x08000409
 80003b4:	08000411 	.word	0x08000411
		{
		case BL_GET_VER:
			                bootloader_handle_getver_cmd(bl_rx_buffer);
 80003b8:	4818      	ldr	r0, [pc, #96]	; (800041c <bootloader_uart_read_data+0xdc>)
 80003ba:	f000 f8a7 	bl	800050c <bootloader_handle_getver_cmd>
			                break;
 80003be:	e02c      	b.n	800041a <bootloader_uart_read_data+0xda>
			            case BL_GET_HELP:
			                bootloader_handle_gethelp_cmd(bl_rx_buffer);
 80003c0:	4816      	ldr	r0, [pc, #88]	; (800041c <bootloader_uart_read_data+0xdc>)
 80003c2:	f000 f8eb 	bl	800059c <bootloader_handle_gethelp_cmd>
			                break;
 80003c6:	e028      	b.n	800041a <bootloader_uart_read_data+0xda>
			            case BL_GET_CID:
			                bootloader_handle_getcid_cmd(bl_rx_buffer);
 80003c8:	4814      	ldr	r0, [pc, #80]	; (800041c <bootloader_uart_read_data+0xdc>)
 80003ca:	f000 f923 	bl	8000614 <bootloader_handle_getcid_cmd>
			                break;
 80003ce:	e024      	b.n	800041a <bootloader_uart_read_data+0xda>
			            case BL_GET_RDP_STATUS:
			                bootloader_handle_getrdp_cmd(bl_rx_buffer);
 80003d0:	4812      	ldr	r0, [pc, #72]	; (800041c <bootloader_uart_read_data+0xdc>)
 80003d2:	f000 f96b 	bl	80006ac <bootloader_handle_getrdp_cmd>
			                break;
 80003d6:	e020      	b.n	800041a <bootloader_uart_read_data+0xda>
			            case BL_GO_TO_ADDR:
			                bootloader_handle_go_cmd(bl_rx_buffer);
 80003d8:	4810      	ldr	r0, [pc, #64]	; (800041c <bootloader_uart_read_data+0xdc>)
 80003da:	f000 f9b3 	bl	8000744 <bootloader_handle_go_cmd>
			                break;
 80003de:	e01c      	b.n	800041a <bootloader_uart_read_data+0xda>
			            case BL_FLASH_ERASE:
			                bootloader_handle_flash_erase_cmd(bl_rx_buffer);
 80003e0:	480e      	ldr	r0, [pc, #56]	; (800041c <bootloader_uart_read_data+0xdc>)
 80003e2:	f000 fa19 	bl	8000818 <bootloader_handle_flash_erase_cmd>
			                break;
 80003e6:	e018      	b.n	800041a <bootloader_uart_read_data+0xda>
			            case BL_MEM_WRITE:
			                bootloader_handle_mem_write_cmd(bl_rx_buffer);
 80003e8:	480c      	ldr	r0, [pc, #48]	; (800041c <bootloader_uart_read_data+0xdc>)
 80003ea:	f000 fa73 	bl	80008d4 <bootloader_handle_mem_write_cmd>
			                break;
 80003ee:	e014      	b.n	800041a <bootloader_uart_read_data+0xda>
			            case BL_EN_RW_PROTECT:
			                bootloader_handle_en_rw_protect(bl_rx_buffer);
 80003f0:	480a      	ldr	r0, [pc, #40]	; (800041c <bootloader_uart_read_data+0xdc>)
 80003f2:	f000 faeb 	bl	80009cc <bootloader_handle_en_rw_protect>
			                break;
 80003f6:	e010      	b.n	800041a <bootloader_uart_read_data+0xda>
			            case BL_MEM_READ:
			                bootloader_handle_mem_read(bl_rx_buffer);
 80003f8:	4808      	ldr	r0, [pc, #32]	; (800041c <bootloader_uart_read_data+0xdc>)
 80003fa:	f000 fb85 	bl	8000b08 <bootloader_handle_mem_read>
			                break;
 80003fe:	e00c      	b.n	800041a <bootloader_uart_read_data+0xda>
			            case BL_READ_SECTOR_P_STATUS:
			                bootloader_handle_read_sector_protection_status(bl_rx_buffer);
 8000400:	4806      	ldr	r0, [pc, #24]	; (800041c <bootloader_uart_read_data+0xdc>)
 8000402:	f000 fb8b 	bl	8000b1c <bootloader_handle_read_sector_protection_status>
			                break;
 8000406:	e008      	b.n	800041a <bootloader_uart_read_data+0xda>
			            case BL_OTP_READ:
			                bootloader_handle_read_otp(bl_rx_buffer);
 8000408:	4804      	ldr	r0, [pc, #16]	; (800041c <bootloader_uart_read_data+0xdc>)
 800040a:	f000 fbcf 	bl	8000bac <bootloader_handle_read_otp>
			                break;
 800040e:	e004      	b.n	800041a <bootloader_uart_read_data+0xda>
						case BL_DIS_R_W_PROTECT:
			                bootloader_handle_dis_rw_protect(bl_rx_buffer);
 8000410:	4802      	ldr	r0, [pc, #8]	; (800041c <bootloader_uart_read_data+0xdc>)
 8000412:	f000 fb2d 	bl	8000a70 <bootloader_handle_dis_rw_protect>
			                break;
 8000416:	e000      	b.n	800041a <bootloader_uart_read_data+0xda>
			             default:
			               // printmsg("BL_DEBUG_MSG:Invalid command code received from host \n");
			                break;
 8000418:	bf00      	nop
		memset(bl_rx_buffer,0,200);
 800041a:	e796      	b.n	800034a <bootloader_uart_read_data+0xa>
 800041c:	20000084 	.word	0x20000084
 8000420:	20000034 	.word	0x20000034
 8000424:	20000085 	.word	0x20000085

08000428 <bootloader_jump_to_user_app>:
}

typedef void (*pFunction)(void);
pFunction JumpToApplication;

void bootloader_jump_to_user_app(void){
 8000428:	b580      	push	{r7, lr}
 800042a:	b088      	sub	sp, #32
 800042c:	af00      	add	r7, sp, #0

	JumpToApplication = (pFunction) (*(uint32_t *)(0x08008000 + 4));
 800042e:	4b30      	ldr	r3, [pc, #192]	; (80004f0 <bootloader_jump_to_user_app+0xc8>)
 8000430:	681b      	ldr	r3, [r3, #0]
 8000432:	461a      	mov	r2, r3
 8000434:	4b2f      	ldr	r3, [pc, #188]	; (80004f4 <bootloader_jump_to_user_app+0xcc>)
 8000436:	601a      	str	r2, [r3, #0]

	  HAL_RCC_DeInit();
 8000438:	f001 fc2c 	bl	8001c94 <HAL_RCC_DeInit>

	  /* Disable all enabled interrupts and pending interrupt requests in NVIC */
	  for(uint8_t i = 0; i < 8; i++)
 800043c:	2300      	movs	r3, #0
 800043e:	77fb      	strb	r3, [r7, #31]
 8000440:	e010      	b.n	8000464 <bootloader_jump_to_user_app+0x3c>
	  {
	    /* Disable all enabled interrupts in NVIC */
	    NVIC->ICER[i] = 0xFFFFFFFF;
 8000442:	4a2d      	ldr	r2, [pc, #180]	; (80004f8 <bootloader_jump_to_user_app+0xd0>)
 8000444:	7ffb      	ldrb	r3, [r7, #31]
 8000446:	3320      	adds	r3, #32
 8000448:	f04f 31ff 	mov.w	r1, #4294967295
 800044c:	f842 1023 	str.w	r1, [r2, r3, lsl #2]
	    /* Clear all pending interrupt requests in NVIC */
	    NVIC->ICPR[i] = 0xFFFFFFFF;
 8000450:	4a29      	ldr	r2, [pc, #164]	; (80004f8 <bootloader_jump_to_user_app+0xd0>)
 8000452:	7ffb      	ldrb	r3, [r7, #31]
 8000454:	3360      	adds	r3, #96	; 0x60
 8000456:	f04f 31ff 	mov.w	r1, #4294967295
 800045a:	f842 1023 	str.w	r1, [r2, r3, lsl #2]
	  for(uint8_t i = 0; i < 8; i++)
 800045e:	7ffb      	ldrb	r3, [r7, #31]
 8000460:	3301      	adds	r3, #1
 8000462:	77fb      	strb	r3, [r7, #31]
 8000464:	7ffb      	ldrb	r3, [r7, #31]
 8000466:	2b07      	cmp	r3, #7
 8000468:	d9eb      	bls.n	8000442 <bootloader_jump_to_user_app+0x1a>

	  /*
	   * Disable SysTick and clear its exception pending bit,
	   * if it is used in the bootloader, e. g. by the RTX.
	   */
	  SysTick->CTRL = 0;
 800046a:	4b24      	ldr	r3, [pc, #144]	; (80004fc <bootloader_jump_to_user_app+0xd4>)
 800046c:	2200      	movs	r2, #0
 800046e:	601a      	str	r2, [r3, #0]
	  SCB->ICSR |= SCB_ICSR_PENDSTCLR_Msk;
 8000470:	4b23      	ldr	r3, [pc, #140]	; (8000500 <bootloader_jump_to_user_app+0xd8>)
 8000472:	685b      	ldr	r3, [r3, #4]
 8000474:	4a22      	ldr	r2, [pc, #136]	; (8000500 <bootloader_jump_to_user_app+0xd8>)
 8000476:	f043 7300 	orr.w	r3, r3, #33554432	; 0x2000000
 800047a:	6053      	str	r3, [r2, #4]

	  /* Disable individual fault handlers if the bootloader used them. */
	  SCB->SHCSR &= ~(SCB_SHCSR_USGFAULTENA_Msk | \
 800047c:	4b20      	ldr	r3, [pc, #128]	; (8000500 <bootloader_jump_to_user_app+0xd8>)
 800047e:	6a5b      	ldr	r3, [r3, #36]	; 0x24
 8000480:	4a1f      	ldr	r2, [pc, #124]	; (8000500 <bootloader_jump_to_user_app+0xd8>)
 8000482:	f423 23e0 	bic.w	r3, r3, #458752	; 0x70000
 8000486:	6253      	str	r3, [r2, #36]	; 0x24
 */
__STATIC_FORCEINLINE uint32_t __get_CONTROL(void)
{
  uint32_t result;

  __ASM volatile ("MRS %0, control" : "=r" (result) );
 8000488:	f3ef 8314 	mrs	r3, CONTROL
 800048c:	61bb      	str	r3, [r7, #24]
  return(result);
 800048e:	69bb      	ldr	r3, [r7, #24]
	      SCB_SHCSR_BUSFAULTENA_Msk | \
	      SCB_SHCSR_MEMFAULTENA_Msk);

	  /* Activate the MSP, if the core is found to currently run with the PSP. */
	  if( CONTROL_SPSEL_Msk & __get_CONTROL( ) )
 8000490:	f003 0302 	and.w	r3, r3, #2
 8000494:	2b00      	cmp	r3, #0
 8000496:	d011      	beq.n	80004bc <bootloader_jump_to_user_app+0x94>
 */
__STATIC_FORCEINLINE uint32_t __get_PSP(void)
{
  uint32_t result;

  __ASM volatile ("MRS %0, psp"  : "=r" (result) );
 8000498:	f3ef 8309 	mrs	r3, PSP
 800049c:	60bb      	str	r3, [r7, #8]
  return(result);
 800049e:	68bb      	ldr	r3, [r7, #8]
 80004a0:	60fb      	str	r3, [r7, #12]
  \details Assigns the given value to the Main Stack Pointer (MSP).
  \param [in]    topOfMainStack  Main Stack Pointer value to set
 */
__STATIC_FORCEINLINE void __set_MSP(uint32_t topOfMainStack)
{
  __ASM volatile ("MSR msp, %0" : : "r" (topOfMainStack) : );
 80004a2:	68fb      	ldr	r3, [r7, #12]
 80004a4:	f383 8808 	msr	MSP, r3
  __ASM volatile ("MRS %0, control" : "=r" (result) );
 80004a8:	f3ef 8314 	mrs	r3, CONTROL
 80004ac:	613b      	str	r3, [r7, #16]
  return(result);
 80004ae:	693b      	ldr	r3, [r7, #16]
	  {
	    /* MSP is not active */
	    __set_MSP(__get_PSP());
	    __set_CONTROL( __get_CONTROL( ) & ~CONTROL_SPSEL_Msk ) ;
 80004b0:	f023 0302 	bic.w	r3, r3, #2
 80004b4:	617b      	str	r3, [r7, #20]
  __ASM volatile ("MSR control, %0" : : "r" (control) : "memory");
 80004b6:	697b      	ldr	r3, [r7, #20]
 80004b8:	f383 8814 	msr	CONTROL, r3
	  }

	  __HAL_RCC_SYSCFG_CLK_ENABLE();
 80004bc:	4b11      	ldr	r3, [pc, #68]	; (8000504 <bootloader_jump_to_user_app+0xdc>)
 80004be:	699b      	ldr	r3, [r3, #24]
 80004c0:	4a10      	ldr	r2, [pc, #64]	; (8000504 <bootloader_jump_to_user_app+0xdc>)
 80004c2:	f043 0301 	orr.w	r3, r3, #1
 80004c6:	6193      	str	r3, [r2, #24]
 80004c8:	4b0e      	ldr	r3, [pc, #56]	; (8000504 <bootloader_jump_to_user_app+0xdc>)
 80004ca:	699b      	ldr	r3, [r3, #24]
 80004cc:	f003 0301 	and.w	r3, r3, #1
 80004d0:	603b      	str	r3, [r7, #0]
 80004d2:	683b      	ldr	r3, [r7, #0]
	#if (SET_VECTOR_TABLE)
	  SCB->VTOR = AppAddress;
	#endif

	  /* Configure the Main Stack Pointer. This function comes from CMSIS. */
	  __set_MSP(*(__IO uint32_t*) 0x08008000);
 80004d4:	4b0c      	ldr	r3, [pc, #48]	; (8000508 <bootloader_jump_to_user_app+0xe0>)
 80004d6:	681b      	ldr	r3, [r3, #0]
 80004d8:	607b      	str	r3, [r7, #4]
  __ASM volatile ("MSR msp, %0" : : "r" (topOfMainStack) : );
 80004da:	687b      	ldr	r3, [r7, #4]
 80004dc:	f383 8808 	msr	MSP, r3

	  JumpToApplication();
 80004e0:	4b04      	ldr	r3, [pc, #16]	; (80004f4 <bootloader_jump_to_user_app+0xcc>)
 80004e2:	681b      	ldr	r3, [r3, #0]
 80004e4:	4798      	blx	r3
}
 80004e6:	bf00      	nop
 80004e8:	3720      	adds	r7, #32
 80004ea:	46bd      	mov	sp, r7
 80004ec:	bd80      	pop	{r7, pc}
 80004ee:	bf00      	nop
 80004f0:	08008004 	.word	0x08008004
 80004f4:	20000080 	.word	0x20000080
 80004f8:	e000e100 	.word	0xe000e100
 80004fc:	e000e010 	.word	0xe000e010
 8000500:	e000ed00 	.word	0xe000ed00
 8000504:	40021000 	.word	0x40021000
 8000508:	08008000 	.word	0x08008000

0800050c <bootloader_handle_getver_cmd>:

/**************Implementation of Boot-loader Command Handle functions *********/

/*Helper function to handle BL_GET_VER command */
void bootloader_handle_getver_cmd(uint8_t *bl_rx_buffer)
{
 800050c:	b580      	push	{r7, lr}
 800050e:	b086      	sub	sp, #24
 8000510:	af00      	add	r7, sp, #0
 8000512:	6078      	str	r0, [r7, #4]
    uint8_t bl_version;

    // 1) verify the checksum
      printmsg("BL_DEBUG_MSG:bootloader_handle_getver_cmd\n");
 8000514:	481d      	ldr	r0, [pc, #116]	; (800058c <bootloader_handle_getver_cmd+0x80>)
 8000516:	f7ff ff0b 	bl	8000330 <printmsg>

	 //Total length of the command packet
	  uint32_t command_packet_len = bl_rx_buffer[0]+1 ;
 800051a:	687b      	ldr	r3, [r7, #4]
 800051c:	781b      	ldrb	r3, [r3, #0]
 800051e:	3301      	adds	r3, #1
 8000520:	617b      	str	r3, [r7, #20]

	  //extract the CRC32 sent by the Host
	  uint32_t host_crc = *((uint32_t * ) (bl_rx_buffer+command_packet_len - 4) ) ;
 8000522:	697b      	ldr	r3, [r7, #20]
 8000524:	3b04      	subs	r3, #4
 8000526:	687a      	ldr	r2, [r7, #4]
 8000528:	4413      	add	r3, r2
 800052a:	681b      	ldr	r3, [r3, #0]
 800052c:	613b      	str	r3, [r7, #16]

    if (! bootloader_verify_crc(&bl_rx_buffer[0],command_packet_len-4,host_crc))
 800052e:	697b      	ldr	r3, [r7, #20]
 8000530:	3b04      	subs	r3, #4
 8000532:	693a      	ldr	r2, [r7, #16]
 8000534:	4619      	mov	r1, r3
 8000536:	6878      	ldr	r0, [r7, #4]
 8000538:	f000 fb6e 	bl	8000c18 <bootloader_verify_crc>
 800053c:	4603      	mov	r3, r0
 800053e:	2b00      	cmp	r3, #0
 8000540:	d11a      	bne.n	8000578 <bootloader_handle_getver_cmd+0x6c>
    {
        printmsg("BL_DEBUG_MSG:checksum success !!\n");
 8000542:	4813      	ldr	r0, [pc, #76]	; (8000590 <bootloader_handle_getver_cmd+0x84>)
 8000544:	f7ff fef4 	bl	8000330 <printmsg>
        // checksum is correct..
        bootloader_send_ack(bl_rx_buffer[0],1);
 8000548:	687b      	ldr	r3, [r7, #4]
 800054a:	781b      	ldrb	r3, [r3, #0]
 800054c:	2101      	movs	r1, #1
 800054e:	4618      	mov	r0, r3
 8000550:	f000 fb36 	bl	8000bc0 <bootloader_send_ack>
        bl_version=get_bootloader_version();
 8000554:	f000 fba8 	bl	8000ca8 <get_bootloader_version>
 8000558:	4603      	mov	r3, r0
 800055a:	73fb      	strb	r3, [r7, #15]
        printmsg("BL_DEBUG_MSG:BL_VER : %d %#x\n",bl_version,bl_version);
 800055c:	7bfb      	ldrb	r3, [r7, #15]
 800055e:	4619      	mov	r1, r3
 8000560:	7bfb      	ldrb	r3, [r7, #15]
 8000562:	461a      	mov	r2, r3
 8000564:	480b      	ldr	r0, [pc, #44]	; (8000594 <bootloader_handle_getver_cmd+0x88>)
 8000566:	f7ff fee3 	bl	8000330 <printmsg>
        bootloader_uart_write_data(&bl_version,1);
 800056a:	f107 030f 	add.w	r3, r7, #15
 800056e:	2101      	movs	r1, #1
 8000570:	4618      	mov	r0, r3
 8000572:	f000 fb85 	bl	8000c80 <bootloader_uart_write_data>
        //checksum is wrong send nack
        bootloader_send_nack();
    }


}
 8000576:	e004      	b.n	8000582 <bootloader_handle_getver_cmd+0x76>
        printmsg("BL_DEBUG_MSG:checksum fail !!\n");
 8000578:	4807      	ldr	r0, [pc, #28]	; (8000598 <bootloader_handle_getver_cmd+0x8c>)
 800057a:	f7ff fed9 	bl	8000330 <printmsg>
        bootloader_send_nack();
 800057e:	f000 fb39 	bl	8000bf4 <bootloader_send_nack>
}
 8000582:	bf00      	nop
 8000584:	3718      	adds	r7, #24
 8000586:	46bd      	mov	sp, r7
 8000588:	bd80      	pop	{r7, pc}
 800058a:	bf00      	nop
 800058c:	08002b24 	.word	0x08002b24
 8000590:	08002b50 	.word	0x08002b50
 8000594:	08002b74 	.word	0x08002b74
 8000598:	08002b94 	.word	0x08002b94

0800059c <bootloader_handle_gethelp_cmd>:

/*Helper function to handle BL_GET_HELP command
 * Bootloader sends out All supported Command codes
 */
void bootloader_handle_gethelp_cmd(uint8_t *pBuffer)
{
 800059c:	b580      	push	{r7, lr}
 800059e:	b084      	sub	sp, #16
 80005a0:	af00      	add	r7, sp, #0
 80005a2:	6078      	str	r0, [r7, #4]
    printmsg("BL_DEBUG_MSG:bootloader_handle_gethelp_cmd\n");
 80005a4:	4816      	ldr	r0, [pc, #88]	; (8000600 <bootloader_handle_gethelp_cmd+0x64>)
 80005a6:	f7ff fec3 	bl	8000330 <printmsg>

	//Total length of the command packet
	uint32_t command_packet_len = bl_rx_buffer[0]+1 ;
 80005aa:	4b16      	ldr	r3, [pc, #88]	; (8000604 <bootloader_handle_gethelp_cmd+0x68>)
 80005ac:	781b      	ldrb	r3, [r3, #0]
 80005ae:	3301      	adds	r3, #1
 80005b0:	60fb      	str	r3, [r7, #12]

	//extract the CRC32 sent by the Host
	uint32_t host_crc = *((uint32_t * ) (bl_rx_buffer+command_packet_len - 4) ) ;
 80005b2:	68fb      	ldr	r3, [r7, #12]
 80005b4:	3b04      	subs	r3, #4
 80005b6:	4a13      	ldr	r2, [pc, #76]	; (8000604 <bootloader_handle_gethelp_cmd+0x68>)
 80005b8:	4413      	add	r3, r2
 80005ba:	681b      	ldr	r3, [r3, #0]
 80005bc:	60bb      	str	r3, [r7, #8]

	if (! bootloader_verify_crc(&bl_rx_buffer[0],command_packet_len-4,host_crc))
 80005be:	68fb      	ldr	r3, [r7, #12]
 80005c0:	3b04      	subs	r3, #4
 80005c2:	68ba      	ldr	r2, [r7, #8]
 80005c4:	4619      	mov	r1, r3
 80005c6:	480f      	ldr	r0, [pc, #60]	; (8000604 <bootloader_handle_gethelp_cmd+0x68>)
 80005c8:	f000 fb26 	bl	8000c18 <bootloader_verify_crc>
 80005cc:	4603      	mov	r3, r0
 80005ce:	2b00      	cmp	r3, #0
 80005d0:	d10d      	bne.n	80005ee <bootloader_handle_gethelp_cmd+0x52>
	{
        printmsg("BL_DEBUG_MSG:checksum success !!\n");
 80005d2:	480d      	ldr	r0, [pc, #52]	; (8000608 <bootloader_handle_gethelp_cmd+0x6c>)
 80005d4:	f7ff feac 	bl	8000330 <printmsg>
        bootloader_send_ack(pBuffer[0],sizeof(supported_commands));
 80005d8:	687b      	ldr	r3, [r7, #4]
 80005da:	781b      	ldrb	r3, [r3, #0]
 80005dc:	2108      	movs	r1, #8
 80005de:	4618      	mov	r0, r3
 80005e0:	f000 faee 	bl	8000bc0 <bootloader_send_ack>
        bootloader_uart_write_data(supported_commands,sizeof(supported_commands) );
 80005e4:	2108      	movs	r1, #8
 80005e6:	4809      	ldr	r0, [pc, #36]	; (800060c <bootloader_handle_gethelp_cmd+0x70>)
 80005e8:	f000 fb4a 	bl	8000c80 <bootloader_uart_write_data>
	{
        printmsg("BL_DEBUG_MSG:checksum fail !!\n");
        bootloader_send_nack();
	}

}
 80005ec:	e004      	b.n	80005f8 <bootloader_handle_gethelp_cmd+0x5c>
        printmsg("BL_DEBUG_MSG:checksum fail !!\n");
 80005ee:	4808      	ldr	r0, [pc, #32]	; (8000610 <bootloader_handle_gethelp_cmd+0x74>)
 80005f0:	f7ff fe9e 	bl	8000330 <printmsg>
        bootloader_send_nack();
 80005f4:	f000 fafe 	bl	8000bf4 <bootloader_send_nack>
}
 80005f8:	bf00      	nop
 80005fa:	3710      	adds	r7, #16
 80005fc:	46bd      	mov	sp, r7
 80005fe:	bd80      	pop	{r7, pc}
 8000600:	08002bb4 	.word	0x08002bb4
 8000604:	20000084 	.word	0x20000084
 8000608:	08002b50 	.word	0x08002b50
 800060c:	20000000 	.word	0x20000000
 8000610:	08002b94 	.word	0x08002b94

08000614 <bootloader_handle_getcid_cmd>:

/*Helper function to handle BL_GET_CID command */
void bootloader_handle_getcid_cmd(uint8_t *pBuffer)
{
 8000614:	b580      	push	{r7, lr}
 8000616:	b086      	sub	sp, #24
 8000618:	af00      	add	r7, sp, #0
 800061a:	6078      	str	r0, [r7, #4]
	uint16_t bl_cid_num = 0;
 800061c:	2300      	movs	r3, #0
 800061e:	81fb      	strh	r3, [r7, #14]
	printmsg("BL_DEBUG_MSG:bootloader_handle_getcid_cmd\n");
 8000620:	481d      	ldr	r0, [pc, #116]	; (8000698 <bootloader_handle_getcid_cmd+0x84>)
 8000622:	f7ff fe85 	bl	8000330 <printmsg>

    //Total length of the command packet
	uint32_t command_packet_len = bl_rx_buffer[0]+1 ;
 8000626:	4b1d      	ldr	r3, [pc, #116]	; (800069c <bootloader_handle_getcid_cmd+0x88>)
 8000628:	781b      	ldrb	r3, [r3, #0]
 800062a:	3301      	adds	r3, #1
 800062c:	617b      	str	r3, [r7, #20]

	//extract the CRC32 sent by the Host
	uint32_t host_crc = *((uint32_t * ) (bl_rx_buffer+command_packet_len - 4) ) ;
 800062e:	697b      	ldr	r3, [r7, #20]
 8000630:	3b04      	subs	r3, #4
 8000632:	4a1a      	ldr	r2, [pc, #104]	; (800069c <bootloader_handle_getcid_cmd+0x88>)
 8000634:	4413      	add	r3, r2
 8000636:	681b      	ldr	r3, [r3, #0]
 8000638:	613b      	str	r3, [r7, #16]

	if (! bootloader_verify_crc(&bl_rx_buffer[0],command_packet_len-4,host_crc))
 800063a:	697b      	ldr	r3, [r7, #20]
 800063c:	3b04      	subs	r3, #4
 800063e:	693a      	ldr	r2, [r7, #16]
 8000640:	4619      	mov	r1, r3
 8000642:	4816      	ldr	r0, [pc, #88]	; (800069c <bootloader_handle_getcid_cmd+0x88>)
 8000644:	f000 fae8 	bl	8000c18 <bootloader_verify_crc>
 8000648:	4603      	mov	r3, r0
 800064a:	2b00      	cmp	r3, #0
 800064c:	d11a      	bne.n	8000684 <bootloader_handle_getcid_cmd+0x70>
	{
        printmsg("BL_DEBUG_MSG:checksum success !!\n");
 800064e:	4814      	ldr	r0, [pc, #80]	; (80006a0 <bootloader_handle_getcid_cmd+0x8c>)
 8000650:	f7ff fe6e 	bl	8000330 <printmsg>
        bootloader_send_ack(pBuffer[0],2);
 8000654:	687b      	ldr	r3, [r7, #4]
 8000656:	781b      	ldrb	r3, [r3, #0]
 8000658:	2102      	movs	r1, #2
 800065a:	4618      	mov	r0, r3
 800065c:	f000 fab0 	bl	8000bc0 <bootloader_send_ack>
        bl_cid_num = get_mcu_chip_id();
 8000660:	f000 fb2a 	bl	8000cb8 <get_mcu_chip_id>
 8000664:	4603      	mov	r3, r0
 8000666:	81fb      	strh	r3, [r7, #14]
        printmsg("BL_DEBUG_MSG:MCU id : %d %#x !!\n",bl_cid_num, bl_cid_num);
 8000668:	89fb      	ldrh	r3, [r7, #14]
 800066a:	4619      	mov	r1, r3
 800066c:	89fb      	ldrh	r3, [r7, #14]
 800066e:	461a      	mov	r2, r3
 8000670:	480c      	ldr	r0, [pc, #48]	; (80006a4 <bootloader_handle_getcid_cmd+0x90>)
 8000672:	f7ff fe5d 	bl	8000330 <printmsg>
        bootloader_uart_write_data((uint8_t *)&bl_cid_num,2);
 8000676:	f107 030e 	add.w	r3, r7, #14
 800067a:	2102      	movs	r1, #2
 800067c:	4618      	mov	r0, r3
 800067e:	f000 faff 	bl	8000c80 <bootloader_uart_write_data>
        printmsg("BL_DEBUG_MSG:checksum fail !!\n");
        bootloader_send_nack();
	}


}
 8000682:	e004      	b.n	800068e <bootloader_handle_getcid_cmd+0x7a>
        printmsg("BL_DEBUG_MSG:checksum fail !!\n");
 8000684:	4808      	ldr	r0, [pc, #32]	; (80006a8 <bootloader_handle_getcid_cmd+0x94>)
 8000686:	f7ff fe53 	bl	8000330 <printmsg>
        bootloader_send_nack();
 800068a:	f000 fab3 	bl	8000bf4 <bootloader_send_nack>
}
 800068e:	bf00      	nop
 8000690:	3718      	adds	r7, #24
 8000692:	46bd      	mov	sp, r7
 8000694:	bd80      	pop	{r7, pc}
 8000696:	bf00      	nop
 8000698:	08002be0 	.word	0x08002be0
 800069c:	20000084 	.word	0x20000084
 80006a0:	08002b50 	.word	0x08002b50
 80006a4:	08002c0c 	.word	0x08002c0c
 80006a8:	08002b94 	.word	0x08002b94

080006ac <bootloader_handle_getrdp_cmd>:

/*Helper function to handle BL_GET_RDP_STATUS command */
void bootloader_handle_getrdp_cmd(uint8_t *pBuffer)
{
 80006ac:	b580      	push	{r7, lr}
 80006ae:	b086      	sub	sp, #24
 80006b0:	af00      	add	r7, sp, #0
 80006b2:	6078      	str	r0, [r7, #4]
    uint8_t rdp_level = 0x00;
 80006b4:	2300      	movs	r3, #0
 80006b6:	73fb      	strb	r3, [r7, #15]
    printmsg("BL_DEBUG_MSG:bootloader_handle_getrdp_cmd\n");
 80006b8:	481d      	ldr	r0, [pc, #116]	; (8000730 <bootloader_handle_getrdp_cmd+0x84>)
 80006ba:	f7ff fe39 	bl	8000330 <printmsg>

    //Total length of the command packet
	uint32_t command_packet_len = bl_rx_buffer[0]+1 ;
 80006be:	4b1d      	ldr	r3, [pc, #116]	; (8000734 <bootloader_handle_getrdp_cmd+0x88>)
 80006c0:	781b      	ldrb	r3, [r3, #0]
 80006c2:	3301      	adds	r3, #1
 80006c4:	617b      	str	r3, [r7, #20]

	//extract the CRC32 sent by the Host
	uint32_t host_crc = *((uint32_t * ) (bl_rx_buffer+command_packet_len - 4) ) ;
 80006c6:	697b      	ldr	r3, [r7, #20]
 80006c8:	3b04      	subs	r3, #4
 80006ca:	4a1a      	ldr	r2, [pc, #104]	; (8000734 <bootloader_handle_getrdp_cmd+0x88>)
 80006cc:	4413      	add	r3, r2
 80006ce:	681b      	ldr	r3, [r3, #0]
 80006d0:	613b      	str	r3, [r7, #16]

	if (! bootloader_verify_crc(&bl_rx_buffer[0],command_packet_len-4,host_crc))
 80006d2:	697b      	ldr	r3, [r7, #20]
 80006d4:	3b04      	subs	r3, #4
 80006d6:	693a      	ldr	r2, [r7, #16]
 80006d8:	4619      	mov	r1, r3
 80006da:	4816      	ldr	r0, [pc, #88]	; (8000734 <bootloader_handle_getrdp_cmd+0x88>)
 80006dc:	f000 fa9c 	bl	8000c18 <bootloader_verify_crc>
 80006e0:	4603      	mov	r3, r0
 80006e2:	2b00      	cmp	r3, #0
 80006e4:	d11a      	bne.n	800071c <bootloader_handle_getrdp_cmd+0x70>
	{
        printmsg("BL_DEBUG_MSG:checksum success !!\n");
 80006e6:	4814      	ldr	r0, [pc, #80]	; (8000738 <bootloader_handle_getrdp_cmd+0x8c>)
 80006e8:	f7ff fe22 	bl	8000330 <printmsg>
        bootloader_send_ack(pBuffer[0],1);
 80006ec:	687b      	ldr	r3, [r7, #4]
 80006ee:	781b      	ldrb	r3, [r3, #0]
 80006f0:	2101      	movs	r1, #1
 80006f2:	4618      	mov	r0, r3
 80006f4:	f000 fa64 	bl	8000bc0 <bootloader_send_ack>
        rdp_level = get_flash_rdp_level();
 80006f8:	f000 faf0 	bl	8000cdc <get_flash_rdp_level>
 80006fc:	4603      	mov	r3, r0
 80006fe:	73fb      	strb	r3, [r7, #15]
        printmsg("BL_DEBUG_MSG:RDP level: %d %#x\n",rdp_level,rdp_level);
 8000700:	7bfb      	ldrb	r3, [r7, #15]
 8000702:	4619      	mov	r1, r3
 8000704:	7bfb      	ldrb	r3, [r7, #15]
 8000706:	461a      	mov	r2, r3
 8000708:	480c      	ldr	r0, [pc, #48]	; (800073c <bootloader_handle_getrdp_cmd+0x90>)
 800070a:	f7ff fe11 	bl	8000330 <printmsg>
        bootloader_uart_write_data(&rdp_level,1);
 800070e:	f107 030f 	add.w	r3, r7, #15
 8000712:	2101      	movs	r1, #1
 8000714:	4618      	mov	r0, r3
 8000716:	f000 fab3 	bl	8000c80 <bootloader_uart_write_data>
        printmsg("BL_DEBUG_MSG:checksum fail !!\n");
        bootloader_send_nack();
	}


}
 800071a:	e004      	b.n	8000726 <bootloader_handle_getrdp_cmd+0x7a>
        printmsg("BL_DEBUG_MSG:checksum fail !!\n");
 800071c:	4808      	ldr	r0, [pc, #32]	; (8000740 <bootloader_handle_getrdp_cmd+0x94>)
 800071e:	f7ff fe07 	bl	8000330 <printmsg>
        bootloader_send_nack();
 8000722:	f000 fa67 	bl	8000bf4 <bootloader_send_nack>
}
 8000726:	bf00      	nop
 8000728:	3718      	adds	r7, #24
 800072a:	46bd      	mov	sp, r7
 800072c:	bd80      	pop	{r7, pc}
 800072e:	bf00      	nop
 8000730:	08002c30 	.word	0x08002c30
 8000734:	20000084 	.word	0x20000084
 8000738:	08002b50 	.word	0x08002b50
 800073c:	08002c5c 	.word	0x08002c5c
 8000740:	08002b94 	.word	0x08002b94

08000744 <bootloader_handle_go_cmd>:

/*Helper function to handle BL_GO_TO_ADDR command */
void bootloader_handle_go_cmd(uint8_t *pBuffer)
{
 8000744:	b580      	push	{r7, lr}
 8000746:	b088      	sub	sp, #32
 8000748:	af00      	add	r7, sp, #0
 800074a:	6078      	str	r0, [r7, #4]
    uint32_t go_address=0;
 800074c:	2300      	movs	r3, #0
 800074e:	61fb      	str	r3, [r7, #28]
    uint8_t addr_valid = ADDR_VALID;
 8000750:	2300      	movs	r3, #0
 8000752:	73fb      	strb	r3, [r7, #15]
    uint8_t addr_invalid = ADDR_INVALID;
 8000754:	2301      	movs	r3, #1
 8000756:	73bb      	strb	r3, [r7, #14]

    printmsg("BL_DEBUG_MSG:bootloader_handle_go_cmd\n");
 8000758:	4828      	ldr	r0, [pc, #160]	; (80007fc <bootloader_handle_go_cmd+0xb8>)
 800075a:	f7ff fde9 	bl	8000330 <printmsg>

    //Total length of the command packet
	uint32_t command_packet_len = bl_rx_buffer[0]+1 ;
 800075e:	4b28      	ldr	r3, [pc, #160]	; (8000800 <bootloader_handle_go_cmd+0xbc>)
 8000760:	781b      	ldrb	r3, [r3, #0]
 8000762:	3301      	adds	r3, #1
 8000764:	61bb      	str	r3, [r7, #24]

	//extract the CRC32 sent by the Host
	uint32_t host_crc = *((uint32_t * ) (bl_rx_buffer+command_packet_len - 4) ) ;
 8000766:	69bb      	ldr	r3, [r7, #24]
 8000768:	3b04      	subs	r3, #4
 800076a:	4a25      	ldr	r2, [pc, #148]	; (8000800 <bootloader_handle_go_cmd+0xbc>)
 800076c:	4413      	add	r3, r2
 800076e:	681b      	ldr	r3, [r3, #0]
 8000770:	617b      	str	r3, [r7, #20]

	if (! bootloader_verify_crc(&bl_rx_buffer[0],command_packet_len-4,host_crc))
 8000772:	69bb      	ldr	r3, [r7, #24]
 8000774:	3b04      	subs	r3, #4
 8000776:	697a      	ldr	r2, [r7, #20]
 8000778:	4619      	mov	r1, r3
 800077a:	4821      	ldr	r0, [pc, #132]	; (8000800 <bootloader_handle_go_cmd+0xbc>)
 800077c:	f000 fa4c 	bl	8000c18 <bootloader_verify_crc>
 8000780:	4603      	mov	r3, r0
 8000782:	2b00      	cmp	r3, #0
 8000784:	d131      	bne.n	80007ea <bootloader_handle_go_cmd+0xa6>
	{
        printmsg("BL_DEBUG_MSG:checksum success !!\n");
 8000786:	481f      	ldr	r0, [pc, #124]	; (8000804 <bootloader_handle_go_cmd+0xc0>)
 8000788:	f7ff fdd2 	bl	8000330 <printmsg>

        bootloader_send_ack(pBuffer[0],1);
 800078c:	687b      	ldr	r3, [r7, #4]
 800078e:	781b      	ldrb	r3, [r3, #0]
 8000790:	2101      	movs	r1, #1
 8000792:	4618      	mov	r0, r3
 8000794:	f000 fa14 	bl	8000bc0 <bootloader_send_ack>

        //extract the go address
        go_address = *((uint32_t *)&pBuffer[2] );
 8000798:	687b      	ldr	r3, [r7, #4]
 800079a:	f8d3 3002 	ldr.w	r3, [r3, #2]
 800079e:	61fb      	str	r3, [r7, #28]
        printmsg("BL_DEBUG_MSG:GO addr: %#x\n",go_address);
 80007a0:	69f9      	ldr	r1, [r7, #28]
 80007a2:	4819      	ldr	r0, [pc, #100]	; (8000808 <bootloader_handle_go_cmd+0xc4>)
 80007a4:	f7ff fdc4 	bl	8000330 <printmsg>

        if( verify_address(go_address) == ADDR_VALID )
 80007a8:	69f8      	ldr	r0, [r7, #28]
 80007aa:	f000 faa9 	bl	8000d00 <verify_address>
 80007ae:	4603      	mov	r3, r0
 80007b0:	2b00      	cmp	r3, #0
 80007b2:	d110      	bne.n	80007d6 <bootloader_handle_go_cmd+0x92>
        {
            //tell host that address is fine
            bootloader_uart_write_data(&addr_valid,1);
 80007b4:	f107 030f 	add.w	r3, r7, #15
 80007b8:	2101      	movs	r1, #1
 80007ba:	4618      	mov	r0, r3
 80007bc:	f000 fa60 	bl	8000c80 <bootloader_uart_write_data>
            Its not the duty of bootloader. so just trust and jump */

            /* Not doing the below line will result in hardfault exception for ARM cortex M */
            //watch : https://www.youtube.com/watch?v=VX_12SjnNhY

            go_address+=1; //make T bit =1
 80007c0:	69fb      	ldr	r3, [r7, #28]
 80007c2:	3301      	adds	r3, #1
 80007c4:	61fb      	str	r3, [r7, #28]

            void (*lets_jump)(void) = (void *)go_address;
 80007c6:	69fb      	ldr	r3, [r7, #28]
 80007c8:	613b      	str	r3, [r7, #16]

            printmsg("BL_DEBUG_MSG: jumping to go address! \n");
 80007ca:	4810      	ldr	r0, [pc, #64]	; (800080c <bootloader_handle_go_cmd+0xc8>)
 80007cc:	f7ff fdb0 	bl	8000330 <printmsg>

            lets_jump();
 80007d0:	693b      	ldr	r3, [r7, #16]
 80007d2:	4798      	blx	r3
        printmsg("BL_DEBUG_MSG:checksum fail !!\n");
        bootloader_send_nack();
	}


}
 80007d4:	e00e      	b.n	80007f4 <bootloader_handle_go_cmd+0xb0>
            printmsg("BL_DEBUG_MSG:GO addr invalid ! \n");
 80007d6:	480e      	ldr	r0, [pc, #56]	; (8000810 <bootloader_handle_go_cmd+0xcc>)
 80007d8:	f7ff fdaa 	bl	8000330 <printmsg>
            bootloader_uart_write_data(&addr_invalid,1);
 80007dc:	f107 030e 	add.w	r3, r7, #14
 80007e0:	2101      	movs	r1, #1
 80007e2:	4618      	mov	r0, r3
 80007e4:	f000 fa4c 	bl	8000c80 <bootloader_uart_write_data>
}
 80007e8:	e004      	b.n	80007f4 <bootloader_handle_go_cmd+0xb0>
        printmsg("BL_DEBUG_MSG:checksum fail !!\n");
 80007ea:	480a      	ldr	r0, [pc, #40]	; (8000814 <bootloader_handle_go_cmd+0xd0>)
 80007ec:	f7ff fda0 	bl	8000330 <printmsg>
        bootloader_send_nack();
 80007f0:	f000 fa00 	bl	8000bf4 <bootloader_send_nack>
}
 80007f4:	bf00      	nop
 80007f6:	3720      	adds	r7, #32
 80007f8:	46bd      	mov	sp, r7
 80007fa:	bd80      	pop	{r7, pc}
 80007fc:	08002c7c 	.word	0x08002c7c
 8000800:	20000084 	.word	0x20000084
 8000804:	08002b50 	.word	0x08002b50
 8000808:	08002ca4 	.word	0x08002ca4
 800080c:	08002cc0 	.word	0x08002cc0
 8000810:	08002ce8 	.word	0x08002ce8
 8000814:	08002b94 	.word	0x08002b94

08000818 <bootloader_handle_flash_erase_cmd>:

/*Helper function to handle BL_FLASH_ERASE command */
void bootloader_handle_flash_erase_cmd(uint8_t *pBuffer)
{
 8000818:	b580      	push	{r7, lr}
 800081a:	b086      	sub	sp, #24
 800081c:	af00      	add	r7, sp, #0
 800081e:	6078      	str	r0, [r7, #4]
    uint8_t erase_status = 0x00;
 8000820:	2300      	movs	r3, #0
 8000822:	73fb      	strb	r3, [r7, #15]
    printmsg("BL_DEBUG_MSG:bootloader_handle_flash_erase_cmd\n");
 8000824:	4825      	ldr	r0, [pc, #148]	; (80008bc <bootloader_handle_flash_erase_cmd+0xa4>)
 8000826:	f7ff fd83 	bl	8000330 <printmsg>

    //Total length of the command packet
	uint32_t command_packet_len = bl_rx_buffer[0]+1 ;
 800082a:	4b25      	ldr	r3, [pc, #148]	; (80008c0 <bootloader_handle_flash_erase_cmd+0xa8>)
 800082c:	781b      	ldrb	r3, [r3, #0]
 800082e:	3301      	adds	r3, #1
 8000830:	617b      	str	r3, [r7, #20]

	//extract the CRC32 sent by the Host
	uint32_t host_crc = *((uint32_t * ) (bl_rx_buffer+command_packet_len - 4) ) ;
 8000832:	697b      	ldr	r3, [r7, #20]
 8000834:	3b04      	subs	r3, #4
 8000836:	4a22      	ldr	r2, [pc, #136]	; (80008c0 <bootloader_handle_flash_erase_cmd+0xa8>)
 8000838:	4413      	add	r3, r2
 800083a:	681b      	ldr	r3, [r3, #0]
 800083c:	613b      	str	r3, [r7, #16]

	if (! bootloader_verify_crc(&bl_rx_buffer[0],command_packet_len-4,host_crc))
 800083e:	697b      	ldr	r3, [r7, #20]
 8000840:	3b04      	subs	r3, #4
 8000842:	693a      	ldr	r2, [r7, #16]
 8000844:	4619      	mov	r1, r3
 8000846:	481e      	ldr	r0, [pc, #120]	; (80008c0 <bootloader_handle_flash_erase_cmd+0xa8>)
 8000848:	f000 f9e6 	bl	8000c18 <bootloader_verify_crc>
 800084c:	4603      	mov	r3, r0
 800084e:	2b00      	cmp	r3, #0
 8000850:	d12b      	bne.n	80008aa <bootloader_handle_flash_erase_cmd+0x92>
	{
        printmsg("BL_DEBUG_MSG:checksum success !!\n");
 8000852:	481c      	ldr	r0, [pc, #112]	; (80008c4 <bootloader_handle_flash_erase_cmd+0xac>)
 8000854:	f7ff fd6c 	bl	8000330 <printmsg>
        bootloader_send_ack(pBuffer[0],1);
 8000858:	687b      	ldr	r3, [r7, #4]
 800085a:	781b      	ldrb	r3, [r3, #0]
 800085c:	2101      	movs	r1, #1
 800085e:	4618      	mov	r0, r3
 8000860:	f000 f9ae 	bl	8000bc0 <bootloader_send_ack>
        printmsg("BL_DEBUG_MSG:initial_sector : %d  no_ofsectors: %d\n",pBuffer[2],pBuffer[3]);
 8000864:	687b      	ldr	r3, [r7, #4]
 8000866:	3302      	adds	r3, #2
 8000868:	781b      	ldrb	r3, [r3, #0]
 800086a:	4619      	mov	r1, r3
 800086c:	687b      	ldr	r3, [r7, #4]
 800086e:	3303      	adds	r3, #3
 8000870:	781b      	ldrb	r3, [r3, #0]
 8000872:	461a      	mov	r2, r3
 8000874:	4814      	ldr	r0, [pc, #80]	; (80008c8 <bootloader_handle_flash_erase_cmd+0xb0>)
 8000876:	f7ff fd5b 	bl	8000330 <printmsg>

       // HAL_GPIO_WritePin(LD2_GPIO_Port, LD2_Pin,1);
        erase_status = execute_flash_erase(pBuffer[2] , pBuffer[3]);
 800087a:	687b      	ldr	r3, [r7, #4]
 800087c:	3302      	adds	r3, #2
 800087e:	781a      	ldrb	r2, [r3, #0]
 8000880:	687b      	ldr	r3, [r7, #4]
 8000882:	3303      	adds	r3, #3
 8000884:	781b      	ldrb	r3, [r3, #0]
 8000886:	4619      	mov	r1, r3
 8000888:	4610      	mov	r0, r2
 800088a:	f000 fa5b 	bl	8000d44 <execute_flash_erase>
 800088e:	4603      	mov	r3, r0
 8000890:	73fb      	strb	r3, [r7, #15]
       // HAL_GPIO_WritePin(LD2_GPIO_Port, LD2_Pin,0);

        printmsg("BL_DEBUG_MSG: flash erase status: %#x\n",erase_status);
 8000892:	7bfb      	ldrb	r3, [r7, #15]
 8000894:	4619      	mov	r1, r3
 8000896:	480d      	ldr	r0, [pc, #52]	; (80008cc <bootloader_handle_flash_erase_cmd+0xb4>)
 8000898:	f7ff fd4a 	bl	8000330 <printmsg>

        bootloader_uart_write_data(&erase_status,1);
 800089c:	f107 030f 	add.w	r3, r7, #15
 80008a0:	2101      	movs	r1, #1
 80008a2:	4618      	mov	r0, r3
 80008a4:	f000 f9ec 	bl	8000c80 <bootloader_uart_write_data>
	}else
	{
        printmsg("BL_DEBUG_MSG:checksum fail !!\n");
        bootloader_send_nack();
	}
}
 80008a8:	e004      	b.n	80008b4 <bootloader_handle_flash_erase_cmd+0x9c>
        printmsg("BL_DEBUG_MSG:checksum fail !!\n");
 80008aa:	4809      	ldr	r0, [pc, #36]	; (80008d0 <bootloader_handle_flash_erase_cmd+0xb8>)
 80008ac:	f7ff fd40 	bl	8000330 <printmsg>
        bootloader_send_nack();
 80008b0:	f000 f9a0 	bl	8000bf4 <bootloader_send_nack>
}
 80008b4:	bf00      	nop
 80008b6:	3718      	adds	r7, #24
 80008b8:	46bd      	mov	sp, r7
 80008ba:	bd80      	pop	{r7, pc}
 80008bc:	08002d0c 	.word	0x08002d0c
 80008c0:	20000084 	.word	0x20000084
 80008c4:	08002b50 	.word	0x08002b50
 80008c8:	08002d3c 	.word	0x08002d3c
 80008cc:	08002d70 	.word	0x08002d70
 80008d0:	08002b94 	.word	0x08002b94

080008d4 <bootloader_handle_mem_write_cmd>:

/*Helper function to handle BL_MEM_WRITE command */
void bootloader_handle_mem_write_cmd(uint8_t *pBuffer)
{
 80008d4:	b580      	push	{r7, lr}
 80008d6:	b088      	sub	sp, #32
 80008d8:	af00      	add	r7, sp, #0
 80008da:	6078      	str	r0, [r7, #4]
	uint8_t addr_valid = ADDR_VALID;
 80008dc:	2300      	movs	r3, #0
 80008de:	77fb      	strb	r3, [r7, #31]
	uint8_t write_status = 0x00;
 80008e0:	2300      	movs	r3, #0
 80008e2:	73fb      	strb	r3, [r7, #15]
	uint8_t chksum =0, len=0;
 80008e4:	2300      	movs	r3, #0
 80008e6:	77bb      	strb	r3, [r7, #30]
 80008e8:	2300      	movs	r3, #0
 80008ea:	777b      	strb	r3, [r7, #29]
	len = pBuffer[0];
 80008ec:	687b      	ldr	r3, [r7, #4]
 80008ee:	781b      	ldrb	r3, [r3, #0]
 80008f0:	777b      	strb	r3, [r7, #29]
	uint8_t payload_len = pBuffer[6];
 80008f2:	687b      	ldr	r3, [r7, #4]
 80008f4:	799b      	ldrb	r3, [r3, #6]
 80008f6:	773b      	strb	r3, [r7, #28]

	uint32_t mem_address = *((uint32_t *) ( &pBuffer[2]) );
 80008f8:	687b      	ldr	r3, [r7, #4]
 80008fa:	f8d3 3002 	ldr.w	r3, [r3, #2]
 80008fe:	61bb      	str	r3, [r7, #24]

	chksum = pBuffer[len];
 8000900:	7f7b      	ldrb	r3, [r7, #29]
 8000902:	687a      	ldr	r2, [r7, #4]
 8000904:	4413      	add	r3, r2
 8000906:	781b      	ldrb	r3, [r3, #0]
 8000908:	77bb      	strb	r3, [r7, #30]

    printmsg("BL_DEBUG_MSG:bootloader_handle_mem_write_cmd\n");
 800090a:	4829      	ldr	r0, [pc, #164]	; (80009b0 <bootloader_handle_mem_write_cmd+0xdc>)
 800090c:	f7ff fd10 	bl	8000330 <printmsg>

    //Total length of the command packet
	uint32_t command_packet_len = bl_rx_buffer[0]+1 ;
 8000910:	4b28      	ldr	r3, [pc, #160]	; (80009b4 <bootloader_handle_mem_write_cmd+0xe0>)
 8000912:	781b      	ldrb	r3, [r3, #0]
 8000914:	3301      	adds	r3, #1
 8000916:	617b      	str	r3, [r7, #20]

	//extract the CRC32 sent by the Host
	uint32_t host_crc = *((uint32_t * ) (bl_rx_buffer+command_packet_len - 4) ) ;
 8000918:	697b      	ldr	r3, [r7, #20]
 800091a:	3b04      	subs	r3, #4
 800091c:	4a25      	ldr	r2, [pc, #148]	; (80009b4 <bootloader_handle_mem_write_cmd+0xe0>)
 800091e:	4413      	add	r3, r2
 8000920:	681b      	ldr	r3, [r3, #0]
 8000922:	613b      	str	r3, [r7, #16]


	if (! bootloader_verify_crc(&bl_rx_buffer[0],command_packet_len-4,host_crc))
 8000924:	697b      	ldr	r3, [r7, #20]
 8000926:	3b04      	subs	r3, #4
 8000928:	693a      	ldr	r2, [r7, #16]
 800092a:	4619      	mov	r1, r3
 800092c:	4821      	ldr	r0, [pc, #132]	; (80009b4 <bootloader_handle_mem_write_cmd+0xe0>)
 800092e:	f000 f973 	bl	8000c18 <bootloader_verify_crc>
 8000932:	4603      	mov	r3, r0
 8000934:	2b00      	cmp	r3, #0
 8000936:	d131      	bne.n	800099c <bootloader_handle_mem_write_cmd+0xc8>
	{
        printmsg("BL_DEBUG_MSG:checksum success !!\n");
 8000938:	481f      	ldr	r0, [pc, #124]	; (80009b8 <bootloader_handle_mem_write_cmd+0xe4>)
 800093a:	f7ff fcf9 	bl	8000330 <printmsg>

        bootloader_send_ack(pBuffer[0],1);
 800093e:	687b      	ldr	r3, [r7, #4]
 8000940:	781b      	ldrb	r3, [r3, #0]
 8000942:	2101      	movs	r1, #1
 8000944:	4618      	mov	r0, r3
 8000946:	f000 f93b 	bl	8000bc0 <bootloader_send_ack>

        printmsg("BL_DEBUG_MSG: mem write address : %#x\n",mem_address);
 800094a:	69b9      	ldr	r1, [r7, #24]
 800094c:	481b      	ldr	r0, [pc, #108]	; (80009bc <bootloader_handle_mem_write_cmd+0xe8>)
 800094e:	f7ff fcef 	bl	8000330 <printmsg>

		if( verify_address(mem_address) == ADDR_VALID )
 8000952:	69b8      	ldr	r0, [r7, #24]
 8000954:	f000 f9d4 	bl	8000d00 <verify_address>
 8000958:	4603      	mov	r3, r0
 800095a:	2b00      	cmp	r3, #0
 800095c:	d112      	bne.n	8000984 <bootloader_handle_mem_write_cmd+0xb0>
		{

            printmsg("BL_DEBUG_MSG: valid mem write address\n");
 800095e:	4818      	ldr	r0, [pc, #96]	; (80009c0 <bootloader_handle_mem_write_cmd+0xec>)
 8000960:	f7ff fce6 	bl	8000330 <printmsg>

            //glow the led to indicate bootloader is currently writing to memory
            //HAL_GPIO_WritePin(LD2_GPIO_Port, LD2_Pin, GPIO_PIN_SET);

            //execute mem write
            write_status = execute_mem_write(&pBuffer[7],mem_address, payload_len);
 8000964:	687b      	ldr	r3, [r7, #4]
 8000966:	3307      	adds	r3, #7
 8000968:	7f3a      	ldrb	r2, [r7, #28]
 800096a:	69b9      	ldr	r1, [r7, #24]
 800096c:	4618      	mov	r0, r3
 800096e:	f000 fa2f 	bl	8000dd0 <execute_mem_write>
 8000972:	4603      	mov	r3, r0
 8000974:	73fb      	strb	r3, [r7, #15]

            //turn off the led to indicate memory write is over
           // HAL_GPIO_WritePin(LD2_GPIO_Port, LD2_Pin, GPIO_PIN_RESET);

            //inform host about the status
            bootloader_uart_write_data(&write_status,1);
 8000976:	f107 030f 	add.w	r3, r7, #15
 800097a:	2101      	movs	r1, #1
 800097c:	4618      	mov	r0, r3
 800097e:	f000 f97f 	bl	8000c80 <bootloader_uart_write_data>
	{
        printmsg("BL_DEBUG_MSG:checksum fail !!\n");
        bootloader_send_nack();
	}

}
 8000982:	e010      	b.n	80009a6 <bootloader_handle_mem_write_cmd+0xd2>
            printmsg("BL_DEBUG_MSG: invalid mem write address\n");
 8000984:	480f      	ldr	r0, [pc, #60]	; (80009c4 <bootloader_handle_mem_write_cmd+0xf0>)
 8000986:	f7ff fcd3 	bl	8000330 <printmsg>
            write_status = ADDR_INVALID;
 800098a:	2301      	movs	r3, #1
 800098c:	73fb      	strb	r3, [r7, #15]
            bootloader_uart_write_data(&write_status,1);
 800098e:	f107 030f 	add.w	r3, r7, #15
 8000992:	2101      	movs	r1, #1
 8000994:	4618      	mov	r0, r3
 8000996:	f000 f973 	bl	8000c80 <bootloader_uart_write_data>
}
 800099a:	e004      	b.n	80009a6 <bootloader_handle_mem_write_cmd+0xd2>
        printmsg("BL_DEBUG_MSG:checksum fail !!\n");
 800099c:	480a      	ldr	r0, [pc, #40]	; (80009c8 <bootloader_handle_mem_write_cmd+0xf4>)
 800099e:	f7ff fcc7 	bl	8000330 <printmsg>
        bootloader_send_nack();
 80009a2:	f000 f927 	bl	8000bf4 <bootloader_send_nack>
}
 80009a6:	bf00      	nop
 80009a8:	3720      	adds	r7, #32
 80009aa:	46bd      	mov	sp, r7
 80009ac:	bd80      	pop	{r7, pc}
 80009ae:	bf00      	nop
 80009b0:	08002d98 	.word	0x08002d98
 80009b4:	20000084 	.word	0x20000084
 80009b8:	08002b50 	.word	0x08002b50
 80009bc:	08002dc8 	.word	0x08002dc8
 80009c0:	08002df0 	.word	0x08002df0
 80009c4:	08002e18 	.word	0x08002e18
 80009c8:	08002b94 	.word	0x08002b94

080009cc <bootloader_handle_en_rw_protect>:

/*Helper function to handle BL_EN_RW_PROTECT  command */
void bootloader_handle_en_rw_protect(uint8_t *pBuffer)
{
 80009cc:	b580      	push	{r7, lr}
 80009ce:	b086      	sub	sp, #24
 80009d0:	af00      	add	r7, sp, #0
 80009d2:	6078      	str	r0, [r7, #4]
    uint8_t status = 0x00;
 80009d4:	2300      	movs	r3, #0
 80009d6:	73fb      	strb	r3, [r7, #15]
    printmsg("BL_DEBUG_MSG:bootloader_handle_endis_rw_protect\n");
 80009d8:	4820      	ldr	r0, [pc, #128]	; (8000a5c <bootloader_handle_en_rw_protect+0x90>)
 80009da:	f7ff fca9 	bl	8000330 <printmsg>

    //Total length of the command packet
	uint32_t command_packet_len = bl_rx_buffer[0]+1 ;
 80009de:	4b20      	ldr	r3, [pc, #128]	; (8000a60 <bootloader_handle_en_rw_protect+0x94>)
 80009e0:	781b      	ldrb	r3, [r3, #0]
 80009e2:	3301      	adds	r3, #1
 80009e4:	617b      	str	r3, [r7, #20]

	//extract the CRC32 sent by the Host
	uint32_t host_crc = *((uint32_t * ) (bl_rx_buffer+command_packet_len - 4) ) ;
 80009e6:	697b      	ldr	r3, [r7, #20]
 80009e8:	3b04      	subs	r3, #4
 80009ea:	4a1d      	ldr	r2, [pc, #116]	; (8000a60 <bootloader_handle_en_rw_protect+0x94>)
 80009ec:	4413      	add	r3, r2
 80009ee:	681b      	ldr	r3, [r3, #0]
 80009f0:	613b      	str	r3, [r7, #16]

	if (! bootloader_verify_crc(&bl_rx_buffer[0],command_packet_len-4,host_crc))
 80009f2:	697b      	ldr	r3, [r7, #20]
 80009f4:	3b04      	subs	r3, #4
 80009f6:	693a      	ldr	r2, [r7, #16]
 80009f8:	4619      	mov	r1, r3
 80009fa:	4819      	ldr	r0, [pc, #100]	; (8000a60 <bootloader_handle_en_rw_protect+0x94>)
 80009fc:	f000 f90c 	bl	8000c18 <bootloader_verify_crc>
 8000a00:	4603      	mov	r3, r0
 8000a02:	2b00      	cmp	r3, #0
 8000a04:	d120      	bne.n	8000a48 <bootloader_handle_en_rw_protect+0x7c>
	{
        printmsg("BL_DEBUG_MSG:checksum success !!\n");
 8000a06:	4817      	ldr	r0, [pc, #92]	; (8000a64 <bootloader_handle_en_rw_protect+0x98>)
 8000a08:	f7ff fc92 	bl	8000330 <printmsg>
        bootloader_send_ack(pBuffer[0],1);
 8000a0c:	687b      	ldr	r3, [r7, #4]
 8000a0e:	781b      	ldrb	r3, [r3, #0]
 8000a10:	2101      	movs	r1, #1
 8000a12:	4618      	mov	r0, r3
 8000a14:	f000 f8d4 	bl	8000bc0 <bootloader_send_ack>

        status = configure_flash_sector_rw_protection(pBuffer[2] , pBuffer[3],0);
 8000a18:	687b      	ldr	r3, [r7, #4]
 8000a1a:	3302      	adds	r3, #2
 8000a1c:	7818      	ldrb	r0, [r3, #0]
 8000a1e:	687b      	ldr	r3, [r7, #4]
 8000a20:	3303      	adds	r3, #3
 8000a22:	781b      	ldrb	r3, [r3, #0]
 8000a24:	2200      	movs	r2, #0
 8000a26:	4619      	mov	r1, r3
 8000a28:	f000 fa16 	bl	8000e58 <configure_flash_sector_rw_protection>
 8000a2c:	4603      	mov	r3, r0
 8000a2e:	73fb      	strb	r3, [r7, #15]

        printmsg("BL_DEBUG_MSG: flash erase status: %#x\n",status);
 8000a30:	7bfb      	ldrb	r3, [r7, #15]
 8000a32:	4619      	mov	r1, r3
 8000a34:	480c      	ldr	r0, [pc, #48]	; (8000a68 <bootloader_handle_en_rw_protect+0x9c>)
 8000a36:	f7ff fc7b 	bl	8000330 <printmsg>

        bootloader_uart_write_data(&status,1);
 8000a3a:	f107 030f 	add.w	r3, r7, #15
 8000a3e:	2101      	movs	r1, #1
 8000a40:	4618      	mov	r0, r3
 8000a42:	f000 f91d 	bl	8000c80 <bootloader_uart_write_data>
        printmsg("BL_DEBUG_MSG:checksum fail !!\n");
        bootloader_send_nack();
	}


}
 8000a46:	e004      	b.n	8000a52 <bootloader_handle_en_rw_protect+0x86>
        printmsg("BL_DEBUG_MSG:checksum fail !!\n");
 8000a48:	4808      	ldr	r0, [pc, #32]	; (8000a6c <bootloader_handle_en_rw_protect+0xa0>)
 8000a4a:	f7ff fc71 	bl	8000330 <printmsg>
        bootloader_send_nack();
 8000a4e:	f000 f8d1 	bl	8000bf4 <bootloader_send_nack>
}
 8000a52:	bf00      	nop
 8000a54:	3718      	adds	r7, #24
 8000a56:	46bd      	mov	sp, r7
 8000a58:	bd80      	pop	{r7, pc}
 8000a5a:	bf00      	nop
 8000a5c:	08002e44 	.word	0x08002e44
 8000a60:	20000084 	.word	0x20000084
 8000a64:	08002b50 	.word	0x08002b50
 8000a68:	08002d70 	.word	0x08002d70
 8000a6c:	08002b94 	.word	0x08002b94

08000a70 <bootloader_handle_dis_rw_protect>:


/*Helper function to handle BL_EN_RW_PROTECT  command */
void bootloader_handle_dis_rw_protect(uint8_t *pBuffer)
{
 8000a70:	b580      	push	{r7, lr}
 8000a72:	b086      	sub	sp, #24
 8000a74:	af00      	add	r7, sp, #0
 8000a76:	6078      	str	r0, [r7, #4]
    uint8_t status = 0x00;
 8000a78:	2300      	movs	r3, #0
 8000a7a:	73fb      	strb	r3, [r7, #15]
    printmsg("BL_DEBUG_MSG:bootloader_handle_dis_rw_protect\n");
 8000a7c:	481d      	ldr	r0, [pc, #116]	; (8000af4 <bootloader_handle_dis_rw_protect+0x84>)
 8000a7e:	f7ff fc57 	bl	8000330 <printmsg>

    //Total length of the command packet
	uint32_t command_packet_len = bl_rx_buffer[0]+1 ;
 8000a82:	4b1d      	ldr	r3, [pc, #116]	; (8000af8 <bootloader_handle_dis_rw_protect+0x88>)
 8000a84:	781b      	ldrb	r3, [r3, #0]
 8000a86:	3301      	adds	r3, #1
 8000a88:	617b      	str	r3, [r7, #20]

	//extract the CRC32 sent by the Host
	uint32_t host_crc = *((uint32_t * ) (bl_rx_buffer+command_packet_len - 4) ) ;
 8000a8a:	697b      	ldr	r3, [r7, #20]
 8000a8c:	3b04      	subs	r3, #4
 8000a8e:	4a1a      	ldr	r2, [pc, #104]	; (8000af8 <bootloader_handle_dis_rw_protect+0x88>)
 8000a90:	4413      	add	r3, r2
 8000a92:	681b      	ldr	r3, [r3, #0]
 8000a94:	613b      	str	r3, [r7, #16]

	if (! bootloader_verify_crc(&bl_rx_buffer[0],command_packet_len-4,host_crc))
 8000a96:	697b      	ldr	r3, [r7, #20]
 8000a98:	3b04      	subs	r3, #4
 8000a9a:	693a      	ldr	r2, [r7, #16]
 8000a9c:	4619      	mov	r1, r3
 8000a9e:	4816      	ldr	r0, [pc, #88]	; (8000af8 <bootloader_handle_dis_rw_protect+0x88>)
 8000aa0:	f000 f8ba 	bl	8000c18 <bootloader_verify_crc>
 8000aa4:	4603      	mov	r3, r0
 8000aa6:	2b00      	cmp	r3, #0
 8000aa8:	d11b      	bne.n	8000ae2 <bootloader_handle_dis_rw_protect+0x72>
	{
        printmsg("BL_DEBUG_MSG:checksum success !!\n");
 8000aaa:	4814      	ldr	r0, [pc, #80]	; (8000afc <bootloader_handle_dis_rw_protect+0x8c>)
 8000aac:	f7ff fc40 	bl	8000330 <printmsg>
        bootloader_send_ack(pBuffer[0],1);
 8000ab0:	687b      	ldr	r3, [r7, #4]
 8000ab2:	781b      	ldrb	r3, [r3, #0]
 8000ab4:	2101      	movs	r1, #1
 8000ab6:	4618      	mov	r0, r3
 8000ab8:	f000 f882 	bl	8000bc0 <bootloader_send_ack>

        status = configure_flash_sector_rw_protection(0,0,1);
 8000abc:	2201      	movs	r2, #1
 8000abe:	2100      	movs	r1, #0
 8000ac0:	2000      	movs	r0, #0
 8000ac2:	f000 f9c9 	bl	8000e58 <configure_flash_sector_rw_protection>
 8000ac6:	4603      	mov	r3, r0
 8000ac8:	73fb      	strb	r3, [r7, #15]

        printmsg("BL_DEBUG_MSG: flash erase status: %#x\n",status);
 8000aca:	7bfb      	ldrb	r3, [r7, #15]
 8000acc:	4619      	mov	r1, r3
 8000ace:	480c      	ldr	r0, [pc, #48]	; (8000b00 <bootloader_handle_dis_rw_protect+0x90>)
 8000ad0:	f7ff fc2e 	bl	8000330 <printmsg>

        bootloader_uart_write_data(&status,1);
 8000ad4:	f107 030f 	add.w	r3, r7, #15
 8000ad8:	2101      	movs	r1, #1
 8000ada:	4618      	mov	r0, r3
 8000adc:	f000 f8d0 	bl	8000c80 <bootloader_uart_write_data>
        printmsg("BL_DEBUG_MSG:checksum fail !!\n");
        bootloader_send_nack();
	}


}
 8000ae0:	e004      	b.n	8000aec <bootloader_handle_dis_rw_protect+0x7c>
        printmsg("BL_DEBUG_MSG:checksum fail !!\n");
 8000ae2:	4808      	ldr	r0, [pc, #32]	; (8000b04 <bootloader_handle_dis_rw_protect+0x94>)
 8000ae4:	f7ff fc24 	bl	8000330 <printmsg>
        bootloader_send_nack();
 8000ae8:	f000 f884 	bl	8000bf4 <bootloader_send_nack>
}
 8000aec:	bf00      	nop
 8000aee:	3718      	adds	r7, #24
 8000af0:	46bd      	mov	sp, r7
 8000af2:	bd80      	pop	{r7, pc}
 8000af4:	08002e78 	.word	0x08002e78
 8000af8:	20000084 	.word	0x20000084
 8000afc:	08002b50 	.word	0x08002b50
 8000b00:	08002d70 	.word	0x08002d70
 8000b04:	08002b94 	.word	0x08002b94

08000b08 <bootloader_handle_mem_read>:

/*Helper function to handle BL_MEM_READ command */
void bootloader_handle_mem_read (uint8_t *pBuffer)
{
 8000b08:	b480      	push	{r7}
 8000b0a:	b083      	sub	sp, #12
 8000b0c:	af00      	add	r7, sp, #0
 8000b0e:	6078      	str	r0, [r7, #4]


}
 8000b10:	bf00      	nop
 8000b12:	370c      	adds	r7, #12
 8000b14:	46bd      	mov	sp, r7
 8000b16:	bc80      	pop	{r7}
 8000b18:	4770      	bx	lr
	...

08000b1c <bootloader_handle_read_sector_protection_status>:

/*Helper function to handle _BL_READ_SECTOR_P_STATUS command */
void bootloader_handle_read_sector_protection_status(uint8_t *pBuffer)
{
 8000b1c:	b580      	push	{r7, lr}
 8000b1e:	b086      	sub	sp, #24
 8000b20:	af00      	add	r7, sp, #0
 8000b22:	6078      	str	r0, [r7, #4]
	 uint16_t status;
	printmsg("BL_DEBUG_MSG:bootloader_handle_read_sector_protection_status\n");
 8000b24:	481c      	ldr	r0, [pc, #112]	; (8000b98 <bootloader_handle_read_sector_protection_status+0x7c>)
 8000b26:	f7ff fc03 	bl	8000330 <printmsg>

    //Total length of the command packet
	uint32_t command_packet_len = bl_rx_buffer[0]+1 ;
 8000b2a:	4b1c      	ldr	r3, [pc, #112]	; (8000b9c <bootloader_handle_read_sector_protection_status+0x80>)
 8000b2c:	781b      	ldrb	r3, [r3, #0]
 8000b2e:	3301      	adds	r3, #1
 8000b30:	617b      	str	r3, [r7, #20]

	//extract the CRC32 sent by the Host
	uint32_t host_crc = *((uint32_t * ) (bl_rx_buffer+command_packet_len - 4) ) ;
 8000b32:	697b      	ldr	r3, [r7, #20]
 8000b34:	3b04      	subs	r3, #4
 8000b36:	4a19      	ldr	r2, [pc, #100]	; (8000b9c <bootloader_handle_read_sector_protection_status+0x80>)
 8000b38:	4413      	add	r3, r2
 8000b3a:	681b      	ldr	r3, [r3, #0]
 8000b3c:	613b      	str	r3, [r7, #16]

	if (! bootloader_verify_crc(&bl_rx_buffer[0],command_packet_len-4,host_crc))
 8000b3e:	697b      	ldr	r3, [r7, #20]
 8000b40:	3b04      	subs	r3, #4
 8000b42:	693a      	ldr	r2, [r7, #16]
 8000b44:	4619      	mov	r1, r3
 8000b46:	4815      	ldr	r0, [pc, #84]	; (8000b9c <bootloader_handle_read_sector_protection_status+0x80>)
 8000b48:	f000 f866 	bl	8000c18 <bootloader_verify_crc>
 8000b4c:	4603      	mov	r3, r0
 8000b4e:	2b00      	cmp	r3, #0
 8000b50:	d118      	bne.n	8000b84 <bootloader_handle_read_sector_protection_status+0x68>
	{
        printmsg("BL_DEBUG_MSG:checksum success !!\n");
 8000b52:	4813      	ldr	r0, [pc, #76]	; (8000ba0 <bootloader_handle_read_sector_protection_status+0x84>)
 8000b54:	f7ff fbec 	bl	8000330 <printmsg>
        bootloader_send_ack(pBuffer[0],2);
 8000b58:	687b      	ldr	r3, [r7, #4]
 8000b5a:	781b      	ldrb	r3, [r3, #0]
 8000b5c:	2102      	movs	r1, #2
 8000b5e:	4618      	mov	r0, r3
 8000b60:	f000 f82e 	bl	8000bc0 <bootloader_send_ack>
        status=read_OB_rw_protection_status();
 8000b64:	f000 fa0e 	bl	8000f84 <read_OB_rw_protection_status>
 8000b68:	4603      	mov	r3, r0
 8000b6a:	81fb      	strh	r3, [r7, #14]
        printmsg("BL_DEBUG_MSG: nWRP status: %#x\n",status);
 8000b6c:	89fb      	ldrh	r3, [r7, #14]
 8000b6e:	4619      	mov	r1, r3
 8000b70:	480c      	ldr	r0, [pc, #48]	; (8000ba4 <bootloader_handle_read_sector_protection_status+0x88>)
 8000b72:	f7ff fbdd 	bl	8000330 <printmsg>
        bootloader_uart_write_data((uint8_t*)&status,2);
 8000b76:	f107 030e 	add.w	r3, r7, #14
 8000b7a:	2102      	movs	r1, #2
 8000b7c:	4618      	mov	r0, r3
 8000b7e:	f000 f87f 	bl	8000c80 <bootloader_uart_write_data>
	{
        printmsg("BL_DEBUG_MSG:checksum fail !!\n");
        bootloader_send_nack();
	}

}
 8000b82:	e004      	b.n	8000b8e <bootloader_handle_read_sector_protection_status+0x72>
        printmsg("BL_DEBUG_MSG:checksum fail !!\n");
 8000b84:	4808      	ldr	r0, [pc, #32]	; (8000ba8 <bootloader_handle_read_sector_protection_status+0x8c>)
 8000b86:	f7ff fbd3 	bl	8000330 <printmsg>
        bootloader_send_nack();
 8000b8a:	f000 f833 	bl	8000bf4 <bootloader_send_nack>
}
 8000b8e:	bf00      	nop
 8000b90:	3718      	adds	r7, #24
 8000b92:	46bd      	mov	sp, r7
 8000b94:	bd80      	pop	{r7, pc}
 8000b96:	bf00      	nop
 8000b98:	08002ea8 	.word	0x08002ea8
 8000b9c:	20000084 	.word	0x20000084
 8000ba0:	08002b50 	.word	0x08002b50
 8000ba4:	08002ee8 	.word	0x08002ee8
 8000ba8:	08002b94 	.word	0x08002b94

08000bac <bootloader_handle_read_otp>:

/*Helper function to handle BL_OTP_READ command */
void bootloader_handle_read_otp(uint8_t *pBuffer)
{
 8000bac:	b480      	push	{r7}
 8000bae:	b083      	sub	sp, #12
 8000bb0:	af00      	add	r7, sp, #0
 8000bb2:	6078      	str	r0, [r7, #4]


}
 8000bb4:	bf00      	nop
 8000bb6:	370c      	adds	r7, #12
 8000bb8:	46bd      	mov	sp, r7
 8000bba:	bc80      	pop	{r7}
 8000bbc:	4770      	bx	lr
	...

08000bc0 <bootloader_send_ack>:

/*This function sends ACK if CRC matches along with "len to follow"*/
void bootloader_send_ack(uint8_t command_code, uint8_t follow_len)
{
 8000bc0:	b580      	push	{r7, lr}
 8000bc2:	b084      	sub	sp, #16
 8000bc4:	af00      	add	r7, sp, #0
 8000bc6:	4603      	mov	r3, r0
 8000bc8:	460a      	mov	r2, r1
 8000bca:	71fb      	strb	r3, [r7, #7]
 8000bcc:	4613      	mov	r3, r2
 8000bce:	71bb      	strb	r3, [r7, #6]
	 //here we send 2 byte.. first byte is ack and the second byte is len value
	uint8_t ack_buf[2];
	ack_buf[0] = BL_ACK;
 8000bd0:	23a5      	movs	r3, #165	; 0xa5
 8000bd2:	733b      	strb	r3, [r7, #12]
	ack_buf[1] = follow_len;
 8000bd4:	79bb      	ldrb	r3, [r7, #6]
 8000bd6:	737b      	strb	r3, [r7, #13]
	HAL_UART_Transmit(C_UART,ack_buf,2,HAL_MAX_DELAY);
 8000bd8:	f107 010c 	add.w	r1, r7, #12
 8000bdc:	f04f 33ff 	mov.w	r3, #4294967295
 8000be0:	2202      	movs	r2, #2
 8000be2:	4803      	ldr	r0, [pc, #12]	; (8000bf0 <bootloader_send_ack+0x30>)
 8000be4:	f001 fd59 	bl	800269a <HAL_UART_Transmit>

}
 8000be8:	bf00      	nop
 8000bea:	3710      	adds	r7, #16
 8000bec:	46bd      	mov	sp, r7
 8000bee:	bd80      	pop	{r7, pc}
 8000bf0:	20000034 	.word	0x20000034

08000bf4 <bootloader_send_nack>:

/*This function sends NACK */
void bootloader_send_nack(void)
{
 8000bf4:	b580      	push	{r7, lr}
 8000bf6:	b082      	sub	sp, #8
 8000bf8:	af00      	add	r7, sp, #0
	uint8_t nack = BL_NACK;
 8000bfa:	237f      	movs	r3, #127	; 0x7f
 8000bfc:	71fb      	strb	r3, [r7, #7]
	HAL_UART_Transmit(C_UART,&nack,1,HAL_MAX_DELAY);
 8000bfe:	1df9      	adds	r1, r7, #7
 8000c00:	f04f 33ff 	mov.w	r3, #4294967295
 8000c04:	2201      	movs	r2, #1
 8000c06:	4803      	ldr	r0, [pc, #12]	; (8000c14 <bootloader_send_nack+0x20>)
 8000c08:	f001 fd47 	bl	800269a <HAL_UART_Transmit>
}
 8000c0c:	bf00      	nop
 8000c0e:	3708      	adds	r7, #8
 8000c10:	46bd      	mov	sp, r7
 8000c12:	bd80      	pop	{r7, pc}
 8000c14:	20000034 	.word	0x20000034

08000c18 <bootloader_verify_crc>:

//This verifies the CRC of the given buffer in pData .
uint8_t bootloader_verify_crc (uint8_t *pData, uint32_t len, uint32_t crc_host)
{
 8000c18:	b580      	push	{r7, lr}
 8000c1a:	b088      	sub	sp, #32
 8000c1c:	af00      	add	r7, sp, #0
 8000c1e:	60f8      	str	r0, [r7, #12]
 8000c20:	60b9      	str	r1, [r7, #8]
 8000c22:	607a      	str	r2, [r7, #4]
    uint32_t uwCRCValue=0xff;
 8000c24:	23ff      	movs	r3, #255	; 0xff
 8000c26:	61fb      	str	r3, [r7, #28]

    for (uint32_t i=0 ; i < len ; i++)
 8000c28:	2300      	movs	r3, #0
 8000c2a:	61bb      	str	r3, [r7, #24]
 8000c2c:	e00f      	b.n	8000c4e <bootloader_verify_crc+0x36>
	{
        uint32_t i_data = pData[i];
 8000c2e:	68fa      	ldr	r2, [r7, #12]
 8000c30:	69bb      	ldr	r3, [r7, #24]
 8000c32:	4413      	add	r3, r2
 8000c34:	781b      	ldrb	r3, [r3, #0]
 8000c36:	617b      	str	r3, [r7, #20]
        uwCRCValue = HAL_CRC_Accumulate(&hcrc, &i_data, 1);
 8000c38:	f107 0314 	add.w	r3, r7, #20
 8000c3c:	2201      	movs	r2, #1
 8000c3e:	4619      	mov	r1, r3
 8000c40:	480e      	ldr	r0, [pc, #56]	; (8000c7c <bootloader_verify_crc+0x64>)
 8000c42:	f000 fc06 	bl	8001452 <HAL_CRC_Accumulate>
 8000c46:	61f8      	str	r0, [r7, #28]
    for (uint32_t i=0 ; i < len ; i++)
 8000c48:	69bb      	ldr	r3, [r7, #24]
 8000c4a:	3301      	adds	r3, #1
 8000c4c:	61bb      	str	r3, [r7, #24]
 8000c4e:	69ba      	ldr	r2, [r7, #24]
 8000c50:	68bb      	ldr	r3, [r7, #8]
 8000c52:	429a      	cmp	r2, r3
 8000c54:	d3eb      	bcc.n	8000c2e <bootloader_verify_crc+0x16>
	}

	 /* Reset CRC Calculation Unit */
  __HAL_CRC_DR_RESET(&hcrc);
 8000c56:	4b09      	ldr	r3, [pc, #36]	; (8000c7c <bootloader_verify_crc+0x64>)
 8000c58:	681b      	ldr	r3, [r3, #0]
 8000c5a:	689a      	ldr	r2, [r3, #8]
 8000c5c:	4b07      	ldr	r3, [pc, #28]	; (8000c7c <bootloader_verify_crc+0x64>)
 8000c5e:	681b      	ldr	r3, [r3, #0]
 8000c60:	f042 0201 	orr.w	r2, r2, #1
 8000c64:	609a      	str	r2, [r3, #8]

	if( uwCRCValue == crc_host)
 8000c66:	69fa      	ldr	r2, [r7, #28]
 8000c68:	687b      	ldr	r3, [r7, #4]
 8000c6a:	429a      	cmp	r2, r3
 8000c6c:	d101      	bne.n	8000c72 <bootloader_verify_crc+0x5a>
	{
		return VERIFY_CRC_SUCCESS;
 8000c6e:	2300      	movs	r3, #0
 8000c70:	e000      	b.n	8000c74 <bootloader_verify_crc+0x5c>
	}

	return VERIFY_CRC_FAIL;
 8000c72:	2301      	movs	r3, #1
}
 8000c74:	4618      	mov	r0, r3
 8000c76:	3720      	adds	r7, #32
 8000c78:	46bd      	mov	sp, r7
 8000c7a:	bd80      	pop	{r7, pc}
 8000c7c:	20000078 	.word	0x20000078

08000c80 <bootloader_uart_write_data>:

/* This function writes data in to C_UART */
void bootloader_uart_write_data(uint8_t *pBuffer,uint32_t len)
{
 8000c80:	b580      	push	{r7, lr}
 8000c82:	b082      	sub	sp, #8
 8000c84:	af00      	add	r7, sp, #0
 8000c86:	6078      	str	r0, [r7, #4]
 8000c88:	6039      	str	r1, [r7, #0]
    /*you can replace the below ST's USART driver API call with your MCUs driver API call */
	HAL_UART_Transmit(C_UART,pBuffer,len,HAL_MAX_DELAY);
 8000c8a:	683b      	ldr	r3, [r7, #0]
 8000c8c:	b29a      	uxth	r2, r3
 8000c8e:	f04f 33ff 	mov.w	r3, #4294967295
 8000c92:	6879      	ldr	r1, [r7, #4]
 8000c94:	4803      	ldr	r0, [pc, #12]	; (8000ca4 <bootloader_uart_write_data+0x24>)
 8000c96:	f001 fd00 	bl	800269a <HAL_UART_Transmit>

}
 8000c9a:	bf00      	nop
 8000c9c:	3708      	adds	r7, #8
 8000c9e:	46bd      	mov	sp, r7
 8000ca0:	bd80      	pop	{r7, pc}
 8000ca2:	bf00      	nop
 8000ca4:	20000034 	.word	0x20000034

08000ca8 <get_bootloader_version>:


//Just returns the macro value .
uint8_t get_bootloader_version(void)
{
 8000ca8:	b480      	push	{r7}
 8000caa:	af00      	add	r7, sp, #0
  return (uint8_t)BL_VERSION;
 8000cac:	2310      	movs	r3, #16
}
 8000cae:	4618      	mov	r0, r3
 8000cb0:	46bd      	mov	sp, r7
 8000cb2:	bc80      	pop	{r7}
 8000cb4:	4770      	bx	lr
	...

08000cb8 <get_mcu_chip_id>:

//Read the chip identifier or device Identifier
uint16_t get_mcu_chip_id(void)
{
 8000cb8:	b480      	push	{r7}
 8000cba:	b083      	sub	sp, #12
 8000cbc:	af00      	add	r7, sp, #0
	uint16_t cid;
	cid = (uint16_t)(DBGMCU->IDCODE) & 0x0FFF;
 8000cbe:	4b06      	ldr	r3, [pc, #24]	; (8000cd8 <get_mcu_chip_id+0x20>)
 8000cc0:	681b      	ldr	r3, [r3, #0]
 8000cc2:	b29b      	uxth	r3, r3
 8000cc4:	f3c3 030b 	ubfx	r3, r3, #0, #12
 8000cc8:	80fb      	strh	r3, [r7, #6]
	return  cid;
 8000cca:	88fb      	ldrh	r3, [r7, #6]

}
 8000ccc:	4618      	mov	r0, r3
 8000cce:	370c      	adds	r7, #12
 8000cd0:	46bd      	mov	sp, r7
 8000cd2:	bc80      	pop	{r7}
 8000cd4:	4770      	bx	lr
 8000cd6:	bf00      	nop
 8000cd8:	e0042000 	.word	0xe0042000

08000cdc <get_flash_rdp_level>:

/*This function reads the RDP ( Read protection option byte) value
 *For more info refer "Table 9. Description of the option bytes" in stm32f446xx RM
 */
uint8_t get_flash_rdp_level(void)
{
 8000cdc:	b480      	push	{r7}
 8000cde:	b083      	sub	sp, #12
 8000ce0:	af00      	add	r7, sp, #0

	uint8_t rdp_status=0;
 8000ce2:	2300      	movs	r3, #0
 8000ce4:	71fb      	strb	r3, [r7, #7]
	FLASH_OBProgramInitTypeDef  ob_handle;
	HAL_FLASHEx_OBGetConfig(&ob_handle);
	rdp_status = (uint8_t)ob_handle.RDPLevel;
#else

	 volatile uint32_t *pOB_addr = (uint32_t*) 0x1FFFF800;
 8000ce6:	4b05      	ldr	r3, [pc, #20]	; (8000cfc <get_flash_rdp_level+0x20>)
 8000ce8:	603b      	str	r3, [r7, #0]
	 rdp_status =  (uint8_t)(*pOB_addr) ;
 8000cea:	683b      	ldr	r3, [r7, #0]
 8000cec:	681b      	ldr	r3, [r3, #0]
 8000cee:	71fb      	strb	r3, [r7, #7]
#endif

	return rdp_status;
 8000cf0:	79fb      	ldrb	r3, [r7, #7]

}
 8000cf2:	4618      	mov	r0, r3
 8000cf4:	370c      	adds	r7, #12
 8000cf6:	46bd      	mov	sp, r7
 8000cf8:	bc80      	pop	{r7}
 8000cfa:	4770      	bx	lr
 8000cfc:	1ffff800 	.word	0x1ffff800

08000d00 <verify_address>:

//verify the address sent by the host .
uint8_t verify_address(uint32_t go_address)
{
 8000d00:	b480      	push	{r7}
 8000d02:	b083      	sub	sp, #12
 8000d04:	af00      	add	r7, sp, #0
 8000d06:	6078      	str	r0, [r7, #4]
	//can we jump to backup sram memory ? yes
	//can we jump to peripheral memory ? its possible , but dont allow. so no
	//can we jump to external memory ? yes.

//incomplete -poorly written .. optimize it
	if ( go_address >= SRAM_BASE && go_address <= SRAM_END)
 8000d08:	687b      	ldr	r3, [r7, #4]
 8000d0a:	f1b3 5f00 	cmp.w	r3, #536870912	; 0x20000000
 8000d0e:	d305      	bcc.n	8000d1c <verify_address+0x1c>
 8000d10:	687b      	ldr	r3, [r7, #4]
 8000d12:	4a0a      	ldr	r2, [pc, #40]	; (8000d3c <verify_address+0x3c>)
 8000d14:	4293      	cmp	r3, r2
 8000d16:	d801      	bhi.n	8000d1c <verify_address+0x1c>
	{
		return ADDR_VALID;
 8000d18:	2300      	movs	r3, #0
 8000d1a:	e00a      	b.n	8000d32 <verify_address+0x32>
	}

	else if ( go_address >= FLASH_BASE && go_address <= FLASH_END)
 8000d1c:	687b      	ldr	r3, [r7, #4]
 8000d1e:	f1b3 6f00 	cmp.w	r3, #134217728	; 0x8000000
 8000d22:	d305      	bcc.n	8000d30 <verify_address+0x30>
 8000d24:	687b      	ldr	r3, [r7, #4]
 8000d26:	4a06      	ldr	r2, [pc, #24]	; (8000d40 <verify_address+0x40>)
 8000d28:	4293      	cmp	r3, r2
 8000d2a:	d801      	bhi.n	8000d30 <verify_address+0x30>
	{
		return ADDR_VALID;
 8000d2c:	2300      	movs	r3, #0
 8000d2e:	e000      	b.n	8000d32 <verify_address+0x32>
	}
	else
		return ADDR_INVALID;
 8000d30:	2301      	movs	r3, #1
}
 8000d32:	4618      	mov	r0, r3
 8000d34:	370c      	adds	r7, #12
 8000d36:	46bd      	mov	sp, r7
 8000d38:	bc80      	pop	{r7}
 8000d3a:	4770      	bx	lr
 8000d3c:	20005000 	.word	0x20005000
 8000d40:	08020000 	.word	0x08020000

08000d44 <execute_flash_erase>:

 uint8_t execute_flash_erase(uint8_t sector_number , uint8_t number_of_sector)
{
 8000d44:	b580      	push	{r7, lr}
 8000d46:	b088      	sub	sp, #32
 8000d48:	af00      	add	r7, sp, #0
 8000d4a:	4603      	mov	r3, r0
 8000d4c:	460a      	mov	r2, r1
 8000d4e:	71fb      	strb	r3, [r7, #7]
 8000d50:	4613      	mov	r3, r2
 8000d52:	71bb      	strb	r3, [r7, #6]
	FLASH_EraseInitTypeDef flashErase_handle;
	uint32_t sectorError;
	HAL_StatusTypeDef status;


	if( number_of_sector > 128 )
 8000d54:	79bb      	ldrb	r3, [r7, #6]
 8000d56:	2b80      	cmp	r3, #128	; 0x80
 8000d58:	d901      	bls.n	8000d5e <execute_flash_erase+0x1a>
		return INVALID_SECTOR;
 8000d5a:	2304      	movs	r3, #4
 8000d5c:	e034      	b.n	8000dc8 <execute_flash_erase+0x84>

	if( (sector_number == 0xff ) || (sector_number <= 128) )
 8000d5e:	79fb      	ldrb	r3, [r7, #7]
 8000d60:	2bff      	cmp	r3, #255	; 0xff
 8000d62:	d002      	beq.n	8000d6a <execute_flash_erase+0x26>
 8000d64:	79fb      	ldrb	r3, [r7, #7]
 8000d66:	2b80      	cmp	r3, #128	; 0x80
 8000d68:	d82d      	bhi.n	8000dc6 <execute_flash_erase+0x82>
	{
		if(sector_number == (uint8_t) 0xff)
 8000d6a:	79fb      	ldrb	r3, [r7, #7]
 8000d6c:	2bff      	cmp	r3, #255	; 0xff
 8000d6e:	d102      	bne.n	8000d76 <execute_flash_erase+0x32>
		{
			flashErase_handle.TypeErase = FLASH_TYPEERASE_MASSERASE;
 8000d70:	2302      	movs	r3, #2
 8000d72:	60fb      	str	r3, [r7, #12]
 8000d74:	e015      	b.n	8000da2 <execute_flash_erase+0x5e>
		}else
		{
		    /*Here we are just calculating how many sectors needs to erased */
			uint8_t remanining_sector = 128 - sector_number;
 8000d76:	79fb      	ldrb	r3, [r7, #7]
 8000d78:	f1c3 23ff 	rsb	r3, r3, #4278255360	; 0xff00ff00
 8000d7c:	f503 037f 	add.w	r3, r3, #16711680	; 0xff0000
 8000d80:	3380      	adds	r3, #128	; 0x80
 8000d82:	77fb      	strb	r3, [r7, #31]
            if( number_of_sector > remanining_sector)
 8000d84:	79ba      	ldrb	r2, [r7, #6]
 8000d86:	7ffb      	ldrb	r3, [r7, #31]
 8000d88:	429a      	cmp	r2, r3
 8000d8a:	d901      	bls.n	8000d90 <execute_flash_erase+0x4c>
            {
            	number_of_sector = remanining_sector;
 8000d8c:	7ffb      	ldrb	r3, [r7, #31]
 8000d8e:	71bb      	strb	r3, [r7, #6]
            }
			flashErase_handle.TypeErase = FLASH_TYPEERASE_PAGES;
 8000d90:	2300      	movs	r3, #0
 8000d92:	60fb      	str	r3, [r7, #12]
			flashErase_handle.PageAddress = (0x080000000|(sector_number*1024)); // this is the initial sector
 8000d94:	79fb      	ldrb	r3, [r7, #7]
 8000d96:	029b      	lsls	r3, r3, #10
 8000d98:	f043 4300 	orr.w	r3, r3, #2147483648	; 0x80000000
 8000d9c:	617b      	str	r3, [r7, #20]
			flashErase_handle.NbPages = number_of_sector;
 8000d9e:	79bb      	ldrb	r3, [r7, #6]
 8000da0:	61bb      	str	r3, [r7, #24]
		}
		flashErase_handle.Banks = FLASH_BANK_1;
 8000da2:	2301      	movs	r3, #1
 8000da4:	613b      	str	r3, [r7, #16]

		/*Get access to touch the flash registers */
		HAL_FLASH_Unlock();
 8000da6:	f000 fbf5 	bl	8001594 <HAL_FLASH_Unlock>
		//flashErase_handle.VoltageRange = FLASH_VOLTAGE_RANGE_3;  // our mcu will work on this voltage range
		status = (uint8_t) HAL_FLASHEx_Erase(&flashErase_handle, &sectorError);
 8000daa:	f107 0208 	add.w	r2, r7, #8
 8000dae:	f107 030c 	add.w	r3, r7, #12
 8000db2:	4611      	mov	r1, r2
 8000db4:	4618      	mov	r0, r3
 8000db6:	f000 fd01 	bl	80017bc <HAL_FLASHEx_Erase>
 8000dba:	4603      	mov	r3, r0
 8000dbc:	77bb      	strb	r3, [r7, #30]
		HAL_FLASH_Lock();
 8000dbe:	f000 fc0f 	bl	80015e0 <HAL_FLASH_Lock>

		return status;
 8000dc2:	7fbb      	ldrb	r3, [r7, #30]
 8000dc4:	e000      	b.n	8000dc8 <execute_flash_erase+0x84>
	}


	return INVALID_SECTOR;
 8000dc6:	2304      	movs	r3, #4
}
 8000dc8:	4618      	mov	r0, r3
 8000dca:	3720      	adds	r7, #32
 8000dcc:	46bd      	mov	sp, r7
 8000dce:	bd80      	pop	{r7, pc}

08000dd0 <execute_mem_write>:

/*This function writes the contents of pBuffer to  "mem_address" byte by byte */
//Note1 : Currently this function supports writing to Flash only .
//Note2 : This functions does not check whether "mem_address" is a valid address of the flash range.
uint8_t execute_mem_write(uint8_t *pBuffer, uint32_t mem_address, uint32_t len)
{
 8000dd0:	b590      	push	{r4, r7, lr}
 8000dd2:	b089      	sub	sp, #36	; 0x24
 8000dd4:	af00      	add	r7, sp, #0
 8000dd6:	60f8      	str	r0, [r7, #12]
 8000dd8:	60b9      	str	r1, [r7, #8]
 8000dda:	607a      	str	r2, [r7, #4]
    uint8_t status=HAL_OK;
 8000ddc:	2300      	movs	r3, #0
 8000dde:	77fb      	strb	r3, [r7, #31]

    //We have to unlock flash module to get control of registers
    HAL_FLASH_Unlock();
 8000de0:	f000 fbd8 	bl	8001594 <HAL_FLASH_Unlock>

    for(uint32_t i = 0 ; i <len ; i++)
 8000de4:	2300      	movs	r3, #0
 8000de6:	61bb      	str	r3, [r7, #24]
 8000de8:	e02b      	b.n	8000e42 <execute_mem_write+0x72>
    {
        //Here we program the flash byte by byte
    	uint32_t HW = ((pBuffer[i])|pBuffer[i+1]<<8|pBuffer[i+2]<<16|pBuffer[i+3]<<24);
 8000dea:	68fa      	ldr	r2, [r7, #12]
 8000dec:	69bb      	ldr	r3, [r7, #24]
 8000dee:	4413      	add	r3, r2
 8000df0:	781b      	ldrb	r3, [r3, #0]
 8000df2:	4619      	mov	r1, r3
 8000df4:	69bb      	ldr	r3, [r7, #24]
 8000df6:	3301      	adds	r3, #1
 8000df8:	68fa      	ldr	r2, [r7, #12]
 8000dfa:	4413      	add	r3, r2
 8000dfc:	781b      	ldrb	r3, [r3, #0]
 8000dfe:	021b      	lsls	r3, r3, #8
 8000e00:	ea41 0203 	orr.w	r2, r1, r3
 8000e04:	69bb      	ldr	r3, [r7, #24]
 8000e06:	3302      	adds	r3, #2
 8000e08:	68f9      	ldr	r1, [r7, #12]
 8000e0a:	440b      	add	r3, r1
 8000e0c:	781b      	ldrb	r3, [r3, #0]
 8000e0e:	041b      	lsls	r3, r3, #16
 8000e10:	431a      	orrs	r2, r3
 8000e12:	69bb      	ldr	r3, [r7, #24]
 8000e14:	3303      	adds	r3, #3
 8000e16:	68f9      	ldr	r1, [r7, #12]
 8000e18:	440b      	add	r3, r1
 8000e1a:	781b      	ldrb	r3, [r3, #0]
 8000e1c:	061b      	lsls	r3, r3, #24
 8000e1e:	4313      	orrs	r3, r2
 8000e20:	617b      	str	r3, [r7, #20]
    	status = HAL_FLASH_Program(FLASH_TYPEPROGRAM_WORD,mem_address+i, HW);
 8000e22:	68ba      	ldr	r2, [r7, #8]
 8000e24:	69bb      	ldr	r3, [r7, #24]
 8000e26:	18d1      	adds	r1, r2, r3
 8000e28:	697b      	ldr	r3, [r7, #20]
 8000e2a:	f04f 0400 	mov.w	r4, #0
 8000e2e:	461a      	mov	r2, r3
 8000e30:	4623      	mov	r3, r4
 8000e32:	2002      	movs	r0, #2
 8000e34:	f000 fb38 	bl	80014a8 <HAL_FLASH_Program>
 8000e38:	4603      	mov	r3, r0
 8000e3a:	77fb      	strb	r3, [r7, #31]
    for(uint32_t i = 0 ; i <len ; i++)
 8000e3c:	69bb      	ldr	r3, [r7, #24]
 8000e3e:	3301      	adds	r3, #1
 8000e40:	61bb      	str	r3, [r7, #24]
 8000e42:	69ba      	ldr	r2, [r7, #24]
 8000e44:	687b      	ldr	r3, [r7, #4]
 8000e46:	429a      	cmp	r2, r3
 8000e48:	d3cf      	bcc.n	8000dea <execute_mem_write+0x1a>
    }

    HAL_FLASH_Lock();
 8000e4a:	f000 fbc9 	bl	80015e0 <HAL_FLASH_Lock>

    return status;
 8000e4e:	7ffb      	ldrb	r3, [r7, #31]
}
 8000e50:	4618      	mov	r0, r3
 8000e52:	3724      	adds	r7, #36	; 0x24
 8000e54:	46bd      	mov	sp, r7
 8000e56:	bd90      	pop	{r4, r7, pc}

08000e58 <configure_flash_sector_rw_protection>:
2. Write the desired option value in the FLASH_OPTCR register.
3. Set the option start bit (OPTSTRT) in the FLASH_OPTCR register
4. Wait for the BSY bit to be cleared.
*/
uint8_t configure_flash_sector_rw_protection(uint8_t sector_details, uint8_t protection_mode, uint8_t disable)
{
 8000e58:	b580      	push	{r7, lr}
 8000e5a:	b084      	sub	sp, #16
 8000e5c:	af00      	add	r7, sp, #0
 8000e5e:	4603      	mov	r3, r0
 8000e60:	71fb      	strb	r3, [r7, #7]
 8000e62:	460b      	mov	r3, r1
 8000e64:	71bb      	strb	r3, [r7, #6]
 8000e66:	4613      	mov	r3, r2
 8000e68:	717b      	strb	r3, [r7, #5]
    //protection_mode =1 , means write protect of the user flash sectors
    //protection_mode =2, means read/write protect of the user flash sectors
    //According to RM of stm32f446xx TABLE 9, We have to modify the address 0x1FFF C008 bit 15(SPRMOD)

	 //Flash option control register (OPTCR)
    volatile uint32_t *pOPTCR = (uint32_t*) 0x40023C14;
 8000e6a:	4b44      	ldr	r3, [pc, #272]	; (8000f7c <configure_flash_sector_rw_protection+0x124>)
 8000e6c:	60fb      	str	r3, [r7, #12]

	  if(disable)
 8000e6e:	797b      	ldrb	r3, [r7, #5]
 8000e70:	2b00      	cmp	r3, #0
 8000e72:	d025      	beq.n	8000ec0 <configure_flash_sector_rw_protection+0x68>
		{

			//disable all r/w protection on sectors

			//Option byte configuration unlock
			HAL_FLASH_OB_Unlock();
 8000e74:	f000 fbc4 	bl	8001600 <HAL_FLASH_OB_Unlock>

			//wait till no active operation on flash
			while(__HAL_FLASH_GET_FLAG(FLASH_FLAG_BSY) != RESET);
 8000e78:	bf00      	nop
 8000e7a:	4b41      	ldr	r3, [pc, #260]	; (8000f80 <configure_flash_sector_rw_protection+0x128>)
 8000e7c:	68db      	ldr	r3, [r3, #12]
 8000e7e:	f003 0301 	and.w	r3, r3, #1
 8000e82:	2b00      	cmp	r3, #0
 8000e84:	d1f9      	bne.n	8000e7a <configure_flash_sector_rw_protection+0x22>

			//clear the 31st bit (default state)
			//please refer : Flash option control register (FLASH_OPTCR) in RM
			*pOPTCR &= ~(1 << 31);
 8000e86:	68fb      	ldr	r3, [r7, #12]
 8000e88:	681b      	ldr	r3, [r3, #0]
 8000e8a:	f023 4200 	bic.w	r2, r3, #2147483648	; 0x80000000
 8000e8e:	68fb      	ldr	r3, [r7, #12]
 8000e90:	601a      	str	r2, [r3, #0]

			//clear the protection : make all bits belonging to sectors as 1
			*pOPTCR |= (0xFF << 16);
 8000e92:	68fb      	ldr	r3, [r7, #12]
 8000e94:	681b      	ldr	r3, [r3, #0]
 8000e96:	f443 027f 	orr.w	r2, r3, #16711680	; 0xff0000
 8000e9a:	68fb      	ldr	r3, [r7, #12]
 8000e9c:	601a      	str	r2, [r3, #0]

			//Set the option start bit (OPTSTRT) in the FLASH_OPTCR register
			*pOPTCR |= ( 1 << 1);
 8000e9e:	68fb      	ldr	r3, [r7, #12]
 8000ea0:	681b      	ldr	r3, [r3, #0]
 8000ea2:	f043 0202 	orr.w	r2, r3, #2
 8000ea6:	68fb      	ldr	r3, [r7, #12]
 8000ea8:	601a      	str	r2, [r3, #0]

			//wait till no active operation on flash
			while(__HAL_FLASH_GET_FLAG(FLASH_FLAG_BSY) != RESET);
 8000eaa:	bf00      	nop
 8000eac:	4b34      	ldr	r3, [pc, #208]	; (8000f80 <configure_flash_sector_rw_protection+0x128>)
 8000eae:	68db      	ldr	r3, [r3, #12]
 8000eb0:	f003 0301 	and.w	r3, r3, #1
 8000eb4:	2b00      	cmp	r3, #0
 8000eb6:	d1f9      	bne.n	8000eac <configure_flash_sector_rw_protection+0x54>

			HAL_FLASH_OB_Lock();
 8000eb8:	f000 fbbe 	bl	8001638 <HAL_FLASH_OB_Lock>

			return 0;
 8000ebc:	2300      	movs	r3, #0
 8000ebe:	e058      	b.n	8000f72 <configure_flash_sector_rw_protection+0x11a>

		}

	   if(protection_mode == (uint8_t) 1)
 8000ec0:	79bb      	ldrb	r3, [r7, #6]
 8000ec2:	2b01      	cmp	r3, #1
 8000ec4:	d126      	bne.n	8000f14 <configure_flash_sector_rw_protection+0xbc>
    {
           //we are putting write protection on the sectors encoded in sector_details argument

			//Option byte configuration unlock
			HAL_FLASH_OB_Unlock();
 8000ec6:	f000 fb9b 	bl	8001600 <HAL_FLASH_OB_Unlock>

			//wait till no active operation on flash
			while(__HAL_FLASH_GET_FLAG(FLASH_FLAG_BSY) != RESET);
 8000eca:	bf00      	nop
 8000ecc:	4b2c      	ldr	r3, [pc, #176]	; (8000f80 <configure_flash_sector_rw_protection+0x128>)
 8000ece:	68db      	ldr	r3, [r3, #12]
 8000ed0:	f003 0301 	and.w	r3, r3, #1
 8000ed4:	2b00      	cmp	r3, #0
 8000ed6:	d1f9      	bne.n	8000ecc <configure_flash_sector_rw_protection+0x74>

			//here we are setting just write protection for the sectors
			//clear the 31st bit
			//please refer : Flash option control register (FLASH_OPTCR) in RM
			*pOPTCR &= ~(1 << 31);
 8000ed8:	68fb      	ldr	r3, [r7, #12]
 8000eda:	681b      	ldr	r3, [r3, #0]
 8000edc:	f023 4200 	bic.w	r2, r3, #2147483648	; 0x80000000
 8000ee0:	68fb      	ldr	r3, [r7, #12]
 8000ee2:	601a      	str	r2, [r3, #0]

			//put write protection on sectors
			*pOPTCR &= ~ (sector_details << 16);
 8000ee4:	68fb      	ldr	r3, [r7, #12]
 8000ee6:	681b      	ldr	r3, [r3, #0]
 8000ee8:	79fa      	ldrb	r2, [r7, #7]
 8000eea:	0412      	lsls	r2, r2, #16
 8000eec:	43d2      	mvns	r2, r2
 8000eee:	401a      	ands	r2, r3
 8000ef0:	68fb      	ldr	r3, [r7, #12]
 8000ef2:	601a      	str	r2, [r3, #0]

			//Set the option start bit (OPTSTRT) in the FLASH_OPTCR register
			*pOPTCR |= ( 1 << 1);
 8000ef4:	68fb      	ldr	r3, [r7, #12]
 8000ef6:	681b      	ldr	r3, [r3, #0]
 8000ef8:	f043 0202 	orr.w	r2, r3, #2
 8000efc:	68fb      	ldr	r3, [r7, #12]
 8000efe:	601a      	str	r2, [r3, #0]

			//wait till no active operation on flash
			while(__HAL_FLASH_GET_FLAG(FLASH_FLAG_BSY) != RESET);
 8000f00:	bf00      	nop
 8000f02:	4b1f      	ldr	r3, [pc, #124]	; (8000f80 <configure_flash_sector_rw_protection+0x128>)
 8000f04:	68db      	ldr	r3, [r3, #12]
 8000f06:	f003 0301 	and.w	r3, r3, #1
 8000f0a:	2b00      	cmp	r3, #0
 8000f0c:	d1f9      	bne.n	8000f02 <configure_flash_sector_rw_protection+0xaa>

			HAL_FLASH_OB_Lock();
 8000f0e:	f000 fb93 	bl	8001638 <HAL_FLASH_OB_Lock>
 8000f12:	e02d      	b.n	8000f70 <configure_flash_sector_rw_protection+0x118>
		}

		else if (protection_mode == (uint8_t) 2)
 8000f14:	79bb      	ldrb	r3, [r7, #6]
 8000f16:	2b02      	cmp	r3, #2
 8000f18:	d12a      	bne.n	8000f70 <configure_flash_sector_rw_protection+0x118>
    {
	  	//Option byte configuration unlock
			HAL_FLASH_OB_Unlock();
 8000f1a:	f000 fb71 	bl	8001600 <HAL_FLASH_OB_Unlock>

			//wait till no active operation on flash
			while(__HAL_FLASH_GET_FLAG(FLASH_FLAG_BSY) != RESET);
 8000f1e:	bf00      	nop
 8000f20:	4b17      	ldr	r3, [pc, #92]	; (8000f80 <configure_flash_sector_rw_protection+0x128>)
 8000f22:	68db      	ldr	r3, [r3, #12]
 8000f24:	f003 0301 	and.w	r3, r3, #1
 8000f28:	2b00      	cmp	r3, #0
 8000f2a:	d1f9      	bne.n	8000f20 <configure_flash_sector_rw_protection+0xc8>

			//here wer are setting read and write protection for the sectors
			//set the 31st bit
			//please refer : Flash option control register (FLASH_OPTCR) in RM
			*pOPTCR |= (1 << 31);
 8000f2c:	68fb      	ldr	r3, [r7, #12]
 8000f2e:	681b      	ldr	r3, [r3, #0]
 8000f30:	f043 4200 	orr.w	r2, r3, #2147483648	; 0x80000000
 8000f34:	68fb      	ldr	r3, [r7, #12]
 8000f36:	601a      	str	r2, [r3, #0]

			//put read and write protection on sectors
            *pOPTCR &= ~(0xff << 16);
 8000f38:	68fb      	ldr	r3, [r7, #12]
 8000f3a:	681b      	ldr	r3, [r3, #0]
 8000f3c:	f423 027f 	bic.w	r2, r3, #16711680	; 0xff0000
 8000f40:	68fb      	ldr	r3, [r7, #12]
 8000f42:	601a      	str	r2, [r3, #0]
			*pOPTCR |= (sector_details << 16);
 8000f44:	68fb      	ldr	r3, [r7, #12]
 8000f46:	681b      	ldr	r3, [r3, #0]
 8000f48:	79fa      	ldrb	r2, [r7, #7]
 8000f4a:	0412      	lsls	r2, r2, #16
 8000f4c:	431a      	orrs	r2, r3
 8000f4e:	68fb      	ldr	r3, [r7, #12]
 8000f50:	601a      	str	r2, [r3, #0]

			//Set the option start bit (OPTSTRT) in the FLASH_OPTCR register
			*pOPTCR |= ( 1 << 1);
 8000f52:	68fb      	ldr	r3, [r7, #12]
 8000f54:	681b      	ldr	r3, [r3, #0]
 8000f56:	f043 0202 	orr.w	r2, r3, #2
 8000f5a:	68fb      	ldr	r3, [r7, #12]
 8000f5c:	601a      	str	r2, [r3, #0]

			//wait till no active operation on flash
			while(__HAL_FLASH_GET_FLAG(FLASH_FLAG_BSY) != RESET);
 8000f5e:	bf00      	nop
 8000f60:	4b07      	ldr	r3, [pc, #28]	; (8000f80 <configure_flash_sector_rw_protection+0x128>)
 8000f62:	68db      	ldr	r3, [r3, #12]
 8000f64:	f003 0301 	and.w	r3, r3, #1
 8000f68:	2b00      	cmp	r3, #0
 8000f6a:	d1f9      	bne.n	8000f60 <configure_flash_sector_rw_protection+0x108>

			HAL_FLASH_OB_Lock();
 8000f6c:	f000 fb64 	bl	8001638 <HAL_FLASH_OB_Lock>
    }

		return 0;
 8000f70:	2300      	movs	r3, #0
}
 8000f72:	4618      	mov	r0, r3
 8000f74:	3710      	adds	r7, #16
 8000f76:	46bd      	mov	sp, r7
 8000f78:	bd80      	pop	{r7, pc}
 8000f7a:	bf00      	nop
 8000f7c:	40023c14 	.word	0x40023c14
 8000f80:	40022000 	.word	0x40022000

08000f84 <read_OB_rw_protection_status>:

uint16_t read_OB_rw_protection_status(void)
{
 8000f84:	b580      	push	{r7, lr}
 8000f86:	b088      	sub	sp, #32
 8000f88:	af00      	add	r7, sp, #0
    //This structure is given by ST Flash driver to hold the OB(Option Byte) contents .
	FLASH_OBProgramInitTypeDef OBInit;

	//First unlock the OB(Option Byte) memory access
	HAL_FLASH_OB_Unlock();
 8000f8a:	f000 fb39 	bl	8001600 <HAL_FLASH_OB_Unlock>
	//get the OB configuration details
	HAL_FLASHEx_OBGetConfig(&OBInit);
 8000f8e:	1d3b      	adds	r3, r7, #4
 8000f90:	4618      	mov	r0, r3
 8000f92:	f000 fc7f 	bl	8001894 <HAL_FLASHEx_OBGetConfig>
	//Lock back .
	HAL_FLASH_Lock();
 8000f96:	f000 fb23 	bl	80015e0 <HAL_FLASH_Lock>

	//We are just interested in r/w protection status of the sectors.
	return (uint16_t)OBInit.WRPPage;
 8000f9a:	68fb      	ldr	r3, [r7, #12]
 8000f9c:	b29b      	uxth	r3, r3

}
 8000f9e:	4618      	mov	r0, r3
 8000fa0:	3720      	adds	r7, #32
 8000fa2:	46bd      	mov	sp, r7
 8000fa4:	bd80      	pop	{r7, pc}

08000fa6 <Error_Handler>:
/**
  * @brief  This function is executed in case of error occurrence.
  * @retval None
  */
void Error_Handler(void)
{
 8000fa6:	b480      	push	{r7}
 8000fa8:	af00      	add	r7, sp, #0
  __ASM volatile ("cpsid i" : : : "memory");
 8000faa:	b672      	cpsid	i
  /* USER CODE BEGIN Error_Handler_Debug */
  /* User can add his own implementation to report the HAL error return state */
  __disable_irq();
  while (1)
 8000fac:	e7fe      	b.n	8000fac <Error_Handler+0x6>
	...

08000fb0 <HAL_MspInit>:
/* USER CODE END 0 */
/**
  * Initializes the Global MSP.
  */
void HAL_MspInit(void)
{
 8000fb0:	b480      	push	{r7}
 8000fb2:	b085      	sub	sp, #20
 8000fb4:	af00      	add	r7, sp, #0
  /* USER CODE BEGIN MspInit 0 */

  /* USER CODE END MspInit 0 */

  __HAL_RCC_AFIO_CLK_ENABLE();
 8000fb6:	4b15      	ldr	r3, [pc, #84]	; (800100c <HAL_MspInit+0x5c>)
 8000fb8:	699b      	ldr	r3, [r3, #24]
 8000fba:	4a14      	ldr	r2, [pc, #80]	; (800100c <HAL_MspInit+0x5c>)
 8000fbc:	f043 0301 	orr.w	r3, r3, #1
 8000fc0:	6193      	str	r3, [r2, #24]
 8000fc2:	4b12      	ldr	r3, [pc, #72]	; (800100c <HAL_MspInit+0x5c>)
 8000fc4:	699b      	ldr	r3, [r3, #24]
 8000fc6:	f003 0301 	and.w	r3, r3, #1
 8000fca:	60bb      	str	r3, [r7, #8]
 8000fcc:	68bb      	ldr	r3, [r7, #8]
  __HAL_RCC_PWR_CLK_ENABLE();
 8000fce:	4b0f      	ldr	r3, [pc, #60]	; (800100c <HAL_MspInit+0x5c>)
 8000fd0:	69db      	ldr	r3, [r3, #28]
 8000fd2:	4a0e      	ldr	r2, [pc, #56]	; (800100c <HAL_MspInit+0x5c>)
 8000fd4:	f043 5380 	orr.w	r3, r3, #268435456	; 0x10000000
 8000fd8:	61d3      	str	r3, [r2, #28]
 8000fda:	4b0c      	ldr	r3, [pc, #48]	; (800100c <HAL_MspInit+0x5c>)
 8000fdc:	69db      	ldr	r3, [r3, #28]
 8000fde:	f003 5380 	and.w	r3, r3, #268435456	; 0x10000000
 8000fe2:	607b      	str	r3, [r7, #4]
 8000fe4:	687b      	ldr	r3, [r7, #4]

  /* System interrupt init*/

  /** NOJTAG: JTAG-DP Disabled and SW-DP Enabled
  */
  __HAL_AFIO_REMAP_SWJ_NOJTAG();
 8000fe6:	4b0a      	ldr	r3, [pc, #40]	; (8001010 <HAL_MspInit+0x60>)
 8000fe8:	685b      	ldr	r3, [r3, #4]
 8000fea:	60fb      	str	r3, [r7, #12]
 8000fec:	68fb      	ldr	r3, [r7, #12]
 8000fee:	f023 63e0 	bic.w	r3, r3, #117440512	; 0x7000000
 8000ff2:	60fb      	str	r3, [r7, #12]
 8000ff4:	68fb      	ldr	r3, [r7, #12]
 8000ff6:	f043 7300 	orr.w	r3, r3, #33554432	; 0x2000000
 8000ffa:	60fb      	str	r3, [r7, #12]
 8000ffc:	4a04      	ldr	r2, [pc, #16]	; (8001010 <HAL_MspInit+0x60>)
 8000ffe:	68fb      	ldr	r3, [r7, #12]
 8001000:	6053      	str	r3, [r2, #4]

  /* USER CODE BEGIN MspInit 1 */

  /* USER CODE END MspInit 1 */
}
 8001002:	bf00      	nop
 8001004:	3714      	adds	r7, #20
 8001006:	46bd      	mov	sp, r7
 8001008:	bc80      	pop	{r7}
 800100a:	4770      	bx	lr
 800100c:	40021000 	.word	0x40021000
 8001010:	40010000 	.word	0x40010000

08001014 <HAL_CRC_MspInit>:
* This function configures the hardware resources used in this example
* @param hcrc: CRC handle pointer
* @retval None
*/
void HAL_CRC_MspInit(CRC_HandleTypeDef* hcrc)
{
 8001014:	b480      	push	{r7}
 8001016:	b085      	sub	sp, #20
 8001018:	af00      	add	r7, sp, #0
 800101a:	6078      	str	r0, [r7, #4]
  if(hcrc->Instance==CRC)
 800101c:	687b      	ldr	r3, [r7, #4]
 800101e:	681b      	ldr	r3, [r3, #0]
 8001020:	4a09      	ldr	r2, [pc, #36]	; (8001048 <HAL_CRC_MspInit+0x34>)
 8001022:	4293      	cmp	r3, r2
 8001024:	d10b      	bne.n	800103e <HAL_CRC_MspInit+0x2a>
  {
  /* USER CODE BEGIN CRC_MspInit 0 */

  /* USER CODE END CRC_MspInit 0 */
    /* Peripheral clock enable */
    __HAL_RCC_CRC_CLK_ENABLE();
 8001026:	4b09      	ldr	r3, [pc, #36]	; (800104c <HAL_CRC_MspInit+0x38>)
 8001028:	695b      	ldr	r3, [r3, #20]
 800102a:	4a08      	ldr	r2, [pc, #32]	; (800104c <HAL_CRC_MspInit+0x38>)
 800102c:	f043 0340 	orr.w	r3, r3, #64	; 0x40
 8001030:	6153      	str	r3, [r2, #20]
 8001032:	4b06      	ldr	r3, [pc, #24]	; (800104c <HAL_CRC_MspInit+0x38>)
 8001034:	695b      	ldr	r3, [r3, #20]
 8001036:	f003 0340 	and.w	r3, r3, #64	; 0x40
 800103a:	60fb      	str	r3, [r7, #12]
 800103c:	68fb      	ldr	r3, [r7, #12]
  /* USER CODE BEGIN CRC_MspInit 1 */

  /* USER CODE END CRC_MspInit 1 */
  }

}
 800103e:	bf00      	nop
 8001040:	3714      	adds	r7, #20
 8001042:	46bd      	mov	sp, r7
 8001044:	bc80      	pop	{r7}
 8001046:	4770      	bx	lr
 8001048:	40023000 	.word	0x40023000
 800104c:	40021000 	.word	0x40021000

08001050 <HAL_UART_MspInit>:
* This function configures the hardware resources used in this example
* @param huart: UART handle pointer
* @retval None
*/
void HAL_UART_MspInit(UART_HandleTypeDef* huart)
{
 8001050:	b580      	push	{r7, lr}
 8001052:	b088      	sub	sp, #32
 8001054:	af00      	add	r7, sp, #0
 8001056:	6078      	str	r0, [r7, #4]
  GPIO_InitTypeDef GPIO_InitStruct = {0};
 8001058:	f107 0310 	add.w	r3, r7, #16
 800105c:	2200      	movs	r2, #0
 800105e:	601a      	str	r2, [r3, #0]
 8001060:	605a      	str	r2, [r3, #4]
 8001062:	609a      	str	r2, [r3, #8]
 8001064:	60da      	str	r2, [r3, #12]
  if(huart->Instance==USART3)
 8001066:	687b      	ldr	r3, [r7, #4]
 8001068:	681b      	ldr	r3, [r3, #0]
 800106a:	4a1c      	ldr	r2, [pc, #112]	; (80010dc <HAL_UART_MspInit+0x8c>)
 800106c:	4293      	cmp	r3, r2
 800106e:	d131      	bne.n	80010d4 <HAL_UART_MspInit+0x84>
  {
  /* USER CODE BEGIN USART3_MspInit 0 */

  /* USER CODE END USART3_MspInit 0 */
    /* Peripheral clock enable */
    __HAL_RCC_USART3_CLK_ENABLE();
 8001070:	4b1b      	ldr	r3, [pc, #108]	; (80010e0 <HAL_UART_MspInit+0x90>)
 8001072:	69db      	ldr	r3, [r3, #28]
 8001074:	4a1a      	ldr	r2, [pc, #104]	; (80010e0 <HAL_UART_MspInit+0x90>)
 8001076:	f443 2380 	orr.w	r3, r3, #262144	; 0x40000
 800107a:	61d3      	str	r3, [r2, #28]
 800107c:	4b18      	ldr	r3, [pc, #96]	; (80010e0 <HAL_UART_MspInit+0x90>)
 800107e:	69db      	ldr	r3, [r3, #28]
 8001080:	f403 2380 	and.w	r3, r3, #262144	; 0x40000
 8001084:	60fb      	str	r3, [r7, #12]
 8001086:	68fb      	ldr	r3, [r7, #12]

    __HAL_RCC_GPIOB_CLK_ENABLE();
 8001088:	4b15      	ldr	r3, [pc, #84]	; (80010e0 <HAL_UART_MspInit+0x90>)
 800108a:	699b      	ldr	r3, [r3, #24]
 800108c:	4a14      	ldr	r2, [pc, #80]	; (80010e0 <HAL_UART_MspInit+0x90>)
 800108e:	f043 0308 	orr.w	r3, r3, #8
 8001092:	6193      	str	r3, [r2, #24]
 8001094:	4b12      	ldr	r3, [pc, #72]	; (80010e0 <HAL_UART_MspInit+0x90>)
 8001096:	699b      	ldr	r3, [r3, #24]
 8001098:	f003 0308 	and.w	r3, r3, #8
 800109c:	60bb      	str	r3, [r7, #8]
 800109e:	68bb      	ldr	r3, [r7, #8]
    /**USART3 GPIO Configuration
    PB10     ------> USART3_TX
    PB11     ------> USART3_RX
    */
    GPIO_InitStruct.Pin = GPIO_PIN_10;
 80010a0:	f44f 6380 	mov.w	r3, #1024	; 0x400
 80010a4:	613b      	str	r3, [r7, #16]
    GPIO_InitStruct.Mode = GPIO_MODE_AF_PP;
 80010a6:	2302      	movs	r3, #2
 80010a8:	617b      	str	r3, [r7, #20]
    GPIO_InitStruct.Speed = GPIO_SPEED_FREQ_HIGH;
 80010aa:	2303      	movs	r3, #3
 80010ac:	61fb      	str	r3, [r7, #28]
    HAL_GPIO_Init(GPIOB, &GPIO_InitStruct);
 80010ae:	f107 0310 	add.w	r3, r7, #16
 80010b2:	4619      	mov	r1, r3
 80010b4:	480b      	ldr	r0, [pc, #44]	; (80010e4 <HAL_UART_MspInit+0x94>)
 80010b6:	f000 fc7b 	bl	80019b0 <HAL_GPIO_Init>

    GPIO_InitStruct.Pin = GPIO_PIN_11;
 80010ba:	f44f 6300 	mov.w	r3, #2048	; 0x800
 80010be:	613b      	str	r3, [r7, #16]
    GPIO_InitStruct.Mode = GPIO_MODE_INPUT;
 80010c0:	2300      	movs	r3, #0
 80010c2:	617b      	str	r3, [r7, #20]
    GPIO_InitStruct.Pull = GPIO_NOPULL;
 80010c4:	2300      	movs	r3, #0
 80010c6:	61bb      	str	r3, [r7, #24]
    HAL_GPIO_Init(GPIOB, &GPIO_InitStruct);
 80010c8:	f107 0310 	add.w	r3, r7, #16
 80010cc:	4619      	mov	r1, r3
 80010ce:	4805      	ldr	r0, [pc, #20]	; (80010e4 <HAL_UART_MspInit+0x94>)
 80010d0:	f000 fc6e 	bl	80019b0 <HAL_GPIO_Init>
  /* USER CODE BEGIN USART3_MspInit 1 */

  /* USER CODE END USART3_MspInit 1 */
  }

}
 80010d4:	bf00      	nop
 80010d6:	3720      	adds	r7, #32
 80010d8:	46bd      	mov	sp, r7
 80010da:	bd80      	pop	{r7, pc}
 80010dc:	40004800 	.word	0x40004800
 80010e0:	40021000 	.word	0x40021000
 80010e4:	40010c00 	.word	0x40010c00

080010e8 <NMI_Handler>:
/******************************************************************************/
/**
  * @brief This function handles Non maskable interrupt.
  */
void NMI_Handler(void)
{
 80010e8:	b480      	push	{r7}
 80010ea:	af00      	add	r7, sp, #0
  /* USER CODE BEGIN NonMaskableInt_IRQn 0 */

  /* USER CODE END NonMaskableInt_IRQn 0 */
  /* USER CODE BEGIN NonMaskableInt_IRQn 1 */
  while (1)
 80010ec:	e7fe      	b.n	80010ec <NMI_Handler+0x4>

080010ee <HardFault_Handler>:

/**
  * @brief This function handles Hard fault interrupt.
  */
void HardFault_Handler(void)
{
 80010ee:	b480      	push	{r7}
 80010f0:	af00      	add	r7, sp, #0
  /* USER CODE BEGIN HardFault_IRQn 0 */

  /* USER CODE END HardFault_IRQn 0 */
  while (1)
 80010f2:	e7fe      	b.n	80010f2 <HardFault_Handler+0x4>

080010f4 <MemManage_Handler>:

/**
  * @brief This function handles Memory management fault.
  */
void MemManage_Handler(void)
{
 80010f4:	b480      	push	{r7}
 80010f6:	af00      	add	r7, sp, #0
  /* USER CODE BEGIN MemoryManagement_IRQn 0 */

  /* USER CODE END MemoryManagement_IRQn 0 */
  while (1)
 80010f8:	e7fe      	b.n	80010f8 <MemManage_Handler+0x4>

080010fa <BusFault_Handler>:

/**
  * @brief This function handles Prefetch fault, memory access fault.
  */
void BusFault_Handler(void)
{
 80010fa:	b480      	push	{r7}
 80010fc:	af00      	add	r7, sp, #0
  /* USER CODE BEGIN BusFault_IRQn 0 */

  /* USER CODE END BusFault_IRQn 0 */
  while (1)
 80010fe:	e7fe      	b.n	80010fe <BusFault_Handler+0x4>

08001100 <UsageFault_Handler>:

/**
  * @brief This function handles Undefined instruction or illegal state.
  */
void UsageFault_Handler(void)
{
 8001100:	b480      	push	{r7}
 8001102:	af00      	add	r7, sp, #0
  /* USER CODE BEGIN UsageFault_IRQn 0 */

  /* USER CODE END UsageFault_IRQn 0 */
  while (1)
 8001104:	e7fe      	b.n	8001104 <UsageFault_Handler+0x4>

08001106 <SVC_Handler>:

/**
  * @brief This function handles System service call via SWI instruction.
  */
void SVC_Handler(void)
{
 8001106:	b480      	push	{r7}
 8001108:	af00      	add	r7, sp, #0

  /* USER CODE END SVCall_IRQn 0 */
  /* USER CODE BEGIN SVCall_IRQn 1 */

  /* USER CODE END SVCall_IRQn 1 */
}
 800110a:	bf00      	nop
 800110c:	46bd      	mov	sp, r7
 800110e:	bc80      	pop	{r7}
 8001110:	4770      	bx	lr

08001112 <DebugMon_Handler>:

/**
  * @brief This function handles Debug monitor.
  */
void DebugMon_Handler(void)
{
 8001112:	b480      	push	{r7}
 8001114:	af00      	add	r7, sp, #0

  /* USER CODE END DebugMonitor_IRQn 0 */
  /* USER CODE BEGIN DebugMonitor_IRQn 1 */

  /* USER CODE END DebugMonitor_IRQn 1 */
}
 8001116:	bf00      	nop
 8001118:	46bd      	mov	sp, r7
 800111a:	bc80      	pop	{r7}
 800111c:	4770      	bx	lr

0800111e <PendSV_Handler>:

/**
  * @brief This function handles Pendable request for system service.
  */
void PendSV_Handler(void)
{
 800111e:	b480      	push	{r7}
 8001120:	af00      	add	r7, sp, #0

  /* USER CODE END PendSV_IRQn 0 */
  /* USER CODE BEGIN PendSV_IRQn 1 */

  /* USER CODE END PendSV_IRQn 1 */
}
 8001122:	bf00      	nop
 8001124:	46bd      	mov	sp, r7
 8001126:	bc80      	pop	{r7}
 8001128:	4770      	bx	lr

0800112a <SysTick_Handler>:

/**
  * @brief This function handles System tick timer.
  */
void SysTick_Handler(void)
{
 800112a:	b580      	push	{r7, lr}
 800112c:	af00      	add	r7, sp, #0
  /* USER CODE BEGIN SysTick_IRQn 0 */

  /* USER CODE END SysTick_IRQn 0 */
  HAL_IncTick();
 800112e:	f000 f875 	bl	800121c <HAL_IncTick>
  /* USER CODE BEGIN SysTick_IRQn 1 */

  /* USER CODE END SysTick_IRQn 1 */
}
 8001132:	bf00      	nop
 8001134:	bd80      	pop	{r7, pc}

08001136 <SystemInit>:
  * @note   This function should be used only after reset.
  * @param  None
  * @retval None
  */
void SystemInit (void)
{
 8001136:	b480      	push	{r7}
 8001138:	af00      	add	r7, sp, #0

  /* Configure the Vector Table location -------------------------------------*/
#if defined(USER_VECT_TAB_ADDRESS)
  SCB->VTOR = VECT_TAB_BASE_ADDRESS | VECT_TAB_OFFSET; /* Vector Table Relocation in Internal SRAM. */
#endif /* USER_VECT_TAB_ADDRESS */
}
 800113a:	bf00      	nop
 800113c:	46bd      	mov	sp, r7
 800113e:	bc80      	pop	{r7}
 8001140:	4770      	bx	lr
	...

08001144 <Reset_Handler>:
  .weak Reset_Handler
  .type Reset_Handler, %function
Reset_Handler:

/* Copy the data segment initializers from flash to SRAM */
  ldr r0, =_sdata
 8001144:	480c      	ldr	r0, [pc, #48]	; (8001178 <LoopFillZerobss+0x12>)
  ldr r1, =_edata
 8001146:	490d      	ldr	r1, [pc, #52]	; (800117c <LoopFillZerobss+0x16>)
  ldr r2, =_sidata
 8001148:	4a0d      	ldr	r2, [pc, #52]	; (8001180 <LoopFillZerobss+0x1a>)
  movs r3, #0
 800114a:	2300      	movs	r3, #0
  b LoopCopyDataInit
 800114c:	e002      	b.n	8001154 <LoopCopyDataInit>

0800114e <CopyDataInit>:

CopyDataInit:
  ldr r4, [r2, r3]
 800114e:	58d4      	ldr	r4, [r2, r3]
  str r4, [r0, r3]
 8001150:	50c4      	str	r4, [r0, r3]
  adds r3, r3, #4
 8001152:	3304      	adds	r3, #4

08001154 <LoopCopyDataInit>:

LoopCopyDataInit:
  adds r4, r0, r3
 8001154:	18c4      	adds	r4, r0, r3
  cmp r4, r1
 8001156:	428c      	cmp	r4, r1
  bcc CopyDataInit
 8001158:	d3f9      	bcc.n	800114e <CopyDataInit>
  
/* Zero fill the bss segment. */
  ldr r2, =_sbss
 800115a:	4a0a      	ldr	r2, [pc, #40]	; (8001184 <LoopFillZerobss+0x1e>)
  ldr r4, =_ebss
 800115c:	4c0a      	ldr	r4, [pc, #40]	; (8001188 <LoopFillZerobss+0x22>)
  movs r3, #0
 800115e:	2300      	movs	r3, #0
  b LoopFillZerobss
 8001160:	e001      	b.n	8001166 <LoopFillZerobss>

08001162 <FillZerobss>:

FillZerobss:
  str  r3, [r2]
 8001162:	6013      	str	r3, [r2, #0]
  adds r2, r2, #4
 8001164:	3204      	adds	r2, #4

08001166 <LoopFillZerobss>:

LoopFillZerobss:
  cmp r2, r4
 8001166:	42a2      	cmp	r2, r4
  bcc FillZerobss
 8001168:	d3fb      	bcc.n	8001162 <FillZerobss>

/* Call the clock system intitialization function.*/
    bl  SystemInit
 800116a:	f7ff ffe4 	bl	8001136 <SystemInit>
/* Call static constructors */
    bl __libc_init_array
 800116e:	f001 fca1 	bl	8002ab4 <__libc_init_array>
/* Call the application's entry point.*/
  bl main
 8001172:	f7fe ffeb 	bl	800014c <main>
  bx lr
 8001176:	4770      	bx	lr
  ldr r0, =_sdata
 8001178:	20000000 	.word	0x20000000
  ldr r1, =_edata
 800117c:	20000014 	.word	0x20000014
  ldr r2, =_sidata
 8001180:	08002f3c 	.word	0x08002f3c
  ldr r2, =_sbss
 8001184:	20000018 	.word	0x20000018
  ldr r4, =_ebss
 8001188:	20000170 	.word	0x20000170

0800118c <ADC1_2_IRQHandler>:
 * @retval : None
*/
    .section .text.Default_Handler,"ax",%progbits
Default_Handler:
Infinite_Loop:
  b Infinite_Loop
 800118c:	e7fe      	b.n	800118c <ADC1_2_IRQHandler>
	...

08001190 <HAL_Init>:
  *         need to ensure that the SysTick time base is always set to 1 millisecond
  *         to have correct HAL operation.
  * @retval HAL status
  */
HAL_StatusTypeDef HAL_Init(void)
{
 8001190:	b580      	push	{r7, lr}
 8001192:	af00      	add	r7, sp, #0
    defined(STM32F102x6) || defined(STM32F102xB) || \
    defined(STM32F103x6) || defined(STM32F103xB) || defined(STM32F103xE) || defined(STM32F103xG) || \
    defined(STM32F105xC) || defined(STM32F107xC)

  /* Prefetch buffer is not available on value line devices */
  __HAL_FLASH_PREFETCH_BUFFER_ENABLE();
 8001194:	4b08      	ldr	r3, [pc, #32]	; (80011b8 <HAL_Init+0x28>)
 8001196:	681b      	ldr	r3, [r3, #0]
 8001198:	4a07      	ldr	r2, [pc, #28]	; (80011b8 <HAL_Init+0x28>)
 800119a:	f043 0310 	orr.w	r3, r3, #16
 800119e:	6013      	str	r3, [r2, #0]
#endif
#endif /* PREFETCH_ENABLE */

  /* Set Interrupt Group Priority */
  HAL_NVIC_SetPriorityGrouping(NVIC_PRIORITYGROUP_4);
 80011a0:	2003      	movs	r0, #3
 80011a2:	f000 f907 	bl	80013b4 <HAL_NVIC_SetPriorityGrouping>

  /* Use systick as time base source and configure 1ms tick (default clock after Reset is HSI) */
  HAL_InitTick(TICK_INT_PRIORITY);
 80011a6:	2000      	movs	r0, #0
 80011a8:	f000 f808 	bl	80011bc <HAL_InitTick>

  /* Init the low level hardware */
  HAL_MspInit();
 80011ac:	f7ff ff00 	bl	8000fb0 <HAL_MspInit>

  /* Return function status */
  return HAL_OK;
 80011b0:	2300      	movs	r3, #0
}
 80011b2:	4618      	mov	r0, r3
 80011b4:	bd80      	pop	{r7, pc}
 80011b6:	bf00      	nop
 80011b8:	40022000 	.word	0x40022000

080011bc <HAL_InitTick>:
  *       implementation  in user file.
  * @param TickPriority Tick interrupt priority.
  * @retval HAL status
  */
__weak HAL_StatusTypeDef HAL_InitTick(uint32_t TickPriority)
{
 80011bc:	b580      	push	{r7, lr}
 80011be:	b082      	sub	sp, #8
 80011c0:	af00      	add	r7, sp, #0
 80011c2:	6078      	str	r0, [r7, #4]
  /* Configure the SysTick to have interrupt in 1ms time basis*/
  if (HAL_SYSTICK_Config(SystemCoreClock / (1000U / uwTickFreq)) > 0U)
 80011c4:	4b12      	ldr	r3, [pc, #72]	; (8001210 <HAL_InitTick+0x54>)
 80011c6:	681a      	ldr	r2, [r3, #0]
 80011c8:	4b12      	ldr	r3, [pc, #72]	; (8001214 <HAL_InitTick+0x58>)
 80011ca:	781b      	ldrb	r3, [r3, #0]
 80011cc:	4619      	mov	r1, r3
 80011ce:	f44f 737a 	mov.w	r3, #1000	; 0x3e8
 80011d2:	fbb3 f3f1 	udiv	r3, r3, r1
 80011d6:	fbb2 f3f3 	udiv	r3, r2, r3
 80011da:	4618      	mov	r0, r3
 80011dc:	f000 f911 	bl	8001402 <HAL_SYSTICK_Config>
 80011e0:	4603      	mov	r3, r0
 80011e2:	2b00      	cmp	r3, #0
 80011e4:	d001      	beq.n	80011ea <HAL_InitTick+0x2e>
  {
    return HAL_ERROR;
 80011e6:	2301      	movs	r3, #1
 80011e8:	e00e      	b.n	8001208 <HAL_InitTick+0x4c>
  }

  /* Configure the SysTick IRQ priority */
  if (TickPriority < (1UL << __NVIC_PRIO_BITS))
 80011ea:	687b      	ldr	r3, [r7, #4]
 80011ec:	2b0f      	cmp	r3, #15
 80011ee:	d80a      	bhi.n	8001206 <HAL_InitTick+0x4a>
  {
    HAL_NVIC_SetPriority(SysTick_IRQn, TickPriority, 0U);
 80011f0:	2200      	movs	r2, #0
 80011f2:	6879      	ldr	r1, [r7, #4]
 80011f4:	f04f 30ff 	mov.w	r0, #4294967295
 80011f8:	f000 f8e7 	bl	80013ca <HAL_NVIC_SetPriority>
    uwTickPrio = TickPriority;
 80011fc:	4a06      	ldr	r2, [pc, #24]	; (8001218 <HAL_InitTick+0x5c>)
 80011fe:	687b      	ldr	r3, [r7, #4]
 8001200:	6013      	str	r3, [r2, #0]
  {
    return HAL_ERROR;
  }

  /* Return function status */
  return HAL_OK;
 8001202:	2300      	movs	r3, #0
 8001204:	e000      	b.n	8001208 <HAL_InitTick+0x4c>
    return HAL_ERROR;
 8001206:	2301      	movs	r3, #1
}
 8001208:	4618      	mov	r0, r3
 800120a:	3708      	adds	r7, #8
 800120c:	46bd      	mov	sp, r7
 800120e:	bd80      	pop	{r7, pc}
 8001210:	20000008 	.word	0x20000008
 8001214:	20000010 	.word	0x20000010
 8001218:	2000000c 	.word	0x2000000c

0800121c <HAL_IncTick>:
  * @note This function is declared as __weak to be overwritten in case of other
  *      implementations in user file.
  * @retval None
  */
__weak void HAL_IncTick(void)
{
 800121c:	b480      	push	{r7}
 800121e:	af00      	add	r7, sp, #0
  uwTick += uwTickFreq;
 8001220:	4b05      	ldr	r3, [pc, #20]	; (8001238 <HAL_IncTick+0x1c>)
 8001222:	781b      	ldrb	r3, [r3, #0]
 8001224:	461a      	mov	r2, r3
 8001226:	4b05      	ldr	r3, [pc, #20]	; (800123c <HAL_IncTick+0x20>)
 8001228:	681b      	ldr	r3, [r3, #0]
 800122a:	4413      	add	r3, r2
 800122c:	4a03      	ldr	r2, [pc, #12]	; (800123c <HAL_IncTick+0x20>)
 800122e:	6013      	str	r3, [r2, #0]
}
 8001230:	bf00      	nop
 8001232:	46bd      	mov	sp, r7
 8001234:	bc80      	pop	{r7}
 8001236:	4770      	bx	lr
 8001238:	20000010 	.word	0x20000010
 800123c:	2000014c 	.word	0x2000014c

08001240 <HAL_GetTick>:
  * @note  This function is declared as __weak to be overwritten in case of other
  *       implementations in user file.
  * @retval tick value
  */
__weak uint32_t HAL_GetTick(void)
{
 8001240:	b480      	push	{r7}
 8001242:	af00      	add	r7, sp, #0
  return uwTick;
 8001244:	4b02      	ldr	r3, [pc, #8]	; (8001250 <HAL_GetTick+0x10>)
 8001246:	681b      	ldr	r3, [r3, #0]
}
 8001248:	4618      	mov	r0, r3
 800124a:	46bd      	mov	sp, r7
 800124c:	bc80      	pop	{r7}
 800124e:	4770      	bx	lr
 8001250:	2000014c 	.word	0x2000014c

08001254 <__NVIC_SetPriorityGrouping>:
           In case of a conflict between priority grouping and available
           priority bits (__NVIC_PRIO_BITS), the smallest possible priority group is set.
  \param [in]      PriorityGroup  Priority grouping field.
 */
__STATIC_INLINE void __NVIC_SetPriorityGrouping(uint32_t PriorityGroup)
{
 8001254:	b480      	push	{r7}
 8001256:	b085      	sub	sp, #20
 8001258:	af00      	add	r7, sp, #0
 800125a:	6078      	str	r0, [r7, #4]
  uint32_t reg_value;
  uint32_t PriorityGroupTmp = (PriorityGroup & (uint32_t)0x07UL);             /* only values 0..7 are used          */
 800125c:	687b      	ldr	r3, [r7, #4]
 800125e:	f003 0307 	and.w	r3, r3, #7
 8001262:	60fb      	str	r3, [r7, #12]

  reg_value  =  SCB->AIRCR;                                                   /* read old register configuration    */
 8001264:	4b0c      	ldr	r3, [pc, #48]	; (8001298 <__NVIC_SetPriorityGrouping+0x44>)
 8001266:	68db      	ldr	r3, [r3, #12]
 8001268:	60bb      	str	r3, [r7, #8]
  reg_value &= ~((uint32_t)(SCB_AIRCR_VECTKEY_Msk | SCB_AIRCR_PRIGROUP_Msk)); /* clear bits to change               */
 800126a:	68ba      	ldr	r2, [r7, #8]
 800126c:	f64f 03ff 	movw	r3, #63743	; 0xf8ff
 8001270:	4013      	ands	r3, r2
 8001272:	60bb      	str	r3, [r7, #8]
  reg_value  =  (reg_value                                   |
                ((uint32_t)0x5FAUL << SCB_AIRCR_VECTKEY_Pos) |
                (PriorityGroupTmp << SCB_AIRCR_PRIGROUP_Pos) );               /* Insert write key and priority group */
 8001274:	68fb      	ldr	r3, [r7, #12]
 8001276:	021a      	lsls	r2, r3, #8
                ((uint32_t)0x5FAUL << SCB_AIRCR_VECTKEY_Pos) |
 8001278:	68bb      	ldr	r3, [r7, #8]
 800127a:	4313      	orrs	r3, r2
  reg_value  =  (reg_value                                   |
 800127c:	f043 63bf 	orr.w	r3, r3, #100139008	; 0x5f80000
 8001280:	f443 3300 	orr.w	r3, r3, #131072	; 0x20000
 8001284:	60bb      	str	r3, [r7, #8]
  SCB->AIRCR =  reg_value;
 8001286:	4a04      	ldr	r2, [pc, #16]	; (8001298 <__NVIC_SetPriorityGrouping+0x44>)
 8001288:	68bb      	ldr	r3, [r7, #8]
 800128a:	60d3      	str	r3, [r2, #12]
}
 800128c:	bf00      	nop
 800128e:	3714      	adds	r7, #20
 8001290:	46bd      	mov	sp, r7
 8001292:	bc80      	pop	{r7}
 8001294:	4770      	bx	lr
 8001296:	bf00      	nop
 8001298:	e000ed00 	.word	0xe000ed00

0800129c <__NVIC_GetPriorityGrouping>:
  \brief   Get Priority Grouping
  \details Reads the priority grouping field from the NVIC Interrupt Controller.
  \return                Priority grouping field (SCB->AIRCR [10:8] PRIGROUP field).
 */
__STATIC_INLINE uint32_t __NVIC_GetPriorityGrouping(void)
{
 800129c:	b480      	push	{r7}
 800129e:	af00      	add	r7, sp, #0
  return ((uint32_t)((SCB->AIRCR & SCB_AIRCR_PRIGROUP_Msk) >> SCB_AIRCR_PRIGROUP_Pos));
 80012a0:	4b04      	ldr	r3, [pc, #16]	; (80012b4 <__NVIC_GetPriorityGrouping+0x18>)
 80012a2:	68db      	ldr	r3, [r3, #12]
 80012a4:	0a1b      	lsrs	r3, r3, #8
 80012a6:	f003 0307 	and.w	r3, r3, #7
}
 80012aa:	4618      	mov	r0, r3
 80012ac:	46bd      	mov	sp, r7
 80012ae:	bc80      	pop	{r7}
 80012b0:	4770      	bx	lr
 80012b2:	bf00      	nop
 80012b4:	e000ed00 	.word	0xe000ed00

080012b8 <__NVIC_SetPriority>:
  \param [in]      IRQn  Interrupt number.
  \param [in]  priority  Priority to set.
  \note    The priority cannot be set for every processor exception.
 */
__STATIC_INLINE void __NVIC_SetPriority(IRQn_Type IRQn, uint32_t priority)
{
 80012b8:	b480      	push	{r7}
 80012ba:	b083      	sub	sp, #12
 80012bc:	af00      	add	r7, sp, #0
 80012be:	4603      	mov	r3, r0
 80012c0:	6039      	str	r1, [r7, #0]
 80012c2:	71fb      	strb	r3, [r7, #7]
  if ((int32_t)(IRQn) >= 0)
 80012c4:	f997 3007 	ldrsb.w	r3, [r7, #7]
 80012c8:	2b00      	cmp	r3, #0
 80012ca:	db0a      	blt.n	80012e2 <__NVIC_SetPriority+0x2a>
  {
    NVIC->IP[((uint32_t)IRQn)]               = (uint8_t)((priority << (8U - __NVIC_PRIO_BITS)) & (uint32_t)0xFFUL);
 80012cc:	683b      	ldr	r3, [r7, #0]
 80012ce:	b2da      	uxtb	r2, r3
 80012d0:	490c      	ldr	r1, [pc, #48]	; (8001304 <__NVIC_SetPriority+0x4c>)
 80012d2:	f997 3007 	ldrsb.w	r3, [r7, #7]
 80012d6:	0112      	lsls	r2, r2, #4
 80012d8:	b2d2      	uxtb	r2, r2
 80012da:	440b      	add	r3, r1
 80012dc:	f883 2300 	strb.w	r2, [r3, #768]	; 0x300
  }
  else
  {
    SCB->SHP[(((uint32_t)IRQn) & 0xFUL)-4UL] = (uint8_t)((priority << (8U - __NVIC_PRIO_BITS)) & (uint32_t)0xFFUL);
  }
}
 80012e0:	e00a      	b.n	80012f8 <__NVIC_SetPriority+0x40>
    SCB->SHP[(((uint32_t)IRQn) & 0xFUL)-4UL] = (uint8_t)((priority << (8U - __NVIC_PRIO_BITS)) & (uint32_t)0xFFUL);
 80012e2:	683b      	ldr	r3, [r7, #0]
 80012e4:	b2da      	uxtb	r2, r3
 80012e6:	4908      	ldr	r1, [pc, #32]	; (8001308 <__NVIC_SetPriority+0x50>)
 80012e8:	79fb      	ldrb	r3, [r7, #7]
 80012ea:	f003 030f 	and.w	r3, r3, #15
 80012ee:	3b04      	subs	r3, #4
 80012f0:	0112      	lsls	r2, r2, #4
 80012f2:	b2d2      	uxtb	r2, r2
 80012f4:	440b      	add	r3, r1
 80012f6:	761a      	strb	r2, [r3, #24]
}
 80012f8:	bf00      	nop
 80012fa:	370c      	adds	r7, #12
 80012fc:	46bd      	mov	sp, r7
 80012fe:	bc80      	pop	{r7}
 8001300:	4770      	bx	lr
 8001302:	bf00      	nop
 8001304:	e000e100 	.word	0xe000e100
 8001308:	e000ed00 	.word	0xe000ed00

0800130c <NVIC_EncodePriority>:
  \param [in]   PreemptPriority  Preemptive priority value (starting from 0).
  \param [in]       SubPriority  Subpriority value (starting from 0).
  \return                        Encoded priority. Value can be used in the function \ref NVIC_SetPriority().
 */
__STATIC_INLINE uint32_t NVIC_EncodePriority (uint32_t PriorityGroup, uint32_t PreemptPriority, uint32_t SubPriority)
{
 800130c:	b480      	push	{r7}
 800130e:	b089      	sub	sp, #36	; 0x24
 8001310:	af00      	add	r7, sp, #0
 8001312:	60f8      	str	r0, [r7, #12]
 8001314:	60b9      	str	r1, [r7, #8]
 8001316:	607a      	str	r2, [r7, #4]
  uint32_t PriorityGroupTmp = (PriorityGroup & (uint32_t)0x07UL);   /* only values 0..7 are used          */
 8001318:	68fb      	ldr	r3, [r7, #12]
 800131a:	f003 0307 	and.w	r3, r3, #7
 800131e:	61fb      	str	r3, [r7, #28]
  uint32_t PreemptPriorityBits;
  uint32_t SubPriorityBits;

  PreemptPriorityBits = ((7UL - PriorityGroupTmp) > (uint32_t)(__NVIC_PRIO_BITS)) ? (uint32_t)(__NVIC_PRIO_BITS) : (uint32_t)(7UL - PriorityGroupTmp);
 8001320:	69fb      	ldr	r3, [r7, #28]
 8001322:	f1c3 0307 	rsb	r3, r3, #7
 8001326:	2b04      	cmp	r3, #4
 8001328:	bf28      	it	cs
 800132a:	2304      	movcs	r3, #4
 800132c:	61bb      	str	r3, [r7, #24]
  SubPriorityBits     = ((PriorityGroupTmp + (uint32_t)(__NVIC_PRIO_BITS)) < (uint32_t)7UL) ? (uint32_t)0UL : (uint32_t)((PriorityGroupTmp - 7UL) + (uint32_t)(__NVIC_PRIO_BITS));
 800132e:	69fb      	ldr	r3, [r7, #28]
 8001330:	3304      	adds	r3, #4
 8001332:	2b06      	cmp	r3, #6
 8001334:	d902      	bls.n	800133c <NVIC_EncodePriority+0x30>
 8001336:	69fb      	ldr	r3, [r7, #28]
 8001338:	3b03      	subs	r3, #3
 800133a:	e000      	b.n	800133e <NVIC_EncodePriority+0x32>
 800133c:	2300      	movs	r3, #0
 800133e:	617b      	str	r3, [r7, #20]

  return (
           ((PreemptPriority & (uint32_t)((1UL << (PreemptPriorityBits)) - 1UL)) << SubPriorityBits) |
 8001340:	f04f 32ff 	mov.w	r2, #4294967295
 8001344:	69bb      	ldr	r3, [r7, #24]
 8001346:	fa02 f303 	lsl.w	r3, r2, r3
 800134a:	43da      	mvns	r2, r3
 800134c:	68bb      	ldr	r3, [r7, #8]
 800134e:	401a      	ands	r2, r3
 8001350:	697b      	ldr	r3, [r7, #20]
 8001352:	409a      	lsls	r2, r3
           ((SubPriority     & (uint32_t)((1UL << (SubPriorityBits    )) - 1UL)))
 8001354:	f04f 31ff 	mov.w	r1, #4294967295
 8001358:	697b      	ldr	r3, [r7, #20]
 800135a:	fa01 f303 	lsl.w	r3, r1, r3
 800135e:	43d9      	mvns	r1, r3
 8001360:	687b      	ldr	r3, [r7, #4]
 8001362:	400b      	ands	r3, r1
           ((PreemptPriority & (uint32_t)((1UL << (PreemptPriorityBits)) - 1UL)) << SubPriorityBits) |
 8001364:	4313      	orrs	r3, r2
         );
}
 8001366:	4618      	mov	r0, r3
 8001368:	3724      	adds	r7, #36	; 0x24
 800136a:	46bd      	mov	sp, r7
 800136c:	bc80      	pop	{r7}
 800136e:	4770      	bx	lr

08001370 <SysTick_Config>:
  \note    When the variable <b>__Vendor_SysTickConfig</b> is set to 1, then the
           function <b>SysTick_Config</b> is not included. In this case, the file <b><i>device</i>.h</b>
           must contain a vendor-specific implementation of this function.
 */
__STATIC_INLINE uint32_t SysTick_Config(uint32_t ticks)
{
 8001370:	b580      	push	{r7, lr}
 8001372:	b082      	sub	sp, #8
 8001374:	af00      	add	r7, sp, #0
 8001376:	6078      	str	r0, [r7, #4]
  if ((ticks - 1UL) > SysTick_LOAD_RELOAD_Msk)
 8001378:	687b      	ldr	r3, [r7, #4]
 800137a:	3b01      	subs	r3, #1
 800137c:	f1b3 7f80 	cmp.w	r3, #16777216	; 0x1000000
 8001380:	d301      	bcc.n	8001386 <SysTick_Config+0x16>
  {
    return (1UL);                                                   /* Reload value impossible */
 8001382:	2301      	movs	r3, #1
 8001384:	e00f      	b.n	80013a6 <SysTick_Config+0x36>
  }

  SysTick->LOAD  = (uint32_t)(ticks - 1UL);                         /* set reload register */
 8001386:	4a0a      	ldr	r2, [pc, #40]	; (80013b0 <SysTick_Config+0x40>)
 8001388:	687b      	ldr	r3, [r7, #4]
 800138a:	3b01      	subs	r3, #1
 800138c:	6053      	str	r3, [r2, #4]
  NVIC_SetPriority (SysTick_IRQn, (1UL << __NVIC_PRIO_BITS) - 1UL); /* set Priority for Systick Interrupt */
 800138e:	210f      	movs	r1, #15
 8001390:	f04f 30ff 	mov.w	r0, #4294967295
 8001394:	f7ff ff90 	bl	80012b8 <__NVIC_SetPriority>
  SysTick->VAL   = 0UL;                                             /* Load the SysTick Counter Value */
 8001398:	4b05      	ldr	r3, [pc, #20]	; (80013b0 <SysTick_Config+0x40>)
 800139a:	2200      	movs	r2, #0
 800139c:	609a      	str	r2, [r3, #8]
  SysTick->CTRL  = SysTick_CTRL_CLKSOURCE_Msk |
 800139e:	4b04      	ldr	r3, [pc, #16]	; (80013b0 <SysTick_Config+0x40>)
 80013a0:	2207      	movs	r2, #7
 80013a2:	601a      	str	r2, [r3, #0]
                   SysTick_CTRL_TICKINT_Msk   |
                   SysTick_CTRL_ENABLE_Msk;                         /* Enable SysTick IRQ and SysTick Timer */
  return (0UL);                                                     /* Function successful */
 80013a4:	2300      	movs	r3, #0
}
 80013a6:	4618      	mov	r0, r3
 80013a8:	3708      	adds	r7, #8
 80013aa:	46bd      	mov	sp, r7
 80013ac:	bd80      	pop	{r7, pc}
 80013ae:	bf00      	nop
 80013b0:	e000e010 	.word	0xe000e010

080013b4 <HAL_NVIC_SetPriorityGrouping>:
  * @note   When the NVIC_PriorityGroup_0 is selected, IRQ preemption is no more possible. 
  *         The pending IRQ priority will be managed only by the subpriority. 
  * @retval None
  */
void HAL_NVIC_SetPriorityGrouping(uint32_t PriorityGroup)
{
 80013b4:	b580      	push	{r7, lr}
 80013b6:	b082      	sub	sp, #8
 80013b8:	af00      	add	r7, sp, #0
 80013ba:	6078      	str	r0, [r7, #4]
  /* Check the parameters */
  assert_param(IS_NVIC_PRIORITY_GROUP(PriorityGroup));
  
  /* Set the PRIGROUP[10:8] bits according to the PriorityGroup parameter value */
  NVIC_SetPriorityGrouping(PriorityGroup);
 80013bc:	6878      	ldr	r0, [r7, #4]
 80013be:	f7ff ff49 	bl	8001254 <__NVIC_SetPriorityGrouping>
}
 80013c2:	bf00      	nop
 80013c4:	3708      	adds	r7, #8
 80013c6:	46bd      	mov	sp, r7
 80013c8:	bd80      	pop	{r7, pc}

080013ca <HAL_NVIC_SetPriority>:
  *         This parameter can be a value between 0 and 15
  *         A lower priority value indicates a higher priority.          
  * @retval None
  */
void HAL_NVIC_SetPriority(IRQn_Type IRQn, uint32_t PreemptPriority, uint32_t SubPriority)
{ 
 80013ca:	b580      	push	{r7, lr}
 80013cc:	b086      	sub	sp, #24
 80013ce:	af00      	add	r7, sp, #0
 80013d0:	4603      	mov	r3, r0
 80013d2:	60b9      	str	r1, [r7, #8]
 80013d4:	607a      	str	r2, [r7, #4]
 80013d6:	73fb      	strb	r3, [r7, #15]
  uint32_t prioritygroup = 0x00U;
 80013d8:	2300      	movs	r3, #0
 80013da:	617b      	str	r3, [r7, #20]
  
  /* Check the parameters */
  assert_param(IS_NVIC_SUB_PRIORITY(SubPriority));
  assert_param(IS_NVIC_PREEMPTION_PRIORITY(PreemptPriority));
  
  prioritygroup = NVIC_GetPriorityGrouping();
 80013dc:	f7ff ff5e 	bl	800129c <__NVIC_GetPriorityGrouping>
 80013e0:	6178      	str	r0, [r7, #20]
  
  NVIC_SetPriority(IRQn, NVIC_EncodePriority(prioritygroup, PreemptPriority, SubPriority));
 80013e2:	687a      	ldr	r2, [r7, #4]
 80013e4:	68b9      	ldr	r1, [r7, #8]
 80013e6:	6978      	ldr	r0, [r7, #20]
 80013e8:	f7ff ff90 	bl	800130c <NVIC_EncodePriority>
 80013ec:	4602      	mov	r2, r0
 80013ee:	f997 300f 	ldrsb.w	r3, [r7, #15]
 80013f2:	4611      	mov	r1, r2
 80013f4:	4618      	mov	r0, r3
 80013f6:	f7ff ff5f 	bl	80012b8 <__NVIC_SetPriority>
}
 80013fa:	bf00      	nop
 80013fc:	3718      	adds	r7, #24
 80013fe:	46bd      	mov	sp, r7
 8001400:	bd80      	pop	{r7, pc}

08001402 <HAL_SYSTICK_Config>:
  * @param  TicksNumb: Specifies the ticks Number of ticks between two interrupts.
  * @retval status:  - 0  Function succeeded.
  *                  - 1  Function failed.
  */
uint32_t HAL_SYSTICK_Config(uint32_t TicksNumb)
{
 8001402:	b580      	push	{r7, lr}
 8001404:	b082      	sub	sp, #8
 8001406:	af00      	add	r7, sp, #0
 8001408:	6078      	str	r0, [r7, #4]
   return SysTick_Config(TicksNumb);
 800140a:	6878      	ldr	r0, [r7, #4]
 800140c:	f7ff ffb0 	bl	8001370 <SysTick_Config>
 8001410:	4603      	mov	r3, r0
}
 8001412:	4618      	mov	r0, r3
 8001414:	3708      	adds	r7, #8
 8001416:	46bd      	mov	sp, r7
 8001418:	bd80      	pop	{r7, pc}

0800141a <HAL_CRC_Init>:
  *         parameters in the CRC_InitTypeDef and create the associated handle.
  * @param  hcrc CRC handle
  * @retval HAL status
  */
HAL_StatusTypeDef HAL_CRC_Init(CRC_HandleTypeDef *hcrc)
{
 800141a:	b580      	push	{r7, lr}
 800141c:	b082      	sub	sp, #8
 800141e:	af00      	add	r7, sp, #0
 8001420:	6078      	str	r0, [r7, #4]
  /* Check the CRC handle allocation */
  if (hcrc == NULL)
 8001422:	687b      	ldr	r3, [r7, #4]
 8001424:	2b00      	cmp	r3, #0
 8001426:	d101      	bne.n	800142c <HAL_CRC_Init+0x12>
  {
    return HAL_ERROR;
 8001428:	2301      	movs	r3, #1
 800142a:	e00e      	b.n	800144a <HAL_CRC_Init+0x30>
  }

  /* Check the parameters */
  assert_param(IS_CRC_ALL_INSTANCE(hcrc->Instance));

  if (hcrc->State == HAL_CRC_STATE_RESET)
 800142c:	687b      	ldr	r3, [r7, #4]
 800142e:	795b      	ldrb	r3, [r3, #5]
 8001430:	b2db      	uxtb	r3, r3
 8001432:	2b00      	cmp	r3, #0
 8001434:	d105      	bne.n	8001442 <HAL_CRC_Init+0x28>
  {
    /* Allocate lock resource and initialize it */
    hcrc->Lock = HAL_UNLOCKED;
 8001436:	687b      	ldr	r3, [r7, #4]
 8001438:	2200      	movs	r2, #0
 800143a:	711a      	strb	r2, [r3, #4]
    /* Init the low level hardware */
    HAL_CRC_MspInit(hcrc);
 800143c:	6878      	ldr	r0, [r7, #4]
 800143e:	f7ff fde9 	bl	8001014 <HAL_CRC_MspInit>
  }

  /* Change CRC peripheral state */
  hcrc->State = HAL_CRC_STATE_READY;
 8001442:	687b      	ldr	r3, [r7, #4]
 8001444:	2201      	movs	r2, #1
 8001446:	715a      	strb	r2, [r3, #5]

  /* Return function status */
  return HAL_OK;
 8001448:	2300      	movs	r3, #0
}
 800144a:	4618      	mov	r0, r3
 800144c:	3708      	adds	r7, #8
 800144e:	46bd      	mov	sp, r7
 8001450:	bd80      	pop	{r7, pc}

08001452 <HAL_CRC_Accumulate>:
  * @param  pBuffer pointer to the input data buffer.
  * @param  BufferLength input data buffer length (number of uint32_t words).
  * @retval uint32_t CRC (returned value LSBs for CRC shorter than 32 bits)
  */
uint32_t HAL_CRC_Accumulate(CRC_HandleTypeDef *hcrc, uint32_t pBuffer[], uint32_t BufferLength)
{
 8001452:	b480      	push	{r7}
 8001454:	b087      	sub	sp, #28
 8001456:	af00      	add	r7, sp, #0
 8001458:	60f8      	str	r0, [r7, #12]
 800145a:	60b9      	str	r1, [r7, #8]
 800145c:	607a      	str	r2, [r7, #4]
  uint32_t index;      /* CRC input data buffer index */
  uint32_t temp = 0U;  /* CRC output (read from hcrc->Instance->DR register) */
 800145e:	2300      	movs	r3, #0
 8001460:	613b      	str	r3, [r7, #16]

  /* Change CRC peripheral state */
  hcrc->State = HAL_CRC_STATE_BUSY;
 8001462:	68fb      	ldr	r3, [r7, #12]
 8001464:	2202      	movs	r2, #2
 8001466:	715a      	strb	r2, [r3, #5]

  /* Enter Data to the CRC calculator */
  for (index = 0U; index < BufferLength; index++)
 8001468:	2300      	movs	r3, #0
 800146a:	617b      	str	r3, [r7, #20]
 800146c:	e00a      	b.n	8001484 <HAL_CRC_Accumulate+0x32>
  {
    hcrc->Instance->DR = pBuffer[index];
 800146e:	697b      	ldr	r3, [r7, #20]
 8001470:	009b      	lsls	r3, r3, #2
 8001472:	68ba      	ldr	r2, [r7, #8]
 8001474:	441a      	add	r2, r3
 8001476:	68fb      	ldr	r3, [r7, #12]
 8001478:	681b      	ldr	r3, [r3, #0]
 800147a:	6812      	ldr	r2, [r2, #0]
 800147c:	601a      	str	r2, [r3, #0]
  for (index = 0U; index < BufferLength; index++)
 800147e:	697b      	ldr	r3, [r7, #20]
 8001480:	3301      	adds	r3, #1
 8001482:	617b      	str	r3, [r7, #20]
 8001484:	697a      	ldr	r2, [r7, #20]
 8001486:	687b      	ldr	r3, [r7, #4]
 8001488:	429a      	cmp	r2, r3
 800148a:	d3f0      	bcc.n	800146e <HAL_CRC_Accumulate+0x1c>
  }
  temp = hcrc->Instance->DR;
 800148c:	68fb      	ldr	r3, [r7, #12]
 800148e:	681b      	ldr	r3, [r3, #0]
 8001490:	681b      	ldr	r3, [r3, #0]
 8001492:	613b      	str	r3, [r7, #16]

  /* Change CRC peripheral state */
  hcrc->State = HAL_CRC_STATE_READY;
 8001494:	68fb      	ldr	r3, [r7, #12]
 8001496:	2201      	movs	r2, #1
 8001498:	715a      	strb	r2, [r3, #5]

  /* Return the CRC computed value */
  return temp;
 800149a:	693b      	ldr	r3, [r7, #16]
}
 800149c:	4618      	mov	r0, r3
 800149e:	371c      	adds	r7, #28
 80014a0:	46bd      	mov	sp, r7
 80014a2:	bc80      	pop	{r7}
 80014a4:	4770      	bx	lr
	...

080014a8 <HAL_FLASH_Program>:
  * @param  Data:         Specifies the data to be programmed
  * 
  * @retval HAL_StatusTypeDef HAL Status
  */
HAL_StatusTypeDef HAL_FLASH_Program(uint32_t TypeProgram, uint32_t Address,
		uint64_t Data) {
 80014a8:	b5f0      	push	{r4, r5, r6, r7, lr}
 80014aa:	b087      	sub	sp, #28
 80014ac:	af00      	add	r7, sp, #0
 80014ae:	60f8      	str	r0, [r7, #12]
 80014b0:	60b9      	str	r1, [r7, #8]
 80014b2:	e9c7 2300 	strd	r2, r3, [r7]
	HAL_StatusTypeDef status = HAL_ERROR;
 80014b6:	2301      	movs	r3, #1
 80014b8:	75fb      	strb	r3, [r7, #23]
	uint8_t index = 0;
 80014ba:	2300      	movs	r3, #0
 80014bc:	75bb      	strb	r3, [r7, #22]
	uint8_t nbiterations = 0;
 80014be:	2300      	movs	r3, #0
 80014c0:	757b      	strb	r3, [r7, #21]

	/* Process Locked */
	__HAL_LOCK(&pFlash);
 80014c2:	4b32      	ldr	r3, [pc, #200]	; (800158c <HAL_FLASH_Program+0xe4>)
 80014c4:	7e1b      	ldrb	r3, [r3, #24]
 80014c6:	2b01      	cmp	r3, #1
 80014c8:	d101      	bne.n	80014ce <HAL_FLASH_Program+0x26>
 80014ca:	2302      	movs	r3, #2
 80014cc:	e05a      	b.n	8001584 <HAL_FLASH_Program+0xdc>
 80014ce:	4b2f      	ldr	r3, [pc, #188]	; (800158c <HAL_FLASH_Program+0xe4>)
 80014d0:	2201      	movs	r2, #1
 80014d2:	761a      	strb	r2, [r3, #24]
#if defined(FLASH_BANK2_END)
  if(Address <= FLASH_BANK1_END)
  {
#endif /* FLASH_BANK2_END */
	/* Wait for last operation to be completed */
	status = FLASH_WaitForLastOperation(FLASH_TIMEOUT_VALUE);
 80014d4:	f24c 3050 	movw	r0, #50000	; 0xc350
 80014d8:	f000 f8da 	bl	8001690 <FLASH_WaitForLastOperation>
 80014dc:	4603      	mov	r3, r0
 80014de:	75fb      	strb	r3, [r7, #23]
    /* Wait for last operation to be completed */
    status = FLASH_WaitForLastOperationBank2(FLASH_TIMEOUT_VALUE);
  }
#endif /* FLASH_BANK2_END */

	if (status == HAL_OK) {
 80014e0:	7dfb      	ldrb	r3, [r7, #23]
 80014e2:	2b00      	cmp	r3, #0
 80014e4:	d14a      	bne.n	800157c <HAL_FLASH_Program+0xd4>
		if (TypeProgram == FLASH_TYPEPROGRAM_BYTE) {
 80014e6:	68fb      	ldr	r3, [r7, #12]
 80014e8:	2b00      	cmp	r3, #0
 80014ea:	d102      	bne.n	80014f2 <HAL_FLASH_Program+0x4a>
			/* Program byte (8-bit) at a specified address. */
			nbiterations = 1U;
 80014ec:	2301      	movs	r3, #1
 80014ee:	757b      	strb	r3, [r7, #21]
 80014f0:	e00d      	b.n	800150e <HAL_FLASH_Program+0x66>
		} else if (TypeProgram == FLASH_TYPEPROGRAM_HALFWORD) {
 80014f2:	68fb      	ldr	r3, [r7, #12]
 80014f4:	2b01      	cmp	r3, #1
 80014f6:	d102      	bne.n	80014fe <HAL_FLASH_Program+0x56>
			/* Program halfword (16-bit) at a specified address. */
			nbiterations = 1U;
 80014f8:	2301      	movs	r3, #1
 80014fa:	757b      	strb	r3, [r7, #21]
 80014fc:	e007      	b.n	800150e <HAL_FLASH_Program+0x66>
		} else if (TypeProgram == FLASH_TYPEPROGRAM_WORD) {
 80014fe:	68fb      	ldr	r3, [r7, #12]
 8001500:	2b02      	cmp	r3, #2
 8001502:	d102      	bne.n	800150a <HAL_FLASH_Program+0x62>
			/* Program word (32-bit = 2*16-bit) at a specified address. */
			nbiterations = 2U;
 8001504:	2302      	movs	r3, #2
 8001506:	757b      	strb	r3, [r7, #21]
 8001508:	e001      	b.n	800150e <HAL_FLASH_Program+0x66>
		} else {
			/* Program double word (64-bit = 4*16-bit) at a specified address. */
			nbiterations = 4U;
 800150a:	2304      	movs	r3, #4
 800150c:	757b      	strb	r3, [r7, #21]
		}

		for (index = 0U; index < nbiterations; index++) {
 800150e:	2300      	movs	r3, #0
 8001510:	75bb      	strb	r3, [r7, #22]
 8001512:	e02d      	b.n	8001570 <HAL_FLASH_Program+0xc8>
			FLASH_Program_HalfWord((Address + (2U * index)),
 8001514:	7dbb      	ldrb	r3, [r7, #22]
 8001516:	005a      	lsls	r2, r3, #1
 8001518:	68bb      	ldr	r3, [r7, #8]
 800151a:	eb02 0c03 	add.w	ip, r2, r3
					(uint32_t) (Data >> (16U * index)));
 800151e:	7dbb      	ldrb	r3, [r7, #22]
 8001520:	0119      	lsls	r1, r3, #4
 8001522:	e9d7 2300 	ldrd	r2, r3, [r7]
 8001526:	f1c1 0620 	rsb	r6, r1, #32
 800152a:	f1a1 0020 	sub.w	r0, r1, #32
 800152e:	fa22 f401 	lsr.w	r4, r2, r1
 8001532:	fa03 f606 	lsl.w	r6, r3, r6
 8001536:	4334      	orrs	r4, r6
 8001538:	fa23 f000 	lsr.w	r0, r3, r0
 800153c:	4304      	orrs	r4, r0
 800153e:	fa23 f501 	lsr.w	r5, r3, r1
			FLASH_Program_HalfWord((Address + (2U * index)),
 8001542:	b2a3      	uxth	r3, r4
 8001544:	4619      	mov	r1, r3
 8001546:	4660      	mov	r0, ip
 8001548:	f000 f886 	bl	8001658 <FLASH_Program_HalfWord>
#if defined(FLASH_BANK2_END)
      if(Address <= FLASH_BANK1_END)
      {
#endif /* FLASH_BANK2_END */
			/* Wait for last operation to be completed */
			status = FLASH_WaitForLastOperation(FLASH_TIMEOUT_VALUE);
 800154c:	f24c 3050 	movw	r0, #50000	; 0xc350
 8001550:	f000 f89e 	bl	8001690 <FLASH_WaitForLastOperation>
 8001554:	4603      	mov	r3, r0
 8001556:	75fb      	strb	r3, [r7, #23]

			/* If the program operation is completed, disable the PG Bit */
			CLEAR_BIT(FLASH->CR, FLASH_CR_PG);
 8001558:	4b0d      	ldr	r3, [pc, #52]	; (8001590 <HAL_FLASH_Program+0xe8>)
 800155a:	691b      	ldr	r3, [r3, #16]
 800155c:	4a0c      	ldr	r2, [pc, #48]	; (8001590 <HAL_FLASH_Program+0xe8>)
 800155e:	f023 0301 	bic.w	r3, r3, #1
 8001562:	6113      	str	r3, [r2, #16]
        /* If the program operation is completed, disable the PG Bit */
        CLEAR_BIT(FLASH->CR2, FLASH_CR2_PG);
      }
#endif /* FLASH_BANK2_END */
			/* In case of error, stop programation procedure */
			if (status != HAL_OK) {
 8001564:	7dfb      	ldrb	r3, [r7, #23]
 8001566:	2b00      	cmp	r3, #0
 8001568:	d107      	bne.n	800157a <HAL_FLASH_Program+0xd2>
		for (index = 0U; index < nbiterations; index++) {
 800156a:	7dbb      	ldrb	r3, [r7, #22]
 800156c:	3301      	adds	r3, #1
 800156e:	75bb      	strb	r3, [r7, #22]
 8001570:	7dba      	ldrb	r2, [r7, #22]
 8001572:	7d7b      	ldrb	r3, [r7, #21]
 8001574:	429a      	cmp	r2, r3
 8001576:	d3cd      	bcc.n	8001514 <HAL_FLASH_Program+0x6c>
 8001578:	e000      	b.n	800157c <HAL_FLASH_Program+0xd4>
				break;
 800157a:	bf00      	nop
			}
		}
	}

	/* Process Unlocked */
	__HAL_UNLOCK(&pFlash);
 800157c:	4b03      	ldr	r3, [pc, #12]	; (800158c <HAL_FLASH_Program+0xe4>)
 800157e:	2200      	movs	r2, #0
 8001580:	761a      	strb	r2, [r3, #24]

	return status;
 8001582:	7dfb      	ldrb	r3, [r7, #23]
}
 8001584:	4618      	mov	r0, r3
 8001586:	371c      	adds	r7, #28
 8001588:	46bd      	mov	sp, r7
 800158a:	bdf0      	pop	{r4, r5, r6, r7, pc}
 800158c:	20000150 	.word	0x20000150
 8001590:	40022000 	.word	0x40022000

08001594 <HAL_FLASH_Unlock>:
/**
  * @brief  Unlock the FLASH control register access
  * @retval HAL Status
  */
HAL_StatusTypeDef HAL_FLASH_Unlock(void)
{
 8001594:	b480      	push	{r7}
 8001596:	b083      	sub	sp, #12
 8001598:	af00      	add	r7, sp, #0
  HAL_StatusTypeDef status = HAL_OK;
 800159a:	2300      	movs	r3, #0
 800159c:	71fb      	strb	r3, [r7, #7]

  if(READ_BIT(FLASH->CR, FLASH_CR_LOCK) != RESET)
 800159e:	4b0d      	ldr	r3, [pc, #52]	; (80015d4 <HAL_FLASH_Unlock+0x40>)
 80015a0:	691b      	ldr	r3, [r3, #16]
 80015a2:	f003 0380 	and.w	r3, r3, #128	; 0x80
 80015a6:	2b00      	cmp	r3, #0
 80015a8:	d00d      	beq.n	80015c6 <HAL_FLASH_Unlock+0x32>
  {
    /* Authorize the FLASH Registers access */
    WRITE_REG(FLASH->KEYR, FLASH_KEY1);
 80015aa:	4b0a      	ldr	r3, [pc, #40]	; (80015d4 <HAL_FLASH_Unlock+0x40>)
 80015ac:	4a0a      	ldr	r2, [pc, #40]	; (80015d8 <HAL_FLASH_Unlock+0x44>)
 80015ae:	605a      	str	r2, [r3, #4]
    WRITE_REG(FLASH->KEYR, FLASH_KEY2);
 80015b0:	4b08      	ldr	r3, [pc, #32]	; (80015d4 <HAL_FLASH_Unlock+0x40>)
 80015b2:	4a0a      	ldr	r2, [pc, #40]	; (80015dc <HAL_FLASH_Unlock+0x48>)
 80015b4:	605a      	str	r2, [r3, #4]

    /* Verify Flash is unlocked */
    if(READ_BIT(FLASH->CR, FLASH_CR_LOCK) != RESET)
 80015b6:	4b07      	ldr	r3, [pc, #28]	; (80015d4 <HAL_FLASH_Unlock+0x40>)
 80015b8:	691b      	ldr	r3, [r3, #16]
 80015ba:	f003 0380 	and.w	r3, r3, #128	; 0x80
 80015be:	2b00      	cmp	r3, #0
 80015c0:	d001      	beq.n	80015c6 <HAL_FLASH_Unlock+0x32>
    {
      status = HAL_ERROR;
 80015c2:	2301      	movs	r3, #1
 80015c4:	71fb      	strb	r3, [r7, #7]
      status = HAL_ERROR;
    }
  }
#endif /* FLASH_BANK2_END */

  return status;
 80015c6:	79fb      	ldrb	r3, [r7, #7]
}
 80015c8:	4618      	mov	r0, r3
 80015ca:	370c      	adds	r7, #12
 80015cc:	46bd      	mov	sp, r7
 80015ce:	bc80      	pop	{r7}
 80015d0:	4770      	bx	lr
 80015d2:	bf00      	nop
 80015d4:	40022000 	.word	0x40022000
 80015d8:	45670123 	.word	0x45670123
 80015dc:	cdef89ab 	.word	0xcdef89ab

080015e0 <HAL_FLASH_Lock>:
/**
  * @brief  Locks the FLASH control register access
  * @retval HAL Status
  */
HAL_StatusTypeDef HAL_FLASH_Lock(void)
{
 80015e0:	b480      	push	{r7}
 80015e2:	af00      	add	r7, sp, #0
  /* Set the LOCK Bit to lock the FLASH Registers access */
  SET_BIT(FLASH->CR, FLASH_CR_LOCK);
 80015e4:	4b05      	ldr	r3, [pc, #20]	; (80015fc <HAL_FLASH_Lock+0x1c>)
 80015e6:	691b      	ldr	r3, [r3, #16]
 80015e8:	4a04      	ldr	r2, [pc, #16]	; (80015fc <HAL_FLASH_Lock+0x1c>)
 80015ea:	f043 0380 	orr.w	r3, r3, #128	; 0x80
 80015ee:	6113      	str	r3, [r2, #16]
#if defined(FLASH_BANK2_END)
  /* Set the LOCK Bit to lock the FLASH BANK2 Registers access */
  SET_BIT(FLASH->CR2, FLASH_CR2_LOCK);

#endif /* FLASH_BANK2_END */
  return HAL_OK;  
 80015f0:	2300      	movs	r3, #0
}
 80015f2:	4618      	mov	r0, r3
 80015f4:	46bd      	mov	sp, r7
 80015f6:	bc80      	pop	{r7}
 80015f8:	4770      	bx	lr
 80015fa:	bf00      	nop
 80015fc:	40022000 	.word	0x40022000

08001600 <HAL_FLASH_OB_Unlock>:
/**
  * @brief  Unlock the FLASH Option Control Registers access.
  * @retval HAL Status
  */
HAL_StatusTypeDef HAL_FLASH_OB_Unlock(void)
{
 8001600:	b480      	push	{r7}
 8001602:	af00      	add	r7, sp, #0
  if (HAL_IS_BIT_CLR(FLASH->CR, FLASH_CR_OPTWRE))
 8001604:	4b09      	ldr	r3, [pc, #36]	; (800162c <HAL_FLASH_OB_Unlock+0x2c>)
 8001606:	691b      	ldr	r3, [r3, #16]
 8001608:	f403 7300 	and.w	r3, r3, #512	; 0x200
 800160c:	2b00      	cmp	r3, #0
 800160e:	d107      	bne.n	8001620 <HAL_FLASH_OB_Unlock+0x20>
  {
    /* Authorizes the Option Byte register programming */
    WRITE_REG(FLASH->OPTKEYR, FLASH_OPTKEY1);
 8001610:	4b06      	ldr	r3, [pc, #24]	; (800162c <HAL_FLASH_OB_Unlock+0x2c>)
 8001612:	4a07      	ldr	r2, [pc, #28]	; (8001630 <HAL_FLASH_OB_Unlock+0x30>)
 8001614:	609a      	str	r2, [r3, #8]
    WRITE_REG(FLASH->OPTKEYR, FLASH_OPTKEY2);
 8001616:	4b05      	ldr	r3, [pc, #20]	; (800162c <HAL_FLASH_OB_Unlock+0x2c>)
 8001618:	4a06      	ldr	r2, [pc, #24]	; (8001634 <HAL_FLASH_OB_Unlock+0x34>)
 800161a:	609a      	str	r2, [r3, #8]
  else
  {
    return HAL_ERROR;
  }  
  
  return HAL_OK;  
 800161c:	2300      	movs	r3, #0
 800161e:	e000      	b.n	8001622 <HAL_FLASH_OB_Unlock+0x22>
    return HAL_ERROR;
 8001620:	2301      	movs	r3, #1
}
 8001622:	4618      	mov	r0, r3
 8001624:	46bd      	mov	sp, r7
 8001626:	bc80      	pop	{r7}
 8001628:	4770      	bx	lr
 800162a:	bf00      	nop
 800162c:	40022000 	.word	0x40022000
 8001630:	45670123 	.word	0x45670123
 8001634:	cdef89ab 	.word	0xcdef89ab

08001638 <HAL_FLASH_OB_Lock>:
/**
  * @brief  Lock the FLASH Option Control Registers access.
  * @retval HAL Status 
  */
HAL_StatusTypeDef HAL_FLASH_OB_Lock(void)
{
 8001638:	b480      	push	{r7}
 800163a:	af00      	add	r7, sp, #0
  /* Clear the OPTWRE Bit to lock the FLASH Option Byte Registers access */
  CLEAR_BIT(FLASH->CR, FLASH_CR_OPTWRE);
 800163c:	4b05      	ldr	r3, [pc, #20]	; (8001654 <HAL_FLASH_OB_Lock+0x1c>)
 800163e:	691b      	ldr	r3, [r3, #16]
 8001640:	4a04      	ldr	r2, [pc, #16]	; (8001654 <HAL_FLASH_OB_Lock+0x1c>)
 8001642:	f423 7300 	bic.w	r3, r3, #512	; 0x200
 8001646:	6113      	str	r3, [r2, #16]
  
  return HAL_OK;  
 8001648:	2300      	movs	r3, #0
}
 800164a:	4618      	mov	r0, r3
 800164c:	46bd      	mov	sp, r7
 800164e:	bc80      	pop	{r7}
 8001650:	4770      	bx	lr
 8001652:	bf00      	nop
 8001654:	40022000 	.word	0x40022000

08001658 <FLASH_Program_HalfWord>:
  * @param  Address specify the address to be programmed.
  * @param  Data    specify the data to be programmed.
  * @retval None
  */
static void FLASH_Program_HalfWord(uint32_t Address, uint16_t Data)
{
 8001658:	b480      	push	{r7}
 800165a:	b083      	sub	sp, #12
 800165c:	af00      	add	r7, sp, #0
 800165e:	6078      	str	r0, [r7, #4]
 8001660:	460b      	mov	r3, r1
 8001662:	807b      	strh	r3, [r7, #2]
  /* Clean the error context */
  pFlash.ErrorCode = HAL_FLASH_ERROR_NONE;
 8001664:	4b08      	ldr	r3, [pc, #32]	; (8001688 <FLASH_Program_HalfWord+0x30>)
 8001666:	2200      	movs	r2, #0
 8001668:	61da      	str	r2, [r3, #28]
#if defined(FLASH_BANK2_END)
  if(Address <= FLASH_BANK1_END)
  {
#endif /* FLASH_BANK2_END */
    /* Proceed to program the new data */
    SET_BIT(FLASH->CR, FLASH_CR_PG);
 800166a:	4b08      	ldr	r3, [pc, #32]	; (800168c <FLASH_Program_HalfWord+0x34>)
 800166c:	691b      	ldr	r3, [r3, #16]
 800166e:	4a07      	ldr	r2, [pc, #28]	; (800168c <FLASH_Program_HalfWord+0x34>)
 8001670:	f043 0301 	orr.w	r3, r3, #1
 8001674:	6113      	str	r3, [r2, #16]
    SET_BIT(FLASH->CR2, FLASH_CR2_PG);
  }
#endif /* FLASH_BANK2_END */

  /* Write data in the address */
  *(__IO uint16_t*)Address = Data;
 8001676:	687b      	ldr	r3, [r7, #4]
 8001678:	887a      	ldrh	r2, [r7, #2]
 800167a:	801a      	strh	r2, [r3, #0]
}
 800167c:	bf00      	nop
 800167e:	370c      	adds	r7, #12
 8001680:	46bd      	mov	sp, r7
 8001682:	bc80      	pop	{r7}
 8001684:	4770      	bx	lr
 8001686:	bf00      	nop
 8001688:	20000150 	.word	0x20000150
 800168c:	40022000 	.word	0x40022000

08001690 <FLASH_WaitForLastOperation>:
  * @brief  Wait for a FLASH operation to complete.
  * @param  Timeout  maximum flash operation timeout
  * @retval HAL Status
  */
HAL_StatusTypeDef FLASH_WaitForLastOperation(uint32_t Timeout)
{
 8001690:	b580      	push	{r7, lr}
 8001692:	b084      	sub	sp, #16
 8001694:	af00      	add	r7, sp, #0
 8001696:	6078      	str	r0, [r7, #4]
  /* Wait for the FLASH operation to complete by polling on BUSY flag to be reset.
     Even if the FLASH operation fails, the BUSY flag will be reset and an error
     flag will be set */
     
  uint32_t tickstart = HAL_GetTick();
 8001698:	f7ff fdd2 	bl	8001240 <HAL_GetTick>
 800169c:	60f8      	str	r0, [r7, #12]
     
  while(__HAL_FLASH_GET_FLAG(FLASH_FLAG_BSY)) 
 800169e:	e010      	b.n	80016c2 <FLASH_WaitForLastOperation+0x32>
  { 
    if (Timeout != HAL_MAX_DELAY)
 80016a0:	687b      	ldr	r3, [r7, #4]
 80016a2:	f1b3 3fff 	cmp.w	r3, #4294967295
 80016a6:	d00c      	beq.n	80016c2 <FLASH_WaitForLastOperation+0x32>
    {
      if((Timeout == 0U) || ((HAL_GetTick()-tickstart) > Timeout))
 80016a8:	687b      	ldr	r3, [r7, #4]
 80016aa:	2b00      	cmp	r3, #0
 80016ac:	d007      	beq.n	80016be <FLASH_WaitForLastOperation+0x2e>
 80016ae:	f7ff fdc7 	bl	8001240 <HAL_GetTick>
 80016b2:	4602      	mov	r2, r0
 80016b4:	68fb      	ldr	r3, [r7, #12]
 80016b6:	1ad3      	subs	r3, r2, r3
 80016b8:	687a      	ldr	r2, [r7, #4]
 80016ba:	429a      	cmp	r2, r3
 80016bc:	d201      	bcs.n	80016c2 <FLASH_WaitForLastOperation+0x32>
      {
        return HAL_TIMEOUT;
 80016be:	2303      	movs	r3, #3
 80016c0:	e025      	b.n	800170e <FLASH_WaitForLastOperation+0x7e>
  while(__HAL_FLASH_GET_FLAG(FLASH_FLAG_BSY)) 
 80016c2:	4b15      	ldr	r3, [pc, #84]	; (8001718 <FLASH_WaitForLastOperation+0x88>)
 80016c4:	68db      	ldr	r3, [r3, #12]
 80016c6:	f003 0301 	and.w	r3, r3, #1
 80016ca:	2b00      	cmp	r3, #0
 80016cc:	d1e8      	bne.n	80016a0 <FLASH_WaitForLastOperation+0x10>
      }
    }
  }
  
  /* Check FLASH End of Operation flag  */
  if (__HAL_FLASH_GET_FLAG(FLASH_FLAG_EOP))
 80016ce:	4b12      	ldr	r3, [pc, #72]	; (8001718 <FLASH_WaitForLastOperation+0x88>)
 80016d0:	68db      	ldr	r3, [r3, #12]
 80016d2:	f003 0320 	and.w	r3, r3, #32
 80016d6:	2b00      	cmp	r3, #0
 80016d8:	d002      	beq.n	80016e0 <FLASH_WaitForLastOperation+0x50>
  {
    /* Clear FLASH End of Operation pending bit */
    __HAL_FLASH_CLEAR_FLAG(FLASH_FLAG_EOP);
 80016da:	4b0f      	ldr	r3, [pc, #60]	; (8001718 <FLASH_WaitForLastOperation+0x88>)
 80016dc:	2220      	movs	r2, #32
 80016de:	60da      	str	r2, [r3, #12]
  }
  
  if(__HAL_FLASH_GET_FLAG(FLASH_FLAG_WRPERR)  || 
 80016e0:	4b0d      	ldr	r3, [pc, #52]	; (8001718 <FLASH_WaitForLastOperation+0x88>)
 80016e2:	68db      	ldr	r3, [r3, #12]
 80016e4:	f003 0310 	and.w	r3, r3, #16
 80016e8:	2b00      	cmp	r3, #0
 80016ea:	d10b      	bne.n	8001704 <FLASH_WaitForLastOperation+0x74>
     __HAL_FLASH_GET_FLAG(FLASH_FLAG_OPTVERR) || 
 80016ec:	4b0a      	ldr	r3, [pc, #40]	; (8001718 <FLASH_WaitForLastOperation+0x88>)
 80016ee:	69db      	ldr	r3, [r3, #28]
 80016f0:	f003 0301 	and.w	r3, r3, #1
  if(__HAL_FLASH_GET_FLAG(FLASH_FLAG_WRPERR)  || 
 80016f4:	2b00      	cmp	r3, #0
 80016f6:	d105      	bne.n	8001704 <FLASH_WaitForLastOperation+0x74>
     __HAL_FLASH_GET_FLAG(FLASH_FLAG_PGERR))
 80016f8:	4b07      	ldr	r3, [pc, #28]	; (8001718 <FLASH_WaitForLastOperation+0x88>)
 80016fa:	68db      	ldr	r3, [r3, #12]
 80016fc:	f003 0304 	and.w	r3, r3, #4
     __HAL_FLASH_GET_FLAG(FLASH_FLAG_OPTVERR) || 
 8001700:	2b00      	cmp	r3, #0
 8001702:	d003      	beq.n	800170c <FLASH_WaitForLastOperation+0x7c>
  {
    /*Save the error code*/
    FLASH_SetErrorCode();
 8001704:	f000 f80a 	bl	800171c <FLASH_SetErrorCode>
    return HAL_ERROR;
 8001708:	2301      	movs	r3, #1
 800170a:	e000      	b.n	800170e <FLASH_WaitForLastOperation+0x7e>
  }

  /* There is no error flag set */
  return HAL_OK;
 800170c:	2300      	movs	r3, #0
}
 800170e:	4618      	mov	r0, r3
 8001710:	3710      	adds	r7, #16
 8001712:	46bd      	mov	sp, r7
 8001714:	bd80      	pop	{r7, pc}
 8001716:	bf00      	nop
 8001718:	40022000 	.word	0x40022000

0800171c <FLASH_SetErrorCode>:
/**
  * @brief  Set the specific FLASH error flag.
  * @retval None
  */
static void FLASH_SetErrorCode(void)
{
 800171c:	b480      	push	{r7}
 800171e:	b083      	sub	sp, #12
 8001720:	af00      	add	r7, sp, #0
  uint32_t flags = 0U;
 8001722:	2300      	movs	r3, #0
 8001724:	607b      	str	r3, [r7, #4]
  
#if defined(FLASH_BANK2_END)
  if(__HAL_FLASH_GET_FLAG(FLASH_FLAG_WRPERR) || __HAL_FLASH_GET_FLAG(FLASH_FLAG_WRPERR_BANK2))
#else
  if(__HAL_FLASH_GET_FLAG(FLASH_FLAG_WRPERR))
 8001726:	4b23      	ldr	r3, [pc, #140]	; (80017b4 <FLASH_SetErrorCode+0x98>)
 8001728:	68db      	ldr	r3, [r3, #12]
 800172a:	f003 0310 	and.w	r3, r3, #16
 800172e:	2b00      	cmp	r3, #0
 8001730:	d009      	beq.n	8001746 <FLASH_SetErrorCode+0x2a>
#endif /* FLASH_BANK2_END */
  {
    pFlash.ErrorCode |= HAL_FLASH_ERROR_WRP;
 8001732:	4b21      	ldr	r3, [pc, #132]	; (80017b8 <FLASH_SetErrorCode+0x9c>)
 8001734:	69db      	ldr	r3, [r3, #28]
 8001736:	f043 0302 	orr.w	r3, r3, #2
 800173a:	4a1f      	ldr	r2, [pc, #124]	; (80017b8 <FLASH_SetErrorCode+0x9c>)
 800173c:	61d3      	str	r3, [r2, #28]
#if defined(FLASH_BANK2_END)
    flags |= FLASH_FLAG_WRPERR | FLASH_FLAG_WRPERR_BANK2;
#else
    flags |= FLASH_FLAG_WRPERR;
 800173e:	687b      	ldr	r3, [r7, #4]
 8001740:	f043 0310 	orr.w	r3, r3, #16
 8001744:	607b      	str	r3, [r7, #4]
#endif /* FLASH_BANK2_END */
  }
#if defined(FLASH_BANK2_END)
  if(__HAL_FLASH_GET_FLAG(FLASH_FLAG_PGERR) || __HAL_FLASH_GET_FLAG(FLASH_FLAG_PGERR_BANK2))
#else
  if(__HAL_FLASH_GET_FLAG(FLASH_FLAG_PGERR))
 8001746:	4b1b      	ldr	r3, [pc, #108]	; (80017b4 <FLASH_SetErrorCode+0x98>)
 8001748:	68db      	ldr	r3, [r3, #12]
 800174a:	f003 0304 	and.w	r3, r3, #4
 800174e:	2b00      	cmp	r3, #0
 8001750:	d009      	beq.n	8001766 <FLASH_SetErrorCode+0x4a>
#endif /* FLASH_BANK2_END */
  {
    pFlash.ErrorCode |= HAL_FLASH_ERROR_PROG;
 8001752:	4b19      	ldr	r3, [pc, #100]	; (80017b8 <FLASH_SetErrorCode+0x9c>)
 8001754:	69db      	ldr	r3, [r3, #28]
 8001756:	f043 0301 	orr.w	r3, r3, #1
 800175a:	4a17      	ldr	r2, [pc, #92]	; (80017b8 <FLASH_SetErrorCode+0x9c>)
 800175c:	61d3      	str	r3, [r2, #28]
#if defined(FLASH_BANK2_END)
    flags |= FLASH_FLAG_PGERR | FLASH_FLAG_PGERR_BANK2;
#else
    flags |= FLASH_FLAG_PGERR;
 800175e:	687b      	ldr	r3, [r7, #4]
 8001760:	f043 0304 	orr.w	r3, r3, #4
 8001764:	607b      	str	r3, [r7, #4]
#endif /* FLASH_BANK2_END */
  }
  if(__HAL_FLASH_GET_FLAG(FLASH_FLAG_OPTVERR))
 8001766:	4b13      	ldr	r3, [pc, #76]	; (80017b4 <FLASH_SetErrorCode+0x98>)
 8001768:	69db      	ldr	r3, [r3, #28]
 800176a:	f003 0301 	and.w	r3, r3, #1
 800176e:	2b00      	cmp	r3, #0
 8001770:	d00b      	beq.n	800178a <FLASH_SetErrorCode+0x6e>
  {
    pFlash.ErrorCode |= HAL_FLASH_ERROR_OPTV;
 8001772:	4b11      	ldr	r3, [pc, #68]	; (80017b8 <FLASH_SetErrorCode+0x9c>)
 8001774:	69db      	ldr	r3, [r3, #28]
 8001776:	f043 0304 	orr.w	r3, r3, #4
 800177a:	4a0f      	ldr	r2, [pc, #60]	; (80017b8 <FLASH_SetErrorCode+0x9c>)
 800177c:	61d3      	str	r3, [r2, #28]
  __HAL_FLASH_CLEAR_FLAG(FLASH_FLAG_OPTVERR);
 800177e:	4b0d      	ldr	r3, [pc, #52]	; (80017b4 <FLASH_SetErrorCode+0x98>)
 8001780:	69db      	ldr	r3, [r3, #28]
 8001782:	4a0c      	ldr	r2, [pc, #48]	; (80017b4 <FLASH_SetErrorCode+0x98>)
 8001784:	f023 0301 	bic.w	r3, r3, #1
 8001788:	61d3      	str	r3, [r2, #28]
  }

  /* Clear FLASH error pending bits */
  __HAL_FLASH_CLEAR_FLAG(flags);
 800178a:	687b      	ldr	r3, [r7, #4]
 800178c:	f240 1201 	movw	r2, #257	; 0x101
 8001790:	4293      	cmp	r3, r2
 8001792:	d106      	bne.n	80017a2 <FLASH_SetErrorCode+0x86>
 8001794:	4b07      	ldr	r3, [pc, #28]	; (80017b4 <FLASH_SetErrorCode+0x98>)
 8001796:	69db      	ldr	r3, [r3, #28]
 8001798:	4a06      	ldr	r2, [pc, #24]	; (80017b4 <FLASH_SetErrorCode+0x98>)
 800179a:	f023 0301 	bic.w	r3, r3, #1
 800179e:	61d3      	str	r3, [r2, #28]
}  
 80017a0:	e002      	b.n	80017a8 <FLASH_SetErrorCode+0x8c>
  __HAL_FLASH_CLEAR_FLAG(flags);
 80017a2:	4a04      	ldr	r2, [pc, #16]	; (80017b4 <FLASH_SetErrorCode+0x98>)
 80017a4:	687b      	ldr	r3, [r7, #4]
 80017a6:	60d3      	str	r3, [r2, #12]
}  
 80017a8:	bf00      	nop
 80017aa:	370c      	adds	r7, #12
 80017ac:	46bd      	mov	sp, r7
 80017ae:	bc80      	pop	{r7}
 80017b0:	4770      	bx	lr
 80017b2:	bf00      	nop
 80017b4:	40022000 	.word	0x40022000
 80017b8:	20000150 	.word	0x20000150

080017bc <HAL_FLASHEx_Erase>:
  *         (0xFFFFFFFF means that all the pages have been correctly erased)
  *
  * @retval HAL_StatusTypeDef HAL Status
  */
HAL_StatusTypeDef HAL_FLASHEx_Erase(FLASH_EraseInitTypeDef *pEraseInit, uint32_t *PageError)
{
 80017bc:	b580      	push	{r7, lr}
 80017be:	b084      	sub	sp, #16
 80017c0:	af00      	add	r7, sp, #0
 80017c2:	6078      	str	r0, [r7, #4]
 80017c4:	6039      	str	r1, [r7, #0]
  HAL_StatusTypeDef status = HAL_ERROR;
 80017c6:	2301      	movs	r3, #1
 80017c8:	73fb      	strb	r3, [r7, #15]
  uint32_t address = 0U;
 80017ca:	2300      	movs	r3, #0
 80017cc:	60bb      	str	r3, [r7, #8]

  /* Process Locked */
  __HAL_LOCK(&pFlash);
 80017ce:	4b2f      	ldr	r3, [pc, #188]	; (800188c <HAL_FLASHEx_Erase+0xd0>)
 80017d0:	7e1b      	ldrb	r3, [r3, #24]
 80017d2:	2b01      	cmp	r3, #1
 80017d4:	d101      	bne.n	80017da <HAL_FLASHEx_Erase+0x1e>
 80017d6:	2302      	movs	r3, #2
 80017d8:	e053      	b.n	8001882 <HAL_FLASHEx_Erase+0xc6>
 80017da:	4b2c      	ldr	r3, [pc, #176]	; (800188c <HAL_FLASHEx_Erase+0xd0>)
 80017dc:	2201      	movs	r2, #1
 80017de:	761a      	strb	r2, [r3, #24]

  /* Check the parameters */
  assert_param(IS_FLASH_TYPEERASE(pEraseInit->TypeErase));

  if (pEraseInit->TypeErase == FLASH_TYPEERASE_MASSERASE)
 80017e0:	687b      	ldr	r3, [r7, #4]
 80017e2:	681b      	ldr	r3, [r3, #0]
 80017e4:	2b02      	cmp	r3, #2
 80017e6:	d116      	bne.n	8001816 <HAL_FLASHEx_Erase+0x5a>
    else 
#endif /* FLASH_BANK2_END */
    {
      /* Mass Erase requested for Bank1 */
      /* Wait for last operation to be completed */
      if (FLASH_WaitForLastOperation((uint32_t)FLASH_TIMEOUT_VALUE) == HAL_OK)
 80017e8:	f24c 3050 	movw	r0, #50000	; 0xc350
 80017ec:	f7ff ff50 	bl	8001690 <FLASH_WaitForLastOperation>
 80017f0:	4603      	mov	r3, r0
 80017f2:	2b00      	cmp	r3, #0
 80017f4:	d141      	bne.n	800187a <HAL_FLASHEx_Erase+0xbe>
      {
        /*Mass erase to be done*/
        FLASH_MassErase(FLASH_BANK_1);
 80017f6:	2001      	movs	r0, #1
 80017f8:	f000 f868 	bl	80018cc <FLASH_MassErase>
        
        /* Wait for last operation to be completed */
        status = FLASH_WaitForLastOperation((uint32_t)FLASH_TIMEOUT_VALUE);
 80017fc:	f24c 3050 	movw	r0, #50000	; 0xc350
 8001800:	f7ff ff46 	bl	8001690 <FLASH_WaitForLastOperation>
 8001804:	4603      	mov	r3, r0
 8001806:	73fb      	strb	r3, [r7, #15]
        
        /* If the erase operation is completed, disable the MER Bit */
        CLEAR_BIT(FLASH->CR, FLASH_CR_MER);
 8001808:	4b21      	ldr	r3, [pc, #132]	; (8001890 <HAL_FLASHEx_Erase+0xd4>)
 800180a:	691b      	ldr	r3, [r3, #16]
 800180c:	4a20      	ldr	r2, [pc, #128]	; (8001890 <HAL_FLASHEx_Erase+0xd4>)
 800180e:	f023 0304 	bic.w	r3, r3, #4
 8001812:	6113      	str	r3, [r2, #16]
 8001814:	e031      	b.n	800187a <HAL_FLASHEx_Erase+0xbe>
    else
#endif /* FLASH_BANK2_END */
   {
      /* Page Erase requested on address located on bank1 */
      /* Wait for last operation to be completed */
      if (FLASH_WaitForLastOperation((uint32_t)FLASH_TIMEOUT_VALUE) == HAL_OK)
 8001816:	f24c 3050 	movw	r0, #50000	; 0xc350
 800181a:	f7ff ff39 	bl	8001690 <FLASH_WaitForLastOperation>
 800181e:	4603      	mov	r3, r0
 8001820:	2b00      	cmp	r3, #0
 8001822:	d12a      	bne.n	800187a <HAL_FLASHEx_Erase+0xbe>
      {
        /*Initialization of PageError variable*/
        *PageError = 0xFFFFFFFFU;
 8001824:	683b      	ldr	r3, [r7, #0]
 8001826:	f04f 32ff 	mov.w	r2, #4294967295
 800182a:	601a      	str	r2, [r3, #0]
        
        /* Erase page by page to be done*/
        for(address = pEraseInit->PageAddress;
 800182c:	687b      	ldr	r3, [r7, #4]
 800182e:	689b      	ldr	r3, [r3, #8]
 8001830:	60bb      	str	r3, [r7, #8]
 8001832:	e019      	b.n	8001868 <HAL_FLASHEx_Erase+0xac>
            address < ((pEraseInit->NbPages * FLASH_PAGE_SIZE) + pEraseInit->PageAddress);
            address += FLASH_PAGE_SIZE)
        {
          FLASH_PageErase(address);
 8001834:	68b8      	ldr	r0, [r7, #8]
 8001836:	f000 f89b 	bl	8001970 <FLASH_PageErase>
          
          /* Wait for last operation to be completed */
          status = FLASH_WaitForLastOperation((uint32_t)FLASH_TIMEOUT_VALUE);
 800183a:	f24c 3050 	movw	r0, #50000	; 0xc350
 800183e:	f7ff ff27 	bl	8001690 <FLASH_WaitForLastOperation>
 8001842:	4603      	mov	r3, r0
 8001844:	73fb      	strb	r3, [r7, #15]
          
          /* If the erase operation is completed, disable the PER Bit */
          CLEAR_BIT(FLASH->CR, FLASH_CR_PER);
 8001846:	4b12      	ldr	r3, [pc, #72]	; (8001890 <HAL_FLASHEx_Erase+0xd4>)
 8001848:	691b      	ldr	r3, [r3, #16]
 800184a:	4a11      	ldr	r2, [pc, #68]	; (8001890 <HAL_FLASHEx_Erase+0xd4>)
 800184c:	f023 0302 	bic.w	r3, r3, #2
 8001850:	6113      	str	r3, [r2, #16]
          
          if (status != HAL_OK)
 8001852:	7bfb      	ldrb	r3, [r7, #15]
 8001854:	2b00      	cmp	r3, #0
 8001856:	d003      	beq.n	8001860 <HAL_FLASHEx_Erase+0xa4>
          {
            /* In case of error, stop erase procedure and return the faulty address */
            *PageError = address;
 8001858:	683b      	ldr	r3, [r7, #0]
 800185a:	68ba      	ldr	r2, [r7, #8]
 800185c:	601a      	str	r2, [r3, #0]
            break;
 800185e:	e00c      	b.n	800187a <HAL_FLASHEx_Erase+0xbe>
            address += FLASH_PAGE_SIZE)
 8001860:	68bb      	ldr	r3, [r7, #8]
 8001862:	f503 6380 	add.w	r3, r3, #1024	; 0x400
 8001866:	60bb      	str	r3, [r7, #8]
            address < ((pEraseInit->NbPages * FLASH_PAGE_SIZE) + pEraseInit->PageAddress);
 8001868:	687b      	ldr	r3, [r7, #4]
 800186a:	68db      	ldr	r3, [r3, #12]
 800186c:	029a      	lsls	r2, r3, #10
 800186e:	687b      	ldr	r3, [r7, #4]
 8001870:	689b      	ldr	r3, [r3, #8]
 8001872:	4413      	add	r3, r2
        for(address = pEraseInit->PageAddress;
 8001874:	68ba      	ldr	r2, [r7, #8]
 8001876:	429a      	cmp	r2, r3
 8001878:	d3dc      	bcc.n	8001834 <HAL_FLASHEx_Erase+0x78>
      }
    }
  }

  /* Process Unlocked */
  __HAL_UNLOCK(&pFlash);
 800187a:	4b04      	ldr	r3, [pc, #16]	; (800188c <HAL_FLASHEx_Erase+0xd0>)
 800187c:	2200      	movs	r2, #0
 800187e:	761a      	strb	r2, [r3, #24]

  return status;
 8001880:	7bfb      	ldrb	r3, [r7, #15]
}
 8001882:	4618      	mov	r0, r3
 8001884:	3710      	adds	r7, #16
 8001886:	46bd      	mov	sp, r7
 8001888:	bd80      	pop	{r7, pc}
 800188a:	bf00      	nop
 800188c:	20000150 	.word	0x20000150
 8001890:	40022000 	.word	0x40022000

08001894 <HAL_FLASHEx_OBGetConfig>:
  *         contains the configuration information for the programming.
  *
  * @retval None
  */
void HAL_FLASHEx_OBGetConfig(FLASH_OBProgramInitTypeDef *pOBInit)
{
 8001894:	b580      	push	{r7, lr}
 8001896:	b082      	sub	sp, #8
 8001898:	af00      	add	r7, sp, #0
 800189a:	6078      	str	r0, [r7, #4]
  pOBInit->OptionType = OPTIONBYTE_WRP | OPTIONBYTE_RDP | OPTIONBYTE_USER;
 800189c:	687b      	ldr	r3, [r7, #4]
 800189e:	2207      	movs	r2, #7
 80018a0:	601a      	str	r2, [r3, #0]

  /*Get WRP*/
  pOBInit->WRPPage = FLASH_OB_GetWRP();
 80018a2:	f000 f82f 	bl	8001904 <FLASH_OB_GetWRP>
 80018a6:	4602      	mov	r2, r0
 80018a8:	687b      	ldr	r3, [r7, #4]
 80018aa:	609a      	str	r2, [r3, #8]

  /*Get RDP Level*/
  pOBInit->RDPLevel = FLASH_OB_GetRDP();
 80018ac:	f000 f834 	bl	8001918 <FLASH_OB_GetRDP>
 80018b0:	4603      	mov	r3, r0
 80018b2:	b2da      	uxtb	r2, r3
 80018b4:	687b      	ldr	r3, [r7, #4]
 80018b6:	741a      	strb	r2, [r3, #16]

  /*Get USER*/
  pOBInit->USERConfig = FLASH_OB_GetUser();
 80018b8:	f000 f84a 	bl	8001950 <FLASH_OB_GetUser>
 80018bc:	4603      	mov	r3, r0
 80018be:	461a      	mov	r2, r3
 80018c0:	687b      	ldr	r3, [r7, #4]
 80018c2:	745a      	strb	r2, [r3, #17]
}
 80018c4:	bf00      	nop
 80018c6:	3708      	adds	r7, #8
 80018c8:	46bd      	mov	sp, r7
 80018ca:	bd80      	pop	{r7, pc}

080018cc <FLASH_MassErase>:
  @endif
  *
  * @retval None
  */
static void FLASH_MassErase(uint32_t Banks)
{
 80018cc:	b480      	push	{r7}
 80018ce:	b083      	sub	sp, #12
 80018d0:	af00      	add	r7, sp, #0
 80018d2:	6078      	str	r0, [r7, #4]
  /* Check the parameters */
  assert_param(IS_FLASH_BANK(Banks));

  /* Clean the error context */
  pFlash.ErrorCode = HAL_FLASH_ERROR_NONE;
 80018d4:	4b09      	ldr	r3, [pc, #36]	; (80018fc <FLASH_MassErase+0x30>)
 80018d6:	2200      	movs	r2, #0
 80018d8:	61da      	str	r2, [r3, #28]
#if !defined(FLASH_BANK2_END)
  /* Prevent unused argument(s) compilation warning */
  UNUSED(Banks);
#endif /* FLASH_BANK2_END */  
    /* Only bank1 will be erased*/
    SET_BIT(FLASH->CR, FLASH_CR_MER);
 80018da:	4b09      	ldr	r3, [pc, #36]	; (8001900 <FLASH_MassErase+0x34>)
 80018dc:	691b      	ldr	r3, [r3, #16]
 80018de:	4a08      	ldr	r2, [pc, #32]	; (8001900 <FLASH_MassErase+0x34>)
 80018e0:	f043 0304 	orr.w	r3, r3, #4
 80018e4:	6113      	str	r3, [r2, #16]
    SET_BIT(FLASH->CR, FLASH_CR_STRT);
 80018e6:	4b06      	ldr	r3, [pc, #24]	; (8001900 <FLASH_MassErase+0x34>)
 80018e8:	691b      	ldr	r3, [r3, #16]
 80018ea:	4a05      	ldr	r2, [pc, #20]	; (8001900 <FLASH_MassErase+0x34>)
 80018ec:	f043 0340 	orr.w	r3, r3, #64	; 0x40
 80018f0:	6113      	str	r3, [r2, #16]
#if defined(FLASH_BANK2_END)
  }
#endif /* FLASH_BANK2_END */
}
 80018f2:	bf00      	nop
 80018f4:	370c      	adds	r7, #12
 80018f6:	46bd      	mov	sp, r7
 80018f8:	bc80      	pop	{r7}
 80018fa:	4770      	bx	lr
 80018fc:	20000150 	.word	0x20000150
 8001900:	40022000 	.word	0x40022000

08001904 <FLASH_OB_GetWRP>:
/**
  * @brief  Return the FLASH Write Protection Option Bytes value.
  * @retval The FLASH Write Protection Option Bytes value
  */
static uint32_t FLASH_OB_GetWRP(void)
{
 8001904:	b480      	push	{r7}
 8001906:	af00      	add	r7, sp, #0
  /* Return the FLASH write protection Register value */
  return (uint32_t)(READ_REG(FLASH->WRPR));
 8001908:	4b02      	ldr	r3, [pc, #8]	; (8001914 <FLASH_OB_GetWRP+0x10>)
 800190a:	6a1b      	ldr	r3, [r3, #32]
}
 800190c:	4618      	mov	r0, r3
 800190e:	46bd      	mov	sp, r7
 8001910:	bc80      	pop	{r7}
 8001912:	4770      	bx	lr
 8001914:	40022000 	.word	0x40022000

08001918 <FLASH_OB_GetRDP>:
  *         This parameter can be one of the following values:
  *            @arg @ref OB_RDP_LEVEL_0 No protection
  *            @arg @ref OB_RDP_LEVEL_1 Read protection of the memory
  */
static uint32_t FLASH_OB_GetRDP(void)
{
 8001918:	b480      	push	{r7}
 800191a:	b083      	sub	sp, #12
 800191c:	af00      	add	r7, sp, #0
  uint32_t readstatus = OB_RDP_LEVEL_0;
 800191e:	23a5      	movs	r3, #165	; 0xa5
 8001920:	607b      	str	r3, [r7, #4]
  uint32_t tmp_reg = 0U;
 8001922:	2300      	movs	r3, #0
 8001924:	603b      	str	r3, [r7, #0]
  
  /* Read RDP level bits */
  tmp_reg = READ_BIT(FLASH->OBR, FLASH_OBR_RDPRT);
 8001926:	4b09      	ldr	r3, [pc, #36]	; (800194c <FLASH_OB_GetRDP+0x34>)
 8001928:	69db      	ldr	r3, [r3, #28]
 800192a:	f003 0302 	and.w	r3, r3, #2
 800192e:	603b      	str	r3, [r7, #0]

  if (tmp_reg == FLASH_OBR_RDPRT)
 8001930:	683b      	ldr	r3, [r7, #0]
 8001932:	2b02      	cmp	r3, #2
 8001934:	d102      	bne.n	800193c <FLASH_OB_GetRDP+0x24>
  {
    readstatus = OB_RDP_LEVEL_1;
 8001936:	2300      	movs	r3, #0
 8001938:	607b      	str	r3, [r7, #4]
 800193a:	e001      	b.n	8001940 <FLASH_OB_GetRDP+0x28>
  }
  else 
  {
    readstatus = OB_RDP_LEVEL_0;
 800193c:	23a5      	movs	r3, #165	; 0xa5
 800193e:	607b      	str	r3, [r7, #4]
  }

  return readstatus;
 8001940:	687b      	ldr	r3, [r7, #4]
}
 8001942:	4618      	mov	r0, r3
 8001944:	370c      	adds	r7, #12
 8001946:	46bd      	mov	sp, r7
 8001948:	bc80      	pop	{r7}
 800194a:	4770      	bx	lr
 800194c:	40022000 	.word	0x40022000

08001950 <FLASH_OB_GetUser>:
  * @retval The FLASH User Option Bytes values: FLASH_OBR_IWDG_SW(Bit2), 
  *         FLASH_OBR_nRST_STOP(Bit3),FLASH_OBR_nRST_STDBY(Bit4).
  *         And FLASH_OBR_BFB2(Bit5) for STM32F101xG and STM32F103xG . 
  */
static uint8_t FLASH_OB_GetUser(void)
{
 8001950:	b480      	push	{r7}
 8001952:	af00      	add	r7, sp, #0
  /* Return the User Option Byte */
  return (uint8_t)((READ_REG(FLASH->OBR) & FLASH_OBR_USER) >> FLASH_POSITION_IWDGSW_BIT);
 8001954:	4b05      	ldr	r3, [pc, #20]	; (800196c <FLASH_OB_GetUser+0x1c>)
 8001956:	69db      	ldr	r3, [r3, #28]
 8001958:	089b      	lsrs	r3, r3, #2
 800195a:	b2db      	uxtb	r3, r3
 800195c:	f003 0307 	and.w	r3, r3, #7
 8001960:	b2db      	uxtb	r3, r3
}
 8001962:	4618      	mov	r0, r3
 8001964:	46bd      	mov	sp, r7
 8001966:	bc80      	pop	{r7}
 8001968:	4770      	bx	lr
 800196a:	bf00      	nop
 800196c:	40022000 	.word	0x40022000

08001970 <FLASH_PageErase>:
  *         The value of this parameter depend on device used within the same series      
  * 
  * @retval None
  */
void FLASH_PageErase(uint32_t PageAddress)
{
 8001970:	b480      	push	{r7}
 8001972:	b083      	sub	sp, #12
 8001974:	af00      	add	r7, sp, #0
 8001976:	6078      	str	r0, [r7, #4]
  /* Clean the error context */
  pFlash.ErrorCode = HAL_FLASH_ERROR_NONE;
 8001978:	4b0b      	ldr	r3, [pc, #44]	; (80019a8 <FLASH_PageErase+0x38>)
 800197a:	2200      	movs	r2, #0
 800197c:	61da      	str	r2, [r3, #28]
  }
  else
  {
#endif /* FLASH_BANK2_END */
    /* Proceed to erase the page */
    SET_BIT(FLASH->CR, FLASH_CR_PER);
 800197e:	4b0b      	ldr	r3, [pc, #44]	; (80019ac <FLASH_PageErase+0x3c>)
 8001980:	691b      	ldr	r3, [r3, #16]
 8001982:	4a0a      	ldr	r2, [pc, #40]	; (80019ac <FLASH_PageErase+0x3c>)
 8001984:	f043 0302 	orr.w	r3, r3, #2
 8001988:	6113      	str	r3, [r2, #16]
    WRITE_REG(FLASH->AR, PageAddress);
 800198a:	4a08      	ldr	r2, [pc, #32]	; (80019ac <FLASH_PageErase+0x3c>)
 800198c:	687b      	ldr	r3, [r7, #4]
 800198e:	6153      	str	r3, [r2, #20]
    SET_BIT(FLASH->CR, FLASH_CR_STRT);
 8001990:	4b06      	ldr	r3, [pc, #24]	; (80019ac <FLASH_PageErase+0x3c>)
 8001992:	691b      	ldr	r3, [r3, #16]
 8001994:	4a05      	ldr	r2, [pc, #20]	; (80019ac <FLASH_PageErase+0x3c>)
 8001996:	f043 0340 	orr.w	r3, r3, #64	; 0x40
 800199a:	6113      	str	r3, [r2, #16]
#if defined(FLASH_BANK2_END)
  }
#endif /* FLASH_BANK2_END */
}
 800199c:	bf00      	nop
 800199e:	370c      	adds	r7, #12
 80019a0:	46bd      	mov	sp, r7
 80019a2:	bc80      	pop	{r7}
 80019a4:	4770      	bx	lr
 80019a6:	bf00      	nop
 80019a8:	20000150 	.word	0x20000150
 80019ac:	40022000 	.word	0x40022000

080019b0 <HAL_GPIO_Init>:
  * @param  GPIO_Init: pointer to a GPIO_InitTypeDef structure that contains
  *         the configuration information for the specified GPIO peripheral.
  * @retval None
  */
void HAL_GPIO_Init(GPIO_TypeDef  *GPIOx, GPIO_InitTypeDef *GPIO_Init)
{
 80019b0:	b480      	push	{r7}
 80019b2:	b08b      	sub	sp, #44	; 0x2c
 80019b4:	af00      	add	r7, sp, #0
 80019b6:	6078      	str	r0, [r7, #4]
 80019b8:	6039      	str	r1, [r7, #0]
  uint32_t position = 0x00u;
 80019ba:	2300      	movs	r3, #0
 80019bc:	627b      	str	r3, [r7, #36]	; 0x24
  uint32_t ioposition;
  uint32_t iocurrent;
  uint32_t temp;
  uint32_t config = 0x00u;
 80019be:	2300      	movs	r3, #0
 80019c0:	623b      	str	r3, [r7, #32]
  assert_param(IS_GPIO_ALL_INSTANCE(GPIOx));
  assert_param(IS_GPIO_PIN(GPIO_Init->Pin));
  assert_param(IS_GPIO_MODE(GPIO_Init->Mode));

  /* Configure the port pins */
  while (((GPIO_Init->Pin) >> position) != 0x00u)
 80019c2:	e127      	b.n	8001c14 <HAL_GPIO_Init+0x264>
  {
    /* Get the IO position */
    ioposition = (0x01uL << position);
 80019c4:	2201      	movs	r2, #1
 80019c6:	6a7b      	ldr	r3, [r7, #36]	; 0x24
 80019c8:	fa02 f303 	lsl.w	r3, r2, r3
 80019cc:	61fb      	str	r3, [r7, #28]

    /* Get the current IO position */
    iocurrent = (uint32_t)(GPIO_Init->Pin) & ioposition;
 80019ce:	683b      	ldr	r3, [r7, #0]
 80019d0:	681b      	ldr	r3, [r3, #0]
 80019d2:	69fa      	ldr	r2, [r7, #28]
 80019d4:	4013      	ands	r3, r2
 80019d6:	61bb      	str	r3, [r7, #24]

    if (iocurrent == ioposition)
 80019d8:	69ba      	ldr	r2, [r7, #24]
 80019da:	69fb      	ldr	r3, [r7, #28]
 80019dc:	429a      	cmp	r2, r3
 80019de:	f040 8116 	bne.w	8001c0e <HAL_GPIO_Init+0x25e>
    {
      /* Check the Alternate function parameters */
      assert_param(IS_GPIO_AF_INSTANCE(GPIOx));

      /* Based on the required mode, filling config variable with MODEy[1:0] and CNFy[3:2] corresponding bits */
      switch (GPIO_Init->Mode)
 80019e2:	683b      	ldr	r3, [r7, #0]
 80019e4:	685b      	ldr	r3, [r3, #4]
 80019e6:	2b12      	cmp	r3, #18
 80019e8:	d034      	beq.n	8001a54 <HAL_GPIO_Init+0xa4>
 80019ea:	2b12      	cmp	r3, #18
 80019ec:	d80d      	bhi.n	8001a0a <HAL_GPIO_Init+0x5a>
 80019ee:	2b02      	cmp	r3, #2
 80019f0:	d02b      	beq.n	8001a4a <HAL_GPIO_Init+0x9a>
 80019f2:	2b02      	cmp	r3, #2
 80019f4:	d804      	bhi.n	8001a00 <HAL_GPIO_Init+0x50>
 80019f6:	2b00      	cmp	r3, #0
 80019f8:	d031      	beq.n	8001a5e <HAL_GPIO_Init+0xae>
 80019fa:	2b01      	cmp	r3, #1
 80019fc:	d01c      	beq.n	8001a38 <HAL_GPIO_Init+0x88>
          config = GPIO_CR_MODE_INPUT + GPIO_CR_CNF_ANALOG;
          break;

        /* Parameters are checked with assert_param */
        default:
          break;
 80019fe:	e048      	b.n	8001a92 <HAL_GPIO_Init+0xe2>
      switch (GPIO_Init->Mode)
 8001a00:	2b03      	cmp	r3, #3
 8001a02:	d043      	beq.n	8001a8c <HAL_GPIO_Init+0xdc>
 8001a04:	2b11      	cmp	r3, #17
 8001a06:	d01b      	beq.n	8001a40 <HAL_GPIO_Init+0x90>
          break;
 8001a08:	e043      	b.n	8001a92 <HAL_GPIO_Init+0xe2>
      switch (GPIO_Init->Mode)
 8001a0a:	4a89      	ldr	r2, [pc, #548]	; (8001c30 <HAL_GPIO_Init+0x280>)
 8001a0c:	4293      	cmp	r3, r2
 8001a0e:	d026      	beq.n	8001a5e <HAL_GPIO_Init+0xae>
 8001a10:	4a87      	ldr	r2, [pc, #540]	; (8001c30 <HAL_GPIO_Init+0x280>)
 8001a12:	4293      	cmp	r3, r2
 8001a14:	d806      	bhi.n	8001a24 <HAL_GPIO_Init+0x74>
 8001a16:	4a87      	ldr	r2, [pc, #540]	; (8001c34 <HAL_GPIO_Init+0x284>)
 8001a18:	4293      	cmp	r3, r2
 8001a1a:	d020      	beq.n	8001a5e <HAL_GPIO_Init+0xae>
 8001a1c:	4a86      	ldr	r2, [pc, #536]	; (8001c38 <HAL_GPIO_Init+0x288>)
 8001a1e:	4293      	cmp	r3, r2
 8001a20:	d01d      	beq.n	8001a5e <HAL_GPIO_Init+0xae>
          break;
 8001a22:	e036      	b.n	8001a92 <HAL_GPIO_Init+0xe2>
      switch (GPIO_Init->Mode)
 8001a24:	4a85      	ldr	r2, [pc, #532]	; (8001c3c <HAL_GPIO_Init+0x28c>)
 8001a26:	4293      	cmp	r3, r2
 8001a28:	d019      	beq.n	8001a5e <HAL_GPIO_Init+0xae>
 8001a2a:	4a85      	ldr	r2, [pc, #532]	; (8001c40 <HAL_GPIO_Init+0x290>)
 8001a2c:	4293      	cmp	r3, r2
 8001a2e:	d016      	beq.n	8001a5e <HAL_GPIO_Init+0xae>
 8001a30:	4a84      	ldr	r2, [pc, #528]	; (8001c44 <HAL_GPIO_Init+0x294>)
 8001a32:	4293      	cmp	r3, r2
 8001a34:	d013      	beq.n	8001a5e <HAL_GPIO_Init+0xae>
          break;
 8001a36:	e02c      	b.n	8001a92 <HAL_GPIO_Init+0xe2>
          config = GPIO_Init->Speed + GPIO_CR_CNF_GP_OUTPUT_PP;
 8001a38:	683b      	ldr	r3, [r7, #0]
 8001a3a:	68db      	ldr	r3, [r3, #12]
 8001a3c:	623b      	str	r3, [r7, #32]
          break;
 8001a3e:	e028      	b.n	8001a92 <HAL_GPIO_Init+0xe2>
          config = GPIO_Init->Speed + GPIO_CR_CNF_GP_OUTPUT_OD;
 8001a40:	683b      	ldr	r3, [r7, #0]
 8001a42:	68db      	ldr	r3, [r3, #12]
 8001a44:	3304      	adds	r3, #4
 8001a46:	623b      	str	r3, [r7, #32]
          break;
 8001a48:	e023      	b.n	8001a92 <HAL_GPIO_Init+0xe2>
          config = GPIO_Init->Speed + GPIO_CR_CNF_AF_OUTPUT_PP;
 8001a4a:	683b      	ldr	r3, [r7, #0]
 8001a4c:	68db      	ldr	r3, [r3, #12]
 8001a4e:	3308      	adds	r3, #8
 8001a50:	623b      	str	r3, [r7, #32]
          break;
 8001a52:	e01e      	b.n	8001a92 <HAL_GPIO_Init+0xe2>
          config = GPIO_Init->Speed + GPIO_CR_CNF_AF_OUTPUT_OD;
 8001a54:	683b      	ldr	r3, [r7, #0]
 8001a56:	68db      	ldr	r3, [r3, #12]
 8001a58:	330c      	adds	r3, #12
 8001a5a:	623b      	str	r3, [r7, #32]
          break;
 8001a5c:	e019      	b.n	8001a92 <HAL_GPIO_Init+0xe2>
          if (GPIO_Init->Pull == GPIO_NOPULL)
 8001a5e:	683b      	ldr	r3, [r7, #0]
 8001a60:	689b      	ldr	r3, [r3, #8]
 8001a62:	2b00      	cmp	r3, #0
 8001a64:	d102      	bne.n	8001a6c <HAL_GPIO_Init+0xbc>
            config = GPIO_CR_MODE_INPUT + GPIO_CR_CNF_INPUT_FLOATING;
 8001a66:	2304      	movs	r3, #4
 8001a68:	623b      	str	r3, [r7, #32]
          break;
 8001a6a:	e012      	b.n	8001a92 <HAL_GPIO_Init+0xe2>
          else if (GPIO_Init->Pull == GPIO_PULLUP)
 8001a6c:	683b      	ldr	r3, [r7, #0]
 8001a6e:	689b      	ldr	r3, [r3, #8]
 8001a70:	2b01      	cmp	r3, #1
 8001a72:	d105      	bne.n	8001a80 <HAL_GPIO_Init+0xd0>
            config = GPIO_CR_MODE_INPUT + GPIO_CR_CNF_INPUT_PU_PD;
 8001a74:	2308      	movs	r3, #8
 8001a76:	623b      	str	r3, [r7, #32]
            GPIOx->BSRR = ioposition;
 8001a78:	687b      	ldr	r3, [r7, #4]
 8001a7a:	69fa      	ldr	r2, [r7, #28]
 8001a7c:	611a      	str	r2, [r3, #16]
          break;
 8001a7e:	e008      	b.n	8001a92 <HAL_GPIO_Init+0xe2>
            config = GPIO_CR_MODE_INPUT + GPIO_CR_CNF_INPUT_PU_PD;
 8001a80:	2308      	movs	r3, #8
 8001a82:	623b      	str	r3, [r7, #32]
            GPIOx->BRR = ioposition;
 8001a84:	687b      	ldr	r3, [r7, #4]
 8001a86:	69fa      	ldr	r2, [r7, #28]
 8001a88:	615a      	str	r2, [r3, #20]
          break;
 8001a8a:	e002      	b.n	8001a92 <HAL_GPIO_Init+0xe2>
          config = GPIO_CR_MODE_INPUT + GPIO_CR_CNF_ANALOG;
 8001a8c:	2300      	movs	r3, #0
 8001a8e:	623b      	str	r3, [r7, #32]
          break;
 8001a90:	bf00      	nop
      }

      /* Check if the current bit belongs to first half or last half of the pin count number
       in order to address CRH or CRL register*/
      configregister = (iocurrent < GPIO_PIN_8) ? &GPIOx->CRL     : &GPIOx->CRH;
 8001a92:	69bb      	ldr	r3, [r7, #24]
 8001a94:	2bff      	cmp	r3, #255	; 0xff
 8001a96:	d801      	bhi.n	8001a9c <HAL_GPIO_Init+0xec>
 8001a98:	687b      	ldr	r3, [r7, #4]
 8001a9a:	e001      	b.n	8001aa0 <HAL_GPIO_Init+0xf0>
 8001a9c:	687b      	ldr	r3, [r7, #4]
 8001a9e:	3304      	adds	r3, #4
 8001aa0:	617b      	str	r3, [r7, #20]
      registeroffset = (iocurrent < GPIO_PIN_8) ? (position << 2u) : ((position - 8u) << 2u);
 8001aa2:	69bb      	ldr	r3, [r7, #24]
 8001aa4:	2bff      	cmp	r3, #255	; 0xff
 8001aa6:	d802      	bhi.n	8001aae <HAL_GPIO_Init+0xfe>
 8001aa8:	6a7b      	ldr	r3, [r7, #36]	; 0x24
 8001aaa:	009b      	lsls	r3, r3, #2
 8001aac:	e002      	b.n	8001ab4 <HAL_GPIO_Init+0x104>
 8001aae:	6a7b      	ldr	r3, [r7, #36]	; 0x24
 8001ab0:	3b08      	subs	r3, #8
 8001ab2:	009b      	lsls	r3, r3, #2
 8001ab4:	613b      	str	r3, [r7, #16]

      /* Apply the new configuration of the pin to the register */
      MODIFY_REG((*configregister), ((GPIO_CRL_MODE0 | GPIO_CRL_CNF0) << registeroffset), (config << registeroffset));
 8001ab6:	697b      	ldr	r3, [r7, #20]
 8001ab8:	681a      	ldr	r2, [r3, #0]
 8001aba:	210f      	movs	r1, #15
 8001abc:	693b      	ldr	r3, [r7, #16]
 8001abe:	fa01 f303 	lsl.w	r3, r1, r3
 8001ac2:	43db      	mvns	r3, r3
 8001ac4:	401a      	ands	r2, r3
 8001ac6:	6a39      	ldr	r1, [r7, #32]
 8001ac8:	693b      	ldr	r3, [r7, #16]
 8001aca:	fa01 f303 	lsl.w	r3, r1, r3
 8001ace:	431a      	orrs	r2, r3
 8001ad0:	697b      	ldr	r3, [r7, #20]
 8001ad2:	601a      	str	r2, [r3, #0]

      /*--------------------- EXTI Mode Configuration ------------------------*/
      /* Configure the External Interrupt or event for the current IO */
      if ((GPIO_Init->Mode & EXTI_MODE) == EXTI_MODE)
 8001ad4:	683b      	ldr	r3, [r7, #0]
 8001ad6:	685b      	ldr	r3, [r3, #4]
 8001ad8:	f003 5380 	and.w	r3, r3, #268435456	; 0x10000000
 8001adc:	2b00      	cmp	r3, #0
 8001ade:	f000 8096 	beq.w	8001c0e <HAL_GPIO_Init+0x25e>
      {
        /* Enable AFIO Clock */
        __HAL_RCC_AFIO_CLK_ENABLE();
 8001ae2:	4b59      	ldr	r3, [pc, #356]	; (8001c48 <HAL_GPIO_Init+0x298>)
 8001ae4:	699b      	ldr	r3, [r3, #24]
 8001ae6:	4a58      	ldr	r2, [pc, #352]	; (8001c48 <HAL_GPIO_Init+0x298>)
 8001ae8:	f043 0301 	orr.w	r3, r3, #1
 8001aec:	6193      	str	r3, [r2, #24]
 8001aee:	4b56      	ldr	r3, [pc, #344]	; (8001c48 <HAL_GPIO_Init+0x298>)
 8001af0:	699b      	ldr	r3, [r3, #24]
 8001af2:	f003 0301 	and.w	r3, r3, #1
 8001af6:	60bb      	str	r3, [r7, #8]
 8001af8:	68bb      	ldr	r3, [r7, #8]
        temp = AFIO->EXTICR[position >> 2u];
 8001afa:	4a54      	ldr	r2, [pc, #336]	; (8001c4c <HAL_GPIO_Init+0x29c>)
 8001afc:	6a7b      	ldr	r3, [r7, #36]	; 0x24
 8001afe:	089b      	lsrs	r3, r3, #2
 8001b00:	3302      	adds	r3, #2
 8001b02:	f852 3023 	ldr.w	r3, [r2, r3, lsl #2]
 8001b06:	60fb      	str	r3, [r7, #12]
        CLEAR_BIT(temp, (0x0Fu) << (4u * (position & 0x03u)));
 8001b08:	6a7b      	ldr	r3, [r7, #36]	; 0x24
 8001b0a:	f003 0303 	and.w	r3, r3, #3
 8001b0e:	009b      	lsls	r3, r3, #2
 8001b10:	220f      	movs	r2, #15
 8001b12:	fa02 f303 	lsl.w	r3, r2, r3
 8001b16:	43db      	mvns	r3, r3
 8001b18:	68fa      	ldr	r2, [r7, #12]
 8001b1a:	4013      	ands	r3, r2
 8001b1c:	60fb      	str	r3, [r7, #12]
        SET_BIT(temp, (GPIO_GET_INDEX(GPIOx)) << (4u * (position & 0x03u)));
 8001b1e:	687b      	ldr	r3, [r7, #4]
 8001b20:	4a4b      	ldr	r2, [pc, #300]	; (8001c50 <HAL_GPIO_Init+0x2a0>)
 8001b22:	4293      	cmp	r3, r2
 8001b24:	d013      	beq.n	8001b4e <HAL_GPIO_Init+0x19e>
 8001b26:	687b      	ldr	r3, [r7, #4]
 8001b28:	4a4a      	ldr	r2, [pc, #296]	; (8001c54 <HAL_GPIO_Init+0x2a4>)
 8001b2a:	4293      	cmp	r3, r2
 8001b2c:	d00d      	beq.n	8001b4a <HAL_GPIO_Init+0x19a>
 8001b2e:	687b      	ldr	r3, [r7, #4]
 8001b30:	4a49      	ldr	r2, [pc, #292]	; (8001c58 <HAL_GPIO_Init+0x2a8>)
 8001b32:	4293      	cmp	r3, r2
 8001b34:	d007      	beq.n	8001b46 <HAL_GPIO_Init+0x196>
 8001b36:	687b      	ldr	r3, [r7, #4]
 8001b38:	4a48      	ldr	r2, [pc, #288]	; (8001c5c <HAL_GPIO_Init+0x2ac>)
 8001b3a:	4293      	cmp	r3, r2
 8001b3c:	d101      	bne.n	8001b42 <HAL_GPIO_Init+0x192>
 8001b3e:	2303      	movs	r3, #3
 8001b40:	e006      	b.n	8001b50 <HAL_GPIO_Init+0x1a0>
 8001b42:	2304      	movs	r3, #4
 8001b44:	e004      	b.n	8001b50 <HAL_GPIO_Init+0x1a0>
 8001b46:	2302      	movs	r3, #2
 8001b48:	e002      	b.n	8001b50 <HAL_GPIO_Init+0x1a0>
 8001b4a:	2301      	movs	r3, #1
 8001b4c:	e000      	b.n	8001b50 <HAL_GPIO_Init+0x1a0>
 8001b4e:	2300      	movs	r3, #0
 8001b50:	6a7a      	ldr	r2, [r7, #36]	; 0x24
 8001b52:	f002 0203 	and.w	r2, r2, #3
 8001b56:	0092      	lsls	r2, r2, #2
 8001b58:	4093      	lsls	r3, r2
 8001b5a:	68fa      	ldr	r2, [r7, #12]
 8001b5c:	4313      	orrs	r3, r2
 8001b5e:	60fb      	str	r3, [r7, #12]
        AFIO->EXTICR[position >> 2u] = temp;
 8001b60:	493a      	ldr	r1, [pc, #232]	; (8001c4c <HAL_GPIO_Init+0x29c>)
 8001b62:	6a7b      	ldr	r3, [r7, #36]	; 0x24
 8001b64:	089b      	lsrs	r3, r3, #2
 8001b66:	3302      	adds	r3, #2
 8001b68:	68fa      	ldr	r2, [r7, #12]
 8001b6a:	f841 2023 	str.w	r2, [r1, r3, lsl #2]


        /* Configure the interrupt mask */
        if ((GPIO_Init->Mode & GPIO_MODE_IT) == GPIO_MODE_IT)
 8001b6e:	683b      	ldr	r3, [r7, #0]
 8001b70:	685b      	ldr	r3, [r3, #4]
 8001b72:	f403 3380 	and.w	r3, r3, #65536	; 0x10000
 8001b76:	2b00      	cmp	r3, #0
 8001b78:	d006      	beq.n	8001b88 <HAL_GPIO_Init+0x1d8>
        {
          SET_BIT(EXTI->IMR, iocurrent);
 8001b7a:	4b39      	ldr	r3, [pc, #228]	; (8001c60 <HAL_GPIO_Init+0x2b0>)
 8001b7c:	681a      	ldr	r2, [r3, #0]
 8001b7e:	4938      	ldr	r1, [pc, #224]	; (8001c60 <HAL_GPIO_Init+0x2b0>)
 8001b80:	69bb      	ldr	r3, [r7, #24]
 8001b82:	4313      	orrs	r3, r2
 8001b84:	600b      	str	r3, [r1, #0]
 8001b86:	e006      	b.n	8001b96 <HAL_GPIO_Init+0x1e6>
        }
        else
        {
          CLEAR_BIT(EXTI->IMR, iocurrent);
 8001b88:	4b35      	ldr	r3, [pc, #212]	; (8001c60 <HAL_GPIO_Init+0x2b0>)
 8001b8a:	681a      	ldr	r2, [r3, #0]
 8001b8c:	69bb      	ldr	r3, [r7, #24]
 8001b8e:	43db      	mvns	r3, r3
 8001b90:	4933      	ldr	r1, [pc, #204]	; (8001c60 <HAL_GPIO_Init+0x2b0>)
 8001b92:	4013      	ands	r3, r2
 8001b94:	600b      	str	r3, [r1, #0]
        }

        /* Configure the event mask */
        if ((GPIO_Init->Mode & GPIO_MODE_EVT) == GPIO_MODE_EVT)
 8001b96:	683b      	ldr	r3, [r7, #0]
 8001b98:	685b      	ldr	r3, [r3, #4]
 8001b9a:	f403 3300 	and.w	r3, r3, #131072	; 0x20000
 8001b9e:	2b00      	cmp	r3, #0
 8001ba0:	d006      	beq.n	8001bb0 <HAL_GPIO_Init+0x200>
        {
          SET_BIT(EXTI->EMR, iocurrent);
 8001ba2:	4b2f      	ldr	r3, [pc, #188]	; (8001c60 <HAL_GPIO_Init+0x2b0>)
 8001ba4:	685a      	ldr	r2, [r3, #4]
 8001ba6:	492e      	ldr	r1, [pc, #184]	; (8001c60 <HAL_GPIO_Init+0x2b0>)
 8001ba8:	69bb      	ldr	r3, [r7, #24]
 8001baa:	4313      	orrs	r3, r2
 8001bac:	604b      	str	r3, [r1, #4]
 8001bae:	e006      	b.n	8001bbe <HAL_GPIO_Init+0x20e>
        }
        else
        {
          CLEAR_BIT(EXTI->EMR, iocurrent);
 8001bb0:	4b2b      	ldr	r3, [pc, #172]	; (8001c60 <HAL_GPIO_Init+0x2b0>)
 8001bb2:	685a      	ldr	r2, [r3, #4]
 8001bb4:	69bb      	ldr	r3, [r7, #24]
 8001bb6:	43db      	mvns	r3, r3
 8001bb8:	4929      	ldr	r1, [pc, #164]	; (8001c60 <HAL_GPIO_Init+0x2b0>)
 8001bba:	4013      	ands	r3, r2
 8001bbc:	604b      	str	r3, [r1, #4]
        }

        /* Enable or disable the rising trigger */
        if ((GPIO_Init->Mode & RISING_EDGE) == RISING_EDGE)
 8001bbe:	683b      	ldr	r3, [r7, #0]
 8001bc0:	685b      	ldr	r3, [r3, #4]
 8001bc2:	f403 1380 	and.w	r3, r3, #1048576	; 0x100000
 8001bc6:	2b00      	cmp	r3, #0
 8001bc8:	d006      	beq.n	8001bd8 <HAL_GPIO_Init+0x228>
        {
          SET_BIT(EXTI->RTSR, iocurrent);
 8001bca:	4b25      	ldr	r3, [pc, #148]	; (8001c60 <HAL_GPIO_Init+0x2b0>)
 8001bcc:	689a      	ldr	r2, [r3, #8]
 8001bce:	4924      	ldr	r1, [pc, #144]	; (8001c60 <HAL_GPIO_Init+0x2b0>)
 8001bd0:	69bb      	ldr	r3, [r7, #24]
 8001bd2:	4313      	orrs	r3, r2
 8001bd4:	608b      	str	r3, [r1, #8]
 8001bd6:	e006      	b.n	8001be6 <HAL_GPIO_Init+0x236>
        }
        else
        {
          CLEAR_BIT(EXTI->RTSR, iocurrent);
 8001bd8:	4b21      	ldr	r3, [pc, #132]	; (8001c60 <HAL_GPIO_Init+0x2b0>)
 8001bda:	689a      	ldr	r2, [r3, #8]
 8001bdc:	69bb      	ldr	r3, [r7, #24]
 8001bde:	43db      	mvns	r3, r3
 8001be0:	491f      	ldr	r1, [pc, #124]	; (8001c60 <HAL_GPIO_Init+0x2b0>)
 8001be2:	4013      	ands	r3, r2
 8001be4:	608b      	str	r3, [r1, #8]
        }

        /* Enable or disable the falling trigger */
        if ((GPIO_Init->Mode & FALLING_EDGE) == FALLING_EDGE)
 8001be6:	683b      	ldr	r3, [r7, #0]
 8001be8:	685b      	ldr	r3, [r3, #4]
 8001bea:	f403 1300 	and.w	r3, r3, #2097152	; 0x200000
 8001bee:	2b00      	cmp	r3, #0
 8001bf0:	d006      	beq.n	8001c00 <HAL_GPIO_Init+0x250>
        {
          SET_BIT(EXTI->FTSR, iocurrent);
 8001bf2:	4b1b      	ldr	r3, [pc, #108]	; (8001c60 <HAL_GPIO_Init+0x2b0>)
 8001bf4:	68da      	ldr	r2, [r3, #12]
 8001bf6:	491a      	ldr	r1, [pc, #104]	; (8001c60 <HAL_GPIO_Init+0x2b0>)
 8001bf8:	69bb      	ldr	r3, [r7, #24]
 8001bfa:	4313      	orrs	r3, r2
 8001bfc:	60cb      	str	r3, [r1, #12]
 8001bfe:	e006      	b.n	8001c0e <HAL_GPIO_Init+0x25e>
        }
        else
        {
          CLEAR_BIT(EXTI->FTSR, iocurrent);
 8001c00:	4b17      	ldr	r3, [pc, #92]	; (8001c60 <HAL_GPIO_Init+0x2b0>)
 8001c02:	68da      	ldr	r2, [r3, #12]
 8001c04:	69bb      	ldr	r3, [r7, #24]
 8001c06:	43db      	mvns	r3, r3
 8001c08:	4915      	ldr	r1, [pc, #84]	; (8001c60 <HAL_GPIO_Init+0x2b0>)
 8001c0a:	4013      	ands	r3, r2
 8001c0c:	60cb      	str	r3, [r1, #12]
        }
      }
    }

	position++;
 8001c0e:	6a7b      	ldr	r3, [r7, #36]	; 0x24
 8001c10:	3301      	adds	r3, #1
 8001c12:	627b      	str	r3, [r7, #36]	; 0x24
  while (((GPIO_Init->Pin) >> position) != 0x00u)
 8001c14:	683b      	ldr	r3, [r7, #0]
 8001c16:	681a      	ldr	r2, [r3, #0]
 8001c18:	6a7b      	ldr	r3, [r7, #36]	; 0x24
 8001c1a:	fa22 f303 	lsr.w	r3, r2, r3
 8001c1e:	2b00      	cmp	r3, #0
 8001c20:	f47f aed0 	bne.w	80019c4 <HAL_GPIO_Init+0x14>
  }
}
 8001c24:	bf00      	nop
 8001c26:	372c      	adds	r7, #44	; 0x2c
 8001c28:	46bd      	mov	sp, r7
 8001c2a:	bc80      	pop	{r7}
 8001c2c:	4770      	bx	lr
 8001c2e:	bf00      	nop
 8001c30:	10210000 	.word	0x10210000
 8001c34:	10110000 	.word	0x10110000
 8001c38:	10120000 	.word	0x10120000
 8001c3c:	10310000 	.word	0x10310000
 8001c40:	10320000 	.word	0x10320000
 8001c44:	10220000 	.word	0x10220000
 8001c48:	40021000 	.word	0x40021000
 8001c4c:	40010000 	.word	0x40010000
 8001c50:	40010800 	.word	0x40010800
 8001c54:	40010c00 	.word	0x40010c00
 8001c58:	40011000 	.word	0x40011000
 8001c5c:	40011400 	.word	0x40011400
 8001c60:	40010400 	.word	0x40010400

08001c64 <HAL_GPIO_ReadPin>:
  * @param  GPIO_Pin: specifies the port bit to read.
  *         This parameter can be GPIO_PIN_x where x can be (0..15).
  * @retval The input port pin value.
  */
GPIO_PinState HAL_GPIO_ReadPin(GPIO_TypeDef *GPIOx, uint16_t GPIO_Pin)
{
 8001c64:	b480      	push	{r7}
 8001c66:	b085      	sub	sp, #20
 8001c68:	af00      	add	r7, sp, #0
 8001c6a:	6078      	str	r0, [r7, #4]
 8001c6c:	460b      	mov	r3, r1
 8001c6e:	807b      	strh	r3, [r7, #2]
  GPIO_PinState bitstatus;

  /* Check the parameters */
  assert_param(IS_GPIO_PIN(GPIO_Pin));

  if ((GPIOx->IDR & GPIO_Pin) != (uint32_t)GPIO_PIN_RESET)
 8001c70:	687b      	ldr	r3, [r7, #4]
 8001c72:	689a      	ldr	r2, [r3, #8]
 8001c74:	887b      	ldrh	r3, [r7, #2]
 8001c76:	4013      	ands	r3, r2
 8001c78:	2b00      	cmp	r3, #0
 8001c7a:	d002      	beq.n	8001c82 <HAL_GPIO_ReadPin+0x1e>
  {
    bitstatus = GPIO_PIN_SET;
 8001c7c:	2301      	movs	r3, #1
 8001c7e:	73fb      	strb	r3, [r7, #15]
 8001c80:	e001      	b.n	8001c86 <HAL_GPIO_ReadPin+0x22>
  }
  else
  {
    bitstatus = GPIO_PIN_RESET;
 8001c82:	2300      	movs	r3, #0
 8001c84:	73fb      	strb	r3, [r7, #15]
  }
  return bitstatus;
 8001c86:	7bfb      	ldrb	r3, [r7, #15]
}
 8001c88:	4618      	mov	r0, r3
 8001c8a:	3714      	adds	r7, #20
 8001c8c:	46bd      	mov	sp, r7
 8001c8e:	bc80      	pop	{r7}
 8001c90:	4770      	bx	lr
	...

08001c94 <HAL_RCC_DeInit>:
  *            - Peripheral clocks
  *            - LSI, LSE and RTC clocks
  * @retval HAL_StatusTypeDef
  */
HAL_StatusTypeDef HAL_RCC_DeInit(void)
{
 8001c94:	b580      	push	{r7, lr}
 8001c96:	b082      	sub	sp, #8
 8001c98:	af00      	add	r7, sp, #0
  uint32_t tickstart;

  /* Get Start Tick */
  tickstart = HAL_GetTick();
 8001c9a:	f7ff fad1 	bl	8001240 <HAL_GetTick>
 8001c9e:	6078      	str	r0, [r7, #4]

  /* Set HSION bit */
  SET_BIT(RCC->CR, RCC_CR_HSION);
 8001ca0:	4b45      	ldr	r3, [pc, #276]	; (8001db8 <HAL_RCC_DeInit+0x124>)
 8001ca2:	681b      	ldr	r3, [r3, #0]
 8001ca4:	4a44      	ldr	r2, [pc, #272]	; (8001db8 <HAL_RCC_DeInit+0x124>)
 8001ca6:	f043 0301 	orr.w	r3, r3, #1
 8001caa:	6013      	str	r3, [r2, #0]

  /* Wait till HSI is ready */
  while (READ_BIT(RCC->CR, RCC_CR_HSIRDY) == RESET)
 8001cac:	e008      	b.n	8001cc0 <HAL_RCC_DeInit+0x2c>
  {
    if ((HAL_GetTick() - tickstart) > HSI_TIMEOUT_VALUE)
 8001cae:	f7ff fac7 	bl	8001240 <HAL_GetTick>
 8001cb2:	4602      	mov	r2, r0
 8001cb4:	687b      	ldr	r3, [r7, #4]
 8001cb6:	1ad3      	subs	r3, r2, r3
 8001cb8:	2b02      	cmp	r3, #2
 8001cba:	d901      	bls.n	8001cc0 <HAL_RCC_DeInit+0x2c>
    {
      return HAL_TIMEOUT;
 8001cbc:	2303      	movs	r3, #3
 8001cbe:	e077      	b.n	8001db0 <HAL_RCC_DeInit+0x11c>
  while (READ_BIT(RCC->CR, RCC_CR_HSIRDY) == RESET)
 8001cc0:	4b3d      	ldr	r3, [pc, #244]	; (8001db8 <HAL_RCC_DeInit+0x124>)
 8001cc2:	681b      	ldr	r3, [r3, #0]
 8001cc4:	f003 0302 	and.w	r3, r3, #2
 8001cc8:	2b00      	cmp	r3, #0
 8001cca:	d0f0      	beq.n	8001cae <HAL_RCC_DeInit+0x1a>
    }
  }

  /* Set HSITRIM bits to the reset value */
  MODIFY_REG(RCC->CR, RCC_CR_HSITRIM, (0x10U << RCC_CR_HSITRIM_Pos));
 8001ccc:	4b3a      	ldr	r3, [pc, #232]	; (8001db8 <HAL_RCC_DeInit+0x124>)
 8001cce:	681b      	ldr	r3, [r3, #0]
 8001cd0:	f023 03f8 	bic.w	r3, r3, #248	; 0xf8
 8001cd4:	4a38      	ldr	r2, [pc, #224]	; (8001db8 <HAL_RCC_DeInit+0x124>)
 8001cd6:	f043 0380 	orr.w	r3, r3, #128	; 0x80
 8001cda:	6013      	str	r3, [r2, #0]

  /* Get Start Tick */
  tickstart = HAL_GetTick();
 8001cdc:	f7ff fab0 	bl	8001240 <HAL_GetTick>
 8001ce0:	6078      	str	r0, [r7, #4]

  /* Reset CFGR register */
  CLEAR_REG(RCC->CFGR);
 8001ce2:	4b35      	ldr	r3, [pc, #212]	; (8001db8 <HAL_RCC_DeInit+0x124>)
 8001ce4:	2200      	movs	r2, #0
 8001ce6:	605a      	str	r2, [r3, #4]

  /* Wait till clock switch is ready */
  while (READ_BIT(RCC->CFGR, RCC_CFGR_SWS) != RESET)
 8001ce8:	e00a      	b.n	8001d00 <HAL_RCC_DeInit+0x6c>
  {
    if ((HAL_GetTick() - tickstart) > CLOCKSWITCH_TIMEOUT_VALUE)
 8001cea:	f7ff faa9 	bl	8001240 <HAL_GetTick>
 8001cee:	4602      	mov	r2, r0
 8001cf0:	687b      	ldr	r3, [r7, #4]
 8001cf2:	1ad3      	subs	r3, r2, r3
 8001cf4:	f241 3288 	movw	r2, #5000	; 0x1388
 8001cf8:	4293      	cmp	r3, r2
 8001cfa:	d901      	bls.n	8001d00 <HAL_RCC_DeInit+0x6c>
    {
      return HAL_TIMEOUT;
 8001cfc:	2303      	movs	r3, #3
 8001cfe:	e057      	b.n	8001db0 <HAL_RCC_DeInit+0x11c>
  while (READ_BIT(RCC->CFGR, RCC_CFGR_SWS) != RESET)
 8001d00:	4b2d      	ldr	r3, [pc, #180]	; (8001db8 <HAL_RCC_DeInit+0x124>)
 8001d02:	685b      	ldr	r3, [r3, #4]
 8001d04:	f003 030c 	and.w	r3, r3, #12
 8001d08:	2b00      	cmp	r3, #0
 8001d0a:	d1ee      	bne.n	8001cea <HAL_RCC_DeInit+0x56>
    }
  }

  /* Update the SystemCoreClock global variable */
  SystemCoreClock = HSI_VALUE;
 8001d0c:	4b2b      	ldr	r3, [pc, #172]	; (8001dbc <HAL_RCC_DeInit+0x128>)
 8001d0e:	4a2c      	ldr	r2, [pc, #176]	; (8001dc0 <HAL_RCC_DeInit+0x12c>)
 8001d10:	601a      	str	r2, [r3, #0]

  /* Adapt Systick interrupt period */
  if (HAL_InitTick(uwTickPrio) != HAL_OK)
 8001d12:	4b2c      	ldr	r3, [pc, #176]	; (8001dc4 <HAL_RCC_DeInit+0x130>)
 8001d14:	681b      	ldr	r3, [r3, #0]
 8001d16:	4618      	mov	r0, r3
 8001d18:	f7ff fa50 	bl	80011bc <HAL_InitTick>
 8001d1c:	4603      	mov	r3, r0
 8001d1e:	2b00      	cmp	r3, #0
 8001d20:	d001      	beq.n	8001d26 <HAL_RCC_DeInit+0x92>
  {
    return HAL_ERROR;
 8001d22:	2301      	movs	r3, #1
 8001d24:	e044      	b.n	8001db0 <HAL_RCC_DeInit+0x11c>
  }

  /* Get Start Tick */
  tickstart = HAL_GetTick();
 8001d26:	f7ff fa8b 	bl	8001240 <HAL_GetTick>
 8001d2a:	6078      	str	r0, [r7, #4]

  /* Second step is to clear PLLON bit */
  CLEAR_BIT(RCC->CR, RCC_CR_PLLON);
 8001d2c:	4b22      	ldr	r3, [pc, #136]	; (8001db8 <HAL_RCC_DeInit+0x124>)
 8001d2e:	681b      	ldr	r3, [r3, #0]
 8001d30:	4a21      	ldr	r2, [pc, #132]	; (8001db8 <HAL_RCC_DeInit+0x124>)
 8001d32:	f023 7380 	bic.w	r3, r3, #16777216	; 0x1000000
 8001d36:	6013      	str	r3, [r2, #0]

  /* Wait till PLL is disabled */
  while (READ_BIT(RCC->CR, RCC_CR_PLLRDY) != RESET)
 8001d38:	e008      	b.n	8001d4c <HAL_RCC_DeInit+0xb8>
  {
    if ((HAL_GetTick() - tickstart) > PLL_TIMEOUT_VALUE)
 8001d3a:	f7ff fa81 	bl	8001240 <HAL_GetTick>
 8001d3e:	4602      	mov	r2, r0
 8001d40:	687b      	ldr	r3, [r7, #4]
 8001d42:	1ad3      	subs	r3, r2, r3
 8001d44:	2b02      	cmp	r3, #2
 8001d46:	d901      	bls.n	8001d4c <HAL_RCC_DeInit+0xb8>
    {
      return HAL_TIMEOUT;
 8001d48:	2303      	movs	r3, #3
 8001d4a:	e031      	b.n	8001db0 <HAL_RCC_DeInit+0x11c>
  while (READ_BIT(RCC->CR, RCC_CR_PLLRDY) != RESET)
 8001d4c:	4b1a      	ldr	r3, [pc, #104]	; (8001db8 <HAL_RCC_DeInit+0x124>)
 8001d4e:	681b      	ldr	r3, [r3, #0]
 8001d50:	f003 7300 	and.w	r3, r3, #33554432	; 0x2000000
 8001d54:	2b00      	cmp	r3, #0
 8001d56:	d1f0      	bne.n	8001d3a <HAL_RCC_DeInit+0xa6>
    }
  }

  /* Ensure to reset PLLSRC and PLLMUL bits */
  CLEAR_REG(RCC->CFGR);
 8001d58:	4b17      	ldr	r3, [pc, #92]	; (8001db8 <HAL_RCC_DeInit+0x124>)
 8001d5a:	2200      	movs	r2, #0
 8001d5c:	605a      	str	r2, [r3, #4]

  /* Get Start Tick */
  tickstart = HAL_GetTick();
 8001d5e:	f7ff fa6f 	bl	8001240 <HAL_GetTick>
 8001d62:	6078      	str	r0, [r7, #4]

  /* Reset HSEON & CSSON bits */
  CLEAR_BIT(RCC->CR, RCC_CR_HSEON | RCC_CR_CSSON);
 8001d64:	4b14      	ldr	r3, [pc, #80]	; (8001db8 <HAL_RCC_DeInit+0x124>)
 8001d66:	681b      	ldr	r3, [r3, #0]
 8001d68:	4a13      	ldr	r2, [pc, #76]	; (8001db8 <HAL_RCC_DeInit+0x124>)
 8001d6a:	f423 2310 	bic.w	r3, r3, #589824	; 0x90000
 8001d6e:	6013      	str	r3, [r2, #0]

  /* Wait till HSE is disabled */
  while (READ_BIT(RCC->CR, RCC_CR_HSERDY) != RESET)
 8001d70:	e008      	b.n	8001d84 <HAL_RCC_DeInit+0xf0>
  {
    if ((HAL_GetTick() - tickstart) > HSE_TIMEOUT_VALUE)
 8001d72:	f7ff fa65 	bl	8001240 <HAL_GetTick>
 8001d76:	4602      	mov	r2, r0
 8001d78:	687b      	ldr	r3, [r7, #4]
 8001d7a:	1ad3      	subs	r3, r2, r3
 8001d7c:	2b64      	cmp	r3, #100	; 0x64
 8001d7e:	d901      	bls.n	8001d84 <HAL_RCC_DeInit+0xf0>
    {
      return HAL_TIMEOUT;
 8001d80:	2303      	movs	r3, #3
 8001d82:	e015      	b.n	8001db0 <HAL_RCC_DeInit+0x11c>
  while (READ_BIT(RCC->CR, RCC_CR_HSERDY) != RESET)
 8001d84:	4b0c      	ldr	r3, [pc, #48]	; (8001db8 <HAL_RCC_DeInit+0x124>)
 8001d86:	681b      	ldr	r3, [r3, #0]
 8001d88:	f403 3300 	and.w	r3, r3, #131072	; 0x20000
 8001d8c:	2b00      	cmp	r3, #0
 8001d8e:	d1f0      	bne.n	8001d72 <HAL_RCC_DeInit+0xde>
    }
  }

  /* Reset HSEBYP bit */
  CLEAR_BIT(RCC->CR, RCC_CR_HSEBYP);
 8001d90:	4b09      	ldr	r3, [pc, #36]	; (8001db8 <HAL_RCC_DeInit+0x124>)
 8001d92:	681b      	ldr	r3, [r3, #0]
 8001d94:	4a08      	ldr	r2, [pc, #32]	; (8001db8 <HAL_RCC_DeInit+0x124>)
 8001d96:	f423 2380 	bic.w	r3, r3, #262144	; 0x40000
 8001d9a:	6013      	str	r3, [r2, #0]
  /* Reset CFGR2 register */
  CLEAR_REG(RCC->CFGR2);
#endif /* RCC_CFGR2_PREDIV1 */

  /* Reset all CSR flags */
  SET_BIT(RCC->CSR, RCC_CSR_RMVF);
 8001d9c:	4b06      	ldr	r3, [pc, #24]	; (8001db8 <HAL_RCC_DeInit+0x124>)
 8001d9e:	6a5b      	ldr	r3, [r3, #36]	; 0x24
 8001da0:	4a05      	ldr	r2, [pc, #20]	; (8001db8 <HAL_RCC_DeInit+0x124>)
 8001da2:	f043 7380 	orr.w	r3, r3, #16777216	; 0x1000000
 8001da6:	6253      	str	r3, [r2, #36]	; 0x24

  /* Disable all interrupts */
  CLEAR_REG(RCC->CIR);
 8001da8:	4b03      	ldr	r3, [pc, #12]	; (8001db8 <HAL_RCC_DeInit+0x124>)
 8001daa:	2200      	movs	r2, #0
 8001dac:	609a      	str	r2, [r3, #8]

  return HAL_OK;
 8001dae:	2300      	movs	r3, #0
}
 8001db0:	4618      	mov	r0, r3
 8001db2:	3708      	adds	r7, #8
 8001db4:	46bd      	mov	sp, r7
 8001db6:	bd80      	pop	{r7, pc}
 8001db8:	40021000 	.word	0x40021000
 8001dbc:	20000008 	.word	0x20000008
 8001dc0:	007a1200 	.word	0x007a1200
 8001dc4:	2000000c 	.word	0x2000000c

08001dc8 <HAL_RCC_OscConfig>:
  *         supported by this macro. User should request a transition to HSE Off
  *         first and then HSE On or HSE Bypass.
  * @retval HAL status
  */
HAL_StatusTypeDef HAL_RCC_OscConfig(RCC_OscInitTypeDef  *RCC_OscInitStruct)
{
 8001dc8:	b580      	push	{r7, lr}
 8001dca:	b086      	sub	sp, #24
 8001dcc:	af00      	add	r7, sp, #0
 8001dce:	6078      	str	r0, [r7, #4]
  uint32_t tickstart;
  uint32_t pll_config;

  /* Check Null pointer */
  if (RCC_OscInitStruct == NULL)
 8001dd0:	687b      	ldr	r3, [r7, #4]
 8001dd2:	2b00      	cmp	r3, #0
 8001dd4:	d101      	bne.n	8001dda <HAL_RCC_OscConfig+0x12>
  {
    return HAL_ERROR;
 8001dd6:	2301      	movs	r3, #1
 8001dd8:	e26c      	b.n	80022b4 <HAL_RCC_OscConfig+0x4ec>

  /* Check the parameters */
  assert_param(IS_RCC_OSCILLATORTYPE(RCC_OscInitStruct->OscillatorType));

  /*------------------------------- HSE Configuration ------------------------*/
  if (((RCC_OscInitStruct->OscillatorType) & RCC_OSCILLATORTYPE_HSE) == RCC_OSCILLATORTYPE_HSE)
 8001dda:	687b      	ldr	r3, [r7, #4]
 8001ddc:	681b      	ldr	r3, [r3, #0]
 8001dde:	f003 0301 	and.w	r3, r3, #1
 8001de2:	2b00      	cmp	r3, #0
 8001de4:	f000 8087 	beq.w	8001ef6 <HAL_RCC_OscConfig+0x12e>
  {
    /* Check the parameters */
    assert_param(IS_RCC_HSE(RCC_OscInitStruct->HSEState));

    /* When the HSE is used as system clock or clock source for PLL in these cases it is not allowed to be disabled */
    if ((__HAL_RCC_GET_SYSCLK_SOURCE() == RCC_SYSCLKSOURCE_STATUS_HSE)
 8001de8:	4b92      	ldr	r3, [pc, #584]	; (8002034 <HAL_RCC_OscConfig+0x26c>)
 8001dea:	685b      	ldr	r3, [r3, #4]
 8001dec:	f003 030c 	and.w	r3, r3, #12
 8001df0:	2b04      	cmp	r3, #4
 8001df2:	d00c      	beq.n	8001e0e <HAL_RCC_OscConfig+0x46>
        || ((__HAL_RCC_GET_SYSCLK_SOURCE() == RCC_SYSCLKSOURCE_STATUS_PLLCLK) && (__HAL_RCC_GET_PLL_OSCSOURCE() == RCC_PLLSOURCE_HSE)))
 8001df4:	4b8f      	ldr	r3, [pc, #572]	; (8002034 <HAL_RCC_OscConfig+0x26c>)
 8001df6:	685b      	ldr	r3, [r3, #4]
 8001df8:	f003 030c 	and.w	r3, r3, #12
 8001dfc:	2b08      	cmp	r3, #8
 8001dfe:	d112      	bne.n	8001e26 <HAL_RCC_OscConfig+0x5e>
 8001e00:	4b8c      	ldr	r3, [pc, #560]	; (8002034 <HAL_RCC_OscConfig+0x26c>)
 8001e02:	685b      	ldr	r3, [r3, #4]
 8001e04:	f403 3380 	and.w	r3, r3, #65536	; 0x10000
 8001e08:	f5b3 3f80 	cmp.w	r3, #65536	; 0x10000
 8001e0c:	d10b      	bne.n	8001e26 <HAL_RCC_OscConfig+0x5e>
    {
      if ((__HAL_RCC_GET_FLAG(RCC_FLAG_HSERDY) != RESET) && (RCC_OscInitStruct->HSEState == RCC_HSE_OFF))
 8001e0e:	4b89      	ldr	r3, [pc, #548]	; (8002034 <HAL_RCC_OscConfig+0x26c>)
 8001e10:	681b      	ldr	r3, [r3, #0]
 8001e12:	f403 3300 	and.w	r3, r3, #131072	; 0x20000
 8001e16:	2b00      	cmp	r3, #0
 8001e18:	d06c      	beq.n	8001ef4 <HAL_RCC_OscConfig+0x12c>
 8001e1a:	687b      	ldr	r3, [r7, #4]
 8001e1c:	685b      	ldr	r3, [r3, #4]
 8001e1e:	2b00      	cmp	r3, #0
 8001e20:	d168      	bne.n	8001ef4 <HAL_RCC_OscConfig+0x12c>
      {
        return HAL_ERROR;
 8001e22:	2301      	movs	r3, #1
 8001e24:	e246      	b.n	80022b4 <HAL_RCC_OscConfig+0x4ec>
      }
    }
    else
    {
      /* Set the new HSE configuration ---------------------------------------*/
      __HAL_RCC_HSE_CONFIG(RCC_OscInitStruct->HSEState);
 8001e26:	687b      	ldr	r3, [r7, #4]
 8001e28:	685b      	ldr	r3, [r3, #4]
 8001e2a:	f5b3 3f80 	cmp.w	r3, #65536	; 0x10000
 8001e2e:	d106      	bne.n	8001e3e <HAL_RCC_OscConfig+0x76>
 8001e30:	4b80      	ldr	r3, [pc, #512]	; (8002034 <HAL_RCC_OscConfig+0x26c>)
 8001e32:	681b      	ldr	r3, [r3, #0]
 8001e34:	4a7f      	ldr	r2, [pc, #508]	; (8002034 <HAL_RCC_OscConfig+0x26c>)
 8001e36:	f443 3380 	orr.w	r3, r3, #65536	; 0x10000
 8001e3a:	6013      	str	r3, [r2, #0]
 8001e3c:	e02e      	b.n	8001e9c <HAL_RCC_OscConfig+0xd4>
 8001e3e:	687b      	ldr	r3, [r7, #4]
 8001e40:	685b      	ldr	r3, [r3, #4]
 8001e42:	2b00      	cmp	r3, #0
 8001e44:	d10c      	bne.n	8001e60 <HAL_RCC_OscConfig+0x98>
 8001e46:	4b7b      	ldr	r3, [pc, #492]	; (8002034 <HAL_RCC_OscConfig+0x26c>)
 8001e48:	681b      	ldr	r3, [r3, #0]
 8001e4a:	4a7a      	ldr	r2, [pc, #488]	; (8002034 <HAL_RCC_OscConfig+0x26c>)
 8001e4c:	f423 3380 	bic.w	r3, r3, #65536	; 0x10000
 8001e50:	6013      	str	r3, [r2, #0]
 8001e52:	4b78      	ldr	r3, [pc, #480]	; (8002034 <HAL_RCC_OscConfig+0x26c>)
 8001e54:	681b      	ldr	r3, [r3, #0]
 8001e56:	4a77      	ldr	r2, [pc, #476]	; (8002034 <HAL_RCC_OscConfig+0x26c>)
 8001e58:	f423 2380 	bic.w	r3, r3, #262144	; 0x40000
 8001e5c:	6013      	str	r3, [r2, #0]
 8001e5e:	e01d      	b.n	8001e9c <HAL_RCC_OscConfig+0xd4>
 8001e60:	687b      	ldr	r3, [r7, #4]
 8001e62:	685b      	ldr	r3, [r3, #4]
 8001e64:	f5b3 2fa0 	cmp.w	r3, #327680	; 0x50000
 8001e68:	d10c      	bne.n	8001e84 <HAL_RCC_OscConfig+0xbc>
 8001e6a:	4b72      	ldr	r3, [pc, #456]	; (8002034 <HAL_RCC_OscConfig+0x26c>)
 8001e6c:	681b      	ldr	r3, [r3, #0]
 8001e6e:	4a71      	ldr	r2, [pc, #452]	; (8002034 <HAL_RCC_OscConfig+0x26c>)
 8001e70:	f443 2380 	orr.w	r3, r3, #262144	; 0x40000
 8001e74:	6013      	str	r3, [r2, #0]
 8001e76:	4b6f      	ldr	r3, [pc, #444]	; (8002034 <HAL_RCC_OscConfig+0x26c>)
 8001e78:	681b      	ldr	r3, [r3, #0]
 8001e7a:	4a6e      	ldr	r2, [pc, #440]	; (8002034 <HAL_RCC_OscConfig+0x26c>)
 8001e7c:	f443 3380 	orr.w	r3, r3, #65536	; 0x10000
 8001e80:	6013      	str	r3, [r2, #0]
 8001e82:	e00b      	b.n	8001e9c <HAL_RCC_OscConfig+0xd4>
 8001e84:	4b6b      	ldr	r3, [pc, #428]	; (8002034 <HAL_RCC_OscConfig+0x26c>)
 8001e86:	681b      	ldr	r3, [r3, #0]
 8001e88:	4a6a      	ldr	r2, [pc, #424]	; (8002034 <HAL_RCC_OscConfig+0x26c>)
 8001e8a:	f423 3380 	bic.w	r3, r3, #65536	; 0x10000
 8001e8e:	6013      	str	r3, [r2, #0]
 8001e90:	4b68      	ldr	r3, [pc, #416]	; (8002034 <HAL_RCC_OscConfig+0x26c>)
 8001e92:	681b      	ldr	r3, [r3, #0]
 8001e94:	4a67      	ldr	r2, [pc, #412]	; (8002034 <HAL_RCC_OscConfig+0x26c>)
 8001e96:	f423 2380 	bic.w	r3, r3, #262144	; 0x40000
 8001e9a:	6013      	str	r3, [r2, #0]


      /* Check the HSE State */
      if (RCC_OscInitStruct->HSEState != RCC_HSE_OFF)
 8001e9c:	687b      	ldr	r3, [r7, #4]
 8001e9e:	685b      	ldr	r3, [r3, #4]
 8001ea0:	2b00      	cmp	r3, #0
 8001ea2:	d013      	beq.n	8001ecc <HAL_RCC_OscConfig+0x104>
      {
        /* Get Start Tick */
        tickstart = HAL_GetTick();
 8001ea4:	f7ff f9cc 	bl	8001240 <HAL_GetTick>
 8001ea8:	6138      	str	r0, [r7, #16]

        /* Wait till HSE is ready */
        while (__HAL_RCC_GET_FLAG(RCC_FLAG_HSERDY) == RESET)
 8001eaa:	e008      	b.n	8001ebe <HAL_RCC_OscConfig+0xf6>
        {
          if ((HAL_GetTick() - tickstart) > HSE_TIMEOUT_VALUE)
 8001eac:	f7ff f9c8 	bl	8001240 <HAL_GetTick>
 8001eb0:	4602      	mov	r2, r0
 8001eb2:	693b      	ldr	r3, [r7, #16]
 8001eb4:	1ad3      	subs	r3, r2, r3
 8001eb6:	2b64      	cmp	r3, #100	; 0x64
 8001eb8:	d901      	bls.n	8001ebe <HAL_RCC_OscConfig+0xf6>
          {
            return HAL_TIMEOUT;
 8001eba:	2303      	movs	r3, #3
 8001ebc:	e1fa      	b.n	80022b4 <HAL_RCC_OscConfig+0x4ec>
        while (__HAL_RCC_GET_FLAG(RCC_FLAG_HSERDY) == RESET)
 8001ebe:	4b5d      	ldr	r3, [pc, #372]	; (8002034 <HAL_RCC_OscConfig+0x26c>)
 8001ec0:	681b      	ldr	r3, [r3, #0]
 8001ec2:	f403 3300 	and.w	r3, r3, #131072	; 0x20000
 8001ec6:	2b00      	cmp	r3, #0
 8001ec8:	d0f0      	beq.n	8001eac <HAL_RCC_OscConfig+0xe4>
 8001eca:	e014      	b.n	8001ef6 <HAL_RCC_OscConfig+0x12e>
        }
      }
      else
      {
        /* Get Start Tick */
        tickstart = HAL_GetTick();
 8001ecc:	f7ff f9b8 	bl	8001240 <HAL_GetTick>
 8001ed0:	6138      	str	r0, [r7, #16]

        /* Wait till HSE is disabled */
        while (__HAL_RCC_GET_FLAG(RCC_FLAG_HSERDY) != RESET)
 8001ed2:	e008      	b.n	8001ee6 <HAL_RCC_OscConfig+0x11e>
        {
          if ((HAL_GetTick() - tickstart) > HSE_TIMEOUT_VALUE)
 8001ed4:	f7ff f9b4 	bl	8001240 <HAL_GetTick>
 8001ed8:	4602      	mov	r2, r0
 8001eda:	693b      	ldr	r3, [r7, #16]
 8001edc:	1ad3      	subs	r3, r2, r3
 8001ede:	2b64      	cmp	r3, #100	; 0x64
 8001ee0:	d901      	bls.n	8001ee6 <HAL_RCC_OscConfig+0x11e>
          {
            return HAL_TIMEOUT;
 8001ee2:	2303      	movs	r3, #3
 8001ee4:	e1e6      	b.n	80022b4 <HAL_RCC_OscConfig+0x4ec>
        while (__HAL_RCC_GET_FLAG(RCC_FLAG_HSERDY) != RESET)
 8001ee6:	4b53      	ldr	r3, [pc, #332]	; (8002034 <HAL_RCC_OscConfig+0x26c>)
 8001ee8:	681b      	ldr	r3, [r3, #0]
 8001eea:	f403 3300 	and.w	r3, r3, #131072	; 0x20000
 8001eee:	2b00      	cmp	r3, #0
 8001ef0:	d1f0      	bne.n	8001ed4 <HAL_RCC_OscConfig+0x10c>
 8001ef2:	e000      	b.n	8001ef6 <HAL_RCC_OscConfig+0x12e>
      if ((__HAL_RCC_GET_FLAG(RCC_FLAG_HSERDY) != RESET) && (RCC_OscInitStruct->HSEState == RCC_HSE_OFF))
 8001ef4:	bf00      	nop
        }
      }
    }
  }
  /*----------------------------- HSI Configuration --------------------------*/
  if (((RCC_OscInitStruct->OscillatorType) & RCC_OSCILLATORTYPE_HSI) == RCC_OSCILLATORTYPE_HSI)
 8001ef6:	687b      	ldr	r3, [r7, #4]
 8001ef8:	681b      	ldr	r3, [r3, #0]
 8001efa:	f003 0302 	and.w	r3, r3, #2
 8001efe:	2b00      	cmp	r3, #0
 8001f00:	d063      	beq.n	8001fca <HAL_RCC_OscConfig+0x202>
    /* Check the parameters */
    assert_param(IS_RCC_HSI(RCC_OscInitStruct->HSIState));
    assert_param(IS_RCC_CALIBRATION_VALUE(RCC_OscInitStruct->HSICalibrationValue));

    /* Check if HSI is used as system clock or as PLL source when PLL is selected as system clock */
    if ((__HAL_RCC_GET_SYSCLK_SOURCE() == RCC_SYSCLKSOURCE_STATUS_HSI)
 8001f02:	4b4c      	ldr	r3, [pc, #304]	; (8002034 <HAL_RCC_OscConfig+0x26c>)
 8001f04:	685b      	ldr	r3, [r3, #4]
 8001f06:	f003 030c 	and.w	r3, r3, #12
 8001f0a:	2b00      	cmp	r3, #0
 8001f0c:	d00b      	beq.n	8001f26 <HAL_RCC_OscConfig+0x15e>
        || ((__HAL_RCC_GET_SYSCLK_SOURCE() == RCC_SYSCLKSOURCE_STATUS_PLLCLK) && (__HAL_RCC_GET_PLL_OSCSOURCE() == RCC_PLLSOURCE_HSI_DIV2)))
 8001f0e:	4b49      	ldr	r3, [pc, #292]	; (8002034 <HAL_RCC_OscConfig+0x26c>)
 8001f10:	685b      	ldr	r3, [r3, #4]
 8001f12:	f003 030c 	and.w	r3, r3, #12
 8001f16:	2b08      	cmp	r3, #8
 8001f18:	d11c      	bne.n	8001f54 <HAL_RCC_OscConfig+0x18c>
 8001f1a:	4b46      	ldr	r3, [pc, #280]	; (8002034 <HAL_RCC_OscConfig+0x26c>)
 8001f1c:	685b      	ldr	r3, [r3, #4]
 8001f1e:	f403 3380 	and.w	r3, r3, #65536	; 0x10000
 8001f22:	2b00      	cmp	r3, #0
 8001f24:	d116      	bne.n	8001f54 <HAL_RCC_OscConfig+0x18c>
    {
      /* When HSI is used as system clock it will not disabled */
      if ((__HAL_RCC_GET_FLAG(RCC_FLAG_HSIRDY) != RESET) && (RCC_OscInitStruct->HSIState != RCC_HSI_ON))
 8001f26:	4b43      	ldr	r3, [pc, #268]	; (8002034 <HAL_RCC_OscConfig+0x26c>)
 8001f28:	681b      	ldr	r3, [r3, #0]
 8001f2a:	f003 0302 	and.w	r3, r3, #2
 8001f2e:	2b00      	cmp	r3, #0
 8001f30:	d005      	beq.n	8001f3e <HAL_RCC_OscConfig+0x176>
 8001f32:	687b      	ldr	r3, [r7, #4]
 8001f34:	691b      	ldr	r3, [r3, #16]
 8001f36:	2b01      	cmp	r3, #1
 8001f38:	d001      	beq.n	8001f3e <HAL_RCC_OscConfig+0x176>
      {
        return HAL_ERROR;
 8001f3a:	2301      	movs	r3, #1
 8001f3c:	e1ba      	b.n	80022b4 <HAL_RCC_OscConfig+0x4ec>
      }
      /* Otherwise, just the calibration is allowed */
      else
      {
        /* Adjusts the Internal High Speed oscillator (HSI) calibration value.*/
        __HAL_RCC_HSI_CALIBRATIONVALUE_ADJUST(RCC_OscInitStruct->HSICalibrationValue);
 8001f3e:	4b3d      	ldr	r3, [pc, #244]	; (8002034 <HAL_RCC_OscConfig+0x26c>)
 8001f40:	681b      	ldr	r3, [r3, #0]
 8001f42:	f023 02f8 	bic.w	r2, r3, #248	; 0xf8
 8001f46:	687b      	ldr	r3, [r7, #4]
 8001f48:	695b      	ldr	r3, [r3, #20]
 8001f4a:	00db      	lsls	r3, r3, #3
 8001f4c:	4939      	ldr	r1, [pc, #228]	; (8002034 <HAL_RCC_OscConfig+0x26c>)
 8001f4e:	4313      	orrs	r3, r2
 8001f50:	600b      	str	r3, [r1, #0]
      if ((__HAL_RCC_GET_FLAG(RCC_FLAG_HSIRDY) != RESET) && (RCC_OscInitStruct->HSIState != RCC_HSI_ON))
 8001f52:	e03a      	b.n	8001fca <HAL_RCC_OscConfig+0x202>
      }
    }
    else
    {
      /* Check the HSI State */
      if (RCC_OscInitStruct->HSIState != RCC_HSI_OFF)
 8001f54:	687b      	ldr	r3, [r7, #4]
 8001f56:	691b      	ldr	r3, [r3, #16]
 8001f58:	2b00      	cmp	r3, #0
 8001f5a:	d020      	beq.n	8001f9e <HAL_RCC_OscConfig+0x1d6>
      {
        /* Enable the Internal High Speed oscillator (HSI). */
        __HAL_RCC_HSI_ENABLE();
 8001f5c:	4b36      	ldr	r3, [pc, #216]	; (8002038 <HAL_RCC_OscConfig+0x270>)
 8001f5e:	2201      	movs	r2, #1
 8001f60:	601a      	str	r2, [r3, #0]

        /* Get Start Tick */
        tickstart = HAL_GetTick();
 8001f62:	f7ff f96d 	bl	8001240 <HAL_GetTick>
 8001f66:	6138      	str	r0, [r7, #16]

        /* Wait till HSI is ready */
        while (__HAL_RCC_GET_FLAG(RCC_FLAG_HSIRDY) == RESET)
 8001f68:	e008      	b.n	8001f7c <HAL_RCC_OscConfig+0x1b4>
        {
          if ((HAL_GetTick() - tickstart) > HSI_TIMEOUT_VALUE)
 8001f6a:	f7ff f969 	bl	8001240 <HAL_GetTick>
 8001f6e:	4602      	mov	r2, r0
 8001f70:	693b      	ldr	r3, [r7, #16]
 8001f72:	1ad3      	subs	r3, r2, r3
 8001f74:	2b02      	cmp	r3, #2
 8001f76:	d901      	bls.n	8001f7c <HAL_RCC_OscConfig+0x1b4>
          {
            return HAL_TIMEOUT;
 8001f78:	2303      	movs	r3, #3
 8001f7a:	e19b      	b.n	80022b4 <HAL_RCC_OscConfig+0x4ec>
        while (__HAL_RCC_GET_FLAG(RCC_FLAG_HSIRDY) == RESET)
 8001f7c:	4b2d      	ldr	r3, [pc, #180]	; (8002034 <HAL_RCC_OscConfig+0x26c>)
 8001f7e:	681b      	ldr	r3, [r3, #0]
 8001f80:	f003 0302 	and.w	r3, r3, #2
 8001f84:	2b00      	cmp	r3, #0
 8001f86:	d0f0      	beq.n	8001f6a <HAL_RCC_OscConfig+0x1a2>
          }
        }

        /* Adjusts the Internal High Speed oscillator (HSI) calibration value.*/
        __HAL_RCC_HSI_CALIBRATIONVALUE_ADJUST(RCC_OscInitStruct->HSICalibrationValue);
 8001f88:	4b2a      	ldr	r3, [pc, #168]	; (8002034 <HAL_RCC_OscConfig+0x26c>)
 8001f8a:	681b      	ldr	r3, [r3, #0]
 8001f8c:	f023 02f8 	bic.w	r2, r3, #248	; 0xf8
 8001f90:	687b      	ldr	r3, [r7, #4]
 8001f92:	695b      	ldr	r3, [r3, #20]
 8001f94:	00db      	lsls	r3, r3, #3
 8001f96:	4927      	ldr	r1, [pc, #156]	; (8002034 <HAL_RCC_OscConfig+0x26c>)
 8001f98:	4313      	orrs	r3, r2
 8001f9a:	600b      	str	r3, [r1, #0]
 8001f9c:	e015      	b.n	8001fca <HAL_RCC_OscConfig+0x202>
      }
      else
      {
        /* Disable the Internal High Speed oscillator (HSI). */
        __HAL_RCC_HSI_DISABLE();
 8001f9e:	4b26      	ldr	r3, [pc, #152]	; (8002038 <HAL_RCC_OscConfig+0x270>)
 8001fa0:	2200      	movs	r2, #0
 8001fa2:	601a      	str	r2, [r3, #0]

        /* Get Start Tick */
        tickstart = HAL_GetTick();
 8001fa4:	f7ff f94c 	bl	8001240 <HAL_GetTick>
 8001fa8:	6138      	str	r0, [r7, #16]

        /* Wait till HSI is disabled */
        while (__HAL_RCC_GET_FLAG(RCC_FLAG_HSIRDY) != RESET)
 8001faa:	e008      	b.n	8001fbe <HAL_RCC_OscConfig+0x1f6>
        {
          if ((HAL_GetTick() - tickstart) > HSI_TIMEOUT_VALUE)
 8001fac:	f7ff f948 	bl	8001240 <HAL_GetTick>
 8001fb0:	4602      	mov	r2, r0
 8001fb2:	693b      	ldr	r3, [r7, #16]
 8001fb4:	1ad3      	subs	r3, r2, r3
 8001fb6:	2b02      	cmp	r3, #2
 8001fb8:	d901      	bls.n	8001fbe <HAL_RCC_OscConfig+0x1f6>
          {
            return HAL_TIMEOUT;
 8001fba:	2303      	movs	r3, #3
 8001fbc:	e17a      	b.n	80022b4 <HAL_RCC_OscConfig+0x4ec>
        while (__HAL_RCC_GET_FLAG(RCC_FLAG_HSIRDY) != RESET)
 8001fbe:	4b1d      	ldr	r3, [pc, #116]	; (8002034 <HAL_RCC_OscConfig+0x26c>)
 8001fc0:	681b      	ldr	r3, [r3, #0]
 8001fc2:	f003 0302 	and.w	r3, r3, #2
 8001fc6:	2b00      	cmp	r3, #0
 8001fc8:	d1f0      	bne.n	8001fac <HAL_RCC_OscConfig+0x1e4>
        }
      }
    }
  }
  /*------------------------------ LSI Configuration -------------------------*/
  if (((RCC_OscInitStruct->OscillatorType) & RCC_OSCILLATORTYPE_LSI) == RCC_OSCILLATORTYPE_LSI)
 8001fca:	687b      	ldr	r3, [r7, #4]
 8001fcc:	681b      	ldr	r3, [r3, #0]
 8001fce:	f003 0308 	and.w	r3, r3, #8
 8001fd2:	2b00      	cmp	r3, #0
 8001fd4:	d03a      	beq.n	800204c <HAL_RCC_OscConfig+0x284>
  {
    /* Check the parameters */
    assert_param(IS_RCC_LSI(RCC_OscInitStruct->LSIState));

    /* Check the LSI State */
    if (RCC_OscInitStruct->LSIState != RCC_LSI_OFF)
 8001fd6:	687b      	ldr	r3, [r7, #4]
 8001fd8:	699b      	ldr	r3, [r3, #24]
 8001fda:	2b00      	cmp	r3, #0
 8001fdc:	d019      	beq.n	8002012 <HAL_RCC_OscConfig+0x24a>
    {
      /* Enable the Internal Low Speed oscillator (LSI). */
      __HAL_RCC_LSI_ENABLE();
 8001fde:	4b17      	ldr	r3, [pc, #92]	; (800203c <HAL_RCC_OscConfig+0x274>)
 8001fe0:	2201      	movs	r2, #1
 8001fe2:	601a      	str	r2, [r3, #0]

      /* Get Start Tick */
      tickstart = HAL_GetTick();
 8001fe4:	f7ff f92c 	bl	8001240 <HAL_GetTick>
 8001fe8:	6138      	str	r0, [r7, #16]

      /* Wait till LSI is ready */
      while (__HAL_RCC_GET_FLAG(RCC_FLAG_LSIRDY) == RESET)
 8001fea:	e008      	b.n	8001ffe <HAL_RCC_OscConfig+0x236>
      {
        if ((HAL_GetTick() - tickstart) > LSI_TIMEOUT_VALUE)
 8001fec:	f7ff f928 	bl	8001240 <HAL_GetTick>
 8001ff0:	4602      	mov	r2, r0
 8001ff2:	693b      	ldr	r3, [r7, #16]
 8001ff4:	1ad3      	subs	r3, r2, r3
 8001ff6:	2b02      	cmp	r3, #2
 8001ff8:	d901      	bls.n	8001ffe <HAL_RCC_OscConfig+0x236>
        {
          return HAL_TIMEOUT;
 8001ffa:	2303      	movs	r3, #3
 8001ffc:	e15a      	b.n	80022b4 <HAL_RCC_OscConfig+0x4ec>
      while (__HAL_RCC_GET_FLAG(RCC_FLAG_LSIRDY) == RESET)
 8001ffe:	4b0d      	ldr	r3, [pc, #52]	; (8002034 <HAL_RCC_OscConfig+0x26c>)
 8002000:	6a5b      	ldr	r3, [r3, #36]	; 0x24
 8002002:	f003 0302 	and.w	r3, r3, #2
 8002006:	2b00      	cmp	r3, #0
 8002008:	d0f0      	beq.n	8001fec <HAL_RCC_OscConfig+0x224>
        }
      }
      /*  To have a fully stabilized clock in the specified range, a software delay of 1ms
          should be added.*/
      RCC_Delay(1);
 800200a:	2001      	movs	r0, #1
 800200c:	f000 fada 	bl	80025c4 <RCC_Delay>
 8002010:	e01c      	b.n	800204c <HAL_RCC_OscConfig+0x284>
    }
    else
    {
      /* Disable the Internal Low Speed oscillator (LSI). */
      __HAL_RCC_LSI_DISABLE();
 8002012:	4b0a      	ldr	r3, [pc, #40]	; (800203c <HAL_RCC_OscConfig+0x274>)
 8002014:	2200      	movs	r2, #0
 8002016:	601a      	str	r2, [r3, #0]

      /* Get Start Tick */
      tickstart = HAL_GetTick();
 8002018:	f7ff f912 	bl	8001240 <HAL_GetTick>
 800201c:	6138      	str	r0, [r7, #16]

      /* Wait till LSI is disabled */
      while (__HAL_RCC_GET_FLAG(RCC_FLAG_LSIRDY) != RESET)
 800201e:	e00f      	b.n	8002040 <HAL_RCC_OscConfig+0x278>
      {
        if ((HAL_GetTick() - tickstart) > LSI_TIMEOUT_VALUE)
 8002020:	f7ff f90e 	bl	8001240 <HAL_GetTick>
 8002024:	4602      	mov	r2, r0
 8002026:	693b      	ldr	r3, [r7, #16]
 8002028:	1ad3      	subs	r3, r2, r3
 800202a:	2b02      	cmp	r3, #2
 800202c:	d908      	bls.n	8002040 <HAL_RCC_OscConfig+0x278>
        {
          return HAL_TIMEOUT;
 800202e:	2303      	movs	r3, #3
 8002030:	e140      	b.n	80022b4 <HAL_RCC_OscConfig+0x4ec>
 8002032:	bf00      	nop
 8002034:	40021000 	.word	0x40021000
 8002038:	42420000 	.word	0x42420000
 800203c:	42420480 	.word	0x42420480
      while (__HAL_RCC_GET_FLAG(RCC_FLAG_LSIRDY) != RESET)
 8002040:	4b9e      	ldr	r3, [pc, #632]	; (80022bc <HAL_RCC_OscConfig+0x4f4>)
 8002042:	6a5b      	ldr	r3, [r3, #36]	; 0x24
 8002044:	f003 0302 	and.w	r3, r3, #2
 8002048:	2b00      	cmp	r3, #0
 800204a:	d1e9      	bne.n	8002020 <HAL_RCC_OscConfig+0x258>
        }
      }
    }
  }
  /*------------------------------ LSE Configuration -------------------------*/
  if (((RCC_OscInitStruct->OscillatorType) & RCC_OSCILLATORTYPE_LSE) == RCC_OSCILLATORTYPE_LSE)
 800204c:	687b      	ldr	r3, [r7, #4]
 800204e:	681b      	ldr	r3, [r3, #0]
 8002050:	f003 0304 	and.w	r3, r3, #4
 8002054:	2b00      	cmp	r3, #0
 8002056:	f000 80a6 	beq.w	80021a6 <HAL_RCC_OscConfig+0x3de>
  {
    FlagStatus       pwrclkchanged = RESET;
 800205a:	2300      	movs	r3, #0
 800205c:	75fb      	strb	r3, [r7, #23]
    /* Check the parameters */
    assert_param(IS_RCC_LSE(RCC_OscInitStruct->LSEState));

    /* Update LSE configuration in Backup Domain control register    */
    /* Requires to enable write access to Backup Domain of necessary */
    if (__HAL_RCC_PWR_IS_CLK_DISABLED())
 800205e:	4b97      	ldr	r3, [pc, #604]	; (80022bc <HAL_RCC_OscConfig+0x4f4>)
 8002060:	69db      	ldr	r3, [r3, #28]
 8002062:	f003 5380 	and.w	r3, r3, #268435456	; 0x10000000
 8002066:	2b00      	cmp	r3, #0
 8002068:	d10d      	bne.n	8002086 <HAL_RCC_OscConfig+0x2be>
    {
      __HAL_RCC_PWR_CLK_ENABLE();
 800206a:	4b94      	ldr	r3, [pc, #592]	; (80022bc <HAL_RCC_OscConfig+0x4f4>)
 800206c:	69db      	ldr	r3, [r3, #28]
 800206e:	4a93      	ldr	r2, [pc, #588]	; (80022bc <HAL_RCC_OscConfig+0x4f4>)
 8002070:	f043 5380 	orr.w	r3, r3, #268435456	; 0x10000000
 8002074:	61d3      	str	r3, [r2, #28]
 8002076:	4b91      	ldr	r3, [pc, #580]	; (80022bc <HAL_RCC_OscConfig+0x4f4>)
 8002078:	69db      	ldr	r3, [r3, #28]
 800207a:	f003 5380 	and.w	r3, r3, #268435456	; 0x10000000
 800207e:	60bb      	str	r3, [r7, #8]
 8002080:	68bb      	ldr	r3, [r7, #8]
      pwrclkchanged = SET;
 8002082:	2301      	movs	r3, #1
 8002084:	75fb      	strb	r3, [r7, #23]
    }

    if (HAL_IS_BIT_CLR(PWR->CR, PWR_CR_DBP))
 8002086:	4b8e      	ldr	r3, [pc, #568]	; (80022c0 <HAL_RCC_OscConfig+0x4f8>)
 8002088:	681b      	ldr	r3, [r3, #0]
 800208a:	f403 7380 	and.w	r3, r3, #256	; 0x100
 800208e:	2b00      	cmp	r3, #0
 8002090:	d118      	bne.n	80020c4 <HAL_RCC_OscConfig+0x2fc>
    {
      /* Enable write access to Backup domain */
      SET_BIT(PWR->CR, PWR_CR_DBP);
 8002092:	4b8b      	ldr	r3, [pc, #556]	; (80022c0 <HAL_RCC_OscConfig+0x4f8>)
 8002094:	681b      	ldr	r3, [r3, #0]
 8002096:	4a8a      	ldr	r2, [pc, #552]	; (80022c0 <HAL_RCC_OscConfig+0x4f8>)
 8002098:	f443 7380 	orr.w	r3, r3, #256	; 0x100
 800209c:	6013      	str	r3, [r2, #0]

      /* Wait for Backup domain Write protection disable */
      tickstart = HAL_GetTick();
 800209e:	f7ff f8cf 	bl	8001240 <HAL_GetTick>
 80020a2:	6138      	str	r0, [r7, #16]

      while (HAL_IS_BIT_CLR(PWR->CR, PWR_CR_DBP))
 80020a4:	e008      	b.n	80020b8 <HAL_RCC_OscConfig+0x2f0>
      {
        if ((HAL_GetTick() - tickstart) > RCC_DBP_TIMEOUT_VALUE)
 80020a6:	f7ff f8cb 	bl	8001240 <HAL_GetTick>
 80020aa:	4602      	mov	r2, r0
 80020ac:	693b      	ldr	r3, [r7, #16]
 80020ae:	1ad3      	subs	r3, r2, r3
 80020b0:	2b64      	cmp	r3, #100	; 0x64
 80020b2:	d901      	bls.n	80020b8 <HAL_RCC_OscConfig+0x2f0>
        {
          return HAL_TIMEOUT;
 80020b4:	2303      	movs	r3, #3
 80020b6:	e0fd      	b.n	80022b4 <HAL_RCC_OscConfig+0x4ec>
      while (HAL_IS_BIT_CLR(PWR->CR, PWR_CR_DBP))
 80020b8:	4b81      	ldr	r3, [pc, #516]	; (80022c0 <HAL_RCC_OscConfig+0x4f8>)
 80020ba:	681b      	ldr	r3, [r3, #0]
 80020bc:	f403 7380 	and.w	r3, r3, #256	; 0x100
 80020c0:	2b00      	cmp	r3, #0
 80020c2:	d0f0      	beq.n	80020a6 <HAL_RCC_OscConfig+0x2de>
        }
      }
    }

    /* Set the new LSE configuration -----------------------------------------*/
    __HAL_RCC_LSE_CONFIG(RCC_OscInitStruct->LSEState);
 80020c4:	687b      	ldr	r3, [r7, #4]
 80020c6:	68db      	ldr	r3, [r3, #12]
 80020c8:	2b01      	cmp	r3, #1
 80020ca:	d106      	bne.n	80020da <HAL_RCC_OscConfig+0x312>
 80020cc:	4b7b      	ldr	r3, [pc, #492]	; (80022bc <HAL_RCC_OscConfig+0x4f4>)
 80020ce:	6a1b      	ldr	r3, [r3, #32]
 80020d0:	4a7a      	ldr	r2, [pc, #488]	; (80022bc <HAL_RCC_OscConfig+0x4f4>)
 80020d2:	f043 0301 	orr.w	r3, r3, #1
 80020d6:	6213      	str	r3, [r2, #32]
 80020d8:	e02d      	b.n	8002136 <HAL_RCC_OscConfig+0x36e>
 80020da:	687b      	ldr	r3, [r7, #4]
 80020dc:	68db      	ldr	r3, [r3, #12]
 80020de:	2b00      	cmp	r3, #0
 80020e0:	d10c      	bne.n	80020fc <HAL_RCC_OscConfig+0x334>
 80020e2:	4b76      	ldr	r3, [pc, #472]	; (80022bc <HAL_RCC_OscConfig+0x4f4>)
 80020e4:	6a1b      	ldr	r3, [r3, #32]
 80020e6:	4a75      	ldr	r2, [pc, #468]	; (80022bc <HAL_RCC_OscConfig+0x4f4>)
 80020e8:	f023 0301 	bic.w	r3, r3, #1
 80020ec:	6213      	str	r3, [r2, #32]
 80020ee:	4b73      	ldr	r3, [pc, #460]	; (80022bc <HAL_RCC_OscConfig+0x4f4>)
 80020f0:	6a1b      	ldr	r3, [r3, #32]
 80020f2:	4a72      	ldr	r2, [pc, #456]	; (80022bc <HAL_RCC_OscConfig+0x4f4>)
 80020f4:	f023 0304 	bic.w	r3, r3, #4
 80020f8:	6213      	str	r3, [r2, #32]
 80020fa:	e01c      	b.n	8002136 <HAL_RCC_OscConfig+0x36e>
 80020fc:	687b      	ldr	r3, [r7, #4]
 80020fe:	68db      	ldr	r3, [r3, #12]
 8002100:	2b05      	cmp	r3, #5
 8002102:	d10c      	bne.n	800211e <HAL_RCC_OscConfig+0x356>
 8002104:	4b6d      	ldr	r3, [pc, #436]	; (80022bc <HAL_RCC_OscConfig+0x4f4>)
 8002106:	6a1b      	ldr	r3, [r3, #32]
 8002108:	4a6c      	ldr	r2, [pc, #432]	; (80022bc <HAL_RCC_OscConfig+0x4f4>)
 800210a:	f043 0304 	orr.w	r3, r3, #4
 800210e:	6213      	str	r3, [r2, #32]
 8002110:	4b6a      	ldr	r3, [pc, #424]	; (80022bc <HAL_RCC_OscConfig+0x4f4>)
 8002112:	6a1b      	ldr	r3, [r3, #32]
 8002114:	4a69      	ldr	r2, [pc, #420]	; (80022bc <HAL_RCC_OscConfig+0x4f4>)
 8002116:	f043 0301 	orr.w	r3, r3, #1
 800211a:	6213      	str	r3, [r2, #32]
 800211c:	e00b      	b.n	8002136 <HAL_RCC_OscConfig+0x36e>
 800211e:	4b67      	ldr	r3, [pc, #412]	; (80022bc <HAL_RCC_OscConfig+0x4f4>)
 8002120:	6a1b      	ldr	r3, [r3, #32]
 8002122:	4a66      	ldr	r2, [pc, #408]	; (80022bc <HAL_RCC_OscConfig+0x4f4>)
 8002124:	f023 0301 	bic.w	r3, r3, #1
 8002128:	6213      	str	r3, [r2, #32]
 800212a:	4b64      	ldr	r3, [pc, #400]	; (80022bc <HAL_RCC_OscConfig+0x4f4>)
 800212c:	6a1b      	ldr	r3, [r3, #32]
 800212e:	4a63      	ldr	r2, [pc, #396]	; (80022bc <HAL_RCC_OscConfig+0x4f4>)
 8002130:	f023 0304 	bic.w	r3, r3, #4
 8002134:	6213      	str	r3, [r2, #32]
    /* Check the LSE State */
    if (RCC_OscInitStruct->LSEState != RCC_LSE_OFF)
 8002136:	687b      	ldr	r3, [r7, #4]
 8002138:	68db      	ldr	r3, [r3, #12]
 800213a:	2b00      	cmp	r3, #0
 800213c:	d015      	beq.n	800216a <HAL_RCC_OscConfig+0x3a2>
    {
      /* Get Start Tick */
      tickstart = HAL_GetTick();
 800213e:	f7ff f87f 	bl	8001240 <HAL_GetTick>
 8002142:	6138      	str	r0, [r7, #16]

      /* Wait till LSE is ready */
      while (__HAL_RCC_GET_FLAG(RCC_FLAG_LSERDY) == RESET)
 8002144:	e00a      	b.n	800215c <HAL_RCC_OscConfig+0x394>
      {
        if ((HAL_GetTick() - tickstart) > RCC_LSE_TIMEOUT_VALUE)
 8002146:	f7ff f87b 	bl	8001240 <HAL_GetTick>
 800214a:	4602      	mov	r2, r0
 800214c:	693b      	ldr	r3, [r7, #16]
 800214e:	1ad3      	subs	r3, r2, r3
 8002150:	f241 3288 	movw	r2, #5000	; 0x1388
 8002154:	4293      	cmp	r3, r2
 8002156:	d901      	bls.n	800215c <HAL_RCC_OscConfig+0x394>
        {
          return HAL_TIMEOUT;
 8002158:	2303      	movs	r3, #3
 800215a:	e0ab      	b.n	80022b4 <HAL_RCC_OscConfig+0x4ec>
      while (__HAL_RCC_GET_FLAG(RCC_FLAG_LSERDY) == RESET)
 800215c:	4b57      	ldr	r3, [pc, #348]	; (80022bc <HAL_RCC_OscConfig+0x4f4>)
 800215e:	6a1b      	ldr	r3, [r3, #32]
 8002160:	f003 0302 	and.w	r3, r3, #2
 8002164:	2b00      	cmp	r3, #0
 8002166:	d0ee      	beq.n	8002146 <HAL_RCC_OscConfig+0x37e>
 8002168:	e014      	b.n	8002194 <HAL_RCC_OscConfig+0x3cc>
      }
    }
    else
    {
      /* Get Start Tick */
      tickstart = HAL_GetTick();
 800216a:	f7ff f869 	bl	8001240 <HAL_GetTick>
 800216e:	6138      	str	r0, [r7, #16]

      /* Wait till LSE is disabled */
      while (__HAL_RCC_GET_FLAG(RCC_FLAG_LSERDY) != RESET)
 8002170:	e00a      	b.n	8002188 <HAL_RCC_OscConfig+0x3c0>
      {
        if ((HAL_GetTick() - tickstart) > RCC_LSE_TIMEOUT_VALUE)
 8002172:	f7ff f865 	bl	8001240 <HAL_GetTick>
 8002176:	4602      	mov	r2, r0
 8002178:	693b      	ldr	r3, [r7, #16]
 800217a:	1ad3      	subs	r3, r2, r3
 800217c:	f241 3288 	movw	r2, #5000	; 0x1388
 8002180:	4293      	cmp	r3, r2
 8002182:	d901      	bls.n	8002188 <HAL_RCC_OscConfig+0x3c0>
        {
          return HAL_TIMEOUT;
 8002184:	2303      	movs	r3, #3
 8002186:	e095      	b.n	80022b4 <HAL_RCC_OscConfig+0x4ec>
      while (__HAL_RCC_GET_FLAG(RCC_FLAG_LSERDY) != RESET)
 8002188:	4b4c      	ldr	r3, [pc, #304]	; (80022bc <HAL_RCC_OscConfig+0x4f4>)
 800218a:	6a1b      	ldr	r3, [r3, #32]
 800218c:	f003 0302 	and.w	r3, r3, #2
 8002190:	2b00      	cmp	r3, #0
 8002192:	d1ee      	bne.n	8002172 <HAL_RCC_OscConfig+0x3aa>
        }
      }
    }

    /* Require to disable power clock if necessary */
    if (pwrclkchanged == SET)
 8002194:	7dfb      	ldrb	r3, [r7, #23]
 8002196:	2b01      	cmp	r3, #1
 8002198:	d105      	bne.n	80021a6 <HAL_RCC_OscConfig+0x3de>
    {
      __HAL_RCC_PWR_CLK_DISABLE();
 800219a:	4b48      	ldr	r3, [pc, #288]	; (80022bc <HAL_RCC_OscConfig+0x4f4>)
 800219c:	69db      	ldr	r3, [r3, #28]
 800219e:	4a47      	ldr	r2, [pc, #284]	; (80022bc <HAL_RCC_OscConfig+0x4f4>)
 80021a0:	f023 5380 	bic.w	r3, r3, #268435456	; 0x10000000
 80021a4:	61d3      	str	r3, [r2, #28]

#endif /* RCC_CR_PLL2ON */
  /*-------------------------------- PLL Configuration -----------------------*/
  /* Check the parameters */
  assert_param(IS_RCC_PLL(RCC_OscInitStruct->PLL.PLLState));
  if ((RCC_OscInitStruct->PLL.PLLState) != RCC_PLL_NONE)
 80021a6:	687b      	ldr	r3, [r7, #4]
 80021a8:	69db      	ldr	r3, [r3, #28]
 80021aa:	2b00      	cmp	r3, #0
 80021ac:	f000 8081 	beq.w	80022b2 <HAL_RCC_OscConfig+0x4ea>
  {
    /* Check if the PLL is used as system clock or not */
    if (__HAL_RCC_GET_SYSCLK_SOURCE() != RCC_SYSCLKSOURCE_STATUS_PLLCLK)
 80021b0:	4b42      	ldr	r3, [pc, #264]	; (80022bc <HAL_RCC_OscConfig+0x4f4>)
 80021b2:	685b      	ldr	r3, [r3, #4]
 80021b4:	f003 030c 	and.w	r3, r3, #12
 80021b8:	2b08      	cmp	r3, #8
 80021ba:	d061      	beq.n	8002280 <HAL_RCC_OscConfig+0x4b8>
    {
      if ((RCC_OscInitStruct->PLL.PLLState) == RCC_PLL_ON)
 80021bc:	687b      	ldr	r3, [r7, #4]
 80021be:	69db      	ldr	r3, [r3, #28]
 80021c0:	2b02      	cmp	r3, #2
 80021c2:	d146      	bne.n	8002252 <HAL_RCC_OscConfig+0x48a>
        /* Check the parameters */
        assert_param(IS_RCC_PLLSOURCE(RCC_OscInitStruct->PLL.PLLSource));
        assert_param(IS_RCC_PLL_MUL(RCC_OscInitStruct->PLL.PLLMUL));

        /* Disable the main PLL. */
        __HAL_RCC_PLL_DISABLE();
 80021c4:	4b3f      	ldr	r3, [pc, #252]	; (80022c4 <HAL_RCC_OscConfig+0x4fc>)
 80021c6:	2200      	movs	r2, #0
 80021c8:	601a      	str	r2, [r3, #0]

        /* Get Start Tick */
        tickstart = HAL_GetTick();
 80021ca:	f7ff f839 	bl	8001240 <HAL_GetTick>
 80021ce:	6138      	str	r0, [r7, #16]

        /* Wait till PLL is disabled */
        while (__HAL_RCC_GET_FLAG(RCC_FLAG_PLLRDY)  != RESET)
 80021d0:	e008      	b.n	80021e4 <HAL_RCC_OscConfig+0x41c>
        {
          if ((HAL_GetTick() - tickstart) > PLL_TIMEOUT_VALUE)
 80021d2:	f7ff f835 	bl	8001240 <HAL_GetTick>
 80021d6:	4602      	mov	r2, r0
 80021d8:	693b      	ldr	r3, [r7, #16]
 80021da:	1ad3      	subs	r3, r2, r3
 80021dc:	2b02      	cmp	r3, #2
 80021de:	d901      	bls.n	80021e4 <HAL_RCC_OscConfig+0x41c>
          {
            return HAL_TIMEOUT;
 80021e0:	2303      	movs	r3, #3
 80021e2:	e067      	b.n	80022b4 <HAL_RCC_OscConfig+0x4ec>
        while (__HAL_RCC_GET_FLAG(RCC_FLAG_PLLRDY)  != RESET)
 80021e4:	4b35      	ldr	r3, [pc, #212]	; (80022bc <HAL_RCC_OscConfig+0x4f4>)
 80021e6:	681b      	ldr	r3, [r3, #0]
 80021e8:	f003 7300 	and.w	r3, r3, #33554432	; 0x2000000
 80021ec:	2b00      	cmp	r3, #0
 80021ee:	d1f0      	bne.n	80021d2 <HAL_RCC_OscConfig+0x40a>
          }
        }

        /* Configure the HSE prediv factor --------------------------------*/
        /* It can be written only when the PLL is disabled. Not used in PLL source is different than HSE */
        if (RCC_OscInitStruct->PLL.PLLSource == RCC_PLLSOURCE_HSE)
 80021f0:	687b      	ldr	r3, [r7, #4]
 80021f2:	6a1b      	ldr	r3, [r3, #32]
 80021f4:	f5b3 3f80 	cmp.w	r3, #65536	; 0x10000
 80021f8:	d108      	bne.n	800220c <HAL_RCC_OscConfig+0x444>
          /* Set PREDIV1 source */
          SET_BIT(RCC->CFGR2, RCC_OscInitStruct->Prediv1Source);
#endif /* RCC_CFGR2_PREDIV1SRC */

          /* Set PREDIV1 Value */
          __HAL_RCC_HSE_PREDIV_CONFIG(RCC_OscInitStruct->HSEPredivValue);
 80021fa:	4b30      	ldr	r3, [pc, #192]	; (80022bc <HAL_RCC_OscConfig+0x4f4>)
 80021fc:	685b      	ldr	r3, [r3, #4]
 80021fe:	f423 3200 	bic.w	r2, r3, #131072	; 0x20000
 8002202:	687b      	ldr	r3, [r7, #4]
 8002204:	689b      	ldr	r3, [r3, #8]
 8002206:	492d      	ldr	r1, [pc, #180]	; (80022bc <HAL_RCC_OscConfig+0x4f4>)
 8002208:	4313      	orrs	r3, r2
 800220a:	604b      	str	r3, [r1, #4]
        }

        /* Configure the main PLL clock source and multiplication factors. */
        __HAL_RCC_PLL_CONFIG(RCC_OscInitStruct->PLL.PLLSource,
 800220c:	4b2b      	ldr	r3, [pc, #172]	; (80022bc <HAL_RCC_OscConfig+0x4f4>)
 800220e:	685b      	ldr	r3, [r3, #4]
 8002210:	f423 1274 	bic.w	r2, r3, #3997696	; 0x3d0000
 8002214:	687b      	ldr	r3, [r7, #4]
 8002216:	6a19      	ldr	r1, [r3, #32]
 8002218:	687b      	ldr	r3, [r7, #4]
 800221a:	6a5b      	ldr	r3, [r3, #36]	; 0x24
 800221c:	430b      	orrs	r3, r1
 800221e:	4927      	ldr	r1, [pc, #156]	; (80022bc <HAL_RCC_OscConfig+0x4f4>)
 8002220:	4313      	orrs	r3, r2
 8002222:	604b      	str	r3, [r1, #4]
                             RCC_OscInitStruct->PLL.PLLMUL);
        /* Enable the main PLL. */
        __HAL_RCC_PLL_ENABLE();
 8002224:	4b27      	ldr	r3, [pc, #156]	; (80022c4 <HAL_RCC_OscConfig+0x4fc>)
 8002226:	2201      	movs	r2, #1
 8002228:	601a      	str	r2, [r3, #0]

        /* Get Start Tick */
        tickstart = HAL_GetTick();
 800222a:	f7ff f809 	bl	8001240 <HAL_GetTick>
 800222e:	6138      	str	r0, [r7, #16]

        /* Wait till PLL is ready */
        while (__HAL_RCC_GET_FLAG(RCC_FLAG_PLLRDY)  == RESET)
 8002230:	e008      	b.n	8002244 <HAL_RCC_OscConfig+0x47c>
        {
          if ((HAL_GetTick() - tickstart) > PLL_TIMEOUT_VALUE)
 8002232:	f7ff f805 	bl	8001240 <HAL_GetTick>
 8002236:	4602      	mov	r2, r0
 8002238:	693b      	ldr	r3, [r7, #16]
 800223a:	1ad3      	subs	r3, r2, r3
 800223c:	2b02      	cmp	r3, #2
 800223e:	d901      	bls.n	8002244 <HAL_RCC_OscConfig+0x47c>
          {
            return HAL_TIMEOUT;
 8002240:	2303      	movs	r3, #3
 8002242:	e037      	b.n	80022b4 <HAL_RCC_OscConfig+0x4ec>
        while (__HAL_RCC_GET_FLAG(RCC_FLAG_PLLRDY)  == RESET)
 8002244:	4b1d      	ldr	r3, [pc, #116]	; (80022bc <HAL_RCC_OscConfig+0x4f4>)
 8002246:	681b      	ldr	r3, [r3, #0]
 8002248:	f003 7300 	and.w	r3, r3, #33554432	; 0x2000000
 800224c:	2b00      	cmp	r3, #0
 800224e:	d0f0      	beq.n	8002232 <HAL_RCC_OscConfig+0x46a>
 8002250:	e02f      	b.n	80022b2 <HAL_RCC_OscConfig+0x4ea>
        }
      }
      else
      {
        /* Disable the main PLL. */
        __HAL_RCC_PLL_DISABLE();
 8002252:	4b1c      	ldr	r3, [pc, #112]	; (80022c4 <HAL_RCC_OscConfig+0x4fc>)
 8002254:	2200      	movs	r2, #0
 8002256:	601a      	str	r2, [r3, #0]

        /* Get Start Tick */
        tickstart = HAL_GetTick();
 8002258:	f7fe fff2 	bl	8001240 <HAL_GetTick>
 800225c:	6138      	str	r0, [r7, #16]

        /* Wait till PLL is disabled */
        while (__HAL_RCC_GET_FLAG(RCC_FLAG_PLLRDY)  != RESET)
 800225e:	e008      	b.n	8002272 <HAL_RCC_OscConfig+0x4aa>
        {
          if ((HAL_GetTick() - tickstart) > PLL_TIMEOUT_VALUE)
 8002260:	f7fe ffee 	bl	8001240 <HAL_GetTick>
 8002264:	4602      	mov	r2, r0
 8002266:	693b      	ldr	r3, [r7, #16]
 8002268:	1ad3      	subs	r3, r2, r3
 800226a:	2b02      	cmp	r3, #2
 800226c:	d901      	bls.n	8002272 <HAL_RCC_OscConfig+0x4aa>
          {
            return HAL_TIMEOUT;
 800226e:	2303      	movs	r3, #3
 8002270:	e020      	b.n	80022b4 <HAL_RCC_OscConfig+0x4ec>
        while (__HAL_RCC_GET_FLAG(RCC_FLAG_PLLRDY)  != RESET)
 8002272:	4b12      	ldr	r3, [pc, #72]	; (80022bc <HAL_RCC_OscConfig+0x4f4>)
 8002274:	681b      	ldr	r3, [r3, #0]
 8002276:	f003 7300 	and.w	r3, r3, #33554432	; 0x2000000
 800227a:	2b00      	cmp	r3, #0
 800227c:	d1f0      	bne.n	8002260 <HAL_RCC_OscConfig+0x498>
 800227e:	e018      	b.n	80022b2 <HAL_RCC_OscConfig+0x4ea>
      }
    }
    else
    {
      /* Check if there is a request to disable the PLL used as System clock source */
      if ((RCC_OscInitStruct->PLL.PLLState) == RCC_PLL_OFF)
 8002280:	687b      	ldr	r3, [r7, #4]
 8002282:	69db      	ldr	r3, [r3, #28]
 8002284:	2b01      	cmp	r3, #1
 8002286:	d101      	bne.n	800228c <HAL_RCC_OscConfig+0x4c4>
      {
        return HAL_ERROR;
 8002288:	2301      	movs	r3, #1
 800228a:	e013      	b.n	80022b4 <HAL_RCC_OscConfig+0x4ec>
      }
      else
      {
        /* Do not return HAL_ERROR if request repeats the current configuration */
        pll_config = RCC->CFGR;
 800228c:	4b0b      	ldr	r3, [pc, #44]	; (80022bc <HAL_RCC_OscConfig+0x4f4>)
 800228e:	685b      	ldr	r3, [r3, #4]
 8002290:	60fb      	str	r3, [r7, #12]
        if ((READ_BIT(pll_config, RCC_CFGR_PLLSRC) != RCC_OscInitStruct->PLL.PLLSource) ||
 8002292:	68fb      	ldr	r3, [r7, #12]
 8002294:	f403 3280 	and.w	r2, r3, #65536	; 0x10000
 8002298:	687b      	ldr	r3, [r7, #4]
 800229a:	6a1b      	ldr	r3, [r3, #32]
 800229c:	429a      	cmp	r2, r3
 800229e:	d106      	bne.n	80022ae <HAL_RCC_OscConfig+0x4e6>
            (READ_BIT(pll_config, RCC_CFGR_PLLMULL) != RCC_OscInitStruct->PLL.PLLMUL))
 80022a0:	68fb      	ldr	r3, [r7, #12]
 80022a2:	f403 1270 	and.w	r2, r3, #3932160	; 0x3c0000
 80022a6:	687b      	ldr	r3, [r7, #4]
 80022a8:	6a5b      	ldr	r3, [r3, #36]	; 0x24
        if ((READ_BIT(pll_config, RCC_CFGR_PLLSRC) != RCC_OscInitStruct->PLL.PLLSource) ||
 80022aa:	429a      	cmp	r2, r3
 80022ac:	d001      	beq.n	80022b2 <HAL_RCC_OscConfig+0x4ea>
        {
          return HAL_ERROR;
 80022ae:	2301      	movs	r3, #1
 80022b0:	e000      	b.n	80022b4 <HAL_RCC_OscConfig+0x4ec>
        }
      }
    }
  }

  return HAL_OK;
 80022b2:	2300      	movs	r3, #0
}
 80022b4:	4618      	mov	r0, r3
 80022b6:	3718      	adds	r7, #24
 80022b8:	46bd      	mov	sp, r7
 80022ba:	bd80      	pop	{r7, pc}
 80022bc:	40021000 	.word	0x40021000
 80022c0:	40007000 	.word	0x40007000
 80022c4:	42420060 	.word	0x42420060

080022c8 <HAL_RCC_ClockConfig>:
  *         You can use @ref HAL_RCC_GetClockConfig() function to know which clock is
  *         currently used as system clock source.
  * @retval HAL status
  */
HAL_StatusTypeDef HAL_RCC_ClockConfig(RCC_ClkInitTypeDef  *RCC_ClkInitStruct, uint32_t FLatency)
{
 80022c8:	b580      	push	{r7, lr}
 80022ca:	b084      	sub	sp, #16
 80022cc:	af00      	add	r7, sp, #0
 80022ce:	6078      	str	r0, [r7, #4]
 80022d0:	6039      	str	r1, [r7, #0]
  uint32_t tickstart;

  /* Check Null pointer */
  if (RCC_ClkInitStruct == NULL)
 80022d2:	687b      	ldr	r3, [r7, #4]
 80022d4:	2b00      	cmp	r3, #0
 80022d6:	d101      	bne.n	80022dc <HAL_RCC_ClockConfig+0x14>
  {
    return HAL_ERROR;
 80022d8:	2301      	movs	r3, #1
 80022da:	e0d0      	b.n	800247e <HAL_RCC_ClockConfig+0x1b6>
  must be correctly programmed according to the frequency of the CPU clock
    (HCLK) of the device. */

#if defined(FLASH_ACR_LATENCY)
  /* Increasing the number of wait states because of higher CPU frequency */
  if (FLatency > __HAL_FLASH_GET_LATENCY())
 80022dc:	4b6a      	ldr	r3, [pc, #424]	; (8002488 <HAL_RCC_ClockConfig+0x1c0>)
 80022de:	681b      	ldr	r3, [r3, #0]
 80022e0:	f003 0307 	and.w	r3, r3, #7
 80022e4:	683a      	ldr	r2, [r7, #0]
 80022e6:	429a      	cmp	r2, r3
 80022e8:	d910      	bls.n	800230c <HAL_RCC_ClockConfig+0x44>
  {
    /* Program the new number of wait states to the LATENCY bits in the FLASH_ACR register */
    __HAL_FLASH_SET_LATENCY(FLatency);
 80022ea:	4b67      	ldr	r3, [pc, #412]	; (8002488 <HAL_RCC_ClockConfig+0x1c0>)
 80022ec:	681b      	ldr	r3, [r3, #0]
 80022ee:	f023 0207 	bic.w	r2, r3, #7
 80022f2:	4965      	ldr	r1, [pc, #404]	; (8002488 <HAL_RCC_ClockConfig+0x1c0>)
 80022f4:	683b      	ldr	r3, [r7, #0]
 80022f6:	4313      	orrs	r3, r2
 80022f8:	600b      	str	r3, [r1, #0]

    /* Check that the new number of wait states is taken into account to access the Flash
    memory by reading the FLASH_ACR register */
    if (__HAL_FLASH_GET_LATENCY() != FLatency)
 80022fa:	4b63      	ldr	r3, [pc, #396]	; (8002488 <HAL_RCC_ClockConfig+0x1c0>)
 80022fc:	681b      	ldr	r3, [r3, #0]
 80022fe:	f003 0307 	and.w	r3, r3, #7
 8002302:	683a      	ldr	r2, [r7, #0]
 8002304:	429a      	cmp	r2, r3
 8002306:	d001      	beq.n	800230c <HAL_RCC_ClockConfig+0x44>
  {
    return HAL_ERROR;
 8002308:	2301      	movs	r3, #1
 800230a:	e0b8      	b.n	800247e <HAL_RCC_ClockConfig+0x1b6>
  }
}

#endif /* FLASH_ACR_LATENCY */
/*-------------------------- HCLK Configuration --------------------------*/
if (((RCC_ClkInitStruct->ClockType) & RCC_CLOCKTYPE_HCLK) == RCC_CLOCKTYPE_HCLK)
 800230c:	687b      	ldr	r3, [r7, #4]
 800230e:	681b      	ldr	r3, [r3, #0]
 8002310:	f003 0302 	and.w	r3, r3, #2
 8002314:	2b00      	cmp	r3, #0
 8002316:	d020      	beq.n	800235a <HAL_RCC_ClockConfig+0x92>
  {
    /* Set the highest APBx dividers in order to ensure that we do not go through
    a non-spec phase whatever we decrease or increase HCLK. */
    if (((RCC_ClkInitStruct->ClockType) & RCC_CLOCKTYPE_PCLK1) == RCC_CLOCKTYPE_PCLK1)
 8002318:	687b      	ldr	r3, [r7, #4]
 800231a:	681b      	ldr	r3, [r3, #0]
 800231c:	f003 0304 	and.w	r3, r3, #4
 8002320:	2b00      	cmp	r3, #0
 8002322:	d005      	beq.n	8002330 <HAL_RCC_ClockConfig+0x68>
    {
      MODIFY_REG(RCC->CFGR, RCC_CFGR_PPRE1, RCC_HCLK_DIV16);
 8002324:	4b59      	ldr	r3, [pc, #356]	; (800248c <HAL_RCC_ClockConfig+0x1c4>)
 8002326:	685b      	ldr	r3, [r3, #4]
 8002328:	4a58      	ldr	r2, [pc, #352]	; (800248c <HAL_RCC_ClockConfig+0x1c4>)
 800232a:	f443 63e0 	orr.w	r3, r3, #1792	; 0x700
 800232e:	6053      	str	r3, [r2, #4]
    }

    if (((RCC_ClkInitStruct->ClockType) & RCC_CLOCKTYPE_PCLK2) == RCC_CLOCKTYPE_PCLK2)
 8002330:	687b      	ldr	r3, [r7, #4]
 8002332:	681b      	ldr	r3, [r3, #0]
 8002334:	f003 0308 	and.w	r3, r3, #8
 8002338:	2b00      	cmp	r3, #0
 800233a:	d005      	beq.n	8002348 <HAL_RCC_ClockConfig+0x80>
    {
      MODIFY_REG(RCC->CFGR, RCC_CFGR_PPRE2, (RCC_HCLK_DIV16 << 3));
 800233c:	4b53      	ldr	r3, [pc, #332]	; (800248c <HAL_RCC_ClockConfig+0x1c4>)
 800233e:	685b      	ldr	r3, [r3, #4]
 8002340:	4a52      	ldr	r2, [pc, #328]	; (800248c <HAL_RCC_ClockConfig+0x1c4>)
 8002342:	f443 5360 	orr.w	r3, r3, #14336	; 0x3800
 8002346:	6053      	str	r3, [r2, #4]
    }

    /* Set the new HCLK clock divider */
    assert_param(IS_RCC_HCLK(RCC_ClkInitStruct->AHBCLKDivider));
    MODIFY_REG(RCC->CFGR, RCC_CFGR_HPRE, RCC_ClkInitStruct->AHBCLKDivider);
 8002348:	4b50      	ldr	r3, [pc, #320]	; (800248c <HAL_RCC_ClockConfig+0x1c4>)
 800234a:	685b      	ldr	r3, [r3, #4]
 800234c:	f023 02f0 	bic.w	r2, r3, #240	; 0xf0
 8002350:	687b      	ldr	r3, [r7, #4]
 8002352:	689b      	ldr	r3, [r3, #8]
 8002354:	494d      	ldr	r1, [pc, #308]	; (800248c <HAL_RCC_ClockConfig+0x1c4>)
 8002356:	4313      	orrs	r3, r2
 8002358:	604b      	str	r3, [r1, #4]
  }

  /*------------------------- SYSCLK Configuration ---------------------------*/
  if (((RCC_ClkInitStruct->ClockType) & RCC_CLOCKTYPE_SYSCLK) == RCC_CLOCKTYPE_SYSCLK)
 800235a:	687b      	ldr	r3, [r7, #4]
 800235c:	681b      	ldr	r3, [r3, #0]
 800235e:	f003 0301 	and.w	r3, r3, #1
 8002362:	2b00      	cmp	r3, #0
 8002364:	d040      	beq.n	80023e8 <HAL_RCC_ClockConfig+0x120>
  {
    assert_param(IS_RCC_SYSCLKSOURCE(RCC_ClkInitStruct->SYSCLKSource));

    /* HSE is selected as System Clock Source */
    if (RCC_ClkInitStruct->SYSCLKSource == RCC_SYSCLKSOURCE_HSE)
 8002366:	687b      	ldr	r3, [r7, #4]
 8002368:	685b      	ldr	r3, [r3, #4]
 800236a:	2b01      	cmp	r3, #1
 800236c:	d107      	bne.n	800237e <HAL_RCC_ClockConfig+0xb6>
    {
      /* Check the HSE ready flag */
      if (__HAL_RCC_GET_FLAG(RCC_FLAG_HSERDY) == RESET)
 800236e:	4b47      	ldr	r3, [pc, #284]	; (800248c <HAL_RCC_ClockConfig+0x1c4>)
 8002370:	681b      	ldr	r3, [r3, #0]
 8002372:	f403 3300 	and.w	r3, r3, #131072	; 0x20000
 8002376:	2b00      	cmp	r3, #0
 8002378:	d115      	bne.n	80023a6 <HAL_RCC_ClockConfig+0xde>
      {
        return HAL_ERROR;
 800237a:	2301      	movs	r3, #1
 800237c:	e07f      	b.n	800247e <HAL_RCC_ClockConfig+0x1b6>
      }
    }
    /* PLL is selected as System Clock Source */
    else if (RCC_ClkInitStruct->SYSCLKSource == RCC_SYSCLKSOURCE_PLLCLK)
 800237e:	687b      	ldr	r3, [r7, #4]
 8002380:	685b      	ldr	r3, [r3, #4]
 8002382:	2b02      	cmp	r3, #2
 8002384:	d107      	bne.n	8002396 <HAL_RCC_ClockConfig+0xce>
    {
      /* Check the PLL ready flag */
      if (__HAL_RCC_GET_FLAG(RCC_FLAG_PLLRDY) == RESET)
 8002386:	4b41      	ldr	r3, [pc, #260]	; (800248c <HAL_RCC_ClockConfig+0x1c4>)
 8002388:	681b      	ldr	r3, [r3, #0]
 800238a:	f003 7300 	and.w	r3, r3, #33554432	; 0x2000000
 800238e:	2b00      	cmp	r3, #0
 8002390:	d109      	bne.n	80023a6 <HAL_RCC_ClockConfig+0xde>
      {
        return HAL_ERROR;
 8002392:	2301      	movs	r3, #1
 8002394:	e073      	b.n	800247e <HAL_RCC_ClockConfig+0x1b6>
    }
    /* HSI is selected as System Clock Source */
    else
    {
      /* Check the HSI ready flag */
      if (__HAL_RCC_GET_FLAG(RCC_FLAG_HSIRDY) == RESET)
 8002396:	4b3d      	ldr	r3, [pc, #244]	; (800248c <HAL_RCC_ClockConfig+0x1c4>)
 8002398:	681b      	ldr	r3, [r3, #0]
 800239a:	f003 0302 	and.w	r3, r3, #2
 800239e:	2b00      	cmp	r3, #0
 80023a0:	d101      	bne.n	80023a6 <HAL_RCC_ClockConfig+0xde>
      {
        return HAL_ERROR;
 80023a2:	2301      	movs	r3, #1
 80023a4:	e06b      	b.n	800247e <HAL_RCC_ClockConfig+0x1b6>
      }
    }
    __HAL_RCC_SYSCLK_CONFIG(RCC_ClkInitStruct->SYSCLKSource);
 80023a6:	4b39      	ldr	r3, [pc, #228]	; (800248c <HAL_RCC_ClockConfig+0x1c4>)
 80023a8:	685b      	ldr	r3, [r3, #4]
 80023aa:	f023 0203 	bic.w	r2, r3, #3
 80023ae:	687b      	ldr	r3, [r7, #4]
 80023b0:	685b      	ldr	r3, [r3, #4]
 80023b2:	4936      	ldr	r1, [pc, #216]	; (800248c <HAL_RCC_ClockConfig+0x1c4>)
 80023b4:	4313      	orrs	r3, r2
 80023b6:	604b      	str	r3, [r1, #4]

    /* Get Start Tick */
    tickstart = HAL_GetTick();
 80023b8:	f7fe ff42 	bl	8001240 <HAL_GetTick>
 80023bc:	60f8      	str	r0, [r7, #12]

    while (__HAL_RCC_GET_SYSCLK_SOURCE() != (RCC_ClkInitStruct->SYSCLKSource << RCC_CFGR_SWS_Pos))
 80023be:	e00a      	b.n	80023d6 <HAL_RCC_ClockConfig+0x10e>
    {
      if ((HAL_GetTick() - tickstart) > CLOCKSWITCH_TIMEOUT_VALUE)
 80023c0:	f7fe ff3e 	bl	8001240 <HAL_GetTick>
 80023c4:	4602      	mov	r2, r0
 80023c6:	68fb      	ldr	r3, [r7, #12]
 80023c8:	1ad3      	subs	r3, r2, r3
 80023ca:	f241 3288 	movw	r2, #5000	; 0x1388
 80023ce:	4293      	cmp	r3, r2
 80023d0:	d901      	bls.n	80023d6 <HAL_RCC_ClockConfig+0x10e>
      {
        return HAL_TIMEOUT;
 80023d2:	2303      	movs	r3, #3
 80023d4:	e053      	b.n	800247e <HAL_RCC_ClockConfig+0x1b6>
    while (__HAL_RCC_GET_SYSCLK_SOURCE() != (RCC_ClkInitStruct->SYSCLKSource << RCC_CFGR_SWS_Pos))
 80023d6:	4b2d      	ldr	r3, [pc, #180]	; (800248c <HAL_RCC_ClockConfig+0x1c4>)
 80023d8:	685b      	ldr	r3, [r3, #4]
 80023da:	f003 020c 	and.w	r2, r3, #12
 80023de:	687b      	ldr	r3, [r7, #4]
 80023e0:	685b      	ldr	r3, [r3, #4]
 80023e2:	009b      	lsls	r3, r3, #2
 80023e4:	429a      	cmp	r2, r3
 80023e6:	d1eb      	bne.n	80023c0 <HAL_RCC_ClockConfig+0xf8>
    }
  }

#if defined(FLASH_ACR_LATENCY)
  /* Decreasing the number of wait states because of lower CPU frequency */
  if (FLatency < __HAL_FLASH_GET_LATENCY())
 80023e8:	4b27      	ldr	r3, [pc, #156]	; (8002488 <HAL_RCC_ClockConfig+0x1c0>)
 80023ea:	681b      	ldr	r3, [r3, #0]
 80023ec:	f003 0307 	and.w	r3, r3, #7
 80023f0:	683a      	ldr	r2, [r7, #0]
 80023f2:	429a      	cmp	r2, r3
 80023f4:	d210      	bcs.n	8002418 <HAL_RCC_ClockConfig+0x150>
  {
    /* Program the new number of wait states to the LATENCY bits in the FLASH_ACR register */
    __HAL_FLASH_SET_LATENCY(FLatency);
 80023f6:	4b24      	ldr	r3, [pc, #144]	; (8002488 <HAL_RCC_ClockConfig+0x1c0>)
 80023f8:	681b      	ldr	r3, [r3, #0]
 80023fa:	f023 0207 	bic.w	r2, r3, #7
 80023fe:	4922      	ldr	r1, [pc, #136]	; (8002488 <HAL_RCC_ClockConfig+0x1c0>)
 8002400:	683b      	ldr	r3, [r7, #0]
 8002402:	4313      	orrs	r3, r2
 8002404:	600b      	str	r3, [r1, #0]

    /* Check that the new number of wait states is taken into account to access the Flash
    memory by reading the FLASH_ACR register */
    if (__HAL_FLASH_GET_LATENCY() != FLatency)
 8002406:	4b20      	ldr	r3, [pc, #128]	; (8002488 <HAL_RCC_ClockConfig+0x1c0>)
 8002408:	681b      	ldr	r3, [r3, #0]
 800240a:	f003 0307 	and.w	r3, r3, #7
 800240e:	683a      	ldr	r2, [r7, #0]
 8002410:	429a      	cmp	r2, r3
 8002412:	d001      	beq.n	8002418 <HAL_RCC_ClockConfig+0x150>
  {
    return HAL_ERROR;
 8002414:	2301      	movs	r3, #1
 8002416:	e032      	b.n	800247e <HAL_RCC_ClockConfig+0x1b6>
  }
}
#endif /* FLASH_ACR_LATENCY */

/*-------------------------- PCLK1 Configuration ---------------------------*/
if (((RCC_ClkInitStruct->ClockType) & RCC_CLOCKTYPE_PCLK1) == RCC_CLOCKTYPE_PCLK1)
 8002418:	687b      	ldr	r3, [r7, #4]
 800241a:	681b      	ldr	r3, [r3, #0]
 800241c:	f003 0304 	and.w	r3, r3, #4
 8002420:	2b00      	cmp	r3, #0
 8002422:	d008      	beq.n	8002436 <HAL_RCC_ClockConfig+0x16e>
  {
    assert_param(IS_RCC_PCLK(RCC_ClkInitStruct->APB1CLKDivider));
    MODIFY_REG(RCC->CFGR, RCC_CFGR_PPRE1, RCC_ClkInitStruct->APB1CLKDivider);
 8002424:	4b19      	ldr	r3, [pc, #100]	; (800248c <HAL_RCC_ClockConfig+0x1c4>)
 8002426:	685b      	ldr	r3, [r3, #4]
 8002428:	f423 62e0 	bic.w	r2, r3, #1792	; 0x700
 800242c:	687b      	ldr	r3, [r7, #4]
 800242e:	68db      	ldr	r3, [r3, #12]
 8002430:	4916      	ldr	r1, [pc, #88]	; (800248c <HAL_RCC_ClockConfig+0x1c4>)
 8002432:	4313      	orrs	r3, r2
 8002434:	604b      	str	r3, [r1, #4]
  }

  /*-------------------------- PCLK2 Configuration ---------------------------*/
  if (((RCC_ClkInitStruct->ClockType) & RCC_CLOCKTYPE_PCLK2) == RCC_CLOCKTYPE_PCLK2)
 8002436:	687b      	ldr	r3, [r7, #4]
 8002438:	681b      	ldr	r3, [r3, #0]
 800243a:	f003 0308 	and.w	r3, r3, #8
 800243e:	2b00      	cmp	r3, #0
 8002440:	d009      	beq.n	8002456 <HAL_RCC_ClockConfig+0x18e>
  {
    assert_param(IS_RCC_PCLK(RCC_ClkInitStruct->APB2CLKDivider));
    MODIFY_REG(RCC->CFGR, RCC_CFGR_PPRE2, ((RCC_ClkInitStruct->APB2CLKDivider) << 3));
 8002442:	4b12      	ldr	r3, [pc, #72]	; (800248c <HAL_RCC_ClockConfig+0x1c4>)
 8002444:	685b      	ldr	r3, [r3, #4]
 8002446:	f423 5260 	bic.w	r2, r3, #14336	; 0x3800
 800244a:	687b      	ldr	r3, [r7, #4]
 800244c:	691b      	ldr	r3, [r3, #16]
 800244e:	00db      	lsls	r3, r3, #3
 8002450:	490e      	ldr	r1, [pc, #56]	; (800248c <HAL_RCC_ClockConfig+0x1c4>)
 8002452:	4313      	orrs	r3, r2
 8002454:	604b      	str	r3, [r1, #4]
  }

  /* Update the SystemCoreClock global variable */
  SystemCoreClock = HAL_RCC_GetSysClockFreq() >> AHBPrescTable[(RCC->CFGR & RCC_CFGR_HPRE) >> RCC_CFGR_HPRE_Pos];
 8002456:	f000 f821 	bl	800249c <HAL_RCC_GetSysClockFreq>
 800245a:	4601      	mov	r1, r0
 800245c:	4b0b      	ldr	r3, [pc, #44]	; (800248c <HAL_RCC_ClockConfig+0x1c4>)
 800245e:	685b      	ldr	r3, [r3, #4]
 8002460:	091b      	lsrs	r3, r3, #4
 8002462:	f003 030f 	and.w	r3, r3, #15
 8002466:	4a0a      	ldr	r2, [pc, #40]	; (8002490 <HAL_RCC_ClockConfig+0x1c8>)
 8002468:	5cd3      	ldrb	r3, [r2, r3]
 800246a:	fa21 f303 	lsr.w	r3, r1, r3
 800246e:	4a09      	ldr	r2, [pc, #36]	; (8002494 <HAL_RCC_ClockConfig+0x1cc>)
 8002470:	6013      	str	r3, [r2, #0]

  /* Configure the source of time base considering new system clocks settings*/
  HAL_InitTick(uwTickPrio);
 8002472:	4b09      	ldr	r3, [pc, #36]	; (8002498 <HAL_RCC_ClockConfig+0x1d0>)
 8002474:	681b      	ldr	r3, [r3, #0]
 8002476:	4618      	mov	r0, r3
 8002478:	f7fe fea0 	bl	80011bc <HAL_InitTick>

  return HAL_OK;
 800247c:	2300      	movs	r3, #0
}
 800247e:	4618      	mov	r0, r3
 8002480:	3710      	adds	r7, #16
 8002482:	46bd      	mov	sp, r7
 8002484:	bd80      	pop	{r7, pc}
 8002486:	bf00      	nop
 8002488:	40022000 	.word	0x40022000
 800248c:	40021000 	.word	0x40021000
 8002490:	08002f1c 	.word	0x08002f1c
 8002494:	20000008 	.word	0x20000008
 8002498:	2000000c 	.word	0x2000000c

0800249c <HAL_RCC_GetSysClockFreq>:
  *         right SYSCLK value. Otherwise, any configuration based on this function will be incorrect.
  *
  * @retval SYSCLK frequency
  */
uint32_t HAL_RCC_GetSysClockFreq(void)
{
 800249c:	b490      	push	{r4, r7}
 800249e:	b08a      	sub	sp, #40	; 0x28
 80024a0:	af00      	add	r7, sp, #0
#if defined(RCC_CFGR2_PREDIV1SRC)
  const uint8_t aPLLMULFactorTable[14] = {0, 0, 4, 5, 6, 7, 8, 9, 0, 0, 0, 0, 0, 13};
  const uint8_t aPredivFactorTable[16] = {1, 2, 3, 4, 5, 6, 7, 8, 9, 10, 11, 12, 13, 14, 15, 16};
#else
  const uint8_t aPLLMULFactorTable[16] = {2, 3, 4, 5, 6, 7, 8, 9, 10, 11, 12, 13, 14, 15, 16, 16};
 80024a2:	4b2a      	ldr	r3, [pc, #168]	; (800254c <HAL_RCC_GetSysClockFreq+0xb0>)
 80024a4:	1d3c      	adds	r4, r7, #4
 80024a6:	cb0f      	ldmia	r3, {r0, r1, r2, r3}
 80024a8:	e884 000f 	stmia.w	r4, {r0, r1, r2, r3}
#if defined(RCC_CFGR2_PREDIV1)
  const uint8_t aPredivFactorTable[16] = {1, 2, 3, 4, 5, 6, 7, 8, 9, 10, 11, 12, 13, 14, 15, 16};
#else
  const uint8_t aPredivFactorTable[2] = {1, 2};
 80024ac:	4b28      	ldr	r3, [pc, #160]	; (8002550 <HAL_RCC_GetSysClockFreq+0xb4>)
 80024ae:	881b      	ldrh	r3, [r3, #0]
 80024b0:	803b      	strh	r3, [r7, #0]
#endif /*RCC_CFGR2_PREDIV1*/

#endif
  uint32_t tmpreg = 0U, prediv = 0U, pllclk = 0U, pllmul = 0U;
 80024b2:	2300      	movs	r3, #0
 80024b4:	61fb      	str	r3, [r7, #28]
 80024b6:	2300      	movs	r3, #0
 80024b8:	61bb      	str	r3, [r7, #24]
 80024ba:	2300      	movs	r3, #0
 80024bc:	627b      	str	r3, [r7, #36]	; 0x24
 80024be:	2300      	movs	r3, #0
 80024c0:	617b      	str	r3, [r7, #20]
  uint32_t sysclockfreq = 0U;
 80024c2:	2300      	movs	r3, #0
 80024c4:	623b      	str	r3, [r7, #32]
#if defined(RCC_CFGR2_PREDIV1SRC)
  uint32_t prediv2 = 0U, pll2mul = 0U;
#endif /*RCC_CFGR2_PREDIV1SRC*/

  tmpreg = RCC->CFGR;
 80024c6:	4b23      	ldr	r3, [pc, #140]	; (8002554 <HAL_RCC_GetSysClockFreq+0xb8>)
 80024c8:	685b      	ldr	r3, [r3, #4]
 80024ca:	61fb      	str	r3, [r7, #28]

  /* Get SYSCLK source -------------------------------------------------------*/
  switch (tmpreg & RCC_CFGR_SWS)
 80024cc:	69fb      	ldr	r3, [r7, #28]
 80024ce:	f003 030c 	and.w	r3, r3, #12
 80024d2:	2b04      	cmp	r3, #4
 80024d4:	d002      	beq.n	80024dc <HAL_RCC_GetSysClockFreq+0x40>
 80024d6:	2b08      	cmp	r3, #8
 80024d8:	d003      	beq.n	80024e2 <HAL_RCC_GetSysClockFreq+0x46>
 80024da:	e02d      	b.n	8002538 <HAL_RCC_GetSysClockFreq+0x9c>
  {
    case RCC_SYSCLKSOURCE_STATUS_HSE:  /* HSE used as system clock */
    {
      sysclockfreq = HSE_VALUE;
 80024dc:	4b1e      	ldr	r3, [pc, #120]	; (8002558 <HAL_RCC_GetSysClockFreq+0xbc>)
 80024de:	623b      	str	r3, [r7, #32]
      break;
 80024e0:	e02d      	b.n	800253e <HAL_RCC_GetSysClockFreq+0xa2>
    }
    case RCC_SYSCLKSOURCE_STATUS_PLLCLK:  /* PLL used as system clock */
    {
      pllmul = aPLLMULFactorTable[(uint32_t)(tmpreg & RCC_CFGR_PLLMULL) >> RCC_CFGR_PLLMULL_Pos];
 80024e2:	69fb      	ldr	r3, [r7, #28]
 80024e4:	0c9b      	lsrs	r3, r3, #18
 80024e6:	f003 030f 	and.w	r3, r3, #15
 80024ea:	f107 0228 	add.w	r2, r7, #40	; 0x28
 80024ee:	4413      	add	r3, r2
 80024f0:	f813 3c24 	ldrb.w	r3, [r3, #-36]
 80024f4:	617b      	str	r3, [r7, #20]
      if ((tmpreg & RCC_CFGR_PLLSRC) != RCC_PLLSOURCE_HSI_DIV2)
 80024f6:	69fb      	ldr	r3, [r7, #28]
 80024f8:	f403 3380 	and.w	r3, r3, #65536	; 0x10000
 80024fc:	2b00      	cmp	r3, #0
 80024fe:	d013      	beq.n	8002528 <HAL_RCC_GetSysClockFreq+0x8c>
      {
#if defined(RCC_CFGR2_PREDIV1)
        prediv = aPredivFactorTable[(uint32_t)(RCC->CFGR2 & RCC_CFGR2_PREDIV1) >> RCC_CFGR2_PREDIV1_Pos];
#else
        prediv = aPredivFactorTable[(uint32_t)(RCC->CFGR & RCC_CFGR_PLLXTPRE) >> RCC_CFGR_PLLXTPRE_Pos];
 8002500:	4b14      	ldr	r3, [pc, #80]	; (8002554 <HAL_RCC_GetSysClockFreq+0xb8>)
 8002502:	685b      	ldr	r3, [r3, #4]
 8002504:	0c5b      	lsrs	r3, r3, #17
 8002506:	f003 0301 	and.w	r3, r3, #1
 800250a:	f107 0228 	add.w	r2, r7, #40	; 0x28
 800250e:	4413      	add	r3, r2
 8002510:	f813 3c28 	ldrb.w	r3, [r3, #-40]
 8002514:	61bb      	str	r3, [r7, #24]
        {
          pllclk = pllclk / 2;
        }
#else
        /* HSE used as PLL clock source : PLLCLK = HSE/PREDIV1 * PLLMUL */
        pllclk = (uint32_t)((HSE_VALUE  * pllmul) / prediv);
 8002516:	697b      	ldr	r3, [r7, #20]
 8002518:	4a0f      	ldr	r2, [pc, #60]	; (8002558 <HAL_RCC_GetSysClockFreq+0xbc>)
 800251a:	fb02 f203 	mul.w	r2, r2, r3
 800251e:	69bb      	ldr	r3, [r7, #24]
 8002520:	fbb2 f3f3 	udiv	r3, r2, r3
 8002524:	627b      	str	r3, [r7, #36]	; 0x24
 8002526:	e004      	b.n	8002532 <HAL_RCC_GetSysClockFreq+0x96>
#endif /*RCC_CFGR2_PREDIV1SRC*/
      }
      else
      {
        /* HSI used as PLL clock source : PLLCLK = HSI/2 * PLLMUL */
        pllclk = (uint32_t)((HSI_VALUE >> 1) * pllmul);
 8002528:	697b      	ldr	r3, [r7, #20]
 800252a:	4a0c      	ldr	r2, [pc, #48]	; (800255c <HAL_RCC_GetSysClockFreq+0xc0>)
 800252c:	fb02 f303 	mul.w	r3, r2, r3
 8002530:	627b      	str	r3, [r7, #36]	; 0x24
      }
      sysclockfreq = pllclk;
 8002532:	6a7b      	ldr	r3, [r7, #36]	; 0x24
 8002534:	623b      	str	r3, [r7, #32]
      break;
 8002536:	e002      	b.n	800253e <HAL_RCC_GetSysClockFreq+0xa2>
    }
    case RCC_SYSCLKSOURCE_STATUS_HSI:  /* HSI used as system clock source */
    default: /* HSI used as system clock */
    {
      sysclockfreq = HSI_VALUE;
 8002538:	4b07      	ldr	r3, [pc, #28]	; (8002558 <HAL_RCC_GetSysClockFreq+0xbc>)
 800253a:	623b      	str	r3, [r7, #32]
      break;
 800253c:	bf00      	nop
    }
  }
  return sysclockfreq;
 800253e:	6a3b      	ldr	r3, [r7, #32]
}
 8002540:	4618      	mov	r0, r3
 8002542:	3728      	adds	r7, #40	; 0x28
 8002544:	46bd      	mov	sp, r7
 8002546:	bc90      	pop	{r4, r7}
 8002548:	4770      	bx	lr
 800254a:	bf00      	nop
 800254c:	08002f08 	.word	0x08002f08
 8002550:	08002f18 	.word	0x08002f18
 8002554:	40021000 	.word	0x40021000
 8002558:	007a1200 	.word	0x007a1200
 800255c:	003d0900 	.word	0x003d0900

08002560 <HAL_RCC_GetHCLKFreq>:
  * @note   The SystemCoreClock CMSIS variable is used to store System Clock Frequency
  *         and updated within this function
  * @retval HCLK frequency
  */
uint32_t HAL_RCC_GetHCLKFreq(void)
{
 8002560:	b480      	push	{r7}
 8002562:	af00      	add	r7, sp, #0
  return SystemCoreClock;
 8002564:	4b02      	ldr	r3, [pc, #8]	; (8002570 <HAL_RCC_GetHCLKFreq+0x10>)
 8002566:	681b      	ldr	r3, [r3, #0]
}
 8002568:	4618      	mov	r0, r3
 800256a:	46bd      	mov	sp, r7
 800256c:	bc80      	pop	{r7}
 800256e:	4770      	bx	lr
 8002570:	20000008 	.word	0x20000008

08002574 <HAL_RCC_GetPCLK1Freq>:
  * @note   Each time PCLK1 changes, this function must be called to update the
  *         right PCLK1 value. Otherwise, any configuration based on this function will be incorrect.
  * @retval PCLK1 frequency
  */
uint32_t HAL_RCC_GetPCLK1Freq(void)
{
 8002574:	b580      	push	{r7, lr}
 8002576:	af00      	add	r7, sp, #0
  /* Get HCLK source and Compute PCLK1 frequency ---------------------------*/
  return (HAL_RCC_GetHCLKFreq() >> APBPrescTable[(RCC->CFGR & RCC_CFGR_PPRE1) >> RCC_CFGR_PPRE1_Pos]);
 8002578:	f7ff fff2 	bl	8002560 <HAL_RCC_GetHCLKFreq>
 800257c:	4601      	mov	r1, r0
 800257e:	4b05      	ldr	r3, [pc, #20]	; (8002594 <HAL_RCC_GetPCLK1Freq+0x20>)
 8002580:	685b      	ldr	r3, [r3, #4]
 8002582:	0a1b      	lsrs	r3, r3, #8
 8002584:	f003 0307 	and.w	r3, r3, #7
 8002588:	4a03      	ldr	r2, [pc, #12]	; (8002598 <HAL_RCC_GetPCLK1Freq+0x24>)
 800258a:	5cd3      	ldrb	r3, [r2, r3]
 800258c:	fa21 f303 	lsr.w	r3, r1, r3
}
 8002590:	4618      	mov	r0, r3
 8002592:	bd80      	pop	{r7, pc}
 8002594:	40021000 	.word	0x40021000
 8002598:	08002f2c 	.word	0x08002f2c

0800259c <HAL_RCC_GetPCLK2Freq>:
  * @note   Each time PCLK2 changes, this function must be called to update the
  *         right PCLK2 value. Otherwise, any configuration based on this function will be incorrect.
  * @retval PCLK2 frequency
  */
uint32_t HAL_RCC_GetPCLK2Freq(void)
{
 800259c:	b580      	push	{r7, lr}
 800259e:	af00      	add	r7, sp, #0
  /* Get HCLK source and Compute PCLK2 frequency ---------------------------*/
  return (HAL_RCC_GetHCLKFreq() >> APBPrescTable[(RCC->CFGR & RCC_CFGR_PPRE2) >> RCC_CFGR_PPRE2_Pos]);
 80025a0:	f7ff ffde 	bl	8002560 <HAL_RCC_GetHCLKFreq>
 80025a4:	4601      	mov	r1, r0
 80025a6:	4b05      	ldr	r3, [pc, #20]	; (80025bc <HAL_RCC_GetPCLK2Freq+0x20>)
 80025a8:	685b      	ldr	r3, [r3, #4]
 80025aa:	0adb      	lsrs	r3, r3, #11
 80025ac:	f003 0307 	and.w	r3, r3, #7
 80025b0:	4a03      	ldr	r2, [pc, #12]	; (80025c0 <HAL_RCC_GetPCLK2Freq+0x24>)
 80025b2:	5cd3      	ldrb	r3, [r2, r3]
 80025b4:	fa21 f303 	lsr.w	r3, r1, r3
}
 80025b8:	4618      	mov	r0, r3
 80025ba:	bd80      	pop	{r7, pc}
 80025bc:	40021000 	.word	0x40021000
 80025c0:	08002f2c 	.word	0x08002f2c

080025c4 <RCC_Delay>:
  * @brief  This function provides delay (in milliseconds) based on CPU cycles method.
  * @param  mdelay: specifies the delay time length, in milliseconds.
  * @retval None
  */
static void RCC_Delay(uint32_t mdelay)
{
 80025c4:	b480      	push	{r7}
 80025c6:	b085      	sub	sp, #20
 80025c8:	af00      	add	r7, sp, #0
 80025ca:	6078      	str	r0, [r7, #4]
  __IO uint32_t Delay = mdelay * (SystemCoreClock / 8U / 1000U);
 80025cc:	4b0a      	ldr	r3, [pc, #40]	; (80025f8 <RCC_Delay+0x34>)
 80025ce:	681b      	ldr	r3, [r3, #0]
 80025d0:	4a0a      	ldr	r2, [pc, #40]	; (80025fc <RCC_Delay+0x38>)
 80025d2:	fba2 2303 	umull	r2, r3, r2, r3
 80025d6:	0a5b      	lsrs	r3, r3, #9
 80025d8:	687a      	ldr	r2, [r7, #4]
 80025da:	fb02 f303 	mul.w	r3, r2, r3
 80025de:	60fb      	str	r3, [r7, #12]
  do
  {
    __NOP();
 80025e0:	bf00      	nop
  }
  while (Delay --);
 80025e2:	68fb      	ldr	r3, [r7, #12]
 80025e4:	1e5a      	subs	r2, r3, #1
 80025e6:	60fa      	str	r2, [r7, #12]
 80025e8:	2b00      	cmp	r3, #0
 80025ea:	d1f9      	bne.n	80025e0 <RCC_Delay+0x1c>
}
 80025ec:	bf00      	nop
 80025ee:	3714      	adds	r7, #20
 80025f0:	46bd      	mov	sp, r7
 80025f2:	bc80      	pop	{r7}
 80025f4:	4770      	bx	lr
 80025f6:	bf00      	nop
 80025f8:	20000008 	.word	0x20000008
 80025fc:	10624dd3 	.word	0x10624dd3

08002600 <HAL_UART_Init>:
  * @param  huart  Pointer to a UART_HandleTypeDef structure that contains
  *                the configuration information for the specified UART module.
  * @retval HAL status
  */
HAL_StatusTypeDef HAL_UART_Init(UART_HandleTypeDef *huart)
{
 8002600:	b580      	push	{r7, lr}
 8002602:	b082      	sub	sp, #8
 8002604:	af00      	add	r7, sp, #0
 8002606:	6078      	str	r0, [r7, #4]
  /* Check the UART handle allocation */
  if (huart == NULL)
 8002608:	687b      	ldr	r3, [r7, #4]
 800260a:	2b00      	cmp	r3, #0
 800260c:	d101      	bne.n	8002612 <HAL_UART_Init+0x12>
  {
    return HAL_ERROR;
 800260e:	2301      	movs	r3, #1
 8002610:	e03f      	b.n	8002692 <HAL_UART_Init+0x92>
  assert_param(IS_UART_WORD_LENGTH(huart->Init.WordLength));
#if defined(USART_CR1_OVER8)
  assert_param(IS_UART_OVERSAMPLING(huart->Init.OverSampling));
#endif /* USART_CR1_OVER8 */

  if (huart->gState == HAL_UART_STATE_RESET)
 8002612:	687b      	ldr	r3, [r7, #4]
 8002614:	f893 303d 	ldrb.w	r3, [r3, #61]	; 0x3d
 8002618:	b2db      	uxtb	r3, r3
 800261a:	2b00      	cmp	r3, #0
 800261c:	d106      	bne.n	800262c <HAL_UART_Init+0x2c>
  {
    /* Allocate lock resource and initialize it */
    huart->Lock = HAL_UNLOCKED;
 800261e:	687b      	ldr	r3, [r7, #4]
 8002620:	2200      	movs	r2, #0
 8002622:	f883 203c 	strb.w	r2, [r3, #60]	; 0x3c

    /* Init the low level hardware */
    huart->MspInitCallback(huart);
#else
    /* Init the low level hardware : GPIO, CLOCK */
    HAL_UART_MspInit(huart);
 8002626:	6878      	ldr	r0, [r7, #4]
 8002628:	f7fe fd12 	bl	8001050 <HAL_UART_MspInit>
#endif /* (USE_HAL_UART_REGISTER_CALLBACKS) */
  }

  huart->gState = HAL_UART_STATE_BUSY;
 800262c:	687b      	ldr	r3, [r7, #4]
 800262e:	2224      	movs	r2, #36	; 0x24
 8002630:	f883 203d 	strb.w	r2, [r3, #61]	; 0x3d

  /* Disable the peripheral */
  __HAL_UART_DISABLE(huart);
 8002634:	687b      	ldr	r3, [r7, #4]
 8002636:	681b      	ldr	r3, [r3, #0]
 8002638:	68da      	ldr	r2, [r3, #12]
 800263a:	687b      	ldr	r3, [r7, #4]
 800263c:	681b      	ldr	r3, [r3, #0]
 800263e:	f422 5200 	bic.w	r2, r2, #8192	; 0x2000
 8002642:	60da      	str	r2, [r3, #12]

  /* Set the UART Communication parameters */
  UART_SetConfig(huart);
 8002644:	6878      	ldr	r0, [r7, #4]
 8002646:	f000 f9a7 	bl	8002998 <UART_SetConfig>

  /* In asynchronous mode, the following bits must be kept cleared:
     - LINEN and CLKEN bits in the USART_CR2 register,
     - SCEN, HDSEL and IREN  bits in the USART_CR3 register.*/
  CLEAR_BIT(huart->Instance->CR2, (USART_CR2_LINEN | USART_CR2_CLKEN));
 800264a:	687b      	ldr	r3, [r7, #4]
 800264c:	681b      	ldr	r3, [r3, #0]
 800264e:	691a      	ldr	r2, [r3, #16]
 8002650:	687b      	ldr	r3, [r7, #4]
 8002652:	681b      	ldr	r3, [r3, #0]
 8002654:	f422 4290 	bic.w	r2, r2, #18432	; 0x4800
 8002658:	611a      	str	r2, [r3, #16]
  CLEAR_BIT(huart->Instance->CR3, (USART_CR3_SCEN | USART_CR3_HDSEL | USART_CR3_IREN));
 800265a:	687b      	ldr	r3, [r7, #4]
 800265c:	681b      	ldr	r3, [r3, #0]
 800265e:	695a      	ldr	r2, [r3, #20]
 8002660:	687b      	ldr	r3, [r7, #4]
 8002662:	681b      	ldr	r3, [r3, #0]
 8002664:	f022 022a 	bic.w	r2, r2, #42	; 0x2a
 8002668:	615a      	str	r2, [r3, #20]

  /* Enable the peripheral */
  __HAL_UART_ENABLE(huart);
 800266a:	687b      	ldr	r3, [r7, #4]
 800266c:	681b      	ldr	r3, [r3, #0]
 800266e:	68da      	ldr	r2, [r3, #12]
 8002670:	687b      	ldr	r3, [r7, #4]
 8002672:	681b      	ldr	r3, [r3, #0]
 8002674:	f442 5200 	orr.w	r2, r2, #8192	; 0x2000
 8002678:	60da      	str	r2, [r3, #12]

  /* Initialize the UART state */
  huart->ErrorCode = HAL_UART_ERROR_NONE;
 800267a:	687b      	ldr	r3, [r7, #4]
 800267c:	2200      	movs	r2, #0
 800267e:	641a      	str	r2, [r3, #64]	; 0x40
  huart->gState = HAL_UART_STATE_READY;
 8002680:	687b      	ldr	r3, [r7, #4]
 8002682:	2220      	movs	r2, #32
 8002684:	f883 203d 	strb.w	r2, [r3, #61]	; 0x3d
  huart->RxState = HAL_UART_STATE_READY;
 8002688:	687b      	ldr	r3, [r7, #4]
 800268a:	2220      	movs	r2, #32
 800268c:	f883 203e 	strb.w	r2, [r3, #62]	; 0x3e

  return HAL_OK;
 8002690:	2300      	movs	r3, #0
}
 8002692:	4618      	mov	r0, r3
 8002694:	3708      	adds	r7, #8
 8002696:	46bd      	mov	sp, r7
 8002698:	bd80      	pop	{r7, pc}

0800269a <HAL_UART_Transmit>:
  * @param  Size  Amount of data elements (u8 or u16) to be sent
  * @param  Timeout Timeout duration
  * @retval HAL status
  */
HAL_StatusTypeDef HAL_UART_Transmit(UART_HandleTypeDef *huart, uint8_t *pData, uint16_t Size, uint32_t Timeout)
{
 800269a:	b580      	push	{r7, lr}
 800269c:	b08a      	sub	sp, #40	; 0x28
 800269e:	af02      	add	r7, sp, #8
 80026a0:	60f8      	str	r0, [r7, #12]
 80026a2:	60b9      	str	r1, [r7, #8]
 80026a4:	603b      	str	r3, [r7, #0]
 80026a6:	4613      	mov	r3, r2
 80026a8:	80fb      	strh	r3, [r7, #6]
  uint8_t  *pdata8bits;
  uint16_t *pdata16bits;
  uint32_t tickstart = 0U;
 80026aa:	2300      	movs	r3, #0
 80026ac:	617b      	str	r3, [r7, #20]

  /* Check that a Tx process is not already ongoing */
  if (huart->gState == HAL_UART_STATE_READY)
 80026ae:	68fb      	ldr	r3, [r7, #12]
 80026b0:	f893 303d 	ldrb.w	r3, [r3, #61]	; 0x3d
 80026b4:	b2db      	uxtb	r3, r3
 80026b6:	2b20      	cmp	r3, #32
 80026b8:	d17c      	bne.n	80027b4 <HAL_UART_Transmit+0x11a>
  {
    if ((pData == NULL) || (Size == 0U))
 80026ba:	68bb      	ldr	r3, [r7, #8]
 80026bc:	2b00      	cmp	r3, #0
 80026be:	d002      	beq.n	80026c6 <HAL_UART_Transmit+0x2c>
 80026c0:	88fb      	ldrh	r3, [r7, #6]
 80026c2:	2b00      	cmp	r3, #0
 80026c4:	d101      	bne.n	80026ca <HAL_UART_Transmit+0x30>
    {
      return  HAL_ERROR;
 80026c6:	2301      	movs	r3, #1
 80026c8:	e075      	b.n	80027b6 <HAL_UART_Transmit+0x11c>
    }

    /* Process Locked */
    __HAL_LOCK(huart);
 80026ca:	68fb      	ldr	r3, [r7, #12]
 80026cc:	f893 303c 	ldrb.w	r3, [r3, #60]	; 0x3c
 80026d0:	2b01      	cmp	r3, #1
 80026d2:	d101      	bne.n	80026d8 <HAL_UART_Transmit+0x3e>
 80026d4:	2302      	movs	r3, #2
 80026d6:	e06e      	b.n	80027b6 <HAL_UART_Transmit+0x11c>
 80026d8:	68fb      	ldr	r3, [r7, #12]
 80026da:	2201      	movs	r2, #1
 80026dc:	f883 203c 	strb.w	r2, [r3, #60]	; 0x3c

    huart->ErrorCode = HAL_UART_ERROR_NONE;
 80026e0:	68fb      	ldr	r3, [r7, #12]
 80026e2:	2200      	movs	r2, #0
 80026e4:	641a      	str	r2, [r3, #64]	; 0x40
    huart->gState = HAL_UART_STATE_BUSY_TX;
 80026e6:	68fb      	ldr	r3, [r7, #12]
 80026e8:	2221      	movs	r2, #33	; 0x21
 80026ea:	f883 203d 	strb.w	r2, [r3, #61]	; 0x3d

    /* Init tickstart for timeout management */
    tickstart = HAL_GetTick();
 80026ee:	f7fe fda7 	bl	8001240 <HAL_GetTick>
 80026f2:	6178      	str	r0, [r7, #20]

    huart->TxXferSize = Size;
 80026f4:	68fb      	ldr	r3, [r7, #12]
 80026f6:	88fa      	ldrh	r2, [r7, #6]
 80026f8:	849a      	strh	r2, [r3, #36]	; 0x24
    huart->TxXferCount = Size;
 80026fa:	68fb      	ldr	r3, [r7, #12]
 80026fc:	88fa      	ldrh	r2, [r7, #6]
 80026fe:	84da      	strh	r2, [r3, #38]	; 0x26

    /* In case of 9bits/No Parity transfer, pData needs to be handled as a uint16_t pointer */
    if ((huart->Init.WordLength == UART_WORDLENGTH_9B) && (huart->Init.Parity == UART_PARITY_NONE))
 8002700:	68fb      	ldr	r3, [r7, #12]
 8002702:	689b      	ldr	r3, [r3, #8]
 8002704:	f5b3 5f80 	cmp.w	r3, #4096	; 0x1000
 8002708:	d108      	bne.n	800271c <HAL_UART_Transmit+0x82>
 800270a:	68fb      	ldr	r3, [r7, #12]
 800270c:	691b      	ldr	r3, [r3, #16]
 800270e:	2b00      	cmp	r3, #0
 8002710:	d104      	bne.n	800271c <HAL_UART_Transmit+0x82>
    {
      pdata8bits  = NULL;
 8002712:	2300      	movs	r3, #0
 8002714:	61fb      	str	r3, [r7, #28]
      pdata16bits = (uint16_t *) pData;
 8002716:	68bb      	ldr	r3, [r7, #8]
 8002718:	61bb      	str	r3, [r7, #24]
 800271a:	e003      	b.n	8002724 <HAL_UART_Transmit+0x8a>
    }
    else
    {
      pdata8bits  = pData;
 800271c:	68bb      	ldr	r3, [r7, #8]
 800271e:	61fb      	str	r3, [r7, #28]
      pdata16bits = NULL;
 8002720:	2300      	movs	r3, #0
 8002722:	61bb      	str	r3, [r7, #24]
    }

    /* Process Unlocked */
    __HAL_UNLOCK(huart);
 8002724:	68fb      	ldr	r3, [r7, #12]
 8002726:	2200      	movs	r2, #0
 8002728:	f883 203c 	strb.w	r2, [r3, #60]	; 0x3c

    while (huart->TxXferCount > 0U)
 800272c:	e02a      	b.n	8002784 <HAL_UART_Transmit+0xea>
    {
      if (UART_WaitOnFlagUntilTimeout(huart, UART_FLAG_TXE, RESET, tickstart, Timeout) != HAL_OK)
 800272e:	683b      	ldr	r3, [r7, #0]
 8002730:	9300      	str	r3, [sp, #0]
 8002732:	697b      	ldr	r3, [r7, #20]
 8002734:	2200      	movs	r2, #0
 8002736:	2180      	movs	r1, #128	; 0x80
 8002738:	68f8      	ldr	r0, [r7, #12]
 800273a:	f000 f8e2 	bl	8002902 <UART_WaitOnFlagUntilTimeout>
 800273e:	4603      	mov	r3, r0
 8002740:	2b00      	cmp	r3, #0
 8002742:	d001      	beq.n	8002748 <HAL_UART_Transmit+0xae>
      {
        return HAL_TIMEOUT;
 8002744:	2303      	movs	r3, #3
 8002746:	e036      	b.n	80027b6 <HAL_UART_Transmit+0x11c>
      }
      if (pdata8bits == NULL)
 8002748:	69fb      	ldr	r3, [r7, #28]
 800274a:	2b00      	cmp	r3, #0
 800274c:	d10b      	bne.n	8002766 <HAL_UART_Transmit+0xcc>
      {
        huart->Instance->DR = (uint16_t)(*pdata16bits & 0x01FFU);
 800274e:	69bb      	ldr	r3, [r7, #24]
 8002750:	881b      	ldrh	r3, [r3, #0]
 8002752:	461a      	mov	r2, r3
 8002754:	68fb      	ldr	r3, [r7, #12]
 8002756:	681b      	ldr	r3, [r3, #0]
 8002758:	f3c2 0208 	ubfx	r2, r2, #0, #9
 800275c:	605a      	str	r2, [r3, #4]
        pdata16bits++;
 800275e:	69bb      	ldr	r3, [r7, #24]
 8002760:	3302      	adds	r3, #2
 8002762:	61bb      	str	r3, [r7, #24]
 8002764:	e007      	b.n	8002776 <HAL_UART_Transmit+0xdc>
      }
      else
      {
        huart->Instance->DR = (uint8_t)(*pdata8bits & 0xFFU);
 8002766:	69fb      	ldr	r3, [r7, #28]
 8002768:	781a      	ldrb	r2, [r3, #0]
 800276a:	68fb      	ldr	r3, [r7, #12]
 800276c:	681b      	ldr	r3, [r3, #0]
 800276e:	605a      	str	r2, [r3, #4]
        pdata8bits++;
 8002770:	69fb      	ldr	r3, [r7, #28]
 8002772:	3301      	adds	r3, #1
 8002774:	61fb      	str	r3, [r7, #28]
      }
      huart->TxXferCount--;
 8002776:	68fb      	ldr	r3, [r7, #12]
 8002778:	8cdb      	ldrh	r3, [r3, #38]	; 0x26
 800277a:	b29b      	uxth	r3, r3
 800277c:	3b01      	subs	r3, #1
 800277e:	b29a      	uxth	r2, r3
 8002780:	68fb      	ldr	r3, [r7, #12]
 8002782:	84da      	strh	r2, [r3, #38]	; 0x26
    while (huart->TxXferCount > 0U)
 8002784:	68fb      	ldr	r3, [r7, #12]
 8002786:	8cdb      	ldrh	r3, [r3, #38]	; 0x26
 8002788:	b29b      	uxth	r3, r3
 800278a:	2b00      	cmp	r3, #0
 800278c:	d1cf      	bne.n	800272e <HAL_UART_Transmit+0x94>
    }

    if (UART_WaitOnFlagUntilTimeout(huart, UART_FLAG_TC, RESET, tickstart, Timeout) != HAL_OK)
 800278e:	683b      	ldr	r3, [r7, #0]
 8002790:	9300      	str	r3, [sp, #0]
 8002792:	697b      	ldr	r3, [r7, #20]
 8002794:	2200      	movs	r2, #0
 8002796:	2140      	movs	r1, #64	; 0x40
 8002798:	68f8      	ldr	r0, [r7, #12]
 800279a:	f000 f8b2 	bl	8002902 <UART_WaitOnFlagUntilTimeout>
 800279e:	4603      	mov	r3, r0
 80027a0:	2b00      	cmp	r3, #0
 80027a2:	d001      	beq.n	80027a8 <HAL_UART_Transmit+0x10e>
    {
      return HAL_TIMEOUT;
 80027a4:	2303      	movs	r3, #3
 80027a6:	e006      	b.n	80027b6 <HAL_UART_Transmit+0x11c>
    }

    /* At end of Tx process, restore huart->gState to Ready */
    huart->gState = HAL_UART_STATE_READY;
 80027a8:	68fb      	ldr	r3, [r7, #12]
 80027aa:	2220      	movs	r2, #32
 80027ac:	f883 203d 	strb.w	r2, [r3, #61]	; 0x3d

    return HAL_OK;
 80027b0:	2300      	movs	r3, #0
 80027b2:	e000      	b.n	80027b6 <HAL_UART_Transmit+0x11c>
  }
  else
  {
    return HAL_BUSY;
 80027b4:	2302      	movs	r3, #2
  }
}
 80027b6:	4618      	mov	r0, r3
 80027b8:	3720      	adds	r7, #32
 80027ba:	46bd      	mov	sp, r7
 80027bc:	bd80      	pop	{r7, pc}

080027be <HAL_UART_Receive>:
  * @param  Size  Amount of data elements (u8 or u16) to be received.
  * @param  Timeout Timeout duration
  * @retval HAL status
  */
HAL_StatusTypeDef HAL_UART_Receive(UART_HandleTypeDef *huart, uint8_t *pData, uint16_t Size, uint32_t Timeout)
{
 80027be:	b580      	push	{r7, lr}
 80027c0:	b08a      	sub	sp, #40	; 0x28
 80027c2:	af02      	add	r7, sp, #8
 80027c4:	60f8      	str	r0, [r7, #12]
 80027c6:	60b9      	str	r1, [r7, #8]
 80027c8:	603b      	str	r3, [r7, #0]
 80027ca:	4613      	mov	r3, r2
 80027cc:	80fb      	strh	r3, [r7, #6]
  uint8_t  *pdata8bits;
  uint16_t *pdata16bits;
  uint32_t tickstart = 0U;
 80027ce:	2300      	movs	r3, #0
 80027d0:	617b      	str	r3, [r7, #20]

  /* Check that a Rx process is not already ongoing */
  if (huart->RxState == HAL_UART_STATE_READY)
 80027d2:	68fb      	ldr	r3, [r7, #12]
 80027d4:	f893 303e 	ldrb.w	r3, [r3, #62]	; 0x3e
 80027d8:	b2db      	uxtb	r3, r3
 80027da:	2b20      	cmp	r3, #32
 80027dc:	f040 808c 	bne.w	80028f8 <HAL_UART_Receive+0x13a>
  {
    if ((pData == NULL) || (Size == 0U))
 80027e0:	68bb      	ldr	r3, [r7, #8]
 80027e2:	2b00      	cmp	r3, #0
 80027e4:	d002      	beq.n	80027ec <HAL_UART_Receive+0x2e>
 80027e6:	88fb      	ldrh	r3, [r7, #6]
 80027e8:	2b00      	cmp	r3, #0
 80027ea:	d101      	bne.n	80027f0 <HAL_UART_Receive+0x32>
    {
      return  HAL_ERROR;
 80027ec:	2301      	movs	r3, #1
 80027ee:	e084      	b.n	80028fa <HAL_UART_Receive+0x13c>
    }

    /* Process Locked */
    __HAL_LOCK(huart);
 80027f0:	68fb      	ldr	r3, [r7, #12]
 80027f2:	f893 303c 	ldrb.w	r3, [r3, #60]	; 0x3c
 80027f6:	2b01      	cmp	r3, #1
 80027f8:	d101      	bne.n	80027fe <HAL_UART_Receive+0x40>
 80027fa:	2302      	movs	r3, #2
 80027fc:	e07d      	b.n	80028fa <HAL_UART_Receive+0x13c>
 80027fe:	68fb      	ldr	r3, [r7, #12]
 8002800:	2201      	movs	r2, #1
 8002802:	f883 203c 	strb.w	r2, [r3, #60]	; 0x3c

    huart->ErrorCode = HAL_UART_ERROR_NONE;
 8002806:	68fb      	ldr	r3, [r7, #12]
 8002808:	2200      	movs	r2, #0
 800280a:	641a      	str	r2, [r3, #64]	; 0x40
    huart->RxState = HAL_UART_STATE_BUSY_RX;
 800280c:	68fb      	ldr	r3, [r7, #12]
 800280e:	2222      	movs	r2, #34	; 0x22
 8002810:	f883 203e 	strb.w	r2, [r3, #62]	; 0x3e
    huart->ReceptionType = HAL_UART_RECEPTION_STANDARD;
 8002814:	68fb      	ldr	r3, [r7, #12]
 8002816:	2200      	movs	r2, #0
 8002818:	631a      	str	r2, [r3, #48]	; 0x30

    /* Init tickstart for timeout management */
    tickstart = HAL_GetTick();
 800281a:	f7fe fd11 	bl	8001240 <HAL_GetTick>
 800281e:	6178      	str	r0, [r7, #20]

    huart->RxXferSize = Size;
 8002820:	68fb      	ldr	r3, [r7, #12]
 8002822:	88fa      	ldrh	r2, [r7, #6]
 8002824:	859a      	strh	r2, [r3, #44]	; 0x2c
    huart->RxXferCount = Size;
 8002826:	68fb      	ldr	r3, [r7, #12]
 8002828:	88fa      	ldrh	r2, [r7, #6]
 800282a:	85da      	strh	r2, [r3, #46]	; 0x2e

    /* In case of 9bits/No Parity transfer, pRxData needs to be handled as a uint16_t pointer */
    if ((huart->Init.WordLength == UART_WORDLENGTH_9B) && (huart->Init.Parity == UART_PARITY_NONE))
 800282c:	68fb      	ldr	r3, [r7, #12]
 800282e:	689b      	ldr	r3, [r3, #8]
 8002830:	f5b3 5f80 	cmp.w	r3, #4096	; 0x1000
 8002834:	d108      	bne.n	8002848 <HAL_UART_Receive+0x8a>
 8002836:	68fb      	ldr	r3, [r7, #12]
 8002838:	691b      	ldr	r3, [r3, #16]
 800283a:	2b00      	cmp	r3, #0
 800283c:	d104      	bne.n	8002848 <HAL_UART_Receive+0x8a>
    {
      pdata8bits  = NULL;
 800283e:	2300      	movs	r3, #0
 8002840:	61fb      	str	r3, [r7, #28]
      pdata16bits = (uint16_t *) pData;
 8002842:	68bb      	ldr	r3, [r7, #8]
 8002844:	61bb      	str	r3, [r7, #24]
 8002846:	e003      	b.n	8002850 <HAL_UART_Receive+0x92>
    }
    else
    {
      pdata8bits  = pData;
 8002848:	68bb      	ldr	r3, [r7, #8]
 800284a:	61fb      	str	r3, [r7, #28]
      pdata16bits = NULL;
 800284c:	2300      	movs	r3, #0
 800284e:	61bb      	str	r3, [r7, #24]
    }

    /* Process Unlocked */
    __HAL_UNLOCK(huart);
 8002850:	68fb      	ldr	r3, [r7, #12]
 8002852:	2200      	movs	r2, #0
 8002854:	f883 203c 	strb.w	r2, [r3, #60]	; 0x3c

    /* Check the remain data to be received */
    while (huart->RxXferCount > 0U)
 8002858:	e043      	b.n	80028e2 <HAL_UART_Receive+0x124>
    {
      if (UART_WaitOnFlagUntilTimeout(huart, UART_FLAG_RXNE, RESET, tickstart, Timeout) != HAL_OK)
 800285a:	683b      	ldr	r3, [r7, #0]
 800285c:	9300      	str	r3, [sp, #0]
 800285e:	697b      	ldr	r3, [r7, #20]
 8002860:	2200      	movs	r2, #0
 8002862:	2120      	movs	r1, #32
 8002864:	68f8      	ldr	r0, [r7, #12]
 8002866:	f000 f84c 	bl	8002902 <UART_WaitOnFlagUntilTimeout>
 800286a:	4603      	mov	r3, r0
 800286c:	2b00      	cmp	r3, #0
 800286e:	d001      	beq.n	8002874 <HAL_UART_Receive+0xb6>
      {
        return HAL_TIMEOUT;
 8002870:	2303      	movs	r3, #3
 8002872:	e042      	b.n	80028fa <HAL_UART_Receive+0x13c>
      }
      if (pdata8bits == NULL)
 8002874:	69fb      	ldr	r3, [r7, #28]
 8002876:	2b00      	cmp	r3, #0
 8002878:	d10c      	bne.n	8002894 <HAL_UART_Receive+0xd6>
      {
        *pdata16bits = (uint16_t)(huart->Instance->DR & 0x01FF);
 800287a:	68fb      	ldr	r3, [r7, #12]
 800287c:	681b      	ldr	r3, [r3, #0]
 800287e:	685b      	ldr	r3, [r3, #4]
 8002880:	b29b      	uxth	r3, r3
 8002882:	f3c3 0308 	ubfx	r3, r3, #0, #9
 8002886:	b29a      	uxth	r2, r3
 8002888:	69bb      	ldr	r3, [r7, #24]
 800288a:	801a      	strh	r2, [r3, #0]
        pdata16bits++;
 800288c:	69bb      	ldr	r3, [r7, #24]
 800288e:	3302      	adds	r3, #2
 8002890:	61bb      	str	r3, [r7, #24]
 8002892:	e01f      	b.n	80028d4 <HAL_UART_Receive+0x116>
      }
      else
      {
        if ((huart->Init.WordLength == UART_WORDLENGTH_9B) || ((huart->Init.WordLength == UART_WORDLENGTH_8B) && (huart->Init.Parity == UART_PARITY_NONE)))
 8002894:	68fb      	ldr	r3, [r7, #12]
 8002896:	689b      	ldr	r3, [r3, #8]
 8002898:	f5b3 5f80 	cmp.w	r3, #4096	; 0x1000
 800289c:	d007      	beq.n	80028ae <HAL_UART_Receive+0xf0>
 800289e:	68fb      	ldr	r3, [r7, #12]
 80028a0:	689b      	ldr	r3, [r3, #8]
 80028a2:	2b00      	cmp	r3, #0
 80028a4:	d10a      	bne.n	80028bc <HAL_UART_Receive+0xfe>
 80028a6:	68fb      	ldr	r3, [r7, #12]
 80028a8:	691b      	ldr	r3, [r3, #16]
 80028aa:	2b00      	cmp	r3, #0
 80028ac:	d106      	bne.n	80028bc <HAL_UART_Receive+0xfe>
        {
          *pdata8bits = (uint8_t)(huart->Instance->DR & (uint8_t)0x00FF);
 80028ae:	68fb      	ldr	r3, [r7, #12]
 80028b0:	681b      	ldr	r3, [r3, #0]
 80028b2:	685b      	ldr	r3, [r3, #4]
 80028b4:	b2da      	uxtb	r2, r3
 80028b6:	69fb      	ldr	r3, [r7, #28]
 80028b8:	701a      	strb	r2, [r3, #0]
 80028ba:	e008      	b.n	80028ce <HAL_UART_Receive+0x110>
        }
        else
        {
          *pdata8bits = (uint8_t)(huart->Instance->DR & (uint8_t)0x007F);
 80028bc:	68fb      	ldr	r3, [r7, #12]
 80028be:	681b      	ldr	r3, [r3, #0]
 80028c0:	685b      	ldr	r3, [r3, #4]
 80028c2:	b2db      	uxtb	r3, r3
 80028c4:	f003 037f 	and.w	r3, r3, #127	; 0x7f
 80028c8:	b2da      	uxtb	r2, r3
 80028ca:	69fb      	ldr	r3, [r7, #28]
 80028cc:	701a      	strb	r2, [r3, #0]
        }
        pdata8bits++;
 80028ce:	69fb      	ldr	r3, [r7, #28]
 80028d0:	3301      	adds	r3, #1
 80028d2:	61fb      	str	r3, [r7, #28]
      }
      huart->RxXferCount--;
 80028d4:	68fb      	ldr	r3, [r7, #12]
 80028d6:	8ddb      	ldrh	r3, [r3, #46]	; 0x2e
 80028d8:	b29b      	uxth	r3, r3
 80028da:	3b01      	subs	r3, #1
 80028dc:	b29a      	uxth	r2, r3
 80028de:	68fb      	ldr	r3, [r7, #12]
 80028e0:	85da      	strh	r2, [r3, #46]	; 0x2e
    while (huart->RxXferCount > 0U)
 80028e2:	68fb      	ldr	r3, [r7, #12]
 80028e4:	8ddb      	ldrh	r3, [r3, #46]	; 0x2e
 80028e6:	b29b      	uxth	r3, r3
 80028e8:	2b00      	cmp	r3, #0
 80028ea:	d1b6      	bne.n	800285a <HAL_UART_Receive+0x9c>
    }

    /* At end of Rx process, restore huart->RxState to Ready */
    huart->RxState = HAL_UART_STATE_READY;
 80028ec:	68fb      	ldr	r3, [r7, #12]
 80028ee:	2220      	movs	r2, #32
 80028f0:	f883 203e 	strb.w	r2, [r3, #62]	; 0x3e

    return HAL_OK;
 80028f4:	2300      	movs	r3, #0
 80028f6:	e000      	b.n	80028fa <HAL_UART_Receive+0x13c>
  }
  else
  {
    return HAL_BUSY;
 80028f8:	2302      	movs	r3, #2
  }
}
 80028fa:	4618      	mov	r0, r3
 80028fc:	3720      	adds	r7, #32
 80028fe:	46bd      	mov	sp, r7
 8002900:	bd80      	pop	{r7, pc}

08002902 <UART_WaitOnFlagUntilTimeout>:
  * @param  Tickstart Tick start value
  * @param  Timeout Timeout duration
  * @retval HAL status
  */
static HAL_StatusTypeDef UART_WaitOnFlagUntilTimeout(UART_HandleTypeDef *huart, uint32_t Flag, FlagStatus Status, uint32_t Tickstart, uint32_t Timeout)
{
 8002902:	b580      	push	{r7, lr}
 8002904:	b084      	sub	sp, #16
 8002906:	af00      	add	r7, sp, #0
 8002908:	60f8      	str	r0, [r7, #12]
 800290a:	60b9      	str	r1, [r7, #8]
 800290c:	603b      	str	r3, [r7, #0]
 800290e:	4613      	mov	r3, r2
 8002910:	71fb      	strb	r3, [r7, #7]
  /* Wait until flag is set */
  while ((__HAL_UART_GET_FLAG(huart, Flag) ? SET : RESET) == Status)
 8002912:	e02c      	b.n	800296e <UART_WaitOnFlagUntilTimeout+0x6c>
  {
    /* Check for the Timeout */
    if (Timeout != HAL_MAX_DELAY)
 8002914:	69bb      	ldr	r3, [r7, #24]
 8002916:	f1b3 3fff 	cmp.w	r3, #4294967295
 800291a:	d028      	beq.n	800296e <UART_WaitOnFlagUntilTimeout+0x6c>
    {
      if ((Timeout == 0U) || ((HAL_GetTick() - Tickstart) > Timeout))
 800291c:	69bb      	ldr	r3, [r7, #24]
 800291e:	2b00      	cmp	r3, #0
 8002920:	d007      	beq.n	8002932 <UART_WaitOnFlagUntilTimeout+0x30>
 8002922:	f7fe fc8d 	bl	8001240 <HAL_GetTick>
 8002926:	4602      	mov	r2, r0
 8002928:	683b      	ldr	r3, [r7, #0]
 800292a:	1ad3      	subs	r3, r2, r3
 800292c:	69ba      	ldr	r2, [r7, #24]
 800292e:	429a      	cmp	r2, r3
 8002930:	d21d      	bcs.n	800296e <UART_WaitOnFlagUntilTimeout+0x6c>
      {
        /* Disable TXE, RXNE, PE and ERR (Frame error, noise error, overrun error) interrupts for the interrupt process */
        CLEAR_BIT(huart->Instance->CR1, (USART_CR1_RXNEIE | USART_CR1_PEIE | USART_CR1_TXEIE));
 8002932:	68fb      	ldr	r3, [r7, #12]
 8002934:	681b      	ldr	r3, [r3, #0]
 8002936:	68da      	ldr	r2, [r3, #12]
 8002938:	68fb      	ldr	r3, [r7, #12]
 800293a:	681b      	ldr	r3, [r3, #0]
 800293c:	f422 72d0 	bic.w	r2, r2, #416	; 0x1a0
 8002940:	60da      	str	r2, [r3, #12]
        CLEAR_BIT(huart->Instance->CR3, USART_CR3_EIE);
 8002942:	68fb      	ldr	r3, [r7, #12]
 8002944:	681b      	ldr	r3, [r3, #0]
 8002946:	695a      	ldr	r2, [r3, #20]
 8002948:	68fb      	ldr	r3, [r7, #12]
 800294a:	681b      	ldr	r3, [r3, #0]
 800294c:	f022 0201 	bic.w	r2, r2, #1
 8002950:	615a      	str	r2, [r3, #20]

        huart->gState  = HAL_UART_STATE_READY;
 8002952:	68fb      	ldr	r3, [r7, #12]
 8002954:	2220      	movs	r2, #32
 8002956:	f883 203d 	strb.w	r2, [r3, #61]	; 0x3d
        huart->RxState = HAL_UART_STATE_READY;
 800295a:	68fb      	ldr	r3, [r7, #12]
 800295c:	2220      	movs	r2, #32
 800295e:	f883 203e 	strb.w	r2, [r3, #62]	; 0x3e

        /* Process Unlocked */
        __HAL_UNLOCK(huart);
 8002962:	68fb      	ldr	r3, [r7, #12]
 8002964:	2200      	movs	r2, #0
 8002966:	f883 203c 	strb.w	r2, [r3, #60]	; 0x3c

        return HAL_TIMEOUT;
 800296a:	2303      	movs	r3, #3
 800296c:	e00f      	b.n	800298e <UART_WaitOnFlagUntilTimeout+0x8c>
  while ((__HAL_UART_GET_FLAG(huart, Flag) ? SET : RESET) == Status)
 800296e:	68fb      	ldr	r3, [r7, #12]
 8002970:	681b      	ldr	r3, [r3, #0]
 8002972:	681a      	ldr	r2, [r3, #0]
 8002974:	68bb      	ldr	r3, [r7, #8]
 8002976:	4013      	ands	r3, r2
 8002978:	68ba      	ldr	r2, [r7, #8]
 800297a:	429a      	cmp	r2, r3
 800297c:	bf0c      	ite	eq
 800297e:	2301      	moveq	r3, #1
 8002980:	2300      	movne	r3, #0
 8002982:	b2db      	uxtb	r3, r3
 8002984:	461a      	mov	r2, r3
 8002986:	79fb      	ldrb	r3, [r7, #7]
 8002988:	429a      	cmp	r2, r3
 800298a:	d0c3      	beq.n	8002914 <UART_WaitOnFlagUntilTimeout+0x12>
      }
    }
  }
  return HAL_OK;
 800298c:	2300      	movs	r3, #0
}
 800298e:	4618      	mov	r0, r3
 8002990:	3710      	adds	r7, #16
 8002992:	46bd      	mov	sp, r7
 8002994:	bd80      	pop	{r7, pc}
	...

08002998 <UART_SetConfig>:
  * @param  huart  Pointer to a UART_HandleTypeDef structure that contains
  *                the configuration information for the specified UART module.
  * @retval None
  */
static void UART_SetConfig(UART_HandleTypeDef *huart)
{
 8002998:	b580      	push	{r7, lr}
 800299a:	b084      	sub	sp, #16
 800299c:	af00      	add	r7, sp, #0
 800299e:	6078      	str	r0, [r7, #4]
  assert_param(IS_UART_MODE(huart->Init.Mode));

  /*-------------------------- USART CR2 Configuration -----------------------*/
  /* Configure the UART Stop Bits: Set STOP[13:12] bits
     according to huart->Init.StopBits value */
  MODIFY_REG(huart->Instance->CR2, USART_CR2_STOP, huart->Init.StopBits);
 80029a0:	687b      	ldr	r3, [r7, #4]
 80029a2:	681b      	ldr	r3, [r3, #0]
 80029a4:	691b      	ldr	r3, [r3, #16]
 80029a6:	f423 5140 	bic.w	r1, r3, #12288	; 0x3000
 80029aa:	687b      	ldr	r3, [r7, #4]
 80029ac:	68da      	ldr	r2, [r3, #12]
 80029ae:	687b      	ldr	r3, [r7, #4]
 80029b0:	681b      	ldr	r3, [r3, #0]
 80029b2:	430a      	orrs	r2, r1
 80029b4:	611a      	str	r2, [r3, #16]
  tmpreg = (uint32_t)huart->Init.WordLength | huart->Init.Parity | huart->Init.Mode | huart->Init.OverSampling;
  MODIFY_REG(huart->Instance->CR1,
             (uint32_t)(USART_CR1_M | USART_CR1_PCE | USART_CR1_PS | USART_CR1_TE | USART_CR1_RE | USART_CR1_OVER8),
             tmpreg);
#else
  tmpreg = (uint32_t)huart->Init.WordLength | huart->Init.Parity | huart->Init.Mode;
 80029b6:	687b      	ldr	r3, [r7, #4]
 80029b8:	689a      	ldr	r2, [r3, #8]
 80029ba:	687b      	ldr	r3, [r7, #4]
 80029bc:	691b      	ldr	r3, [r3, #16]
 80029be:	431a      	orrs	r2, r3
 80029c0:	687b      	ldr	r3, [r7, #4]
 80029c2:	695b      	ldr	r3, [r3, #20]
 80029c4:	4313      	orrs	r3, r2
 80029c6:	60bb      	str	r3, [r7, #8]
  MODIFY_REG(huart->Instance->CR1,
 80029c8:	687b      	ldr	r3, [r7, #4]
 80029ca:	681b      	ldr	r3, [r3, #0]
 80029cc:	68db      	ldr	r3, [r3, #12]
 80029ce:	f423 53b0 	bic.w	r3, r3, #5632	; 0x1600
 80029d2:	f023 030c 	bic.w	r3, r3, #12
 80029d6:	687a      	ldr	r2, [r7, #4]
 80029d8:	6812      	ldr	r2, [r2, #0]
 80029da:	68b9      	ldr	r1, [r7, #8]
 80029dc:	430b      	orrs	r3, r1
 80029de:	60d3      	str	r3, [r2, #12]
             tmpreg);
#endif /* USART_CR1_OVER8 */

  /*-------------------------- USART CR3 Configuration -----------------------*/
  /* Configure the UART HFC: Set CTSE and RTSE bits according to huart->Init.HwFlowCtl value */
  MODIFY_REG(huart->Instance->CR3, (USART_CR3_RTSE | USART_CR3_CTSE), huart->Init.HwFlowCtl);
 80029e0:	687b      	ldr	r3, [r7, #4]
 80029e2:	681b      	ldr	r3, [r3, #0]
 80029e4:	695b      	ldr	r3, [r3, #20]
 80029e6:	f423 7140 	bic.w	r1, r3, #768	; 0x300
 80029ea:	687b      	ldr	r3, [r7, #4]
 80029ec:	699a      	ldr	r2, [r3, #24]
 80029ee:	687b      	ldr	r3, [r7, #4]
 80029f0:	681b      	ldr	r3, [r3, #0]
 80029f2:	430a      	orrs	r2, r1
 80029f4:	615a      	str	r2, [r3, #20]


  if(huart->Instance == USART1)
 80029f6:	687b      	ldr	r3, [r7, #4]
 80029f8:	681b      	ldr	r3, [r3, #0]
 80029fa:	4a2c      	ldr	r2, [pc, #176]	; (8002aac <UART_SetConfig+0x114>)
 80029fc:	4293      	cmp	r3, r2
 80029fe:	d103      	bne.n	8002a08 <UART_SetConfig+0x70>
  {
    pclk = HAL_RCC_GetPCLK2Freq();
 8002a00:	f7ff fdcc 	bl	800259c <HAL_RCC_GetPCLK2Freq>
 8002a04:	60f8      	str	r0, [r7, #12]
 8002a06:	e002      	b.n	8002a0e <UART_SetConfig+0x76>
  }
  else
  {
    pclk = HAL_RCC_GetPCLK1Freq();
 8002a08:	f7ff fdb4 	bl	8002574 <HAL_RCC_GetPCLK1Freq>
 8002a0c:	60f8      	str	r0, [r7, #12]
  else
  {
    huart->Instance->BRR = UART_BRR_SAMPLING16(pclk, huart->Init.BaudRate);
  }
#else
  huart->Instance->BRR = UART_BRR_SAMPLING16(pclk, huart->Init.BaudRate);
 8002a0e:	68fa      	ldr	r2, [r7, #12]
 8002a10:	4613      	mov	r3, r2
 8002a12:	009b      	lsls	r3, r3, #2
 8002a14:	4413      	add	r3, r2
 8002a16:	009a      	lsls	r2, r3, #2
 8002a18:	441a      	add	r2, r3
 8002a1a:	687b      	ldr	r3, [r7, #4]
 8002a1c:	685b      	ldr	r3, [r3, #4]
 8002a1e:	009b      	lsls	r3, r3, #2
 8002a20:	fbb2 f3f3 	udiv	r3, r2, r3
 8002a24:	4a22      	ldr	r2, [pc, #136]	; (8002ab0 <UART_SetConfig+0x118>)
 8002a26:	fba2 2303 	umull	r2, r3, r2, r3
 8002a2a:	095b      	lsrs	r3, r3, #5
 8002a2c:	0119      	lsls	r1, r3, #4
 8002a2e:	68fa      	ldr	r2, [r7, #12]
 8002a30:	4613      	mov	r3, r2
 8002a32:	009b      	lsls	r3, r3, #2
 8002a34:	4413      	add	r3, r2
 8002a36:	009a      	lsls	r2, r3, #2
 8002a38:	441a      	add	r2, r3
 8002a3a:	687b      	ldr	r3, [r7, #4]
 8002a3c:	685b      	ldr	r3, [r3, #4]
 8002a3e:	009b      	lsls	r3, r3, #2
 8002a40:	fbb2 f2f3 	udiv	r2, r2, r3
 8002a44:	4b1a      	ldr	r3, [pc, #104]	; (8002ab0 <UART_SetConfig+0x118>)
 8002a46:	fba3 0302 	umull	r0, r3, r3, r2
 8002a4a:	095b      	lsrs	r3, r3, #5
 8002a4c:	2064      	movs	r0, #100	; 0x64
 8002a4e:	fb00 f303 	mul.w	r3, r0, r3
 8002a52:	1ad3      	subs	r3, r2, r3
 8002a54:	011b      	lsls	r3, r3, #4
 8002a56:	3332      	adds	r3, #50	; 0x32
 8002a58:	4a15      	ldr	r2, [pc, #84]	; (8002ab0 <UART_SetConfig+0x118>)
 8002a5a:	fba2 2303 	umull	r2, r3, r2, r3
 8002a5e:	095b      	lsrs	r3, r3, #5
 8002a60:	f003 03f0 	and.w	r3, r3, #240	; 0xf0
 8002a64:	4419      	add	r1, r3
 8002a66:	68fa      	ldr	r2, [r7, #12]
 8002a68:	4613      	mov	r3, r2
 8002a6a:	009b      	lsls	r3, r3, #2
 8002a6c:	4413      	add	r3, r2
 8002a6e:	009a      	lsls	r2, r3, #2
 8002a70:	441a      	add	r2, r3
 8002a72:	687b      	ldr	r3, [r7, #4]
 8002a74:	685b      	ldr	r3, [r3, #4]
 8002a76:	009b      	lsls	r3, r3, #2
 8002a78:	fbb2 f2f3 	udiv	r2, r2, r3
 8002a7c:	4b0c      	ldr	r3, [pc, #48]	; (8002ab0 <UART_SetConfig+0x118>)
 8002a7e:	fba3 0302 	umull	r0, r3, r3, r2
 8002a82:	095b      	lsrs	r3, r3, #5
 8002a84:	2064      	movs	r0, #100	; 0x64
 8002a86:	fb00 f303 	mul.w	r3, r0, r3
 8002a8a:	1ad3      	subs	r3, r2, r3
 8002a8c:	011b      	lsls	r3, r3, #4
 8002a8e:	3332      	adds	r3, #50	; 0x32
 8002a90:	4a07      	ldr	r2, [pc, #28]	; (8002ab0 <UART_SetConfig+0x118>)
 8002a92:	fba2 2303 	umull	r2, r3, r2, r3
 8002a96:	095b      	lsrs	r3, r3, #5
 8002a98:	f003 020f 	and.w	r2, r3, #15
 8002a9c:	687b      	ldr	r3, [r7, #4]
 8002a9e:	681b      	ldr	r3, [r3, #0]
 8002aa0:	440a      	add	r2, r1
 8002aa2:	609a      	str	r2, [r3, #8]
#endif /* USART_CR1_OVER8 */
}
 8002aa4:	bf00      	nop
 8002aa6:	3710      	adds	r7, #16
 8002aa8:	46bd      	mov	sp, r7
 8002aaa:	bd80      	pop	{r7, pc}
 8002aac:	40013800 	.word	0x40013800
 8002ab0:	51eb851f 	.word	0x51eb851f

08002ab4 <__libc_init_array>:
 8002ab4:	b570      	push	{r4, r5, r6, lr}
 8002ab6:	2500      	movs	r5, #0
 8002ab8:	4e0c      	ldr	r6, [pc, #48]	; (8002aec <__libc_init_array+0x38>)
 8002aba:	4c0d      	ldr	r4, [pc, #52]	; (8002af0 <__libc_init_array+0x3c>)
 8002abc:	1ba4      	subs	r4, r4, r6
 8002abe:	10a4      	asrs	r4, r4, #2
 8002ac0:	42a5      	cmp	r5, r4
 8002ac2:	d109      	bne.n	8002ad8 <__libc_init_array+0x24>
 8002ac4:	f000 f822 	bl	8002b0c <_init>
 8002ac8:	2500      	movs	r5, #0
 8002aca:	4e0a      	ldr	r6, [pc, #40]	; (8002af4 <__libc_init_array+0x40>)
 8002acc:	4c0a      	ldr	r4, [pc, #40]	; (8002af8 <__libc_init_array+0x44>)
 8002ace:	1ba4      	subs	r4, r4, r6
 8002ad0:	10a4      	asrs	r4, r4, #2
 8002ad2:	42a5      	cmp	r5, r4
 8002ad4:	d105      	bne.n	8002ae2 <__libc_init_array+0x2e>
 8002ad6:	bd70      	pop	{r4, r5, r6, pc}
 8002ad8:	f856 3025 	ldr.w	r3, [r6, r5, lsl #2]
 8002adc:	4798      	blx	r3
 8002ade:	3501      	adds	r5, #1
 8002ae0:	e7ee      	b.n	8002ac0 <__libc_init_array+0xc>
 8002ae2:	f856 3025 	ldr.w	r3, [r6, r5, lsl #2]
 8002ae6:	4798      	blx	r3
 8002ae8:	3501      	adds	r5, #1
 8002aea:	e7f2      	b.n	8002ad2 <__libc_init_array+0x1e>
 8002aec:	08002f34 	.word	0x08002f34
 8002af0:	08002f34 	.word	0x08002f34
 8002af4:	08002f34 	.word	0x08002f34
 8002af8:	08002f38 	.word	0x08002f38

08002afc <memset>:
 8002afc:	4603      	mov	r3, r0
 8002afe:	4402      	add	r2, r0
 8002b00:	4293      	cmp	r3, r2
 8002b02:	d100      	bne.n	8002b06 <memset+0xa>
 8002b04:	4770      	bx	lr
 8002b06:	f803 1b01 	strb.w	r1, [r3], #1
 8002b0a:	e7f9      	b.n	8002b00 <memset+0x4>

08002b0c <_init>:
 8002b0c:	b5f8      	push	{r3, r4, r5, r6, r7, lr}
 8002b0e:	bf00      	nop
 8002b10:	bcf8      	pop	{r3, r4, r5, r6, r7}
 8002b12:	bc08      	pop	{r3}
 8002b14:	469e      	mov	lr, r3
 8002b16:	4770      	bx	lr

08002b18 <_fini>:
 8002b18:	b5f8      	push	{r3, r4, r5, r6, r7, lr}
 8002b1a:	bf00      	nop
 8002b1c:	bcf8      	pop	{r3, r4, r5, r6, r7}
 8002b1e:	bc08      	pop	{r3}
 8002b20:	469e      	mov	lr, r3
 8002b22:	4770      	bx	lr
