
Front_ECU.elf:     file format elf32-littlearm

Sections:
Idx Name          Size      VMA       LMA       File off  Algn
  0 .isr_vector   0000010c  08000000  08000000  00010000  2**0
                  CONTENTS, ALLOC, LOAD, READONLY, DATA
  1 .text         000063fc  08000110  08000110  00010110  2**4
                  CONTENTS, ALLOC, LOAD, READONLY, CODE
  2 .rodata       00000070  0800650c  0800650c  0001650c  2**2
                  CONTENTS, ALLOC, LOAD, READONLY, DATA
  3 .ARM.extab    00000000  0800657c  0800657c  00020014  2**0
                  CONTENTS
  4 .ARM          00000000  0800657c  0800657c  00020014  2**0
                  CONTENTS
  5 .preinit_array 00000000  0800657c  0800657c  00020014  2**0
                  CONTENTS, ALLOC, LOAD, DATA
  6 .init_array   00000004  0800657c  0800657c  0001657c  2**2
                  CONTENTS, ALLOC, LOAD, DATA
  7 .fini_array   00000004  08006580  08006580  00016580  2**2
                  CONTENTS, ALLOC, LOAD, DATA
  8 .data         00000014  20000000  08006584  00020000  2**2
                  CONTENTS, ALLOC, LOAD, DATA
  9 .bss          00001e44  20000014  08006598  00020014  2**2
                  ALLOC
 10 ._user_heap_stack 00000600  20001e58  08006598  00021e58  2**0
                  ALLOC
 11 .ARM.attributes 00000029  00000000  00000000  00020014  2**0
                  CONTENTS, READONLY
 12 .debug_info   00014998  00000000  00000000  0002003d  2**0
                  CONTENTS, READONLY, DEBUGGING
 13 .debug_abbrev 00002d40  00000000  00000000  000349d5  2**0
                  CONTENTS, READONLY, DEBUGGING
 14 .debug_aranges 000013e8  00000000  00000000  00037718  2**3
                  CONTENTS, READONLY, DEBUGGING
 15 .debug_ranges 000012a0  00000000  00000000  00038b00  2**3
                  CONTENTS, READONLY, DEBUGGING
 16 .debug_macro  000169d2  00000000  00000000  00039da0  2**0
                  CONTENTS, READONLY, DEBUGGING
 17 .debug_line   0000f1b9  00000000  00000000  00050772  2**0
                  CONTENTS, READONLY, DEBUGGING
 18 .debug_str    00080c22  00000000  00000000  0005f92b  2**0
                  CONTENTS, READONLY, DEBUGGING
 19 .comment      0000007b  00000000  00000000  000e054d  2**0
                  CONTENTS, READONLY
 20 .debug_frame  00005364  00000000  00000000  000e05c8  2**2
                  CONTENTS, READONLY, DEBUGGING

Disassembly of section .text:

08000110 <__do_global_dtors_aux>:
 8000110:	b510      	push	{r4, lr}
 8000112:	4c05      	ldr	r4, [pc, #20]	; (8000128 <__do_global_dtors_aux+0x18>)
 8000114:	7823      	ldrb	r3, [r4, #0]
 8000116:	b933      	cbnz	r3, 8000126 <__do_global_dtors_aux+0x16>
 8000118:	4b04      	ldr	r3, [pc, #16]	; (800012c <__do_global_dtors_aux+0x1c>)
 800011a:	b113      	cbz	r3, 8000122 <__do_global_dtors_aux+0x12>
 800011c:	4804      	ldr	r0, [pc, #16]	; (8000130 <__do_global_dtors_aux+0x20>)
 800011e:	f3af 8000 	nop.w
 8000122:	2301      	movs	r3, #1
 8000124:	7023      	strb	r3, [r4, #0]
 8000126:	bd10      	pop	{r4, pc}
 8000128:	20000014 	.word	0x20000014
 800012c:	00000000 	.word	0x00000000
 8000130:	080064f4 	.word	0x080064f4

08000134 <frame_dummy>:
 8000134:	b508      	push	{r3, lr}
 8000136:	4b03      	ldr	r3, [pc, #12]	; (8000144 <frame_dummy+0x10>)
 8000138:	b11b      	cbz	r3, 8000142 <frame_dummy+0xe>
 800013a:	4903      	ldr	r1, [pc, #12]	; (8000148 <frame_dummy+0x14>)
 800013c:	4803      	ldr	r0, [pc, #12]	; (800014c <frame_dummy+0x18>)
 800013e:	f3af 8000 	nop.w
 8000142:	bd08      	pop	{r3, pc}
 8000144:	00000000 	.word	0x00000000
 8000148:	20000018 	.word	0x20000018
 800014c:	080064f4 	.word	0x080064f4

08000150 <vApplicationGetIdleTaskMemory>:
/* USER CODE BEGIN GET_IDLE_TASK_MEMORY */
static StaticTask_t xIdleTaskTCBBuffer;
static StackType_t xIdleStack[configMINIMAL_STACK_SIZE];
  
void vApplicationGetIdleTaskMemory( StaticTask_t **ppxIdleTaskTCBBuffer, StackType_t **ppxIdleTaskStackBuffer, uint32_t *pulIdleTaskStackSize )
{
 8000150:	b480      	push	{r7}
 8000152:	b085      	sub	sp, #20
 8000154:	af00      	add	r7, sp, #0
 8000156:	60f8      	str	r0, [r7, #12]
 8000158:	60b9      	str	r1, [r7, #8]
 800015a:	607a      	str	r2, [r7, #4]
  *ppxIdleTaskTCBBuffer = &xIdleTaskTCBBuffer;
 800015c:	68fb      	ldr	r3, [r7, #12]
 800015e:	4a06      	ldr	r2, [pc, #24]	; (8000178 <vApplicationGetIdleTaskMemory+0x28>)
 8000160:	601a      	str	r2, [r3, #0]
  *ppxIdleTaskStackBuffer = &xIdleStack[0];
 8000162:	68bb      	ldr	r3, [r7, #8]
 8000164:	4a05      	ldr	r2, [pc, #20]	; (800017c <vApplicationGetIdleTaskMemory+0x2c>)
 8000166:	601a      	str	r2, [r3, #0]
  *pulIdleTaskStackSize = configMINIMAL_STACK_SIZE;
 8000168:	687b      	ldr	r3, [r7, #4]
 800016a:	2280      	movs	r2, #128	; 0x80
 800016c:	601a      	str	r2, [r3, #0]
  /* place for user code */
}                   
 800016e:	bf00      	nop
 8000170:	3714      	adds	r7, #20
 8000172:	46bd      	mov	sp, r7
 8000174:	bc80      	pop	{r7}
 8000176:	4770      	bx	lr
 8000178:	20000030 	.word	0x20000030
 800017c:	20000084 	.word	0x20000084

08000180 <HAL_UART_RxCpltCallback>:
void CAN_Filter_Config(void);
/* USER CODE END PFP */

/* Private user code ---------------------------------------------------------*/
/* USER CODE BEGIN 0 */
void HAL_UART_RxCpltCallback(UART_HandleTypeDef *huart) {
 8000180:	b580      	push	{r7, lr}
 8000182:	b084      	sub	sp, #16
 8000184:	af00      	add	r7, sp, #0
 8000186:	6078      	str	r0, [r7, #4]
	HAL_UART_Receive_IT(&huart2, GPS_in, GPS_in_SIZE);
 8000188:	2224      	movs	r2, #36	; 0x24
 800018a:	490c      	ldr	r1, [pc, #48]	; (80001bc <HAL_UART_RxCpltCallback+0x3c>)
 800018c:	480c      	ldr	r0, [pc, #48]	; (80001c0 <HAL_UART_RxCpltCallback+0x40>)
 800018e:	f004 fad7 	bl	8004740 <HAL_UART_Receive_IT>

	BaseType_t checkIfYieldRequired;
	checkIfYieldRequired = xTaskResumeFromISR(GPS_Task);
 8000192:	4b0c      	ldr	r3, [pc, #48]	; (80001c4 <HAL_UART_RxCpltCallback+0x44>)
 8000194:	681b      	ldr	r3, [r3, #0]
 8000196:	4618      	mov	r0, r3
 8000198:	f005 f9f4 	bl	8005584 <xTaskResumeFromISR>
 800019c:	60f8      	str	r0, [r7, #12]
	portYIELD_FROM_ISR(checkIfYieldRequired);
 800019e:	68fb      	ldr	r3, [r7, #12]
 80001a0:	2b00      	cmp	r3, #0
 80001a2:	d007      	beq.n	80001b4 <HAL_UART_RxCpltCallback+0x34>
 80001a4:	4b08      	ldr	r3, [pc, #32]	; (80001c8 <HAL_UART_RxCpltCallback+0x48>)
 80001a6:	f04f 5280 	mov.w	r2, #268435456	; 0x10000000
 80001aa:	601a      	str	r2, [r3, #0]
 80001ac:	f3bf 8f4f 	dsb	sy
 80001b0:	f3bf 8f6f 	isb	sy
}
 80001b4:	bf00      	nop
 80001b6:	3710      	adds	r7, #16
 80001b8:	46bd      	mov	sp, r7
 80001ba:	bd80      	pop	{r7, pc}
 80001bc:	20001da4 	.word	0x20001da4
 80001c0:	20001dc8 	.word	0x20001dc8
 80001c4:	20001c20 	.word	0x20001c20
 80001c8:	e000ed04 	.word	0xe000ed04

080001cc <main>:

/**
 * @brief  The application entry point.
 * @retval int
 */
int main(void) {
 80001cc:	b580      	push	{r7, lr}
 80001ce:	b082      	sub	sp, #8
 80001d0:	af02      	add	r7, sp, #8
	/* MCU Configuration--------------------------------------------------------*/

	/* Reset of all peripherals, Initializes the Flash interface and the Systick. */
	HAL_Init();
 80001d2:	f000 ffb7 	bl	8001144 <HAL_Init>

	/* Configure the system clock */
	SystemClock_Config();
 80001d6:	f000 f88d 	bl	80002f4 <SystemClock_Config>

	/* Initialize all configured peripherals */
	MX_GPIO_Init();
 80001da:	f000 fa03 	bl	80005e4 <MX_GPIO_Init>
	MX_DMA_Init();
 80001de:	f000 f9db 	bl	8000598 <MX_DMA_Init>
	MX_ADC1_Init();
 80001e2:	f000 f8e3 	bl	80003ac <MX_ADC1_Init>
	MX_CAN_Init();
 80001e6:	f000 f91f 	bl	8000428 <MX_CAN_Init>
	MX_I2C1_Init();
 80001ea:	f000 f953 	bl	8000494 <MX_I2C1_Init>
	MX_USART2_UART_Init();
 80001ee:	f000 f9a9 	bl	8000544 <MX_USART2_UART_Init>
	MX_USART1_UART_Init();
 80001f2:	f000 f97d 	bl	80004f0 <MX_USART1_UART_Init>

	/* USER CODE BEGIN 1 */
	CAN_Filter_Config();
 80001f6:	f000 fa45 	bl	8000684 <CAN_Filter_Config>

	if (HAL_CAN_ActivateNotification(&hcan,
 80001fa:	f240 4103 	movw	r1, #1027	; 0x403
 80001fe:	4829      	ldr	r0, [pc, #164]	; (80002a4 <main+0xd8>)
 8000200:	f001 ffa3 	bl	800214a <HAL_CAN_ActivateNotification>
 8000204:	4603      	mov	r3, r0
 8000206:	2b00      	cmp	r3, #0
 8000208:	d001      	beq.n	800020e <main+0x42>
	CAN_IT_TX_MAILBOX_EMPTY | CAN_IT_RX_FIFO0_MSG_PENDING | CAN_IT_BUSOFF)
			!= HAL_OK) {
		Error_Handler();
 800020a:	f000 fc67 	bl	8000adc <Error_Handler>
	}

	if (HAL_CAN_Start(&hcan)) {
 800020e:	4825      	ldr	r0, [pc, #148]	; (80002a4 <main+0xd8>)
 8000210:	f001 fd6c 	bl	8001cec <HAL_CAN_Start>
 8000214:	4603      	mov	r3, r0
 8000216:	2b00      	cmp	r3, #0
 8000218:	d001      	beq.n	800021e <main+0x52>
		Error_Handler();
 800021a:	f000 fc5f 	bl	8000adc <Error_Handler>
	}

	HAL_ADC_Start_DMA(&hadc1, (uint32_t*) gas, 1);
 800021e:	2201      	movs	r2, #1
 8000220:	4921      	ldr	r1, [pc, #132]	; (80002a8 <main+0xdc>)
 8000222:	4822      	ldr	r0, [pc, #136]	; (80002ac <main+0xe0>)
 8000224:	f001 f8ba 	bl	800139c <HAL_ADC_Start_DMA>

	HAL_UART_Receive_IT(&huart2, GPS_in, GPS_in_SIZE);
 8000228:	2224      	movs	r2, #36	; 0x24
 800022a:	4921      	ldr	r1, [pc, #132]	; (80002b0 <main+0xe4>)
 800022c:	4821      	ldr	r0, [pc, #132]	; (80002b4 <main+0xe8>)
 800022e:	f004 fa87 	bl	8004740 <HAL_UART_Receive_IT>

	xTaskCreate(GPS_taskF, "GPSTask", 128, NULL, 2, &GPS_Task);
 8000232:	4b21      	ldr	r3, [pc, #132]	; (80002b8 <main+0xec>)
 8000234:	9301      	str	r3, [sp, #4]
 8000236:	2302      	movs	r3, #2
 8000238:	9300      	str	r3, [sp, #0]
 800023a:	2300      	movs	r3, #0
 800023c:	2280      	movs	r2, #128	; 0x80
 800023e:	491f      	ldr	r1, [pc, #124]	; (80002bc <main+0xf0>)
 8000240:	481f      	ldr	r0, [pc, #124]	; (80002c0 <main+0xf4>)
 8000242:	f004 ff2b 	bl	800509c <xTaskCreate>
	xTaskCreate(Gear_Brake_taskF, "Gear_BrakeTask", 128, NULL, 3,
 8000246:	4b1f      	ldr	r3, [pc, #124]	; (80002c4 <main+0xf8>)
 8000248:	9301      	str	r3, [sp, #4]
 800024a:	2303      	movs	r3, #3
 800024c:	9300      	str	r3, [sp, #0]
 800024e:	2300      	movs	r3, #0
 8000250:	2280      	movs	r2, #128	; 0x80
 8000252:	491d      	ldr	r1, [pc, #116]	; (80002c8 <main+0xfc>)
 8000254:	481d      	ldr	r0, [pc, #116]	; (80002cc <main+0x100>)
 8000256:	f004 ff21 	bl	800509c <xTaskCreate>
			&Gear_Brake_Task);
	xTaskCreate(Gas_taskF, "GasTask", 128, NULL, 0, &Gas_Task);
 800025a:	4b1d      	ldr	r3, [pc, #116]	; (80002d0 <main+0x104>)
 800025c:	9301      	str	r3, [sp, #4]
 800025e:	2300      	movs	r3, #0
 8000260:	9300      	str	r3, [sp, #0]
 8000262:	2300      	movs	r3, #0
 8000264:	2280      	movs	r2, #128	; 0x80
 8000266:	491b      	ldr	r1, [pc, #108]	; (80002d4 <main+0x108>)
 8000268:	481b      	ldr	r0, [pc, #108]	; (80002d8 <main+0x10c>)
 800026a:	f004 ff17 	bl	800509c <xTaskCreate>
	xTaskCreate(Logger_taskF, "LoggerTask", 128, NULL, 3, &Logger_Task);
 800026e:	4b1b      	ldr	r3, [pc, #108]	; (80002dc <main+0x110>)
 8000270:	9301      	str	r3, [sp, #4]
 8000272:	2303      	movs	r3, #3
 8000274:	9300      	str	r3, [sp, #0]
 8000276:	2300      	movs	r3, #0
 8000278:	2280      	movs	r2, #128	; 0x80
 800027a:	4919      	ldr	r1, [pc, #100]	; (80002e0 <main+0x114>)
 800027c:	4819      	ldr	r0, [pc, #100]	; (80002e4 <main+0x118>)
 800027e:	f004 ff0d 	bl	800509c <xTaskCreate>
	xTaskCreate(Telemetry_taskF, "TelemetryTask", 128, NULL, 1,
 8000282:	4b19      	ldr	r3, [pc, #100]	; (80002e8 <main+0x11c>)
 8000284:	9301      	str	r3, [sp, #4]
 8000286:	2301      	movs	r3, #1
 8000288:	9300      	str	r3, [sp, #0]
 800028a:	2300      	movs	r3, #0
 800028c:	2280      	movs	r2, #128	; 0x80
 800028e:	4917      	ldr	r1, [pc, #92]	; (80002ec <main+0x120>)
 8000290:	4817      	ldr	r0, [pc, #92]	; (80002f0 <main+0x124>)
 8000292:	f004 ff03 	bl	800509c <xTaskCreate>
			&Telemetry_Task);

	/* Start scheduler */
	vTaskStartScheduler();
 8000296:	f005 f9e5 	bl	8005664 <vTaskStartScheduler>
	/* USER CODE END 1 */
	/* We should never get here as control is now taken by the scheduler */

	/* Infinite loop */
	while (1) {
		HAL_Delay(1); /*JUST I CASE*/
 800029a:	2001      	movs	r0, #1
 800029c:	f000 ff84 	bl	80011a8 <HAL_Delay>
 80002a0:	e7fb      	b.n	800029a <main+0xce>
 80002a2:	bf00      	nop
 80002a4:	20001c7c 	.word	0x20001c7c
 80002a8:	20001da0 	.word	0x20001da0
 80002ac:	20001cbc 	.word	0x20001cbc
 80002b0:	20001da4 	.word	0x20001da4
 80002b4:	20001dc8 	.word	0x20001dc8
 80002b8:	20001c20 	.word	0x20001c20
 80002bc:	0800650c 	.word	0x0800650c
 80002c0:	080006d1 	.word	0x080006d1
 80002c4:	20001bd4 	.word	0x20001bd4
 80002c8:	08006514 	.word	0x08006514
 80002cc:	08000771 	.word	0x08000771
 80002d0:	20001e10 	.word	0x20001e10
 80002d4:	08006524 	.word	0x08006524
 80002d8:	08000819 	.word	0x08000819
 80002dc:	20001e08 	.word	0x20001e08
 80002e0:	0800652c 	.word	0x0800652c
 80002e4:	0800089d 	.word	0x0800089d
 80002e8:	20001c1c 	.word	0x20001c1c
 80002ec:	08006538 	.word	0x08006538
 80002f0:	08000969 	.word	0x08000969

080002f4 <SystemClock_Config>:

/**
 * @brief System Clock Configuration
 * @retval None
 */
void SystemClock_Config(void) {
 80002f4:	b580      	push	{r7, lr}
 80002f6:	b094      	sub	sp, #80	; 0x50
 80002f8:	af00      	add	r7, sp, #0
	RCC_OscInitTypeDef RCC_OscInitStruct = { 0 };
 80002fa:	f107 0328 	add.w	r3, r7, #40	; 0x28
 80002fe:	2228      	movs	r2, #40	; 0x28
 8000300:	2100      	movs	r1, #0
 8000302:	4618      	mov	r0, r3
 8000304:	f006 f8ee 	bl	80064e4 <memset>
	RCC_ClkInitTypeDef RCC_ClkInitStruct = { 0 };
 8000308:	f107 0314 	add.w	r3, r7, #20
 800030c:	2200      	movs	r2, #0
 800030e:	601a      	str	r2, [r3, #0]
 8000310:	605a      	str	r2, [r3, #4]
 8000312:	609a      	str	r2, [r3, #8]
 8000314:	60da      	str	r2, [r3, #12]
 8000316:	611a      	str	r2, [r3, #16]
	RCC_PeriphCLKInitTypeDef PeriphClkInit = { 0 };
 8000318:	1d3b      	adds	r3, r7, #4
 800031a:	2200      	movs	r2, #0
 800031c:	601a      	str	r2, [r3, #0]
 800031e:	605a      	str	r2, [r3, #4]
 8000320:	609a      	str	r2, [r3, #8]
 8000322:	60da      	str	r2, [r3, #12]

	/** Initializes the CPU, AHB and APB busses clocks
	 */
	RCC_OscInitStruct.OscillatorType = RCC_OSCILLATORTYPE_HSE;
 8000324:	2301      	movs	r3, #1
 8000326:	62bb      	str	r3, [r7, #40]	; 0x28
	RCC_OscInitStruct.HSEState = RCC_HSE_ON;
 8000328:	f44f 3380 	mov.w	r3, #65536	; 0x10000
 800032c:	62fb      	str	r3, [r7, #44]	; 0x2c
	RCC_OscInitStruct.HSEPredivValue = RCC_HSE_PREDIV_DIV1;
 800032e:	2300      	movs	r3, #0
 8000330:	633b      	str	r3, [r7, #48]	; 0x30
	RCC_OscInitStruct.HSIState = RCC_HSI_ON;
 8000332:	2301      	movs	r3, #1
 8000334:	63bb      	str	r3, [r7, #56]	; 0x38
	RCC_OscInitStruct.PLL.PLLState = RCC_PLL_ON;
 8000336:	2302      	movs	r3, #2
 8000338:	647b      	str	r3, [r7, #68]	; 0x44
	RCC_OscInitStruct.PLL.PLLSource = RCC_PLLSOURCE_HSE;
 800033a:	f44f 3380 	mov.w	r3, #65536	; 0x10000
 800033e:	64bb      	str	r3, [r7, #72]	; 0x48
	RCC_OscInitStruct.PLL.PLLMUL = RCC_PLL_MUL9;
 8000340:	f44f 13e0 	mov.w	r3, #1835008	; 0x1c0000
 8000344:	64fb      	str	r3, [r7, #76]	; 0x4c
	if (HAL_RCC_OscConfig(&RCC_OscInitStruct) != HAL_OK) {
 8000346:	f107 0328 	add.w	r3, r7, #40	; 0x28
 800034a:	4618      	mov	r0, r3
 800034c:	f003 fa18 	bl	8003780 <HAL_RCC_OscConfig>
 8000350:	4603      	mov	r3, r0
 8000352:	2b00      	cmp	r3, #0
 8000354:	d001      	beq.n	800035a <SystemClock_Config+0x66>
		Error_Handler();
 8000356:	f000 fbc1 	bl	8000adc <Error_Handler>
	}
	/** Initializes the CPU, AHB and APB busses clocks
	 */
	RCC_ClkInitStruct.ClockType = RCC_CLOCKTYPE_HCLK | RCC_CLOCKTYPE_SYSCLK
 800035a:	230f      	movs	r3, #15
 800035c:	617b      	str	r3, [r7, #20]
			| RCC_CLOCKTYPE_PCLK1 | RCC_CLOCKTYPE_PCLK2;
	RCC_ClkInitStruct.SYSCLKSource = RCC_SYSCLKSOURCE_PLLCLK;
 800035e:	2302      	movs	r3, #2
 8000360:	61bb      	str	r3, [r7, #24]
	RCC_ClkInitStruct.AHBCLKDivider = RCC_SYSCLK_DIV1;
 8000362:	2300      	movs	r3, #0
 8000364:	61fb      	str	r3, [r7, #28]
	RCC_ClkInitStruct.APB1CLKDivider = RCC_HCLK_DIV2;
 8000366:	f44f 6380 	mov.w	r3, #1024	; 0x400
 800036a:	623b      	str	r3, [r7, #32]
	RCC_ClkInitStruct.APB2CLKDivider = RCC_HCLK_DIV1;
 800036c:	2300      	movs	r3, #0
 800036e:	627b      	str	r3, [r7, #36]	; 0x24

	if (HAL_RCC_ClockConfig(&RCC_ClkInitStruct, FLASH_LATENCY_2) != HAL_OK) {
 8000370:	f107 0314 	add.w	r3, r7, #20
 8000374:	2102      	movs	r1, #2
 8000376:	4618      	mov	r0, r3
 8000378:	f003 fc82 	bl	8003c80 <HAL_RCC_ClockConfig>
 800037c:	4603      	mov	r3, r0
 800037e:	2b00      	cmp	r3, #0
 8000380:	d001      	beq.n	8000386 <SystemClock_Config+0x92>
		Error_Handler();
 8000382:	f000 fbab 	bl	8000adc <Error_Handler>
	}
	PeriphClkInit.PeriphClockSelection = RCC_PERIPHCLK_ADC;
 8000386:	2302      	movs	r3, #2
 8000388:	607b      	str	r3, [r7, #4]
	PeriphClkInit.AdcClockSelection = RCC_ADCPCLK2_DIV8;
 800038a:	f44f 4340 	mov.w	r3, #49152	; 0xc000
 800038e:	60fb      	str	r3, [r7, #12]
	if (HAL_RCCEx_PeriphCLKConfig(&PeriphClkInit) != HAL_OK) {
 8000390:	1d3b      	adds	r3, r7, #4
 8000392:	4618      	mov	r0, r3
 8000394:	f003 fe40 	bl	8004018 <HAL_RCCEx_PeriphCLKConfig>
 8000398:	4603      	mov	r3, r0
 800039a:	2b00      	cmp	r3, #0
 800039c:	d001      	beq.n	80003a2 <SystemClock_Config+0xae>
		Error_Handler();
 800039e:	f000 fb9d 	bl	8000adc <Error_Handler>
	}
}
 80003a2:	bf00      	nop
 80003a4:	3750      	adds	r7, #80	; 0x50
 80003a6:	46bd      	mov	sp, r7
 80003a8:	bd80      	pop	{r7, pc}
	...

080003ac <MX_ADC1_Init>:
/**
 * @brief ADC1 Initialization Function
 * @param None
 * @retval None
 */
static void MX_ADC1_Init(void) {
 80003ac:	b580      	push	{r7, lr}
 80003ae:	b084      	sub	sp, #16
 80003b0:	af00      	add	r7, sp, #0
	ADC_ChannelConfTypeDef sConfig = { 0 };
 80003b2:	1d3b      	adds	r3, r7, #4
 80003b4:	2200      	movs	r2, #0
 80003b6:	601a      	str	r2, [r3, #0]
 80003b8:	605a      	str	r2, [r3, #4]
 80003ba:	609a      	str	r2, [r3, #8]

	/** Common config
	 */
	hadc1.Instance = ADC1;
 80003bc:	4b18      	ldr	r3, [pc, #96]	; (8000420 <MX_ADC1_Init+0x74>)
 80003be:	4a19      	ldr	r2, [pc, #100]	; (8000424 <MX_ADC1_Init+0x78>)
 80003c0:	601a      	str	r2, [r3, #0]
	hadc1.Init.ScanConvMode = ADC_SCAN_DISABLE;
 80003c2:	4b17      	ldr	r3, [pc, #92]	; (8000420 <MX_ADC1_Init+0x74>)
 80003c4:	2200      	movs	r2, #0
 80003c6:	609a      	str	r2, [r3, #8]
	hadc1.Init.ContinuousConvMode = ENABLE;
 80003c8:	4b15      	ldr	r3, [pc, #84]	; (8000420 <MX_ADC1_Init+0x74>)
 80003ca:	2201      	movs	r2, #1
 80003cc:	731a      	strb	r2, [r3, #12]
	hadc1.Init.DiscontinuousConvMode = DISABLE;
 80003ce:	4b14      	ldr	r3, [pc, #80]	; (8000420 <MX_ADC1_Init+0x74>)
 80003d0:	2200      	movs	r2, #0
 80003d2:	751a      	strb	r2, [r3, #20]
	hadc1.Init.ExternalTrigConv = ADC_SOFTWARE_START;
 80003d4:	4b12      	ldr	r3, [pc, #72]	; (8000420 <MX_ADC1_Init+0x74>)
 80003d6:	f44f 2260 	mov.w	r2, #917504	; 0xe0000
 80003da:	61da      	str	r2, [r3, #28]
	hadc1.Init.DataAlign = ADC_DATAALIGN_RIGHT;
 80003dc:	4b10      	ldr	r3, [pc, #64]	; (8000420 <MX_ADC1_Init+0x74>)
 80003de:	2200      	movs	r2, #0
 80003e0:	605a      	str	r2, [r3, #4]
	hadc1.Init.NbrOfConversion = 1;
 80003e2:	4b0f      	ldr	r3, [pc, #60]	; (8000420 <MX_ADC1_Init+0x74>)
 80003e4:	2201      	movs	r2, #1
 80003e6:	611a      	str	r2, [r3, #16]
	if (HAL_ADC_Init(&hadc1) != HAL_OK) {
 80003e8:	480d      	ldr	r0, [pc, #52]	; (8000420 <MX_ADC1_Init+0x74>)
 80003ea:	f000 feff 	bl	80011ec <HAL_ADC_Init>
 80003ee:	4603      	mov	r3, r0
 80003f0:	2b00      	cmp	r3, #0
 80003f2:	d001      	beq.n	80003f8 <MX_ADC1_Init+0x4c>
		Error_Handler();
 80003f4:	f000 fb72 	bl	8000adc <Error_Handler>
	}
	/** Configure Regular Channel
	 */
	sConfig.Channel = ADC_CHANNEL_4;
 80003f8:	2304      	movs	r3, #4
 80003fa:	607b      	str	r3, [r7, #4]
	sConfig.Rank = ADC_REGULAR_RANK_1;
 80003fc:	2301      	movs	r3, #1
 80003fe:	60bb      	str	r3, [r7, #8]
	sConfig.SamplingTime = ADC_SAMPLETIME_239CYCLES_5;
 8000400:	2307      	movs	r3, #7
 8000402:	60fb      	str	r3, [r7, #12]
	if (HAL_ADC_ConfigChannel(&hadc1, &sConfig) != HAL_OK) {
 8000404:	1d3b      	adds	r3, r7, #4
 8000406:	4619      	mov	r1, r3
 8000408:	4805      	ldr	r0, [pc, #20]	; (8000420 <MX_ADC1_Init+0x74>)
 800040a:	f001 f8c1 	bl	8001590 <HAL_ADC_ConfigChannel>
 800040e:	4603      	mov	r3, r0
 8000410:	2b00      	cmp	r3, #0
 8000412:	d001      	beq.n	8000418 <MX_ADC1_Init+0x6c>
		Error_Handler();
 8000414:	f000 fb62 	bl	8000adc <Error_Handler>
	}
}
 8000418:	bf00      	nop
 800041a:	3710      	adds	r7, #16
 800041c:	46bd      	mov	sp, r7
 800041e:	bd80      	pop	{r7, pc}
 8000420:	20001cbc 	.word	0x20001cbc
 8000424:	40012400 	.word	0x40012400

08000428 <MX_CAN_Init>:
/**
 * @brief CAN Initialization Function
 * @param None
 * @retval None
 */
static void MX_CAN_Init(void) {
 8000428:	b580      	push	{r7, lr}
 800042a:	af00      	add	r7, sp, #0
	hcan.Instance = CAN1;
 800042c:	4b17      	ldr	r3, [pc, #92]	; (800048c <MX_CAN_Init+0x64>)
 800042e:	4a18      	ldr	r2, [pc, #96]	; (8000490 <MX_CAN_Init+0x68>)
 8000430:	601a      	str	r2, [r3, #0]
	hcan.Init.Prescaler = 9;
 8000432:	4b16      	ldr	r3, [pc, #88]	; (800048c <MX_CAN_Init+0x64>)
 8000434:	2209      	movs	r2, #9
 8000436:	605a      	str	r2, [r3, #4]
	hcan.Init.Mode = CAN_MODE_NORMAL;
 8000438:	4b14      	ldr	r3, [pc, #80]	; (800048c <MX_CAN_Init+0x64>)
 800043a:	2200      	movs	r2, #0
 800043c:	609a      	str	r2, [r3, #8]
	hcan.Init.SyncJumpWidth = CAN_SJW_1TQ;
 800043e:	4b13      	ldr	r3, [pc, #76]	; (800048c <MX_CAN_Init+0x64>)
 8000440:	2200      	movs	r2, #0
 8000442:	60da      	str	r2, [r3, #12]
	hcan.Init.TimeSeg1 = CAN_BS1_12TQ;
 8000444:	4b11      	ldr	r3, [pc, #68]	; (800048c <MX_CAN_Init+0x64>)
 8000446:	f44f 2230 	mov.w	r2, #720896	; 0xb0000
 800044a:	611a      	str	r2, [r3, #16]
	hcan.Init.TimeSeg2 = CAN_BS2_3TQ;
 800044c:	4b0f      	ldr	r3, [pc, #60]	; (800048c <MX_CAN_Init+0x64>)
 800044e:	f44f 1200 	mov.w	r2, #2097152	; 0x200000
 8000452:	615a      	str	r2, [r3, #20]
	hcan.Init.TimeTriggeredMode = DISABLE;
 8000454:	4b0d      	ldr	r3, [pc, #52]	; (800048c <MX_CAN_Init+0x64>)
 8000456:	2200      	movs	r2, #0
 8000458:	761a      	strb	r2, [r3, #24]
	hcan.Init.AutoBusOff = ENABLE;
 800045a:	4b0c      	ldr	r3, [pc, #48]	; (800048c <MX_CAN_Init+0x64>)
 800045c:	2201      	movs	r2, #1
 800045e:	765a      	strb	r2, [r3, #25]
	hcan.Init.AutoWakeUp = DISABLE;
 8000460:	4b0a      	ldr	r3, [pc, #40]	; (800048c <MX_CAN_Init+0x64>)
 8000462:	2200      	movs	r2, #0
 8000464:	769a      	strb	r2, [r3, #26]
	hcan.Init.AutoRetransmission = ENABLE;
 8000466:	4b09      	ldr	r3, [pc, #36]	; (800048c <MX_CAN_Init+0x64>)
 8000468:	2201      	movs	r2, #1
 800046a:	76da      	strb	r2, [r3, #27]
	hcan.Init.ReceiveFifoLocked = DISABLE;
 800046c:	4b07      	ldr	r3, [pc, #28]	; (800048c <MX_CAN_Init+0x64>)
 800046e:	2200      	movs	r2, #0
 8000470:	771a      	strb	r2, [r3, #28]
	hcan.Init.TransmitFifoPriority = DISABLE;
 8000472:	4b06      	ldr	r3, [pc, #24]	; (800048c <MX_CAN_Init+0x64>)
 8000474:	2200      	movs	r2, #0
 8000476:	775a      	strb	r2, [r3, #29]
	if (HAL_CAN_Init(&hcan) != HAL_OK) {
 8000478:	4804      	ldr	r0, [pc, #16]	; (800048c <MX_CAN_Init+0x64>)
 800047a:	f001 fa73 	bl	8001964 <HAL_CAN_Init>
 800047e:	4603      	mov	r3, r0
 8000480:	2b00      	cmp	r3, #0
 8000482:	d001      	beq.n	8000488 <MX_CAN_Init+0x60>
		Error_Handler();
 8000484:	f000 fb2a 	bl	8000adc <Error_Handler>
	}
}
 8000488:	bf00      	nop
 800048a:	bd80      	pop	{r7, pc}
 800048c:	20001c7c 	.word	0x20001c7c
 8000490:	40006400 	.word	0x40006400

08000494 <MX_I2C1_Init>:
/**
 * @brief I2C1 Initialization Function
 * @param None
 * @retval None
 */
static void MX_I2C1_Init(void) {
 8000494:	b580      	push	{r7, lr}
 8000496:	af00      	add	r7, sp, #0
	hi2c1.Instance = I2C1;
 8000498:	4b12      	ldr	r3, [pc, #72]	; (80004e4 <MX_I2C1_Init+0x50>)
 800049a:	4a13      	ldr	r2, [pc, #76]	; (80004e8 <MX_I2C1_Init+0x54>)
 800049c:	601a      	str	r2, [r3, #0]
	hi2c1.Init.ClockSpeed = 400000;
 800049e:	4b11      	ldr	r3, [pc, #68]	; (80004e4 <MX_I2C1_Init+0x50>)
 80004a0:	4a12      	ldr	r2, [pc, #72]	; (80004ec <MX_I2C1_Init+0x58>)
 80004a2:	605a      	str	r2, [r3, #4]
	hi2c1.Init.DutyCycle = I2C_DUTYCYCLE_2;
 80004a4:	4b0f      	ldr	r3, [pc, #60]	; (80004e4 <MX_I2C1_Init+0x50>)
 80004a6:	2200      	movs	r2, #0
 80004a8:	609a      	str	r2, [r3, #8]
	hi2c1.Init.OwnAddress1 = 0;
 80004aa:	4b0e      	ldr	r3, [pc, #56]	; (80004e4 <MX_I2C1_Init+0x50>)
 80004ac:	2200      	movs	r2, #0
 80004ae:	60da      	str	r2, [r3, #12]
	hi2c1.Init.AddressingMode = I2C_ADDRESSINGMODE_7BIT;
 80004b0:	4b0c      	ldr	r3, [pc, #48]	; (80004e4 <MX_I2C1_Init+0x50>)
 80004b2:	f44f 4280 	mov.w	r2, #16384	; 0x4000
 80004b6:	611a      	str	r2, [r3, #16]
	hi2c1.Init.DualAddressMode = I2C_DUALADDRESS_DISABLE;
 80004b8:	4b0a      	ldr	r3, [pc, #40]	; (80004e4 <MX_I2C1_Init+0x50>)
 80004ba:	2200      	movs	r2, #0
 80004bc:	615a      	str	r2, [r3, #20]
	hi2c1.Init.OwnAddress2 = 0;
 80004be:	4b09      	ldr	r3, [pc, #36]	; (80004e4 <MX_I2C1_Init+0x50>)
 80004c0:	2200      	movs	r2, #0
 80004c2:	619a      	str	r2, [r3, #24]
	hi2c1.Init.GeneralCallMode = I2C_GENERALCALL_DISABLE;
 80004c4:	4b07      	ldr	r3, [pc, #28]	; (80004e4 <MX_I2C1_Init+0x50>)
 80004c6:	2200      	movs	r2, #0
 80004c8:	61da      	str	r2, [r3, #28]
	hi2c1.Init.NoStretchMode = I2C_NOSTRETCH_DISABLE;
 80004ca:	4b06      	ldr	r3, [pc, #24]	; (80004e4 <MX_I2C1_Init+0x50>)
 80004cc:	2200      	movs	r2, #0
 80004ce:	621a      	str	r2, [r3, #32]
	if (HAL_I2C_Init(&hi2c1) != HAL_OK) {
 80004d0:	4804      	ldr	r0, [pc, #16]	; (80004e4 <MX_I2C1_Init+0x50>)
 80004d2:	f002 fd33 	bl	8002f3c <HAL_I2C_Init>
 80004d6:	4603      	mov	r3, r0
 80004d8:	2b00      	cmp	r3, #0
 80004da:	d001      	beq.n	80004e0 <MX_I2C1_Init+0x4c>
		Error_Handler();
 80004dc:	f000 fafe 	bl	8000adc <Error_Handler>
	}
}
 80004e0:	bf00      	nop
 80004e2:	bd80      	pop	{r7, pc}
 80004e4:	20001c28 	.word	0x20001c28
 80004e8:	40005400 	.word	0x40005400
 80004ec:	00061a80 	.word	0x00061a80

080004f0 <MX_USART1_UART_Init>:
/**
 * @brief USART1 Initialization Function
 * @param None
 * @retval None
 */
static void MX_USART1_UART_Init(void) {
 80004f0:	b580      	push	{r7, lr}
 80004f2:	af00      	add	r7, sp, #0
	huart1.Instance = USART1;
 80004f4:	4b11      	ldr	r3, [pc, #68]	; (800053c <MX_USART1_UART_Init+0x4c>)
 80004f6:	4a12      	ldr	r2, [pc, #72]	; (8000540 <MX_USART1_UART_Init+0x50>)
 80004f8:	601a      	str	r2, [r3, #0]
	huart1.Init.BaudRate = 115200;
 80004fa:	4b10      	ldr	r3, [pc, #64]	; (800053c <MX_USART1_UART_Init+0x4c>)
 80004fc:	f44f 32e1 	mov.w	r2, #115200	; 0x1c200
 8000500:	605a      	str	r2, [r3, #4]
	huart1.Init.WordLength = UART_WORDLENGTH_8B;
 8000502:	4b0e      	ldr	r3, [pc, #56]	; (800053c <MX_USART1_UART_Init+0x4c>)
 8000504:	2200      	movs	r2, #0
 8000506:	609a      	str	r2, [r3, #8]
	huart1.Init.StopBits = UART_STOPBITS_1;
 8000508:	4b0c      	ldr	r3, [pc, #48]	; (800053c <MX_USART1_UART_Init+0x4c>)
 800050a:	2200      	movs	r2, #0
 800050c:	60da      	str	r2, [r3, #12]
	huart1.Init.Parity = UART_PARITY_NONE;
 800050e:	4b0b      	ldr	r3, [pc, #44]	; (800053c <MX_USART1_UART_Init+0x4c>)
 8000510:	2200      	movs	r2, #0
 8000512:	611a      	str	r2, [r3, #16]
	huart1.Init.Mode = UART_MODE_TX;
 8000514:	4b09      	ldr	r3, [pc, #36]	; (800053c <MX_USART1_UART_Init+0x4c>)
 8000516:	2208      	movs	r2, #8
 8000518:	615a      	str	r2, [r3, #20]
	huart1.Init.HwFlowCtl = UART_HWCONTROL_NONE;
 800051a:	4b08      	ldr	r3, [pc, #32]	; (800053c <MX_USART1_UART_Init+0x4c>)
 800051c:	2200      	movs	r2, #0
 800051e:	619a      	str	r2, [r3, #24]
	huart1.Init.OverSampling = UART_OVERSAMPLING_16;
 8000520:	4b06      	ldr	r3, [pc, #24]	; (800053c <MX_USART1_UART_Init+0x4c>)
 8000522:	2200      	movs	r2, #0
 8000524:	61da      	str	r2, [r3, #28]
	if (HAL_UART_Init(&huart1) != HAL_OK) {
 8000526:	4805      	ldr	r0, [pc, #20]	; (800053c <MX_USART1_UART_Init+0x4c>)
 8000528:	f004 f824 	bl	8004574 <HAL_UART_Init>
 800052c:	4603      	mov	r3, r0
 800052e:	2b00      	cmp	r3, #0
 8000530:	d001      	beq.n	8000536 <MX_USART1_UART_Init+0x46>
		Error_Handler();
 8000532:	f000 fad3 	bl	8000adc <Error_Handler>
	}
}
 8000536:	bf00      	nop
 8000538:	bd80      	pop	{r7, pc}
 800053a:	bf00      	nop
 800053c:	20001cec 	.word	0x20001cec
 8000540:	40013800 	.word	0x40013800

08000544 <MX_USART2_UART_Init>:
/**
 * @brief USART2 Initialization Function
 * @param None
 * @retval None
 */
static void MX_USART2_UART_Init(void) {
 8000544:	b580      	push	{r7, lr}
 8000546:	af00      	add	r7, sp, #0
	huart2.Instance = USART2;
 8000548:	4b11      	ldr	r3, [pc, #68]	; (8000590 <MX_USART2_UART_Init+0x4c>)
 800054a:	4a12      	ldr	r2, [pc, #72]	; (8000594 <MX_USART2_UART_Init+0x50>)
 800054c:	601a      	str	r2, [r3, #0]
	huart2.Init.BaudRate = 115200;
 800054e:	4b10      	ldr	r3, [pc, #64]	; (8000590 <MX_USART2_UART_Init+0x4c>)
 8000550:	f44f 32e1 	mov.w	r2, #115200	; 0x1c200
 8000554:	605a      	str	r2, [r3, #4]
	huart2.Init.WordLength = UART_WORDLENGTH_8B;
 8000556:	4b0e      	ldr	r3, [pc, #56]	; (8000590 <MX_USART2_UART_Init+0x4c>)
 8000558:	2200      	movs	r2, #0
 800055a:	609a      	str	r2, [r3, #8]
	huart2.Init.StopBits = UART_STOPBITS_1;
 800055c:	4b0c      	ldr	r3, [pc, #48]	; (8000590 <MX_USART2_UART_Init+0x4c>)
 800055e:	2200      	movs	r2, #0
 8000560:	60da      	str	r2, [r3, #12]
	huart2.Init.Parity = UART_PARITY_NONE;
 8000562:	4b0b      	ldr	r3, [pc, #44]	; (8000590 <MX_USART2_UART_Init+0x4c>)
 8000564:	2200      	movs	r2, #0
 8000566:	611a      	str	r2, [r3, #16]
	huart2.Init.Mode = UART_MODE_RX;
 8000568:	4b09      	ldr	r3, [pc, #36]	; (8000590 <MX_USART2_UART_Init+0x4c>)
 800056a:	2204      	movs	r2, #4
 800056c:	615a      	str	r2, [r3, #20]
	huart2.Init.HwFlowCtl = UART_HWCONTROL_NONE;
 800056e:	4b08      	ldr	r3, [pc, #32]	; (8000590 <MX_USART2_UART_Init+0x4c>)
 8000570:	2200      	movs	r2, #0
 8000572:	619a      	str	r2, [r3, #24]
	huart2.Init.OverSampling = UART_OVERSAMPLING_16;
 8000574:	4b06      	ldr	r3, [pc, #24]	; (8000590 <MX_USART2_UART_Init+0x4c>)
 8000576:	2200      	movs	r2, #0
 8000578:	61da      	str	r2, [r3, #28]
	if (HAL_UART_Init(&huart2) != HAL_OK) {
 800057a:	4805      	ldr	r0, [pc, #20]	; (8000590 <MX_USART2_UART_Init+0x4c>)
 800057c:	f003 fffa 	bl	8004574 <HAL_UART_Init>
 8000580:	4603      	mov	r3, r0
 8000582:	2b00      	cmp	r3, #0
 8000584:	d001      	beq.n	800058a <MX_USART2_UART_Init+0x46>
		Error_Handler();
 8000586:	f000 faa9 	bl	8000adc <Error_Handler>
	}
}
 800058a:	bf00      	nop
 800058c:	bd80      	pop	{r7, pc}
 800058e:	bf00      	nop
 8000590:	20001dc8 	.word	0x20001dc8
 8000594:	40004400 	.word	0x40004400

08000598 <MX_DMA_Init>:

/**
 * Enable DMA controller clock
 */
static void MX_DMA_Init(void) {
 8000598:	b580      	push	{r7, lr}
 800059a:	b082      	sub	sp, #8
 800059c:	af00      	add	r7, sp, #0
	/* DMA controller clock enable */
	__HAL_RCC_DMA1_CLK_ENABLE();
 800059e:	4b10      	ldr	r3, [pc, #64]	; (80005e0 <MX_DMA_Init+0x48>)
 80005a0:	695b      	ldr	r3, [r3, #20]
 80005a2:	4a0f      	ldr	r2, [pc, #60]	; (80005e0 <MX_DMA_Init+0x48>)
 80005a4:	f043 0301 	orr.w	r3, r3, #1
 80005a8:	6153      	str	r3, [r2, #20]
 80005aa:	4b0d      	ldr	r3, [pc, #52]	; (80005e0 <MX_DMA_Init+0x48>)
 80005ac:	695b      	ldr	r3, [r3, #20]
 80005ae:	f003 0301 	and.w	r3, r3, #1
 80005b2:	607b      	str	r3, [r7, #4]
 80005b4:	687b      	ldr	r3, [r7, #4]

	/* DMA interrupt init */
	/* DMA1_Channel1_IRQn interrupt configuration */
	HAL_NVIC_SetPriority(DMA1_Channel1_IRQn, 5, 0);
 80005b6:	2200      	movs	r2, #0
 80005b8:	2105      	movs	r1, #5
 80005ba:	200b      	movs	r0, #11
 80005bc:	f002 f8bd 	bl	800273a <HAL_NVIC_SetPriority>
	HAL_NVIC_EnableIRQ(DMA1_Channel1_IRQn);
 80005c0:	200b      	movs	r0, #11
 80005c2:	f002 f8d6 	bl	8002772 <HAL_NVIC_EnableIRQ>
	/* DMA1_Channel6_IRQn interrupt configuration */
	HAL_NVIC_SetPriority(DMA1_Channel6_IRQn, 5, 0);
 80005c6:	2200      	movs	r2, #0
 80005c8:	2105      	movs	r1, #5
 80005ca:	2010      	movs	r0, #16
 80005cc:	f002 f8b5 	bl	800273a <HAL_NVIC_SetPriority>
	HAL_NVIC_EnableIRQ(DMA1_Channel6_IRQn);
 80005d0:	2010      	movs	r0, #16
 80005d2:	f002 f8ce 	bl	8002772 <HAL_NVIC_EnableIRQ>
}
 80005d6:	bf00      	nop
 80005d8:	3708      	adds	r7, #8
 80005da:	46bd      	mov	sp, r7
 80005dc:	bd80      	pop	{r7, pc}
 80005de:	bf00      	nop
 80005e0:	40021000 	.word	0x40021000

080005e4 <MX_GPIO_Init>:
/**
 * @brief GPIO Initialization Function
 * @param None
 * @retval None
 */
static void MX_GPIO_Init(void) {
 80005e4:	b580      	push	{r7, lr}
 80005e6:	b088      	sub	sp, #32
 80005e8:	af00      	add	r7, sp, #0
	GPIO_InitTypeDef GPIO_InitStruct = { 0 };
 80005ea:	f107 0310 	add.w	r3, r7, #16
 80005ee:	2200      	movs	r2, #0
 80005f0:	601a      	str	r2, [r3, #0]
 80005f2:	605a      	str	r2, [r3, #4]
 80005f4:	609a      	str	r2, [r3, #8]
 80005f6:	60da      	str	r2, [r3, #12]

	/* GPIO Ports Clock Enable */
	__HAL_RCC_GPIOC_CLK_ENABLE();
 80005f8:	4b20      	ldr	r3, [pc, #128]	; (800067c <MX_GPIO_Init+0x98>)
 80005fa:	699b      	ldr	r3, [r3, #24]
 80005fc:	4a1f      	ldr	r2, [pc, #124]	; (800067c <MX_GPIO_Init+0x98>)
 80005fe:	f043 0310 	orr.w	r3, r3, #16
 8000602:	6193      	str	r3, [r2, #24]
 8000604:	4b1d      	ldr	r3, [pc, #116]	; (800067c <MX_GPIO_Init+0x98>)
 8000606:	699b      	ldr	r3, [r3, #24]
 8000608:	f003 0310 	and.w	r3, r3, #16
 800060c:	60fb      	str	r3, [r7, #12]
 800060e:	68fb      	ldr	r3, [r7, #12]
	__HAL_RCC_GPIOD_CLK_ENABLE();
 8000610:	4b1a      	ldr	r3, [pc, #104]	; (800067c <MX_GPIO_Init+0x98>)
 8000612:	699b      	ldr	r3, [r3, #24]
 8000614:	4a19      	ldr	r2, [pc, #100]	; (800067c <MX_GPIO_Init+0x98>)
 8000616:	f043 0320 	orr.w	r3, r3, #32
 800061a:	6193      	str	r3, [r2, #24]
 800061c:	4b17      	ldr	r3, [pc, #92]	; (800067c <MX_GPIO_Init+0x98>)
 800061e:	699b      	ldr	r3, [r3, #24]
 8000620:	f003 0320 	and.w	r3, r3, #32
 8000624:	60bb      	str	r3, [r7, #8]
 8000626:	68bb      	ldr	r3, [r7, #8]
	__HAL_RCC_GPIOA_CLK_ENABLE();
 8000628:	4b14      	ldr	r3, [pc, #80]	; (800067c <MX_GPIO_Init+0x98>)
 800062a:	699b      	ldr	r3, [r3, #24]
 800062c:	4a13      	ldr	r2, [pc, #76]	; (800067c <MX_GPIO_Init+0x98>)
 800062e:	f043 0304 	orr.w	r3, r3, #4
 8000632:	6193      	str	r3, [r2, #24]
 8000634:	4b11      	ldr	r3, [pc, #68]	; (800067c <MX_GPIO_Init+0x98>)
 8000636:	699b      	ldr	r3, [r3, #24]
 8000638:	f003 0304 	and.w	r3, r3, #4
 800063c:	607b      	str	r3, [r7, #4]
 800063e:	687b      	ldr	r3, [r7, #4]
	__HAL_RCC_GPIOB_CLK_ENABLE();
 8000640:	4b0e      	ldr	r3, [pc, #56]	; (800067c <MX_GPIO_Init+0x98>)
 8000642:	699b      	ldr	r3, [r3, #24]
 8000644:	4a0d      	ldr	r2, [pc, #52]	; (800067c <MX_GPIO_Init+0x98>)
 8000646:	f043 0308 	orr.w	r3, r3, #8
 800064a:	6193      	str	r3, [r2, #24]
 800064c:	4b0b      	ldr	r3, [pc, #44]	; (800067c <MX_GPIO_Init+0x98>)
 800064e:	699b      	ldr	r3, [r3, #24]
 8000650:	f003 0308 	and.w	r3, r3, #8
 8000654:	603b      	str	r3, [r7, #0]
 8000656:	683b      	ldr	r3, [r7, #0]

	/*Configure GPIO pins : Gear_Pin Brake_Pin */
	GPIO_InitStruct.Pin = Gear_Pin | Brake_Pin;
 8000658:	f44f 4340 	mov.w	r3, #49152	; 0xc000
 800065c:	613b      	str	r3, [r7, #16]
	GPIO_InitStruct.Mode = GPIO_MODE_INPUT;
 800065e:	2300      	movs	r3, #0
 8000660:	617b      	str	r3, [r7, #20]
	GPIO_InitStruct.Pull = GPIO_NOPULL;
 8000662:	2300      	movs	r3, #0
 8000664:	61bb      	str	r3, [r7, #24]
	HAL_GPIO_Init(GPIOB, &GPIO_InitStruct);
 8000666:	f107 0310 	add.w	r3, r7, #16
 800066a:	4619      	mov	r1, r3
 800066c:	4804      	ldr	r0, [pc, #16]	; (8000680 <MX_GPIO_Init+0x9c>)
 800066e:	f002 faf3 	bl	8002c58 <HAL_GPIO_Init>

}
 8000672:	bf00      	nop
 8000674:	3720      	adds	r7, #32
 8000676:	46bd      	mov	sp, r7
 8000678:	bd80      	pop	{r7, pc}
 800067a:	bf00      	nop
 800067c:	40021000 	.word	0x40021000
 8000680:	40010c00 	.word	0x40010c00

08000684 <CAN_Filter_Config>:

/* USER CODE BEGIN 2 */
/*Configure CAN Filter */
void CAN_Filter_Config(void) {
 8000684:	b580      	push	{r7, lr}
 8000686:	b08a      	sub	sp, #40	; 0x28
 8000688:	af00      	add	r7, sp, #0
	CAN_FilterTypeDef can_filt;
	can_filt.FilterActivation = ENABLE;
 800068a:	2301      	movs	r3, #1
 800068c:	623b      	str	r3, [r7, #32]
	can_filt.FilterBank = 0;
 800068e:	2300      	movs	r3, #0
 8000690:	617b      	str	r3, [r7, #20]
	can_filt.FilterFIFOAssignment = CAN_RX_FIFO0;
 8000692:	2300      	movs	r3, #0
 8000694:	613b      	str	r3, [r7, #16]
	can_filt.FilterIdHigh = 0x0000;
 8000696:	2300      	movs	r3, #0
 8000698:	603b      	str	r3, [r7, #0]
	can_filt.FilterIdLow = 0x0000;
 800069a:	2300      	movs	r3, #0
 800069c:	607b      	str	r3, [r7, #4]
	can_filt.FilterMaskIdHigh = 0x0000;
 800069e:	2300      	movs	r3, #0
 80006a0:	60bb      	str	r3, [r7, #8]
	can_filt.FilterMaskIdLow = 0x0000;
 80006a2:	2300      	movs	r3, #0
 80006a4:	60fb      	str	r3, [r7, #12]
	can_filt.FilterMode = CAN_FILTERMODE_IDMASK;
 80006a6:	2300      	movs	r3, #0
 80006a8:	61bb      	str	r3, [r7, #24]
	can_filt.FilterScale = CAN_FILTERSCALE_32BIT;
 80006aa:	2301      	movs	r3, #1
 80006ac:	61fb      	str	r3, [r7, #28]

	if (HAL_CAN_ConfigFilter(&hcan, &can_filt) != HAL_OK) {
 80006ae:	463b      	mov	r3, r7
 80006b0:	4619      	mov	r1, r3
 80006b2:	4806      	ldr	r0, [pc, #24]	; (80006cc <CAN_Filter_Config+0x48>)
 80006b4:	f001 fa51 	bl	8001b5a <HAL_CAN_ConfigFilter>
 80006b8:	4603      	mov	r3, r0
 80006ba:	2b00      	cmp	r3, #0
 80006bc:	d001      	beq.n	80006c2 <CAN_Filter_Config+0x3e>
		Error_Handler();
 80006be:	f000 fa0d 	bl	8000adc <Error_Handler>
	}
}
 80006c2:	bf00      	nop
 80006c4:	3728      	adds	r7, #40	; 0x28
 80006c6:	46bd      	mov	sp, r7
 80006c8:	bd80      	pop	{r7, pc}
 80006ca:	bf00      	nop
 80006cc:	20001c7c 	.word	0x20001c7c

080006d0 <GPS_taskF>:

/*GPS Read Task --- THIS TASK NEEDS TEST WITH HARDWARE */
void GPS_taskF(void *pvParameters) {
 80006d0:	b580      	push	{r7, lr}
 80006d2:	b08a      	sub	sp, #40	; 0x28
 80006d4:	af00      	add	r7, sp, #0
 80006d6:	6078      	str	r0, [r7, #4]
	while (1) {
		vTaskSuspend(NULL);
 80006d8:	2000      	movs	r0, #0
 80006da:	f004 fe87 	bl	80053ec <vTaskSuspend>

		if (GPS_in[0] == UBX_HEADER[0] && GPS_in[1] == UBX_HEADER[1]) {
 80006de:	4b21      	ldr	r3, [pc, #132]	; (8000764 <GPS_taskF+0x94>)
 80006e0:	781b      	ldrb	r3, [r3, #0]
 80006e2:	22b5      	movs	r2, #181	; 0xb5
 80006e4:	4293      	cmp	r3, r2
 80006e6:	d1f7      	bne.n	80006d8 <GPS_taskF+0x8>
 80006e8:	4b1e      	ldr	r3, [pc, #120]	; (8000764 <GPS_taskF+0x94>)
 80006ea:	785b      	ldrb	r3, [r3, #1]
 80006ec:	2262      	movs	r2, #98	; 0x62
 80006ee:	4293      	cmp	r3, r2
 80006f0:	d1f2      	bne.n	80006d8 <GPS_taskF+0x8>
			uint8_t GPSbuff[4];

			GPSbuff[0] = GPS_in[16];
 80006f2:	4b1c      	ldr	r3, [pc, #112]	; (8000764 <GPS_taskF+0x94>)
 80006f4:	7c1b      	ldrb	r3, [r3, #16]
 80006f6:	f887 3024 	strb.w	r3, [r7, #36]	; 0x24
			GPSbuff[1] = GPS_in[17];
 80006fa:	4b1a      	ldr	r3, [pc, #104]	; (8000764 <GPS_taskF+0x94>)
 80006fc:	7c5b      	ldrb	r3, [r3, #17]
 80006fe:	f887 3025 	strb.w	r3, [r7, #37]	; 0x25
			GPSbuff[2] = GPS_in[12];
 8000702:	4b18      	ldr	r3, [pc, #96]	; (8000764 <GPS_taskF+0x94>)
 8000704:	7b1b      	ldrb	r3, [r3, #12]
 8000706:	f887 3026 	strb.w	r3, [r7, #38]	; 0x26
			GPSbuff[3] = GPS_in[13];
 800070a:	4b16      	ldr	r3, [pc, #88]	; (8000764 <GPS_taskF+0x94>)
 800070c:	7b5b      	ldrb	r3, [r3, #13]
 800070e:	f887 3027 	strb.w	r3, [r7, #39]	; 0x27

			buffer[18] = GPS_in[16];
 8000712:	4b14      	ldr	r3, [pc, #80]	; (8000764 <GPS_taskF+0x94>)
 8000714:	7c1a      	ldrb	r2, [r3, #16]
 8000716:	4b14      	ldr	r3, [pc, #80]	; (8000768 <GPS_taskF+0x98>)
 8000718:	749a      	strb	r2, [r3, #18]
			buffer[19] = GPS_in[17];
 800071a:	4b12      	ldr	r3, [pc, #72]	; (8000764 <GPS_taskF+0x94>)
 800071c:	7c5a      	ldrb	r2, [r3, #17]
 800071e:	4b12      	ldr	r3, [pc, #72]	; (8000768 <GPS_taskF+0x98>)
 8000720:	74da      	strb	r2, [r3, #19]
			buffer[20] = GPS_in[12];
 8000722:	4b10      	ldr	r3, [pc, #64]	; (8000764 <GPS_taskF+0x94>)
 8000724:	7b1a      	ldrb	r2, [r3, #12]
 8000726:	4b10      	ldr	r3, [pc, #64]	; (8000768 <GPS_taskF+0x98>)
 8000728:	751a      	strb	r2, [r3, #20]
			buffer[21] = GPS_in[13];
 800072a:	4b0e      	ldr	r3, [pc, #56]	; (8000764 <GPS_taskF+0x94>)
 800072c:	7b5a      	ldrb	r2, [r3, #13]
 800072e:	4b0e      	ldr	r3, [pc, #56]	; (8000768 <GPS_taskF+0x98>)
 8000730:	755a      	strb	r2, [r3, #21]
			uint32_t TxMailbox;

			CAN_TxHeaderTypeDef GPSHeader;

			GPSHeader.DLC = 4;
 8000732:	2304      	movs	r3, #4
 8000734:	61bb      	str	r3, [r7, #24]
			GPSHeader.StdId = 0x658;
 8000736:	f44f 63cb 	mov.w	r3, #1624	; 0x658
 800073a:	60bb      	str	r3, [r7, #8]
			GPSHeader.IDE = CAN_ID_STD;
 800073c:	2300      	movs	r3, #0
 800073e:	613b      	str	r3, [r7, #16]
			GPSHeader.RTR = CAN_RTR_DATA;
 8000740:	2300      	movs	r3, #0
 8000742:	617b      	str	r3, [r7, #20]

			if (HAL_CAN_AddTxMessage(&hcan, &GPSHeader, GPSbuff, &TxMailbox)
 8000744:	f107 0320 	add.w	r3, r7, #32
 8000748:	f107 0224 	add.w	r2, r7, #36	; 0x24
 800074c:	f107 0108 	add.w	r1, r7, #8
 8000750:	4806      	ldr	r0, [pc, #24]	; (800076c <GPS_taskF+0x9c>)
 8000752:	f001 fb0f 	bl	8001d74 <HAL_CAN_AddTxMessage>
 8000756:	4603      	mov	r3, r0
 8000758:	2b00      	cmp	r3, #0
 800075a:	d0bd      	beq.n	80006d8 <GPS_taskF+0x8>
					!= HAL_OK) {
				Error_Handler();
 800075c:	f000 f9be 	bl	8000adc <Error_Handler>
		vTaskSuspend(NULL);
 8000760:	e7ba      	b.n	80006d8 <GPS_taskF+0x8>
 8000762:	bf00      	nop
 8000764:	20001da4 	.word	0x20001da4
 8000768:	20001d2c 	.word	0x20001d2c
 800076c:	20001c7c 	.word	0x20001c7c

08000770 <Gear_Brake_taskF>:
		}
	}
}

/*Gear an Brake Read Task */
void Gear_Brake_taskF(void *pvParameters) {
 8000770:	b580      	push	{r7, lr}
 8000772:	b08c      	sub	sp, #48	; 0x30
 8000774:	af00      	add	r7, sp, #0
 8000776:	6078      	str	r0, [r7, #4]
	TickType_t xLastWakeTime;
	const TickType_t xFrequency = 10;  //Ticks to wait since routine starts
 8000778:	230a      	movs	r3, #10
 800077a:	62fb      	str	r3, [r7, #44]	; 0x2c
	xLastWakeTime = xTaskGetTickCount();
 800077c:	f005 f87a 	bl	8005874 <xTaskGetTickCount>
 8000780:	4603      	mov	r3, r0
 8000782:	62bb      	str	r3, [r7, #40]	; 0x28
	while (1) {
		gear = HAL_GPIO_ReadPin(GPIOB, Gear_Pin);
 8000784:	f44f 4180 	mov.w	r1, #16384	; 0x4000
 8000788:	481e      	ldr	r0, [pc, #120]	; (8000804 <Gear_Brake_taskF+0x94>)
 800078a:	f002 fbbf 	bl	8002f0c <HAL_GPIO_ReadPin>
 800078e:	4603      	mov	r3, r0
 8000790:	461a      	mov	r2, r3
 8000792:	4b1d      	ldr	r3, [pc, #116]	; (8000808 <Gear_Brake_taskF+0x98>)
 8000794:	701a      	strb	r2, [r3, #0]
		brake = HAL_GPIO_ReadPin(GPIOB, Brake_Pin);
 8000796:	f44f 4100 	mov.w	r1, #32768	; 0x8000
 800079a:	481a      	ldr	r0, [pc, #104]	; (8000804 <Gear_Brake_taskF+0x94>)
 800079c:	f002 fbb6 	bl	8002f0c <HAL_GPIO_ReadPin>
 80007a0:	4603      	mov	r3, r0
 80007a2:	461a      	mov	r2, r3
 80007a4:	4b19      	ldr	r3, [pc, #100]	; (800080c <Gear_Brake_taskF+0x9c>)
 80007a6:	701a      	strb	r2, [r3, #0]
		uint8_t GBbuff[2];
		GBbuff[0] = gear;
 80007a8:	4b17      	ldr	r3, [pc, #92]	; (8000808 <Gear_Brake_taskF+0x98>)
 80007aa:	781b      	ldrb	r3, [r3, #0]
 80007ac:	f887 3024 	strb.w	r3, [r7, #36]	; 0x24
		GBbuff[1] = brake;
 80007b0:	4b16      	ldr	r3, [pc, #88]	; (800080c <Gear_Brake_taskF+0x9c>)
 80007b2:	781b      	ldrb	r3, [r3, #0]
 80007b4:	f887 3025 	strb.w	r3, [r7, #37]	; 0x25

		buffer[0] = gear;
 80007b8:	4b13      	ldr	r3, [pc, #76]	; (8000808 <Gear_Brake_taskF+0x98>)
 80007ba:	781a      	ldrb	r2, [r3, #0]
 80007bc:	4b14      	ldr	r3, [pc, #80]	; (8000810 <Gear_Brake_taskF+0xa0>)
 80007be:	701a      	strb	r2, [r3, #0]
		buffer[1] = brake;
 80007c0:	4b12      	ldr	r3, [pc, #72]	; (800080c <Gear_Brake_taskF+0x9c>)
 80007c2:	781a      	ldrb	r2, [r3, #0]
 80007c4:	4b12      	ldr	r3, [pc, #72]	; (8000810 <Gear_Brake_taskF+0xa0>)
 80007c6:	705a      	strb	r2, [r3, #1]
		uint32_t TxMailbox;

		CAN_TxHeaderTypeDef GBHeader;

		GBHeader.DLC = 2;
 80007c8:	2302      	movs	r3, #2
 80007ca:	61bb      	str	r3, [r7, #24]
		GBHeader.StdId = 0x657;
 80007cc:	f240 6357 	movw	r3, #1623	; 0x657
 80007d0:	60bb      	str	r3, [r7, #8]
		GBHeader.IDE = CAN_ID_STD;
 80007d2:	2300      	movs	r3, #0
 80007d4:	613b      	str	r3, [r7, #16]
		GBHeader.RTR = CAN_RTR_DATA;
 80007d6:	2300      	movs	r3, #0
 80007d8:	617b      	str	r3, [r7, #20]

		if (HAL_CAN_AddTxMessage(&hcan, &GBHeader, GBbuff, &TxMailbox)
 80007da:	f107 0320 	add.w	r3, r7, #32
 80007de:	f107 0224 	add.w	r2, r7, #36	; 0x24
 80007e2:	f107 0108 	add.w	r1, r7, #8
 80007e6:	480b      	ldr	r0, [pc, #44]	; (8000814 <Gear_Brake_taskF+0xa4>)
 80007e8:	f001 fac4 	bl	8001d74 <HAL_CAN_AddTxMessage>
 80007ec:	4603      	mov	r3, r0
 80007ee:	2b00      	cmp	r3, #0
 80007f0:	d001      	beq.n	80007f6 <Gear_Brake_taskF+0x86>
				!= HAL_OK) {
			Error_Handler();
 80007f2:	f000 f973 	bl	8000adc <Error_Handler>
		}
		vTaskDelayUntil(&xLastWakeTime, xFrequency); /*100Hz frequency*/
 80007f6:	f107 0328 	add.w	r3, r7, #40	; 0x28
 80007fa:	6af9      	ldr	r1, [r7, #44]	; 0x2c
 80007fc:	4618      	mov	r0, r3
 80007fe:	f004 fd7b 	bl	80052f8 <vTaskDelayUntil>
	while (1) {
 8000802:	e7bf      	b.n	8000784 <Gear_Brake_taskF+0x14>
 8000804:	40010c00 	.word	0x40010c00
 8000808:	20001c24 	.word	0x20001c24
 800080c:	20001e0c 	.word	0x20001e0c
 8000810:	20001d2c 	.word	0x20001d2c
 8000814:	20001c7c 	.word	0x20001c7c

08000818 <Gas_taskF>:
	}
}

/*Gas pedal Read Task */
void Gas_taskF(void *pvParameters) {
 8000818:	b580      	push	{r7, lr}
 800081a:	b08c      	sub	sp, #48	; 0x30
 800081c:	af00      	add	r7, sp, #0
 800081e:	6078      	str	r0, [r7, #4]
	TickType_t xLastWakeTime;
	const TickType_t xFrequency = 10;  //Ticks to wait since routine starts
 8000820:	230a      	movs	r3, #10
 8000822:	62fb      	str	r3, [r7, #44]	; 0x2c
	xLastWakeTime = xTaskGetTickCount();
 8000824:	f005 f826 	bl	8005874 <xTaskGetTickCount>
 8000828:	4603      	mov	r3, r0
 800082a:	62bb      	str	r3, [r7, #40]	; 0x28
	while (1) {
		uint8_t gasbuff[2];
		gasbuff[0] = (uint8_t) (gas[0] >> 8) & 0xFF;
 800082c:	4b18      	ldr	r3, [pc, #96]	; (8000890 <Gas_taskF+0x78>)
 800082e:	881b      	ldrh	r3, [r3, #0]
 8000830:	0a1b      	lsrs	r3, r3, #8
 8000832:	b29b      	uxth	r3, r3
 8000834:	b2db      	uxtb	r3, r3
 8000836:	f887 3024 	strb.w	r3, [r7, #36]	; 0x24
		gasbuff[1] = (uint8_t) gas[0] & 0xFF;
 800083a:	4b15      	ldr	r3, [pc, #84]	; (8000890 <Gas_taskF+0x78>)
 800083c:	881b      	ldrh	r3, [r3, #0]
 800083e:	b2db      	uxtb	r3, r3
 8000840:	f887 3025 	strb.w	r3, [r7, #37]	; 0x25

		buffer[2] = gasbuff[0];
 8000844:	f897 2024 	ldrb.w	r2, [r7, #36]	; 0x24
 8000848:	4b12      	ldr	r3, [pc, #72]	; (8000894 <Gas_taskF+0x7c>)
 800084a:	709a      	strb	r2, [r3, #2]
		buffer[3] = gasbuff[1];
 800084c:	f897 2025 	ldrb.w	r2, [r7, #37]	; 0x25
 8000850:	4b10      	ldr	r3, [pc, #64]	; (8000894 <Gas_taskF+0x7c>)
 8000852:	70da      	strb	r2, [r3, #3]

		uint32_t TxMailbox;

		CAN_TxHeaderTypeDef GasHeader;

		GasHeader.DLC = 2;
 8000854:	2302      	movs	r3, #2
 8000856:	61bb      	str	r3, [r7, #24]
		GasHeader.StdId = 0x656;
 8000858:	f240 6356 	movw	r3, #1622	; 0x656
 800085c:	60bb      	str	r3, [r7, #8]
		GasHeader.IDE = CAN_ID_STD;
 800085e:	2300      	movs	r3, #0
 8000860:	613b      	str	r3, [r7, #16]
		GasHeader.RTR = CAN_RTR_DATA;
 8000862:	2300      	movs	r3, #0
 8000864:	617b      	str	r3, [r7, #20]

		if (HAL_CAN_AddTxMessage(&hcan, &GasHeader, gasbuff, &TxMailbox)
 8000866:	f107 0320 	add.w	r3, r7, #32
 800086a:	f107 0224 	add.w	r2, r7, #36	; 0x24
 800086e:	f107 0108 	add.w	r1, r7, #8
 8000872:	4809      	ldr	r0, [pc, #36]	; (8000898 <Gas_taskF+0x80>)
 8000874:	f001 fa7e 	bl	8001d74 <HAL_CAN_AddTxMessage>
 8000878:	4603      	mov	r3, r0
 800087a:	2b00      	cmp	r3, #0
 800087c:	d001      	beq.n	8000882 <Gas_taskF+0x6a>
				!= HAL_OK) {
			Error_Handler();
 800087e:	f000 f92d 	bl	8000adc <Error_Handler>
		}
		vTaskDelayUntil(&xLastWakeTime, xFrequency); /*100Hz frequency*/
 8000882:	f107 0328 	add.w	r3, r7, #40	; 0x28
 8000886:	6af9      	ldr	r1, [r7, #44]	; 0x2c
 8000888:	4618      	mov	r0, r3
 800088a:	f004 fd35 	bl	80052f8 <vTaskDelayUntil>
	while (1) {
 800088e:	e7cd      	b.n	800082c <Gas_taskF+0x14>
 8000890:	20001da0 	.word	0x20001da0
 8000894:	20001d2c 	.word	0x20001d2c
 8000898:	20001c7c 	.word	0x20001c7c

0800089c <Logger_taskF>:
	}
}

/*Logger Write Task  --- THIS TASK NEEDS TO IMPLEMENT START AND STOP LOG FUNCTIONS*/
void Logger_taskF(void *pvParameters) {
 800089c:	b580      	push	{r7, lr}
 800089e:	b086      	sub	sp, #24
 80008a0:	af02      	add	r7, sp, #8
 80008a2:	6078      	str	r0, [r7, #4]
	TickType_t xLastWakeTime;
	const TickType_t xFrequency = 100;  //Ticks to wait since routine starts
 80008a4:	2364      	movs	r3, #100	; 0x64
 80008a6:	60fb      	str	r3, [r7, #12]
	xLastWakeTime = xTaskGetTickCount();
 80008a8:	f004 ffe4 	bl	8005874 <xTaskGetTickCount>
 80008ac:	4603      	mov	r3, r0
 80008ae:	60bb      	str	r3, [r7, #8]
	while (1) {
		if (startLOG == 1) {
 80008b0:	4b28      	ldr	r3, [pc, #160]	; (8000954 <Logger_taskF+0xb8>)
 80008b2:	781b      	ldrb	r3, [r3, #0]
 80008b4:	2b01      	cmp	r3, #1
 80008b6:	d11c      	bne.n	80008f2 <Logger_taskF+0x56>
			startLOG = 0;
 80008b8:	4b26      	ldr	r3, [pc, #152]	; (8000954 <Logger_taskF+0xb8>)
 80008ba:	2200      	movs	r2, #0
 80008bc:	701a      	strb	r2, [r3, #0]
			bsl[1] = 0xAA;
 80008be:	4b26      	ldr	r3, [pc, #152]	; (8000958 <Logger_taskF+0xbc>)
 80008c0:	22aa      	movs	r2, #170	; 0xaa
 80008c2:	705a      	strb	r2, [r3, #1]
			bsl[11] = 0xBB;
 80008c4:	4b24      	ldr	r3, [pc, #144]	; (8000958 <Logger_taskF+0xbc>)
 80008c6:	22bb      	movs	r2, #187	; 0xbb
 80008c8:	72da      	strb	r2, [r3, #11]
			bsl[21] = 0xCC;
 80008ca:	4b23      	ldr	r3, [pc, #140]	; (8000958 <Logger_taskF+0xbc>)
 80008cc:	22cc      	movs	r2, #204	; 0xcc
 80008ce:	755a      	strb	r2, [r3, #21]
			bsl[0] = 0x00;
 80008d0:	4b21      	ldr	r3, [pc, #132]	; (8000958 <Logger_taskF+0xbc>)
 80008d2:	2200      	movs	r2, #0
 80008d4:	701a      	strb	r2, [r3, #0]
			bsl[10] = 0x00;
 80008d6:	4b20      	ldr	r3, [pc, #128]	; (8000958 <Logger_taskF+0xbc>)
 80008d8:	2200      	movs	r2, #0
 80008da:	729a      	strb	r2, [r3, #10]
			bsl[20] = 0x00;
 80008dc:	4b1e      	ldr	r3, [pc, #120]	; (8000958 <Logger_taskF+0xbc>)
 80008de:	2200      	movs	r2, #0
 80008e0:	751a      	strb	r2, [r3, #20]
			HAL_I2C_Master_Transmit(&hi2c1, (0x08 << 1), bsl, 22, 10);
 80008e2:	230a      	movs	r3, #10
 80008e4:	9300      	str	r3, [sp, #0]
 80008e6:	2316      	movs	r3, #22
 80008e8:	4a1b      	ldr	r2, [pc, #108]	; (8000958 <Logger_taskF+0xbc>)
 80008ea:	2110      	movs	r1, #16
 80008ec:	481b      	ldr	r0, [pc, #108]	; (800095c <Logger_taskF+0xc0>)
 80008ee:	f002 fc4d 	bl	800318c <HAL_I2C_Master_Transmit>
		}
		if (stopLOG == 1) {
 80008f2:	4b1b      	ldr	r3, [pc, #108]	; (8000960 <Logger_taskF+0xc4>)
 80008f4:	781b      	ldrb	r3, [r3, #0]
 80008f6:	2b01      	cmp	r3, #1
 80008f8:	d11c      	bne.n	8000934 <Logger_taskF+0x98>
			stopLOG = 0;
 80008fa:	4b19      	ldr	r3, [pc, #100]	; (8000960 <Logger_taskF+0xc4>)
 80008fc:	2200      	movs	r2, #0
 80008fe:	701a      	strb	r2, [r3, #0]
			bsl[0] = 0xDD;
 8000900:	4b15      	ldr	r3, [pc, #84]	; (8000958 <Logger_taskF+0xbc>)
 8000902:	22dd      	movs	r2, #221	; 0xdd
 8000904:	701a      	strb	r2, [r3, #0]
			bsl[10] = 0xEE;
 8000906:	4b14      	ldr	r3, [pc, #80]	; (8000958 <Logger_taskF+0xbc>)
 8000908:	22ee      	movs	r2, #238	; 0xee
 800090a:	729a      	strb	r2, [r3, #10]
			bsl[20] = 0xFF;
 800090c:	4b12      	ldr	r3, [pc, #72]	; (8000958 <Logger_taskF+0xbc>)
 800090e:	22ff      	movs	r2, #255	; 0xff
 8000910:	751a      	strb	r2, [r3, #20]
			bsl[1] = 0x00;
 8000912:	4b11      	ldr	r3, [pc, #68]	; (8000958 <Logger_taskF+0xbc>)
 8000914:	2200      	movs	r2, #0
 8000916:	705a      	strb	r2, [r3, #1]
			bsl[11] = 0x00;
 8000918:	4b0f      	ldr	r3, [pc, #60]	; (8000958 <Logger_taskF+0xbc>)
 800091a:	2200      	movs	r2, #0
 800091c:	72da      	strb	r2, [r3, #11]
			bsl[21] = 0x00;
 800091e:	4b0e      	ldr	r3, [pc, #56]	; (8000958 <Logger_taskF+0xbc>)
 8000920:	2200      	movs	r2, #0
 8000922:	755a      	strb	r2, [r3, #21]
			HAL_I2C_Master_Transmit(&hi2c1, (0x08 << 1), bsl, 22, 10);
 8000924:	230a      	movs	r3, #10
 8000926:	9300      	str	r3, [sp, #0]
 8000928:	2316      	movs	r3, #22
 800092a:	4a0b      	ldr	r2, [pc, #44]	; (8000958 <Logger_taskF+0xbc>)
 800092c:	2110      	movs	r1, #16
 800092e:	480b      	ldr	r0, [pc, #44]	; (800095c <Logger_taskF+0xc0>)
 8000930:	f002 fc2c 	bl	800318c <HAL_I2C_Master_Transmit>
		}
		HAL_I2C_Master_Transmit(&hi2c1, (0x08 << 1), buffer, 22, 10);
 8000934:	230a      	movs	r3, #10
 8000936:	9300      	str	r3, [sp, #0]
 8000938:	2316      	movs	r3, #22
 800093a:	4a0a      	ldr	r2, [pc, #40]	; (8000964 <Logger_taskF+0xc8>)
 800093c:	2110      	movs	r1, #16
 800093e:	4807      	ldr	r0, [pc, #28]	; (800095c <Logger_taskF+0xc0>)
 8000940:	f002 fc24 	bl	800318c <HAL_I2C_Master_Transmit>
		vTaskDelayUntil(&xLastWakeTime, xFrequency); /*100Hz frequency*/
 8000944:	f107 0308 	add.w	r3, r7, #8
 8000948:	68f9      	ldr	r1, [r7, #12]
 800094a:	4618      	mov	r0, r3
 800094c:	f004 fcd4 	bl	80052f8 <vTaskDelayUntil>
		if (startLOG == 1) {
 8000950:	e7ae      	b.n	80008b0 <Logger_taskF+0x14>
 8000952:	bf00      	nop
 8000954:	20000284 	.word	0x20000284
 8000958:	20001ca4 	.word	0x20001ca4
 800095c:	20001c28 	.word	0x20001c28
 8000960:	20000285 	.word	0x20000285
 8000964:	20001d2c 	.word	0x20001d2c

08000968 <Telemetry_taskF>:
	}
}

/*LoRa Transceiver Write Task*/
void Telemetry_taskF(void *pvParameters) {
 8000968:	b580      	push	{r7, lr}
 800096a:	b086      	sub	sp, #24
 800096c:	af00      	add	r7, sp, #0
 800096e:	6078      	str	r0, [r7, #4]
	TickType_t xLastWakeTime;
	const TickType_t xFrequency = 100;
 8000970:	2364      	movs	r3, #100	; 0x64
 8000972:	613b      	str	r3, [r7, #16]
	xLastWakeTime = xTaskGetTickCount();
 8000974:	f004 ff7e 	bl	8005874 <xTaskGetTickCount>
 8000978:	4603      	mov	r3, r0
 800097a:	60fb      	str	r3, [r7, #12]
	while (1) {
		LoRa[0] = sync;
 800097c:	4b11      	ldr	r3, [pc, #68]	; (80009c4 <Telemetry_taskF+0x5c>)
 800097e:	781a      	ldrb	r2, [r3, #0]
 8000980:	4b11      	ldr	r3, [pc, #68]	; (80009c8 <Telemetry_taskF+0x60>)
 8000982:	701a      	strb	r2, [r3, #0]
		for (int y = 1; y < 23; y++) {
 8000984:	2301      	movs	r3, #1
 8000986:	617b      	str	r3, [r7, #20]
 8000988:	e00b      	b.n	80009a2 <Telemetry_taskF+0x3a>
			LoRa[y] = buffer[y - 1];
 800098a:	697b      	ldr	r3, [r7, #20]
 800098c:	3b01      	subs	r3, #1
 800098e:	4a0f      	ldr	r2, [pc, #60]	; (80009cc <Telemetry_taskF+0x64>)
 8000990:	5cd1      	ldrb	r1, [r2, r3]
 8000992:	4a0d      	ldr	r2, [pc, #52]	; (80009c8 <Telemetry_taskF+0x60>)
 8000994:	697b      	ldr	r3, [r7, #20]
 8000996:	4413      	add	r3, r2
 8000998:	460a      	mov	r2, r1
 800099a:	701a      	strb	r2, [r3, #0]
		for (int y = 1; y < 23; y++) {
 800099c:	697b      	ldr	r3, [r7, #20]
 800099e:	3301      	adds	r3, #1
 80009a0:	617b      	str	r3, [r7, #20]
 80009a2:	697b      	ldr	r3, [r7, #20]
 80009a4:	2b16      	cmp	r3, #22
 80009a6:	ddf0      	ble.n	800098a <Telemetry_taskF+0x22>
		}
		HAL_UART_Transmit(&huart1, LoRa, 23, 100);
 80009a8:	2364      	movs	r3, #100	; 0x64
 80009aa:	2217      	movs	r2, #23
 80009ac:	4906      	ldr	r1, [pc, #24]	; (80009c8 <Telemetry_taskF+0x60>)
 80009ae:	4808      	ldr	r0, [pc, #32]	; (80009d0 <Telemetry_taskF+0x68>)
 80009b0:	f003 fe2d 	bl	800460e <HAL_UART_Transmit>
		vTaskDelayUntil(&xLastWakeTime, xFrequency); /*10Hz frequency*/
 80009b4:	f107 030c 	add.w	r3, r7, #12
 80009b8:	6939      	ldr	r1, [r7, #16]
 80009ba:	4618      	mov	r0, r3
 80009bc:	f004 fc9c 	bl	80052f8 <vTaskDelayUntil>
		LoRa[0] = sync;
 80009c0:	e7dc      	b.n	800097c <Telemetry_taskF+0x14>
 80009c2:	bf00      	nop
 80009c4:	20000000 	.word	0x20000000
 80009c8:	20001d44 	.word	0x20001d44
 80009cc:	20001d2c 	.word	0x20001d2c
 80009d0:	20001cec 	.word	0x20001cec

080009d4 <HAL_CAN_RxFifo0MsgPendingCallback>:
	}
}

/*CAN Read Callback -- THIS FUNCTION NEEDS TO IMPLEMENT START AND STOP LOG MESSAGES  */
void HAL_CAN_RxFifo0MsgPendingCallback(CAN_HandleTypeDef *hcan) {
 80009d4:	b580      	push	{r7, lr}
 80009d6:	b08c      	sub	sp, #48	; 0x30
 80009d8:	af00      	add	r7, sp, #0
 80009da:	6078      	str	r0, [r7, #4]
	CAN_RxHeaderTypeDef RxHeader;
	uint8_t rcv_msg[8];
	if (HAL_CAN_GetRxMessage(hcan, CAN_RX_FIFO0, &RxHeader, rcv_msg)
 80009dc:	f107 030c 	add.w	r3, r7, #12
 80009e0:	f107 0214 	add.w	r2, r7, #20
 80009e4:	2100      	movs	r1, #0
 80009e6:	6878      	ldr	r0, [r7, #4]
 80009e8:	f001 fa9e 	bl	8001f28 <HAL_CAN_GetRxMessage>
 80009ec:	4603      	mov	r3, r0
 80009ee:	2b00      	cmp	r3, #0
 80009f0:	d001      	beq.n	80009f6 <HAL_CAN_RxFifo0MsgPendingCallback+0x22>
			!= HAL_OK) {
		Error_Handler();
 80009f2:	f000 f873 	bl	8000adc <Error_Handler>
	}

	if (RxHeader.StdId == 0x64E) {
 80009f6:	697b      	ldr	r3, [r7, #20]
 80009f8:	f240 624e 	movw	r2, #1614	; 0x64e
 80009fc:	4293      	cmp	r3, r2
 80009fe:	d102      	bne.n	8000a06 <HAL_CAN_RxFifo0MsgPendingCallback+0x32>
		//if (rcv_msg[0] == 0x55) {
		startLOG = 1;
 8000a00:	4b2a      	ldr	r3, [pc, #168]	; (8000aac <HAL_CAN_RxFifo0MsgPendingCallback+0xd8>)
 8000a02:	2201      	movs	r2, #1
 8000a04:	701a      	strb	r2, [r3, #0]
		//}
	}

	if (RxHeader.StdId == 0x64F) {
 8000a06:	697b      	ldr	r3, [r7, #20]
 8000a08:	f240 624f 	movw	r2, #1615	; 0x64f
 8000a0c:	4293      	cmp	r3, r2
 8000a0e:	d102      	bne.n	8000a16 <HAL_CAN_RxFifo0MsgPendingCallback+0x42>
		//if (rcv_msg[0] == 0x66) {
		stopLOG = 1;
 8000a10:	4b27      	ldr	r3, [pc, #156]	; (8000ab0 <HAL_CAN_RxFifo0MsgPendingCallback+0xdc>)
 8000a12:	2201      	movs	r2, #1
 8000a14:	701a      	strb	r2, [r3, #0]
		//}
	}

	if (RxHeader.StdId == 0x650) {
 8000a16:	697b      	ldr	r3, [r7, #20]
 8000a18:	f5b3 6fca 	cmp.w	r3, #1616	; 0x650
 8000a1c:	d105      	bne.n	8000a2a <HAL_CAN_RxFifo0MsgPendingCallback+0x56>
		buffer[4] = rcv_msg[0];
 8000a1e:	7b3a      	ldrb	r2, [r7, #12]
 8000a20:	4b24      	ldr	r3, [pc, #144]	; (8000ab4 <HAL_CAN_RxFifo0MsgPendingCallback+0xe0>)
 8000a22:	711a      	strb	r2, [r3, #4]
		buffer[5] = rcv_msg[1];
 8000a24:	7b7a      	ldrb	r2, [r7, #13]
 8000a26:	4b23      	ldr	r3, [pc, #140]	; (8000ab4 <HAL_CAN_RxFifo0MsgPendingCallback+0xe0>)
 8000a28:	715a      	strb	r2, [r3, #5]
	}

	if (RxHeader.StdId == 0x651) {
 8000a2a:	697b      	ldr	r3, [r7, #20]
 8000a2c:	f240 6251 	movw	r2, #1617	; 0x651
 8000a30:	4293      	cmp	r3, r2
 8000a32:	d105      	bne.n	8000a40 <HAL_CAN_RxFifo0MsgPendingCallback+0x6c>
		buffer[6] = rcv_msg[0];
 8000a34:	7b3a      	ldrb	r2, [r7, #12]
 8000a36:	4b1f      	ldr	r3, [pc, #124]	; (8000ab4 <HAL_CAN_RxFifo0MsgPendingCallback+0xe0>)
 8000a38:	719a      	strb	r2, [r3, #6]
		buffer[7] = rcv_msg[1];
 8000a3a:	7b7a      	ldrb	r2, [r7, #13]
 8000a3c:	4b1d      	ldr	r3, [pc, #116]	; (8000ab4 <HAL_CAN_RxFifo0MsgPendingCallback+0xe0>)
 8000a3e:	71da      	strb	r2, [r3, #7]
	}

	if (RxHeader.StdId == 0x652) {
 8000a40:	697b      	ldr	r3, [r7, #20]
 8000a42:	f240 6252 	movw	r2, #1618	; 0x652
 8000a46:	4293      	cmp	r3, r2
 8000a48:	d105      	bne.n	8000a56 <HAL_CAN_RxFifo0MsgPendingCallback+0x82>
		buffer[8] = rcv_msg[0];
 8000a4a:	7b3a      	ldrb	r2, [r7, #12]
 8000a4c:	4b19      	ldr	r3, [pc, #100]	; (8000ab4 <HAL_CAN_RxFifo0MsgPendingCallback+0xe0>)
 8000a4e:	721a      	strb	r2, [r3, #8]
		buffer[9] = rcv_msg[1];
 8000a50:	7b7a      	ldrb	r2, [r7, #13]
 8000a52:	4b18      	ldr	r3, [pc, #96]	; (8000ab4 <HAL_CAN_RxFifo0MsgPendingCallback+0xe0>)
 8000a54:	725a      	strb	r2, [r3, #9]
	}

	if (RxHeader.StdId == 0x653) {
 8000a56:	697b      	ldr	r3, [r7, #20]
 8000a58:	f240 6253 	movw	r2, #1619	; 0x653
 8000a5c:	4293      	cmp	r3, r2
 8000a5e:	d105      	bne.n	8000a6c <HAL_CAN_RxFifo0MsgPendingCallback+0x98>
		buffer[10] = rcv_msg[0];
 8000a60:	7b3a      	ldrb	r2, [r7, #12]
 8000a62:	4b14      	ldr	r3, [pc, #80]	; (8000ab4 <HAL_CAN_RxFifo0MsgPendingCallback+0xe0>)
 8000a64:	729a      	strb	r2, [r3, #10]
		buffer[11] = rcv_msg[1];
 8000a66:	7b7a      	ldrb	r2, [r7, #13]
 8000a68:	4b12      	ldr	r3, [pc, #72]	; (8000ab4 <HAL_CAN_RxFifo0MsgPendingCallback+0xe0>)
 8000a6a:	72da      	strb	r2, [r3, #11]
	}

	if (RxHeader.StdId == 0x654) {
 8000a6c:	697b      	ldr	r3, [r7, #20]
 8000a6e:	f240 6254 	movw	r2, #1620	; 0x654
 8000a72:	4293      	cmp	r3, r2
 8000a74:	d105      	bne.n	8000a82 <HAL_CAN_RxFifo0MsgPendingCallback+0xae>
		buffer[12] = rcv_msg[0];
 8000a76:	7b3a      	ldrb	r2, [r7, #12]
 8000a78:	4b0e      	ldr	r3, [pc, #56]	; (8000ab4 <HAL_CAN_RxFifo0MsgPendingCallback+0xe0>)
 8000a7a:	731a      	strb	r2, [r3, #12]
		buffer[13] = rcv_msg[1];
 8000a7c:	7b7a      	ldrb	r2, [r7, #13]
 8000a7e:	4b0d      	ldr	r3, [pc, #52]	; (8000ab4 <HAL_CAN_RxFifo0MsgPendingCallback+0xe0>)
 8000a80:	735a      	strb	r2, [r3, #13]
	}

	if (RxHeader.StdId == 0x655) {
 8000a82:	697b      	ldr	r3, [r7, #20]
 8000a84:	f240 6255 	movw	r2, #1621	; 0x655
 8000a88:	4293      	cmp	r3, r2
 8000a8a:	d10b      	bne.n	8000aa4 <HAL_CAN_RxFifo0MsgPendingCallback+0xd0>
		buffer[14] = rcv_msg[0];
 8000a8c:	7b3a      	ldrb	r2, [r7, #12]
 8000a8e:	4b09      	ldr	r3, [pc, #36]	; (8000ab4 <HAL_CAN_RxFifo0MsgPendingCallback+0xe0>)
 8000a90:	739a      	strb	r2, [r3, #14]
		buffer[15] = rcv_msg[1];
 8000a92:	7b7a      	ldrb	r2, [r7, #13]
 8000a94:	4b07      	ldr	r3, [pc, #28]	; (8000ab4 <HAL_CAN_RxFifo0MsgPendingCallback+0xe0>)
 8000a96:	73da      	strb	r2, [r3, #15]
		buffer[16] = rcv_msg[2];
 8000a98:	7bba      	ldrb	r2, [r7, #14]
 8000a9a:	4b06      	ldr	r3, [pc, #24]	; (8000ab4 <HAL_CAN_RxFifo0MsgPendingCallback+0xe0>)
 8000a9c:	741a      	strb	r2, [r3, #16]
		buffer[17] = rcv_msg[3];
 8000a9e:	7bfa      	ldrb	r2, [r7, #15]
 8000aa0:	4b04      	ldr	r3, [pc, #16]	; (8000ab4 <HAL_CAN_RxFifo0MsgPendingCallback+0xe0>)
 8000aa2:	745a      	strb	r2, [r3, #17]
	}

}
 8000aa4:	bf00      	nop
 8000aa6:	3730      	adds	r7, #48	; 0x30
 8000aa8:	46bd      	mov	sp, r7
 8000aaa:	bd80      	pop	{r7, pc}
 8000aac:	20000284 	.word	0x20000284
 8000ab0:	20000285 	.word	0x20000285
 8000ab4:	20001d2c 	.word	0x20001d2c

08000ab8 <HAL_TIM_PeriodElapsedCallback>:
 * HAL_TIM_IRQHandler(). It makes a direct call to HAL_IncTick() to increment
 * a global variable "uwTick" used as application time base.
 * @param  htim : TIM handle
 * @retval None
 */
void HAL_TIM_PeriodElapsedCallback(TIM_HandleTypeDef *htim) {
 8000ab8:	b580      	push	{r7, lr}
 8000aba:	b082      	sub	sp, #8
 8000abc:	af00      	add	r7, sp, #0
 8000abe:	6078      	str	r0, [r7, #4]
	/* USER CODE BEGIN Callback 0 */

	/* USER CODE END Callback 0 */
	if (htim->Instance == TIM4) {
 8000ac0:	687b      	ldr	r3, [r7, #4]
 8000ac2:	681b      	ldr	r3, [r3, #0]
 8000ac4:	4a04      	ldr	r2, [pc, #16]	; (8000ad8 <HAL_TIM_PeriodElapsedCallback+0x20>)
 8000ac6:	4293      	cmp	r3, r2
 8000ac8:	d101      	bne.n	8000ace <HAL_TIM_PeriodElapsedCallback+0x16>
		HAL_IncTick();
 8000aca:	f000 fb51 	bl	8001170 <HAL_IncTick>
	}
	/* USER CODE BEGIN Callback 1 */

	/* USER CODE END Callback 1 */
}
 8000ace:	bf00      	nop
 8000ad0:	3708      	adds	r7, #8
 8000ad2:	46bd      	mov	sp, r7
 8000ad4:	bd80      	pop	{r7, pc}
 8000ad6:	bf00      	nop
 8000ad8:	40000800 	.word	0x40000800

08000adc <Error_Handler>:

/**
 * @brief  This function is executed in case of error occurrence.
 * @retval None
 */
void Error_Handler(void) {
 8000adc:	b480      	push	{r7}
 8000ade:	af00      	add	r7, sp, #0
	/* USER CODE BEGIN Error_Handler_Debug */
	/* User can add his own implementation to report the HAL error return state */

	/* USER CODE END Error_Handler_Debug */
}
 8000ae0:	bf00      	nop
 8000ae2:	46bd      	mov	sp, r7
 8000ae4:	bc80      	pop	{r7}
 8000ae6:	4770      	bx	lr

08000ae8 <HAL_MspInit>:
/* USER CODE END 0 */
/**
  * Initializes the Global MSP.
  */
void HAL_MspInit(void)
{
 8000ae8:	b580      	push	{r7, lr}
 8000aea:	b084      	sub	sp, #16
 8000aec:	af00      	add	r7, sp, #0
  /* USER CODE BEGIN MspInit 0 */

  /* USER CODE END MspInit 0 */

  __HAL_RCC_AFIO_CLK_ENABLE();
 8000aee:	4b18      	ldr	r3, [pc, #96]	; (8000b50 <HAL_MspInit+0x68>)
 8000af0:	699b      	ldr	r3, [r3, #24]
 8000af2:	4a17      	ldr	r2, [pc, #92]	; (8000b50 <HAL_MspInit+0x68>)
 8000af4:	f043 0301 	orr.w	r3, r3, #1
 8000af8:	6193      	str	r3, [r2, #24]
 8000afa:	4b15      	ldr	r3, [pc, #84]	; (8000b50 <HAL_MspInit+0x68>)
 8000afc:	699b      	ldr	r3, [r3, #24]
 8000afe:	f003 0301 	and.w	r3, r3, #1
 8000b02:	60bb      	str	r3, [r7, #8]
 8000b04:	68bb      	ldr	r3, [r7, #8]
  __HAL_RCC_PWR_CLK_ENABLE();
 8000b06:	4b12      	ldr	r3, [pc, #72]	; (8000b50 <HAL_MspInit+0x68>)
 8000b08:	69db      	ldr	r3, [r3, #28]
 8000b0a:	4a11      	ldr	r2, [pc, #68]	; (8000b50 <HAL_MspInit+0x68>)
 8000b0c:	f043 5380 	orr.w	r3, r3, #268435456	; 0x10000000
 8000b10:	61d3      	str	r3, [r2, #28]
 8000b12:	4b0f      	ldr	r3, [pc, #60]	; (8000b50 <HAL_MspInit+0x68>)
 8000b14:	69db      	ldr	r3, [r3, #28]
 8000b16:	f003 5380 	and.w	r3, r3, #268435456	; 0x10000000
 8000b1a:	607b      	str	r3, [r7, #4]
 8000b1c:	687b      	ldr	r3, [r7, #4]

  /* System interrupt init*/
  /* PendSV_IRQn interrupt configuration */
  HAL_NVIC_SetPriority(PendSV_IRQn, 15, 0);
 8000b1e:	2200      	movs	r2, #0
 8000b20:	210f      	movs	r1, #15
 8000b22:	f06f 0001 	mvn.w	r0, #1
 8000b26:	f001 fe08 	bl	800273a <HAL_NVIC_SetPriority>

  /** NOJTAG: JTAG-DP Disabled and SW-DP Enabled
  */
  __HAL_AFIO_REMAP_SWJ_NOJTAG();
 8000b2a:	4b0a      	ldr	r3, [pc, #40]	; (8000b54 <HAL_MspInit+0x6c>)
 8000b2c:	685b      	ldr	r3, [r3, #4]
 8000b2e:	60fb      	str	r3, [r7, #12]
 8000b30:	68fb      	ldr	r3, [r7, #12]
 8000b32:	f023 63e0 	bic.w	r3, r3, #117440512	; 0x7000000
 8000b36:	60fb      	str	r3, [r7, #12]
 8000b38:	68fb      	ldr	r3, [r7, #12]
 8000b3a:	f043 7300 	orr.w	r3, r3, #33554432	; 0x2000000
 8000b3e:	60fb      	str	r3, [r7, #12]
 8000b40:	4a04      	ldr	r2, [pc, #16]	; (8000b54 <HAL_MspInit+0x6c>)
 8000b42:	68fb      	ldr	r3, [r7, #12]
 8000b44:	6053      	str	r3, [r2, #4]

  /* USER CODE BEGIN MspInit 1 */

  /* USER CODE END MspInit 1 */
}
 8000b46:	bf00      	nop
 8000b48:	3710      	adds	r7, #16
 8000b4a:	46bd      	mov	sp, r7
 8000b4c:	bd80      	pop	{r7, pc}
 8000b4e:	bf00      	nop
 8000b50:	40021000 	.word	0x40021000
 8000b54:	40010000 	.word	0x40010000

08000b58 <HAL_ADC_MspInit>:
* This function configures the hardware resources used in this example
* @param hadc: ADC handle pointer
* @retval None
*/
void HAL_ADC_MspInit(ADC_HandleTypeDef* hadc)
{
 8000b58:	b580      	push	{r7, lr}
 8000b5a:	b088      	sub	sp, #32
 8000b5c:	af00      	add	r7, sp, #0
 8000b5e:	6078      	str	r0, [r7, #4]
  GPIO_InitTypeDef GPIO_InitStruct = {0};
 8000b60:	f107 0310 	add.w	r3, r7, #16
 8000b64:	2200      	movs	r2, #0
 8000b66:	601a      	str	r2, [r3, #0]
 8000b68:	605a      	str	r2, [r3, #4]
 8000b6a:	609a      	str	r2, [r3, #8]
 8000b6c:	60da      	str	r2, [r3, #12]
  if(hadc->Instance==ADC1)
 8000b6e:	687b      	ldr	r3, [r7, #4]
 8000b70:	681b      	ldr	r3, [r3, #0]
 8000b72:	4a28      	ldr	r2, [pc, #160]	; (8000c14 <HAL_ADC_MspInit+0xbc>)
 8000b74:	4293      	cmp	r3, r2
 8000b76:	d149      	bne.n	8000c0c <HAL_ADC_MspInit+0xb4>
  {
  /* USER CODE BEGIN ADC1_MspInit 0 */

  /* USER CODE END ADC1_MspInit 0 */
    /* Peripheral clock enable */
    __HAL_RCC_ADC1_CLK_ENABLE();
 8000b78:	4b27      	ldr	r3, [pc, #156]	; (8000c18 <HAL_ADC_MspInit+0xc0>)
 8000b7a:	699b      	ldr	r3, [r3, #24]
 8000b7c:	4a26      	ldr	r2, [pc, #152]	; (8000c18 <HAL_ADC_MspInit+0xc0>)
 8000b7e:	f443 7300 	orr.w	r3, r3, #512	; 0x200
 8000b82:	6193      	str	r3, [r2, #24]
 8000b84:	4b24      	ldr	r3, [pc, #144]	; (8000c18 <HAL_ADC_MspInit+0xc0>)
 8000b86:	699b      	ldr	r3, [r3, #24]
 8000b88:	f403 7300 	and.w	r3, r3, #512	; 0x200
 8000b8c:	60fb      	str	r3, [r7, #12]
 8000b8e:	68fb      	ldr	r3, [r7, #12]

    __HAL_RCC_GPIOA_CLK_ENABLE();
 8000b90:	4b21      	ldr	r3, [pc, #132]	; (8000c18 <HAL_ADC_MspInit+0xc0>)
 8000b92:	699b      	ldr	r3, [r3, #24]
 8000b94:	4a20      	ldr	r2, [pc, #128]	; (8000c18 <HAL_ADC_MspInit+0xc0>)
 8000b96:	f043 0304 	orr.w	r3, r3, #4
 8000b9a:	6193      	str	r3, [r2, #24]
 8000b9c:	4b1e      	ldr	r3, [pc, #120]	; (8000c18 <HAL_ADC_MspInit+0xc0>)
 8000b9e:	699b      	ldr	r3, [r3, #24]
 8000ba0:	f003 0304 	and.w	r3, r3, #4
 8000ba4:	60bb      	str	r3, [r7, #8]
 8000ba6:	68bb      	ldr	r3, [r7, #8]
    /**ADC1 GPIO Configuration
    PA4     ------> ADC1_IN4
    */
    GPIO_InitStruct.Pin = Gas_Pin;
 8000ba8:	2310      	movs	r3, #16
 8000baa:	613b      	str	r3, [r7, #16]
    GPIO_InitStruct.Mode = GPIO_MODE_ANALOG;
 8000bac:	2303      	movs	r3, #3
 8000bae:	617b      	str	r3, [r7, #20]
    HAL_GPIO_Init(Gas_GPIO_Port, &GPIO_InitStruct);
 8000bb0:	f107 0310 	add.w	r3, r7, #16
 8000bb4:	4619      	mov	r1, r3
 8000bb6:	4819      	ldr	r0, [pc, #100]	; (8000c1c <HAL_ADC_MspInit+0xc4>)
 8000bb8:	f002 f84e 	bl	8002c58 <HAL_GPIO_Init>

    /* ADC1 DMA Init */
    /* ADC1 Init */
    hdma_adc1.Instance = DMA1_Channel1;
 8000bbc:	4b18      	ldr	r3, [pc, #96]	; (8000c20 <HAL_ADC_MspInit+0xc8>)
 8000bbe:	4a19      	ldr	r2, [pc, #100]	; (8000c24 <HAL_ADC_MspInit+0xcc>)
 8000bc0:	601a      	str	r2, [r3, #0]
    hdma_adc1.Init.Direction = DMA_PERIPH_TO_MEMORY;
 8000bc2:	4b17      	ldr	r3, [pc, #92]	; (8000c20 <HAL_ADC_MspInit+0xc8>)
 8000bc4:	2200      	movs	r2, #0
 8000bc6:	605a      	str	r2, [r3, #4]
    hdma_adc1.Init.PeriphInc = DMA_PINC_DISABLE;
 8000bc8:	4b15      	ldr	r3, [pc, #84]	; (8000c20 <HAL_ADC_MspInit+0xc8>)
 8000bca:	2200      	movs	r2, #0
 8000bcc:	609a      	str	r2, [r3, #8]
    hdma_adc1.Init.MemInc = DMA_MINC_ENABLE;
 8000bce:	4b14      	ldr	r3, [pc, #80]	; (8000c20 <HAL_ADC_MspInit+0xc8>)
 8000bd0:	2280      	movs	r2, #128	; 0x80
 8000bd2:	60da      	str	r2, [r3, #12]
    hdma_adc1.Init.PeriphDataAlignment = DMA_PDATAALIGN_HALFWORD;
 8000bd4:	4b12      	ldr	r3, [pc, #72]	; (8000c20 <HAL_ADC_MspInit+0xc8>)
 8000bd6:	f44f 7280 	mov.w	r2, #256	; 0x100
 8000bda:	611a      	str	r2, [r3, #16]
    hdma_adc1.Init.MemDataAlignment = DMA_MDATAALIGN_HALFWORD;
 8000bdc:	4b10      	ldr	r3, [pc, #64]	; (8000c20 <HAL_ADC_MspInit+0xc8>)
 8000bde:	f44f 6280 	mov.w	r2, #1024	; 0x400
 8000be2:	615a      	str	r2, [r3, #20]
    hdma_adc1.Init.Mode = DMA_CIRCULAR;
 8000be4:	4b0e      	ldr	r3, [pc, #56]	; (8000c20 <HAL_ADC_MspInit+0xc8>)
 8000be6:	2220      	movs	r2, #32
 8000be8:	619a      	str	r2, [r3, #24]
    hdma_adc1.Init.Priority = DMA_PRIORITY_LOW;
 8000bea:	4b0d      	ldr	r3, [pc, #52]	; (8000c20 <HAL_ADC_MspInit+0xc8>)
 8000bec:	2200      	movs	r2, #0
 8000bee:	61da      	str	r2, [r3, #28]
    if (HAL_DMA_Init(&hdma_adc1) != HAL_OK)
 8000bf0:	480b      	ldr	r0, [pc, #44]	; (8000c20 <HAL_ADC_MspInit+0xc8>)
 8000bf2:	f001 fdcd 	bl	8002790 <HAL_DMA_Init>
 8000bf6:	4603      	mov	r3, r0
 8000bf8:	2b00      	cmp	r3, #0
 8000bfa:	d001      	beq.n	8000c00 <HAL_ADC_MspInit+0xa8>
    {
      Error_Handler();
 8000bfc:	f7ff ff6e 	bl	8000adc <Error_Handler>
    }

    __HAL_LINKDMA(hadc,DMA_Handle,hdma_adc1);
 8000c00:	687b      	ldr	r3, [r7, #4]
 8000c02:	4a07      	ldr	r2, [pc, #28]	; (8000c20 <HAL_ADC_MspInit+0xc8>)
 8000c04:	621a      	str	r2, [r3, #32]
 8000c06:	4a06      	ldr	r2, [pc, #24]	; (8000c20 <HAL_ADC_MspInit+0xc8>)
 8000c08:	687b      	ldr	r3, [r7, #4]
 8000c0a:	6253      	str	r3, [r2, #36]	; 0x24
  /* USER CODE BEGIN ADC1_MspInit 1 */

  /* USER CODE END ADC1_MspInit 1 */
  }

}
 8000c0c:	bf00      	nop
 8000c0e:	3720      	adds	r7, #32
 8000c10:	46bd      	mov	sp, r7
 8000c12:	bd80      	pop	{r7, pc}
 8000c14:	40012400 	.word	0x40012400
 8000c18:	40021000 	.word	0x40021000
 8000c1c:	40010800 	.word	0x40010800
 8000c20:	20001d5c 	.word	0x20001d5c
 8000c24:	40020008 	.word	0x40020008

08000c28 <HAL_CAN_MspInit>:
* This function configures the hardware resources used in this example
* @param hcan: CAN handle pointer
* @retval None
*/
void HAL_CAN_MspInit(CAN_HandleTypeDef* hcan)
{
 8000c28:	b580      	push	{r7, lr}
 8000c2a:	b08a      	sub	sp, #40	; 0x28
 8000c2c:	af00      	add	r7, sp, #0
 8000c2e:	6078      	str	r0, [r7, #4]
  GPIO_InitTypeDef GPIO_InitStruct = {0};
 8000c30:	f107 0314 	add.w	r3, r7, #20
 8000c34:	2200      	movs	r2, #0
 8000c36:	601a      	str	r2, [r3, #0]
 8000c38:	605a      	str	r2, [r3, #4]
 8000c3a:	609a      	str	r2, [r3, #8]
 8000c3c:	60da      	str	r2, [r3, #12]
  if(hcan->Instance==CAN1)
 8000c3e:	687b      	ldr	r3, [r7, #4]
 8000c40:	681b      	ldr	r3, [r3, #0]
 8000c42:	4a35      	ldr	r2, [pc, #212]	; (8000d18 <HAL_CAN_MspInit+0xf0>)
 8000c44:	4293      	cmp	r3, r2
 8000c46:	d163      	bne.n	8000d10 <HAL_CAN_MspInit+0xe8>
  {
  /* USER CODE BEGIN CAN1_MspInit 0 */

  /* USER CODE END CAN1_MspInit 0 */
    /* Peripheral clock enable */
    __HAL_RCC_CAN1_CLK_ENABLE();
 8000c48:	4b34      	ldr	r3, [pc, #208]	; (8000d1c <HAL_CAN_MspInit+0xf4>)
 8000c4a:	69db      	ldr	r3, [r3, #28]
 8000c4c:	4a33      	ldr	r2, [pc, #204]	; (8000d1c <HAL_CAN_MspInit+0xf4>)
 8000c4e:	f043 7300 	orr.w	r3, r3, #33554432	; 0x2000000
 8000c52:	61d3      	str	r3, [r2, #28]
 8000c54:	4b31      	ldr	r3, [pc, #196]	; (8000d1c <HAL_CAN_MspInit+0xf4>)
 8000c56:	69db      	ldr	r3, [r3, #28]
 8000c58:	f003 7300 	and.w	r3, r3, #33554432	; 0x2000000
 8000c5c:	613b      	str	r3, [r7, #16]
 8000c5e:	693b      	ldr	r3, [r7, #16]

    __HAL_RCC_GPIOB_CLK_ENABLE();
 8000c60:	4b2e      	ldr	r3, [pc, #184]	; (8000d1c <HAL_CAN_MspInit+0xf4>)
 8000c62:	699b      	ldr	r3, [r3, #24]
 8000c64:	4a2d      	ldr	r2, [pc, #180]	; (8000d1c <HAL_CAN_MspInit+0xf4>)
 8000c66:	f043 0308 	orr.w	r3, r3, #8
 8000c6a:	6193      	str	r3, [r2, #24]
 8000c6c:	4b2b      	ldr	r3, [pc, #172]	; (8000d1c <HAL_CAN_MspInit+0xf4>)
 8000c6e:	699b      	ldr	r3, [r3, #24]
 8000c70:	f003 0308 	and.w	r3, r3, #8
 8000c74:	60fb      	str	r3, [r7, #12]
 8000c76:	68fb      	ldr	r3, [r7, #12]
    /**CAN GPIO Configuration
    PB8     ------> CAN_RX
    PB9     ------> CAN_TX
    */
    GPIO_InitStruct.Pin = GPIO_PIN_8;
 8000c78:	f44f 7380 	mov.w	r3, #256	; 0x100
 8000c7c:	617b      	str	r3, [r7, #20]
    GPIO_InitStruct.Mode = GPIO_MODE_INPUT;
 8000c7e:	2300      	movs	r3, #0
 8000c80:	61bb      	str	r3, [r7, #24]
    GPIO_InitStruct.Pull = GPIO_NOPULL;
 8000c82:	2300      	movs	r3, #0
 8000c84:	61fb      	str	r3, [r7, #28]
    HAL_GPIO_Init(GPIOB, &GPIO_InitStruct);
 8000c86:	f107 0314 	add.w	r3, r7, #20
 8000c8a:	4619      	mov	r1, r3
 8000c8c:	4824      	ldr	r0, [pc, #144]	; (8000d20 <HAL_CAN_MspInit+0xf8>)
 8000c8e:	f001 ffe3 	bl	8002c58 <HAL_GPIO_Init>

    GPIO_InitStruct.Pin = GPIO_PIN_9;
 8000c92:	f44f 7300 	mov.w	r3, #512	; 0x200
 8000c96:	617b      	str	r3, [r7, #20]
    GPIO_InitStruct.Mode = GPIO_MODE_AF_PP;
 8000c98:	2302      	movs	r3, #2
 8000c9a:	61bb      	str	r3, [r7, #24]
    GPIO_InitStruct.Speed = GPIO_SPEED_FREQ_HIGH;
 8000c9c:	2303      	movs	r3, #3
 8000c9e:	623b      	str	r3, [r7, #32]
    HAL_GPIO_Init(GPIOB, &GPIO_InitStruct);
 8000ca0:	f107 0314 	add.w	r3, r7, #20
 8000ca4:	4619      	mov	r1, r3
 8000ca6:	481e      	ldr	r0, [pc, #120]	; (8000d20 <HAL_CAN_MspInit+0xf8>)
 8000ca8:	f001 ffd6 	bl	8002c58 <HAL_GPIO_Init>

    __HAL_AFIO_REMAP_CAN1_2();
 8000cac:	4b1d      	ldr	r3, [pc, #116]	; (8000d24 <HAL_CAN_MspInit+0xfc>)
 8000cae:	685b      	ldr	r3, [r3, #4]
 8000cb0:	627b      	str	r3, [r7, #36]	; 0x24
 8000cb2:	6a7b      	ldr	r3, [r7, #36]	; 0x24
 8000cb4:	f423 43c0 	bic.w	r3, r3, #24576	; 0x6000
 8000cb8:	627b      	str	r3, [r7, #36]	; 0x24
 8000cba:	6a7b      	ldr	r3, [r7, #36]	; 0x24
 8000cbc:	f043 63e0 	orr.w	r3, r3, #117440512	; 0x7000000
 8000cc0:	627b      	str	r3, [r7, #36]	; 0x24
 8000cc2:	6a7b      	ldr	r3, [r7, #36]	; 0x24
 8000cc4:	f443 4380 	orr.w	r3, r3, #16384	; 0x4000
 8000cc8:	627b      	str	r3, [r7, #36]	; 0x24
 8000cca:	4a16      	ldr	r2, [pc, #88]	; (8000d24 <HAL_CAN_MspInit+0xfc>)
 8000ccc:	6a7b      	ldr	r3, [r7, #36]	; 0x24
 8000cce:	6053      	str	r3, [r2, #4]

  /* USER CODE BEGIN CAN1_MspInit 1 */
    HAL_NVIC_SetPriority(USB_HP_CAN1_TX_IRQn, 5, 0);
 8000cd0:	2200      	movs	r2, #0
 8000cd2:	2105      	movs	r1, #5
 8000cd4:	2013      	movs	r0, #19
 8000cd6:	f001 fd30 	bl	800273a <HAL_NVIC_SetPriority>
    HAL_NVIC_EnableIRQ(USB_HP_CAN1_TX_IRQn);
 8000cda:	2013      	movs	r0, #19
 8000cdc:	f001 fd49 	bl	8002772 <HAL_NVIC_EnableIRQ>
    HAL_NVIC_SetPriority(USB_LP_CAN1_RX0_IRQn, 5, 0);
 8000ce0:	2200      	movs	r2, #0
 8000ce2:	2105      	movs	r1, #5
 8000ce4:	2014      	movs	r0, #20
 8000ce6:	f001 fd28 	bl	800273a <HAL_NVIC_SetPriority>
    HAL_NVIC_EnableIRQ(USB_LP_CAN1_RX0_IRQn);
 8000cea:	2014      	movs	r0, #20
 8000cec:	f001 fd41 	bl	8002772 <HAL_NVIC_EnableIRQ>
    HAL_NVIC_SetPriority(CAN1_RX1_IRQn, 5, 0);
 8000cf0:	2200      	movs	r2, #0
 8000cf2:	2105      	movs	r1, #5
 8000cf4:	2015      	movs	r0, #21
 8000cf6:	f001 fd20 	bl	800273a <HAL_NVIC_SetPriority>
    HAL_NVIC_EnableIRQ(CAN1_RX1_IRQn);
 8000cfa:	2015      	movs	r0, #21
 8000cfc:	f001 fd39 	bl	8002772 <HAL_NVIC_EnableIRQ>
    HAL_NVIC_SetPriority(CAN1_SCE_IRQn, 5, 0);
 8000d00:	2200      	movs	r2, #0
 8000d02:	2105      	movs	r1, #5
 8000d04:	2016      	movs	r0, #22
 8000d06:	f001 fd18 	bl	800273a <HAL_NVIC_SetPriority>
    HAL_NVIC_EnableIRQ(CAN1_SCE_IRQn);
 8000d0a:	2016      	movs	r0, #22
 8000d0c:	f001 fd31 	bl	8002772 <HAL_NVIC_EnableIRQ>
  /* USER CODE END CAN1_MspInit 1 */
  }

}
 8000d10:	bf00      	nop
 8000d12:	3728      	adds	r7, #40	; 0x28
 8000d14:	46bd      	mov	sp, r7
 8000d16:	bd80      	pop	{r7, pc}
 8000d18:	40006400 	.word	0x40006400
 8000d1c:	40021000 	.word	0x40021000
 8000d20:	40010c00 	.word	0x40010c00
 8000d24:	40010000 	.word	0x40010000

08000d28 <HAL_I2C_MspInit>:
* This function configures the hardware resources used in this example
* @param hi2c: I2C handle pointer
* @retval None
*/
void HAL_I2C_MspInit(I2C_HandleTypeDef* hi2c)
{
 8000d28:	b580      	push	{r7, lr}
 8000d2a:	b088      	sub	sp, #32
 8000d2c:	af00      	add	r7, sp, #0
 8000d2e:	6078      	str	r0, [r7, #4]
  GPIO_InitTypeDef GPIO_InitStruct = {0};
 8000d30:	f107 0310 	add.w	r3, r7, #16
 8000d34:	2200      	movs	r2, #0
 8000d36:	601a      	str	r2, [r3, #0]
 8000d38:	605a      	str	r2, [r3, #4]
 8000d3a:	609a      	str	r2, [r3, #8]
 8000d3c:	60da      	str	r2, [r3, #12]
  if(hi2c->Instance==I2C1)
 8000d3e:	687b      	ldr	r3, [r7, #4]
 8000d40:	681b      	ldr	r3, [r3, #0]
 8000d42:	4a15      	ldr	r2, [pc, #84]	; (8000d98 <HAL_I2C_MspInit+0x70>)
 8000d44:	4293      	cmp	r3, r2
 8000d46:	d123      	bne.n	8000d90 <HAL_I2C_MspInit+0x68>
  {
  /* USER CODE BEGIN I2C1_MspInit 0 */
	    /* Peripheral clock enable */
    __HAL_RCC_I2C1_CLK_ENABLE();
 8000d48:	4b14      	ldr	r3, [pc, #80]	; (8000d9c <HAL_I2C_MspInit+0x74>)
 8000d4a:	69db      	ldr	r3, [r3, #28]
 8000d4c:	4a13      	ldr	r2, [pc, #76]	; (8000d9c <HAL_I2C_MspInit+0x74>)
 8000d4e:	f443 1300 	orr.w	r3, r3, #2097152	; 0x200000
 8000d52:	61d3      	str	r3, [r2, #28]
 8000d54:	4b11      	ldr	r3, [pc, #68]	; (8000d9c <HAL_I2C_MspInit+0x74>)
 8000d56:	69db      	ldr	r3, [r3, #28]
 8000d58:	f403 1300 	and.w	r3, r3, #2097152	; 0x200000
 8000d5c:	60fb      	str	r3, [r7, #12]
 8000d5e:	68fb      	ldr	r3, [r7, #12]
  /* USER CODE END I2C1_MspInit 0 */

    __HAL_RCC_GPIOB_CLK_ENABLE();
 8000d60:	4b0e      	ldr	r3, [pc, #56]	; (8000d9c <HAL_I2C_MspInit+0x74>)
 8000d62:	699b      	ldr	r3, [r3, #24]
 8000d64:	4a0d      	ldr	r2, [pc, #52]	; (8000d9c <HAL_I2C_MspInit+0x74>)
 8000d66:	f043 0308 	orr.w	r3, r3, #8
 8000d6a:	6193      	str	r3, [r2, #24]
 8000d6c:	4b0b      	ldr	r3, [pc, #44]	; (8000d9c <HAL_I2C_MspInit+0x74>)
 8000d6e:	699b      	ldr	r3, [r3, #24]
 8000d70:	f003 0308 	and.w	r3, r3, #8
 8000d74:	60bb      	str	r3, [r7, #8]
 8000d76:	68bb      	ldr	r3, [r7, #8]
    /**I2C1 GPIO Configuration
    PB6     ------> I2C1_SCL
    PB7     ------> I2C1_SDA
    */
    GPIO_InitStruct.Pin = GPIO_PIN_6|GPIO_PIN_7;
 8000d78:	23c0      	movs	r3, #192	; 0xc0
 8000d7a:	613b      	str	r3, [r7, #16]
    GPIO_InitStruct.Mode = GPIO_MODE_AF_OD;
 8000d7c:	2312      	movs	r3, #18
 8000d7e:	617b      	str	r3, [r7, #20]
    GPIO_InitStruct.Speed = GPIO_SPEED_FREQ_HIGH;
 8000d80:	2303      	movs	r3, #3
 8000d82:	61fb      	str	r3, [r7, #28]
    HAL_GPIO_Init(GPIOB, &GPIO_InitStruct);
 8000d84:	f107 0310 	add.w	r3, r7, #16
 8000d88:	4619      	mov	r1, r3
 8000d8a:	4805      	ldr	r0, [pc, #20]	; (8000da0 <HAL_I2C_MspInit+0x78>)
 8000d8c:	f001 ff64 	bl	8002c58 <HAL_GPIO_Init>
  /* USER CODE BEGIN I2C1_MspInit 1 */

  /* USER CODE END I2C1_MspInit 1 */
  }

}
 8000d90:	bf00      	nop
 8000d92:	3720      	adds	r7, #32
 8000d94:	46bd      	mov	sp, r7
 8000d96:	bd80      	pop	{r7, pc}
 8000d98:	40005400 	.word	0x40005400
 8000d9c:	40021000 	.word	0x40021000
 8000da0:	40010c00 	.word	0x40010c00

08000da4 <HAL_UART_MspInit>:
* This function configures the hardware resources used in this example
* @param huart: UART handle pointer
* @retval None
*/
void HAL_UART_MspInit(UART_HandleTypeDef* huart)
{
 8000da4:	b580      	push	{r7, lr}
 8000da6:	b08a      	sub	sp, #40	; 0x28
 8000da8:	af00      	add	r7, sp, #0
 8000daa:	6078      	str	r0, [r7, #4]
  GPIO_InitTypeDef GPIO_InitStruct = {0};
 8000dac:	f107 0318 	add.w	r3, r7, #24
 8000db0:	2200      	movs	r2, #0
 8000db2:	601a      	str	r2, [r3, #0]
 8000db4:	605a      	str	r2, [r3, #4]
 8000db6:	609a      	str	r2, [r3, #8]
 8000db8:	60da      	str	r2, [r3, #12]
  if(huart->Instance==USART1)
 8000dba:	687b      	ldr	r3, [r7, #4]
 8000dbc:	681b      	ldr	r3, [r3, #0]
 8000dbe:	4a4e      	ldr	r2, [pc, #312]	; (8000ef8 <HAL_UART_MspInit+0x154>)
 8000dc0:	4293      	cmp	r3, r2
 8000dc2:	d132      	bne.n	8000e2a <HAL_UART_MspInit+0x86>
  {
  /* USER CODE BEGIN USART1_MspInit 0 */

  /* USER CODE END USART1_MspInit 0 */
    /* Peripheral clock enable */
    __HAL_RCC_USART1_CLK_ENABLE();
 8000dc4:	4b4d      	ldr	r3, [pc, #308]	; (8000efc <HAL_UART_MspInit+0x158>)
 8000dc6:	699b      	ldr	r3, [r3, #24]
 8000dc8:	4a4c      	ldr	r2, [pc, #304]	; (8000efc <HAL_UART_MspInit+0x158>)
 8000dca:	f443 4380 	orr.w	r3, r3, #16384	; 0x4000
 8000dce:	6193      	str	r3, [r2, #24]
 8000dd0:	4b4a      	ldr	r3, [pc, #296]	; (8000efc <HAL_UART_MspInit+0x158>)
 8000dd2:	699b      	ldr	r3, [r3, #24]
 8000dd4:	f403 4380 	and.w	r3, r3, #16384	; 0x4000
 8000dd8:	617b      	str	r3, [r7, #20]
 8000dda:	697b      	ldr	r3, [r7, #20]

    __HAL_RCC_GPIOA_CLK_ENABLE();
 8000ddc:	4b47      	ldr	r3, [pc, #284]	; (8000efc <HAL_UART_MspInit+0x158>)
 8000dde:	699b      	ldr	r3, [r3, #24]
 8000de0:	4a46      	ldr	r2, [pc, #280]	; (8000efc <HAL_UART_MspInit+0x158>)
 8000de2:	f043 0304 	orr.w	r3, r3, #4
 8000de6:	6193      	str	r3, [r2, #24]
 8000de8:	4b44      	ldr	r3, [pc, #272]	; (8000efc <HAL_UART_MspInit+0x158>)
 8000dea:	699b      	ldr	r3, [r3, #24]
 8000dec:	f003 0304 	and.w	r3, r3, #4
 8000df0:	613b      	str	r3, [r7, #16]
 8000df2:	693b      	ldr	r3, [r7, #16]
    /**USART1 GPIO Configuration
    PA9     ------> USART1_TX
    PA10     ------> USART1_RX
    */
    GPIO_InitStruct.Pin = GPIO_PIN_9;
 8000df4:	f44f 7300 	mov.w	r3, #512	; 0x200
 8000df8:	61bb      	str	r3, [r7, #24]
    GPIO_InitStruct.Mode = GPIO_MODE_AF_PP;
 8000dfa:	2302      	movs	r3, #2
 8000dfc:	61fb      	str	r3, [r7, #28]
    GPIO_InitStruct.Speed = GPIO_SPEED_FREQ_HIGH;
 8000dfe:	2303      	movs	r3, #3
 8000e00:	627b      	str	r3, [r7, #36]	; 0x24
    HAL_GPIO_Init(GPIOA, &GPIO_InitStruct);
 8000e02:	f107 0318 	add.w	r3, r7, #24
 8000e06:	4619      	mov	r1, r3
 8000e08:	483d      	ldr	r0, [pc, #244]	; (8000f00 <HAL_UART_MspInit+0x15c>)
 8000e0a:	f001 ff25 	bl	8002c58 <HAL_GPIO_Init>

    GPIO_InitStruct.Pin = GPIO_PIN_10;
 8000e0e:	f44f 6380 	mov.w	r3, #1024	; 0x400
 8000e12:	61bb      	str	r3, [r7, #24]
    GPIO_InitStruct.Mode = GPIO_MODE_INPUT;
 8000e14:	2300      	movs	r3, #0
 8000e16:	61fb      	str	r3, [r7, #28]
    GPIO_InitStruct.Pull = GPIO_NOPULL;
 8000e18:	2300      	movs	r3, #0
 8000e1a:	623b      	str	r3, [r7, #32]
    HAL_GPIO_Init(GPIOA, &GPIO_InitStruct);
 8000e1c:	f107 0318 	add.w	r3, r7, #24
 8000e20:	4619      	mov	r1, r3
 8000e22:	4837      	ldr	r0, [pc, #220]	; (8000f00 <HAL_UART_MspInit+0x15c>)
 8000e24:	f001 ff18 	bl	8002c58 <HAL_GPIO_Init>
  /* USER CODE BEGIN USART2_MspInit 1 */

  /* USER CODE END USART2_MspInit 1 */
  }

}
 8000e28:	e062      	b.n	8000ef0 <HAL_UART_MspInit+0x14c>
  else if(huart->Instance==USART2)
 8000e2a:	687b      	ldr	r3, [r7, #4]
 8000e2c:	681b      	ldr	r3, [r3, #0]
 8000e2e:	4a35      	ldr	r2, [pc, #212]	; (8000f04 <HAL_UART_MspInit+0x160>)
 8000e30:	4293      	cmp	r3, r2
 8000e32:	d15d      	bne.n	8000ef0 <HAL_UART_MspInit+0x14c>
    __HAL_RCC_USART2_CLK_ENABLE();
 8000e34:	4b31      	ldr	r3, [pc, #196]	; (8000efc <HAL_UART_MspInit+0x158>)
 8000e36:	69db      	ldr	r3, [r3, #28]
 8000e38:	4a30      	ldr	r2, [pc, #192]	; (8000efc <HAL_UART_MspInit+0x158>)
 8000e3a:	f443 3300 	orr.w	r3, r3, #131072	; 0x20000
 8000e3e:	61d3      	str	r3, [r2, #28]
 8000e40:	4b2e      	ldr	r3, [pc, #184]	; (8000efc <HAL_UART_MspInit+0x158>)
 8000e42:	69db      	ldr	r3, [r3, #28]
 8000e44:	f403 3300 	and.w	r3, r3, #131072	; 0x20000
 8000e48:	60fb      	str	r3, [r7, #12]
 8000e4a:	68fb      	ldr	r3, [r7, #12]
    __HAL_RCC_GPIOA_CLK_ENABLE();
 8000e4c:	4b2b      	ldr	r3, [pc, #172]	; (8000efc <HAL_UART_MspInit+0x158>)
 8000e4e:	699b      	ldr	r3, [r3, #24]
 8000e50:	4a2a      	ldr	r2, [pc, #168]	; (8000efc <HAL_UART_MspInit+0x158>)
 8000e52:	f043 0304 	orr.w	r3, r3, #4
 8000e56:	6193      	str	r3, [r2, #24]
 8000e58:	4b28      	ldr	r3, [pc, #160]	; (8000efc <HAL_UART_MspInit+0x158>)
 8000e5a:	699b      	ldr	r3, [r3, #24]
 8000e5c:	f003 0304 	and.w	r3, r3, #4
 8000e60:	60bb      	str	r3, [r7, #8]
 8000e62:	68bb      	ldr	r3, [r7, #8]
    GPIO_InitStruct.Pin = GPIO_PIN_2;
 8000e64:	2304      	movs	r3, #4
 8000e66:	61bb      	str	r3, [r7, #24]
    GPIO_InitStruct.Mode = GPIO_MODE_AF_PP;
 8000e68:	2302      	movs	r3, #2
 8000e6a:	61fb      	str	r3, [r7, #28]
    GPIO_InitStruct.Speed = GPIO_SPEED_FREQ_HIGH;
 8000e6c:	2303      	movs	r3, #3
 8000e6e:	627b      	str	r3, [r7, #36]	; 0x24
    HAL_GPIO_Init(GPIOA, &GPIO_InitStruct);
 8000e70:	f107 0318 	add.w	r3, r7, #24
 8000e74:	4619      	mov	r1, r3
 8000e76:	4822      	ldr	r0, [pc, #136]	; (8000f00 <HAL_UART_MspInit+0x15c>)
 8000e78:	f001 feee 	bl	8002c58 <HAL_GPIO_Init>
    GPIO_InitStruct.Pin = GPIO_PIN_3;
 8000e7c:	2308      	movs	r3, #8
 8000e7e:	61bb      	str	r3, [r7, #24]
    GPIO_InitStruct.Mode = GPIO_MODE_INPUT;
 8000e80:	2300      	movs	r3, #0
 8000e82:	61fb      	str	r3, [r7, #28]
    GPIO_InitStruct.Pull = GPIO_NOPULL;
 8000e84:	2300      	movs	r3, #0
 8000e86:	623b      	str	r3, [r7, #32]
    HAL_GPIO_Init(GPIOA, &GPIO_InitStruct);
 8000e88:	f107 0318 	add.w	r3, r7, #24
 8000e8c:	4619      	mov	r1, r3
 8000e8e:	481c      	ldr	r0, [pc, #112]	; (8000f00 <HAL_UART_MspInit+0x15c>)
 8000e90:	f001 fee2 	bl	8002c58 <HAL_GPIO_Init>
    hdma_usart2_rx.Instance = DMA1_Channel6;
 8000e94:	4b1c      	ldr	r3, [pc, #112]	; (8000f08 <HAL_UART_MspInit+0x164>)
 8000e96:	4a1d      	ldr	r2, [pc, #116]	; (8000f0c <HAL_UART_MspInit+0x168>)
 8000e98:	601a      	str	r2, [r3, #0]
    hdma_usart2_rx.Init.Direction = DMA_PERIPH_TO_MEMORY;
 8000e9a:	4b1b      	ldr	r3, [pc, #108]	; (8000f08 <HAL_UART_MspInit+0x164>)
 8000e9c:	2200      	movs	r2, #0
 8000e9e:	605a      	str	r2, [r3, #4]
    hdma_usart2_rx.Init.PeriphInc = DMA_PINC_DISABLE;
 8000ea0:	4b19      	ldr	r3, [pc, #100]	; (8000f08 <HAL_UART_MspInit+0x164>)
 8000ea2:	2200      	movs	r2, #0
 8000ea4:	609a      	str	r2, [r3, #8]
    hdma_usart2_rx.Init.MemInc = DMA_MINC_ENABLE;
 8000ea6:	4b18      	ldr	r3, [pc, #96]	; (8000f08 <HAL_UART_MspInit+0x164>)
 8000ea8:	2280      	movs	r2, #128	; 0x80
 8000eaa:	60da      	str	r2, [r3, #12]
    hdma_usart2_rx.Init.PeriphDataAlignment = DMA_PDATAALIGN_BYTE;
 8000eac:	4b16      	ldr	r3, [pc, #88]	; (8000f08 <HAL_UART_MspInit+0x164>)
 8000eae:	2200      	movs	r2, #0
 8000eb0:	611a      	str	r2, [r3, #16]
    hdma_usart2_rx.Init.MemDataAlignment = DMA_MDATAALIGN_BYTE;
 8000eb2:	4b15      	ldr	r3, [pc, #84]	; (8000f08 <HAL_UART_MspInit+0x164>)
 8000eb4:	2200      	movs	r2, #0
 8000eb6:	615a      	str	r2, [r3, #20]
    hdma_usart2_rx.Init.Mode = DMA_NORMAL;
 8000eb8:	4b13      	ldr	r3, [pc, #76]	; (8000f08 <HAL_UART_MspInit+0x164>)
 8000eba:	2200      	movs	r2, #0
 8000ebc:	619a      	str	r2, [r3, #24]
    hdma_usart2_rx.Init.Priority = DMA_PRIORITY_LOW;
 8000ebe:	4b12      	ldr	r3, [pc, #72]	; (8000f08 <HAL_UART_MspInit+0x164>)
 8000ec0:	2200      	movs	r2, #0
 8000ec2:	61da      	str	r2, [r3, #28]
    if (HAL_DMA_Init(&hdma_usart2_rx) != HAL_OK)
 8000ec4:	4810      	ldr	r0, [pc, #64]	; (8000f08 <HAL_UART_MspInit+0x164>)
 8000ec6:	f001 fc63 	bl	8002790 <HAL_DMA_Init>
 8000eca:	4603      	mov	r3, r0
 8000ecc:	2b00      	cmp	r3, #0
 8000ece:	d001      	beq.n	8000ed4 <HAL_UART_MspInit+0x130>
      Error_Handler();
 8000ed0:	f7ff fe04 	bl	8000adc <Error_Handler>
    __HAL_LINKDMA(huart,hdmarx,hdma_usart2_rx);
 8000ed4:	687b      	ldr	r3, [r7, #4]
 8000ed6:	4a0c      	ldr	r2, [pc, #48]	; (8000f08 <HAL_UART_MspInit+0x164>)
 8000ed8:	635a      	str	r2, [r3, #52]	; 0x34
 8000eda:	4a0b      	ldr	r2, [pc, #44]	; (8000f08 <HAL_UART_MspInit+0x164>)
 8000edc:	687b      	ldr	r3, [r7, #4]
 8000ede:	6253      	str	r3, [r2, #36]	; 0x24
    HAL_NVIC_SetPriority(USART2_IRQn, 5, 0);
 8000ee0:	2200      	movs	r2, #0
 8000ee2:	2105      	movs	r1, #5
 8000ee4:	2026      	movs	r0, #38	; 0x26
 8000ee6:	f001 fc28 	bl	800273a <HAL_NVIC_SetPriority>
    HAL_NVIC_EnableIRQ(USART2_IRQn);
 8000eea:	2026      	movs	r0, #38	; 0x26
 8000eec:	f001 fc41 	bl	8002772 <HAL_NVIC_EnableIRQ>
}
 8000ef0:	bf00      	nop
 8000ef2:	3728      	adds	r7, #40	; 0x28
 8000ef4:	46bd      	mov	sp, r7
 8000ef6:	bd80      	pop	{r7, pc}
 8000ef8:	40013800 	.word	0x40013800
 8000efc:	40021000 	.word	0x40021000
 8000f00:	40010800 	.word	0x40010800
 8000f04:	40004400 	.word	0x40004400
 8000f08:	20001bd8 	.word	0x20001bd8
 8000f0c:	4002006c 	.word	0x4002006c

08000f10 <HAL_InitTick>:
  *         reset by HAL_Init() or at any time when clock is configured, by HAL_RCC_ClockConfig().
  * @param  TickPriority: Tick interrupt priority.
  * @retval HAL status
  */
HAL_StatusTypeDef HAL_InitTick(uint32_t TickPriority)
{
 8000f10:	b580      	push	{r7, lr}
 8000f12:	b08c      	sub	sp, #48	; 0x30
 8000f14:	af00      	add	r7, sp, #0
 8000f16:	6078      	str	r0, [r7, #4]
  RCC_ClkInitTypeDef    clkconfig;
  uint32_t              uwTimclock = 0;
 8000f18:	2300      	movs	r3, #0
 8000f1a:	62fb      	str	r3, [r7, #44]	; 0x2c
  uint32_t              uwPrescalerValue = 0;
 8000f1c:	2300      	movs	r3, #0
 8000f1e:	62bb      	str	r3, [r7, #40]	; 0x28
  uint32_t              pFLatency;

  /*Configure the TIM4 IRQ priority */
  HAL_NVIC_SetPriority(TIM4_IRQn, TickPriority ,0);
 8000f20:	2200      	movs	r2, #0
 8000f22:	6879      	ldr	r1, [r7, #4]
 8000f24:	201e      	movs	r0, #30
 8000f26:	f001 fc08 	bl	800273a <HAL_NVIC_SetPriority>

  /* Enable the TIM4 global Interrupt */
  HAL_NVIC_EnableIRQ(TIM4_IRQn);
 8000f2a:	201e      	movs	r0, #30
 8000f2c:	f001 fc21 	bl	8002772 <HAL_NVIC_EnableIRQ>

  /* Enable TIM4 clock */
  __HAL_RCC_TIM4_CLK_ENABLE();
 8000f30:	4b1f      	ldr	r3, [pc, #124]	; (8000fb0 <HAL_InitTick+0xa0>)
 8000f32:	69db      	ldr	r3, [r3, #28]
 8000f34:	4a1e      	ldr	r2, [pc, #120]	; (8000fb0 <HAL_InitTick+0xa0>)
 8000f36:	f043 0304 	orr.w	r3, r3, #4
 8000f3a:	61d3      	str	r3, [r2, #28]
 8000f3c:	4b1c      	ldr	r3, [pc, #112]	; (8000fb0 <HAL_InitTick+0xa0>)
 8000f3e:	69db      	ldr	r3, [r3, #28]
 8000f40:	f003 0304 	and.w	r3, r3, #4
 8000f44:	60fb      	str	r3, [r7, #12]
 8000f46:	68fb      	ldr	r3, [r7, #12]

  /* Get clock configuration */
  HAL_RCC_GetClockConfig(&clkconfig, &pFLatency);
 8000f48:	f107 0210 	add.w	r2, r7, #16
 8000f4c:	f107 0314 	add.w	r3, r7, #20
 8000f50:	4611      	mov	r1, r2
 8000f52:	4618      	mov	r0, r3
 8000f54:	f003 f812 	bl	8003f7c <HAL_RCC_GetClockConfig>

  /* Compute TIM4 clock */
  uwTimclock = 2*HAL_RCC_GetPCLK1Freq();
 8000f58:	f002 ffe8 	bl	8003f2c <HAL_RCC_GetPCLK1Freq>
 8000f5c:	4603      	mov	r3, r0
 8000f5e:	005b      	lsls	r3, r3, #1
 8000f60:	62fb      	str	r3, [r7, #44]	; 0x2c

  /* Compute the prescaler value to have TIM4 counter clock equal to 1MHz */
  uwPrescalerValue = (uint32_t) ((uwTimclock / 1000000) - 1);
 8000f62:	6afb      	ldr	r3, [r7, #44]	; 0x2c
 8000f64:	4a13      	ldr	r2, [pc, #76]	; (8000fb4 <HAL_InitTick+0xa4>)
 8000f66:	fba2 2303 	umull	r2, r3, r2, r3
 8000f6a:	0c9b      	lsrs	r3, r3, #18
 8000f6c:	3b01      	subs	r3, #1
 8000f6e:	62bb      	str	r3, [r7, #40]	; 0x28

  /* Initialize TIM4 */
  htim4.Instance = TIM4;
 8000f70:	4b11      	ldr	r3, [pc, #68]	; (8000fb8 <HAL_InitTick+0xa8>)
 8000f72:	4a12      	ldr	r2, [pc, #72]	; (8000fbc <HAL_InitTick+0xac>)
 8000f74:	601a      	str	r2, [r3, #0]
  + Period = [(TIM4CLK/1000) - 1]. to have a (1/1000) s time base.
  + Prescaler = (uwTimclock/1000000 - 1) to have a 1MHz counter clock.
  + ClockDivision = 0
  + Counter direction = Up
  */
  htim4.Init.Period = (1000000 / 1000) - 1;
 8000f76:	4b10      	ldr	r3, [pc, #64]	; (8000fb8 <HAL_InitTick+0xa8>)
 8000f78:	f240 32e7 	movw	r2, #999	; 0x3e7
 8000f7c:	60da      	str	r2, [r3, #12]
  htim4.Init.Prescaler = uwPrescalerValue;
 8000f7e:	4a0e      	ldr	r2, [pc, #56]	; (8000fb8 <HAL_InitTick+0xa8>)
 8000f80:	6abb      	ldr	r3, [r7, #40]	; 0x28
 8000f82:	6053      	str	r3, [r2, #4]
  htim4.Init.ClockDivision = 0;
 8000f84:	4b0c      	ldr	r3, [pc, #48]	; (8000fb8 <HAL_InitTick+0xa8>)
 8000f86:	2200      	movs	r2, #0
 8000f88:	611a      	str	r2, [r3, #16]
  htim4.Init.CounterMode = TIM_COUNTERMODE_UP;
 8000f8a:	4b0b      	ldr	r3, [pc, #44]	; (8000fb8 <HAL_InitTick+0xa8>)
 8000f8c:	2200      	movs	r2, #0
 8000f8e:	609a      	str	r2, [r3, #8]
  if(HAL_TIM_Base_Init(&htim4) == HAL_OK)
 8000f90:	4809      	ldr	r0, [pc, #36]	; (8000fb8 <HAL_InitTick+0xa8>)
 8000f92:	f003 f8f7 	bl	8004184 <HAL_TIM_Base_Init>
 8000f96:	4603      	mov	r3, r0
 8000f98:	2b00      	cmp	r3, #0
 8000f9a:	d104      	bne.n	8000fa6 <HAL_InitTick+0x96>
  {
    /* Start the TIM time Base generation in interrupt mode */
    return HAL_TIM_Base_Start_IT(&htim4);
 8000f9c:	4806      	ldr	r0, [pc, #24]	; (8000fb8 <HAL_InitTick+0xa8>)
 8000f9e:	f003 f925 	bl	80041ec <HAL_TIM_Base_Start_IT>
 8000fa2:	4603      	mov	r3, r0
 8000fa4:	e000      	b.n	8000fa8 <HAL_InitTick+0x98>
  }

  /* Return function status */
  return HAL_ERROR;
 8000fa6:	2301      	movs	r3, #1
}
 8000fa8:	4618      	mov	r0, r3
 8000faa:	3730      	adds	r7, #48	; 0x30
 8000fac:	46bd      	mov	sp, r7
 8000fae:	bd80      	pop	{r7, pc}
 8000fb0:	40021000 	.word	0x40021000
 8000fb4:	431bde83 	.word	0x431bde83
 8000fb8:	20001e14 	.word	0x20001e14
 8000fbc:	40000800 	.word	0x40000800

08000fc0 <NMI_Handler>:
/******************************************************************************/
/**
  * @brief This function handles Non maskable interrupt.
  */
void NMI_Handler(void)
{
 8000fc0:	b480      	push	{r7}
 8000fc2:	af00      	add	r7, sp, #0

  /* USER CODE END NonMaskableInt_IRQn 0 */
  /* USER CODE BEGIN NonMaskableInt_IRQn 1 */

  /* USER CODE END NonMaskableInt_IRQn 1 */
}
 8000fc4:	bf00      	nop
 8000fc6:	46bd      	mov	sp, r7
 8000fc8:	bc80      	pop	{r7}
 8000fca:	4770      	bx	lr

08000fcc <HardFault_Handler>:

/**
  * @brief This function handles Hard fault interrupt.
  */
void HardFault_Handler(void)
{
 8000fcc:	b480      	push	{r7}
 8000fce:	af00      	add	r7, sp, #0
  /* USER CODE BEGIN HardFault_IRQn 0 */

  /* USER CODE END HardFault_IRQn 0 */
  while (1)
 8000fd0:	e7fe      	b.n	8000fd0 <HardFault_Handler+0x4>

08000fd2 <MemManage_Handler>:

/**
  * @brief This function handles Memory management fault.
  */
void MemManage_Handler(void)
{
 8000fd2:	b480      	push	{r7}
 8000fd4:	af00      	add	r7, sp, #0
  /* USER CODE BEGIN MemoryManagement_IRQn 0 */

  /* USER CODE END MemoryManagement_IRQn 0 */
  while (1)
 8000fd6:	e7fe      	b.n	8000fd6 <MemManage_Handler+0x4>

08000fd8 <BusFault_Handler>:

/**
  * @brief This function handles Prefetch fault, memory access fault.
  */
void BusFault_Handler(void)
{
 8000fd8:	b480      	push	{r7}
 8000fda:	af00      	add	r7, sp, #0
  /* USER CODE BEGIN BusFault_IRQn 0 */

  /* USER CODE END BusFault_IRQn 0 */
  while (1)
 8000fdc:	e7fe      	b.n	8000fdc <BusFault_Handler+0x4>

08000fde <UsageFault_Handler>:

/**
  * @brief This function handles Undefined instruction or illegal state.
  */
void UsageFault_Handler(void)
{
 8000fde:	b480      	push	{r7}
 8000fe0:	af00      	add	r7, sp, #0
  /* USER CODE BEGIN UsageFault_IRQn 0 */

  /* USER CODE END UsageFault_IRQn 0 */
  while (1)
 8000fe2:	e7fe      	b.n	8000fe2 <UsageFault_Handler+0x4>

08000fe4 <DebugMon_Handler>:

/**
  * @brief This function handles Debug monitor.
  */
void DebugMon_Handler(void)
{
 8000fe4:	b480      	push	{r7}
 8000fe6:	af00      	add	r7, sp, #0

  /* USER CODE END DebugMonitor_IRQn 0 */
  /* USER CODE BEGIN DebugMonitor_IRQn 1 */

  /* USER CODE END DebugMonitor_IRQn 1 */
}
 8000fe8:	bf00      	nop
 8000fea:	46bd      	mov	sp, r7
 8000fec:	bc80      	pop	{r7}
 8000fee:	4770      	bx	lr

08000ff0 <DMA1_Channel1_IRQHandler>:

/**
  * @brief This function handles DMA1 channel1 global interrupt.
  */
void DMA1_Channel1_IRQHandler(void)
{
 8000ff0:	b580      	push	{r7, lr}
 8000ff2:	af00      	add	r7, sp, #0
  /* USER CODE BEGIN DMA1_Channel1_IRQn 0 */

  /* USER CODE END DMA1_Channel1_IRQn 0 */
  HAL_DMA_IRQHandler(&hdma_adc1);
 8000ff4:	4802      	ldr	r0, [pc, #8]	; (8001000 <DMA1_Channel1_IRQHandler+0x10>)
 8000ff6:	f001 fcfb 	bl	80029f0 <HAL_DMA_IRQHandler>
  /* USER CODE BEGIN DMA1_Channel1_IRQn 1 */

  /* USER CODE END DMA1_Channel1_IRQn 1 */
}
 8000ffa:	bf00      	nop
 8000ffc:	bd80      	pop	{r7, pc}
 8000ffe:	bf00      	nop
 8001000:	20001d5c 	.word	0x20001d5c

08001004 <DMA1_Channel6_IRQHandler>:

/**
  * @brief This function handles DMA1 channel6 global interrupt.
  */
void DMA1_Channel6_IRQHandler(void)
{
 8001004:	b580      	push	{r7, lr}
 8001006:	af00      	add	r7, sp, #0
  /* USER CODE BEGIN DMA1_Channel6_IRQn 0 */

  /* USER CODE END DMA1_Channel6_IRQn 0 */
  HAL_DMA_IRQHandler(&hdma_usart2_rx);
 8001008:	4802      	ldr	r0, [pc, #8]	; (8001014 <DMA1_Channel6_IRQHandler+0x10>)
 800100a:	f001 fcf1 	bl	80029f0 <HAL_DMA_IRQHandler>
  /* USER CODE BEGIN DMA1_Channel6_IRQn 1 */

  /* USER CODE END DMA1_Channel6_IRQn 1 */
}
 800100e:	bf00      	nop
 8001010:	bd80      	pop	{r7, pc}
 8001012:	bf00      	nop
 8001014:	20001bd8 	.word	0x20001bd8

08001018 <TIM4_IRQHandler>:

/**
  * @brief This function handles TIM4 global interrupt.
  */
void TIM4_IRQHandler(void)
{
 8001018:	b580      	push	{r7, lr}
 800101a:	af00      	add	r7, sp, #0
  /* USER CODE BEGIN TIM4_IRQn 0 */

  /* USER CODE END TIM4_IRQn 0 */
  HAL_TIM_IRQHandler(&htim4);
 800101c:	4802      	ldr	r0, [pc, #8]	; (8001028 <TIM4_IRQHandler+0x10>)
 800101e:	f003 f908 	bl	8004232 <HAL_TIM_IRQHandler>
  /* USER CODE BEGIN TIM4_IRQn 1 */

  /* USER CODE END TIM4_IRQn 1 */
}
 8001022:	bf00      	nop
 8001024:	bd80      	pop	{r7, pc}
 8001026:	bf00      	nop
 8001028:	20001e14 	.word	0x20001e14

0800102c <USART2_IRQHandler>:

/**
  * @brief This function handles USART2 global interrupt.
  */
void USART2_IRQHandler(void)
{
 800102c:	b580      	push	{r7, lr}
 800102e:	af00      	add	r7, sp, #0
  /* USER CODE BEGIN USART2_IRQn 0 */

  /* USER CODE END USART2_IRQn 0 */
  HAL_UART_IRQHandler(&huart2);
 8001030:	4802      	ldr	r0, [pc, #8]	; (800103c <USART2_IRQHandler+0x10>)
 8001032:	f003 fbd9 	bl	80047e8 <HAL_UART_IRQHandler>
  /* USER CODE BEGIN USART2_IRQn 1 */

  /* USER CODE END USART2_IRQn 1 */
}
 8001036:	bf00      	nop
 8001038:	bd80      	pop	{r7, pc}
 800103a:	bf00      	nop
 800103c:	20001dc8 	.word	0x20001dc8

08001040 <USB_HP_CAN1_TX_IRQHandler>:

/* USER CODE BEGIN 1 */
void USB_HP_CAN1_TX_IRQHandler(void){
 8001040:	b580      	push	{r7, lr}
 8001042:	af00      	add	r7, sp, #0
	HAL_CAN_IRQHandler(&hcan);
 8001044:	4802      	ldr	r0, [pc, #8]	; (8001050 <USB_HP_CAN1_TX_IRQHandler+0x10>)
 8001046:	f001 f8a5 	bl	8002194 <HAL_CAN_IRQHandler>
}
 800104a:	bf00      	nop
 800104c:	bd80      	pop	{r7, pc}
 800104e:	bf00      	nop
 8001050:	20001c7c 	.word	0x20001c7c

08001054 <USB_LP_CAN1_RX0_IRQHandler>:
void USB_LP_CAN1_RX0_IRQHandler(void){
 8001054:	b580      	push	{r7, lr}
 8001056:	af00      	add	r7, sp, #0
	HAL_CAN_IRQHandler(&hcan);
 8001058:	4802      	ldr	r0, [pc, #8]	; (8001064 <USB_LP_CAN1_RX0_IRQHandler+0x10>)
 800105a:	f001 f89b 	bl	8002194 <HAL_CAN_IRQHandler>
}
 800105e:	bf00      	nop
 8001060:	bd80      	pop	{r7, pc}
 8001062:	bf00      	nop
 8001064:	20001c7c 	.word	0x20001c7c

08001068 <CAN1_RX1_IRQHandler>:
void CAN1_RX1_IRQHandler(void){
 8001068:	b580      	push	{r7, lr}
 800106a:	af00      	add	r7, sp, #0
	HAL_CAN_IRQHandler(&hcan);
 800106c:	4802      	ldr	r0, [pc, #8]	; (8001078 <CAN1_RX1_IRQHandler+0x10>)
 800106e:	f001 f891 	bl	8002194 <HAL_CAN_IRQHandler>
}
 8001072:	bf00      	nop
 8001074:	bd80      	pop	{r7, pc}
 8001076:	bf00      	nop
 8001078:	20001c7c 	.word	0x20001c7c

0800107c <CAN1_SCE_IRQHandler>:
void CAN1_SCE_IRQHandler(void){
 800107c:	b580      	push	{r7, lr}
 800107e:	af00      	add	r7, sp, #0
	HAL_CAN_IRQHandler(&hcan);
 8001080:	4802      	ldr	r0, [pc, #8]	; (800108c <CAN1_SCE_IRQHandler+0x10>)
 8001082:	f001 f887 	bl	8002194 <HAL_CAN_IRQHandler>
}
 8001086:	bf00      	nop
 8001088:	bd80      	pop	{r7, pc}
 800108a:	bf00      	nop
 800108c:	20001c7c 	.word	0x20001c7c

08001090 <SystemInit>:
  * @note   This function should be used only after reset.
  * @param  None
  * @retval None
  */
void SystemInit (void)
{
 8001090:	b480      	push	{r7}
 8001092:	af00      	add	r7, sp, #0
  /* Reset the RCC clock configuration to the default reset state(for debug purpose) */
  /* Set HSION bit */
  RCC->CR |= 0x00000001U;
 8001094:	4b15      	ldr	r3, [pc, #84]	; (80010ec <SystemInit+0x5c>)
 8001096:	681b      	ldr	r3, [r3, #0]
 8001098:	4a14      	ldr	r2, [pc, #80]	; (80010ec <SystemInit+0x5c>)
 800109a:	f043 0301 	orr.w	r3, r3, #1
 800109e:	6013      	str	r3, [r2, #0]

  /* Reset SW, HPRE, PPRE1, PPRE2, ADCPRE and MCO bits */
#if !defined(STM32F105xC) && !defined(STM32F107xC)
  RCC->CFGR &= 0xF8FF0000U;
 80010a0:	4b12      	ldr	r3, [pc, #72]	; (80010ec <SystemInit+0x5c>)
 80010a2:	685a      	ldr	r2, [r3, #4]
 80010a4:	4911      	ldr	r1, [pc, #68]	; (80010ec <SystemInit+0x5c>)
 80010a6:	4b12      	ldr	r3, [pc, #72]	; (80010f0 <SystemInit+0x60>)
 80010a8:	4013      	ands	r3, r2
 80010aa:	604b      	str	r3, [r1, #4]
#else
  RCC->CFGR &= 0xF0FF0000U;
#endif /* STM32F105xC */   
  
  /* Reset HSEON, CSSON and PLLON bits */
  RCC->CR &= 0xFEF6FFFFU;
 80010ac:	4b0f      	ldr	r3, [pc, #60]	; (80010ec <SystemInit+0x5c>)
 80010ae:	681b      	ldr	r3, [r3, #0]
 80010b0:	4a0e      	ldr	r2, [pc, #56]	; (80010ec <SystemInit+0x5c>)
 80010b2:	f023 7384 	bic.w	r3, r3, #17301504	; 0x1080000
 80010b6:	f423 3380 	bic.w	r3, r3, #65536	; 0x10000
 80010ba:	6013      	str	r3, [r2, #0]

  /* Reset HSEBYP bit */
  RCC->CR &= 0xFFFBFFFFU;
 80010bc:	4b0b      	ldr	r3, [pc, #44]	; (80010ec <SystemInit+0x5c>)
 80010be:	681b      	ldr	r3, [r3, #0]
 80010c0:	4a0a      	ldr	r2, [pc, #40]	; (80010ec <SystemInit+0x5c>)
 80010c2:	f423 2380 	bic.w	r3, r3, #262144	; 0x40000
 80010c6:	6013      	str	r3, [r2, #0]

  /* Reset PLLSRC, PLLXTPRE, PLLMUL and USBPRE/OTGFSPRE bits */
  RCC->CFGR &= 0xFF80FFFFU;
 80010c8:	4b08      	ldr	r3, [pc, #32]	; (80010ec <SystemInit+0x5c>)
 80010ca:	685b      	ldr	r3, [r3, #4]
 80010cc:	4a07      	ldr	r2, [pc, #28]	; (80010ec <SystemInit+0x5c>)
 80010ce:	f423 03fe 	bic.w	r3, r3, #8323072	; 0x7f0000
 80010d2:	6053      	str	r3, [r2, #4]

  /* Reset CFGR2 register */
  RCC->CFGR2 = 0x00000000U;      
#else
  /* Disable all interrupts and clear pending bits  */
  RCC->CIR = 0x009F0000U;
 80010d4:	4b05      	ldr	r3, [pc, #20]	; (80010ec <SystemInit+0x5c>)
 80010d6:	f44f 021f 	mov.w	r2, #10420224	; 0x9f0000
 80010da:	609a      	str	r2, [r3, #8]
#endif 

#ifdef VECT_TAB_SRAM
  SCB->VTOR = SRAM_BASE | VECT_TAB_OFFSET; /* Vector Table Relocation in Internal SRAM. */
#else
  SCB->VTOR = FLASH_BASE | VECT_TAB_OFFSET; /* Vector Table Relocation in Internal FLASH. */
 80010dc:	4b05      	ldr	r3, [pc, #20]	; (80010f4 <SystemInit+0x64>)
 80010de:	f04f 6200 	mov.w	r2, #134217728	; 0x8000000
 80010e2:	609a      	str	r2, [r3, #8]
#endif 
}
 80010e4:	bf00      	nop
 80010e6:	46bd      	mov	sp, r7
 80010e8:	bc80      	pop	{r7}
 80010ea:	4770      	bx	lr
 80010ec:	40021000 	.word	0x40021000
 80010f0:	f8ff0000 	.word	0xf8ff0000
 80010f4:	e000ed00 	.word	0xe000ed00

080010f8 <Reset_Handler>:
  .weak Reset_Handler
  .type Reset_Handler, %function
Reset_Handler:

/* Copy the data segment initializers from flash to SRAM */
  movs r1, #0
 80010f8:	2100      	movs	r1, #0
  b LoopCopyDataInit
 80010fa:	e003      	b.n	8001104 <LoopCopyDataInit>

080010fc <CopyDataInit>:

CopyDataInit:
  ldr r3, =_sidata
 80010fc:	4b0b      	ldr	r3, [pc, #44]	; (800112c <LoopFillZerobss+0x14>)
  ldr r3, [r3, r1]
 80010fe:	585b      	ldr	r3, [r3, r1]
  str r3, [r0, r1]
 8001100:	5043      	str	r3, [r0, r1]
  adds r1, r1, #4
 8001102:	3104      	adds	r1, #4

08001104 <LoopCopyDataInit>:

LoopCopyDataInit:
  ldr r0, =_sdata
 8001104:	480a      	ldr	r0, [pc, #40]	; (8001130 <LoopFillZerobss+0x18>)
  ldr r3, =_edata
 8001106:	4b0b      	ldr	r3, [pc, #44]	; (8001134 <LoopFillZerobss+0x1c>)
  adds r2, r0, r1
 8001108:	1842      	adds	r2, r0, r1
  cmp r2, r3
 800110a:	429a      	cmp	r2, r3
  bcc CopyDataInit
 800110c:	d3f6      	bcc.n	80010fc <CopyDataInit>
  ldr r2, =_sbss
 800110e:	4a0a      	ldr	r2, [pc, #40]	; (8001138 <LoopFillZerobss+0x20>)
  b LoopFillZerobss
 8001110:	e002      	b.n	8001118 <LoopFillZerobss>

08001112 <FillZerobss>:
/* Zero fill the bss segment. */
FillZerobss:
  movs r3, #0
 8001112:	2300      	movs	r3, #0
  str r3, [r2], #4
 8001114:	f842 3b04 	str.w	r3, [r2], #4

08001118 <LoopFillZerobss>:

LoopFillZerobss:
  ldr r3, = _ebss
 8001118:	4b08      	ldr	r3, [pc, #32]	; (800113c <LoopFillZerobss+0x24>)
  cmp r2, r3
 800111a:	429a      	cmp	r2, r3
  bcc FillZerobss
 800111c:	d3f9      	bcc.n	8001112 <FillZerobss>

/* Call the clock system intitialization function.*/
    bl  SystemInit
 800111e:	f7ff ffb7 	bl	8001090 <SystemInit>
/* Call static constructors */
    bl __libc_init_array
 8001122:	f005 f9bb 	bl	800649c <__libc_init_array>
/* Call the application's entry point.*/
  bl main
 8001126:	f7ff f851 	bl	80001cc <main>
  bx lr
 800112a:	4770      	bx	lr
  ldr r3, =_sidata
 800112c:	08006584 	.word	0x08006584
  ldr r0, =_sdata
 8001130:	20000000 	.word	0x20000000
  ldr r3, =_edata
 8001134:	20000014 	.word	0x20000014
  ldr r2, =_sbss
 8001138:	20000014 	.word	0x20000014
  ldr r3, = _ebss
 800113c:	20001e58 	.word	0x20001e58

08001140 <ADC1_2_IRQHandler>:
 * @retval : None
*/
    .section .text.Default_Handler,"ax",%progbits
Default_Handler:
Infinite_Loop:
  b Infinite_Loop
 8001140:	e7fe      	b.n	8001140 <ADC1_2_IRQHandler>
	...

08001144 <HAL_Init>:
  *         need to ensure that the SysTick time base is always set to 1 millisecond
  *         to have correct HAL operation.
  * @retval HAL status
  */
HAL_StatusTypeDef HAL_Init(void)
{
 8001144:	b580      	push	{r7, lr}
 8001146:	af00      	add	r7, sp, #0
    defined(STM32F102x6) || defined(STM32F102xB) || \
    defined(STM32F103x6) || defined(STM32F103xB) || defined(STM32F103xE) || defined(STM32F103xG) || \
    defined(STM32F105xC) || defined(STM32F107xC)

  /* Prefetch buffer is not available on value line devices */
  __HAL_FLASH_PREFETCH_BUFFER_ENABLE();
 8001148:	4b08      	ldr	r3, [pc, #32]	; (800116c <HAL_Init+0x28>)
 800114a:	681b      	ldr	r3, [r3, #0]
 800114c:	4a07      	ldr	r2, [pc, #28]	; (800116c <HAL_Init+0x28>)
 800114e:	f043 0310 	orr.w	r3, r3, #16
 8001152:	6013      	str	r3, [r2, #0]
#endif
#endif /* PREFETCH_ENABLE */

  /* Set Interrupt Group Priority */
  HAL_NVIC_SetPriorityGrouping(NVIC_PRIORITYGROUP_4);
 8001154:	2003      	movs	r0, #3
 8001156:	f001 fae5 	bl	8002724 <HAL_NVIC_SetPriorityGrouping>

  /* Use systick as time base source and configure 1ms tick (default clock after Reset is HSI) */
  HAL_InitTick(TICK_INT_PRIORITY);
 800115a:	2000      	movs	r0, #0
 800115c:	f7ff fed8 	bl	8000f10 <HAL_InitTick>

  /* Init the low level hardware */
  HAL_MspInit();
 8001160:	f7ff fcc2 	bl	8000ae8 <HAL_MspInit>

  /* Return function status */
  return HAL_OK;
 8001164:	2300      	movs	r3, #0
}
 8001166:	4618      	mov	r0, r3
 8001168:	bd80      	pop	{r7, pc}
 800116a:	bf00      	nop
 800116c:	40022000 	.word	0x40022000

08001170 <HAL_IncTick>:
  * @note This function is declared as __weak to be overwritten in case of other
  *      implementations in user file.
  * @retval None
  */
__weak void HAL_IncTick(void)
{
 8001170:	b480      	push	{r7}
 8001172:	af00      	add	r7, sp, #0
  uwTick += uwTickFreq;
 8001174:	4b05      	ldr	r3, [pc, #20]	; (800118c <HAL_IncTick+0x1c>)
 8001176:	781b      	ldrb	r3, [r3, #0]
 8001178:	461a      	mov	r2, r3
 800117a:	4b05      	ldr	r3, [pc, #20]	; (8001190 <HAL_IncTick+0x20>)
 800117c:	681b      	ldr	r3, [r3, #0]
 800117e:	4413      	add	r3, r2
 8001180:	4a03      	ldr	r2, [pc, #12]	; (8001190 <HAL_IncTick+0x20>)
 8001182:	6013      	str	r3, [r2, #0]
}
 8001184:	bf00      	nop
 8001186:	46bd      	mov	sp, r7
 8001188:	bc80      	pop	{r7}
 800118a:	4770      	bx	lr
 800118c:	2000000c 	.word	0x2000000c
 8001190:	20001e54 	.word	0x20001e54

08001194 <HAL_GetTick>:
  * @note  This function is declared as __weak to be overwritten in case of other
  *       implementations in user file.
  * @retval tick value
  */
__weak uint32_t HAL_GetTick(void)
{
 8001194:	b480      	push	{r7}
 8001196:	af00      	add	r7, sp, #0
  return uwTick;
 8001198:	4b02      	ldr	r3, [pc, #8]	; (80011a4 <HAL_GetTick+0x10>)
 800119a:	681b      	ldr	r3, [r3, #0]
}
 800119c:	4618      	mov	r0, r3
 800119e:	46bd      	mov	sp, r7
 80011a0:	bc80      	pop	{r7}
 80011a2:	4770      	bx	lr
 80011a4:	20001e54 	.word	0x20001e54

080011a8 <HAL_Delay>:
  *       implementations in user file.
  * @param Delay specifies the delay time length, in milliseconds.
  * @retval None
  */
__weak void HAL_Delay(uint32_t Delay)
{
 80011a8:	b580      	push	{r7, lr}
 80011aa:	b084      	sub	sp, #16
 80011ac:	af00      	add	r7, sp, #0
 80011ae:	6078      	str	r0, [r7, #4]
  uint32_t tickstart = HAL_GetTick();
 80011b0:	f7ff fff0 	bl	8001194 <HAL_GetTick>
 80011b4:	60b8      	str	r0, [r7, #8]
  uint32_t wait = Delay;
 80011b6:	687b      	ldr	r3, [r7, #4]
 80011b8:	60fb      	str	r3, [r7, #12]

  /* Add a freq to guarantee minimum wait */
  if (wait < HAL_MAX_DELAY)
 80011ba:	68fb      	ldr	r3, [r7, #12]
 80011bc:	f1b3 3fff 	cmp.w	r3, #4294967295
 80011c0:	d005      	beq.n	80011ce <HAL_Delay+0x26>
  {
    wait += (uint32_t)(uwTickFreq);
 80011c2:	4b09      	ldr	r3, [pc, #36]	; (80011e8 <HAL_Delay+0x40>)
 80011c4:	781b      	ldrb	r3, [r3, #0]
 80011c6:	461a      	mov	r2, r3
 80011c8:	68fb      	ldr	r3, [r7, #12]
 80011ca:	4413      	add	r3, r2
 80011cc:	60fb      	str	r3, [r7, #12]
  }

  while ((HAL_GetTick() - tickstart) < wait)
 80011ce:	bf00      	nop
 80011d0:	f7ff ffe0 	bl	8001194 <HAL_GetTick>
 80011d4:	4602      	mov	r2, r0
 80011d6:	68bb      	ldr	r3, [r7, #8]
 80011d8:	1ad3      	subs	r3, r2, r3
 80011da:	68fa      	ldr	r2, [r7, #12]
 80011dc:	429a      	cmp	r2, r3
 80011de:	d8f7      	bhi.n	80011d0 <HAL_Delay+0x28>
  {
  }
}
 80011e0:	bf00      	nop
 80011e2:	3710      	adds	r7, #16
 80011e4:	46bd      	mov	sp, r7
 80011e6:	bd80      	pop	{r7, pc}
 80011e8:	2000000c 	.word	0x2000000c

080011ec <HAL_ADC_Init>:
  *         of structure "ADC_InitTypeDef".
  * @param  hadc: ADC handle
  * @retval HAL status
  */
HAL_StatusTypeDef HAL_ADC_Init(ADC_HandleTypeDef* hadc)
{
 80011ec:	b580      	push	{r7, lr}
 80011ee:	b086      	sub	sp, #24
 80011f0:	af00      	add	r7, sp, #0
 80011f2:	6078      	str	r0, [r7, #4]
  HAL_StatusTypeDef tmp_hal_status = HAL_OK;
 80011f4:	2300      	movs	r3, #0
 80011f6:	75fb      	strb	r3, [r7, #23]
  uint32_t tmp_cr1 = 0U;
 80011f8:	2300      	movs	r3, #0
 80011fa:	613b      	str	r3, [r7, #16]
  uint32_t tmp_cr2 = 0U;
 80011fc:	2300      	movs	r3, #0
 80011fe:	60bb      	str	r3, [r7, #8]
  uint32_t tmp_sqr1 = 0U;
 8001200:	2300      	movs	r3, #0
 8001202:	60fb      	str	r3, [r7, #12]
  
  /* Check ADC handle */
  if(hadc == NULL)
 8001204:	687b      	ldr	r3, [r7, #4]
 8001206:	2b00      	cmp	r3, #0
 8001208:	d101      	bne.n	800120e <HAL_ADC_Init+0x22>
  {
    return HAL_ERROR;
 800120a:	2301      	movs	r3, #1
 800120c:	e0be      	b.n	800138c <HAL_ADC_Init+0x1a0>
  assert_param(IS_ADC_DATA_ALIGN(hadc->Init.DataAlign));
  assert_param(IS_ADC_SCAN_MODE(hadc->Init.ScanConvMode));
  assert_param(IS_FUNCTIONAL_STATE(hadc->Init.ContinuousConvMode));
  assert_param(IS_ADC_EXTTRIG(hadc->Init.ExternalTrigConv));
  
  if(hadc->Init.ScanConvMode != ADC_SCAN_DISABLE)
 800120e:	687b      	ldr	r3, [r7, #4]
 8001210:	689b      	ldr	r3, [r3, #8]
 8001212:	2b00      	cmp	r3, #0
  /* Refer to header of this file for more details on clock enabling          */
  /* procedure.                                                               */

  /* Actions performed only if ADC is coming from state reset:                */
  /* - Initialization of ADC MSP                                              */
  if (hadc->State == HAL_ADC_STATE_RESET)
 8001214:	687b      	ldr	r3, [r7, #4]
 8001216:	6a9b      	ldr	r3, [r3, #40]	; 0x28
 8001218:	2b00      	cmp	r3, #0
 800121a:	d109      	bne.n	8001230 <HAL_ADC_Init+0x44>
  {
    /* Initialize ADC error code */
    ADC_CLEAR_ERRORCODE(hadc);
 800121c:	687b      	ldr	r3, [r7, #4]
 800121e:	2200      	movs	r2, #0
 8001220:	62da      	str	r2, [r3, #44]	; 0x2c
    
    /* Allocate lock resource and initialize it */
    hadc->Lock = HAL_UNLOCKED;
 8001222:	687b      	ldr	r3, [r7, #4]
 8001224:	2200      	movs	r2, #0
 8001226:	f883 2024 	strb.w	r2, [r3, #36]	; 0x24
    
    /* Init the low level hardware */
    hadc->MspInitCallback(hadc);
#else
    /* Init the low level hardware */
    HAL_ADC_MspInit(hadc);
 800122a:	6878      	ldr	r0, [r7, #4]
 800122c:	f7ff fc94 	bl	8000b58 <HAL_ADC_MspInit>
  /* Stop potential conversion on going, on regular and injected groups */
  /* Disable ADC peripheral */
  /* Note: In case of ADC already enabled, precaution to not launch an        */
  /*       unwanted conversion while modifying register CR2 by writing 1 to   */
  /*       bit ADON.                                                          */
  tmp_hal_status = ADC_ConversionStop_Disable(hadc);
 8001230:	6878      	ldr	r0, [r7, #4]
 8001232:	f000 faf7 	bl	8001824 <ADC_ConversionStop_Disable>
 8001236:	4603      	mov	r3, r0
 8001238:	75fb      	strb	r3, [r7, #23]
  
  
  /* Configuration of ADC parameters if previous preliminary actions are      */ 
  /* correctly completed.                                                     */
  if (HAL_IS_BIT_CLR(hadc->State, HAL_ADC_STATE_ERROR_INTERNAL) &&
 800123a:	687b      	ldr	r3, [r7, #4]
 800123c:	6a9b      	ldr	r3, [r3, #40]	; 0x28
 800123e:	f003 0310 	and.w	r3, r3, #16
 8001242:	2b00      	cmp	r3, #0
 8001244:	f040 8099 	bne.w	800137a <HAL_ADC_Init+0x18e>
 8001248:	7dfb      	ldrb	r3, [r7, #23]
 800124a:	2b00      	cmp	r3, #0
 800124c:	f040 8095 	bne.w	800137a <HAL_ADC_Init+0x18e>
      (tmp_hal_status == HAL_OK)                                  )
  {
    /* Set ADC state */
    ADC_STATE_CLR_SET(hadc->State,
 8001250:	687b      	ldr	r3, [r7, #4]
 8001252:	6a9b      	ldr	r3, [r3, #40]	; 0x28
 8001254:	f423 5388 	bic.w	r3, r3, #4352	; 0x1100
 8001258:	f023 0302 	bic.w	r3, r3, #2
 800125c:	f043 0202 	orr.w	r2, r3, #2
 8001260:	687b      	ldr	r3, [r7, #4]
 8001262:	629a      	str	r2, [r3, #40]	; 0x28
    /*  - continuous conversion mode                                          */
    /* Note: External trigger polarity (ADC_CR2_EXTTRIG) is set into          */
    /*       HAL_ADC_Start_xxx functions because if set in this function,     */
    /*       a conversion on injected group would start a conversion also on  */
    /*       regular group after ADC enabling.                                */
    tmp_cr2 |= (hadc->Init.DataAlign                                          |
 8001264:	687b      	ldr	r3, [r7, #4]
 8001266:	685a      	ldr	r2, [r3, #4]
                ADC_CFGR_EXTSEL(hadc, hadc->Init.ExternalTrigConv)            |
 8001268:	687b      	ldr	r3, [r7, #4]
 800126a:	69db      	ldr	r3, [r3, #28]
    tmp_cr2 |= (hadc->Init.DataAlign                                          |
 800126c:	431a      	orrs	r2, r3
                ADC_CR2_CONTINUOUS((uint32_t)hadc->Init.ContinuousConvMode)   );
 800126e:	687b      	ldr	r3, [r7, #4]
 8001270:	7b1b      	ldrb	r3, [r3, #12]
 8001272:	005b      	lsls	r3, r3, #1
                ADC_CFGR_EXTSEL(hadc, hadc->Init.ExternalTrigConv)            |
 8001274:	4313      	orrs	r3, r2
    tmp_cr2 |= (hadc->Init.DataAlign                                          |
 8001276:	68ba      	ldr	r2, [r7, #8]
 8001278:	4313      	orrs	r3, r2
 800127a:	60bb      	str	r3, [r7, #8]

    /* Configuration of ADC:                                                  */
    /*  - scan mode                                                           */
    /*  - discontinuous mode disable/enable                                   */
    /*  - discontinuous mode number of conversions                            */
    tmp_cr1 |= (ADC_CR1_SCAN_SET(hadc->Init.ScanConvMode));
 800127c:	687b      	ldr	r3, [r7, #4]
 800127e:	689b      	ldr	r3, [r3, #8]
 8001280:	f5b3 7f80 	cmp.w	r3, #256	; 0x100
 8001284:	d003      	beq.n	800128e <HAL_ADC_Init+0xa2>
 8001286:	687b      	ldr	r3, [r7, #4]
 8001288:	689b      	ldr	r3, [r3, #8]
 800128a:	2b01      	cmp	r3, #1
 800128c:	d102      	bne.n	8001294 <HAL_ADC_Init+0xa8>
 800128e:	f44f 7380 	mov.w	r3, #256	; 0x100
 8001292:	e000      	b.n	8001296 <HAL_ADC_Init+0xaa>
 8001294:	2300      	movs	r3, #0
 8001296:	693a      	ldr	r2, [r7, #16]
 8001298:	4313      	orrs	r3, r2
 800129a:	613b      	str	r3, [r7, #16]
    
    /* Enable discontinuous mode only if continuous mode is disabled */
    /* Note: If parameter "Init.ScanConvMode" is set to disable, parameter    */
    /*       discontinuous is set anyway, but will have no effect on ADC HW.  */
    if (hadc->Init.DiscontinuousConvMode == ENABLE)
 800129c:	687b      	ldr	r3, [r7, #4]
 800129e:	7d1b      	ldrb	r3, [r3, #20]
 80012a0:	2b01      	cmp	r3, #1
 80012a2:	d119      	bne.n	80012d8 <HAL_ADC_Init+0xec>
    {
      if (hadc->Init.ContinuousConvMode == DISABLE)
 80012a4:	687b      	ldr	r3, [r7, #4]
 80012a6:	7b1b      	ldrb	r3, [r3, #12]
 80012a8:	2b00      	cmp	r3, #0
 80012aa:	d109      	bne.n	80012c0 <HAL_ADC_Init+0xd4>
      {
        /* Enable the selected ADC regular discontinuous mode */
        /* Set the number of channels to be converted in discontinuous mode */
        SET_BIT(tmp_cr1, ADC_CR1_DISCEN                                            |
 80012ac:	687b      	ldr	r3, [r7, #4]
 80012ae:	699b      	ldr	r3, [r3, #24]
 80012b0:	3b01      	subs	r3, #1
 80012b2:	035a      	lsls	r2, r3, #13
 80012b4:	693b      	ldr	r3, [r7, #16]
 80012b6:	4313      	orrs	r3, r2
 80012b8:	f443 6300 	orr.w	r3, r3, #2048	; 0x800
 80012bc:	613b      	str	r3, [r7, #16]
 80012be:	e00b      	b.n	80012d8 <HAL_ADC_Init+0xec>
      {
        /* ADC regular group settings continuous and sequencer discontinuous*/
        /* cannot be enabled simultaneously.                                */
        
        /* Update ADC state machine to error */
        SET_BIT(hadc->State, HAL_ADC_STATE_ERROR_CONFIG);
 80012c0:	687b      	ldr	r3, [r7, #4]
 80012c2:	6a9b      	ldr	r3, [r3, #40]	; 0x28
 80012c4:	f043 0220 	orr.w	r2, r3, #32
 80012c8:	687b      	ldr	r3, [r7, #4]
 80012ca:	629a      	str	r2, [r3, #40]	; 0x28
        
        /* Set ADC error code to ADC IP internal error */
        SET_BIT(hadc->ErrorCode, HAL_ADC_ERROR_INTERNAL);
 80012cc:	687b      	ldr	r3, [r7, #4]
 80012ce:	6adb      	ldr	r3, [r3, #44]	; 0x2c
 80012d0:	f043 0201 	orr.w	r2, r3, #1
 80012d4:	687b      	ldr	r3, [r7, #4]
 80012d6:	62da      	str	r2, [r3, #44]	; 0x2c
      }
    }
    
    /* Update ADC configuration register CR1 with previous settings */
      MODIFY_REG(hadc->Instance->CR1,
 80012d8:	687b      	ldr	r3, [r7, #4]
 80012da:	681b      	ldr	r3, [r3, #0]
 80012dc:	685b      	ldr	r3, [r3, #4]
 80012de:	f423 4169 	bic.w	r1, r3, #59648	; 0xe900
 80012e2:	687b      	ldr	r3, [r7, #4]
 80012e4:	681b      	ldr	r3, [r3, #0]
 80012e6:	693a      	ldr	r2, [r7, #16]
 80012e8:	430a      	orrs	r2, r1
 80012ea:	605a      	str	r2, [r3, #4]
                 ADC_CR1_DISCEN  |
                 ADC_CR1_DISCNUM    ,
                 tmp_cr1             );
    
    /* Update ADC configuration register CR2 with previous settings */
      MODIFY_REG(hadc->Instance->CR2,
 80012ec:	687b      	ldr	r3, [r7, #4]
 80012ee:	681b      	ldr	r3, [r3, #0]
 80012f0:	689a      	ldr	r2, [r3, #8]
 80012f2:	4b28      	ldr	r3, [pc, #160]	; (8001394 <HAL_ADC_Init+0x1a8>)
 80012f4:	4013      	ands	r3, r2
 80012f6:	687a      	ldr	r2, [r7, #4]
 80012f8:	6812      	ldr	r2, [r2, #0]
 80012fa:	68b9      	ldr	r1, [r7, #8]
 80012fc:	430b      	orrs	r3, r1
 80012fe:	6093      	str	r3, [r2, #8]
    /*   Note: Scan mode is present by hardware on this device and, if        */
    /*   disabled, discards automatically nb of conversions. Anyway, nb of    */
    /*   conversions is forced to 0x00 for alignment over all STM32 devices.  */
    /* - if scan mode is enabled, regular channels sequence length is set to  */
    /*   parameter "NbrOfConversion"                                          */
    if (ADC_CR1_SCAN_SET(hadc->Init.ScanConvMode) == ADC_SCAN_ENABLE)
 8001300:	687b      	ldr	r3, [r7, #4]
 8001302:	689b      	ldr	r3, [r3, #8]
 8001304:	f5b3 7f80 	cmp.w	r3, #256	; 0x100
 8001308:	d003      	beq.n	8001312 <HAL_ADC_Init+0x126>
 800130a:	687b      	ldr	r3, [r7, #4]
 800130c:	689b      	ldr	r3, [r3, #8]
 800130e:	2b01      	cmp	r3, #1
 8001310:	d104      	bne.n	800131c <HAL_ADC_Init+0x130>
    {
      tmp_sqr1 = ADC_SQR1_L_SHIFT(hadc->Init.NbrOfConversion);
 8001312:	687b      	ldr	r3, [r7, #4]
 8001314:	691b      	ldr	r3, [r3, #16]
 8001316:	3b01      	subs	r3, #1
 8001318:	051b      	lsls	r3, r3, #20
 800131a:	60fb      	str	r3, [r7, #12]
    }
      
    MODIFY_REG(hadc->Instance->SQR1,
 800131c:	687b      	ldr	r3, [r7, #4]
 800131e:	681b      	ldr	r3, [r3, #0]
 8001320:	6adb      	ldr	r3, [r3, #44]	; 0x2c
 8001322:	f423 0170 	bic.w	r1, r3, #15728640	; 0xf00000
 8001326:	687b      	ldr	r3, [r7, #4]
 8001328:	681b      	ldr	r3, [r3, #0]
 800132a:	68fa      	ldr	r2, [r7, #12]
 800132c:	430a      	orrs	r2, r1
 800132e:	62da      	str	r2, [r3, #44]	; 0x2c
    /* ensure of no potential problem of ADC core IP clocking.                */
    /* Check through register CR2 (excluding bits set in other functions:     */
    /* execution control bits (ADON, JSWSTART, SWSTART), regular group bits   */
    /* (DMA), injected group bits (JEXTTRIG and JEXTSEL), channel internal    */
    /* measurement path bit (TSVREFE).                                        */
    if (READ_BIT(hadc->Instance->CR2, ~(ADC_CR2_ADON | ADC_CR2_DMA |
 8001330:	687b      	ldr	r3, [r7, #4]
 8001332:	681b      	ldr	r3, [r3, #0]
 8001334:	689a      	ldr	r2, [r3, #8]
 8001336:	4b18      	ldr	r3, [pc, #96]	; (8001398 <HAL_ADC_Init+0x1ac>)
 8001338:	4013      	ands	r3, r2
 800133a:	68ba      	ldr	r2, [r7, #8]
 800133c:	429a      	cmp	r2, r3
 800133e:	d10b      	bne.n	8001358 <HAL_ADC_Init+0x16c>
                                        ADC_CR2_JEXTTRIG | ADC_CR2_JEXTSEL |
                                        ADC_CR2_TSVREFE                     ))
         == tmp_cr2)
    {
      /* Set ADC error code to none */
      ADC_CLEAR_ERRORCODE(hadc);
 8001340:	687b      	ldr	r3, [r7, #4]
 8001342:	2200      	movs	r2, #0
 8001344:	62da      	str	r2, [r3, #44]	; 0x2c
      
      /* Set the ADC state */
      ADC_STATE_CLR_SET(hadc->State,
 8001346:	687b      	ldr	r3, [r7, #4]
 8001348:	6a9b      	ldr	r3, [r3, #40]	; 0x28
 800134a:	f023 0303 	bic.w	r3, r3, #3
 800134e:	f043 0201 	orr.w	r2, r3, #1
 8001352:	687b      	ldr	r3, [r7, #4]
 8001354:	629a      	str	r2, [r3, #40]	; 0x28
    if (READ_BIT(hadc->Instance->CR2, ~(ADC_CR2_ADON | ADC_CR2_DMA |
 8001356:	e018      	b.n	800138a <HAL_ADC_Init+0x19e>
                        HAL_ADC_STATE_READY);
    }
    else
    {
      /* Update ADC state machine to error */
      ADC_STATE_CLR_SET(hadc->State,
 8001358:	687b      	ldr	r3, [r7, #4]
 800135a:	6a9b      	ldr	r3, [r3, #40]	; 0x28
 800135c:	f023 0312 	bic.w	r3, r3, #18
 8001360:	f043 0210 	orr.w	r2, r3, #16
 8001364:	687b      	ldr	r3, [r7, #4]
 8001366:	629a      	str	r2, [r3, #40]	; 0x28
                        HAL_ADC_STATE_BUSY_INTERNAL,
                        HAL_ADC_STATE_ERROR_INTERNAL);
      
      /* Set ADC error code to ADC IP internal error */
      SET_BIT(hadc->ErrorCode, HAL_ADC_ERROR_INTERNAL);
 8001368:	687b      	ldr	r3, [r7, #4]
 800136a:	6adb      	ldr	r3, [r3, #44]	; 0x2c
 800136c:	f043 0201 	orr.w	r2, r3, #1
 8001370:	687b      	ldr	r3, [r7, #4]
 8001372:	62da      	str	r2, [r3, #44]	; 0x2c
      
      tmp_hal_status = HAL_ERROR;
 8001374:	2301      	movs	r3, #1
 8001376:	75fb      	strb	r3, [r7, #23]
    if (READ_BIT(hadc->Instance->CR2, ~(ADC_CR2_ADON | ADC_CR2_DMA |
 8001378:	e007      	b.n	800138a <HAL_ADC_Init+0x19e>
  
  }
  else
  {
    /* Update ADC state machine to error */
    SET_BIT(hadc->State, HAL_ADC_STATE_ERROR_INTERNAL);
 800137a:	687b      	ldr	r3, [r7, #4]
 800137c:	6a9b      	ldr	r3, [r3, #40]	; 0x28
 800137e:	f043 0210 	orr.w	r2, r3, #16
 8001382:	687b      	ldr	r3, [r7, #4]
 8001384:	629a      	str	r2, [r3, #40]	; 0x28
        
    tmp_hal_status = HAL_ERROR;
 8001386:	2301      	movs	r3, #1
 8001388:	75fb      	strb	r3, [r7, #23]
  }
  
  /* Return function status */
  return tmp_hal_status;
 800138a:	7dfb      	ldrb	r3, [r7, #23]
}
 800138c:	4618      	mov	r0, r3
 800138e:	3718      	adds	r7, #24
 8001390:	46bd      	mov	sp, r7
 8001392:	bd80      	pop	{r7, pc}
 8001394:	ffe1f7fd 	.word	0xffe1f7fd
 8001398:	ff1f0efe 	.word	0xff1f0efe

0800139c <HAL_ADC_Start_DMA>:
  * @param  pData: The destination Buffer address.
  * @param  Length: The length of data to be transferred from ADC peripheral to memory.
  * @retval None
  */
HAL_StatusTypeDef HAL_ADC_Start_DMA(ADC_HandleTypeDef* hadc, uint32_t* pData, uint32_t Length)
{
 800139c:	b580      	push	{r7, lr}
 800139e:	b086      	sub	sp, #24
 80013a0:	af00      	add	r7, sp, #0
 80013a2:	60f8      	str	r0, [r7, #12]
 80013a4:	60b9      	str	r1, [r7, #8]
 80013a6:	607a      	str	r2, [r7, #4]
  HAL_StatusTypeDef tmp_hal_status = HAL_OK;
 80013a8:	2300      	movs	r3, #0
 80013aa:	75fb      	strb	r3, [r7, #23]
  assert_param(IS_ADC_DMA_CAPABILITY_INSTANCE(hadc->Instance));
    
  /* Verification if multimode is disabled (for devices with several ADC)     */
  /* If multimode is enabled, dedicated function multimode conversion         */
  /* start DMA must be used.                                                  */
  if(ADC_MULTIMODE_IS_ENABLE(hadc) == RESET)
 80013ac:	68fb      	ldr	r3, [r7, #12]
 80013ae:	681b      	ldr	r3, [r3, #0]
 80013b0:	4a64      	ldr	r2, [pc, #400]	; (8001544 <HAL_ADC_Start_DMA+0x1a8>)
 80013b2:	4293      	cmp	r3, r2
 80013b4:	d004      	beq.n	80013c0 <HAL_ADC_Start_DMA+0x24>
 80013b6:	68fb      	ldr	r3, [r7, #12]
 80013b8:	681b      	ldr	r3, [r3, #0]
 80013ba:	4a63      	ldr	r2, [pc, #396]	; (8001548 <HAL_ADC_Start_DMA+0x1ac>)
 80013bc:	4293      	cmp	r3, r2
 80013be:	d106      	bne.n	80013ce <HAL_ADC_Start_DMA+0x32>
 80013c0:	4b60      	ldr	r3, [pc, #384]	; (8001544 <HAL_ADC_Start_DMA+0x1a8>)
 80013c2:	685b      	ldr	r3, [r3, #4]
 80013c4:	f403 2370 	and.w	r3, r3, #983040	; 0xf0000
 80013c8:	2b00      	cmp	r3, #0
 80013ca:	f040 80b3 	bne.w	8001534 <HAL_ADC_Start_DMA+0x198>
  {
    /* Process locked */
    __HAL_LOCK(hadc);
 80013ce:	68fb      	ldr	r3, [r7, #12]
 80013d0:	f893 3024 	ldrb.w	r3, [r3, #36]	; 0x24
 80013d4:	2b01      	cmp	r3, #1
 80013d6:	d101      	bne.n	80013dc <HAL_ADC_Start_DMA+0x40>
 80013d8:	2302      	movs	r3, #2
 80013da:	e0ae      	b.n	800153a <HAL_ADC_Start_DMA+0x19e>
 80013dc:	68fb      	ldr	r3, [r7, #12]
 80013de:	2201      	movs	r2, #1
 80013e0:	f883 2024 	strb.w	r2, [r3, #36]	; 0x24
    
    /* Enable the ADC peripheral */
    tmp_hal_status = ADC_Enable(hadc);
 80013e4:	68f8      	ldr	r0, [r7, #12]
 80013e6:	f000 f9cb 	bl	8001780 <ADC_Enable>
 80013ea:	4603      	mov	r3, r0
 80013ec:	75fb      	strb	r3, [r7, #23]
    
    /* Start conversion if ADC is effectively enabled */
    if (tmp_hal_status == HAL_OK)
 80013ee:	7dfb      	ldrb	r3, [r7, #23]
 80013f0:	2b00      	cmp	r3, #0
 80013f2:	f040 809a 	bne.w	800152a <HAL_ADC_Start_DMA+0x18e>
    {
      /* Set ADC state                                                        */
      /* - Clear state bitfield related to regular group conversion results   */
      /* - Set state bitfield related to regular operation                    */
      ADC_STATE_CLR_SET(hadc->State,
 80013f6:	68fb      	ldr	r3, [r7, #12]
 80013f8:	6a9b      	ldr	r3, [r3, #40]	; 0x28
 80013fa:	f423 6370 	bic.w	r3, r3, #3840	; 0xf00
 80013fe:	f023 0301 	bic.w	r3, r3, #1
 8001402:	f443 7280 	orr.w	r2, r3, #256	; 0x100
 8001406:	68fb      	ldr	r3, [r7, #12]
 8001408:	629a      	str	r2, [r3, #40]	; 0x28
                        HAL_ADC_STATE_REG_BUSY);
    
    /* Set group injected state (from auto-injection) and multimode state     */
    /* for all cases of multimode: independent mode, multimode ADC master     */
    /* or multimode ADC slave (for devices with several ADCs):                */
    if (ADC_NONMULTIMODE_OR_MULTIMODEMASTER(hadc))
 800140a:	68fb      	ldr	r3, [r7, #12]
 800140c:	681b      	ldr	r3, [r3, #0]
 800140e:	4a4e      	ldr	r2, [pc, #312]	; (8001548 <HAL_ADC_Start_DMA+0x1ac>)
 8001410:	4293      	cmp	r3, r2
 8001412:	d105      	bne.n	8001420 <HAL_ADC_Start_DMA+0x84>
 8001414:	4b4b      	ldr	r3, [pc, #300]	; (8001544 <HAL_ADC_Start_DMA+0x1a8>)
 8001416:	685b      	ldr	r3, [r3, #4]
 8001418:	f403 2370 	and.w	r3, r3, #983040	; 0xf0000
 800141c:	2b00      	cmp	r3, #0
 800141e:	d115      	bne.n	800144c <HAL_ADC_Start_DMA+0xb0>
    {
      /* Set ADC state (ADC independent or master) */
      CLEAR_BIT(hadc->State, HAL_ADC_STATE_MULTIMODE_SLAVE);
 8001420:	68fb      	ldr	r3, [r7, #12]
 8001422:	6a9b      	ldr	r3, [r3, #40]	; 0x28
 8001424:	f423 1280 	bic.w	r2, r3, #1048576	; 0x100000
 8001428:	68fb      	ldr	r3, [r7, #12]
 800142a:	629a      	str	r2, [r3, #40]	; 0x28
      
      /* If conversions on group regular are also triggering group injected,  */
      /* update ADC state.                                                    */
      if (READ_BIT(hadc->Instance->CR1, ADC_CR1_JAUTO) != RESET)
 800142c:	68fb      	ldr	r3, [r7, #12]
 800142e:	681b      	ldr	r3, [r3, #0]
 8001430:	685b      	ldr	r3, [r3, #4]
 8001432:	f403 6380 	and.w	r3, r3, #1024	; 0x400
 8001436:	2b00      	cmp	r3, #0
 8001438:	d026      	beq.n	8001488 <HAL_ADC_Start_DMA+0xec>
      {
        ADC_STATE_CLR_SET(hadc->State, HAL_ADC_STATE_INJ_EOC, HAL_ADC_STATE_INJ_BUSY);  
 800143a:	68fb      	ldr	r3, [r7, #12]
 800143c:	6a9b      	ldr	r3, [r3, #40]	; 0x28
 800143e:	f423 5340 	bic.w	r3, r3, #12288	; 0x3000
 8001442:	f443 5280 	orr.w	r2, r3, #4096	; 0x1000
 8001446:	68fb      	ldr	r3, [r7, #12]
 8001448:	629a      	str	r2, [r3, #40]	; 0x28
      if (READ_BIT(hadc->Instance->CR1, ADC_CR1_JAUTO) != RESET)
 800144a:	e01d      	b.n	8001488 <HAL_ADC_Start_DMA+0xec>
      }
    }
    else
    {
      /* Set ADC state (ADC slave) */
      SET_BIT(hadc->State, HAL_ADC_STATE_MULTIMODE_SLAVE);
 800144c:	68fb      	ldr	r3, [r7, #12]
 800144e:	6a9b      	ldr	r3, [r3, #40]	; 0x28
 8001450:	f443 1280 	orr.w	r2, r3, #1048576	; 0x100000
 8001454:	68fb      	ldr	r3, [r7, #12]
 8001456:	629a      	str	r2, [r3, #40]	; 0x28
      
      /* If conversions on group regular are also triggering group injected,  */
      /* update ADC state.                                                    */
      if (ADC_MULTIMODE_AUTO_INJECTED(hadc))
 8001458:	68fb      	ldr	r3, [r7, #12]
 800145a:	681b      	ldr	r3, [r3, #0]
 800145c:	4a39      	ldr	r2, [pc, #228]	; (8001544 <HAL_ADC_Start_DMA+0x1a8>)
 800145e:	4293      	cmp	r3, r2
 8001460:	d004      	beq.n	800146c <HAL_ADC_Start_DMA+0xd0>
 8001462:	68fb      	ldr	r3, [r7, #12]
 8001464:	681b      	ldr	r3, [r3, #0]
 8001466:	4a38      	ldr	r2, [pc, #224]	; (8001548 <HAL_ADC_Start_DMA+0x1ac>)
 8001468:	4293      	cmp	r3, r2
 800146a:	d10d      	bne.n	8001488 <HAL_ADC_Start_DMA+0xec>
 800146c:	4b35      	ldr	r3, [pc, #212]	; (8001544 <HAL_ADC_Start_DMA+0x1a8>)
 800146e:	685b      	ldr	r3, [r3, #4]
 8001470:	f403 6380 	and.w	r3, r3, #1024	; 0x400
 8001474:	2b00      	cmp	r3, #0
 8001476:	d007      	beq.n	8001488 <HAL_ADC_Start_DMA+0xec>
      {
        ADC_STATE_CLR_SET(hadc->State, HAL_ADC_STATE_INJ_EOC, HAL_ADC_STATE_INJ_BUSY);
 8001478:	68fb      	ldr	r3, [r7, #12]
 800147a:	6a9b      	ldr	r3, [r3, #40]	; 0x28
 800147c:	f423 5340 	bic.w	r3, r3, #12288	; 0x3000
 8001480:	f443 5280 	orr.w	r2, r3, #4096	; 0x1000
 8001484:	68fb      	ldr	r3, [r7, #12]
 8001486:	629a      	str	r2, [r3, #40]	; 0x28
      }
    }
      
      /* State machine update: Check if an injected conversion is ongoing */
      if (HAL_IS_BIT_SET(hadc->State, HAL_ADC_STATE_INJ_BUSY))
 8001488:	68fb      	ldr	r3, [r7, #12]
 800148a:	6a9b      	ldr	r3, [r3, #40]	; 0x28
 800148c:	f403 5380 	and.w	r3, r3, #4096	; 0x1000
 8001490:	2b00      	cmp	r3, #0
 8001492:	d006      	beq.n	80014a2 <HAL_ADC_Start_DMA+0x106>
      {
        /* Reset ADC error code fields related to conversions on group regular */
        CLEAR_BIT(hadc->ErrorCode, (HAL_ADC_ERROR_OVR | HAL_ADC_ERROR_DMA));         
 8001494:	68fb      	ldr	r3, [r7, #12]
 8001496:	6adb      	ldr	r3, [r3, #44]	; 0x2c
 8001498:	f023 0206 	bic.w	r2, r3, #6
 800149c:	68fb      	ldr	r3, [r7, #12]
 800149e:	62da      	str	r2, [r3, #44]	; 0x2c
 80014a0:	e002      	b.n	80014a8 <HAL_ADC_Start_DMA+0x10c>
      }
      else
      {
        /* Reset ADC all error code fields */
        ADC_CLEAR_ERRORCODE(hadc);
 80014a2:	68fb      	ldr	r3, [r7, #12]
 80014a4:	2200      	movs	r2, #0
 80014a6:	62da      	str	r2, [r3, #44]	; 0x2c
      }
      
      /* Process unlocked */
      /* Unlock before starting ADC conversions: in case of potential         */
      /* interruption, to let the process to ADC IRQ Handler.                 */
      __HAL_UNLOCK(hadc);
 80014a8:	68fb      	ldr	r3, [r7, #12]
 80014aa:	2200      	movs	r2, #0
 80014ac:	f883 2024 	strb.w	r2, [r3, #36]	; 0x24
      
      /* Set the DMA transfer complete callback */
      hadc->DMA_Handle->XferCpltCallback = ADC_DMAConvCplt;
 80014b0:	68fb      	ldr	r3, [r7, #12]
 80014b2:	6a1b      	ldr	r3, [r3, #32]
 80014b4:	4a25      	ldr	r2, [pc, #148]	; (800154c <HAL_ADC_Start_DMA+0x1b0>)
 80014b6:	629a      	str	r2, [r3, #40]	; 0x28

      /* Set the DMA half transfer complete callback */
      hadc->DMA_Handle->XferHalfCpltCallback = ADC_DMAHalfConvCplt;
 80014b8:	68fb      	ldr	r3, [r7, #12]
 80014ba:	6a1b      	ldr	r3, [r3, #32]
 80014bc:	4a24      	ldr	r2, [pc, #144]	; (8001550 <HAL_ADC_Start_DMA+0x1b4>)
 80014be:	62da      	str	r2, [r3, #44]	; 0x2c
      
      /* Set the DMA error callback */
      hadc->DMA_Handle->XferErrorCallback = ADC_DMAError;
 80014c0:	68fb      	ldr	r3, [r7, #12]
 80014c2:	6a1b      	ldr	r3, [r3, #32]
 80014c4:	4a23      	ldr	r2, [pc, #140]	; (8001554 <HAL_ADC_Start_DMA+0x1b8>)
 80014c6:	631a      	str	r2, [r3, #48]	; 0x30
      /* start (in case of SW start):                                         */
      
      /* Clear regular group conversion flag and overrun flag */
      /* (To ensure of no unknown state from potential previous ADC           */
      /* operations)                                                          */
      __HAL_ADC_CLEAR_FLAG(hadc, ADC_FLAG_EOC);
 80014c8:	68fb      	ldr	r3, [r7, #12]
 80014ca:	681b      	ldr	r3, [r3, #0]
 80014cc:	f06f 0202 	mvn.w	r2, #2
 80014d0:	601a      	str	r2, [r3, #0]
      
      /* Enable ADC DMA mode */
      SET_BIT(hadc->Instance->CR2, ADC_CR2_DMA);
 80014d2:	68fb      	ldr	r3, [r7, #12]
 80014d4:	681b      	ldr	r3, [r3, #0]
 80014d6:	689a      	ldr	r2, [r3, #8]
 80014d8:	68fb      	ldr	r3, [r7, #12]
 80014da:	681b      	ldr	r3, [r3, #0]
 80014dc:	f442 7280 	orr.w	r2, r2, #256	; 0x100
 80014e0:	609a      	str	r2, [r3, #8]
      
      /* Start the DMA channel */
      HAL_DMA_Start_IT(hadc->DMA_Handle, (uint32_t)&hadc->Instance->DR, (uint32_t)pData, Length);
 80014e2:	68fb      	ldr	r3, [r7, #12]
 80014e4:	6a18      	ldr	r0, [r3, #32]
 80014e6:	68fb      	ldr	r3, [r7, #12]
 80014e8:	681b      	ldr	r3, [r3, #0]
 80014ea:	334c      	adds	r3, #76	; 0x4c
 80014ec:	4619      	mov	r1, r3
 80014ee:	68ba      	ldr	r2, [r7, #8]
 80014f0:	687b      	ldr	r3, [r7, #4]
 80014f2:	f001 f9a7 	bl	8002844 <HAL_DMA_Start_IT>
      
      /* Enable conversion of regular group.                                  */
      /* If software start has been selected, conversion starts immediately.  */
      /* If external trigger has been selected, conversion will start at next */
      /* trigger event.                                                       */
      if (ADC_IS_SOFTWARE_START_REGULAR(hadc))
 80014f6:	68fb      	ldr	r3, [r7, #12]
 80014f8:	681b      	ldr	r3, [r3, #0]
 80014fa:	689b      	ldr	r3, [r3, #8]
 80014fc:	f403 2360 	and.w	r3, r3, #917504	; 0xe0000
 8001500:	f5b3 2f60 	cmp.w	r3, #917504	; 0xe0000
 8001504:	d108      	bne.n	8001518 <HAL_ADC_Start_DMA+0x17c>
      {
        /* Start ADC conversion on regular group with SW start */
        SET_BIT(hadc->Instance->CR2, (ADC_CR2_SWSTART | ADC_CR2_EXTTRIG));
 8001506:	68fb      	ldr	r3, [r7, #12]
 8001508:	681b      	ldr	r3, [r3, #0]
 800150a:	689a      	ldr	r2, [r3, #8]
 800150c:	68fb      	ldr	r3, [r7, #12]
 800150e:	681b      	ldr	r3, [r3, #0]
 8001510:	f442 02a0 	orr.w	r2, r2, #5242880	; 0x500000
 8001514:	609a      	str	r2, [r3, #8]
    if (tmp_hal_status == HAL_OK)
 8001516:	e00f      	b.n	8001538 <HAL_ADC_Start_DMA+0x19c>
      }
      else
      {
        /* Start ADC conversion on regular group with external trigger */
        SET_BIT(hadc->Instance->CR2, ADC_CR2_EXTTRIG);
 8001518:	68fb      	ldr	r3, [r7, #12]
 800151a:	681b      	ldr	r3, [r3, #0]
 800151c:	689a      	ldr	r2, [r3, #8]
 800151e:	68fb      	ldr	r3, [r7, #12]
 8001520:	681b      	ldr	r3, [r3, #0]
 8001522:	f442 1280 	orr.w	r2, r2, #1048576	; 0x100000
 8001526:	609a      	str	r2, [r3, #8]
    if (tmp_hal_status == HAL_OK)
 8001528:	e006      	b.n	8001538 <HAL_ADC_Start_DMA+0x19c>
      }
    }
    else
    {
      /* Process unlocked */
      __HAL_UNLOCK(hadc);
 800152a:	68fb      	ldr	r3, [r7, #12]
 800152c:	2200      	movs	r2, #0
 800152e:	f883 2024 	strb.w	r2, [r3, #36]	; 0x24
    if (tmp_hal_status == HAL_OK)
 8001532:	e001      	b.n	8001538 <HAL_ADC_Start_DMA+0x19c>
    }
  }
  else
  {
    tmp_hal_status = HAL_ERROR;
 8001534:	2301      	movs	r3, #1
 8001536:	75fb      	strb	r3, [r7, #23]
  }
  
  /* Return function status */
  return tmp_hal_status;
 8001538:	7dfb      	ldrb	r3, [r7, #23]
}
 800153a:	4618      	mov	r0, r3
 800153c:	3718      	adds	r7, #24
 800153e:	46bd      	mov	sp, r7
 8001540:	bd80      	pop	{r7, pc}
 8001542:	bf00      	nop
 8001544:	40012400 	.word	0x40012400
 8001548:	40012800 	.word	0x40012800
 800154c:	08001899 	.word	0x08001899
 8001550:	08001915 	.word	0x08001915
 8001554:	08001931 	.word	0x08001931

08001558 <HAL_ADC_ConvCpltCallback>:
  * @brief  Conversion complete callback in non blocking mode 
  * @param  hadc: ADC handle
  * @retval None
  */
__weak void HAL_ADC_ConvCpltCallback(ADC_HandleTypeDef* hadc)
{
 8001558:	b480      	push	{r7}
 800155a:	b083      	sub	sp, #12
 800155c:	af00      	add	r7, sp, #0
 800155e:	6078      	str	r0, [r7, #4]
  /* Prevent unused argument(s) compilation warning */
  UNUSED(hadc);
  /* NOTE : This function should not be modified. When the callback is needed,
            function HAL_ADC_ConvCpltCallback must be implemented in the user file.
   */
}
 8001560:	bf00      	nop
 8001562:	370c      	adds	r7, #12
 8001564:	46bd      	mov	sp, r7
 8001566:	bc80      	pop	{r7}
 8001568:	4770      	bx	lr

0800156a <HAL_ADC_ConvHalfCpltCallback>:
  * @brief  Conversion DMA half-transfer callback in non blocking mode 
  * @param  hadc: ADC handle
  * @retval None
  */
__weak void HAL_ADC_ConvHalfCpltCallback(ADC_HandleTypeDef* hadc)
{
 800156a:	b480      	push	{r7}
 800156c:	b083      	sub	sp, #12
 800156e:	af00      	add	r7, sp, #0
 8001570:	6078      	str	r0, [r7, #4]
  /* Prevent unused argument(s) compilation warning */
  UNUSED(hadc);
  /* NOTE : This function should not be modified. When the callback is needed,
            function HAL_ADC_ConvHalfCpltCallback must be implemented in the user file.
  */
}
 8001572:	bf00      	nop
 8001574:	370c      	adds	r7, #12
 8001576:	46bd      	mov	sp, r7
 8001578:	bc80      	pop	{r7}
 800157a:	4770      	bx	lr

0800157c <HAL_ADC_ErrorCallback>:
  *        (ADC conversion with interruption or transfer by DMA)
  * @param  hadc: ADC handle
  * @retval None
  */
__weak void HAL_ADC_ErrorCallback(ADC_HandleTypeDef *hadc)
{
 800157c:	b480      	push	{r7}
 800157e:	b083      	sub	sp, #12
 8001580:	af00      	add	r7, sp, #0
 8001582:	6078      	str	r0, [r7, #4]
  /* Prevent unused argument(s) compilation warning */
  UNUSED(hadc);
  /* NOTE : This function should not be modified. When the callback is needed,
            function HAL_ADC_ErrorCallback must be implemented in the user file.
  */
}
 8001584:	bf00      	nop
 8001586:	370c      	adds	r7, #12
 8001588:	46bd      	mov	sp, r7
 800158a:	bc80      	pop	{r7}
 800158c:	4770      	bx	lr
	...

08001590 <HAL_ADC_ConfigChannel>:
  * @param  hadc: ADC handle
  * @param  sConfig: Structure of ADC channel for regular group.
  * @retval HAL status
  */
HAL_StatusTypeDef HAL_ADC_ConfigChannel(ADC_HandleTypeDef* hadc, ADC_ChannelConfTypeDef* sConfig)
{ 
 8001590:	b480      	push	{r7}
 8001592:	b085      	sub	sp, #20
 8001594:	af00      	add	r7, sp, #0
 8001596:	6078      	str	r0, [r7, #4]
 8001598:	6039      	str	r1, [r7, #0]
  HAL_StatusTypeDef tmp_hal_status = HAL_OK;
 800159a:	2300      	movs	r3, #0
 800159c:	73fb      	strb	r3, [r7, #15]
  __IO uint32_t wait_loop_index = 0U;
 800159e:	2300      	movs	r3, #0
 80015a0:	60bb      	str	r3, [r7, #8]
  assert_param(IS_ADC_CHANNEL(sConfig->Channel));
  assert_param(IS_ADC_REGULAR_RANK(sConfig->Rank));
  assert_param(IS_ADC_SAMPLE_TIME(sConfig->SamplingTime));
  
  /* Process locked */
  __HAL_LOCK(hadc);
 80015a2:	687b      	ldr	r3, [r7, #4]
 80015a4:	f893 3024 	ldrb.w	r3, [r3, #36]	; 0x24
 80015a8:	2b01      	cmp	r3, #1
 80015aa:	d101      	bne.n	80015b0 <HAL_ADC_ConfigChannel+0x20>
 80015ac:	2302      	movs	r3, #2
 80015ae:	e0dc      	b.n	800176a <HAL_ADC_ConfigChannel+0x1da>
 80015b0:	687b      	ldr	r3, [r7, #4]
 80015b2:	2201      	movs	r2, #1
 80015b4:	f883 2024 	strb.w	r2, [r3, #36]	; 0x24
  
  
  /* Regular sequence configuration */
  /* For Rank 1 to 6 */
  if (sConfig->Rank < 7U)
 80015b8:	683b      	ldr	r3, [r7, #0]
 80015ba:	685b      	ldr	r3, [r3, #4]
 80015bc:	2b06      	cmp	r3, #6
 80015be:	d81c      	bhi.n	80015fa <HAL_ADC_ConfigChannel+0x6a>
  {
    MODIFY_REG(hadc->Instance->SQR3                        ,
 80015c0:	687b      	ldr	r3, [r7, #4]
 80015c2:	681b      	ldr	r3, [r3, #0]
 80015c4:	6b59      	ldr	r1, [r3, #52]	; 0x34
 80015c6:	683b      	ldr	r3, [r7, #0]
 80015c8:	685a      	ldr	r2, [r3, #4]
 80015ca:	4613      	mov	r3, r2
 80015cc:	009b      	lsls	r3, r3, #2
 80015ce:	4413      	add	r3, r2
 80015d0:	3b05      	subs	r3, #5
 80015d2:	221f      	movs	r2, #31
 80015d4:	fa02 f303 	lsl.w	r3, r2, r3
 80015d8:	43db      	mvns	r3, r3
 80015da:	4019      	ands	r1, r3
 80015dc:	683b      	ldr	r3, [r7, #0]
 80015de:	6818      	ldr	r0, [r3, #0]
 80015e0:	683b      	ldr	r3, [r7, #0]
 80015e2:	685a      	ldr	r2, [r3, #4]
 80015e4:	4613      	mov	r3, r2
 80015e6:	009b      	lsls	r3, r3, #2
 80015e8:	4413      	add	r3, r2
 80015ea:	3b05      	subs	r3, #5
 80015ec:	fa00 f203 	lsl.w	r2, r0, r3
 80015f0:	687b      	ldr	r3, [r7, #4]
 80015f2:	681b      	ldr	r3, [r3, #0]
 80015f4:	430a      	orrs	r2, r1
 80015f6:	635a      	str	r2, [r3, #52]	; 0x34
 80015f8:	e03c      	b.n	8001674 <HAL_ADC_ConfigChannel+0xe4>
               ADC_SQR3_RK(ADC_SQR3_SQ1, sConfig->Rank)    ,
               ADC_SQR3_RK(sConfig->Channel, sConfig->Rank) );
  }
  /* For Rank 7 to 12 */
  else if (sConfig->Rank < 13U)
 80015fa:	683b      	ldr	r3, [r7, #0]
 80015fc:	685b      	ldr	r3, [r3, #4]
 80015fe:	2b0c      	cmp	r3, #12
 8001600:	d81c      	bhi.n	800163c <HAL_ADC_ConfigChannel+0xac>
  {
    MODIFY_REG(hadc->Instance->SQR2                        ,
 8001602:	687b      	ldr	r3, [r7, #4]
 8001604:	681b      	ldr	r3, [r3, #0]
 8001606:	6b19      	ldr	r1, [r3, #48]	; 0x30
 8001608:	683b      	ldr	r3, [r7, #0]
 800160a:	685a      	ldr	r2, [r3, #4]
 800160c:	4613      	mov	r3, r2
 800160e:	009b      	lsls	r3, r3, #2
 8001610:	4413      	add	r3, r2
 8001612:	3b23      	subs	r3, #35	; 0x23
 8001614:	221f      	movs	r2, #31
 8001616:	fa02 f303 	lsl.w	r3, r2, r3
 800161a:	43db      	mvns	r3, r3
 800161c:	4019      	ands	r1, r3
 800161e:	683b      	ldr	r3, [r7, #0]
 8001620:	6818      	ldr	r0, [r3, #0]
 8001622:	683b      	ldr	r3, [r7, #0]
 8001624:	685a      	ldr	r2, [r3, #4]
 8001626:	4613      	mov	r3, r2
 8001628:	009b      	lsls	r3, r3, #2
 800162a:	4413      	add	r3, r2
 800162c:	3b23      	subs	r3, #35	; 0x23
 800162e:	fa00 f203 	lsl.w	r2, r0, r3
 8001632:	687b      	ldr	r3, [r7, #4]
 8001634:	681b      	ldr	r3, [r3, #0]
 8001636:	430a      	orrs	r2, r1
 8001638:	631a      	str	r2, [r3, #48]	; 0x30
 800163a:	e01b      	b.n	8001674 <HAL_ADC_ConfigChannel+0xe4>
               ADC_SQR2_RK(sConfig->Channel, sConfig->Rank) );
  }
  /* For Rank 13 to 16 */
  else
  {
    MODIFY_REG(hadc->Instance->SQR1                        ,
 800163c:	687b      	ldr	r3, [r7, #4]
 800163e:	681b      	ldr	r3, [r3, #0]
 8001640:	6ad9      	ldr	r1, [r3, #44]	; 0x2c
 8001642:	683b      	ldr	r3, [r7, #0]
 8001644:	685a      	ldr	r2, [r3, #4]
 8001646:	4613      	mov	r3, r2
 8001648:	009b      	lsls	r3, r3, #2
 800164a:	4413      	add	r3, r2
 800164c:	3b41      	subs	r3, #65	; 0x41
 800164e:	221f      	movs	r2, #31
 8001650:	fa02 f303 	lsl.w	r3, r2, r3
 8001654:	43db      	mvns	r3, r3
 8001656:	4019      	ands	r1, r3
 8001658:	683b      	ldr	r3, [r7, #0]
 800165a:	6818      	ldr	r0, [r3, #0]
 800165c:	683b      	ldr	r3, [r7, #0]
 800165e:	685a      	ldr	r2, [r3, #4]
 8001660:	4613      	mov	r3, r2
 8001662:	009b      	lsls	r3, r3, #2
 8001664:	4413      	add	r3, r2
 8001666:	3b41      	subs	r3, #65	; 0x41
 8001668:	fa00 f203 	lsl.w	r2, r0, r3
 800166c:	687b      	ldr	r3, [r7, #4]
 800166e:	681b      	ldr	r3, [r3, #0]
 8001670:	430a      	orrs	r2, r1
 8001672:	62da      	str	r2, [r3, #44]	; 0x2c
  }
  
  
  /* Channel sampling time configuration */
  /* For channels 10 to 17 */
  if (sConfig->Channel >= ADC_CHANNEL_10)
 8001674:	683b      	ldr	r3, [r7, #0]
 8001676:	681b      	ldr	r3, [r3, #0]
 8001678:	2b09      	cmp	r3, #9
 800167a:	d91c      	bls.n	80016b6 <HAL_ADC_ConfigChannel+0x126>
  {
    MODIFY_REG(hadc->Instance->SMPR1                             ,
 800167c:	687b      	ldr	r3, [r7, #4]
 800167e:	681b      	ldr	r3, [r3, #0]
 8001680:	68d9      	ldr	r1, [r3, #12]
 8001682:	683b      	ldr	r3, [r7, #0]
 8001684:	681a      	ldr	r2, [r3, #0]
 8001686:	4613      	mov	r3, r2
 8001688:	005b      	lsls	r3, r3, #1
 800168a:	4413      	add	r3, r2
 800168c:	3b1e      	subs	r3, #30
 800168e:	2207      	movs	r2, #7
 8001690:	fa02 f303 	lsl.w	r3, r2, r3
 8001694:	43db      	mvns	r3, r3
 8001696:	4019      	ands	r1, r3
 8001698:	683b      	ldr	r3, [r7, #0]
 800169a:	6898      	ldr	r0, [r3, #8]
 800169c:	683b      	ldr	r3, [r7, #0]
 800169e:	681a      	ldr	r2, [r3, #0]
 80016a0:	4613      	mov	r3, r2
 80016a2:	005b      	lsls	r3, r3, #1
 80016a4:	4413      	add	r3, r2
 80016a6:	3b1e      	subs	r3, #30
 80016a8:	fa00 f203 	lsl.w	r2, r0, r3
 80016ac:	687b      	ldr	r3, [r7, #4]
 80016ae:	681b      	ldr	r3, [r3, #0]
 80016b0:	430a      	orrs	r2, r1
 80016b2:	60da      	str	r2, [r3, #12]
 80016b4:	e019      	b.n	80016ea <HAL_ADC_ConfigChannel+0x15a>
               ADC_SMPR1(ADC_SMPR1_SMP10, sConfig->Channel)      ,
               ADC_SMPR1(sConfig->SamplingTime, sConfig->Channel) );
  }
  else /* For channels 0 to 9 */
  {
    MODIFY_REG(hadc->Instance->SMPR2                             ,
 80016b6:	687b      	ldr	r3, [r7, #4]
 80016b8:	681b      	ldr	r3, [r3, #0]
 80016ba:	6919      	ldr	r1, [r3, #16]
 80016bc:	683b      	ldr	r3, [r7, #0]
 80016be:	681a      	ldr	r2, [r3, #0]
 80016c0:	4613      	mov	r3, r2
 80016c2:	005b      	lsls	r3, r3, #1
 80016c4:	4413      	add	r3, r2
 80016c6:	2207      	movs	r2, #7
 80016c8:	fa02 f303 	lsl.w	r3, r2, r3
 80016cc:	43db      	mvns	r3, r3
 80016ce:	4019      	ands	r1, r3
 80016d0:	683b      	ldr	r3, [r7, #0]
 80016d2:	6898      	ldr	r0, [r3, #8]
 80016d4:	683b      	ldr	r3, [r7, #0]
 80016d6:	681a      	ldr	r2, [r3, #0]
 80016d8:	4613      	mov	r3, r2
 80016da:	005b      	lsls	r3, r3, #1
 80016dc:	4413      	add	r3, r2
 80016de:	fa00 f203 	lsl.w	r2, r0, r3
 80016e2:	687b      	ldr	r3, [r7, #4]
 80016e4:	681b      	ldr	r3, [r3, #0]
 80016e6:	430a      	orrs	r2, r1
 80016e8:	611a      	str	r2, [r3, #16]
               ADC_SMPR2(sConfig->SamplingTime, sConfig->Channel) );
  }
  
  /* If ADC1 Channel_16 or Channel_17 is selected, enable Temperature sensor  */
  /* and VREFINT measurement path.                                            */
  if ((sConfig->Channel == ADC_CHANNEL_TEMPSENSOR) ||
 80016ea:	683b      	ldr	r3, [r7, #0]
 80016ec:	681b      	ldr	r3, [r3, #0]
 80016ee:	2b10      	cmp	r3, #16
 80016f0:	d003      	beq.n	80016fa <HAL_ADC_ConfigChannel+0x16a>
      (sConfig->Channel == ADC_CHANNEL_VREFINT)      )
 80016f2:	683b      	ldr	r3, [r7, #0]
 80016f4:	681b      	ldr	r3, [r3, #0]
  if ((sConfig->Channel == ADC_CHANNEL_TEMPSENSOR) ||
 80016f6:	2b11      	cmp	r3, #17
 80016f8:	d132      	bne.n	8001760 <HAL_ADC_ConfigChannel+0x1d0>
  {
    /* For STM32F1 devices with several ADC: Only ADC1 can access internal    */
    /* measurement channels (VrefInt/TempSensor). If these channels are       */
    /* intended to be set on other ADC instances, an error is reported.       */
    if (hadc->Instance == ADC1)
 80016fa:	687b      	ldr	r3, [r7, #4]
 80016fc:	681b      	ldr	r3, [r3, #0]
 80016fe:	4a1d      	ldr	r2, [pc, #116]	; (8001774 <HAL_ADC_ConfigChannel+0x1e4>)
 8001700:	4293      	cmp	r3, r2
 8001702:	d125      	bne.n	8001750 <HAL_ADC_ConfigChannel+0x1c0>
    {
      if (READ_BIT(hadc->Instance->CR2, ADC_CR2_TSVREFE) == RESET)
 8001704:	687b      	ldr	r3, [r7, #4]
 8001706:	681b      	ldr	r3, [r3, #0]
 8001708:	689b      	ldr	r3, [r3, #8]
 800170a:	f403 0300 	and.w	r3, r3, #8388608	; 0x800000
 800170e:	2b00      	cmp	r3, #0
 8001710:	d126      	bne.n	8001760 <HAL_ADC_ConfigChannel+0x1d0>
      {
        SET_BIT(hadc->Instance->CR2, ADC_CR2_TSVREFE);
 8001712:	687b      	ldr	r3, [r7, #4]
 8001714:	681b      	ldr	r3, [r3, #0]
 8001716:	689a      	ldr	r2, [r3, #8]
 8001718:	687b      	ldr	r3, [r7, #4]
 800171a:	681b      	ldr	r3, [r3, #0]
 800171c:	f442 0200 	orr.w	r2, r2, #8388608	; 0x800000
 8001720:	609a      	str	r2, [r3, #8]
        
        if ((sConfig->Channel == ADC_CHANNEL_TEMPSENSOR))
 8001722:	683b      	ldr	r3, [r7, #0]
 8001724:	681b      	ldr	r3, [r3, #0]
 8001726:	2b10      	cmp	r3, #16
 8001728:	d11a      	bne.n	8001760 <HAL_ADC_ConfigChannel+0x1d0>
        {
          /* Delay for temperature sensor stabilization time */
          /* Compute number of CPU cycles to wait for */
          wait_loop_index = (ADC_TEMPSENSOR_DELAY_US * (SystemCoreClock / 1000000U));
 800172a:	4b13      	ldr	r3, [pc, #76]	; (8001778 <HAL_ADC_ConfigChannel+0x1e8>)
 800172c:	681b      	ldr	r3, [r3, #0]
 800172e:	4a13      	ldr	r2, [pc, #76]	; (800177c <HAL_ADC_ConfigChannel+0x1ec>)
 8001730:	fba2 2303 	umull	r2, r3, r2, r3
 8001734:	0c9a      	lsrs	r2, r3, #18
 8001736:	4613      	mov	r3, r2
 8001738:	009b      	lsls	r3, r3, #2
 800173a:	4413      	add	r3, r2
 800173c:	005b      	lsls	r3, r3, #1
 800173e:	60bb      	str	r3, [r7, #8]
          while(wait_loop_index != 0U)
 8001740:	e002      	b.n	8001748 <HAL_ADC_ConfigChannel+0x1b8>
          {
            wait_loop_index--;
 8001742:	68bb      	ldr	r3, [r7, #8]
 8001744:	3b01      	subs	r3, #1
 8001746:	60bb      	str	r3, [r7, #8]
          while(wait_loop_index != 0U)
 8001748:	68bb      	ldr	r3, [r7, #8]
 800174a:	2b00      	cmp	r3, #0
 800174c:	d1f9      	bne.n	8001742 <HAL_ADC_ConfigChannel+0x1b2>
 800174e:	e007      	b.n	8001760 <HAL_ADC_ConfigChannel+0x1d0>
      }
    }
    else
    {
      /* Update ADC state machine to error */
      SET_BIT(hadc->State, HAL_ADC_STATE_ERROR_CONFIG);
 8001750:	687b      	ldr	r3, [r7, #4]
 8001752:	6a9b      	ldr	r3, [r3, #40]	; 0x28
 8001754:	f043 0220 	orr.w	r2, r3, #32
 8001758:	687b      	ldr	r3, [r7, #4]
 800175a:	629a      	str	r2, [r3, #40]	; 0x28
      
      tmp_hal_status = HAL_ERROR;
 800175c:	2301      	movs	r3, #1
 800175e:	73fb      	strb	r3, [r7, #15]
    }
  }
  
  /* Process unlocked */
  __HAL_UNLOCK(hadc);
 8001760:	687b      	ldr	r3, [r7, #4]
 8001762:	2200      	movs	r2, #0
 8001764:	f883 2024 	strb.w	r2, [r3, #36]	; 0x24
  
  /* Return function status */
  return tmp_hal_status;
 8001768:	7bfb      	ldrb	r3, [r7, #15]
}
 800176a:	4618      	mov	r0, r3
 800176c:	3714      	adds	r7, #20
 800176e:	46bd      	mov	sp, r7
 8001770:	bc80      	pop	{r7}
 8001772:	4770      	bx	lr
 8001774:	40012400 	.word	0x40012400
 8001778:	20000004 	.word	0x20000004
 800177c:	431bde83 	.word	0x431bde83

08001780 <ADC_Enable>:
  *         and voltage regulator must be enabled (done into HAL_ADC_Init()).
  * @param  hadc: ADC handle
  * @retval HAL status.
  */
HAL_StatusTypeDef ADC_Enable(ADC_HandleTypeDef* hadc)
{
 8001780:	b580      	push	{r7, lr}
 8001782:	b084      	sub	sp, #16
 8001784:	af00      	add	r7, sp, #0
 8001786:	6078      	str	r0, [r7, #4]
  uint32_t tickstart = 0U;
 8001788:	2300      	movs	r3, #0
 800178a:	60fb      	str	r3, [r7, #12]
  __IO uint32_t wait_loop_index = 0U;
 800178c:	2300      	movs	r3, #0
 800178e:	60bb      	str	r3, [r7, #8]
  
  /* ADC enable and wait for ADC ready (in case of ADC is disabled or         */
  /* enabling phase not yet completed: flag ADC ready not yet set).           */
  /* Timeout implemented to not be stuck if ADC cannot be enabled (possible   */
  /* causes: ADC clock not running, ...).                                     */
  if (ADC_IS_ENABLE(hadc) == RESET)
 8001790:	687b      	ldr	r3, [r7, #4]
 8001792:	681b      	ldr	r3, [r3, #0]
 8001794:	689b      	ldr	r3, [r3, #8]
 8001796:	f003 0301 	and.w	r3, r3, #1
 800179a:	2b01      	cmp	r3, #1
 800179c:	d039      	beq.n	8001812 <ADC_Enable+0x92>
  {
    /* Enable the Peripheral */
    __HAL_ADC_ENABLE(hadc);
 800179e:	687b      	ldr	r3, [r7, #4]
 80017a0:	681b      	ldr	r3, [r3, #0]
 80017a2:	689a      	ldr	r2, [r3, #8]
 80017a4:	687b      	ldr	r3, [r7, #4]
 80017a6:	681b      	ldr	r3, [r3, #0]
 80017a8:	f042 0201 	orr.w	r2, r2, #1
 80017ac:	609a      	str	r2, [r3, #8]
    
    /* Delay for ADC stabilization time */
    /* Compute number of CPU cycles to wait for */
    wait_loop_index = (ADC_STAB_DELAY_US * (SystemCoreClock / 1000000U));
 80017ae:	4b1b      	ldr	r3, [pc, #108]	; (800181c <ADC_Enable+0x9c>)
 80017b0:	681b      	ldr	r3, [r3, #0]
 80017b2:	4a1b      	ldr	r2, [pc, #108]	; (8001820 <ADC_Enable+0xa0>)
 80017b4:	fba2 2303 	umull	r2, r3, r2, r3
 80017b8:	0c9b      	lsrs	r3, r3, #18
 80017ba:	60bb      	str	r3, [r7, #8]
    while(wait_loop_index != 0U)
 80017bc:	e002      	b.n	80017c4 <ADC_Enable+0x44>
    {
      wait_loop_index--;
 80017be:	68bb      	ldr	r3, [r7, #8]
 80017c0:	3b01      	subs	r3, #1
 80017c2:	60bb      	str	r3, [r7, #8]
    while(wait_loop_index != 0U)
 80017c4:	68bb      	ldr	r3, [r7, #8]
 80017c6:	2b00      	cmp	r3, #0
 80017c8:	d1f9      	bne.n	80017be <ADC_Enable+0x3e>
    }
    
    /* Get tick count */
    tickstart = HAL_GetTick();
 80017ca:	f7ff fce3 	bl	8001194 <HAL_GetTick>
 80017ce:	60f8      	str	r0, [r7, #12]

    /* Wait for ADC effectively enabled */
    while(ADC_IS_ENABLE(hadc) == RESET)
 80017d0:	e018      	b.n	8001804 <ADC_Enable+0x84>
    {
      if((HAL_GetTick() - tickstart) > ADC_ENABLE_TIMEOUT)
 80017d2:	f7ff fcdf 	bl	8001194 <HAL_GetTick>
 80017d6:	4602      	mov	r2, r0
 80017d8:	68fb      	ldr	r3, [r7, #12]
 80017da:	1ad3      	subs	r3, r2, r3
 80017dc:	2b02      	cmp	r3, #2
 80017de:	d911      	bls.n	8001804 <ADC_Enable+0x84>
      {
        /* Update ADC state machine to error */
        SET_BIT(hadc->State, HAL_ADC_STATE_ERROR_INTERNAL);
 80017e0:	687b      	ldr	r3, [r7, #4]
 80017e2:	6a9b      	ldr	r3, [r3, #40]	; 0x28
 80017e4:	f043 0210 	orr.w	r2, r3, #16
 80017e8:	687b      	ldr	r3, [r7, #4]
 80017ea:	629a      	str	r2, [r3, #40]	; 0x28
      
        /* Set ADC error code to ADC IP internal error */
        SET_BIT(hadc->ErrorCode, HAL_ADC_ERROR_INTERNAL);
 80017ec:	687b      	ldr	r3, [r7, #4]
 80017ee:	6adb      	ldr	r3, [r3, #44]	; 0x2c
 80017f0:	f043 0201 	orr.w	r2, r3, #1
 80017f4:	687b      	ldr	r3, [r7, #4]
 80017f6:	62da      	str	r2, [r3, #44]	; 0x2c
        
        /* Process unlocked */
        __HAL_UNLOCK(hadc);
 80017f8:	687b      	ldr	r3, [r7, #4]
 80017fa:	2200      	movs	r2, #0
 80017fc:	f883 2024 	strb.w	r2, [r3, #36]	; 0x24
      
        return HAL_ERROR;
 8001800:	2301      	movs	r3, #1
 8001802:	e007      	b.n	8001814 <ADC_Enable+0x94>
    while(ADC_IS_ENABLE(hadc) == RESET)
 8001804:	687b      	ldr	r3, [r7, #4]
 8001806:	681b      	ldr	r3, [r3, #0]
 8001808:	689b      	ldr	r3, [r3, #8]
 800180a:	f003 0301 	and.w	r3, r3, #1
 800180e:	2b01      	cmp	r3, #1
 8001810:	d1df      	bne.n	80017d2 <ADC_Enable+0x52>
      }
    }
  }
   
  /* Return HAL status */
  return HAL_OK;
 8001812:	2300      	movs	r3, #0
}
 8001814:	4618      	mov	r0, r3
 8001816:	3710      	adds	r7, #16
 8001818:	46bd      	mov	sp, r7
 800181a:	bd80      	pop	{r7, pc}
 800181c:	20000004 	.word	0x20000004
 8001820:	431bde83 	.word	0x431bde83

08001824 <ADC_ConversionStop_Disable>:
  *         stopped to disable the ADC.
  * @param  hadc: ADC handle
  * @retval HAL status.
  */
HAL_StatusTypeDef ADC_ConversionStop_Disable(ADC_HandleTypeDef* hadc)
{
 8001824:	b580      	push	{r7, lr}
 8001826:	b084      	sub	sp, #16
 8001828:	af00      	add	r7, sp, #0
 800182a:	6078      	str	r0, [r7, #4]
  uint32_t tickstart = 0U;
 800182c:	2300      	movs	r3, #0
 800182e:	60fb      	str	r3, [r7, #12]
  
  /* Verification if ADC is not already disabled */
  if (ADC_IS_ENABLE(hadc) != RESET)
 8001830:	687b      	ldr	r3, [r7, #4]
 8001832:	681b      	ldr	r3, [r3, #0]
 8001834:	689b      	ldr	r3, [r3, #8]
 8001836:	f003 0301 	and.w	r3, r3, #1
 800183a:	2b01      	cmp	r3, #1
 800183c:	d127      	bne.n	800188e <ADC_ConversionStop_Disable+0x6a>
  {
    /* Disable the ADC peripheral */
    __HAL_ADC_DISABLE(hadc);
 800183e:	687b      	ldr	r3, [r7, #4]
 8001840:	681b      	ldr	r3, [r3, #0]
 8001842:	689a      	ldr	r2, [r3, #8]
 8001844:	687b      	ldr	r3, [r7, #4]
 8001846:	681b      	ldr	r3, [r3, #0]
 8001848:	f022 0201 	bic.w	r2, r2, #1
 800184c:	609a      	str	r2, [r3, #8]
     
    /* Get tick count */
    tickstart = HAL_GetTick();
 800184e:	f7ff fca1 	bl	8001194 <HAL_GetTick>
 8001852:	60f8      	str	r0, [r7, #12]
    
    /* Wait for ADC effectively disabled */
    while(ADC_IS_ENABLE(hadc) != RESET)
 8001854:	e014      	b.n	8001880 <ADC_ConversionStop_Disable+0x5c>
    {
      if((HAL_GetTick() - tickstart) > ADC_DISABLE_TIMEOUT)
 8001856:	f7ff fc9d 	bl	8001194 <HAL_GetTick>
 800185a:	4602      	mov	r2, r0
 800185c:	68fb      	ldr	r3, [r7, #12]
 800185e:	1ad3      	subs	r3, r2, r3
 8001860:	2b02      	cmp	r3, #2
 8001862:	d90d      	bls.n	8001880 <ADC_ConversionStop_Disable+0x5c>
      {
        /* Update ADC state machine to error */
        SET_BIT(hadc->State, HAL_ADC_STATE_ERROR_INTERNAL);
 8001864:	687b      	ldr	r3, [r7, #4]
 8001866:	6a9b      	ldr	r3, [r3, #40]	; 0x28
 8001868:	f043 0210 	orr.w	r2, r3, #16
 800186c:	687b      	ldr	r3, [r7, #4]
 800186e:	629a      	str	r2, [r3, #40]	; 0x28
        
        /* Set ADC error code to ADC IP internal error */
        SET_BIT(hadc->ErrorCode, HAL_ADC_ERROR_INTERNAL);
 8001870:	687b      	ldr	r3, [r7, #4]
 8001872:	6adb      	ldr	r3, [r3, #44]	; 0x2c
 8001874:	f043 0201 	orr.w	r2, r3, #1
 8001878:	687b      	ldr	r3, [r7, #4]
 800187a:	62da      	str	r2, [r3, #44]	; 0x2c
        
        return HAL_ERROR;
 800187c:	2301      	movs	r3, #1
 800187e:	e007      	b.n	8001890 <ADC_ConversionStop_Disable+0x6c>
    while(ADC_IS_ENABLE(hadc) != RESET)
 8001880:	687b      	ldr	r3, [r7, #4]
 8001882:	681b      	ldr	r3, [r3, #0]
 8001884:	689b      	ldr	r3, [r3, #8]
 8001886:	f003 0301 	and.w	r3, r3, #1
 800188a:	2b01      	cmp	r3, #1
 800188c:	d0e3      	beq.n	8001856 <ADC_ConversionStop_Disable+0x32>
      }
    }
  }
  
  /* Return HAL status */
  return HAL_OK;
 800188e:	2300      	movs	r3, #0
}
 8001890:	4618      	mov	r0, r3
 8001892:	3710      	adds	r7, #16
 8001894:	46bd      	mov	sp, r7
 8001896:	bd80      	pop	{r7, pc}

08001898 <ADC_DMAConvCplt>:
  * @brief  DMA transfer complete callback. 
  * @param  hdma: pointer to DMA handle.
  * @retval None
  */
void ADC_DMAConvCplt(DMA_HandleTypeDef *hdma)
{
 8001898:	b580      	push	{r7, lr}
 800189a:	b084      	sub	sp, #16
 800189c:	af00      	add	r7, sp, #0
 800189e:	6078      	str	r0, [r7, #4]
  /* Retrieve ADC handle corresponding to current DMA handle */
  ADC_HandleTypeDef* hadc = ( ADC_HandleTypeDef* )((DMA_HandleTypeDef* )hdma)->Parent;
 80018a0:	687b      	ldr	r3, [r7, #4]
 80018a2:	6a5b      	ldr	r3, [r3, #36]	; 0x24
 80018a4:	60fb      	str	r3, [r7, #12]
 
  /* Update state machine on conversion status if not in error state */
  if (HAL_IS_BIT_CLR(hadc->State, HAL_ADC_STATE_ERROR_INTERNAL | HAL_ADC_STATE_ERROR_DMA))
 80018a6:	68fb      	ldr	r3, [r7, #12]
 80018a8:	6a9b      	ldr	r3, [r3, #40]	; 0x28
 80018aa:	f003 0350 	and.w	r3, r3, #80	; 0x50
 80018ae:	2b00      	cmp	r3, #0
 80018b0:	d127      	bne.n	8001902 <ADC_DMAConvCplt+0x6a>
  {
    /* Update ADC state machine */
    SET_BIT(hadc->State, HAL_ADC_STATE_REG_EOC);
 80018b2:	68fb      	ldr	r3, [r7, #12]
 80018b4:	6a9b      	ldr	r3, [r3, #40]	; 0x28
 80018b6:	f443 7200 	orr.w	r2, r3, #512	; 0x200
 80018ba:	68fb      	ldr	r3, [r7, #12]
 80018bc:	629a      	str	r2, [r3, #40]	; 0x28
    /* Determine whether any further conversion upcoming on group regular     */
    /* by external trigger, continuous mode or scan sequence on going.        */
    /* Note: On STM32F1 devices, in case of sequencer enabled                 */
    /*       (several ranks selected), end of conversion flag is raised       */
    /*       at the end of the sequence.                                      */
    if(ADC_IS_SOFTWARE_START_REGULAR(hadc)        && 
 80018be:	68fb      	ldr	r3, [r7, #12]
 80018c0:	681b      	ldr	r3, [r3, #0]
 80018c2:	689b      	ldr	r3, [r3, #8]
 80018c4:	f403 2360 	and.w	r3, r3, #917504	; 0xe0000
 80018c8:	f5b3 2f60 	cmp.w	r3, #917504	; 0xe0000
 80018cc:	d115      	bne.n	80018fa <ADC_DMAConvCplt+0x62>
       (hadc->Init.ContinuousConvMode == DISABLE)   )
 80018ce:	68fb      	ldr	r3, [r7, #12]
 80018d0:	7b1b      	ldrb	r3, [r3, #12]
    if(ADC_IS_SOFTWARE_START_REGULAR(hadc)        && 
 80018d2:	2b00      	cmp	r3, #0
 80018d4:	d111      	bne.n	80018fa <ADC_DMAConvCplt+0x62>
    {
      /* Set ADC state */
      CLEAR_BIT(hadc->State, HAL_ADC_STATE_REG_BUSY);   
 80018d6:	68fb      	ldr	r3, [r7, #12]
 80018d8:	6a9b      	ldr	r3, [r3, #40]	; 0x28
 80018da:	f423 7280 	bic.w	r2, r3, #256	; 0x100
 80018de:	68fb      	ldr	r3, [r7, #12]
 80018e0:	629a      	str	r2, [r3, #40]	; 0x28
      
      if (HAL_IS_BIT_CLR(hadc->State, HAL_ADC_STATE_INJ_BUSY))
 80018e2:	68fb      	ldr	r3, [r7, #12]
 80018e4:	6a9b      	ldr	r3, [r3, #40]	; 0x28
 80018e6:	f403 5380 	and.w	r3, r3, #4096	; 0x1000
 80018ea:	2b00      	cmp	r3, #0
 80018ec:	d105      	bne.n	80018fa <ADC_DMAConvCplt+0x62>
      {
        SET_BIT(hadc->State, HAL_ADC_STATE_READY);
 80018ee:	68fb      	ldr	r3, [r7, #12]
 80018f0:	6a9b      	ldr	r3, [r3, #40]	; 0x28
 80018f2:	f043 0201 	orr.w	r2, r3, #1
 80018f6:	68fb      	ldr	r3, [r7, #12]
 80018f8:	629a      	str	r2, [r3, #40]	; 0x28
    
    /* Conversion complete callback */
#if (USE_HAL_ADC_REGISTER_CALLBACKS == 1)
    hadc->ConvCpltCallback(hadc);
#else
    HAL_ADC_ConvCpltCallback(hadc);
 80018fa:	68f8      	ldr	r0, [r7, #12]
 80018fc:	f7ff fe2c 	bl	8001558 <HAL_ADC_ConvCpltCallback>
  else
  {
    /* Call DMA error callback */
    hadc->DMA_Handle->XferErrorCallback(hdma);
  }
}
 8001900:	e004      	b.n	800190c <ADC_DMAConvCplt+0x74>
    hadc->DMA_Handle->XferErrorCallback(hdma);
 8001902:	68fb      	ldr	r3, [r7, #12]
 8001904:	6a1b      	ldr	r3, [r3, #32]
 8001906:	6b1b      	ldr	r3, [r3, #48]	; 0x30
 8001908:	6878      	ldr	r0, [r7, #4]
 800190a:	4798      	blx	r3
}
 800190c:	bf00      	nop
 800190e:	3710      	adds	r7, #16
 8001910:	46bd      	mov	sp, r7
 8001912:	bd80      	pop	{r7, pc}

08001914 <ADC_DMAHalfConvCplt>:
  * @brief  DMA half transfer complete callback. 
  * @param  hdma: pointer to DMA handle.
  * @retval None
  */
void ADC_DMAHalfConvCplt(DMA_HandleTypeDef *hdma)   
{
 8001914:	b580      	push	{r7, lr}
 8001916:	b084      	sub	sp, #16
 8001918:	af00      	add	r7, sp, #0
 800191a:	6078      	str	r0, [r7, #4]
  /* Retrieve ADC handle corresponding to current DMA handle */
  ADC_HandleTypeDef* hadc = ( ADC_HandleTypeDef* )((DMA_HandleTypeDef* )hdma)->Parent;
 800191c:	687b      	ldr	r3, [r7, #4]
 800191e:	6a5b      	ldr	r3, [r3, #36]	; 0x24
 8001920:	60fb      	str	r3, [r7, #12]
  
  /* Half conversion callback */
#if (USE_HAL_ADC_REGISTER_CALLBACKS == 1)
    hadc->ConvHalfCpltCallback(hadc);
#else
  HAL_ADC_ConvHalfCpltCallback(hadc);
 8001922:	68f8      	ldr	r0, [r7, #12]
 8001924:	f7ff fe21 	bl	800156a <HAL_ADC_ConvHalfCpltCallback>
#endif /* USE_HAL_ADC_REGISTER_CALLBACKS */
}
 8001928:	bf00      	nop
 800192a:	3710      	adds	r7, #16
 800192c:	46bd      	mov	sp, r7
 800192e:	bd80      	pop	{r7, pc}

08001930 <ADC_DMAError>:
  * @brief  DMA error callback 
  * @param  hdma: pointer to DMA handle.
  * @retval None
  */
void ADC_DMAError(DMA_HandleTypeDef *hdma)   
{
 8001930:	b580      	push	{r7, lr}
 8001932:	b084      	sub	sp, #16
 8001934:	af00      	add	r7, sp, #0
 8001936:	6078      	str	r0, [r7, #4]
  /* Retrieve ADC handle corresponding to current DMA handle */
  ADC_HandleTypeDef* hadc = ( ADC_HandleTypeDef* )((DMA_HandleTypeDef* )hdma)->Parent;
 8001938:	687b      	ldr	r3, [r7, #4]
 800193a:	6a5b      	ldr	r3, [r3, #36]	; 0x24
 800193c:	60fb      	str	r3, [r7, #12]
  
  /* Set ADC state */
  SET_BIT(hadc->State, HAL_ADC_STATE_ERROR_DMA);
 800193e:	68fb      	ldr	r3, [r7, #12]
 8001940:	6a9b      	ldr	r3, [r3, #40]	; 0x28
 8001942:	f043 0240 	orr.w	r2, r3, #64	; 0x40
 8001946:	68fb      	ldr	r3, [r7, #12]
 8001948:	629a      	str	r2, [r3, #40]	; 0x28
  
  /* Set ADC error code to DMA error */
  SET_BIT(hadc->ErrorCode, HAL_ADC_ERROR_DMA);
 800194a:	68fb      	ldr	r3, [r7, #12]
 800194c:	6adb      	ldr	r3, [r3, #44]	; 0x2c
 800194e:	f043 0204 	orr.w	r2, r3, #4
 8001952:	68fb      	ldr	r3, [r7, #12]
 8001954:	62da      	str	r2, [r3, #44]	; 0x2c
  
  /* Error callback */
#if (USE_HAL_ADC_REGISTER_CALLBACKS == 1)
  hadc->ErrorCallback(hadc);
#else
  HAL_ADC_ErrorCallback(hadc);
 8001956:	68f8      	ldr	r0, [r7, #12]
 8001958:	f7ff fe10 	bl	800157c <HAL_ADC_ErrorCallback>
#endif /* USE_HAL_ADC_REGISTER_CALLBACKS */
}
 800195c:	bf00      	nop
 800195e:	3710      	adds	r7, #16
 8001960:	46bd      	mov	sp, r7
 8001962:	bd80      	pop	{r7, pc}

08001964 <HAL_CAN_Init>:
  * @param  hcan pointer to a CAN_HandleTypeDef structure that contains
  *         the configuration information for the specified CAN.
  * @retval HAL status
  */
HAL_StatusTypeDef HAL_CAN_Init(CAN_HandleTypeDef *hcan)
{
 8001964:	b580      	push	{r7, lr}
 8001966:	b084      	sub	sp, #16
 8001968:	af00      	add	r7, sp, #0
 800196a:	6078      	str	r0, [r7, #4]
  uint32_t tickstart;

  /* Check CAN handle */
  if (hcan == NULL)
 800196c:	687b      	ldr	r3, [r7, #4]
 800196e:	2b00      	cmp	r3, #0
 8001970:	d101      	bne.n	8001976 <HAL_CAN_Init+0x12>
  {
    return HAL_ERROR;
 8001972:	2301      	movs	r3, #1
 8001974:	e0ed      	b.n	8001b52 <HAL_CAN_Init+0x1ee>
    /* Init the low level hardware: CLOCK, NVIC */
    hcan->MspInitCallback(hcan);
  }

#else
  if (hcan->State == HAL_CAN_STATE_RESET)
 8001976:	687b      	ldr	r3, [r7, #4]
 8001978:	f893 3020 	ldrb.w	r3, [r3, #32]
 800197c:	b2db      	uxtb	r3, r3
 800197e:	2b00      	cmp	r3, #0
 8001980:	d102      	bne.n	8001988 <HAL_CAN_Init+0x24>
  {
    /* Init the low level hardware: CLOCK, NVIC */
    HAL_CAN_MspInit(hcan);
 8001982:	6878      	ldr	r0, [r7, #4]
 8001984:	f7ff f950 	bl	8000c28 <HAL_CAN_MspInit>
  }
#endif /* (USE_HAL_CAN_REGISTER_CALLBACKS) */

  /* Exit from sleep mode */
  CLEAR_BIT(hcan->Instance->MCR, CAN_MCR_SLEEP);
 8001988:	687b      	ldr	r3, [r7, #4]
 800198a:	681b      	ldr	r3, [r3, #0]
 800198c:	681a      	ldr	r2, [r3, #0]
 800198e:	687b      	ldr	r3, [r7, #4]
 8001990:	681b      	ldr	r3, [r3, #0]
 8001992:	f022 0202 	bic.w	r2, r2, #2
 8001996:	601a      	str	r2, [r3, #0]

  /* Get tick */
  tickstart = HAL_GetTick();
 8001998:	f7ff fbfc 	bl	8001194 <HAL_GetTick>
 800199c:	60f8      	str	r0, [r7, #12]

  /* Check Sleep mode leave acknowledge */
  while ((hcan->Instance->MSR & CAN_MSR_SLAK) != 0U)
 800199e:	e012      	b.n	80019c6 <HAL_CAN_Init+0x62>
  {
    if ((HAL_GetTick() - tickstart) > CAN_TIMEOUT_VALUE)
 80019a0:	f7ff fbf8 	bl	8001194 <HAL_GetTick>
 80019a4:	4602      	mov	r2, r0
 80019a6:	68fb      	ldr	r3, [r7, #12]
 80019a8:	1ad3      	subs	r3, r2, r3
 80019aa:	2b0a      	cmp	r3, #10
 80019ac:	d90b      	bls.n	80019c6 <HAL_CAN_Init+0x62>
    {
      /* Update error code */
      hcan->ErrorCode |= HAL_CAN_ERROR_TIMEOUT;
 80019ae:	687b      	ldr	r3, [r7, #4]
 80019b0:	6a5b      	ldr	r3, [r3, #36]	; 0x24
 80019b2:	f443 3200 	orr.w	r2, r3, #131072	; 0x20000
 80019b6:	687b      	ldr	r3, [r7, #4]
 80019b8:	625a      	str	r2, [r3, #36]	; 0x24

      /* Change CAN state */
      hcan->State = HAL_CAN_STATE_ERROR;
 80019ba:	687b      	ldr	r3, [r7, #4]
 80019bc:	2205      	movs	r2, #5
 80019be:	f883 2020 	strb.w	r2, [r3, #32]

      return HAL_ERROR;
 80019c2:	2301      	movs	r3, #1
 80019c4:	e0c5      	b.n	8001b52 <HAL_CAN_Init+0x1ee>
  while ((hcan->Instance->MSR & CAN_MSR_SLAK) != 0U)
 80019c6:	687b      	ldr	r3, [r7, #4]
 80019c8:	681b      	ldr	r3, [r3, #0]
 80019ca:	685b      	ldr	r3, [r3, #4]
 80019cc:	f003 0302 	and.w	r3, r3, #2
 80019d0:	2b00      	cmp	r3, #0
 80019d2:	d1e5      	bne.n	80019a0 <HAL_CAN_Init+0x3c>
    }
  }

  /* Request initialisation */
  SET_BIT(hcan->Instance->MCR, CAN_MCR_INRQ);
 80019d4:	687b      	ldr	r3, [r7, #4]
 80019d6:	681b      	ldr	r3, [r3, #0]
 80019d8:	681a      	ldr	r2, [r3, #0]
 80019da:	687b      	ldr	r3, [r7, #4]
 80019dc:	681b      	ldr	r3, [r3, #0]
 80019de:	f042 0201 	orr.w	r2, r2, #1
 80019e2:	601a      	str	r2, [r3, #0]

  /* Get tick */
  tickstart = HAL_GetTick();
 80019e4:	f7ff fbd6 	bl	8001194 <HAL_GetTick>
 80019e8:	60f8      	str	r0, [r7, #12]

  /* Wait initialisation acknowledge */
  while ((hcan->Instance->MSR & CAN_MSR_INAK) == 0U)
 80019ea:	e012      	b.n	8001a12 <HAL_CAN_Init+0xae>
  {
    if ((HAL_GetTick() - tickstart) > CAN_TIMEOUT_VALUE)
 80019ec:	f7ff fbd2 	bl	8001194 <HAL_GetTick>
 80019f0:	4602      	mov	r2, r0
 80019f2:	68fb      	ldr	r3, [r7, #12]
 80019f4:	1ad3      	subs	r3, r2, r3
 80019f6:	2b0a      	cmp	r3, #10
 80019f8:	d90b      	bls.n	8001a12 <HAL_CAN_Init+0xae>
    {
      /* Update error code */
      hcan->ErrorCode |= HAL_CAN_ERROR_TIMEOUT;
 80019fa:	687b      	ldr	r3, [r7, #4]
 80019fc:	6a5b      	ldr	r3, [r3, #36]	; 0x24
 80019fe:	f443 3200 	orr.w	r2, r3, #131072	; 0x20000
 8001a02:	687b      	ldr	r3, [r7, #4]
 8001a04:	625a      	str	r2, [r3, #36]	; 0x24

      /* Change CAN state */
      hcan->State = HAL_CAN_STATE_ERROR;
 8001a06:	687b      	ldr	r3, [r7, #4]
 8001a08:	2205      	movs	r2, #5
 8001a0a:	f883 2020 	strb.w	r2, [r3, #32]

      return HAL_ERROR;
 8001a0e:	2301      	movs	r3, #1
 8001a10:	e09f      	b.n	8001b52 <HAL_CAN_Init+0x1ee>
  while ((hcan->Instance->MSR & CAN_MSR_INAK) == 0U)
 8001a12:	687b      	ldr	r3, [r7, #4]
 8001a14:	681b      	ldr	r3, [r3, #0]
 8001a16:	685b      	ldr	r3, [r3, #4]
 8001a18:	f003 0301 	and.w	r3, r3, #1
 8001a1c:	2b00      	cmp	r3, #0
 8001a1e:	d0e5      	beq.n	80019ec <HAL_CAN_Init+0x88>
    }
  }

  /* Set the time triggered communication mode */
  if (hcan->Init.TimeTriggeredMode == ENABLE)
 8001a20:	687b      	ldr	r3, [r7, #4]
 8001a22:	7e1b      	ldrb	r3, [r3, #24]
 8001a24:	2b01      	cmp	r3, #1
 8001a26:	d108      	bne.n	8001a3a <HAL_CAN_Init+0xd6>
  {
    SET_BIT(hcan->Instance->MCR, CAN_MCR_TTCM);
 8001a28:	687b      	ldr	r3, [r7, #4]
 8001a2a:	681b      	ldr	r3, [r3, #0]
 8001a2c:	681a      	ldr	r2, [r3, #0]
 8001a2e:	687b      	ldr	r3, [r7, #4]
 8001a30:	681b      	ldr	r3, [r3, #0]
 8001a32:	f042 0280 	orr.w	r2, r2, #128	; 0x80
 8001a36:	601a      	str	r2, [r3, #0]
 8001a38:	e007      	b.n	8001a4a <HAL_CAN_Init+0xe6>
  }
  else
  {
    CLEAR_BIT(hcan->Instance->MCR, CAN_MCR_TTCM);
 8001a3a:	687b      	ldr	r3, [r7, #4]
 8001a3c:	681b      	ldr	r3, [r3, #0]
 8001a3e:	681a      	ldr	r2, [r3, #0]
 8001a40:	687b      	ldr	r3, [r7, #4]
 8001a42:	681b      	ldr	r3, [r3, #0]
 8001a44:	f022 0280 	bic.w	r2, r2, #128	; 0x80
 8001a48:	601a      	str	r2, [r3, #0]
  }

  /* Set the automatic bus-off management */
  if (hcan->Init.AutoBusOff == ENABLE)
 8001a4a:	687b      	ldr	r3, [r7, #4]
 8001a4c:	7e5b      	ldrb	r3, [r3, #25]
 8001a4e:	2b01      	cmp	r3, #1
 8001a50:	d108      	bne.n	8001a64 <HAL_CAN_Init+0x100>
  {
    SET_BIT(hcan->Instance->MCR, CAN_MCR_ABOM);
 8001a52:	687b      	ldr	r3, [r7, #4]
 8001a54:	681b      	ldr	r3, [r3, #0]
 8001a56:	681a      	ldr	r2, [r3, #0]
 8001a58:	687b      	ldr	r3, [r7, #4]
 8001a5a:	681b      	ldr	r3, [r3, #0]
 8001a5c:	f042 0240 	orr.w	r2, r2, #64	; 0x40
 8001a60:	601a      	str	r2, [r3, #0]
 8001a62:	e007      	b.n	8001a74 <HAL_CAN_Init+0x110>
  }
  else
  {
    CLEAR_BIT(hcan->Instance->MCR, CAN_MCR_ABOM);
 8001a64:	687b      	ldr	r3, [r7, #4]
 8001a66:	681b      	ldr	r3, [r3, #0]
 8001a68:	681a      	ldr	r2, [r3, #0]
 8001a6a:	687b      	ldr	r3, [r7, #4]
 8001a6c:	681b      	ldr	r3, [r3, #0]
 8001a6e:	f022 0240 	bic.w	r2, r2, #64	; 0x40
 8001a72:	601a      	str	r2, [r3, #0]
  }

  /* Set the automatic wake-up mode */
  if (hcan->Init.AutoWakeUp == ENABLE)
 8001a74:	687b      	ldr	r3, [r7, #4]
 8001a76:	7e9b      	ldrb	r3, [r3, #26]
 8001a78:	2b01      	cmp	r3, #1
 8001a7a:	d108      	bne.n	8001a8e <HAL_CAN_Init+0x12a>
  {
    SET_BIT(hcan->Instance->MCR, CAN_MCR_AWUM);
 8001a7c:	687b      	ldr	r3, [r7, #4]
 8001a7e:	681b      	ldr	r3, [r3, #0]
 8001a80:	681a      	ldr	r2, [r3, #0]
 8001a82:	687b      	ldr	r3, [r7, #4]
 8001a84:	681b      	ldr	r3, [r3, #0]
 8001a86:	f042 0220 	orr.w	r2, r2, #32
 8001a8a:	601a      	str	r2, [r3, #0]
 8001a8c:	e007      	b.n	8001a9e <HAL_CAN_Init+0x13a>
  }
  else
  {
    CLEAR_BIT(hcan->Instance->MCR, CAN_MCR_AWUM);
 8001a8e:	687b      	ldr	r3, [r7, #4]
 8001a90:	681b      	ldr	r3, [r3, #0]
 8001a92:	681a      	ldr	r2, [r3, #0]
 8001a94:	687b      	ldr	r3, [r7, #4]
 8001a96:	681b      	ldr	r3, [r3, #0]
 8001a98:	f022 0220 	bic.w	r2, r2, #32
 8001a9c:	601a      	str	r2, [r3, #0]
  }

  /* Set the automatic retransmission */
  if (hcan->Init.AutoRetransmission == ENABLE)
 8001a9e:	687b      	ldr	r3, [r7, #4]
 8001aa0:	7edb      	ldrb	r3, [r3, #27]
 8001aa2:	2b01      	cmp	r3, #1
 8001aa4:	d108      	bne.n	8001ab8 <HAL_CAN_Init+0x154>
  {
    CLEAR_BIT(hcan->Instance->MCR, CAN_MCR_NART);
 8001aa6:	687b      	ldr	r3, [r7, #4]
 8001aa8:	681b      	ldr	r3, [r3, #0]
 8001aaa:	681a      	ldr	r2, [r3, #0]
 8001aac:	687b      	ldr	r3, [r7, #4]
 8001aae:	681b      	ldr	r3, [r3, #0]
 8001ab0:	f022 0210 	bic.w	r2, r2, #16
 8001ab4:	601a      	str	r2, [r3, #0]
 8001ab6:	e007      	b.n	8001ac8 <HAL_CAN_Init+0x164>
  }
  else
  {
    SET_BIT(hcan->Instance->MCR, CAN_MCR_NART);
 8001ab8:	687b      	ldr	r3, [r7, #4]
 8001aba:	681b      	ldr	r3, [r3, #0]
 8001abc:	681a      	ldr	r2, [r3, #0]
 8001abe:	687b      	ldr	r3, [r7, #4]
 8001ac0:	681b      	ldr	r3, [r3, #0]
 8001ac2:	f042 0210 	orr.w	r2, r2, #16
 8001ac6:	601a      	str	r2, [r3, #0]
  }

  /* Set the receive FIFO locked mode */
  if (hcan->Init.ReceiveFifoLocked == ENABLE)
 8001ac8:	687b      	ldr	r3, [r7, #4]
 8001aca:	7f1b      	ldrb	r3, [r3, #28]
 8001acc:	2b01      	cmp	r3, #1
 8001ace:	d108      	bne.n	8001ae2 <HAL_CAN_Init+0x17e>
  {
    SET_BIT(hcan->Instance->MCR, CAN_MCR_RFLM);
 8001ad0:	687b      	ldr	r3, [r7, #4]
 8001ad2:	681b      	ldr	r3, [r3, #0]
 8001ad4:	681a      	ldr	r2, [r3, #0]
 8001ad6:	687b      	ldr	r3, [r7, #4]
 8001ad8:	681b      	ldr	r3, [r3, #0]
 8001ada:	f042 0208 	orr.w	r2, r2, #8
 8001ade:	601a      	str	r2, [r3, #0]
 8001ae0:	e007      	b.n	8001af2 <HAL_CAN_Init+0x18e>
  }
  else
  {
    CLEAR_BIT(hcan->Instance->MCR, CAN_MCR_RFLM);
 8001ae2:	687b      	ldr	r3, [r7, #4]
 8001ae4:	681b      	ldr	r3, [r3, #0]
 8001ae6:	681a      	ldr	r2, [r3, #0]
 8001ae8:	687b      	ldr	r3, [r7, #4]
 8001aea:	681b      	ldr	r3, [r3, #0]
 8001aec:	f022 0208 	bic.w	r2, r2, #8
 8001af0:	601a      	str	r2, [r3, #0]
  }

  /* Set the transmit FIFO priority */
  if (hcan->Init.TransmitFifoPriority == ENABLE)
 8001af2:	687b      	ldr	r3, [r7, #4]
 8001af4:	7f5b      	ldrb	r3, [r3, #29]
 8001af6:	2b01      	cmp	r3, #1
 8001af8:	d108      	bne.n	8001b0c <HAL_CAN_Init+0x1a8>
  {
    SET_BIT(hcan->Instance->MCR, CAN_MCR_TXFP);
 8001afa:	687b      	ldr	r3, [r7, #4]
 8001afc:	681b      	ldr	r3, [r3, #0]
 8001afe:	681a      	ldr	r2, [r3, #0]
 8001b00:	687b      	ldr	r3, [r7, #4]
 8001b02:	681b      	ldr	r3, [r3, #0]
 8001b04:	f042 0204 	orr.w	r2, r2, #4
 8001b08:	601a      	str	r2, [r3, #0]
 8001b0a:	e007      	b.n	8001b1c <HAL_CAN_Init+0x1b8>
  }
  else
  {
    CLEAR_BIT(hcan->Instance->MCR, CAN_MCR_TXFP);
 8001b0c:	687b      	ldr	r3, [r7, #4]
 8001b0e:	681b      	ldr	r3, [r3, #0]
 8001b10:	681a      	ldr	r2, [r3, #0]
 8001b12:	687b      	ldr	r3, [r7, #4]
 8001b14:	681b      	ldr	r3, [r3, #0]
 8001b16:	f022 0204 	bic.w	r2, r2, #4
 8001b1a:	601a      	str	r2, [r3, #0]
  }

  /* Set the bit timing register */
  WRITE_REG(hcan->Instance->BTR, (uint32_t)(hcan->Init.Mode           |
 8001b1c:	687b      	ldr	r3, [r7, #4]
 8001b1e:	689a      	ldr	r2, [r3, #8]
 8001b20:	687b      	ldr	r3, [r7, #4]
 8001b22:	68db      	ldr	r3, [r3, #12]
 8001b24:	431a      	orrs	r2, r3
 8001b26:	687b      	ldr	r3, [r7, #4]
 8001b28:	691b      	ldr	r3, [r3, #16]
 8001b2a:	431a      	orrs	r2, r3
 8001b2c:	687b      	ldr	r3, [r7, #4]
 8001b2e:	695b      	ldr	r3, [r3, #20]
 8001b30:	ea42 0103 	orr.w	r1, r2, r3
 8001b34:	687b      	ldr	r3, [r7, #4]
 8001b36:	685b      	ldr	r3, [r3, #4]
 8001b38:	1e5a      	subs	r2, r3, #1
 8001b3a:	687b      	ldr	r3, [r7, #4]
 8001b3c:	681b      	ldr	r3, [r3, #0]
 8001b3e:	430a      	orrs	r2, r1
 8001b40:	61da      	str	r2, [r3, #28]
                                            hcan->Init.TimeSeg1       |
                                            hcan->Init.TimeSeg2       |
                                            (hcan->Init.Prescaler - 1U)));

  /* Initialize the error code */
  hcan->ErrorCode = HAL_CAN_ERROR_NONE;
 8001b42:	687b      	ldr	r3, [r7, #4]
 8001b44:	2200      	movs	r2, #0
 8001b46:	625a      	str	r2, [r3, #36]	; 0x24

  /* Initialize the CAN state */
  hcan->State = HAL_CAN_STATE_READY;
 8001b48:	687b      	ldr	r3, [r7, #4]
 8001b4a:	2201      	movs	r2, #1
 8001b4c:	f883 2020 	strb.w	r2, [r3, #32]

  /* Return function status */
  return HAL_OK;
 8001b50:	2300      	movs	r3, #0
}
 8001b52:	4618      	mov	r0, r3
 8001b54:	3710      	adds	r7, #16
 8001b56:	46bd      	mov	sp, r7
 8001b58:	bd80      	pop	{r7, pc}

08001b5a <HAL_CAN_ConfigFilter>:
  * @param  sFilterConfig pointer to a CAN_FilterTypeDef structure that
  *         contains the filter configuration information.
  * @retval None
  */
HAL_StatusTypeDef HAL_CAN_ConfigFilter(CAN_HandleTypeDef *hcan, CAN_FilterTypeDef *sFilterConfig)
{
 8001b5a:	b480      	push	{r7}
 8001b5c:	b087      	sub	sp, #28
 8001b5e:	af00      	add	r7, sp, #0
 8001b60:	6078      	str	r0, [r7, #4]
 8001b62:	6039      	str	r1, [r7, #0]
  uint32_t filternbrbitpos;
  CAN_TypeDef *can_ip = hcan->Instance;
 8001b64:	687b      	ldr	r3, [r7, #4]
 8001b66:	681b      	ldr	r3, [r3, #0]
 8001b68:	617b      	str	r3, [r7, #20]
  HAL_CAN_StateTypeDef state = hcan->State;
 8001b6a:	687b      	ldr	r3, [r7, #4]
 8001b6c:	f893 3020 	ldrb.w	r3, [r3, #32]
 8001b70:	74fb      	strb	r3, [r7, #19]

  if ((state == HAL_CAN_STATE_READY) ||
 8001b72:	7cfb      	ldrb	r3, [r7, #19]
 8001b74:	2b01      	cmp	r3, #1
 8001b76:	d003      	beq.n	8001b80 <HAL_CAN_ConfigFilter+0x26>
 8001b78:	7cfb      	ldrb	r3, [r7, #19]
 8001b7a:	2b02      	cmp	r3, #2
 8001b7c:	f040 80aa 	bne.w	8001cd4 <HAL_CAN_ConfigFilter+0x17a>
    /* Check the parameters */
    assert_param(IS_CAN_FILTER_BANK_SINGLE(sFilterConfig->FilterBank));
#endif

    /* Initialisation mode for the filter */
    SET_BIT(can_ip->FMR, CAN_FMR_FINIT);
 8001b80:	697b      	ldr	r3, [r7, #20]
 8001b82:	f8d3 3200 	ldr.w	r3, [r3, #512]	; 0x200
 8001b86:	f043 0201 	orr.w	r2, r3, #1
 8001b8a:	697b      	ldr	r3, [r7, #20]
 8001b8c:	f8c3 2200 	str.w	r2, [r3, #512]	; 0x200
    CLEAR_BIT(can_ip->FMR, CAN_FMR_CAN2SB);
    SET_BIT(can_ip->FMR, sFilterConfig->SlaveStartFilterBank << CAN_FMR_CAN2SB_Pos);

#endif
    /* Convert filter number into bit position */
    filternbrbitpos = (uint32_t)1 << (sFilterConfig->FilterBank & 0x1FU);
 8001b90:	683b      	ldr	r3, [r7, #0]
 8001b92:	695b      	ldr	r3, [r3, #20]
 8001b94:	f003 031f 	and.w	r3, r3, #31
 8001b98:	2201      	movs	r2, #1
 8001b9a:	fa02 f303 	lsl.w	r3, r2, r3
 8001b9e:	60fb      	str	r3, [r7, #12]

    /* Filter Deactivation */
    CLEAR_BIT(can_ip->FA1R, filternbrbitpos);
 8001ba0:	697b      	ldr	r3, [r7, #20]
 8001ba2:	f8d3 221c 	ldr.w	r2, [r3, #540]	; 0x21c
 8001ba6:	68fb      	ldr	r3, [r7, #12]
 8001ba8:	43db      	mvns	r3, r3
 8001baa:	401a      	ands	r2, r3
 8001bac:	697b      	ldr	r3, [r7, #20]
 8001bae:	f8c3 221c 	str.w	r2, [r3, #540]	; 0x21c

    /* Filter Scale */
    if (sFilterConfig->FilterScale == CAN_FILTERSCALE_16BIT)
 8001bb2:	683b      	ldr	r3, [r7, #0]
 8001bb4:	69db      	ldr	r3, [r3, #28]
 8001bb6:	2b00      	cmp	r3, #0
 8001bb8:	d123      	bne.n	8001c02 <HAL_CAN_ConfigFilter+0xa8>
    {
      /* 16-bit scale for the filter */
      CLEAR_BIT(can_ip->FS1R, filternbrbitpos);
 8001bba:	697b      	ldr	r3, [r7, #20]
 8001bbc:	f8d3 220c 	ldr.w	r2, [r3, #524]	; 0x20c
 8001bc0:	68fb      	ldr	r3, [r7, #12]
 8001bc2:	43db      	mvns	r3, r3
 8001bc4:	401a      	ands	r2, r3
 8001bc6:	697b      	ldr	r3, [r7, #20]
 8001bc8:	f8c3 220c 	str.w	r2, [r3, #524]	; 0x20c

      /* First 16-bit identifier and First 16-bit mask */
      /* Or First 16-bit identifier and Second 16-bit identifier */
      can_ip->sFilterRegister[sFilterConfig->FilterBank].FR1 =
        ((0x0000FFFFU & (uint32_t)sFilterConfig->FilterMaskIdLow) << 16U) |
 8001bcc:	683b      	ldr	r3, [r7, #0]
 8001bce:	68db      	ldr	r3, [r3, #12]
 8001bd0:	0419      	lsls	r1, r3, #16
        (0x0000FFFFU & (uint32_t)sFilterConfig->FilterIdLow);
 8001bd2:	683b      	ldr	r3, [r7, #0]
 8001bd4:	685b      	ldr	r3, [r3, #4]
 8001bd6:	b29b      	uxth	r3, r3
      can_ip->sFilterRegister[sFilterConfig->FilterBank].FR1 =
 8001bd8:	683a      	ldr	r2, [r7, #0]
 8001bda:	6952      	ldr	r2, [r2, #20]
        ((0x0000FFFFU & (uint32_t)sFilterConfig->FilterMaskIdLow) << 16U) |
 8001bdc:	4319      	orrs	r1, r3
      can_ip->sFilterRegister[sFilterConfig->FilterBank].FR1 =
 8001bde:	697b      	ldr	r3, [r7, #20]
 8001be0:	3248      	adds	r2, #72	; 0x48
 8001be2:	f843 1032 	str.w	r1, [r3, r2, lsl #3]

      /* Second 16-bit identifier and Second 16-bit mask */
      /* Or Third 16-bit identifier and Fourth 16-bit identifier */
      can_ip->sFilterRegister[sFilterConfig->FilterBank].FR2 =
        ((0x0000FFFFU & (uint32_t)sFilterConfig->FilterMaskIdHigh) << 16U) |
 8001be6:	683b      	ldr	r3, [r7, #0]
 8001be8:	689b      	ldr	r3, [r3, #8]
 8001bea:	0419      	lsls	r1, r3, #16
        (0x0000FFFFU & (uint32_t)sFilterConfig->FilterIdHigh);
 8001bec:	683b      	ldr	r3, [r7, #0]
 8001bee:	681b      	ldr	r3, [r3, #0]
 8001bf0:	b29a      	uxth	r2, r3
      can_ip->sFilterRegister[sFilterConfig->FilterBank].FR2 =
 8001bf2:	683b      	ldr	r3, [r7, #0]
 8001bf4:	695b      	ldr	r3, [r3, #20]
        ((0x0000FFFFU & (uint32_t)sFilterConfig->FilterMaskIdHigh) << 16U) |
 8001bf6:	430a      	orrs	r2, r1
      can_ip->sFilterRegister[sFilterConfig->FilterBank].FR2 =
 8001bf8:	6979      	ldr	r1, [r7, #20]
 8001bfa:	3348      	adds	r3, #72	; 0x48
 8001bfc:	00db      	lsls	r3, r3, #3
 8001bfe:	440b      	add	r3, r1
 8001c00:	605a      	str	r2, [r3, #4]
    }

    if (sFilterConfig->FilterScale == CAN_FILTERSCALE_32BIT)
 8001c02:	683b      	ldr	r3, [r7, #0]
 8001c04:	69db      	ldr	r3, [r3, #28]
 8001c06:	2b01      	cmp	r3, #1
 8001c08:	d122      	bne.n	8001c50 <HAL_CAN_ConfigFilter+0xf6>
    {
      /* 32-bit scale for the filter */
      SET_BIT(can_ip->FS1R, filternbrbitpos);
 8001c0a:	697b      	ldr	r3, [r7, #20]
 8001c0c:	f8d3 220c 	ldr.w	r2, [r3, #524]	; 0x20c
 8001c10:	68fb      	ldr	r3, [r7, #12]
 8001c12:	431a      	orrs	r2, r3
 8001c14:	697b      	ldr	r3, [r7, #20]
 8001c16:	f8c3 220c 	str.w	r2, [r3, #524]	; 0x20c

      /* 32-bit identifier or First 32-bit identifier */
      can_ip->sFilterRegister[sFilterConfig->FilterBank].FR1 =
        ((0x0000FFFFU & (uint32_t)sFilterConfig->FilterIdHigh) << 16U) |
 8001c1a:	683b      	ldr	r3, [r7, #0]
 8001c1c:	681b      	ldr	r3, [r3, #0]
 8001c1e:	0419      	lsls	r1, r3, #16
        (0x0000FFFFU & (uint32_t)sFilterConfig->FilterIdLow);
 8001c20:	683b      	ldr	r3, [r7, #0]
 8001c22:	685b      	ldr	r3, [r3, #4]
 8001c24:	b29b      	uxth	r3, r3
      can_ip->sFilterRegister[sFilterConfig->FilterBank].FR1 =
 8001c26:	683a      	ldr	r2, [r7, #0]
 8001c28:	6952      	ldr	r2, [r2, #20]
        ((0x0000FFFFU & (uint32_t)sFilterConfig->FilterIdHigh) << 16U) |
 8001c2a:	4319      	orrs	r1, r3
      can_ip->sFilterRegister[sFilterConfig->FilterBank].FR1 =
 8001c2c:	697b      	ldr	r3, [r7, #20]
 8001c2e:	3248      	adds	r2, #72	; 0x48
 8001c30:	f843 1032 	str.w	r1, [r3, r2, lsl #3]

      /* 32-bit mask or Second 32-bit identifier */
      can_ip->sFilterRegister[sFilterConfig->FilterBank].FR2 =
        ((0x0000FFFFU & (uint32_t)sFilterConfig->FilterMaskIdHigh) << 16U) |
 8001c34:	683b      	ldr	r3, [r7, #0]
 8001c36:	689b      	ldr	r3, [r3, #8]
 8001c38:	0419      	lsls	r1, r3, #16
        (0x0000FFFFU & (uint32_t)sFilterConfig->FilterMaskIdLow);
 8001c3a:	683b      	ldr	r3, [r7, #0]
 8001c3c:	68db      	ldr	r3, [r3, #12]
 8001c3e:	b29a      	uxth	r2, r3
      can_ip->sFilterRegister[sFilterConfig->FilterBank].FR2 =
 8001c40:	683b      	ldr	r3, [r7, #0]
 8001c42:	695b      	ldr	r3, [r3, #20]
        ((0x0000FFFFU & (uint32_t)sFilterConfig->FilterMaskIdHigh) << 16U) |
 8001c44:	430a      	orrs	r2, r1
      can_ip->sFilterRegister[sFilterConfig->FilterBank].FR2 =
 8001c46:	6979      	ldr	r1, [r7, #20]
 8001c48:	3348      	adds	r3, #72	; 0x48
 8001c4a:	00db      	lsls	r3, r3, #3
 8001c4c:	440b      	add	r3, r1
 8001c4e:	605a      	str	r2, [r3, #4]
    }

    /* Filter Mode */
    if (sFilterConfig->FilterMode == CAN_FILTERMODE_IDMASK)
 8001c50:	683b      	ldr	r3, [r7, #0]
 8001c52:	699b      	ldr	r3, [r3, #24]
 8001c54:	2b00      	cmp	r3, #0
 8001c56:	d109      	bne.n	8001c6c <HAL_CAN_ConfigFilter+0x112>
    {
      /* Id/Mask mode for the filter*/
      CLEAR_BIT(can_ip->FM1R, filternbrbitpos);
 8001c58:	697b      	ldr	r3, [r7, #20]
 8001c5a:	f8d3 2204 	ldr.w	r2, [r3, #516]	; 0x204
 8001c5e:	68fb      	ldr	r3, [r7, #12]
 8001c60:	43db      	mvns	r3, r3
 8001c62:	401a      	ands	r2, r3
 8001c64:	697b      	ldr	r3, [r7, #20]
 8001c66:	f8c3 2204 	str.w	r2, [r3, #516]	; 0x204
 8001c6a:	e007      	b.n	8001c7c <HAL_CAN_ConfigFilter+0x122>
    }
    else /* CAN_FilterInitStruct->CAN_FilterMode == CAN_FilterMode_IdList */
    {
      /* Identifier list mode for the filter*/
      SET_BIT(can_ip->FM1R, filternbrbitpos);
 8001c6c:	697b      	ldr	r3, [r7, #20]
 8001c6e:	f8d3 2204 	ldr.w	r2, [r3, #516]	; 0x204
 8001c72:	68fb      	ldr	r3, [r7, #12]
 8001c74:	431a      	orrs	r2, r3
 8001c76:	697b      	ldr	r3, [r7, #20]
 8001c78:	f8c3 2204 	str.w	r2, [r3, #516]	; 0x204
    }

    /* Filter FIFO assignment */
    if (sFilterConfig->FilterFIFOAssignment == CAN_FILTER_FIFO0)
 8001c7c:	683b      	ldr	r3, [r7, #0]
 8001c7e:	691b      	ldr	r3, [r3, #16]
 8001c80:	2b00      	cmp	r3, #0
 8001c82:	d109      	bne.n	8001c98 <HAL_CAN_ConfigFilter+0x13e>
    {
      /* FIFO 0 assignation for the filter */
      CLEAR_BIT(can_ip->FFA1R, filternbrbitpos);
 8001c84:	697b      	ldr	r3, [r7, #20]
 8001c86:	f8d3 2214 	ldr.w	r2, [r3, #532]	; 0x214
 8001c8a:	68fb      	ldr	r3, [r7, #12]
 8001c8c:	43db      	mvns	r3, r3
 8001c8e:	401a      	ands	r2, r3
 8001c90:	697b      	ldr	r3, [r7, #20]
 8001c92:	f8c3 2214 	str.w	r2, [r3, #532]	; 0x214
 8001c96:	e007      	b.n	8001ca8 <HAL_CAN_ConfigFilter+0x14e>
    }
    else
    {
      /* FIFO 1 assignation for the filter */
      SET_BIT(can_ip->FFA1R, filternbrbitpos);
 8001c98:	697b      	ldr	r3, [r7, #20]
 8001c9a:	f8d3 2214 	ldr.w	r2, [r3, #532]	; 0x214
 8001c9e:	68fb      	ldr	r3, [r7, #12]
 8001ca0:	431a      	orrs	r2, r3
 8001ca2:	697b      	ldr	r3, [r7, #20]
 8001ca4:	f8c3 2214 	str.w	r2, [r3, #532]	; 0x214
    }

    /* Filter activation */
    if (sFilterConfig->FilterActivation == CAN_FILTER_ENABLE)
 8001ca8:	683b      	ldr	r3, [r7, #0]
 8001caa:	6a1b      	ldr	r3, [r3, #32]
 8001cac:	2b01      	cmp	r3, #1
 8001cae:	d107      	bne.n	8001cc0 <HAL_CAN_ConfigFilter+0x166>
    {
      SET_BIT(can_ip->FA1R, filternbrbitpos);
 8001cb0:	697b      	ldr	r3, [r7, #20]
 8001cb2:	f8d3 221c 	ldr.w	r2, [r3, #540]	; 0x21c
 8001cb6:	68fb      	ldr	r3, [r7, #12]
 8001cb8:	431a      	orrs	r2, r3
 8001cba:	697b      	ldr	r3, [r7, #20]
 8001cbc:	f8c3 221c 	str.w	r2, [r3, #540]	; 0x21c
    }

    /* Leave the initialisation mode for the filter */
    CLEAR_BIT(can_ip->FMR, CAN_FMR_FINIT);
 8001cc0:	697b      	ldr	r3, [r7, #20]
 8001cc2:	f8d3 3200 	ldr.w	r3, [r3, #512]	; 0x200
 8001cc6:	f023 0201 	bic.w	r2, r3, #1
 8001cca:	697b      	ldr	r3, [r7, #20]
 8001ccc:	f8c3 2200 	str.w	r2, [r3, #512]	; 0x200

    /* Return function status */
    return HAL_OK;
 8001cd0:	2300      	movs	r3, #0
 8001cd2:	e006      	b.n	8001ce2 <HAL_CAN_ConfigFilter+0x188>
  }
  else
  {
    /* Update error code */
    hcan->ErrorCode |= HAL_CAN_ERROR_NOT_INITIALIZED;
 8001cd4:	687b      	ldr	r3, [r7, #4]
 8001cd6:	6a5b      	ldr	r3, [r3, #36]	; 0x24
 8001cd8:	f443 2280 	orr.w	r2, r3, #262144	; 0x40000
 8001cdc:	687b      	ldr	r3, [r7, #4]
 8001cde:	625a      	str	r2, [r3, #36]	; 0x24

    return HAL_ERROR;
 8001ce0:	2301      	movs	r3, #1
  }
}
 8001ce2:	4618      	mov	r0, r3
 8001ce4:	371c      	adds	r7, #28
 8001ce6:	46bd      	mov	sp, r7
 8001ce8:	bc80      	pop	{r7}
 8001cea:	4770      	bx	lr

08001cec <HAL_CAN_Start>:
  * @param  hcan pointer to an CAN_HandleTypeDef structure that contains
  *         the configuration information for the specified CAN.
  * @retval HAL status
  */
HAL_StatusTypeDef HAL_CAN_Start(CAN_HandleTypeDef *hcan)
{
 8001cec:	b580      	push	{r7, lr}
 8001cee:	b084      	sub	sp, #16
 8001cf0:	af00      	add	r7, sp, #0
 8001cf2:	6078      	str	r0, [r7, #4]
  uint32_t tickstart;

  if (hcan->State == HAL_CAN_STATE_READY)
 8001cf4:	687b      	ldr	r3, [r7, #4]
 8001cf6:	f893 3020 	ldrb.w	r3, [r3, #32]
 8001cfa:	b2db      	uxtb	r3, r3
 8001cfc:	2b01      	cmp	r3, #1
 8001cfe:	d12e      	bne.n	8001d5e <HAL_CAN_Start+0x72>
  {
    /* Change CAN peripheral state */
    hcan->State = HAL_CAN_STATE_LISTENING;
 8001d00:	687b      	ldr	r3, [r7, #4]
 8001d02:	2202      	movs	r2, #2
 8001d04:	f883 2020 	strb.w	r2, [r3, #32]

    /* Request leave initialisation */
    CLEAR_BIT(hcan->Instance->MCR, CAN_MCR_INRQ);
 8001d08:	687b      	ldr	r3, [r7, #4]
 8001d0a:	681b      	ldr	r3, [r3, #0]
 8001d0c:	681a      	ldr	r2, [r3, #0]
 8001d0e:	687b      	ldr	r3, [r7, #4]
 8001d10:	681b      	ldr	r3, [r3, #0]
 8001d12:	f022 0201 	bic.w	r2, r2, #1
 8001d16:	601a      	str	r2, [r3, #0]

    /* Get tick */
    tickstart = HAL_GetTick();
 8001d18:	f7ff fa3c 	bl	8001194 <HAL_GetTick>
 8001d1c:	60f8      	str	r0, [r7, #12]

    /* Wait the acknowledge */
    while ((hcan->Instance->MSR & CAN_MSR_INAK) != 0U)
 8001d1e:	e012      	b.n	8001d46 <HAL_CAN_Start+0x5a>
    {
      /* Check for the Timeout */
      if ((HAL_GetTick() - tickstart) > CAN_TIMEOUT_VALUE)
 8001d20:	f7ff fa38 	bl	8001194 <HAL_GetTick>
 8001d24:	4602      	mov	r2, r0
 8001d26:	68fb      	ldr	r3, [r7, #12]
 8001d28:	1ad3      	subs	r3, r2, r3
 8001d2a:	2b0a      	cmp	r3, #10
 8001d2c:	d90b      	bls.n	8001d46 <HAL_CAN_Start+0x5a>
      {
        /* Update error code */
        hcan->ErrorCode |= HAL_CAN_ERROR_TIMEOUT;
 8001d2e:	687b      	ldr	r3, [r7, #4]
 8001d30:	6a5b      	ldr	r3, [r3, #36]	; 0x24
 8001d32:	f443 3200 	orr.w	r2, r3, #131072	; 0x20000
 8001d36:	687b      	ldr	r3, [r7, #4]
 8001d38:	625a      	str	r2, [r3, #36]	; 0x24

        /* Change CAN state */
        hcan->State = HAL_CAN_STATE_ERROR;
 8001d3a:	687b      	ldr	r3, [r7, #4]
 8001d3c:	2205      	movs	r2, #5
 8001d3e:	f883 2020 	strb.w	r2, [r3, #32]

        return HAL_ERROR;
 8001d42:	2301      	movs	r3, #1
 8001d44:	e012      	b.n	8001d6c <HAL_CAN_Start+0x80>
    while ((hcan->Instance->MSR & CAN_MSR_INAK) != 0U)
 8001d46:	687b      	ldr	r3, [r7, #4]
 8001d48:	681b      	ldr	r3, [r3, #0]
 8001d4a:	685b      	ldr	r3, [r3, #4]
 8001d4c:	f003 0301 	and.w	r3, r3, #1
 8001d50:	2b00      	cmp	r3, #0
 8001d52:	d1e5      	bne.n	8001d20 <HAL_CAN_Start+0x34>
      }
    }

    /* Reset the CAN ErrorCode */
    hcan->ErrorCode = HAL_CAN_ERROR_NONE;
 8001d54:	687b      	ldr	r3, [r7, #4]
 8001d56:	2200      	movs	r2, #0
 8001d58:	625a      	str	r2, [r3, #36]	; 0x24

    /* Return function status */
    return HAL_OK;
 8001d5a:	2300      	movs	r3, #0
 8001d5c:	e006      	b.n	8001d6c <HAL_CAN_Start+0x80>
  }
  else
  {
    /* Update error code */
    hcan->ErrorCode |= HAL_CAN_ERROR_NOT_READY;
 8001d5e:	687b      	ldr	r3, [r7, #4]
 8001d60:	6a5b      	ldr	r3, [r3, #36]	; 0x24
 8001d62:	f443 2200 	orr.w	r2, r3, #524288	; 0x80000
 8001d66:	687b      	ldr	r3, [r7, #4]
 8001d68:	625a      	str	r2, [r3, #36]	; 0x24

    return HAL_ERROR;
 8001d6a:	2301      	movs	r3, #1
  }
}
 8001d6c:	4618      	mov	r0, r3
 8001d6e:	3710      	adds	r7, #16
 8001d70:	46bd      	mov	sp, r7
 8001d72:	bd80      	pop	{r7, pc}

08001d74 <HAL_CAN_AddTxMessage>:
  *         the TxMailbox used to store the Tx message.
  *         This parameter can be a value of @arg CAN_Tx_Mailboxes.
  * @retval HAL status
  */
HAL_StatusTypeDef HAL_CAN_AddTxMessage(CAN_HandleTypeDef *hcan, CAN_TxHeaderTypeDef *pHeader, uint8_t aData[], uint32_t *pTxMailbox)
{
 8001d74:	b480      	push	{r7}
 8001d76:	b089      	sub	sp, #36	; 0x24
 8001d78:	af00      	add	r7, sp, #0
 8001d7a:	60f8      	str	r0, [r7, #12]
 8001d7c:	60b9      	str	r1, [r7, #8]
 8001d7e:	607a      	str	r2, [r7, #4]
 8001d80:	603b      	str	r3, [r7, #0]
  uint32_t transmitmailbox;
  HAL_CAN_StateTypeDef state = hcan->State;
 8001d82:	68fb      	ldr	r3, [r7, #12]
 8001d84:	f893 3020 	ldrb.w	r3, [r3, #32]
 8001d88:	77fb      	strb	r3, [r7, #31]
  uint32_t tsr = READ_REG(hcan->Instance->TSR);
 8001d8a:	68fb      	ldr	r3, [r7, #12]
 8001d8c:	681b      	ldr	r3, [r3, #0]
 8001d8e:	689b      	ldr	r3, [r3, #8]
 8001d90:	61bb      	str	r3, [r7, #24]
  {
    assert_param(IS_CAN_EXTID(pHeader->ExtId));
  }
  assert_param(IS_FUNCTIONAL_STATE(pHeader->TransmitGlobalTime));

  if ((state == HAL_CAN_STATE_READY) ||
 8001d92:	7ffb      	ldrb	r3, [r7, #31]
 8001d94:	2b01      	cmp	r3, #1
 8001d96:	d003      	beq.n	8001da0 <HAL_CAN_AddTxMessage+0x2c>
 8001d98:	7ffb      	ldrb	r3, [r7, #31]
 8001d9a:	2b02      	cmp	r3, #2
 8001d9c:	f040 80b8 	bne.w	8001f10 <HAL_CAN_AddTxMessage+0x19c>
      (state == HAL_CAN_STATE_LISTENING))
  {
    /* Check that all the Tx mailboxes are not full */
    if (((tsr & CAN_TSR_TME0) != 0U) ||
 8001da0:	69bb      	ldr	r3, [r7, #24]
 8001da2:	f003 6380 	and.w	r3, r3, #67108864	; 0x4000000
 8001da6:	2b00      	cmp	r3, #0
 8001da8:	d10a      	bne.n	8001dc0 <HAL_CAN_AddTxMessage+0x4c>
        ((tsr & CAN_TSR_TME1) != 0U) ||
 8001daa:	69bb      	ldr	r3, [r7, #24]
 8001dac:	f003 6300 	and.w	r3, r3, #134217728	; 0x8000000
    if (((tsr & CAN_TSR_TME0) != 0U) ||
 8001db0:	2b00      	cmp	r3, #0
 8001db2:	d105      	bne.n	8001dc0 <HAL_CAN_AddTxMessage+0x4c>
        ((tsr & CAN_TSR_TME2) != 0U))
 8001db4:	69bb      	ldr	r3, [r7, #24]
 8001db6:	f003 5380 	and.w	r3, r3, #268435456	; 0x10000000
        ((tsr & CAN_TSR_TME1) != 0U) ||
 8001dba:	2b00      	cmp	r3, #0
 8001dbc:	f000 80a0 	beq.w	8001f00 <HAL_CAN_AddTxMessage+0x18c>
    {
      /* Select an empty transmit mailbox */
      transmitmailbox = (tsr & CAN_TSR_CODE) >> CAN_TSR_CODE_Pos;
 8001dc0:	69bb      	ldr	r3, [r7, #24]
 8001dc2:	0e1b      	lsrs	r3, r3, #24
 8001dc4:	f003 0303 	and.w	r3, r3, #3
 8001dc8:	617b      	str	r3, [r7, #20]

      /* Check transmit mailbox value */
      if (transmitmailbox > 2U)
 8001dca:	697b      	ldr	r3, [r7, #20]
 8001dcc:	2b02      	cmp	r3, #2
 8001dce:	d907      	bls.n	8001de0 <HAL_CAN_AddTxMessage+0x6c>
      {
        /* Update error code */
        hcan->ErrorCode |= HAL_CAN_ERROR_INTERNAL;
 8001dd0:	68fb      	ldr	r3, [r7, #12]
 8001dd2:	6a5b      	ldr	r3, [r3, #36]	; 0x24
 8001dd4:	f443 0200 	orr.w	r2, r3, #8388608	; 0x800000
 8001dd8:	68fb      	ldr	r3, [r7, #12]
 8001dda:	625a      	str	r2, [r3, #36]	; 0x24

        return HAL_ERROR;
 8001ddc:	2301      	movs	r3, #1
 8001dde:	e09e      	b.n	8001f1e <HAL_CAN_AddTxMessage+0x1aa>
      }

      /* Store the Tx mailbox */
      *pTxMailbox = (uint32_t)1 << transmitmailbox;
 8001de0:	2201      	movs	r2, #1
 8001de2:	697b      	ldr	r3, [r7, #20]
 8001de4:	409a      	lsls	r2, r3
 8001de6:	683b      	ldr	r3, [r7, #0]
 8001de8:	601a      	str	r2, [r3, #0]

      /* Set up the Id */
      if (pHeader->IDE == CAN_ID_STD)
 8001dea:	68bb      	ldr	r3, [r7, #8]
 8001dec:	689b      	ldr	r3, [r3, #8]
 8001dee:	2b00      	cmp	r3, #0
 8001df0:	d10d      	bne.n	8001e0e <HAL_CAN_AddTxMessage+0x9a>
      {
        hcan->Instance->sTxMailBox[transmitmailbox].TIR = ((pHeader->StdId << CAN_TI0R_STID_Pos) |
 8001df2:	68bb      	ldr	r3, [r7, #8]
 8001df4:	681b      	ldr	r3, [r3, #0]
 8001df6:	055a      	lsls	r2, r3, #21
                                                           pHeader->RTR);
 8001df8:	68bb      	ldr	r3, [r7, #8]
 8001dfa:	68db      	ldr	r3, [r3, #12]
        hcan->Instance->sTxMailBox[transmitmailbox].TIR = ((pHeader->StdId << CAN_TI0R_STID_Pos) |
 8001dfc:	68f9      	ldr	r1, [r7, #12]
 8001dfe:	6809      	ldr	r1, [r1, #0]
 8001e00:	431a      	orrs	r2, r3
 8001e02:	697b      	ldr	r3, [r7, #20]
 8001e04:	3318      	adds	r3, #24
 8001e06:	011b      	lsls	r3, r3, #4
 8001e08:	440b      	add	r3, r1
 8001e0a:	601a      	str	r2, [r3, #0]
 8001e0c:	e00f      	b.n	8001e2e <HAL_CAN_AddTxMessage+0xba>
      }
      else
      {
        hcan->Instance->sTxMailBox[transmitmailbox].TIR = ((pHeader->ExtId << CAN_TI0R_EXID_Pos) |
 8001e0e:	68bb      	ldr	r3, [r7, #8]
 8001e10:	685b      	ldr	r3, [r3, #4]
 8001e12:	00da      	lsls	r2, r3, #3
                                                           pHeader->IDE |
 8001e14:	68bb      	ldr	r3, [r7, #8]
 8001e16:	689b      	ldr	r3, [r3, #8]
        hcan->Instance->sTxMailBox[transmitmailbox].TIR = ((pHeader->ExtId << CAN_TI0R_EXID_Pos) |
 8001e18:	431a      	orrs	r2, r3
                                                           pHeader->RTR);
 8001e1a:	68bb      	ldr	r3, [r7, #8]
 8001e1c:	68db      	ldr	r3, [r3, #12]
        hcan->Instance->sTxMailBox[transmitmailbox].TIR = ((pHeader->ExtId << CAN_TI0R_EXID_Pos) |
 8001e1e:	68f9      	ldr	r1, [r7, #12]
 8001e20:	6809      	ldr	r1, [r1, #0]
                                                           pHeader->IDE |
 8001e22:	431a      	orrs	r2, r3
        hcan->Instance->sTxMailBox[transmitmailbox].TIR = ((pHeader->ExtId << CAN_TI0R_EXID_Pos) |
 8001e24:	697b      	ldr	r3, [r7, #20]
 8001e26:	3318      	adds	r3, #24
 8001e28:	011b      	lsls	r3, r3, #4
 8001e2a:	440b      	add	r3, r1
 8001e2c:	601a      	str	r2, [r3, #0]
      }

      /* Set up the DLC */
      hcan->Instance->sTxMailBox[transmitmailbox].TDTR = (pHeader->DLC);
 8001e2e:	68fb      	ldr	r3, [r7, #12]
 8001e30:	6819      	ldr	r1, [r3, #0]
 8001e32:	68bb      	ldr	r3, [r7, #8]
 8001e34:	691a      	ldr	r2, [r3, #16]
 8001e36:	697b      	ldr	r3, [r7, #20]
 8001e38:	3318      	adds	r3, #24
 8001e3a:	011b      	lsls	r3, r3, #4
 8001e3c:	440b      	add	r3, r1
 8001e3e:	3304      	adds	r3, #4
 8001e40:	601a      	str	r2, [r3, #0]

      /* Set up the Transmit Global Time mode */
      if (pHeader->TransmitGlobalTime == ENABLE)
 8001e42:	68bb      	ldr	r3, [r7, #8]
 8001e44:	7d1b      	ldrb	r3, [r3, #20]
 8001e46:	2b01      	cmp	r3, #1
 8001e48:	d111      	bne.n	8001e6e <HAL_CAN_AddTxMessage+0xfa>
      {
        SET_BIT(hcan->Instance->sTxMailBox[transmitmailbox].TDTR, CAN_TDT0R_TGT);
 8001e4a:	68fb      	ldr	r3, [r7, #12]
 8001e4c:	681a      	ldr	r2, [r3, #0]
 8001e4e:	697b      	ldr	r3, [r7, #20]
 8001e50:	3318      	adds	r3, #24
 8001e52:	011b      	lsls	r3, r3, #4
 8001e54:	4413      	add	r3, r2
 8001e56:	3304      	adds	r3, #4
 8001e58:	681b      	ldr	r3, [r3, #0]
 8001e5a:	68fa      	ldr	r2, [r7, #12]
 8001e5c:	6811      	ldr	r1, [r2, #0]
 8001e5e:	f443 7280 	orr.w	r2, r3, #256	; 0x100
 8001e62:	697b      	ldr	r3, [r7, #20]
 8001e64:	3318      	adds	r3, #24
 8001e66:	011b      	lsls	r3, r3, #4
 8001e68:	440b      	add	r3, r1
 8001e6a:	3304      	adds	r3, #4
 8001e6c:	601a      	str	r2, [r3, #0]
      }

      /* Set up the data field */
      WRITE_REG(hcan->Instance->sTxMailBox[transmitmailbox].TDHR,
 8001e6e:	687b      	ldr	r3, [r7, #4]
 8001e70:	3307      	adds	r3, #7
 8001e72:	781b      	ldrb	r3, [r3, #0]
 8001e74:	061a      	lsls	r2, r3, #24
 8001e76:	687b      	ldr	r3, [r7, #4]
 8001e78:	3306      	adds	r3, #6
 8001e7a:	781b      	ldrb	r3, [r3, #0]
 8001e7c:	041b      	lsls	r3, r3, #16
 8001e7e:	431a      	orrs	r2, r3
 8001e80:	687b      	ldr	r3, [r7, #4]
 8001e82:	3305      	adds	r3, #5
 8001e84:	781b      	ldrb	r3, [r3, #0]
 8001e86:	021b      	lsls	r3, r3, #8
 8001e88:	4313      	orrs	r3, r2
 8001e8a:	687a      	ldr	r2, [r7, #4]
 8001e8c:	3204      	adds	r2, #4
 8001e8e:	7812      	ldrb	r2, [r2, #0]
 8001e90:	4610      	mov	r0, r2
 8001e92:	68fa      	ldr	r2, [r7, #12]
 8001e94:	6811      	ldr	r1, [r2, #0]
 8001e96:	ea43 0200 	orr.w	r2, r3, r0
 8001e9a:	697b      	ldr	r3, [r7, #20]
 8001e9c:	011b      	lsls	r3, r3, #4
 8001e9e:	440b      	add	r3, r1
 8001ea0:	f503 73c6 	add.w	r3, r3, #396	; 0x18c
 8001ea4:	601a      	str	r2, [r3, #0]
                ((uint32_t)aData[7] << CAN_TDH0R_DATA7_Pos) |
                ((uint32_t)aData[6] << CAN_TDH0R_DATA6_Pos) |
                ((uint32_t)aData[5] << CAN_TDH0R_DATA5_Pos) |
                ((uint32_t)aData[4] << CAN_TDH0R_DATA4_Pos));
      WRITE_REG(hcan->Instance->sTxMailBox[transmitmailbox].TDLR,
 8001ea6:	687b      	ldr	r3, [r7, #4]
 8001ea8:	3303      	adds	r3, #3
 8001eaa:	781b      	ldrb	r3, [r3, #0]
 8001eac:	061a      	lsls	r2, r3, #24
 8001eae:	687b      	ldr	r3, [r7, #4]
 8001eb0:	3302      	adds	r3, #2
 8001eb2:	781b      	ldrb	r3, [r3, #0]
 8001eb4:	041b      	lsls	r3, r3, #16
 8001eb6:	431a      	orrs	r2, r3
 8001eb8:	687b      	ldr	r3, [r7, #4]
 8001eba:	3301      	adds	r3, #1
 8001ebc:	781b      	ldrb	r3, [r3, #0]
 8001ebe:	021b      	lsls	r3, r3, #8
 8001ec0:	4313      	orrs	r3, r2
 8001ec2:	687a      	ldr	r2, [r7, #4]
 8001ec4:	7812      	ldrb	r2, [r2, #0]
 8001ec6:	4610      	mov	r0, r2
 8001ec8:	68fa      	ldr	r2, [r7, #12]
 8001eca:	6811      	ldr	r1, [r2, #0]
 8001ecc:	ea43 0200 	orr.w	r2, r3, r0
 8001ed0:	697b      	ldr	r3, [r7, #20]
 8001ed2:	011b      	lsls	r3, r3, #4
 8001ed4:	440b      	add	r3, r1
 8001ed6:	f503 73c4 	add.w	r3, r3, #392	; 0x188
 8001eda:	601a      	str	r2, [r3, #0]
                ((uint32_t)aData[2] << CAN_TDL0R_DATA2_Pos) |
                ((uint32_t)aData[1] << CAN_TDL0R_DATA1_Pos) |
                ((uint32_t)aData[0] << CAN_TDL0R_DATA0_Pos));

      /* Request transmission */
      SET_BIT(hcan->Instance->sTxMailBox[transmitmailbox].TIR, CAN_TI0R_TXRQ);
 8001edc:	68fb      	ldr	r3, [r7, #12]
 8001ede:	681a      	ldr	r2, [r3, #0]
 8001ee0:	697b      	ldr	r3, [r7, #20]
 8001ee2:	3318      	adds	r3, #24
 8001ee4:	011b      	lsls	r3, r3, #4
 8001ee6:	4413      	add	r3, r2
 8001ee8:	681b      	ldr	r3, [r3, #0]
 8001eea:	68fa      	ldr	r2, [r7, #12]
 8001eec:	6811      	ldr	r1, [r2, #0]
 8001eee:	f043 0201 	orr.w	r2, r3, #1
 8001ef2:	697b      	ldr	r3, [r7, #20]
 8001ef4:	3318      	adds	r3, #24
 8001ef6:	011b      	lsls	r3, r3, #4
 8001ef8:	440b      	add	r3, r1
 8001efa:	601a      	str	r2, [r3, #0]

      /* Return function status */
      return HAL_OK;
 8001efc:	2300      	movs	r3, #0
 8001efe:	e00e      	b.n	8001f1e <HAL_CAN_AddTxMessage+0x1aa>
    }
    else
    {
      /* Update error code */
      hcan->ErrorCode |= HAL_CAN_ERROR_PARAM;
 8001f00:	68fb      	ldr	r3, [r7, #12]
 8001f02:	6a5b      	ldr	r3, [r3, #36]	; 0x24
 8001f04:	f443 1200 	orr.w	r2, r3, #2097152	; 0x200000
 8001f08:	68fb      	ldr	r3, [r7, #12]
 8001f0a:	625a      	str	r2, [r3, #36]	; 0x24

      return HAL_ERROR;
 8001f0c:	2301      	movs	r3, #1
 8001f0e:	e006      	b.n	8001f1e <HAL_CAN_AddTxMessage+0x1aa>
    }
  }
  else
  {
    /* Update error code */
    hcan->ErrorCode |= HAL_CAN_ERROR_NOT_INITIALIZED;
 8001f10:	68fb      	ldr	r3, [r7, #12]
 8001f12:	6a5b      	ldr	r3, [r3, #36]	; 0x24
 8001f14:	f443 2280 	orr.w	r2, r3, #262144	; 0x40000
 8001f18:	68fb      	ldr	r3, [r7, #12]
 8001f1a:	625a      	str	r2, [r3, #36]	; 0x24

    return HAL_ERROR;
 8001f1c:	2301      	movs	r3, #1
  }
}
 8001f1e:	4618      	mov	r0, r3
 8001f20:	3724      	adds	r7, #36	; 0x24
 8001f22:	46bd      	mov	sp, r7
 8001f24:	bc80      	pop	{r7}
 8001f26:	4770      	bx	lr

08001f28 <HAL_CAN_GetRxMessage>:
  *         of the Rx frame will be stored.
  * @param  aData array where the payload of the Rx frame will be stored.
  * @retval HAL status
  */
HAL_StatusTypeDef HAL_CAN_GetRxMessage(CAN_HandleTypeDef *hcan, uint32_t RxFifo, CAN_RxHeaderTypeDef *pHeader, uint8_t aData[])
{
 8001f28:	b480      	push	{r7}
 8001f2a:	b087      	sub	sp, #28
 8001f2c:	af00      	add	r7, sp, #0
 8001f2e:	60f8      	str	r0, [r7, #12]
 8001f30:	60b9      	str	r1, [r7, #8]
 8001f32:	607a      	str	r2, [r7, #4]
 8001f34:	603b      	str	r3, [r7, #0]
  HAL_CAN_StateTypeDef state = hcan->State;
 8001f36:	68fb      	ldr	r3, [r7, #12]
 8001f38:	f893 3020 	ldrb.w	r3, [r3, #32]
 8001f3c:	75fb      	strb	r3, [r7, #23]

  assert_param(IS_CAN_RX_FIFO(RxFifo));

  if ((state == HAL_CAN_STATE_READY) ||
 8001f3e:	7dfb      	ldrb	r3, [r7, #23]
 8001f40:	2b01      	cmp	r3, #1
 8001f42:	d003      	beq.n	8001f4c <HAL_CAN_GetRxMessage+0x24>
 8001f44:	7dfb      	ldrb	r3, [r7, #23]
 8001f46:	2b02      	cmp	r3, #2
 8001f48:	f040 80f3 	bne.w	8002132 <HAL_CAN_GetRxMessage+0x20a>
      (state == HAL_CAN_STATE_LISTENING))
  {
    /* Check the Rx FIFO */
    if (RxFifo == CAN_RX_FIFO0) /* Rx element is assigned to Rx FIFO 0 */
 8001f4c:	68bb      	ldr	r3, [r7, #8]
 8001f4e:	2b00      	cmp	r3, #0
 8001f50:	d10e      	bne.n	8001f70 <HAL_CAN_GetRxMessage+0x48>
    {
      /* Check that the Rx FIFO 0 is not empty */
      if ((hcan->Instance->RF0R & CAN_RF0R_FMP0) == 0U)
 8001f52:	68fb      	ldr	r3, [r7, #12]
 8001f54:	681b      	ldr	r3, [r3, #0]
 8001f56:	68db      	ldr	r3, [r3, #12]
 8001f58:	f003 0303 	and.w	r3, r3, #3
 8001f5c:	2b00      	cmp	r3, #0
 8001f5e:	d116      	bne.n	8001f8e <HAL_CAN_GetRxMessage+0x66>
      {
        /* Update error code */
        hcan->ErrorCode |= HAL_CAN_ERROR_PARAM;
 8001f60:	68fb      	ldr	r3, [r7, #12]
 8001f62:	6a5b      	ldr	r3, [r3, #36]	; 0x24
 8001f64:	f443 1200 	orr.w	r2, r3, #2097152	; 0x200000
 8001f68:	68fb      	ldr	r3, [r7, #12]
 8001f6a:	625a      	str	r2, [r3, #36]	; 0x24

        return HAL_ERROR;
 8001f6c:	2301      	movs	r3, #1
 8001f6e:	e0e7      	b.n	8002140 <HAL_CAN_GetRxMessage+0x218>
      }
    }
    else /* Rx element is assigned to Rx FIFO 1 */
    {
      /* Check that the Rx FIFO 1 is not empty */
      if ((hcan->Instance->RF1R & CAN_RF1R_FMP1) == 0U)
 8001f70:	68fb      	ldr	r3, [r7, #12]
 8001f72:	681b      	ldr	r3, [r3, #0]
 8001f74:	691b      	ldr	r3, [r3, #16]
 8001f76:	f003 0303 	and.w	r3, r3, #3
 8001f7a:	2b00      	cmp	r3, #0
 8001f7c:	d107      	bne.n	8001f8e <HAL_CAN_GetRxMessage+0x66>
      {
        /* Update error code */
        hcan->ErrorCode |= HAL_CAN_ERROR_PARAM;
 8001f7e:	68fb      	ldr	r3, [r7, #12]
 8001f80:	6a5b      	ldr	r3, [r3, #36]	; 0x24
 8001f82:	f443 1200 	orr.w	r2, r3, #2097152	; 0x200000
 8001f86:	68fb      	ldr	r3, [r7, #12]
 8001f88:	625a      	str	r2, [r3, #36]	; 0x24

        return HAL_ERROR;
 8001f8a:	2301      	movs	r3, #1
 8001f8c:	e0d8      	b.n	8002140 <HAL_CAN_GetRxMessage+0x218>
      }
    }

    /* Get the header */
    pHeader->IDE = CAN_RI0R_IDE & hcan->Instance->sFIFOMailBox[RxFifo].RIR;
 8001f8e:	68fb      	ldr	r3, [r7, #12]
 8001f90:	681a      	ldr	r2, [r3, #0]
 8001f92:	68bb      	ldr	r3, [r7, #8]
 8001f94:	331b      	adds	r3, #27
 8001f96:	011b      	lsls	r3, r3, #4
 8001f98:	4413      	add	r3, r2
 8001f9a:	681b      	ldr	r3, [r3, #0]
 8001f9c:	f003 0204 	and.w	r2, r3, #4
 8001fa0:	687b      	ldr	r3, [r7, #4]
 8001fa2:	609a      	str	r2, [r3, #8]
    if (pHeader->IDE == CAN_ID_STD)
 8001fa4:	687b      	ldr	r3, [r7, #4]
 8001fa6:	689b      	ldr	r3, [r3, #8]
 8001fa8:	2b00      	cmp	r3, #0
 8001faa:	d10c      	bne.n	8001fc6 <HAL_CAN_GetRxMessage+0x9e>
    {
      pHeader->StdId = (CAN_RI0R_STID & hcan->Instance->sFIFOMailBox[RxFifo].RIR) >> CAN_TI0R_STID_Pos;
 8001fac:	68fb      	ldr	r3, [r7, #12]
 8001fae:	681a      	ldr	r2, [r3, #0]
 8001fb0:	68bb      	ldr	r3, [r7, #8]
 8001fb2:	331b      	adds	r3, #27
 8001fb4:	011b      	lsls	r3, r3, #4
 8001fb6:	4413      	add	r3, r2
 8001fb8:	681b      	ldr	r3, [r3, #0]
 8001fba:	0d5b      	lsrs	r3, r3, #21
 8001fbc:	f3c3 020a 	ubfx	r2, r3, #0, #11
 8001fc0:	687b      	ldr	r3, [r7, #4]
 8001fc2:	601a      	str	r2, [r3, #0]
 8001fc4:	e00b      	b.n	8001fde <HAL_CAN_GetRxMessage+0xb6>
    }
    else
    {
      pHeader->ExtId = ((CAN_RI0R_EXID | CAN_RI0R_STID) & hcan->Instance->sFIFOMailBox[RxFifo].RIR) >> CAN_RI0R_EXID_Pos;
 8001fc6:	68fb      	ldr	r3, [r7, #12]
 8001fc8:	681a      	ldr	r2, [r3, #0]
 8001fca:	68bb      	ldr	r3, [r7, #8]
 8001fcc:	331b      	adds	r3, #27
 8001fce:	011b      	lsls	r3, r3, #4
 8001fd0:	4413      	add	r3, r2
 8001fd2:	681b      	ldr	r3, [r3, #0]
 8001fd4:	08db      	lsrs	r3, r3, #3
 8001fd6:	f023 4260 	bic.w	r2, r3, #3758096384	; 0xe0000000
 8001fda:	687b      	ldr	r3, [r7, #4]
 8001fdc:	605a      	str	r2, [r3, #4]
    }
    pHeader->RTR = (CAN_RI0R_RTR & hcan->Instance->sFIFOMailBox[RxFifo].RIR);
 8001fde:	68fb      	ldr	r3, [r7, #12]
 8001fe0:	681a      	ldr	r2, [r3, #0]
 8001fe2:	68bb      	ldr	r3, [r7, #8]
 8001fe4:	331b      	adds	r3, #27
 8001fe6:	011b      	lsls	r3, r3, #4
 8001fe8:	4413      	add	r3, r2
 8001fea:	681b      	ldr	r3, [r3, #0]
 8001fec:	f003 0202 	and.w	r2, r3, #2
 8001ff0:	687b      	ldr	r3, [r7, #4]
 8001ff2:	60da      	str	r2, [r3, #12]
    pHeader->DLC = (CAN_RDT0R_DLC & hcan->Instance->sFIFOMailBox[RxFifo].RDTR) >> CAN_RDT0R_DLC_Pos;
 8001ff4:	68fb      	ldr	r3, [r7, #12]
 8001ff6:	681a      	ldr	r2, [r3, #0]
 8001ff8:	68bb      	ldr	r3, [r7, #8]
 8001ffa:	331b      	adds	r3, #27
 8001ffc:	011b      	lsls	r3, r3, #4
 8001ffe:	4413      	add	r3, r2
 8002000:	3304      	adds	r3, #4
 8002002:	681b      	ldr	r3, [r3, #0]
 8002004:	f003 020f 	and.w	r2, r3, #15
 8002008:	687b      	ldr	r3, [r7, #4]
 800200a:	611a      	str	r2, [r3, #16]
    pHeader->FilterMatchIndex = (CAN_RDT0R_FMI & hcan->Instance->sFIFOMailBox[RxFifo].RDTR) >> CAN_RDT0R_FMI_Pos;
 800200c:	68fb      	ldr	r3, [r7, #12]
 800200e:	681a      	ldr	r2, [r3, #0]
 8002010:	68bb      	ldr	r3, [r7, #8]
 8002012:	331b      	adds	r3, #27
 8002014:	011b      	lsls	r3, r3, #4
 8002016:	4413      	add	r3, r2
 8002018:	3304      	adds	r3, #4
 800201a:	681b      	ldr	r3, [r3, #0]
 800201c:	0a1b      	lsrs	r3, r3, #8
 800201e:	b2da      	uxtb	r2, r3
 8002020:	687b      	ldr	r3, [r7, #4]
 8002022:	619a      	str	r2, [r3, #24]
    pHeader->Timestamp = (CAN_RDT0R_TIME & hcan->Instance->sFIFOMailBox[RxFifo].RDTR) >> CAN_RDT0R_TIME_Pos;
 8002024:	68fb      	ldr	r3, [r7, #12]
 8002026:	681a      	ldr	r2, [r3, #0]
 8002028:	68bb      	ldr	r3, [r7, #8]
 800202a:	331b      	adds	r3, #27
 800202c:	011b      	lsls	r3, r3, #4
 800202e:	4413      	add	r3, r2
 8002030:	3304      	adds	r3, #4
 8002032:	681b      	ldr	r3, [r3, #0]
 8002034:	0c1b      	lsrs	r3, r3, #16
 8002036:	b29a      	uxth	r2, r3
 8002038:	687b      	ldr	r3, [r7, #4]
 800203a:	615a      	str	r2, [r3, #20]

    /* Get the data */
    aData[0] = (uint8_t)((CAN_RDL0R_DATA0 & hcan->Instance->sFIFOMailBox[RxFifo].RDLR) >> CAN_RDL0R_DATA0_Pos);
 800203c:	68fb      	ldr	r3, [r7, #12]
 800203e:	681a      	ldr	r2, [r3, #0]
 8002040:	68bb      	ldr	r3, [r7, #8]
 8002042:	011b      	lsls	r3, r3, #4
 8002044:	4413      	add	r3, r2
 8002046:	f503 73dc 	add.w	r3, r3, #440	; 0x1b8
 800204a:	681b      	ldr	r3, [r3, #0]
 800204c:	b2da      	uxtb	r2, r3
 800204e:	683b      	ldr	r3, [r7, #0]
 8002050:	701a      	strb	r2, [r3, #0]
    aData[1] = (uint8_t)((CAN_RDL0R_DATA1 & hcan->Instance->sFIFOMailBox[RxFifo].RDLR) >> CAN_RDL0R_DATA1_Pos);
 8002052:	68fb      	ldr	r3, [r7, #12]
 8002054:	681a      	ldr	r2, [r3, #0]
 8002056:	68bb      	ldr	r3, [r7, #8]
 8002058:	011b      	lsls	r3, r3, #4
 800205a:	4413      	add	r3, r2
 800205c:	f503 73dc 	add.w	r3, r3, #440	; 0x1b8
 8002060:	681b      	ldr	r3, [r3, #0]
 8002062:	0a1a      	lsrs	r2, r3, #8
 8002064:	683b      	ldr	r3, [r7, #0]
 8002066:	3301      	adds	r3, #1
 8002068:	b2d2      	uxtb	r2, r2
 800206a:	701a      	strb	r2, [r3, #0]
    aData[2] = (uint8_t)((CAN_RDL0R_DATA2 & hcan->Instance->sFIFOMailBox[RxFifo].RDLR) >> CAN_RDL0R_DATA2_Pos);
 800206c:	68fb      	ldr	r3, [r7, #12]
 800206e:	681a      	ldr	r2, [r3, #0]
 8002070:	68bb      	ldr	r3, [r7, #8]
 8002072:	011b      	lsls	r3, r3, #4
 8002074:	4413      	add	r3, r2
 8002076:	f503 73dc 	add.w	r3, r3, #440	; 0x1b8
 800207a:	681b      	ldr	r3, [r3, #0]
 800207c:	0c1a      	lsrs	r2, r3, #16
 800207e:	683b      	ldr	r3, [r7, #0]
 8002080:	3302      	adds	r3, #2
 8002082:	b2d2      	uxtb	r2, r2
 8002084:	701a      	strb	r2, [r3, #0]
    aData[3] = (uint8_t)((CAN_RDL0R_DATA3 & hcan->Instance->sFIFOMailBox[RxFifo].RDLR) >> CAN_RDL0R_DATA3_Pos);
 8002086:	68fb      	ldr	r3, [r7, #12]
 8002088:	681a      	ldr	r2, [r3, #0]
 800208a:	68bb      	ldr	r3, [r7, #8]
 800208c:	011b      	lsls	r3, r3, #4
 800208e:	4413      	add	r3, r2
 8002090:	f503 73dc 	add.w	r3, r3, #440	; 0x1b8
 8002094:	681b      	ldr	r3, [r3, #0]
 8002096:	0e1a      	lsrs	r2, r3, #24
 8002098:	683b      	ldr	r3, [r7, #0]
 800209a:	3303      	adds	r3, #3
 800209c:	b2d2      	uxtb	r2, r2
 800209e:	701a      	strb	r2, [r3, #0]
    aData[4] = (uint8_t)((CAN_RDH0R_DATA4 & hcan->Instance->sFIFOMailBox[RxFifo].RDHR) >> CAN_RDH0R_DATA4_Pos);
 80020a0:	68fb      	ldr	r3, [r7, #12]
 80020a2:	681a      	ldr	r2, [r3, #0]
 80020a4:	68bb      	ldr	r3, [r7, #8]
 80020a6:	011b      	lsls	r3, r3, #4
 80020a8:	4413      	add	r3, r2
 80020aa:	f503 73de 	add.w	r3, r3, #444	; 0x1bc
 80020ae:	681a      	ldr	r2, [r3, #0]
 80020b0:	683b      	ldr	r3, [r7, #0]
 80020b2:	3304      	adds	r3, #4
 80020b4:	b2d2      	uxtb	r2, r2
 80020b6:	701a      	strb	r2, [r3, #0]
    aData[5] = (uint8_t)((CAN_RDH0R_DATA5 & hcan->Instance->sFIFOMailBox[RxFifo].RDHR) >> CAN_RDH0R_DATA5_Pos);
 80020b8:	68fb      	ldr	r3, [r7, #12]
 80020ba:	681a      	ldr	r2, [r3, #0]
 80020bc:	68bb      	ldr	r3, [r7, #8]
 80020be:	011b      	lsls	r3, r3, #4
 80020c0:	4413      	add	r3, r2
 80020c2:	f503 73de 	add.w	r3, r3, #444	; 0x1bc
 80020c6:	681b      	ldr	r3, [r3, #0]
 80020c8:	0a1a      	lsrs	r2, r3, #8
 80020ca:	683b      	ldr	r3, [r7, #0]
 80020cc:	3305      	adds	r3, #5
 80020ce:	b2d2      	uxtb	r2, r2
 80020d0:	701a      	strb	r2, [r3, #0]
    aData[6] = (uint8_t)((CAN_RDH0R_DATA6 & hcan->Instance->sFIFOMailBox[RxFifo].RDHR) >> CAN_RDH0R_DATA6_Pos);
 80020d2:	68fb      	ldr	r3, [r7, #12]
 80020d4:	681a      	ldr	r2, [r3, #0]
 80020d6:	68bb      	ldr	r3, [r7, #8]
 80020d8:	011b      	lsls	r3, r3, #4
 80020da:	4413      	add	r3, r2
 80020dc:	f503 73de 	add.w	r3, r3, #444	; 0x1bc
 80020e0:	681b      	ldr	r3, [r3, #0]
 80020e2:	0c1a      	lsrs	r2, r3, #16
 80020e4:	683b      	ldr	r3, [r7, #0]
 80020e6:	3306      	adds	r3, #6
 80020e8:	b2d2      	uxtb	r2, r2
 80020ea:	701a      	strb	r2, [r3, #0]
    aData[7] = (uint8_t)((CAN_RDH0R_DATA7 & hcan->Instance->sFIFOMailBox[RxFifo].RDHR) >> CAN_RDH0R_DATA7_Pos);
 80020ec:	68fb      	ldr	r3, [r7, #12]
 80020ee:	681a      	ldr	r2, [r3, #0]
 80020f0:	68bb      	ldr	r3, [r7, #8]
 80020f2:	011b      	lsls	r3, r3, #4
 80020f4:	4413      	add	r3, r2
 80020f6:	f503 73de 	add.w	r3, r3, #444	; 0x1bc
 80020fa:	681b      	ldr	r3, [r3, #0]
 80020fc:	0e1a      	lsrs	r2, r3, #24
 80020fe:	683b      	ldr	r3, [r7, #0]
 8002100:	3307      	adds	r3, #7
 8002102:	b2d2      	uxtb	r2, r2
 8002104:	701a      	strb	r2, [r3, #0]

    /* Release the FIFO */
    if (RxFifo == CAN_RX_FIFO0) /* Rx element is assigned to Rx FIFO 0 */
 8002106:	68bb      	ldr	r3, [r7, #8]
 8002108:	2b00      	cmp	r3, #0
 800210a:	d108      	bne.n	800211e <HAL_CAN_GetRxMessage+0x1f6>
    {
      /* Release RX FIFO 0 */
      SET_BIT(hcan->Instance->RF0R, CAN_RF0R_RFOM0);
 800210c:	68fb      	ldr	r3, [r7, #12]
 800210e:	681b      	ldr	r3, [r3, #0]
 8002110:	68da      	ldr	r2, [r3, #12]
 8002112:	68fb      	ldr	r3, [r7, #12]
 8002114:	681b      	ldr	r3, [r3, #0]
 8002116:	f042 0220 	orr.w	r2, r2, #32
 800211a:	60da      	str	r2, [r3, #12]
 800211c:	e007      	b.n	800212e <HAL_CAN_GetRxMessage+0x206>
    }
    else /* Rx element is assigned to Rx FIFO 1 */
    {
      /* Release RX FIFO 1 */
      SET_BIT(hcan->Instance->RF1R, CAN_RF1R_RFOM1);
 800211e:	68fb      	ldr	r3, [r7, #12]
 8002120:	681b      	ldr	r3, [r3, #0]
 8002122:	691a      	ldr	r2, [r3, #16]
 8002124:	68fb      	ldr	r3, [r7, #12]
 8002126:	681b      	ldr	r3, [r3, #0]
 8002128:	f042 0220 	orr.w	r2, r2, #32
 800212c:	611a      	str	r2, [r3, #16]
    }

    /* Return function status */
    return HAL_OK;
 800212e:	2300      	movs	r3, #0
 8002130:	e006      	b.n	8002140 <HAL_CAN_GetRxMessage+0x218>
  }
  else
  {
    /* Update error code */
    hcan->ErrorCode |= HAL_CAN_ERROR_NOT_INITIALIZED;
 8002132:	68fb      	ldr	r3, [r7, #12]
 8002134:	6a5b      	ldr	r3, [r3, #36]	; 0x24
 8002136:	f443 2280 	orr.w	r2, r3, #262144	; 0x40000
 800213a:	68fb      	ldr	r3, [r7, #12]
 800213c:	625a      	str	r2, [r3, #36]	; 0x24

    return HAL_ERROR;
 800213e:	2301      	movs	r3, #1
  }
}
 8002140:	4618      	mov	r0, r3
 8002142:	371c      	adds	r7, #28
 8002144:	46bd      	mov	sp, r7
 8002146:	bc80      	pop	{r7}
 8002148:	4770      	bx	lr

0800214a <HAL_CAN_ActivateNotification>:
  * @param  ActiveITs indicates which interrupts will be enabled.
  *         This parameter can be any combination of @arg CAN_Interrupts.
  * @retval HAL status
  */
HAL_StatusTypeDef HAL_CAN_ActivateNotification(CAN_HandleTypeDef *hcan, uint32_t ActiveITs)
{
 800214a:	b480      	push	{r7}
 800214c:	b085      	sub	sp, #20
 800214e:	af00      	add	r7, sp, #0
 8002150:	6078      	str	r0, [r7, #4]
 8002152:	6039      	str	r1, [r7, #0]
  HAL_CAN_StateTypeDef state = hcan->State;
 8002154:	687b      	ldr	r3, [r7, #4]
 8002156:	f893 3020 	ldrb.w	r3, [r3, #32]
 800215a:	73fb      	strb	r3, [r7, #15]

  /* Check function parameters */
  assert_param(IS_CAN_IT(ActiveITs));

  if ((state == HAL_CAN_STATE_READY) ||
 800215c:	7bfb      	ldrb	r3, [r7, #15]
 800215e:	2b01      	cmp	r3, #1
 8002160:	d002      	beq.n	8002168 <HAL_CAN_ActivateNotification+0x1e>
 8002162:	7bfb      	ldrb	r3, [r7, #15]
 8002164:	2b02      	cmp	r3, #2
 8002166:	d109      	bne.n	800217c <HAL_CAN_ActivateNotification+0x32>
      (state == HAL_CAN_STATE_LISTENING))
  {
    /* Enable the selected interrupts */
    __HAL_CAN_ENABLE_IT(hcan, ActiveITs);
 8002168:	687b      	ldr	r3, [r7, #4]
 800216a:	681b      	ldr	r3, [r3, #0]
 800216c:	6959      	ldr	r1, [r3, #20]
 800216e:	687b      	ldr	r3, [r7, #4]
 8002170:	681b      	ldr	r3, [r3, #0]
 8002172:	683a      	ldr	r2, [r7, #0]
 8002174:	430a      	orrs	r2, r1
 8002176:	615a      	str	r2, [r3, #20]

    /* Return function status */
    return HAL_OK;
 8002178:	2300      	movs	r3, #0
 800217a:	e006      	b.n	800218a <HAL_CAN_ActivateNotification+0x40>
  }
  else
  {
    /* Update error code */
    hcan->ErrorCode |= HAL_CAN_ERROR_NOT_INITIALIZED;
 800217c:	687b      	ldr	r3, [r7, #4]
 800217e:	6a5b      	ldr	r3, [r3, #36]	; 0x24
 8002180:	f443 2280 	orr.w	r2, r3, #262144	; 0x40000
 8002184:	687b      	ldr	r3, [r7, #4]
 8002186:	625a      	str	r2, [r3, #36]	; 0x24

    return HAL_ERROR;
 8002188:	2301      	movs	r3, #1
  }
}
 800218a:	4618      	mov	r0, r3
 800218c:	3714      	adds	r7, #20
 800218e:	46bd      	mov	sp, r7
 8002190:	bc80      	pop	{r7}
 8002192:	4770      	bx	lr

08002194 <HAL_CAN_IRQHandler>:
  * @param  hcan pointer to a CAN_HandleTypeDef structure that contains
  *         the configuration information for the specified CAN.
  * @retval None
  */
void HAL_CAN_IRQHandler(CAN_HandleTypeDef *hcan)
{
 8002194:	b580      	push	{r7, lr}
 8002196:	b08a      	sub	sp, #40	; 0x28
 8002198:	af00      	add	r7, sp, #0
 800219a:	6078      	str	r0, [r7, #4]
  uint32_t errorcode = HAL_CAN_ERROR_NONE;
 800219c:	2300      	movs	r3, #0
 800219e:	627b      	str	r3, [r7, #36]	; 0x24
  uint32_t interrupts = READ_REG(hcan->Instance->IER);
 80021a0:	687b      	ldr	r3, [r7, #4]
 80021a2:	681b      	ldr	r3, [r3, #0]
 80021a4:	695b      	ldr	r3, [r3, #20]
 80021a6:	623b      	str	r3, [r7, #32]
  uint32_t msrflags = READ_REG(hcan->Instance->MSR);
 80021a8:	687b      	ldr	r3, [r7, #4]
 80021aa:	681b      	ldr	r3, [r3, #0]
 80021ac:	685b      	ldr	r3, [r3, #4]
 80021ae:	61fb      	str	r3, [r7, #28]
  uint32_t tsrflags = READ_REG(hcan->Instance->TSR);
 80021b0:	687b      	ldr	r3, [r7, #4]
 80021b2:	681b      	ldr	r3, [r3, #0]
 80021b4:	689b      	ldr	r3, [r3, #8]
 80021b6:	61bb      	str	r3, [r7, #24]
  uint32_t rf0rflags = READ_REG(hcan->Instance->RF0R);
 80021b8:	687b      	ldr	r3, [r7, #4]
 80021ba:	681b      	ldr	r3, [r3, #0]
 80021bc:	68db      	ldr	r3, [r3, #12]
 80021be:	617b      	str	r3, [r7, #20]
  uint32_t rf1rflags = READ_REG(hcan->Instance->RF1R);
 80021c0:	687b      	ldr	r3, [r7, #4]
 80021c2:	681b      	ldr	r3, [r3, #0]
 80021c4:	691b      	ldr	r3, [r3, #16]
 80021c6:	613b      	str	r3, [r7, #16]
  uint32_t esrflags = READ_REG(hcan->Instance->ESR);
 80021c8:	687b      	ldr	r3, [r7, #4]
 80021ca:	681b      	ldr	r3, [r3, #0]
 80021cc:	699b      	ldr	r3, [r3, #24]
 80021ce:	60fb      	str	r3, [r7, #12]

  /* Transmit Mailbox empty interrupt management *****************************/
  if ((interrupts & CAN_IT_TX_MAILBOX_EMPTY) != 0U)
 80021d0:	6a3b      	ldr	r3, [r7, #32]
 80021d2:	f003 0301 	and.w	r3, r3, #1
 80021d6:	2b00      	cmp	r3, #0
 80021d8:	d07c      	beq.n	80022d4 <HAL_CAN_IRQHandler+0x140>
  {
    /* Transmit Mailbox 0 management *****************************************/
    if ((tsrflags & CAN_TSR_RQCP0) != 0U)
 80021da:	69bb      	ldr	r3, [r7, #24]
 80021dc:	f003 0301 	and.w	r3, r3, #1
 80021e0:	2b00      	cmp	r3, #0
 80021e2:	d023      	beq.n	800222c <HAL_CAN_IRQHandler+0x98>
    {
      /* Clear the Transmission Complete flag (and TXOK0,ALST0,TERR0 bits) */
      __HAL_CAN_CLEAR_FLAG(hcan, CAN_FLAG_RQCP0);
 80021e4:	687b      	ldr	r3, [r7, #4]
 80021e6:	681b      	ldr	r3, [r3, #0]
 80021e8:	2201      	movs	r2, #1
 80021ea:	609a      	str	r2, [r3, #8]

      if ((tsrflags & CAN_TSR_TXOK0) != 0U)
 80021ec:	69bb      	ldr	r3, [r7, #24]
 80021ee:	f003 0302 	and.w	r3, r3, #2
 80021f2:	2b00      	cmp	r3, #0
 80021f4:	d003      	beq.n	80021fe <HAL_CAN_IRQHandler+0x6a>
#if USE_HAL_CAN_REGISTER_CALLBACKS == 1
        /* Call registered callback*/
        hcan->TxMailbox0CompleteCallback(hcan);
#else
        /* Call weak (surcharged) callback */
        HAL_CAN_TxMailbox0CompleteCallback(hcan);
 80021f6:	6878      	ldr	r0, [r7, #4]
 80021f8:	f000 f97d 	bl	80024f6 <HAL_CAN_TxMailbox0CompleteCallback>
 80021fc:	e016      	b.n	800222c <HAL_CAN_IRQHandler+0x98>
#endif /* USE_HAL_CAN_REGISTER_CALLBACKS */
      }
      else
      {
        if ((tsrflags & CAN_TSR_ALST0) != 0U)
 80021fe:	69bb      	ldr	r3, [r7, #24]
 8002200:	f003 0304 	and.w	r3, r3, #4
 8002204:	2b00      	cmp	r3, #0
 8002206:	d004      	beq.n	8002212 <HAL_CAN_IRQHandler+0x7e>
        {
          /* Update error code */
          errorcode |= HAL_CAN_ERROR_TX_ALST0;
 8002208:	6a7b      	ldr	r3, [r7, #36]	; 0x24
 800220a:	f443 6300 	orr.w	r3, r3, #2048	; 0x800
 800220e:	627b      	str	r3, [r7, #36]	; 0x24
 8002210:	e00c      	b.n	800222c <HAL_CAN_IRQHandler+0x98>
        }
        else if ((tsrflags & CAN_TSR_TERR0) != 0U)
 8002212:	69bb      	ldr	r3, [r7, #24]
 8002214:	f003 0308 	and.w	r3, r3, #8
 8002218:	2b00      	cmp	r3, #0
 800221a:	d004      	beq.n	8002226 <HAL_CAN_IRQHandler+0x92>
        {
          /* Update error code */
          errorcode |= HAL_CAN_ERROR_TX_TERR0;
 800221c:	6a7b      	ldr	r3, [r7, #36]	; 0x24
 800221e:	f443 5380 	orr.w	r3, r3, #4096	; 0x1000
 8002222:	627b      	str	r3, [r7, #36]	; 0x24
 8002224:	e002      	b.n	800222c <HAL_CAN_IRQHandler+0x98>
#if USE_HAL_CAN_REGISTER_CALLBACKS == 1
          /* Call registered callback*/
          hcan->TxMailbox0AbortCallback(hcan);
#else
          /* Call weak (surcharged) callback */
          HAL_CAN_TxMailbox0AbortCallback(hcan);
 8002226:	6878      	ldr	r0, [r7, #4]
 8002228:	f000 f980 	bl	800252c <HAL_CAN_TxMailbox0AbortCallback>
        }
      }
    }

    /* Transmit Mailbox 1 management *****************************************/
    if ((tsrflags & CAN_TSR_RQCP1) != 0U)
 800222c:	69bb      	ldr	r3, [r7, #24]
 800222e:	f403 7380 	and.w	r3, r3, #256	; 0x100
 8002232:	2b00      	cmp	r3, #0
 8002234:	d024      	beq.n	8002280 <HAL_CAN_IRQHandler+0xec>
    {
      /* Clear the Transmission Complete flag (and TXOK1,ALST1,TERR1 bits) */
      __HAL_CAN_CLEAR_FLAG(hcan, CAN_FLAG_RQCP1);
 8002236:	687b      	ldr	r3, [r7, #4]
 8002238:	681b      	ldr	r3, [r3, #0]
 800223a:	f44f 7280 	mov.w	r2, #256	; 0x100
 800223e:	609a      	str	r2, [r3, #8]

      if ((tsrflags & CAN_TSR_TXOK1) != 0U)
 8002240:	69bb      	ldr	r3, [r7, #24]
 8002242:	f403 7300 	and.w	r3, r3, #512	; 0x200
 8002246:	2b00      	cmp	r3, #0
 8002248:	d003      	beq.n	8002252 <HAL_CAN_IRQHandler+0xbe>
#if USE_HAL_CAN_REGISTER_CALLBACKS == 1
        /* Call registered callback*/
        hcan->TxMailbox1CompleteCallback(hcan);
#else
        /* Call weak (surcharged) callback */
        HAL_CAN_TxMailbox1CompleteCallback(hcan);
 800224a:	6878      	ldr	r0, [r7, #4]
 800224c:	f000 f95c 	bl	8002508 <HAL_CAN_TxMailbox1CompleteCallback>
 8002250:	e016      	b.n	8002280 <HAL_CAN_IRQHandler+0xec>
#endif /* USE_HAL_CAN_REGISTER_CALLBACKS */
      }
      else
      {
        if ((tsrflags & CAN_TSR_ALST1) != 0U)
 8002252:	69bb      	ldr	r3, [r7, #24]
 8002254:	f403 6380 	and.w	r3, r3, #1024	; 0x400
 8002258:	2b00      	cmp	r3, #0
 800225a:	d004      	beq.n	8002266 <HAL_CAN_IRQHandler+0xd2>
        {
          /* Update error code */
          errorcode |= HAL_CAN_ERROR_TX_ALST1;
 800225c:	6a7b      	ldr	r3, [r7, #36]	; 0x24
 800225e:	f443 5300 	orr.w	r3, r3, #8192	; 0x2000
 8002262:	627b      	str	r3, [r7, #36]	; 0x24
 8002264:	e00c      	b.n	8002280 <HAL_CAN_IRQHandler+0xec>
        }
        else if ((tsrflags & CAN_TSR_TERR1) != 0U)
 8002266:	69bb      	ldr	r3, [r7, #24]
 8002268:	f403 6300 	and.w	r3, r3, #2048	; 0x800
 800226c:	2b00      	cmp	r3, #0
 800226e:	d004      	beq.n	800227a <HAL_CAN_IRQHandler+0xe6>
        {
          /* Update error code */
          errorcode |= HAL_CAN_ERROR_TX_TERR1;
 8002270:	6a7b      	ldr	r3, [r7, #36]	; 0x24
 8002272:	f443 4380 	orr.w	r3, r3, #16384	; 0x4000
 8002276:	627b      	str	r3, [r7, #36]	; 0x24
 8002278:	e002      	b.n	8002280 <HAL_CAN_IRQHandler+0xec>
#if USE_HAL_CAN_REGISTER_CALLBACKS == 1
          /* Call registered callback*/
          hcan->TxMailbox1AbortCallback(hcan);
#else
          /* Call weak (surcharged) callback */
          HAL_CAN_TxMailbox1AbortCallback(hcan);
 800227a:	6878      	ldr	r0, [r7, #4]
 800227c:	f000 f95f 	bl	800253e <HAL_CAN_TxMailbox1AbortCallback>
        }
      }
    }

    /* Transmit Mailbox 2 management *****************************************/
    if ((tsrflags & CAN_TSR_RQCP2) != 0U)
 8002280:	69bb      	ldr	r3, [r7, #24]
 8002282:	f403 3380 	and.w	r3, r3, #65536	; 0x10000
 8002286:	2b00      	cmp	r3, #0
 8002288:	d024      	beq.n	80022d4 <HAL_CAN_IRQHandler+0x140>
    {
      /* Clear the Transmission Complete flag (and TXOK2,ALST2,TERR2 bits) */
      __HAL_CAN_CLEAR_FLAG(hcan, CAN_FLAG_RQCP2);
 800228a:	687b      	ldr	r3, [r7, #4]
 800228c:	681b      	ldr	r3, [r3, #0]
 800228e:	f44f 3280 	mov.w	r2, #65536	; 0x10000
 8002292:	609a      	str	r2, [r3, #8]

      if ((tsrflags & CAN_TSR_TXOK2) != 0U)
 8002294:	69bb      	ldr	r3, [r7, #24]
 8002296:	f403 3300 	and.w	r3, r3, #131072	; 0x20000
 800229a:	2b00      	cmp	r3, #0
 800229c:	d003      	beq.n	80022a6 <HAL_CAN_IRQHandler+0x112>
#if USE_HAL_CAN_REGISTER_CALLBACKS == 1
        /* Call registered callback*/
        hcan->TxMailbox2CompleteCallback(hcan);
#else
        /* Call weak (surcharged) callback */
        HAL_CAN_TxMailbox2CompleteCallback(hcan);
 800229e:	6878      	ldr	r0, [r7, #4]
 80022a0:	f000 f93b 	bl	800251a <HAL_CAN_TxMailbox2CompleteCallback>
 80022a4:	e016      	b.n	80022d4 <HAL_CAN_IRQHandler+0x140>
#endif /* USE_HAL_CAN_REGISTER_CALLBACKS */
      }
      else
      {
        if ((tsrflags & CAN_TSR_ALST2) != 0U)
 80022a6:	69bb      	ldr	r3, [r7, #24]
 80022a8:	f403 2380 	and.w	r3, r3, #262144	; 0x40000
 80022ac:	2b00      	cmp	r3, #0
 80022ae:	d004      	beq.n	80022ba <HAL_CAN_IRQHandler+0x126>
        {
          /* Update error code */
          errorcode |= HAL_CAN_ERROR_TX_ALST2;
 80022b0:	6a7b      	ldr	r3, [r7, #36]	; 0x24
 80022b2:	f443 4300 	orr.w	r3, r3, #32768	; 0x8000
 80022b6:	627b      	str	r3, [r7, #36]	; 0x24
 80022b8:	e00c      	b.n	80022d4 <HAL_CAN_IRQHandler+0x140>
        }
        else if ((tsrflags & CAN_TSR_TERR2) != 0U)
 80022ba:	69bb      	ldr	r3, [r7, #24]
 80022bc:	f403 2300 	and.w	r3, r3, #524288	; 0x80000
 80022c0:	2b00      	cmp	r3, #0
 80022c2:	d004      	beq.n	80022ce <HAL_CAN_IRQHandler+0x13a>
        {
          /* Update error code */
          errorcode |= HAL_CAN_ERROR_TX_TERR2;
 80022c4:	6a7b      	ldr	r3, [r7, #36]	; 0x24
 80022c6:	f443 3380 	orr.w	r3, r3, #65536	; 0x10000
 80022ca:	627b      	str	r3, [r7, #36]	; 0x24
 80022cc:	e002      	b.n	80022d4 <HAL_CAN_IRQHandler+0x140>
#if USE_HAL_CAN_REGISTER_CALLBACKS == 1
          /* Call registered callback*/
          hcan->TxMailbox2AbortCallback(hcan);
#else
          /* Call weak (surcharged) callback */
          HAL_CAN_TxMailbox2AbortCallback(hcan);
 80022ce:	6878      	ldr	r0, [r7, #4]
 80022d0:	f000 f93e 	bl	8002550 <HAL_CAN_TxMailbox2AbortCallback>
      }
    }
  }

  /* Receive FIFO 0 overrun interrupt management *****************************/
  if ((interrupts & CAN_IT_RX_FIFO0_OVERRUN) != 0U)
 80022d4:	6a3b      	ldr	r3, [r7, #32]
 80022d6:	f003 0308 	and.w	r3, r3, #8
 80022da:	2b00      	cmp	r3, #0
 80022dc:	d00c      	beq.n	80022f8 <HAL_CAN_IRQHandler+0x164>
  {
    if ((rf0rflags & CAN_RF0R_FOVR0) != 0U)
 80022de:	697b      	ldr	r3, [r7, #20]
 80022e0:	f003 0310 	and.w	r3, r3, #16
 80022e4:	2b00      	cmp	r3, #0
 80022e6:	d007      	beq.n	80022f8 <HAL_CAN_IRQHandler+0x164>
    {
      /* Set CAN error code to Rx Fifo 0 overrun error */
      errorcode |= HAL_CAN_ERROR_RX_FOV0;
 80022e8:	6a7b      	ldr	r3, [r7, #36]	; 0x24
 80022ea:	f443 7300 	orr.w	r3, r3, #512	; 0x200
 80022ee:	627b      	str	r3, [r7, #36]	; 0x24

      /* Clear FIFO0 Overrun Flag */
      __HAL_CAN_CLEAR_FLAG(hcan, CAN_FLAG_FOV0);
 80022f0:	687b      	ldr	r3, [r7, #4]
 80022f2:	681b      	ldr	r3, [r3, #0]
 80022f4:	2210      	movs	r2, #16
 80022f6:	60da      	str	r2, [r3, #12]
    }
  }

  /* Receive FIFO 0 full interrupt management ********************************/
  if ((interrupts & CAN_IT_RX_FIFO0_FULL) != 0U)
 80022f8:	6a3b      	ldr	r3, [r7, #32]
 80022fa:	f003 0304 	and.w	r3, r3, #4
 80022fe:	2b00      	cmp	r3, #0
 8002300:	d00b      	beq.n	800231a <HAL_CAN_IRQHandler+0x186>
  {
    if ((rf0rflags & CAN_RF0R_FULL0) != 0U)
 8002302:	697b      	ldr	r3, [r7, #20]
 8002304:	f003 0308 	and.w	r3, r3, #8
 8002308:	2b00      	cmp	r3, #0
 800230a:	d006      	beq.n	800231a <HAL_CAN_IRQHandler+0x186>
    {
      /* Clear FIFO 0 full Flag */
      __HAL_CAN_CLEAR_FLAG(hcan, CAN_FLAG_FF0);
 800230c:	687b      	ldr	r3, [r7, #4]
 800230e:	681b      	ldr	r3, [r3, #0]
 8002310:	2208      	movs	r2, #8
 8002312:	60da      	str	r2, [r3, #12]
#if USE_HAL_CAN_REGISTER_CALLBACKS == 1
      /* Call registered callback*/
      hcan->RxFifo0FullCallback(hcan);
#else
      /* Call weak (surcharged) callback */
      HAL_CAN_RxFifo0FullCallback(hcan);
 8002314:	6878      	ldr	r0, [r7, #4]
 8002316:	f000 f924 	bl	8002562 <HAL_CAN_RxFifo0FullCallback>
#endif /* USE_HAL_CAN_REGISTER_CALLBACKS */
    }
  }

  /* Receive FIFO 0 message pending interrupt management *********************/
  if ((interrupts & CAN_IT_RX_FIFO0_MSG_PENDING) != 0U)
 800231a:	6a3b      	ldr	r3, [r7, #32]
 800231c:	f003 0302 	and.w	r3, r3, #2
 8002320:	2b00      	cmp	r3, #0
 8002322:	d009      	beq.n	8002338 <HAL_CAN_IRQHandler+0x1a4>
  {
    /* Check if message is still pending */
    if ((hcan->Instance->RF0R & CAN_RF0R_FMP0) != 0U)
 8002324:	687b      	ldr	r3, [r7, #4]
 8002326:	681b      	ldr	r3, [r3, #0]
 8002328:	68db      	ldr	r3, [r3, #12]
 800232a:	f003 0303 	and.w	r3, r3, #3
 800232e:	2b00      	cmp	r3, #0
 8002330:	d002      	beq.n	8002338 <HAL_CAN_IRQHandler+0x1a4>
#if USE_HAL_CAN_REGISTER_CALLBACKS == 1
      /* Call registered callback*/
      hcan->RxFifo0MsgPendingCallback(hcan);
#else
      /* Call weak (surcharged) callback */
      HAL_CAN_RxFifo0MsgPendingCallback(hcan);
 8002332:	6878      	ldr	r0, [r7, #4]
 8002334:	f7fe fb4e 	bl	80009d4 <HAL_CAN_RxFifo0MsgPendingCallback>
#endif /* USE_HAL_CAN_REGISTER_CALLBACKS */
    }
  }

  /* Receive FIFO 1 overrun interrupt management *****************************/
  if ((interrupts & CAN_IT_RX_FIFO1_OVERRUN) != 0U)
 8002338:	6a3b      	ldr	r3, [r7, #32]
 800233a:	f003 0340 	and.w	r3, r3, #64	; 0x40
 800233e:	2b00      	cmp	r3, #0
 8002340:	d00c      	beq.n	800235c <HAL_CAN_IRQHandler+0x1c8>
  {
    if ((rf1rflags & CAN_RF1R_FOVR1) != 0U)
 8002342:	693b      	ldr	r3, [r7, #16]
 8002344:	f003 0310 	and.w	r3, r3, #16
 8002348:	2b00      	cmp	r3, #0
 800234a:	d007      	beq.n	800235c <HAL_CAN_IRQHandler+0x1c8>
    {
      /* Set CAN error code to Rx Fifo 1 overrun error */
      errorcode |= HAL_CAN_ERROR_RX_FOV1;
 800234c:	6a7b      	ldr	r3, [r7, #36]	; 0x24
 800234e:	f443 6380 	orr.w	r3, r3, #1024	; 0x400
 8002352:	627b      	str	r3, [r7, #36]	; 0x24

      /* Clear FIFO1 Overrun Flag */
      __HAL_CAN_CLEAR_FLAG(hcan, CAN_FLAG_FOV1);
 8002354:	687b      	ldr	r3, [r7, #4]
 8002356:	681b      	ldr	r3, [r3, #0]
 8002358:	2210      	movs	r2, #16
 800235a:	611a      	str	r2, [r3, #16]
    }
  }

  /* Receive FIFO 1 full interrupt management ********************************/
  if ((interrupts & CAN_IT_RX_FIFO1_FULL) != 0U)
 800235c:	6a3b      	ldr	r3, [r7, #32]
 800235e:	f003 0320 	and.w	r3, r3, #32
 8002362:	2b00      	cmp	r3, #0
 8002364:	d00b      	beq.n	800237e <HAL_CAN_IRQHandler+0x1ea>
  {
    if ((rf1rflags & CAN_RF1R_FULL1) != 0U)
 8002366:	693b      	ldr	r3, [r7, #16]
 8002368:	f003 0308 	and.w	r3, r3, #8
 800236c:	2b00      	cmp	r3, #0
 800236e:	d006      	beq.n	800237e <HAL_CAN_IRQHandler+0x1ea>
    {
      /* Clear FIFO 1 full Flag */
      __HAL_CAN_CLEAR_FLAG(hcan, CAN_FLAG_FF1);
 8002370:	687b      	ldr	r3, [r7, #4]
 8002372:	681b      	ldr	r3, [r3, #0]
 8002374:	2208      	movs	r2, #8
 8002376:	611a      	str	r2, [r3, #16]
#if USE_HAL_CAN_REGISTER_CALLBACKS == 1
      /* Call registered callback*/
      hcan->RxFifo1FullCallback(hcan);
#else
      /* Call weak (surcharged) callback */
      HAL_CAN_RxFifo1FullCallback(hcan);
 8002378:	6878      	ldr	r0, [r7, #4]
 800237a:	f000 f904 	bl	8002586 <HAL_CAN_RxFifo1FullCallback>
#endif /* USE_HAL_CAN_REGISTER_CALLBACKS */
    }
  }

  /* Receive FIFO 1 message pending interrupt management *********************/
  if ((interrupts & CAN_IT_RX_FIFO1_MSG_PENDING) != 0U)
 800237e:	6a3b      	ldr	r3, [r7, #32]
 8002380:	f003 0310 	and.w	r3, r3, #16
 8002384:	2b00      	cmp	r3, #0
 8002386:	d009      	beq.n	800239c <HAL_CAN_IRQHandler+0x208>
  {
    /* Check if message is still pending */
    if ((hcan->Instance->RF1R & CAN_RF1R_FMP1) != 0U)
 8002388:	687b      	ldr	r3, [r7, #4]
 800238a:	681b      	ldr	r3, [r3, #0]
 800238c:	691b      	ldr	r3, [r3, #16]
 800238e:	f003 0303 	and.w	r3, r3, #3
 8002392:	2b00      	cmp	r3, #0
 8002394:	d002      	beq.n	800239c <HAL_CAN_IRQHandler+0x208>
#if USE_HAL_CAN_REGISTER_CALLBACKS == 1
      /* Call registered callback*/
      hcan->RxFifo1MsgPendingCallback(hcan);
#else
      /* Call weak (surcharged) callback */
      HAL_CAN_RxFifo1MsgPendingCallback(hcan);
 8002396:	6878      	ldr	r0, [r7, #4]
 8002398:	f000 f8ec 	bl	8002574 <HAL_CAN_RxFifo1MsgPendingCallback>
#endif /* USE_HAL_CAN_REGISTER_CALLBACKS */
    }
  }

  /* Sleep interrupt management *********************************************/
  if ((interrupts & CAN_IT_SLEEP_ACK) != 0U)
 800239c:	6a3b      	ldr	r3, [r7, #32]
 800239e:	f403 3300 	and.w	r3, r3, #131072	; 0x20000
 80023a2:	2b00      	cmp	r3, #0
 80023a4:	d00b      	beq.n	80023be <HAL_CAN_IRQHandler+0x22a>
  {
    if ((msrflags & CAN_MSR_SLAKI) != 0U)
 80023a6:	69fb      	ldr	r3, [r7, #28]
 80023a8:	f003 0310 	and.w	r3, r3, #16
 80023ac:	2b00      	cmp	r3, #0
 80023ae:	d006      	beq.n	80023be <HAL_CAN_IRQHandler+0x22a>
    {
      /* Clear Sleep interrupt Flag */
      __HAL_CAN_CLEAR_FLAG(hcan, CAN_FLAG_SLAKI);
 80023b0:	687b      	ldr	r3, [r7, #4]
 80023b2:	681b      	ldr	r3, [r3, #0]
 80023b4:	2210      	movs	r2, #16
 80023b6:	605a      	str	r2, [r3, #4]
#if USE_HAL_CAN_REGISTER_CALLBACKS == 1
      /* Call registered callback*/
      hcan->SleepCallback(hcan);
#else
      /* Call weak (surcharged) callback */
      HAL_CAN_SleepCallback(hcan);
 80023b8:	6878      	ldr	r0, [r7, #4]
 80023ba:	f000 f8ed 	bl	8002598 <HAL_CAN_SleepCallback>
#endif /* USE_HAL_CAN_REGISTER_CALLBACKS */
    }
  }

  /* WakeUp interrupt management *********************************************/
  if ((interrupts & CAN_IT_WAKEUP) != 0U)
 80023be:	6a3b      	ldr	r3, [r7, #32]
 80023c0:	f403 3380 	and.w	r3, r3, #65536	; 0x10000
 80023c4:	2b00      	cmp	r3, #0
 80023c6:	d00b      	beq.n	80023e0 <HAL_CAN_IRQHandler+0x24c>
  {
    if ((msrflags & CAN_MSR_WKUI) != 0U)
 80023c8:	69fb      	ldr	r3, [r7, #28]
 80023ca:	f003 0308 	and.w	r3, r3, #8
 80023ce:	2b00      	cmp	r3, #0
 80023d0:	d006      	beq.n	80023e0 <HAL_CAN_IRQHandler+0x24c>
    {
      /* Clear WakeUp Flag */
      __HAL_CAN_CLEAR_FLAG(hcan, CAN_FLAG_WKU);
 80023d2:	687b      	ldr	r3, [r7, #4]
 80023d4:	681b      	ldr	r3, [r3, #0]
 80023d6:	2208      	movs	r2, #8
 80023d8:	605a      	str	r2, [r3, #4]
#if USE_HAL_CAN_REGISTER_CALLBACKS == 1
      /* Call registered callback*/
      hcan->WakeUpFromRxMsgCallback(hcan);
#else
      /* Call weak (surcharged) callback */
      HAL_CAN_WakeUpFromRxMsgCallback(hcan);
 80023da:	6878      	ldr	r0, [r7, #4]
 80023dc:	f000 f8e5 	bl	80025aa <HAL_CAN_WakeUpFromRxMsgCallback>
#endif /* USE_HAL_CAN_REGISTER_CALLBACKS */
    }
  }

  /* Error interrupts management *********************************************/
  if ((interrupts & CAN_IT_ERROR) != 0U)
 80023e0:	6a3b      	ldr	r3, [r7, #32]
 80023e2:	f403 4300 	and.w	r3, r3, #32768	; 0x8000
 80023e6:	2b00      	cmp	r3, #0
 80023e8:	d075      	beq.n	80024d6 <HAL_CAN_IRQHandler+0x342>
  {
    if ((msrflags & CAN_MSR_ERRI) != 0U)
 80023ea:	69fb      	ldr	r3, [r7, #28]
 80023ec:	f003 0304 	and.w	r3, r3, #4
 80023f0:	2b00      	cmp	r3, #0
 80023f2:	d06c      	beq.n	80024ce <HAL_CAN_IRQHandler+0x33a>
    {
      /* Check Error Warning Flag */
      if (((interrupts & CAN_IT_ERROR_WARNING) != 0U) &&
 80023f4:	6a3b      	ldr	r3, [r7, #32]
 80023f6:	f403 7380 	and.w	r3, r3, #256	; 0x100
 80023fa:	2b00      	cmp	r3, #0
 80023fc:	d008      	beq.n	8002410 <HAL_CAN_IRQHandler+0x27c>
          ((esrflags & CAN_ESR_EWGF) != 0U))
 80023fe:	68fb      	ldr	r3, [r7, #12]
 8002400:	f003 0301 	and.w	r3, r3, #1
      if (((interrupts & CAN_IT_ERROR_WARNING) != 0U) &&
 8002404:	2b00      	cmp	r3, #0
 8002406:	d003      	beq.n	8002410 <HAL_CAN_IRQHandler+0x27c>
      {
        /* Set CAN error code to Error Warning */
        errorcode |= HAL_CAN_ERROR_EWG;
 8002408:	6a7b      	ldr	r3, [r7, #36]	; 0x24
 800240a:	f043 0301 	orr.w	r3, r3, #1
 800240e:	627b      	str	r3, [r7, #36]	; 0x24

        /* No need for clear of Error Warning Flag as read-only */
      }

      /* Check Error Passive Flag */
      if (((interrupts & CAN_IT_ERROR_PASSIVE) != 0U) &&
 8002410:	6a3b      	ldr	r3, [r7, #32]
 8002412:	f403 7300 	and.w	r3, r3, #512	; 0x200
 8002416:	2b00      	cmp	r3, #0
 8002418:	d008      	beq.n	800242c <HAL_CAN_IRQHandler+0x298>
          ((esrflags & CAN_ESR_EPVF) != 0U))
 800241a:	68fb      	ldr	r3, [r7, #12]
 800241c:	f003 0302 	and.w	r3, r3, #2
      if (((interrupts & CAN_IT_ERROR_PASSIVE) != 0U) &&
 8002420:	2b00      	cmp	r3, #0
 8002422:	d003      	beq.n	800242c <HAL_CAN_IRQHandler+0x298>
      {
        /* Set CAN error code to Error Passive */
        errorcode |= HAL_CAN_ERROR_EPV;
 8002424:	6a7b      	ldr	r3, [r7, #36]	; 0x24
 8002426:	f043 0302 	orr.w	r3, r3, #2
 800242a:	627b      	str	r3, [r7, #36]	; 0x24

        /* No need for clear of Error Passive Flag as read-only */
      }

      /* Check Bus-off Flag */
      if (((interrupts & CAN_IT_BUSOFF) != 0U) &&
 800242c:	6a3b      	ldr	r3, [r7, #32]
 800242e:	f403 6380 	and.w	r3, r3, #1024	; 0x400
 8002432:	2b00      	cmp	r3, #0
 8002434:	d008      	beq.n	8002448 <HAL_CAN_IRQHandler+0x2b4>
          ((esrflags & CAN_ESR_BOFF) != 0U))
 8002436:	68fb      	ldr	r3, [r7, #12]
 8002438:	f003 0304 	and.w	r3, r3, #4
      if (((interrupts & CAN_IT_BUSOFF) != 0U) &&
 800243c:	2b00      	cmp	r3, #0
 800243e:	d003      	beq.n	8002448 <HAL_CAN_IRQHandler+0x2b4>
      {
        /* Set CAN error code to Bus-Off */
        errorcode |= HAL_CAN_ERROR_BOF;
 8002440:	6a7b      	ldr	r3, [r7, #36]	; 0x24
 8002442:	f043 0304 	orr.w	r3, r3, #4
 8002446:	627b      	str	r3, [r7, #36]	; 0x24

        /* No need for clear of Error Bus-Off as read-only */
      }

      /* Check Last Error Code Flag */
      if (((interrupts & CAN_IT_LAST_ERROR_CODE) != 0U) &&
 8002448:	6a3b      	ldr	r3, [r7, #32]
 800244a:	f403 6300 	and.w	r3, r3, #2048	; 0x800
 800244e:	2b00      	cmp	r3, #0
 8002450:	d03d      	beq.n	80024ce <HAL_CAN_IRQHandler+0x33a>
          ((esrflags & CAN_ESR_LEC) != 0U))
 8002452:	68fb      	ldr	r3, [r7, #12]
 8002454:	f003 0370 	and.w	r3, r3, #112	; 0x70
      if (((interrupts & CAN_IT_LAST_ERROR_CODE) != 0U) &&
 8002458:	2b00      	cmp	r3, #0
 800245a:	d038      	beq.n	80024ce <HAL_CAN_IRQHandler+0x33a>
      {
        switch (esrflags & CAN_ESR_LEC)
 800245c:	68fb      	ldr	r3, [r7, #12]
 800245e:	f003 0370 	and.w	r3, r3, #112	; 0x70
 8002462:	2b30      	cmp	r3, #48	; 0x30
 8002464:	d017      	beq.n	8002496 <HAL_CAN_IRQHandler+0x302>
 8002466:	2b30      	cmp	r3, #48	; 0x30
 8002468:	d804      	bhi.n	8002474 <HAL_CAN_IRQHandler+0x2e0>
 800246a:	2b10      	cmp	r3, #16
 800246c:	d009      	beq.n	8002482 <HAL_CAN_IRQHandler+0x2ee>
 800246e:	2b20      	cmp	r3, #32
 8002470:	d00c      	beq.n	800248c <HAL_CAN_IRQHandler+0x2f8>
          case (CAN_ESR_LEC_2 | CAN_ESR_LEC_1):
            /* Set CAN error code to CRC error */
            errorcode |= HAL_CAN_ERROR_CRC;
            break;
          default:
            break;
 8002472:	e024      	b.n	80024be <HAL_CAN_IRQHandler+0x32a>
        switch (esrflags & CAN_ESR_LEC)
 8002474:	2b50      	cmp	r3, #80	; 0x50
 8002476:	d018      	beq.n	80024aa <HAL_CAN_IRQHandler+0x316>
 8002478:	2b60      	cmp	r3, #96	; 0x60
 800247a:	d01b      	beq.n	80024b4 <HAL_CAN_IRQHandler+0x320>
 800247c:	2b40      	cmp	r3, #64	; 0x40
 800247e:	d00f      	beq.n	80024a0 <HAL_CAN_IRQHandler+0x30c>
            break;
 8002480:	e01d      	b.n	80024be <HAL_CAN_IRQHandler+0x32a>
            errorcode |= HAL_CAN_ERROR_STF;
 8002482:	6a7b      	ldr	r3, [r7, #36]	; 0x24
 8002484:	f043 0308 	orr.w	r3, r3, #8
 8002488:	627b      	str	r3, [r7, #36]	; 0x24
            break;
 800248a:	e018      	b.n	80024be <HAL_CAN_IRQHandler+0x32a>
            errorcode |= HAL_CAN_ERROR_FOR;
 800248c:	6a7b      	ldr	r3, [r7, #36]	; 0x24
 800248e:	f043 0310 	orr.w	r3, r3, #16
 8002492:	627b      	str	r3, [r7, #36]	; 0x24
            break;
 8002494:	e013      	b.n	80024be <HAL_CAN_IRQHandler+0x32a>
            errorcode |= HAL_CAN_ERROR_ACK;
 8002496:	6a7b      	ldr	r3, [r7, #36]	; 0x24
 8002498:	f043 0320 	orr.w	r3, r3, #32
 800249c:	627b      	str	r3, [r7, #36]	; 0x24
            break;
 800249e:	e00e      	b.n	80024be <HAL_CAN_IRQHandler+0x32a>
            errorcode |= HAL_CAN_ERROR_BR;
 80024a0:	6a7b      	ldr	r3, [r7, #36]	; 0x24
 80024a2:	f043 0340 	orr.w	r3, r3, #64	; 0x40
 80024a6:	627b      	str	r3, [r7, #36]	; 0x24
            break;
 80024a8:	e009      	b.n	80024be <HAL_CAN_IRQHandler+0x32a>
            errorcode |= HAL_CAN_ERROR_BD;
 80024aa:	6a7b      	ldr	r3, [r7, #36]	; 0x24
 80024ac:	f043 0380 	orr.w	r3, r3, #128	; 0x80
 80024b0:	627b      	str	r3, [r7, #36]	; 0x24
            break;
 80024b2:	e004      	b.n	80024be <HAL_CAN_IRQHandler+0x32a>
            errorcode |= HAL_CAN_ERROR_CRC;
 80024b4:	6a7b      	ldr	r3, [r7, #36]	; 0x24
 80024b6:	f443 7380 	orr.w	r3, r3, #256	; 0x100
 80024ba:	627b      	str	r3, [r7, #36]	; 0x24
            break;
 80024bc:	bf00      	nop
        }

        /* Clear Last error code Flag */
        CLEAR_BIT(hcan->Instance->ESR, CAN_ESR_LEC);
 80024be:	687b      	ldr	r3, [r7, #4]
 80024c0:	681b      	ldr	r3, [r3, #0]
 80024c2:	699a      	ldr	r2, [r3, #24]
 80024c4:	687b      	ldr	r3, [r7, #4]
 80024c6:	681b      	ldr	r3, [r3, #0]
 80024c8:	f022 0270 	bic.w	r2, r2, #112	; 0x70
 80024cc:	619a      	str	r2, [r3, #24]
      }
    }

    /* Clear ERRI Flag */
    __HAL_CAN_CLEAR_FLAG(hcan, CAN_FLAG_ERRI);
 80024ce:	687b      	ldr	r3, [r7, #4]
 80024d0:	681b      	ldr	r3, [r3, #0]
 80024d2:	2204      	movs	r2, #4
 80024d4:	605a      	str	r2, [r3, #4]
  }

  /* Call the Error call Back in case of Errors */
  if (errorcode != HAL_CAN_ERROR_NONE)
 80024d6:	6a7b      	ldr	r3, [r7, #36]	; 0x24
 80024d8:	2b00      	cmp	r3, #0
 80024da:	d008      	beq.n	80024ee <HAL_CAN_IRQHandler+0x35a>
  {
    /* Update error code in handle */
    hcan->ErrorCode |= errorcode;
 80024dc:	687b      	ldr	r3, [r7, #4]
 80024de:	6a5a      	ldr	r2, [r3, #36]	; 0x24
 80024e0:	6a7b      	ldr	r3, [r7, #36]	; 0x24
 80024e2:	431a      	orrs	r2, r3
 80024e4:	687b      	ldr	r3, [r7, #4]
 80024e6:	625a      	str	r2, [r3, #36]	; 0x24
#if USE_HAL_CAN_REGISTER_CALLBACKS == 1
    /* Call registered callback*/
    hcan->ErrorCallback(hcan);
#else
    /* Call weak (surcharged) callback */
    HAL_CAN_ErrorCallback(hcan);
 80024e8:	6878      	ldr	r0, [r7, #4]
 80024ea:	f000 f867 	bl	80025bc <HAL_CAN_ErrorCallback>
#endif /* USE_HAL_CAN_REGISTER_CALLBACKS */
  }
}
 80024ee:	bf00      	nop
 80024f0:	3728      	adds	r7, #40	; 0x28
 80024f2:	46bd      	mov	sp, r7
 80024f4:	bd80      	pop	{r7, pc}

080024f6 <HAL_CAN_TxMailbox0CompleteCallback>:
  * @param  hcan pointer to a CAN_HandleTypeDef structure that contains
  *         the configuration information for the specified CAN.
  * @retval None
  */
__weak void HAL_CAN_TxMailbox0CompleteCallback(CAN_HandleTypeDef *hcan)
{
 80024f6:	b480      	push	{r7}
 80024f8:	b083      	sub	sp, #12
 80024fa:	af00      	add	r7, sp, #0
 80024fc:	6078      	str	r0, [r7, #4]

  /* NOTE : This function Should not be modified, when the callback is needed,
            the HAL_CAN_TxMailbox0CompleteCallback could be implemented in the
            user file
   */
}
 80024fe:	bf00      	nop
 8002500:	370c      	adds	r7, #12
 8002502:	46bd      	mov	sp, r7
 8002504:	bc80      	pop	{r7}
 8002506:	4770      	bx	lr

08002508 <HAL_CAN_TxMailbox1CompleteCallback>:
  * @param  hcan pointer to a CAN_HandleTypeDef structure that contains
  *         the configuration information for the specified CAN.
  * @retval None
  */
__weak void HAL_CAN_TxMailbox1CompleteCallback(CAN_HandleTypeDef *hcan)
{
 8002508:	b480      	push	{r7}
 800250a:	b083      	sub	sp, #12
 800250c:	af00      	add	r7, sp, #0
 800250e:	6078      	str	r0, [r7, #4]

  /* NOTE : This function Should not be modified, when the callback is needed,
            the HAL_CAN_TxMailbox1CompleteCallback could be implemented in the
            user file
   */
}
 8002510:	bf00      	nop
 8002512:	370c      	adds	r7, #12
 8002514:	46bd      	mov	sp, r7
 8002516:	bc80      	pop	{r7}
 8002518:	4770      	bx	lr

0800251a <HAL_CAN_TxMailbox2CompleteCallback>:
  * @param  hcan pointer to a CAN_HandleTypeDef structure that contains
  *         the configuration information for the specified CAN.
  * @retval None
  */
__weak void HAL_CAN_TxMailbox2CompleteCallback(CAN_HandleTypeDef *hcan)
{
 800251a:	b480      	push	{r7}
 800251c:	b083      	sub	sp, #12
 800251e:	af00      	add	r7, sp, #0
 8002520:	6078      	str	r0, [r7, #4]

  /* NOTE : This function Should not be modified, when the callback is needed,
            the HAL_CAN_TxMailbox2CompleteCallback could be implemented in the
            user file
   */
}
 8002522:	bf00      	nop
 8002524:	370c      	adds	r7, #12
 8002526:	46bd      	mov	sp, r7
 8002528:	bc80      	pop	{r7}
 800252a:	4770      	bx	lr

0800252c <HAL_CAN_TxMailbox0AbortCallback>:
  * @param  hcan pointer to an CAN_HandleTypeDef structure that contains
  *         the configuration information for the specified CAN.
  * @retval None
  */
__weak void HAL_CAN_TxMailbox0AbortCallback(CAN_HandleTypeDef *hcan)
{
 800252c:	b480      	push	{r7}
 800252e:	b083      	sub	sp, #12
 8002530:	af00      	add	r7, sp, #0
 8002532:	6078      	str	r0, [r7, #4]

  /* NOTE : This function Should not be modified, when the callback is needed,
            the HAL_CAN_TxMailbox0AbortCallback could be implemented in the
            user file
   */
}
 8002534:	bf00      	nop
 8002536:	370c      	adds	r7, #12
 8002538:	46bd      	mov	sp, r7
 800253a:	bc80      	pop	{r7}
 800253c:	4770      	bx	lr

0800253e <HAL_CAN_TxMailbox1AbortCallback>:
  * @param  hcan pointer to an CAN_HandleTypeDef structure that contains
  *         the configuration information for the specified CAN.
  * @retval None
  */
__weak void HAL_CAN_TxMailbox1AbortCallback(CAN_HandleTypeDef *hcan)
{
 800253e:	b480      	push	{r7}
 8002540:	b083      	sub	sp, #12
 8002542:	af00      	add	r7, sp, #0
 8002544:	6078      	str	r0, [r7, #4]

  /* NOTE : This function Should not be modified, when the callback is needed,
            the HAL_CAN_TxMailbox1AbortCallback could be implemented in the
            user file
   */
}
 8002546:	bf00      	nop
 8002548:	370c      	adds	r7, #12
 800254a:	46bd      	mov	sp, r7
 800254c:	bc80      	pop	{r7}
 800254e:	4770      	bx	lr

08002550 <HAL_CAN_TxMailbox2AbortCallback>:
  * @param  hcan pointer to an CAN_HandleTypeDef structure that contains
  *         the configuration information for the specified CAN.
  * @retval None
  */
__weak void HAL_CAN_TxMailbox2AbortCallback(CAN_HandleTypeDef *hcan)
{
 8002550:	b480      	push	{r7}
 8002552:	b083      	sub	sp, #12
 8002554:	af00      	add	r7, sp, #0
 8002556:	6078      	str	r0, [r7, #4]

  /* NOTE : This function Should not be modified, when the callback is needed,
            the HAL_CAN_TxMailbox2AbortCallback could be implemented in the
            user file
   */
}
 8002558:	bf00      	nop
 800255a:	370c      	adds	r7, #12
 800255c:	46bd      	mov	sp, r7
 800255e:	bc80      	pop	{r7}
 8002560:	4770      	bx	lr

08002562 <HAL_CAN_RxFifo0FullCallback>:
  * @param  hcan pointer to a CAN_HandleTypeDef structure that contains
  *         the configuration information for the specified CAN.
  * @retval None
  */
__weak void HAL_CAN_RxFifo0FullCallback(CAN_HandleTypeDef *hcan)
{
 8002562:	b480      	push	{r7}
 8002564:	b083      	sub	sp, #12
 8002566:	af00      	add	r7, sp, #0
 8002568:	6078      	str	r0, [r7, #4]

  /* NOTE : This function Should not be modified, when the callback is needed,
            the HAL_CAN_RxFifo0FullCallback could be implemented in the user
            file
   */
}
 800256a:	bf00      	nop
 800256c:	370c      	adds	r7, #12
 800256e:	46bd      	mov	sp, r7
 8002570:	bc80      	pop	{r7}
 8002572:	4770      	bx	lr

08002574 <HAL_CAN_RxFifo1MsgPendingCallback>:
  * @param  hcan pointer to a CAN_HandleTypeDef structure that contains
  *         the configuration information for the specified CAN.
  * @retval None
  */
__weak void HAL_CAN_RxFifo1MsgPendingCallback(CAN_HandleTypeDef *hcan)
{
 8002574:	b480      	push	{r7}
 8002576:	b083      	sub	sp, #12
 8002578:	af00      	add	r7, sp, #0
 800257a:	6078      	str	r0, [r7, #4]

  /* NOTE : This function Should not be modified, when the callback is needed,
            the HAL_CAN_RxFifo1MsgPendingCallback could be implemented in the
            user file
   */
}
 800257c:	bf00      	nop
 800257e:	370c      	adds	r7, #12
 8002580:	46bd      	mov	sp, r7
 8002582:	bc80      	pop	{r7}
 8002584:	4770      	bx	lr

08002586 <HAL_CAN_RxFifo1FullCallback>:
  * @param  hcan pointer to a CAN_HandleTypeDef structure that contains
  *         the configuration information for the specified CAN.
  * @retval None
  */
__weak void HAL_CAN_RxFifo1FullCallback(CAN_HandleTypeDef *hcan)
{
 8002586:	b480      	push	{r7}
 8002588:	b083      	sub	sp, #12
 800258a:	af00      	add	r7, sp, #0
 800258c:	6078      	str	r0, [r7, #4]

  /* NOTE : This function Should not be modified, when the callback is needed,
            the HAL_CAN_RxFifo1FullCallback could be implemented in the user
            file
   */
}
 800258e:	bf00      	nop
 8002590:	370c      	adds	r7, #12
 8002592:	46bd      	mov	sp, r7
 8002594:	bc80      	pop	{r7}
 8002596:	4770      	bx	lr

08002598 <HAL_CAN_SleepCallback>:
  * @param  hcan pointer to a CAN_HandleTypeDef structure that contains
  *         the configuration information for the specified CAN.
  * @retval None
  */
__weak void HAL_CAN_SleepCallback(CAN_HandleTypeDef *hcan)
{
 8002598:	b480      	push	{r7}
 800259a:	b083      	sub	sp, #12
 800259c:	af00      	add	r7, sp, #0
 800259e:	6078      	str	r0, [r7, #4]
  UNUSED(hcan);

  /* NOTE : This function Should not be modified, when the callback is needed,
            the HAL_CAN_SleepCallback could be implemented in the user file
   */
}
 80025a0:	bf00      	nop
 80025a2:	370c      	adds	r7, #12
 80025a4:	46bd      	mov	sp, r7
 80025a6:	bc80      	pop	{r7}
 80025a8:	4770      	bx	lr

080025aa <HAL_CAN_WakeUpFromRxMsgCallback>:
  * @param  hcan pointer to a CAN_HandleTypeDef structure that contains
  *         the configuration information for the specified CAN.
  * @retval None
  */
__weak void HAL_CAN_WakeUpFromRxMsgCallback(CAN_HandleTypeDef *hcan)
{
 80025aa:	b480      	push	{r7}
 80025ac:	b083      	sub	sp, #12
 80025ae:	af00      	add	r7, sp, #0
 80025b0:	6078      	str	r0, [r7, #4]

  /* NOTE : This function Should not be modified, when the callback is needed,
            the HAL_CAN_WakeUpFromRxMsgCallback could be implemented in the
            user file
   */
}
 80025b2:	bf00      	nop
 80025b4:	370c      	adds	r7, #12
 80025b6:	46bd      	mov	sp, r7
 80025b8:	bc80      	pop	{r7}
 80025ba:	4770      	bx	lr

080025bc <HAL_CAN_ErrorCallback>:
  * @param  hcan pointer to a CAN_HandleTypeDef structure that contains
  *         the configuration information for the specified CAN.
  * @retval None
  */
__weak void HAL_CAN_ErrorCallback(CAN_HandleTypeDef *hcan)
{
 80025bc:	b480      	push	{r7}
 80025be:	b083      	sub	sp, #12
 80025c0:	af00      	add	r7, sp, #0
 80025c2:	6078      	str	r0, [r7, #4]
  UNUSED(hcan);

  /* NOTE : This function Should not be modified, when the callback is needed,
            the HAL_CAN_ErrorCallback could be implemented in the user file
   */
}
 80025c4:	bf00      	nop
 80025c6:	370c      	adds	r7, #12
 80025c8:	46bd      	mov	sp, r7
 80025ca:	bc80      	pop	{r7}
 80025cc:	4770      	bx	lr
	...

080025d0 <__NVIC_SetPriorityGrouping>:
           In case of a conflict between priority grouping and available
           priority bits (__NVIC_PRIO_BITS), the smallest possible priority group is set.
  \param [in]      PriorityGroup  Priority grouping field.
 */
__STATIC_INLINE void __NVIC_SetPriorityGrouping(uint32_t PriorityGroup)
{
 80025d0:	b480      	push	{r7}
 80025d2:	b085      	sub	sp, #20
 80025d4:	af00      	add	r7, sp, #0
 80025d6:	6078      	str	r0, [r7, #4]
  uint32_t reg_value;
  uint32_t PriorityGroupTmp = (PriorityGroup & (uint32_t)0x07UL);             /* only values 0..7 are used          */
 80025d8:	687b      	ldr	r3, [r7, #4]
 80025da:	f003 0307 	and.w	r3, r3, #7
 80025de:	60fb      	str	r3, [r7, #12]

  reg_value  =  SCB->AIRCR;                                                   /* read old register configuration    */
 80025e0:	4b0c      	ldr	r3, [pc, #48]	; (8002614 <__NVIC_SetPriorityGrouping+0x44>)
 80025e2:	68db      	ldr	r3, [r3, #12]
 80025e4:	60bb      	str	r3, [r7, #8]
  reg_value &= ~((uint32_t)(SCB_AIRCR_VECTKEY_Msk | SCB_AIRCR_PRIGROUP_Msk)); /* clear bits to change               */
 80025e6:	68ba      	ldr	r2, [r7, #8]
 80025e8:	f64f 03ff 	movw	r3, #63743	; 0xf8ff
 80025ec:	4013      	ands	r3, r2
 80025ee:	60bb      	str	r3, [r7, #8]
  reg_value  =  (reg_value                                   |
                ((uint32_t)0x5FAUL << SCB_AIRCR_VECTKEY_Pos) |
                (PriorityGroupTmp << SCB_AIRCR_PRIGROUP_Pos) );               /* Insert write key and priority group */
 80025f0:	68fb      	ldr	r3, [r7, #12]
 80025f2:	021a      	lsls	r2, r3, #8
                ((uint32_t)0x5FAUL << SCB_AIRCR_VECTKEY_Pos) |
 80025f4:	68bb      	ldr	r3, [r7, #8]
 80025f6:	4313      	orrs	r3, r2
  reg_value  =  (reg_value                                   |
 80025f8:	f043 63bf 	orr.w	r3, r3, #100139008	; 0x5f80000
 80025fc:	f443 3300 	orr.w	r3, r3, #131072	; 0x20000
 8002600:	60bb      	str	r3, [r7, #8]
  SCB->AIRCR =  reg_value;
 8002602:	4a04      	ldr	r2, [pc, #16]	; (8002614 <__NVIC_SetPriorityGrouping+0x44>)
 8002604:	68bb      	ldr	r3, [r7, #8]
 8002606:	60d3      	str	r3, [r2, #12]
}
 8002608:	bf00      	nop
 800260a:	3714      	adds	r7, #20
 800260c:	46bd      	mov	sp, r7
 800260e:	bc80      	pop	{r7}
 8002610:	4770      	bx	lr
 8002612:	bf00      	nop
 8002614:	e000ed00 	.word	0xe000ed00

08002618 <__NVIC_GetPriorityGrouping>:
  \brief   Get Priority Grouping
  \details Reads the priority grouping field from the NVIC Interrupt Controller.
  \return                Priority grouping field (SCB->AIRCR [10:8] PRIGROUP field).
 */
__STATIC_INLINE uint32_t __NVIC_GetPriorityGrouping(void)
{
 8002618:	b480      	push	{r7}
 800261a:	af00      	add	r7, sp, #0
  return ((uint32_t)((SCB->AIRCR & SCB_AIRCR_PRIGROUP_Msk) >> SCB_AIRCR_PRIGROUP_Pos));
 800261c:	4b04      	ldr	r3, [pc, #16]	; (8002630 <__NVIC_GetPriorityGrouping+0x18>)
 800261e:	68db      	ldr	r3, [r3, #12]
 8002620:	0a1b      	lsrs	r3, r3, #8
 8002622:	f003 0307 	and.w	r3, r3, #7
}
 8002626:	4618      	mov	r0, r3
 8002628:	46bd      	mov	sp, r7
 800262a:	bc80      	pop	{r7}
 800262c:	4770      	bx	lr
 800262e:	bf00      	nop
 8002630:	e000ed00 	.word	0xe000ed00

08002634 <__NVIC_EnableIRQ>:
  \details Enables a device specific interrupt in the NVIC interrupt controller.
  \param [in]      IRQn  Device specific interrupt number.
  \note    IRQn must not be negative.
 */
__STATIC_INLINE void __NVIC_EnableIRQ(IRQn_Type IRQn)
{
 8002634:	b480      	push	{r7}
 8002636:	b083      	sub	sp, #12
 8002638:	af00      	add	r7, sp, #0
 800263a:	4603      	mov	r3, r0
 800263c:	71fb      	strb	r3, [r7, #7]
  if ((int32_t)(IRQn) >= 0)
 800263e:	f997 3007 	ldrsb.w	r3, [r7, #7]
 8002642:	2b00      	cmp	r3, #0
 8002644:	db0b      	blt.n	800265e <__NVIC_EnableIRQ+0x2a>
  {
    NVIC->ISER[(((uint32_t)IRQn) >> 5UL)] = (uint32_t)(1UL << (((uint32_t)IRQn) & 0x1FUL));
 8002646:	79fb      	ldrb	r3, [r7, #7]
 8002648:	f003 021f 	and.w	r2, r3, #31
 800264c:	4906      	ldr	r1, [pc, #24]	; (8002668 <__NVIC_EnableIRQ+0x34>)
 800264e:	f997 3007 	ldrsb.w	r3, [r7, #7]
 8002652:	095b      	lsrs	r3, r3, #5
 8002654:	2001      	movs	r0, #1
 8002656:	fa00 f202 	lsl.w	r2, r0, r2
 800265a:	f841 2023 	str.w	r2, [r1, r3, lsl #2]
  }
}
 800265e:	bf00      	nop
 8002660:	370c      	adds	r7, #12
 8002662:	46bd      	mov	sp, r7
 8002664:	bc80      	pop	{r7}
 8002666:	4770      	bx	lr
 8002668:	e000e100 	.word	0xe000e100

0800266c <__NVIC_SetPriority>:
  \param [in]      IRQn  Interrupt number.
  \param [in]  priority  Priority to set.
  \note    The priority cannot be set for every processor exception.
 */
__STATIC_INLINE void __NVIC_SetPriority(IRQn_Type IRQn, uint32_t priority)
{
 800266c:	b480      	push	{r7}
 800266e:	b083      	sub	sp, #12
 8002670:	af00      	add	r7, sp, #0
 8002672:	4603      	mov	r3, r0
 8002674:	6039      	str	r1, [r7, #0]
 8002676:	71fb      	strb	r3, [r7, #7]
  if ((int32_t)(IRQn) >= 0)
 8002678:	f997 3007 	ldrsb.w	r3, [r7, #7]
 800267c:	2b00      	cmp	r3, #0
 800267e:	db0a      	blt.n	8002696 <__NVIC_SetPriority+0x2a>
  {
    NVIC->IP[((uint32_t)IRQn)]               = (uint8_t)((priority << (8U - __NVIC_PRIO_BITS)) & (uint32_t)0xFFUL);
 8002680:	683b      	ldr	r3, [r7, #0]
 8002682:	b2da      	uxtb	r2, r3
 8002684:	490c      	ldr	r1, [pc, #48]	; (80026b8 <__NVIC_SetPriority+0x4c>)
 8002686:	f997 3007 	ldrsb.w	r3, [r7, #7]
 800268a:	0112      	lsls	r2, r2, #4
 800268c:	b2d2      	uxtb	r2, r2
 800268e:	440b      	add	r3, r1
 8002690:	f883 2300 	strb.w	r2, [r3, #768]	; 0x300
  }
  else
  {
    SCB->SHP[(((uint32_t)IRQn) & 0xFUL)-4UL] = (uint8_t)((priority << (8U - __NVIC_PRIO_BITS)) & (uint32_t)0xFFUL);
  }
}
 8002694:	e00a      	b.n	80026ac <__NVIC_SetPriority+0x40>
    SCB->SHP[(((uint32_t)IRQn) & 0xFUL)-4UL] = (uint8_t)((priority << (8U - __NVIC_PRIO_BITS)) & (uint32_t)0xFFUL);
 8002696:	683b      	ldr	r3, [r7, #0]
 8002698:	b2da      	uxtb	r2, r3
 800269a:	4908      	ldr	r1, [pc, #32]	; (80026bc <__NVIC_SetPriority+0x50>)
 800269c:	79fb      	ldrb	r3, [r7, #7]
 800269e:	f003 030f 	and.w	r3, r3, #15
 80026a2:	3b04      	subs	r3, #4
 80026a4:	0112      	lsls	r2, r2, #4
 80026a6:	b2d2      	uxtb	r2, r2
 80026a8:	440b      	add	r3, r1
 80026aa:	761a      	strb	r2, [r3, #24]
}
 80026ac:	bf00      	nop
 80026ae:	370c      	adds	r7, #12
 80026b0:	46bd      	mov	sp, r7
 80026b2:	bc80      	pop	{r7}
 80026b4:	4770      	bx	lr
 80026b6:	bf00      	nop
 80026b8:	e000e100 	.word	0xe000e100
 80026bc:	e000ed00 	.word	0xe000ed00

080026c0 <NVIC_EncodePriority>:
  \param [in]   PreemptPriority  Preemptive priority value (starting from 0).
  \param [in]       SubPriority  Subpriority value (starting from 0).
  \return                        Encoded priority. Value can be used in the function \ref NVIC_SetPriority().
 */
__STATIC_INLINE uint32_t NVIC_EncodePriority (uint32_t PriorityGroup, uint32_t PreemptPriority, uint32_t SubPriority)
{
 80026c0:	b480      	push	{r7}
 80026c2:	b089      	sub	sp, #36	; 0x24
 80026c4:	af00      	add	r7, sp, #0
 80026c6:	60f8      	str	r0, [r7, #12]
 80026c8:	60b9      	str	r1, [r7, #8]
 80026ca:	607a      	str	r2, [r7, #4]
  uint32_t PriorityGroupTmp = (PriorityGroup & (uint32_t)0x07UL);   /* only values 0..7 are used          */
 80026cc:	68fb      	ldr	r3, [r7, #12]
 80026ce:	f003 0307 	and.w	r3, r3, #7
 80026d2:	61fb      	str	r3, [r7, #28]
  uint32_t PreemptPriorityBits;
  uint32_t SubPriorityBits;

  PreemptPriorityBits = ((7UL - PriorityGroupTmp) > (uint32_t)(__NVIC_PRIO_BITS)) ? (uint32_t)(__NVIC_PRIO_BITS) : (uint32_t)(7UL - PriorityGroupTmp);
 80026d4:	69fb      	ldr	r3, [r7, #28]
 80026d6:	f1c3 0307 	rsb	r3, r3, #7
 80026da:	2b04      	cmp	r3, #4
 80026dc:	bf28      	it	cs
 80026de:	2304      	movcs	r3, #4
 80026e0:	61bb      	str	r3, [r7, #24]
  SubPriorityBits     = ((PriorityGroupTmp + (uint32_t)(__NVIC_PRIO_BITS)) < (uint32_t)7UL) ? (uint32_t)0UL : (uint32_t)((PriorityGroupTmp - 7UL) + (uint32_t)(__NVIC_PRIO_BITS));
 80026e2:	69fb      	ldr	r3, [r7, #28]
 80026e4:	3304      	adds	r3, #4
 80026e6:	2b06      	cmp	r3, #6
 80026e8:	d902      	bls.n	80026f0 <NVIC_EncodePriority+0x30>
 80026ea:	69fb      	ldr	r3, [r7, #28]
 80026ec:	3b03      	subs	r3, #3
 80026ee:	e000      	b.n	80026f2 <NVIC_EncodePriority+0x32>
 80026f0:	2300      	movs	r3, #0
 80026f2:	617b      	str	r3, [r7, #20]

  return (
           ((PreemptPriority & (uint32_t)((1UL << (PreemptPriorityBits)) - 1UL)) << SubPriorityBits) |
 80026f4:	f04f 32ff 	mov.w	r2, #4294967295
 80026f8:	69bb      	ldr	r3, [r7, #24]
 80026fa:	fa02 f303 	lsl.w	r3, r2, r3
 80026fe:	43da      	mvns	r2, r3
 8002700:	68bb      	ldr	r3, [r7, #8]
 8002702:	401a      	ands	r2, r3
 8002704:	697b      	ldr	r3, [r7, #20]
 8002706:	409a      	lsls	r2, r3
           ((SubPriority     & (uint32_t)((1UL << (SubPriorityBits    )) - 1UL)))
 8002708:	f04f 31ff 	mov.w	r1, #4294967295
 800270c:	697b      	ldr	r3, [r7, #20]
 800270e:	fa01 f303 	lsl.w	r3, r1, r3
 8002712:	43d9      	mvns	r1, r3
 8002714:	687b      	ldr	r3, [r7, #4]
 8002716:	400b      	ands	r3, r1
           ((PreemptPriority & (uint32_t)((1UL << (PreemptPriorityBits)) - 1UL)) << SubPriorityBits) |
 8002718:	4313      	orrs	r3, r2
         );
}
 800271a:	4618      	mov	r0, r3
 800271c:	3724      	adds	r7, #36	; 0x24
 800271e:	46bd      	mov	sp, r7
 8002720:	bc80      	pop	{r7}
 8002722:	4770      	bx	lr

08002724 <HAL_NVIC_SetPriorityGrouping>:
  * @note   When the NVIC_PriorityGroup_0 is selected, IRQ preemption is no more possible. 
  *         The pending IRQ priority will be managed only by the subpriority. 
  * @retval None
  */
void HAL_NVIC_SetPriorityGrouping(uint32_t PriorityGroup)
{
 8002724:	b580      	push	{r7, lr}
 8002726:	b082      	sub	sp, #8
 8002728:	af00      	add	r7, sp, #0
 800272a:	6078      	str	r0, [r7, #4]
  /* Check the parameters */
  assert_param(IS_NVIC_PRIORITY_GROUP(PriorityGroup));
  
  /* Set the PRIGROUP[10:8] bits according to the PriorityGroup parameter value */
  NVIC_SetPriorityGrouping(PriorityGroup);
 800272c:	6878      	ldr	r0, [r7, #4]
 800272e:	f7ff ff4f 	bl	80025d0 <__NVIC_SetPriorityGrouping>
}
 8002732:	bf00      	nop
 8002734:	3708      	adds	r7, #8
 8002736:	46bd      	mov	sp, r7
 8002738:	bd80      	pop	{r7, pc}

0800273a <HAL_NVIC_SetPriority>:
  *         This parameter can be a value between 0 and 15
  *         A lower priority value indicates a higher priority.          
  * @retval None
  */
void HAL_NVIC_SetPriority(IRQn_Type IRQn, uint32_t PreemptPriority, uint32_t SubPriority)
{ 
 800273a:	b580      	push	{r7, lr}
 800273c:	b086      	sub	sp, #24
 800273e:	af00      	add	r7, sp, #0
 8002740:	4603      	mov	r3, r0
 8002742:	60b9      	str	r1, [r7, #8]
 8002744:	607a      	str	r2, [r7, #4]
 8002746:	73fb      	strb	r3, [r7, #15]
  uint32_t prioritygroup = 0x00U;
 8002748:	2300      	movs	r3, #0
 800274a:	617b      	str	r3, [r7, #20]
  
  /* Check the parameters */
  assert_param(IS_NVIC_SUB_PRIORITY(SubPriority));
  assert_param(IS_NVIC_PREEMPTION_PRIORITY(PreemptPriority));
  
  prioritygroup = NVIC_GetPriorityGrouping();
 800274c:	f7ff ff64 	bl	8002618 <__NVIC_GetPriorityGrouping>
 8002750:	6178      	str	r0, [r7, #20]
  
  NVIC_SetPriority(IRQn, NVIC_EncodePriority(prioritygroup, PreemptPriority, SubPriority));
 8002752:	687a      	ldr	r2, [r7, #4]
 8002754:	68b9      	ldr	r1, [r7, #8]
 8002756:	6978      	ldr	r0, [r7, #20]
 8002758:	f7ff ffb2 	bl	80026c0 <NVIC_EncodePriority>
 800275c:	4602      	mov	r2, r0
 800275e:	f997 300f 	ldrsb.w	r3, [r7, #15]
 8002762:	4611      	mov	r1, r2
 8002764:	4618      	mov	r0, r3
 8002766:	f7ff ff81 	bl	800266c <__NVIC_SetPriority>
}
 800276a:	bf00      	nop
 800276c:	3718      	adds	r7, #24
 800276e:	46bd      	mov	sp, r7
 8002770:	bd80      	pop	{r7, pc}

08002772 <HAL_NVIC_EnableIRQ>:
  *         This parameter can be an enumerator of IRQn_Type enumeration
  *         (For the complete STM32 Devices IRQ Channels list, please refer to the appropriate CMSIS device file (stm32f10xxx.h))
  * @retval None
  */
void HAL_NVIC_EnableIRQ(IRQn_Type IRQn)
{
 8002772:	b580      	push	{r7, lr}
 8002774:	b082      	sub	sp, #8
 8002776:	af00      	add	r7, sp, #0
 8002778:	4603      	mov	r3, r0
 800277a:	71fb      	strb	r3, [r7, #7]
  /* Check the parameters */
  assert_param(IS_NVIC_DEVICE_IRQ(IRQn));

  /* Enable interrupt */
  NVIC_EnableIRQ(IRQn);
 800277c:	f997 3007 	ldrsb.w	r3, [r7, #7]
 8002780:	4618      	mov	r0, r3
 8002782:	f7ff ff57 	bl	8002634 <__NVIC_EnableIRQ>
}
 8002786:	bf00      	nop
 8002788:	3708      	adds	r7, #8
 800278a:	46bd      	mov	sp, r7
 800278c:	bd80      	pop	{r7, pc}
	...

08002790 <HAL_DMA_Init>:
  * @param  hdma: Pointer to a DMA_HandleTypeDef structure that contains
  *               the configuration information for the specified DMA Channel.
  * @retval HAL status
  */
HAL_StatusTypeDef HAL_DMA_Init(DMA_HandleTypeDef *hdma)
{
 8002790:	b480      	push	{r7}
 8002792:	b085      	sub	sp, #20
 8002794:	af00      	add	r7, sp, #0
 8002796:	6078      	str	r0, [r7, #4]
  uint32_t tmp = 0U;
 8002798:	2300      	movs	r3, #0
 800279a:	60fb      	str	r3, [r7, #12]

  /* Check the DMA handle allocation */
  if(hdma == NULL)
 800279c:	687b      	ldr	r3, [r7, #4]
 800279e:	2b00      	cmp	r3, #0
 80027a0:	d101      	bne.n	80027a6 <HAL_DMA_Init+0x16>
  {
    return HAL_ERROR;
 80027a2:	2301      	movs	r3, #1
 80027a4:	e043      	b.n	800282e <HAL_DMA_Init+0x9e>
    hdma->ChannelIndex = (((uint32_t)hdma->Instance - (uint32_t)DMA2_Channel1) / ((uint32_t)DMA2_Channel2 - (uint32_t)DMA2_Channel1)) << 2;
    hdma->DmaBaseAddress = DMA2;
  }
#else
  /* DMA1 */
  hdma->ChannelIndex = (((uint32_t)hdma->Instance - (uint32_t)DMA1_Channel1) / ((uint32_t)DMA1_Channel2 - (uint32_t)DMA1_Channel1)) << 2;
 80027a6:	687b      	ldr	r3, [r7, #4]
 80027a8:	681b      	ldr	r3, [r3, #0]
 80027aa:	461a      	mov	r2, r3
 80027ac:	4b22      	ldr	r3, [pc, #136]	; (8002838 <HAL_DMA_Init+0xa8>)
 80027ae:	4413      	add	r3, r2
 80027b0:	4a22      	ldr	r2, [pc, #136]	; (800283c <HAL_DMA_Init+0xac>)
 80027b2:	fba2 2303 	umull	r2, r3, r2, r3
 80027b6:	091b      	lsrs	r3, r3, #4
 80027b8:	009a      	lsls	r2, r3, #2
 80027ba:	687b      	ldr	r3, [r7, #4]
 80027bc:	641a      	str	r2, [r3, #64]	; 0x40
  hdma->DmaBaseAddress = DMA1;
 80027be:	687b      	ldr	r3, [r7, #4]
 80027c0:	4a1f      	ldr	r2, [pc, #124]	; (8002840 <HAL_DMA_Init+0xb0>)
 80027c2:	63da      	str	r2, [r3, #60]	; 0x3c
#endif /* DMA2 */

  /* Change DMA peripheral state */
  hdma->State = HAL_DMA_STATE_BUSY;
 80027c4:	687b      	ldr	r3, [r7, #4]
 80027c6:	2202      	movs	r2, #2
 80027c8:	f883 2021 	strb.w	r2, [r3, #33]	; 0x21

  /* Get the CR register value */
  tmp = hdma->Instance->CCR;
 80027cc:	687b      	ldr	r3, [r7, #4]
 80027ce:	681b      	ldr	r3, [r3, #0]
 80027d0:	681b      	ldr	r3, [r3, #0]
 80027d2:	60fb      	str	r3, [r7, #12]

  /* Clear PL, MSIZE, PSIZE, MINC, PINC, CIRC and DIR bits */
  tmp &= ((uint32_t)~(DMA_CCR_PL    | DMA_CCR_MSIZE  | DMA_CCR_PSIZE  | \
 80027d4:	68fb      	ldr	r3, [r7, #12]
 80027d6:	f423 537f 	bic.w	r3, r3, #16320	; 0x3fc0
 80027da:	f023 0330 	bic.w	r3, r3, #48	; 0x30
 80027de:	60fb      	str	r3, [r7, #12]
                      DMA_CCR_MINC  | DMA_CCR_PINC   | DMA_CCR_CIRC   | \
                      DMA_CCR_DIR));

  /* Prepare the DMA Channel configuration */
  tmp |=  hdma->Init.Direction        |
 80027e0:	687b      	ldr	r3, [r7, #4]
 80027e2:	685a      	ldr	r2, [r3, #4]
          hdma->Init.PeriphInc           | hdma->Init.MemInc           |
 80027e4:	687b      	ldr	r3, [r7, #4]
 80027e6:	689b      	ldr	r3, [r3, #8]
  tmp |=  hdma->Init.Direction        |
 80027e8:	431a      	orrs	r2, r3
          hdma->Init.PeriphInc           | hdma->Init.MemInc           |
 80027ea:	687b      	ldr	r3, [r7, #4]
 80027ec:	68db      	ldr	r3, [r3, #12]
 80027ee:	431a      	orrs	r2, r3
          hdma->Init.PeriphDataAlignment | hdma->Init.MemDataAlignment |
 80027f0:	687b      	ldr	r3, [r7, #4]
 80027f2:	691b      	ldr	r3, [r3, #16]
          hdma->Init.PeriphInc           | hdma->Init.MemInc           |
 80027f4:	431a      	orrs	r2, r3
          hdma->Init.PeriphDataAlignment | hdma->Init.MemDataAlignment |
 80027f6:	687b      	ldr	r3, [r7, #4]
 80027f8:	695b      	ldr	r3, [r3, #20]
 80027fa:	431a      	orrs	r2, r3
          hdma->Init.Mode                | hdma->Init.Priority;
 80027fc:	687b      	ldr	r3, [r7, #4]
 80027fe:	699b      	ldr	r3, [r3, #24]
          hdma->Init.PeriphDataAlignment | hdma->Init.MemDataAlignment |
 8002800:	431a      	orrs	r2, r3
          hdma->Init.Mode                | hdma->Init.Priority;
 8002802:	687b      	ldr	r3, [r7, #4]
 8002804:	69db      	ldr	r3, [r3, #28]
 8002806:	4313      	orrs	r3, r2
  tmp |=  hdma->Init.Direction        |
 8002808:	68fa      	ldr	r2, [r7, #12]
 800280a:	4313      	orrs	r3, r2
 800280c:	60fb      	str	r3, [r7, #12]

  /* Write to DMA Channel CR register */
  hdma->Instance->CCR = tmp;
 800280e:	687b      	ldr	r3, [r7, #4]
 8002810:	681b      	ldr	r3, [r3, #0]
 8002812:	68fa      	ldr	r2, [r7, #12]
 8002814:	601a      	str	r2, [r3, #0]

  /* Initialise the error code */
  hdma->ErrorCode = HAL_DMA_ERROR_NONE;
 8002816:	687b      	ldr	r3, [r7, #4]
 8002818:	2200      	movs	r2, #0
 800281a:	639a      	str	r2, [r3, #56]	; 0x38

  /* Initialize the DMA state*/
  hdma->State = HAL_DMA_STATE_READY;
 800281c:	687b      	ldr	r3, [r7, #4]
 800281e:	2201      	movs	r2, #1
 8002820:	f883 2021 	strb.w	r2, [r3, #33]	; 0x21
  /* Allocate lock resource and initialize it */
  hdma->Lock = HAL_UNLOCKED;
 8002824:	687b      	ldr	r3, [r7, #4]
 8002826:	2200      	movs	r2, #0
 8002828:	f883 2020 	strb.w	r2, [r3, #32]

  return HAL_OK;
 800282c:	2300      	movs	r3, #0
}
 800282e:	4618      	mov	r0, r3
 8002830:	3714      	adds	r7, #20
 8002832:	46bd      	mov	sp, r7
 8002834:	bc80      	pop	{r7}
 8002836:	4770      	bx	lr
 8002838:	bffdfff8 	.word	0xbffdfff8
 800283c:	cccccccd 	.word	0xcccccccd
 8002840:	40020000 	.word	0x40020000

08002844 <HAL_DMA_Start_IT>:
  * @param  DstAddress: The destination memory Buffer address
  * @param  DataLength: The length of data to be transferred from source to destination
  * @retval HAL status
  */
HAL_StatusTypeDef HAL_DMA_Start_IT(DMA_HandleTypeDef *hdma, uint32_t SrcAddress, uint32_t DstAddress, uint32_t DataLength)
{
 8002844:	b580      	push	{r7, lr}
 8002846:	b086      	sub	sp, #24
 8002848:	af00      	add	r7, sp, #0
 800284a:	60f8      	str	r0, [r7, #12]
 800284c:	60b9      	str	r1, [r7, #8]
 800284e:	607a      	str	r2, [r7, #4]
 8002850:	603b      	str	r3, [r7, #0]
  HAL_StatusTypeDef status = HAL_OK;
 8002852:	2300      	movs	r3, #0
 8002854:	75fb      	strb	r3, [r7, #23]

  /* Check the parameters */
  assert_param(IS_DMA_BUFFER_SIZE(DataLength));

  /* Process locked */
  __HAL_LOCK(hdma);
 8002856:	68fb      	ldr	r3, [r7, #12]
 8002858:	f893 3020 	ldrb.w	r3, [r3, #32]
 800285c:	2b01      	cmp	r3, #1
 800285e:	d101      	bne.n	8002864 <HAL_DMA_Start_IT+0x20>
 8002860:	2302      	movs	r3, #2
 8002862:	e04a      	b.n	80028fa <HAL_DMA_Start_IT+0xb6>
 8002864:	68fb      	ldr	r3, [r7, #12]
 8002866:	2201      	movs	r2, #1
 8002868:	f883 2020 	strb.w	r2, [r3, #32]
  
  if(HAL_DMA_STATE_READY == hdma->State)
 800286c:	68fb      	ldr	r3, [r7, #12]
 800286e:	f893 3021 	ldrb.w	r3, [r3, #33]	; 0x21
 8002872:	2b01      	cmp	r3, #1
 8002874:	d13a      	bne.n	80028ec <HAL_DMA_Start_IT+0xa8>
  {
    /* Change DMA peripheral state */
    hdma->State = HAL_DMA_STATE_BUSY;
 8002876:	68fb      	ldr	r3, [r7, #12]
 8002878:	2202      	movs	r2, #2
 800287a:	f883 2021 	strb.w	r2, [r3, #33]	; 0x21
    hdma->ErrorCode = HAL_DMA_ERROR_NONE;
 800287e:	68fb      	ldr	r3, [r7, #12]
 8002880:	2200      	movs	r2, #0
 8002882:	639a      	str	r2, [r3, #56]	; 0x38
    
    /* Disable the peripheral */
    __HAL_DMA_DISABLE(hdma);
 8002884:	68fb      	ldr	r3, [r7, #12]
 8002886:	681b      	ldr	r3, [r3, #0]
 8002888:	681a      	ldr	r2, [r3, #0]
 800288a:	68fb      	ldr	r3, [r7, #12]
 800288c:	681b      	ldr	r3, [r3, #0]
 800288e:	f022 0201 	bic.w	r2, r2, #1
 8002892:	601a      	str	r2, [r3, #0]
    
    /* Configure the source, destination address and the data length & clear flags*/
    DMA_SetConfig(hdma, SrcAddress, DstAddress, DataLength);
 8002894:	683b      	ldr	r3, [r7, #0]
 8002896:	687a      	ldr	r2, [r7, #4]
 8002898:	68b9      	ldr	r1, [r7, #8]
 800289a:	68f8      	ldr	r0, [r7, #12]
 800289c:	f000 f9ae 	bl	8002bfc <DMA_SetConfig>
    
    /* Enable the transfer complete interrupt */
    /* Enable the transfer Error interrupt */
    if(NULL != hdma->XferHalfCpltCallback)
 80028a0:	68fb      	ldr	r3, [r7, #12]
 80028a2:	6adb      	ldr	r3, [r3, #44]	; 0x2c
 80028a4:	2b00      	cmp	r3, #0
 80028a6:	d008      	beq.n	80028ba <HAL_DMA_Start_IT+0x76>
    {
      /* Enable the Half transfer complete interrupt as well */
      __HAL_DMA_ENABLE_IT(hdma, (DMA_IT_TC | DMA_IT_HT | DMA_IT_TE));
 80028a8:	68fb      	ldr	r3, [r7, #12]
 80028aa:	681b      	ldr	r3, [r3, #0]
 80028ac:	681a      	ldr	r2, [r3, #0]
 80028ae:	68fb      	ldr	r3, [r7, #12]
 80028b0:	681b      	ldr	r3, [r3, #0]
 80028b2:	f042 020e 	orr.w	r2, r2, #14
 80028b6:	601a      	str	r2, [r3, #0]
 80028b8:	e00f      	b.n	80028da <HAL_DMA_Start_IT+0x96>
    }
    else
    {
      __HAL_DMA_DISABLE_IT(hdma, DMA_IT_HT);
 80028ba:	68fb      	ldr	r3, [r7, #12]
 80028bc:	681b      	ldr	r3, [r3, #0]
 80028be:	681a      	ldr	r2, [r3, #0]
 80028c0:	68fb      	ldr	r3, [r7, #12]
 80028c2:	681b      	ldr	r3, [r3, #0]
 80028c4:	f022 0204 	bic.w	r2, r2, #4
 80028c8:	601a      	str	r2, [r3, #0]
      __HAL_DMA_ENABLE_IT(hdma, (DMA_IT_TC | DMA_IT_TE));
 80028ca:	68fb      	ldr	r3, [r7, #12]
 80028cc:	681b      	ldr	r3, [r3, #0]
 80028ce:	681a      	ldr	r2, [r3, #0]
 80028d0:	68fb      	ldr	r3, [r7, #12]
 80028d2:	681b      	ldr	r3, [r3, #0]
 80028d4:	f042 020a 	orr.w	r2, r2, #10
 80028d8:	601a      	str	r2, [r3, #0]
    }
    /* Enable the Peripheral */
    __HAL_DMA_ENABLE(hdma);
 80028da:	68fb      	ldr	r3, [r7, #12]
 80028dc:	681b      	ldr	r3, [r3, #0]
 80028de:	681a      	ldr	r2, [r3, #0]
 80028e0:	68fb      	ldr	r3, [r7, #12]
 80028e2:	681b      	ldr	r3, [r3, #0]
 80028e4:	f042 0201 	orr.w	r2, r2, #1
 80028e8:	601a      	str	r2, [r3, #0]
 80028ea:	e005      	b.n	80028f8 <HAL_DMA_Start_IT+0xb4>
  }
  else
  {      
    /* Process Unlocked */
    __HAL_UNLOCK(hdma); 
 80028ec:	68fb      	ldr	r3, [r7, #12]
 80028ee:	2200      	movs	r2, #0
 80028f0:	f883 2020 	strb.w	r2, [r3, #32]

    /* Remain BUSY */
    status = HAL_BUSY;
 80028f4:	2302      	movs	r3, #2
 80028f6:	75fb      	strb	r3, [r7, #23]
  }    
  return status;
 80028f8:	7dfb      	ldrb	r3, [r7, #23]
}
 80028fa:	4618      	mov	r0, r3
 80028fc:	3718      	adds	r7, #24
 80028fe:	46bd      	mov	sp, r7
 8002900:	bd80      	pop	{r7, pc}
	...

08002904 <HAL_DMA_Abort_IT>:
  * @param  hdma  : pointer to a DMA_HandleTypeDef structure that contains
  *                 the configuration information for the specified DMA Channel.
  * @retval HAL status
  */
HAL_StatusTypeDef HAL_DMA_Abort_IT(DMA_HandleTypeDef *hdma)
{  
 8002904:	b580      	push	{r7, lr}
 8002906:	b084      	sub	sp, #16
 8002908:	af00      	add	r7, sp, #0
 800290a:	6078      	str	r0, [r7, #4]
  HAL_StatusTypeDef status = HAL_OK;
 800290c:	2300      	movs	r3, #0
 800290e:	73fb      	strb	r3, [r7, #15]
  
  if(HAL_DMA_STATE_BUSY != hdma->State)
 8002910:	687b      	ldr	r3, [r7, #4]
 8002912:	f893 3021 	ldrb.w	r3, [r3, #33]	; 0x21
 8002916:	2b02      	cmp	r3, #2
 8002918:	d005      	beq.n	8002926 <HAL_DMA_Abort_IT+0x22>
  {
    /* no transfer ongoing */
    hdma->ErrorCode = HAL_DMA_ERROR_NO_XFER;
 800291a:	687b      	ldr	r3, [r7, #4]
 800291c:	2204      	movs	r2, #4
 800291e:	639a      	str	r2, [r3, #56]	; 0x38
        
    status = HAL_ERROR;
 8002920:	2301      	movs	r3, #1
 8002922:	73fb      	strb	r3, [r7, #15]
 8002924:	e051      	b.n	80029ca <HAL_DMA_Abort_IT+0xc6>
  }
  else
  { 
    /* Disable DMA IT */
    __HAL_DMA_DISABLE_IT(hdma, (DMA_IT_TC | DMA_IT_HT | DMA_IT_TE));
 8002926:	687b      	ldr	r3, [r7, #4]
 8002928:	681b      	ldr	r3, [r3, #0]
 800292a:	681a      	ldr	r2, [r3, #0]
 800292c:	687b      	ldr	r3, [r7, #4]
 800292e:	681b      	ldr	r3, [r3, #0]
 8002930:	f022 020e 	bic.w	r2, r2, #14
 8002934:	601a      	str	r2, [r3, #0]

    /* Disable the channel */
    __HAL_DMA_DISABLE(hdma);
 8002936:	687b      	ldr	r3, [r7, #4]
 8002938:	681b      	ldr	r3, [r3, #0]
 800293a:	681a      	ldr	r2, [r3, #0]
 800293c:	687b      	ldr	r3, [r7, #4]
 800293e:	681b      	ldr	r3, [r3, #0]
 8002940:	f022 0201 	bic.w	r2, r2, #1
 8002944:	601a      	str	r2, [r3, #0]

    /* Clear all flags */
    __HAL_DMA_CLEAR_FLAG(hdma, __HAL_DMA_GET_GI_FLAG_INDEX(hdma));
 8002946:	687b      	ldr	r3, [r7, #4]
 8002948:	681b      	ldr	r3, [r3, #0]
 800294a:	4a22      	ldr	r2, [pc, #136]	; (80029d4 <HAL_DMA_Abort_IT+0xd0>)
 800294c:	4293      	cmp	r3, r2
 800294e:	d029      	beq.n	80029a4 <HAL_DMA_Abort_IT+0xa0>
 8002950:	687b      	ldr	r3, [r7, #4]
 8002952:	681b      	ldr	r3, [r3, #0]
 8002954:	4a20      	ldr	r2, [pc, #128]	; (80029d8 <HAL_DMA_Abort_IT+0xd4>)
 8002956:	4293      	cmp	r3, r2
 8002958:	d022      	beq.n	80029a0 <HAL_DMA_Abort_IT+0x9c>
 800295a:	687b      	ldr	r3, [r7, #4]
 800295c:	681b      	ldr	r3, [r3, #0]
 800295e:	4a1f      	ldr	r2, [pc, #124]	; (80029dc <HAL_DMA_Abort_IT+0xd8>)
 8002960:	4293      	cmp	r3, r2
 8002962:	d01a      	beq.n	800299a <HAL_DMA_Abort_IT+0x96>
 8002964:	687b      	ldr	r3, [r7, #4]
 8002966:	681b      	ldr	r3, [r3, #0]
 8002968:	4a1d      	ldr	r2, [pc, #116]	; (80029e0 <HAL_DMA_Abort_IT+0xdc>)
 800296a:	4293      	cmp	r3, r2
 800296c:	d012      	beq.n	8002994 <HAL_DMA_Abort_IT+0x90>
 800296e:	687b      	ldr	r3, [r7, #4]
 8002970:	681b      	ldr	r3, [r3, #0]
 8002972:	4a1c      	ldr	r2, [pc, #112]	; (80029e4 <HAL_DMA_Abort_IT+0xe0>)
 8002974:	4293      	cmp	r3, r2
 8002976:	d00a      	beq.n	800298e <HAL_DMA_Abort_IT+0x8a>
 8002978:	687b      	ldr	r3, [r7, #4]
 800297a:	681b      	ldr	r3, [r3, #0]
 800297c:	4a1a      	ldr	r2, [pc, #104]	; (80029e8 <HAL_DMA_Abort_IT+0xe4>)
 800297e:	4293      	cmp	r3, r2
 8002980:	d102      	bne.n	8002988 <HAL_DMA_Abort_IT+0x84>
 8002982:	f44f 1380 	mov.w	r3, #1048576	; 0x100000
 8002986:	e00e      	b.n	80029a6 <HAL_DMA_Abort_IT+0xa2>
 8002988:	f04f 7380 	mov.w	r3, #16777216	; 0x1000000
 800298c:	e00b      	b.n	80029a6 <HAL_DMA_Abort_IT+0xa2>
 800298e:	f44f 3380 	mov.w	r3, #65536	; 0x10000
 8002992:	e008      	b.n	80029a6 <HAL_DMA_Abort_IT+0xa2>
 8002994:	f44f 5380 	mov.w	r3, #4096	; 0x1000
 8002998:	e005      	b.n	80029a6 <HAL_DMA_Abort_IT+0xa2>
 800299a:	f44f 7380 	mov.w	r3, #256	; 0x100
 800299e:	e002      	b.n	80029a6 <HAL_DMA_Abort_IT+0xa2>
 80029a0:	2310      	movs	r3, #16
 80029a2:	e000      	b.n	80029a6 <HAL_DMA_Abort_IT+0xa2>
 80029a4:	2301      	movs	r3, #1
 80029a6:	4a11      	ldr	r2, [pc, #68]	; (80029ec <HAL_DMA_Abort_IT+0xe8>)
 80029a8:	6053      	str	r3, [r2, #4]

    /* Change the DMA state */
    hdma->State = HAL_DMA_STATE_READY;
 80029aa:	687b      	ldr	r3, [r7, #4]
 80029ac:	2201      	movs	r2, #1
 80029ae:	f883 2021 	strb.w	r2, [r3, #33]	; 0x21

    /* Process Unlocked */
    __HAL_UNLOCK(hdma);
 80029b2:	687b      	ldr	r3, [r7, #4]
 80029b4:	2200      	movs	r2, #0
 80029b6:	f883 2020 	strb.w	r2, [r3, #32]

    /* Call User Abort callback */
    if(hdma->XferAbortCallback != NULL)
 80029ba:	687b      	ldr	r3, [r7, #4]
 80029bc:	6b5b      	ldr	r3, [r3, #52]	; 0x34
 80029be:	2b00      	cmp	r3, #0
 80029c0:	d003      	beq.n	80029ca <HAL_DMA_Abort_IT+0xc6>
    {
      hdma->XferAbortCallback(hdma);
 80029c2:	687b      	ldr	r3, [r7, #4]
 80029c4:	6b5b      	ldr	r3, [r3, #52]	; 0x34
 80029c6:	6878      	ldr	r0, [r7, #4]
 80029c8:	4798      	blx	r3
    } 
  }
  return status;
 80029ca:	7bfb      	ldrb	r3, [r7, #15]
}
 80029cc:	4618      	mov	r0, r3
 80029ce:	3710      	adds	r7, #16
 80029d0:	46bd      	mov	sp, r7
 80029d2:	bd80      	pop	{r7, pc}
 80029d4:	40020008 	.word	0x40020008
 80029d8:	4002001c 	.word	0x4002001c
 80029dc:	40020030 	.word	0x40020030
 80029e0:	40020044 	.word	0x40020044
 80029e4:	40020058 	.word	0x40020058
 80029e8:	4002006c 	.word	0x4002006c
 80029ec:	40020000 	.word	0x40020000

080029f0 <HAL_DMA_IRQHandler>:
  * @param  hdma: pointer to a DMA_HandleTypeDef structure that contains
  *               the configuration information for the specified DMA Channel.  
  * @retval None
  */
void HAL_DMA_IRQHandler(DMA_HandleTypeDef *hdma)
{
 80029f0:	b580      	push	{r7, lr}
 80029f2:	b084      	sub	sp, #16
 80029f4:	af00      	add	r7, sp, #0
 80029f6:	6078      	str	r0, [r7, #4]
  uint32_t flag_it = hdma->DmaBaseAddress->ISR;
 80029f8:	687b      	ldr	r3, [r7, #4]
 80029fa:	6bdb      	ldr	r3, [r3, #60]	; 0x3c
 80029fc:	681b      	ldr	r3, [r3, #0]
 80029fe:	60fb      	str	r3, [r7, #12]
  uint32_t source_it = hdma->Instance->CCR;
 8002a00:	687b      	ldr	r3, [r7, #4]
 8002a02:	681b      	ldr	r3, [r3, #0]
 8002a04:	681b      	ldr	r3, [r3, #0]
 8002a06:	60bb      	str	r3, [r7, #8]
  
  /* Half Transfer Complete Interrupt management ******************************/
  if (((flag_it & (DMA_FLAG_HT1 << hdma->ChannelIndex)) != RESET) && ((source_it & DMA_IT_HT) != RESET))
 8002a08:	687b      	ldr	r3, [r7, #4]
 8002a0a:	6c1b      	ldr	r3, [r3, #64]	; 0x40
 8002a0c:	2204      	movs	r2, #4
 8002a0e:	409a      	lsls	r2, r3
 8002a10:	68fb      	ldr	r3, [r7, #12]
 8002a12:	4013      	ands	r3, r2
 8002a14:	2b00      	cmp	r3, #0
 8002a16:	d04f      	beq.n	8002ab8 <HAL_DMA_IRQHandler+0xc8>
 8002a18:	68bb      	ldr	r3, [r7, #8]
 8002a1a:	f003 0304 	and.w	r3, r3, #4
 8002a1e:	2b00      	cmp	r3, #0
 8002a20:	d04a      	beq.n	8002ab8 <HAL_DMA_IRQHandler+0xc8>
  {
    /* Disable the half transfer interrupt if the DMA mode is not CIRCULAR */
    if((hdma->Instance->CCR & DMA_CCR_CIRC) == 0U)
 8002a22:	687b      	ldr	r3, [r7, #4]
 8002a24:	681b      	ldr	r3, [r3, #0]
 8002a26:	681b      	ldr	r3, [r3, #0]
 8002a28:	f003 0320 	and.w	r3, r3, #32
 8002a2c:	2b00      	cmp	r3, #0
 8002a2e:	d107      	bne.n	8002a40 <HAL_DMA_IRQHandler+0x50>
    {
      /* Disable the half transfer interrupt */
      __HAL_DMA_DISABLE_IT(hdma, DMA_IT_HT);
 8002a30:	687b      	ldr	r3, [r7, #4]
 8002a32:	681b      	ldr	r3, [r3, #0]
 8002a34:	681a      	ldr	r2, [r3, #0]
 8002a36:	687b      	ldr	r3, [r7, #4]
 8002a38:	681b      	ldr	r3, [r3, #0]
 8002a3a:	f022 0204 	bic.w	r2, r2, #4
 8002a3e:	601a      	str	r2, [r3, #0]
    }
    /* Clear the half transfer complete flag */
    __HAL_DMA_CLEAR_FLAG(hdma, __HAL_DMA_GET_HT_FLAG_INDEX(hdma));
 8002a40:	687b      	ldr	r3, [r7, #4]
 8002a42:	681b      	ldr	r3, [r3, #0]
 8002a44:	4a66      	ldr	r2, [pc, #408]	; (8002be0 <HAL_DMA_IRQHandler+0x1f0>)
 8002a46:	4293      	cmp	r3, r2
 8002a48:	d029      	beq.n	8002a9e <HAL_DMA_IRQHandler+0xae>
 8002a4a:	687b      	ldr	r3, [r7, #4]
 8002a4c:	681b      	ldr	r3, [r3, #0]
 8002a4e:	4a65      	ldr	r2, [pc, #404]	; (8002be4 <HAL_DMA_IRQHandler+0x1f4>)
 8002a50:	4293      	cmp	r3, r2
 8002a52:	d022      	beq.n	8002a9a <HAL_DMA_IRQHandler+0xaa>
 8002a54:	687b      	ldr	r3, [r7, #4]
 8002a56:	681b      	ldr	r3, [r3, #0]
 8002a58:	4a63      	ldr	r2, [pc, #396]	; (8002be8 <HAL_DMA_IRQHandler+0x1f8>)
 8002a5a:	4293      	cmp	r3, r2
 8002a5c:	d01a      	beq.n	8002a94 <HAL_DMA_IRQHandler+0xa4>
 8002a5e:	687b      	ldr	r3, [r7, #4]
 8002a60:	681b      	ldr	r3, [r3, #0]
 8002a62:	4a62      	ldr	r2, [pc, #392]	; (8002bec <HAL_DMA_IRQHandler+0x1fc>)
 8002a64:	4293      	cmp	r3, r2
 8002a66:	d012      	beq.n	8002a8e <HAL_DMA_IRQHandler+0x9e>
 8002a68:	687b      	ldr	r3, [r7, #4]
 8002a6a:	681b      	ldr	r3, [r3, #0]
 8002a6c:	4a60      	ldr	r2, [pc, #384]	; (8002bf0 <HAL_DMA_IRQHandler+0x200>)
 8002a6e:	4293      	cmp	r3, r2
 8002a70:	d00a      	beq.n	8002a88 <HAL_DMA_IRQHandler+0x98>
 8002a72:	687b      	ldr	r3, [r7, #4]
 8002a74:	681b      	ldr	r3, [r3, #0]
 8002a76:	4a5f      	ldr	r2, [pc, #380]	; (8002bf4 <HAL_DMA_IRQHandler+0x204>)
 8002a78:	4293      	cmp	r3, r2
 8002a7a:	d102      	bne.n	8002a82 <HAL_DMA_IRQHandler+0x92>
 8002a7c:	f44f 0380 	mov.w	r3, #4194304	; 0x400000
 8002a80:	e00e      	b.n	8002aa0 <HAL_DMA_IRQHandler+0xb0>
 8002a82:	f04f 6380 	mov.w	r3, #67108864	; 0x4000000
 8002a86:	e00b      	b.n	8002aa0 <HAL_DMA_IRQHandler+0xb0>
 8002a88:	f44f 2380 	mov.w	r3, #262144	; 0x40000
 8002a8c:	e008      	b.n	8002aa0 <HAL_DMA_IRQHandler+0xb0>
 8002a8e:	f44f 4380 	mov.w	r3, #16384	; 0x4000
 8002a92:	e005      	b.n	8002aa0 <HAL_DMA_IRQHandler+0xb0>
 8002a94:	f44f 6380 	mov.w	r3, #1024	; 0x400
 8002a98:	e002      	b.n	8002aa0 <HAL_DMA_IRQHandler+0xb0>
 8002a9a:	2340      	movs	r3, #64	; 0x40
 8002a9c:	e000      	b.n	8002aa0 <HAL_DMA_IRQHandler+0xb0>
 8002a9e:	2304      	movs	r3, #4
 8002aa0:	4a55      	ldr	r2, [pc, #340]	; (8002bf8 <HAL_DMA_IRQHandler+0x208>)
 8002aa2:	6053      	str	r3, [r2, #4]

    /* DMA peripheral state is not updated in Half Transfer */
    /* but in Transfer Complete case */

    if(hdma->XferHalfCpltCallback != NULL)
 8002aa4:	687b      	ldr	r3, [r7, #4]
 8002aa6:	6adb      	ldr	r3, [r3, #44]	; 0x2c
 8002aa8:	2b00      	cmp	r3, #0
 8002aaa:	f000 8094 	beq.w	8002bd6 <HAL_DMA_IRQHandler+0x1e6>
    {
      /* Half transfer callback */
      hdma->XferHalfCpltCallback(hdma);
 8002aae:	687b      	ldr	r3, [r7, #4]
 8002ab0:	6adb      	ldr	r3, [r3, #44]	; 0x2c
 8002ab2:	6878      	ldr	r0, [r7, #4]
 8002ab4:	4798      	blx	r3
    if(hdma->XferHalfCpltCallback != NULL)
 8002ab6:	e08e      	b.n	8002bd6 <HAL_DMA_IRQHandler+0x1e6>
    }
  }

  /* Transfer Complete Interrupt management ***********************************/
  else if (((flag_it & (DMA_FLAG_TC1 << hdma->ChannelIndex)) != RESET) && ((source_it & DMA_IT_TC) != RESET))
 8002ab8:	687b      	ldr	r3, [r7, #4]
 8002aba:	6c1b      	ldr	r3, [r3, #64]	; 0x40
 8002abc:	2202      	movs	r2, #2
 8002abe:	409a      	lsls	r2, r3
 8002ac0:	68fb      	ldr	r3, [r7, #12]
 8002ac2:	4013      	ands	r3, r2
 8002ac4:	2b00      	cmp	r3, #0
 8002ac6:	d056      	beq.n	8002b76 <HAL_DMA_IRQHandler+0x186>
 8002ac8:	68bb      	ldr	r3, [r7, #8]
 8002aca:	f003 0302 	and.w	r3, r3, #2
 8002ace:	2b00      	cmp	r3, #0
 8002ad0:	d051      	beq.n	8002b76 <HAL_DMA_IRQHandler+0x186>
  {
    if((hdma->Instance->CCR & DMA_CCR_CIRC) == 0U)
 8002ad2:	687b      	ldr	r3, [r7, #4]
 8002ad4:	681b      	ldr	r3, [r3, #0]
 8002ad6:	681b      	ldr	r3, [r3, #0]
 8002ad8:	f003 0320 	and.w	r3, r3, #32
 8002adc:	2b00      	cmp	r3, #0
 8002ade:	d10b      	bne.n	8002af8 <HAL_DMA_IRQHandler+0x108>
    {
      /* Disable the transfer complete and error interrupt */
      __HAL_DMA_DISABLE_IT(hdma, DMA_IT_TE | DMA_IT_TC);  
 8002ae0:	687b      	ldr	r3, [r7, #4]
 8002ae2:	681b      	ldr	r3, [r3, #0]
 8002ae4:	681a      	ldr	r2, [r3, #0]
 8002ae6:	687b      	ldr	r3, [r7, #4]
 8002ae8:	681b      	ldr	r3, [r3, #0]
 8002aea:	f022 020a 	bic.w	r2, r2, #10
 8002aee:	601a      	str	r2, [r3, #0]

      /* Change the DMA state */
      hdma->State = HAL_DMA_STATE_READY;
 8002af0:	687b      	ldr	r3, [r7, #4]
 8002af2:	2201      	movs	r2, #1
 8002af4:	f883 2021 	strb.w	r2, [r3, #33]	; 0x21
    }
    /* Clear the transfer complete flag */
      __HAL_DMA_CLEAR_FLAG(hdma, __HAL_DMA_GET_TC_FLAG_INDEX(hdma));
 8002af8:	687b      	ldr	r3, [r7, #4]
 8002afa:	681b      	ldr	r3, [r3, #0]
 8002afc:	4a38      	ldr	r2, [pc, #224]	; (8002be0 <HAL_DMA_IRQHandler+0x1f0>)
 8002afe:	4293      	cmp	r3, r2
 8002b00:	d029      	beq.n	8002b56 <HAL_DMA_IRQHandler+0x166>
 8002b02:	687b      	ldr	r3, [r7, #4]
 8002b04:	681b      	ldr	r3, [r3, #0]
 8002b06:	4a37      	ldr	r2, [pc, #220]	; (8002be4 <HAL_DMA_IRQHandler+0x1f4>)
 8002b08:	4293      	cmp	r3, r2
 8002b0a:	d022      	beq.n	8002b52 <HAL_DMA_IRQHandler+0x162>
 8002b0c:	687b      	ldr	r3, [r7, #4]
 8002b0e:	681b      	ldr	r3, [r3, #0]
 8002b10:	4a35      	ldr	r2, [pc, #212]	; (8002be8 <HAL_DMA_IRQHandler+0x1f8>)
 8002b12:	4293      	cmp	r3, r2
 8002b14:	d01a      	beq.n	8002b4c <HAL_DMA_IRQHandler+0x15c>
 8002b16:	687b      	ldr	r3, [r7, #4]
 8002b18:	681b      	ldr	r3, [r3, #0]
 8002b1a:	4a34      	ldr	r2, [pc, #208]	; (8002bec <HAL_DMA_IRQHandler+0x1fc>)
 8002b1c:	4293      	cmp	r3, r2
 8002b1e:	d012      	beq.n	8002b46 <HAL_DMA_IRQHandler+0x156>
 8002b20:	687b      	ldr	r3, [r7, #4]
 8002b22:	681b      	ldr	r3, [r3, #0]
 8002b24:	4a32      	ldr	r2, [pc, #200]	; (8002bf0 <HAL_DMA_IRQHandler+0x200>)
 8002b26:	4293      	cmp	r3, r2
 8002b28:	d00a      	beq.n	8002b40 <HAL_DMA_IRQHandler+0x150>
 8002b2a:	687b      	ldr	r3, [r7, #4]
 8002b2c:	681b      	ldr	r3, [r3, #0]
 8002b2e:	4a31      	ldr	r2, [pc, #196]	; (8002bf4 <HAL_DMA_IRQHandler+0x204>)
 8002b30:	4293      	cmp	r3, r2
 8002b32:	d102      	bne.n	8002b3a <HAL_DMA_IRQHandler+0x14a>
 8002b34:	f44f 1300 	mov.w	r3, #2097152	; 0x200000
 8002b38:	e00e      	b.n	8002b58 <HAL_DMA_IRQHandler+0x168>
 8002b3a:	f04f 7300 	mov.w	r3, #33554432	; 0x2000000
 8002b3e:	e00b      	b.n	8002b58 <HAL_DMA_IRQHandler+0x168>
 8002b40:	f44f 3300 	mov.w	r3, #131072	; 0x20000
 8002b44:	e008      	b.n	8002b58 <HAL_DMA_IRQHandler+0x168>
 8002b46:	f44f 5300 	mov.w	r3, #8192	; 0x2000
 8002b4a:	e005      	b.n	8002b58 <HAL_DMA_IRQHandler+0x168>
 8002b4c:	f44f 7300 	mov.w	r3, #512	; 0x200
 8002b50:	e002      	b.n	8002b58 <HAL_DMA_IRQHandler+0x168>
 8002b52:	2320      	movs	r3, #32
 8002b54:	e000      	b.n	8002b58 <HAL_DMA_IRQHandler+0x168>
 8002b56:	2302      	movs	r3, #2
 8002b58:	4a27      	ldr	r2, [pc, #156]	; (8002bf8 <HAL_DMA_IRQHandler+0x208>)
 8002b5a:	6053      	str	r3, [r2, #4]

    /* Process Unlocked */
    __HAL_UNLOCK(hdma);
 8002b5c:	687b      	ldr	r3, [r7, #4]
 8002b5e:	2200      	movs	r2, #0
 8002b60:	f883 2020 	strb.w	r2, [r3, #32]

    if(hdma->XferCpltCallback != NULL)
 8002b64:	687b      	ldr	r3, [r7, #4]
 8002b66:	6a9b      	ldr	r3, [r3, #40]	; 0x28
 8002b68:	2b00      	cmp	r3, #0
 8002b6a:	d034      	beq.n	8002bd6 <HAL_DMA_IRQHandler+0x1e6>
    {
      /* Transfer complete callback */
      hdma->XferCpltCallback(hdma);
 8002b6c:	687b      	ldr	r3, [r7, #4]
 8002b6e:	6a9b      	ldr	r3, [r3, #40]	; 0x28
 8002b70:	6878      	ldr	r0, [r7, #4]
 8002b72:	4798      	blx	r3
    if(hdma->XferCpltCallback != NULL)
 8002b74:	e02f      	b.n	8002bd6 <HAL_DMA_IRQHandler+0x1e6>
    }
  }

  /* Transfer Error Interrupt management **************************************/
  else if (( RESET != (flag_it & (DMA_FLAG_TE1 << hdma->ChannelIndex))) && (RESET != (source_it & DMA_IT_TE)))
 8002b76:	687b      	ldr	r3, [r7, #4]
 8002b78:	6c1b      	ldr	r3, [r3, #64]	; 0x40
 8002b7a:	2208      	movs	r2, #8
 8002b7c:	409a      	lsls	r2, r3
 8002b7e:	68fb      	ldr	r3, [r7, #12]
 8002b80:	4013      	ands	r3, r2
 8002b82:	2b00      	cmp	r3, #0
 8002b84:	d028      	beq.n	8002bd8 <HAL_DMA_IRQHandler+0x1e8>
 8002b86:	68bb      	ldr	r3, [r7, #8]
 8002b88:	f003 0308 	and.w	r3, r3, #8
 8002b8c:	2b00      	cmp	r3, #0
 8002b8e:	d023      	beq.n	8002bd8 <HAL_DMA_IRQHandler+0x1e8>
  {
    /* When a DMA transfer error occurs */
    /* A hardware clear of its EN bits is performed */
    /* Disable ALL DMA IT */
    __HAL_DMA_DISABLE_IT(hdma, (DMA_IT_TC | DMA_IT_HT | DMA_IT_TE));
 8002b90:	687b      	ldr	r3, [r7, #4]
 8002b92:	681b      	ldr	r3, [r3, #0]
 8002b94:	681a      	ldr	r2, [r3, #0]
 8002b96:	687b      	ldr	r3, [r7, #4]
 8002b98:	681b      	ldr	r3, [r3, #0]
 8002b9a:	f022 020e 	bic.w	r2, r2, #14
 8002b9e:	601a      	str	r2, [r3, #0]

    /* Clear all flags */
    hdma->DmaBaseAddress->IFCR = (DMA_ISR_GIF1 << hdma->ChannelIndex);
 8002ba0:	687b      	ldr	r3, [r7, #4]
 8002ba2:	6c1a      	ldr	r2, [r3, #64]	; 0x40
 8002ba4:	687b      	ldr	r3, [r7, #4]
 8002ba6:	6bdb      	ldr	r3, [r3, #60]	; 0x3c
 8002ba8:	2101      	movs	r1, #1
 8002baa:	fa01 f202 	lsl.w	r2, r1, r2
 8002bae:	605a      	str	r2, [r3, #4]

    /* Update error code */
    hdma->ErrorCode = HAL_DMA_ERROR_TE;
 8002bb0:	687b      	ldr	r3, [r7, #4]
 8002bb2:	2201      	movs	r2, #1
 8002bb4:	639a      	str	r2, [r3, #56]	; 0x38

    /* Change the DMA state */
    hdma->State = HAL_DMA_STATE_READY;
 8002bb6:	687b      	ldr	r3, [r7, #4]
 8002bb8:	2201      	movs	r2, #1
 8002bba:	f883 2021 	strb.w	r2, [r3, #33]	; 0x21

    /* Process Unlocked */
    __HAL_UNLOCK(hdma);
 8002bbe:	687b      	ldr	r3, [r7, #4]
 8002bc0:	2200      	movs	r2, #0
 8002bc2:	f883 2020 	strb.w	r2, [r3, #32]

    if (hdma->XferErrorCallback != NULL)
 8002bc6:	687b      	ldr	r3, [r7, #4]
 8002bc8:	6b1b      	ldr	r3, [r3, #48]	; 0x30
 8002bca:	2b00      	cmp	r3, #0
 8002bcc:	d004      	beq.n	8002bd8 <HAL_DMA_IRQHandler+0x1e8>
    {
      /* Transfer error callback */
      hdma->XferErrorCallback(hdma);
 8002bce:	687b      	ldr	r3, [r7, #4]
 8002bd0:	6b1b      	ldr	r3, [r3, #48]	; 0x30
 8002bd2:	6878      	ldr	r0, [r7, #4]
 8002bd4:	4798      	blx	r3
    }
  }
  return;
 8002bd6:	bf00      	nop
 8002bd8:	bf00      	nop
}
 8002bda:	3710      	adds	r7, #16
 8002bdc:	46bd      	mov	sp, r7
 8002bde:	bd80      	pop	{r7, pc}
 8002be0:	40020008 	.word	0x40020008
 8002be4:	4002001c 	.word	0x4002001c
 8002be8:	40020030 	.word	0x40020030
 8002bec:	40020044 	.word	0x40020044
 8002bf0:	40020058 	.word	0x40020058
 8002bf4:	4002006c 	.word	0x4002006c
 8002bf8:	40020000 	.word	0x40020000

08002bfc <DMA_SetConfig>:
  * @param  DstAddress: The destination memory Buffer address
  * @param  DataLength: The length of data to be transferred from source to destination
  * @retval HAL status
  */
static void DMA_SetConfig(DMA_HandleTypeDef *hdma, uint32_t SrcAddress, uint32_t DstAddress, uint32_t DataLength)
{
 8002bfc:	b480      	push	{r7}
 8002bfe:	b085      	sub	sp, #20
 8002c00:	af00      	add	r7, sp, #0
 8002c02:	60f8      	str	r0, [r7, #12]
 8002c04:	60b9      	str	r1, [r7, #8]
 8002c06:	607a      	str	r2, [r7, #4]
 8002c08:	603b      	str	r3, [r7, #0]
  /* Clear all flags */
  hdma->DmaBaseAddress->IFCR = (DMA_ISR_GIF1 << hdma->ChannelIndex);
 8002c0a:	68fb      	ldr	r3, [r7, #12]
 8002c0c:	6c1a      	ldr	r2, [r3, #64]	; 0x40
 8002c0e:	68fb      	ldr	r3, [r7, #12]
 8002c10:	6bdb      	ldr	r3, [r3, #60]	; 0x3c
 8002c12:	2101      	movs	r1, #1
 8002c14:	fa01 f202 	lsl.w	r2, r1, r2
 8002c18:	605a      	str	r2, [r3, #4]

  /* Configure DMA Channel data length */
  hdma->Instance->CNDTR = DataLength;
 8002c1a:	68fb      	ldr	r3, [r7, #12]
 8002c1c:	681b      	ldr	r3, [r3, #0]
 8002c1e:	683a      	ldr	r2, [r7, #0]
 8002c20:	605a      	str	r2, [r3, #4]

  /* Memory to Peripheral */
  if((hdma->Init.Direction) == DMA_MEMORY_TO_PERIPH)
 8002c22:	68fb      	ldr	r3, [r7, #12]
 8002c24:	685b      	ldr	r3, [r3, #4]
 8002c26:	2b10      	cmp	r3, #16
 8002c28:	d108      	bne.n	8002c3c <DMA_SetConfig+0x40>
  {
    /* Configure DMA Channel destination address */
    hdma->Instance->CPAR = DstAddress;
 8002c2a:	68fb      	ldr	r3, [r7, #12]
 8002c2c:	681b      	ldr	r3, [r3, #0]
 8002c2e:	687a      	ldr	r2, [r7, #4]
 8002c30:	609a      	str	r2, [r3, #8]

    /* Configure DMA Channel source address */
    hdma->Instance->CMAR = SrcAddress;
 8002c32:	68fb      	ldr	r3, [r7, #12]
 8002c34:	681b      	ldr	r3, [r3, #0]
 8002c36:	68ba      	ldr	r2, [r7, #8]
 8002c38:	60da      	str	r2, [r3, #12]
    hdma->Instance->CPAR = SrcAddress;

    /* Configure DMA Channel destination address */
    hdma->Instance->CMAR = DstAddress;
  }
}
 8002c3a:	e007      	b.n	8002c4c <DMA_SetConfig+0x50>
    hdma->Instance->CPAR = SrcAddress;
 8002c3c:	68fb      	ldr	r3, [r7, #12]
 8002c3e:	681b      	ldr	r3, [r3, #0]
 8002c40:	68ba      	ldr	r2, [r7, #8]
 8002c42:	609a      	str	r2, [r3, #8]
    hdma->Instance->CMAR = DstAddress;
 8002c44:	68fb      	ldr	r3, [r7, #12]
 8002c46:	681b      	ldr	r3, [r3, #0]
 8002c48:	687a      	ldr	r2, [r7, #4]
 8002c4a:	60da      	str	r2, [r3, #12]
}
 8002c4c:	bf00      	nop
 8002c4e:	3714      	adds	r7, #20
 8002c50:	46bd      	mov	sp, r7
 8002c52:	bc80      	pop	{r7}
 8002c54:	4770      	bx	lr
	...

08002c58 <HAL_GPIO_Init>:
  * @param  GPIO_Init: pointer to a GPIO_InitTypeDef structure that contains
  *         the configuration information for the specified GPIO peripheral.
  * @retval None
  */
void HAL_GPIO_Init(GPIO_TypeDef  *GPIOx, GPIO_InitTypeDef *GPIO_Init)
{
 8002c58:	b480      	push	{r7}
 8002c5a:	b08b      	sub	sp, #44	; 0x2c
 8002c5c:	af00      	add	r7, sp, #0
 8002c5e:	6078      	str	r0, [r7, #4]
 8002c60:	6039      	str	r1, [r7, #0]
  uint32_t position = 0x00u;
 8002c62:	2300      	movs	r3, #0
 8002c64:	627b      	str	r3, [r7, #36]	; 0x24
  uint32_t ioposition;
  uint32_t iocurrent;
  uint32_t temp;
  uint32_t config = 0x00u;
 8002c66:	2300      	movs	r3, #0
 8002c68:	623b      	str	r3, [r7, #32]
  assert_param(IS_GPIO_ALL_INSTANCE(GPIOx));
  assert_param(IS_GPIO_PIN(GPIO_Init->Pin));
  assert_param(IS_GPIO_MODE(GPIO_Init->Mode));

  /* Configure the port pins */
  while (((GPIO_Init->Pin) >> position) != 0x00u)
 8002c6a:	e127      	b.n	8002ebc <HAL_GPIO_Init+0x264>
  {
    /* Get the IO position */
    ioposition = (0x01uL << position);
 8002c6c:	2201      	movs	r2, #1
 8002c6e:	6a7b      	ldr	r3, [r7, #36]	; 0x24
 8002c70:	fa02 f303 	lsl.w	r3, r2, r3
 8002c74:	61fb      	str	r3, [r7, #28]

    /* Get the current IO position */
    iocurrent = (uint32_t)(GPIO_Init->Pin) & ioposition;
 8002c76:	683b      	ldr	r3, [r7, #0]
 8002c78:	681b      	ldr	r3, [r3, #0]
 8002c7a:	69fa      	ldr	r2, [r7, #28]
 8002c7c:	4013      	ands	r3, r2
 8002c7e:	61bb      	str	r3, [r7, #24]

    if (iocurrent == ioposition)
 8002c80:	69ba      	ldr	r2, [r7, #24]
 8002c82:	69fb      	ldr	r3, [r7, #28]
 8002c84:	429a      	cmp	r2, r3
 8002c86:	f040 8116 	bne.w	8002eb6 <HAL_GPIO_Init+0x25e>
    {
      /* Check the Alternate function parameters */
      assert_param(IS_GPIO_AF_INSTANCE(GPIOx));

      /* Based on the required mode, filling config variable with MODEy[1:0] and CNFy[3:2] corresponding bits */
      switch (GPIO_Init->Mode)
 8002c8a:	683b      	ldr	r3, [r7, #0]
 8002c8c:	685b      	ldr	r3, [r3, #4]
 8002c8e:	2b12      	cmp	r3, #18
 8002c90:	d034      	beq.n	8002cfc <HAL_GPIO_Init+0xa4>
 8002c92:	2b12      	cmp	r3, #18
 8002c94:	d80d      	bhi.n	8002cb2 <HAL_GPIO_Init+0x5a>
 8002c96:	2b02      	cmp	r3, #2
 8002c98:	d02b      	beq.n	8002cf2 <HAL_GPIO_Init+0x9a>
 8002c9a:	2b02      	cmp	r3, #2
 8002c9c:	d804      	bhi.n	8002ca8 <HAL_GPIO_Init+0x50>
 8002c9e:	2b00      	cmp	r3, #0
 8002ca0:	d031      	beq.n	8002d06 <HAL_GPIO_Init+0xae>
 8002ca2:	2b01      	cmp	r3, #1
 8002ca4:	d01c      	beq.n	8002ce0 <HAL_GPIO_Init+0x88>
          config = GPIO_CR_MODE_INPUT + GPIO_CR_CNF_ANALOG;
          break;

        /* Parameters are checked with assert_param */
        default:
          break;
 8002ca6:	e048      	b.n	8002d3a <HAL_GPIO_Init+0xe2>
      switch (GPIO_Init->Mode)
 8002ca8:	2b03      	cmp	r3, #3
 8002caa:	d043      	beq.n	8002d34 <HAL_GPIO_Init+0xdc>
 8002cac:	2b11      	cmp	r3, #17
 8002cae:	d01b      	beq.n	8002ce8 <HAL_GPIO_Init+0x90>
          break;
 8002cb0:	e043      	b.n	8002d3a <HAL_GPIO_Init+0xe2>
      switch (GPIO_Init->Mode)
 8002cb2:	4a89      	ldr	r2, [pc, #548]	; (8002ed8 <HAL_GPIO_Init+0x280>)
 8002cb4:	4293      	cmp	r3, r2
 8002cb6:	d026      	beq.n	8002d06 <HAL_GPIO_Init+0xae>
 8002cb8:	4a87      	ldr	r2, [pc, #540]	; (8002ed8 <HAL_GPIO_Init+0x280>)
 8002cba:	4293      	cmp	r3, r2
 8002cbc:	d806      	bhi.n	8002ccc <HAL_GPIO_Init+0x74>
 8002cbe:	4a87      	ldr	r2, [pc, #540]	; (8002edc <HAL_GPIO_Init+0x284>)
 8002cc0:	4293      	cmp	r3, r2
 8002cc2:	d020      	beq.n	8002d06 <HAL_GPIO_Init+0xae>
 8002cc4:	4a86      	ldr	r2, [pc, #536]	; (8002ee0 <HAL_GPIO_Init+0x288>)
 8002cc6:	4293      	cmp	r3, r2
 8002cc8:	d01d      	beq.n	8002d06 <HAL_GPIO_Init+0xae>
          break;
 8002cca:	e036      	b.n	8002d3a <HAL_GPIO_Init+0xe2>
      switch (GPIO_Init->Mode)
 8002ccc:	4a85      	ldr	r2, [pc, #532]	; (8002ee4 <HAL_GPIO_Init+0x28c>)
 8002cce:	4293      	cmp	r3, r2
 8002cd0:	d019      	beq.n	8002d06 <HAL_GPIO_Init+0xae>
 8002cd2:	4a85      	ldr	r2, [pc, #532]	; (8002ee8 <HAL_GPIO_Init+0x290>)
 8002cd4:	4293      	cmp	r3, r2
 8002cd6:	d016      	beq.n	8002d06 <HAL_GPIO_Init+0xae>
 8002cd8:	4a84      	ldr	r2, [pc, #528]	; (8002eec <HAL_GPIO_Init+0x294>)
 8002cda:	4293      	cmp	r3, r2
 8002cdc:	d013      	beq.n	8002d06 <HAL_GPIO_Init+0xae>
          break;
 8002cde:	e02c      	b.n	8002d3a <HAL_GPIO_Init+0xe2>
          config = GPIO_Init->Speed + GPIO_CR_CNF_GP_OUTPUT_PP;
 8002ce0:	683b      	ldr	r3, [r7, #0]
 8002ce2:	68db      	ldr	r3, [r3, #12]
 8002ce4:	623b      	str	r3, [r7, #32]
          break;
 8002ce6:	e028      	b.n	8002d3a <HAL_GPIO_Init+0xe2>
          config = GPIO_Init->Speed + GPIO_CR_CNF_GP_OUTPUT_OD;
 8002ce8:	683b      	ldr	r3, [r7, #0]
 8002cea:	68db      	ldr	r3, [r3, #12]
 8002cec:	3304      	adds	r3, #4
 8002cee:	623b      	str	r3, [r7, #32]
          break;
 8002cf0:	e023      	b.n	8002d3a <HAL_GPIO_Init+0xe2>
          config = GPIO_Init->Speed + GPIO_CR_CNF_AF_OUTPUT_PP;
 8002cf2:	683b      	ldr	r3, [r7, #0]
 8002cf4:	68db      	ldr	r3, [r3, #12]
 8002cf6:	3308      	adds	r3, #8
 8002cf8:	623b      	str	r3, [r7, #32]
          break;
 8002cfa:	e01e      	b.n	8002d3a <HAL_GPIO_Init+0xe2>
          config = GPIO_Init->Speed + GPIO_CR_CNF_AF_OUTPUT_OD;
 8002cfc:	683b      	ldr	r3, [r7, #0]
 8002cfe:	68db      	ldr	r3, [r3, #12]
 8002d00:	330c      	adds	r3, #12
 8002d02:	623b      	str	r3, [r7, #32]
          break;
 8002d04:	e019      	b.n	8002d3a <HAL_GPIO_Init+0xe2>
          if (GPIO_Init->Pull == GPIO_NOPULL)
 8002d06:	683b      	ldr	r3, [r7, #0]
 8002d08:	689b      	ldr	r3, [r3, #8]
 8002d0a:	2b00      	cmp	r3, #0
 8002d0c:	d102      	bne.n	8002d14 <HAL_GPIO_Init+0xbc>
            config = GPIO_CR_MODE_INPUT + GPIO_CR_CNF_INPUT_FLOATING;
 8002d0e:	2304      	movs	r3, #4
 8002d10:	623b      	str	r3, [r7, #32]
          break;
 8002d12:	e012      	b.n	8002d3a <HAL_GPIO_Init+0xe2>
          else if (GPIO_Init->Pull == GPIO_PULLUP)
 8002d14:	683b      	ldr	r3, [r7, #0]
 8002d16:	689b      	ldr	r3, [r3, #8]
 8002d18:	2b01      	cmp	r3, #1
 8002d1a:	d105      	bne.n	8002d28 <HAL_GPIO_Init+0xd0>
            config = GPIO_CR_MODE_INPUT + GPIO_CR_CNF_INPUT_PU_PD;
 8002d1c:	2308      	movs	r3, #8
 8002d1e:	623b      	str	r3, [r7, #32]
            GPIOx->BSRR = ioposition;
 8002d20:	687b      	ldr	r3, [r7, #4]
 8002d22:	69fa      	ldr	r2, [r7, #28]
 8002d24:	611a      	str	r2, [r3, #16]
          break;
 8002d26:	e008      	b.n	8002d3a <HAL_GPIO_Init+0xe2>
            config = GPIO_CR_MODE_INPUT + GPIO_CR_CNF_INPUT_PU_PD;
 8002d28:	2308      	movs	r3, #8
 8002d2a:	623b      	str	r3, [r7, #32]
            GPIOx->BRR = ioposition;
 8002d2c:	687b      	ldr	r3, [r7, #4]
 8002d2e:	69fa      	ldr	r2, [r7, #28]
 8002d30:	615a      	str	r2, [r3, #20]
          break;
 8002d32:	e002      	b.n	8002d3a <HAL_GPIO_Init+0xe2>
          config = GPIO_CR_MODE_INPUT + GPIO_CR_CNF_ANALOG;
 8002d34:	2300      	movs	r3, #0
 8002d36:	623b      	str	r3, [r7, #32]
          break;
 8002d38:	bf00      	nop
      }

      /* Check if the current bit belongs to first half or last half of the pin count number
       in order to address CRH or CRL register*/
      configregister = (iocurrent < GPIO_PIN_8) ? &GPIOx->CRL     : &GPIOx->CRH;
 8002d3a:	69bb      	ldr	r3, [r7, #24]
 8002d3c:	2bff      	cmp	r3, #255	; 0xff
 8002d3e:	d801      	bhi.n	8002d44 <HAL_GPIO_Init+0xec>
 8002d40:	687b      	ldr	r3, [r7, #4]
 8002d42:	e001      	b.n	8002d48 <HAL_GPIO_Init+0xf0>
 8002d44:	687b      	ldr	r3, [r7, #4]
 8002d46:	3304      	adds	r3, #4
 8002d48:	617b      	str	r3, [r7, #20]
      registeroffset = (iocurrent < GPIO_PIN_8) ? (position << 2u) : ((position - 8u) << 2u);
 8002d4a:	69bb      	ldr	r3, [r7, #24]
 8002d4c:	2bff      	cmp	r3, #255	; 0xff
 8002d4e:	d802      	bhi.n	8002d56 <HAL_GPIO_Init+0xfe>
 8002d50:	6a7b      	ldr	r3, [r7, #36]	; 0x24
 8002d52:	009b      	lsls	r3, r3, #2
 8002d54:	e002      	b.n	8002d5c <HAL_GPIO_Init+0x104>
 8002d56:	6a7b      	ldr	r3, [r7, #36]	; 0x24
 8002d58:	3b08      	subs	r3, #8
 8002d5a:	009b      	lsls	r3, r3, #2
 8002d5c:	613b      	str	r3, [r7, #16]

      /* Apply the new configuration of the pin to the register */
      MODIFY_REG((*configregister), ((GPIO_CRL_MODE0 | GPIO_CRL_CNF0) << registeroffset), (config << registeroffset));
 8002d5e:	697b      	ldr	r3, [r7, #20]
 8002d60:	681a      	ldr	r2, [r3, #0]
 8002d62:	210f      	movs	r1, #15
 8002d64:	693b      	ldr	r3, [r7, #16]
 8002d66:	fa01 f303 	lsl.w	r3, r1, r3
 8002d6a:	43db      	mvns	r3, r3
 8002d6c:	401a      	ands	r2, r3
 8002d6e:	6a39      	ldr	r1, [r7, #32]
 8002d70:	693b      	ldr	r3, [r7, #16]
 8002d72:	fa01 f303 	lsl.w	r3, r1, r3
 8002d76:	431a      	orrs	r2, r3
 8002d78:	697b      	ldr	r3, [r7, #20]
 8002d7a:	601a      	str	r2, [r3, #0]

      /*--------------------- EXTI Mode Configuration ------------------------*/
      /* Configure the External Interrupt or event for the current IO */
      if ((GPIO_Init->Mode & EXTI_MODE) == EXTI_MODE)
 8002d7c:	683b      	ldr	r3, [r7, #0]
 8002d7e:	685b      	ldr	r3, [r3, #4]
 8002d80:	f003 5380 	and.w	r3, r3, #268435456	; 0x10000000
 8002d84:	2b00      	cmp	r3, #0
 8002d86:	f000 8096 	beq.w	8002eb6 <HAL_GPIO_Init+0x25e>
      {
        /* Enable AFIO Clock */
        __HAL_RCC_AFIO_CLK_ENABLE();
 8002d8a:	4b59      	ldr	r3, [pc, #356]	; (8002ef0 <HAL_GPIO_Init+0x298>)
 8002d8c:	699b      	ldr	r3, [r3, #24]
 8002d8e:	4a58      	ldr	r2, [pc, #352]	; (8002ef0 <HAL_GPIO_Init+0x298>)
 8002d90:	f043 0301 	orr.w	r3, r3, #1
 8002d94:	6193      	str	r3, [r2, #24]
 8002d96:	4b56      	ldr	r3, [pc, #344]	; (8002ef0 <HAL_GPIO_Init+0x298>)
 8002d98:	699b      	ldr	r3, [r3, #24]
 8002d9a:	f003 0301 	and.w	r3, r3, #1
 8002d9e:	60bb      	str	r3, [r7, #8]
 8002da0:	68bb      	ldr	r3, [r7, #8]
        temp = AFIO->EXTICR[position >> 2u];
 8002da2:	4a54      	ldr	r2, [pc, #336]	; (8002ef4 <HAL_GPIO_Init+0x29c>)
 8002da4:	6a7b      	ldr	r3, [r7, #36]	; 0x24
 8002da6:	089b      	lsrs	r3, r3, #2
 8002da8:	3302      	adds	r3, #2
 8002daa:	f852 3023 	ldr.w	r3, [r2, r3, lsl #2]
 8002dae:	60fb      	str	r3, [r7, #12]
        CLEAR_BIT(temp, (0x0Fu) << (4u * (position & 0x03u)));
 8002db0:	6a7b      	ldr	r3, [r7, #36]	; 0x24
 8002db2:	f003 0303 	and.w	r3, r3, #3
 8002db6:	009b      	lsls	r3, r3, #2
 8002db8:	220f      	movs	r2, #15
 8002dba:	fa02 f303 	lsl.w	r3, r2, r3
 8002dbe:	43db      	mvns	r3, r3
 8002dc0:	68fa      	ldr	r2, [r7, #12]
 8002dc2:	4013      	ands	r3, r2
 8002dc4:	60fb      	str	r3, [r7, #12]
        SET_BIT(temp, (GPIO_GET_INDEX(GPIOx)) << (4u * (position & 0x03u)));
 8002dc6:	687b      	ldr	r3, [r7, #4]
 8002dc8:	4a4b      	ldr	r2, [pc, #300]	; (8002ef8 <HAL_GPIO_Init+0x2a0>)
 8002dca:	4293      	cmp	r3, r2
 8002dcc:	d013      	beq.n	8002df6 <HAL_GPIO_Init+0x19e>
 8002dce:	687b      	ldr	r3, [r7, #4]
 8002dd0:	4a4a      	ldr	r2, [pc, #296]	; (8002efc <HAL_GPIO_Init+0x2a4>)
 8002dd2:	4293      	cmp	r3, r2
 8002dd4:	d00d      	beq.n	8002df2 <HAL_GPIO_Init+0x19a>
 8002dd6:	687b      	ldr	r3, [r7, #4]
 8002dd8:	4a49      	ldr	r2, [pc, #292]	; (8002f00 <HAL_GPIO_Init+0x2a8>)
 8002dda:	4293      	cmp	r3, r2
 8002ddc:	d007      	beq.n	8002dee <HAL_GPIO_Init+0x196>
 8002dde:	687b      	ldr	r3, [r7, #4]
 8002de0:	4a48      	ldr	r2, [pc, #288]	; (8002f04 <HAL_GPIO_Init+0x2ac>)
 8002de2:	4293      	cmp	r3, r2
 8002de4:	d101      	bne.n	8002dea <HAL_GPIO_Init+0x192>
 8002de6:	2303      	movs	r3, #3
 8002de8:	e006      	b.n	8002df8 <HAL_GPIO_Init+0x1a0>
 8002dea:	2304      	movs	r3, #4
 8002dec:	e004      	b.n	8002df8 <HAL_GPIO_Init+0x1a0>
 8002dee:	2302      	movs	r3, #2
 8002df0:	e002      	b.n	8002df8 <HAL_GPIO_Init+0x1a0>
 8002df2:	2301      	movs	r3, #1
 8002df4:	e000      	b.n	8002df8 <HAL_GPIO_Init+0x1a0>
 8002df6:	2300      	movs	r3, #0
 8002df8:	6a7a      	ldr	r2, [r7, #36]	; 0x24
 8002dfa:	f002 0203 	and.w	r2, r2, #3
 8002dfe:	0092      	lsls	r2, r2, #2
 8002e00:	4093      	lsls	r3, r2
 8002e02:	68fa      	ldr	r2, [r7, #12]
 8002e04:	4313      	orrs	r3, r2
 8002e06:	60fb      	str	r3, [r7, #12]
        AFIO->EXTICR[position >> 2u] = temp;
 8002e08:	493a      	ldr	r1, [pc, #232]	; (8002ef4 <HAL_GPIO_Init+0x29c>)
 8002e0a:	6a7b      	ldr	r3, [r7, #36]	; 0x24
 8002e0c:	089b      	lsrs	r3, r3, #2
 8002e0e:	3302      	adds	r3, #2
 8002e10:	68fa      	ldr	r2, [r7, #12]
 8002e12:	f841 2023 	str.w	r2, [r1, r3, lsl #2]


        /* Configure the interrupt mask */
        if ((GPIO_Init->Mode & GPIO_MODE_IT) == GPIO_MODE_IT)
 8002e16:	683b      	ldr	r3, [r7, #0]
 8002e18:	685b      	ldr	r3, [r3, #4]
 8002e1a:	f403 3380 	and.w	r3, r3, #65536	; 0x10000
 8002e1e:	2b00      	cmp	r3, #0
 8002e20:	d006      	beq.n	8002e30 <HAL_GPIO_Init+0x1d8>
        {
          SET_BIT(EXTI->IMR, iocurrent);
 8002e22:	4b39      	ldr	r3, [pc, #228]	; (8002f08 <HAL_GPIO_Init+0x2b0>)
 8002e24:	681a      	ldr	r2, [r3, #0]
 8002e26:	4938      	ldr	r1, [pc, #224]	; (8002f08 <HAL_GPIO_Init+0x2b0>)
 8002e28:	69bb      	ldr	r3, [r7, #24]
 8002e2a:	4313      	orrs	r3, r2
 8002e2c:	600b      	str	r3, [r1, #0]
 8002e2e:	e006      	b.n	8002e3e <HAL_GPIO_Init+0x1e6>
        }
        else
        {
          CLEAR_BIT(EXTI->IMR, iocurrent);
 8002e30:	4b35      	ldr	r3, [pc, #212]	; (8002f08 <HAL_GPIO_Init+0x2b0>)
 8002e32:	681a      	ldr	r2, [r3, #0]
 8002e34:	69bb      	ldr	r3, [r7, #24]
 8002e36:	43db      	mvns	r3, r3
 8002e38:	4933      	ldr	r1, [pc, #204]	; (8002f08 <HAL_GPIO_Init+0x2b0>)
 8002e3a:	4013      	ands	r3, r2
 8002e3c:	600b      	str	r3, [r1, #0]
        }

        /* Configure the event mask */
        if ((GPIO_Init->Mode & GPIO_MODE_EVT) == GPIO_MODE_EVT)
 8002e3e:	683b      	ldr	r3, [r7, #0]
 8002e40:	685b      	ldr	r3, [r3, #4]
 8002e42:	f403 3300 	and.w	r3, r3, #131072	; 0x20000
 8002e46:	2b00      	cmp	r3, #0
 8002e48:	d006      	beq.n	8002e58 <HAL_GPIO_Init+0x200>
        {
          SET_BIT(EXTI->EMR, iocurrent);
 8002e4a:	4b2f      	ldr	r3, [pc, #188]	; (8002f08 <HAL_GPIO_Init+0x2b0>)
 8002e4c:	685a      	ldr	r2, [r3, #4]
 8002e4e:	492e      	ldr	r1, [pc, #184]	; (8002f08 <HAL_GPIO_Init+0x2b0>)
 8002e50:	69bb      	ldr	r3, [r7, #24]
 8002e52:	4313      	orrs	r3, r2
 8002e54:	604b      	str	r3, [r1, #4]
 8002e56:	e006      	b.n	8002e66 <HAL_GPIO_Init+0x20e>
        }
        else
        {
          CLEAR_BIT(EXTI->EMR, iocurrent);
 8002e58:	4b2b      	ldr	r3, [pc, #172]	; (8002f08 <HAL_GPIO_Init+0x2b0>)
 8002e5a:	685a      	ldr	r2, [r3, #4]
 8002e5c:	69bb      	ldr	r3, [r7, #24]
 8002e5e:	43db      	mvns	r3, r3
 8002e60:	4929      	ldr	r1, [pc, #164]	; (8002f08 <HAL_GPIO_Init+0x2b0>)
 8002e62:	4013      	ands	r3, r2
 8002e64:	604b      	str	r3, [r1, #4]
        }

        /* Enable or disable the rising trigger */
        if ((GPIO_Init->Mode & RISING_EDGE) == RISING_EDGE)
 8002e66:	683b      	ldr	r3, [r7, #0]
 8002e68:	685b      	ldr	r3, [r3, #4]
 8002e6a:	f403 1380 	and.w	r3, r3, #1048576	; 0x100000
 8002e6e:	2b00      	cmp	r3, #0
 8002e70:	d006      	beq.n	8002e80 <HAL_GPIO_Init+0x228>
        {
          SET_BIT(EXTI->RTSR, iocurrent);
 8002e72:	4b25      	ldr	r3, [pc, #148]	; (8002f08 <HAL_GPIO_Init+0x2b0>)
 8002e74:	689a      	ldr	r2, [r3, #8]
 8002e76:	4924      	ldr	r1, [pc, #144]	; (8002f08 <HAL_GPIO_Init+0x2b0>)
 8002e78:	69bb      	ldr	r3, [r7, #24]
 8002e7a:	4313      	orrs	r3, r2
 8002e7c:	608b      	str	r3, [r1, #8]
 8002e7e:	e006      	b.n	8002e8e <HAL_GPIO_Init+0x236>
        }
        else
        {
          CLEAR_BIT(EXTI->RTSR, iocurrent);
 8002e80:	4b21      	ldr	r3, [pc, #132]	; (8002f08 <HAL_GPIO_Init+0x2b0>)
 8002e82:	689a      	ldr	r2, [r3, #8]
 8002e84:	69bb      	ldr	r3, [r7, #24]
 8002e86:	43db      	mvns	r3, r3
 8002e88:	491f      	ldr	r1, [pc, #124]	; (8002f08 <HAL_GPIO_Init+0x2b0>)
 8002e8a:	4013      	ands	r3, r2
 8002e8c:	608b      	str	r3, [r1, #8]
        }

        /* Enable or disable the falling trigger */
        if ((GPIO_Init->Mode & FALLING_EDGE) == FALLING_EDGE)
 8002e8e:	683b      	ldr	r3, [r7, #0]
 8002e90:	685b      	ldr	r3, [r3, #4]
 8002e92:	f403 1300 	and.w	r3, r3, #2097152	; 0x200000
 8002e96:	2b00      	cmp	r3, #0
 8002e98:	d006      	beq.n	8002ea8 <HAL_GPIO_Init+0x250>
        {
          SET_BIT(EXTI->FTSR, iocurrent);
 8002e9a:	4b1b      	ldr	r3, [pc, #108]	; (8002f08 <HAL_GPIO_Init+0x2b0>)
 8002e9c:	68da      	ldr	r2, [r3, #12]
 8002e9e:	491a      	ldr	r1, [pc, #104]	; (8002f08 <HAL_GPIO_Init+0x2b0>)
 8002ea0:	69bb      	ldr	r3, [r7, #24]
 8002ea2:	4313      	orrs	r3, r2
 8002ea4:	60cb      	str	r3, [r1, #12]
 8002ea6:	e006      	b.n	8002eb6 <HAL_GPIO_Init+0x25e>
        }
        else
        {
          CLEAR_BIT(EXTI->FTSR, iocurrent);
 8002ea8:	4b17      	ldr	r3, [pc, #92]	; (8002f08 <HAL_GPIO_Init+0x2b0>)
 8002eaa:	68da      	ldr	r2, [r3, #12]
 8002eac:	69bb      	ldr	r3, [r7, #24]
 8002eae:	43db      	mvns	r3, r3
 8002eb0:	4915      	ldr	r1, [pc, #84]	; (8002f08 <HAL_GPIO_Init+0x2b0>)
 8002eb2:	4013      	ands	r3, r2
 8002eb4:	60cb      	str	r3, [r1, #12]
        }
      }
    }

	position++;
 8002eb6:	6a7b      	ldr	r3, [r7, #36]	; 0x24
 8002eb8:	3301      	adds	r3, #1
 8002eba:	627b      	str	r3, [r7, #36]	; 0x24
  while (((GPIO_Init->Pin) >> position) != 0x00u)
 8002ebc:	683b      	ldr	r3, [r7, #0]
 8002ebe:	681a      	ldr	r2, [r3, #0]
 8002ec0:	6a7b      	ldr	r3, [r7, #36]	; 0x24
 8002ec2:	fa22 f303 	lsr.w	r3, r2, r3
 8002ec6:	2b00      	cmp	r3, #0
 8002ec8:	f47f aed0 	bne.w	8002c6c <HAL_GPIO_Init+0x14>
  }
}
 8002ecc:	bf00      	nop
 8002ece:	372c      	adds	r7, #44	; 0x2c
 8002ed0:	46bd      	mov	sp, r7
 8002ed2:	bc80      	pop	{r7}
 8002ed4:	4770      	bx	lr
 8002ed6:	bf00      	nop
 8002ed8:	10210000 	.word	0x10210000
 8002edc:	10110000 	.word	0x10110000
 8002ee0:	10120000 	.word	0x10120000
 8002ee4:	10310000 	.word	0x10310000
 8002ee8:	10320000 	.word	0x10320000
 8002eec:	10220000 	.word	0x10220000
 8002ef0:	40021000 	.word	0x40021000
 8002ef4:	40010000 	.word	0x40010000
 8002ef8:	40010800 	.word	0x40010800
 8002efc:	40010c00 	.word	0x40010c00
 8002f00:	40011000 	.word	0x40011000
 8002f04:	40011400 	.word	0x40011400
 8002f08:	40010400 	.word	0x40010400

08002f0c <HAL_GPIO_ReadPin>:
  * @param  GPIO_Pin: specifies the port bit to read.
  *         This parameter can be GPIO_PIN_x where x can be (0..15).
  * @retval The input port pin value.
  */
GPIO_PinState HAL_GPIO_ReadPin(GPIO_TypeDef *GPIOx, uint16_t GPIO_Pin)
{
 8002f0c:	b480      	push	{r7}
 8002f0e:	b085      	sub	sp, #20
 8002f10:	af00      	add	r7, sp, #0
 8002f12:	6078      	str	r0, [r7, #4]
 8002f14:	460b      	mov	r3, r1
 8002f16:	807b      	strh	r3, [r7, #2]
  GPIO_PinState bitstatus;

  /* Check the parameters */
  assert_param(IS_GPIO_PIN(GPIO_Pin));

  if ((GPIOx->IDR & GPIO_Pin) != (uint32_t)GPIO_PIN_RESET)
 8002f18:	687b      	ldr	r3, [r7, #4]
 8002f1a:	689a      	ldr	r2, [r3, #8]
 8002f1c:	887b      	ldrh	r3, [r7, #2]
 8002f1e:	4013      	ands	r3, r2
 8002f20:	2b00      	cmp	r3, #0
 8002f22:	d002      	beq.n	8002f2a <HAL_GPIO_ReadPin+0x1e>
  {
    bitstatus = GPIO_PIN_SET;
 8002f24:	2301      	movs	r3, #1
 8002f26:	73fb      	strb	r3, [r7, #15]
 8002f28:	e001      	b.n	8002f2e <HAL_GPIO_ReadPin+0x22>
  }
  else
  {
    bitstatus = GPIO_PIN_RESET;
 8002f2a:	2300      	movs	r3, #0
 8002f2c:	73fb      	strb	r3, [r7, #15]
  }
  return bitstatus;
 8002f2e:	7bfb      	ldrb	r3, [r7, #15]
}
 8002f30:	4618      	mov	r0, r3
 8002f32:	3714      	adds	r7, #20
 8002f34:	46bd      	mov	sp, r7
 8002f36:	bc80      	pop	{r7}
 8002f38:	4770      	bx	lr
	...

08002f3c <HAL_I2C_Init>:
  * @param  hi2c Pointer to a I2C_HandleTypeDef structure that contains
  *                the configuration information for the specified I2C.
  * @retval HAL status
  */
HAL_StatusTypeDef HAL_I2C_Init(I2C_HandleTypeDef *hi2c)
{
 8002f3c:	b580      	push	{r7, lr}
 8002f3e:	b084      	sub	sp, #16
 8002f40:	af00      	add	r7, sp, #0
 8002f42:	6078      	str	r0, [r7, #4]
  uint32_t freqrange;
  uint32_t pclk1;

  /* Check the I2C handle allocation */
  if (hi2c == NULL)
 8002f44:	687b      	ldr	r3, [r7, #4]
 8002f46:	2b00      	cmp	r3, #0
 8002f48:	d101      	bne.n	8002f4e <HAL_I2C_Init+0x12>
  {
    return HAL_ERROR;
 8002f4a:	2301      	movs	r3, #1
 8002f4c:	e10f      	b.n	800316e <HAL_I2C_Init+0x232>
  assert_param(IS_I2C_DUAL_ADDRESS(hi2c->Init.DualAddressMode));
  assert_param(IS_I2C_OWN_ADDRESS2(hi2c->Init.OwnAddress2));
  assert_param(IS_I2C_GENERAL_CALL(hi2c->Init.GeneralCallMode));
  assert_param(IS_I2C_NO_STRETCH(hi2c->Init.NoStretchMode));

  if (hi2c->State == HAL_I2C_STATE_RESET)
 8002f4e:	687b      	ldr	r3, [r7, #4]
 8002f50:	f893 303d 	ldrb.w	r3, [r3, #61]	; 0x3d
 8002f54:	b2db      	uxtb	r3, r3
 8002f56:	2b00      	cmp	r3, #0
 8002f58:	d106      	bne.n	8002f68 <HAL_I2C_Init+0x2c>
  {
    /* Allocate lock resource and initialize it */
    hi2c->Lock = HAL_UNLOCKED;
 8002f5a:	687b      	ldr	r3, [r7, #4]
 8002f5c:	2200      	movs	r2, #0
 8002f5e:	f883 203c 	strb.w	r2, [r3, #60]	; 0x3c

    /* Init the low level hardware : GPIO, CLOCK, NVIC */
    hi2c->MspInitCallback(hi2c);
#else
    /* Init the low level hardware : GPIO, CLOCK, NVIC */
    HAL_I2C_MspInit(hi2c);
 8002f62:	6878      	ldr	r0, [r7, #4]
 8002f64:	f7fd fee0 	bl	8000d28 <HAL_I2C_MspInit>
#endif /* USE_HAL_I2C_REGISTER_CALLBACKS */
  }

  hi2c->State = HAL_I2C_STATE_BUSY;
 8002f68:	687b      	ldr	r3, [r7, #4]
 8002f6a:	2224      	movs	r2, #36	; 0x24
 8002f6c:	f883 203d 	strb.w	r2, [r3, #61]	; 0x3d

  /* Disable the selected I2C peripheral */
  __HAL_I2C_DISABLE(hi2c);
 8002f70:	687b      	ldr	r3, [r7, #4]
 8002f72:	681b      	ldr	r3, [r3, #0]
 8002f74:	681a      	ldr	r2, [r3, #0]
 8002f76:	687b      	ldr	r3, [r7, #4]
 8002f78:	681b      	ldr	r3, [r3, #0]
 8002f7a:	f022 0201 	bic.w	r2, r2, #1
 8002f7e:	601a      	str	r2, [r3, #0]

  /* Get PCLK1 frequency */
  pclk1 = HAL_RCC_GetPCLK1Freq();
 8002f80:	f000 ffd4 	bl	8003f2c <HAL_RCC_GetPCLK1Freq>
 8002f84:	60f8      	str	r0, [r7, #12]

  /* Check the minimum allowed PCLK1 frequency */
  if (I2C_MIN_PCLK_FREQ(pclk1, hi2c->Init.ClockSpeed) == 1U)
 8002f86:	687b      	ldr	r3, [r7, #4]
 8002f88:	685b      	ldr	r3, [r3, #4]
 8002f8a:	4a7b      	ldr	r2, [pc, #492]	; (8003178 <HAL_I2C_Init+0x23c>)
 8002f8c:	4293      	cmp	r3, r2
 8002f8e:	d807      	bhi.n	8002fa0 <HAL_I2C_Init+0x64>
 8002f90:	68fb      	ldr	r3, [r7, #12]
 8002f92:	4a7a      	ldr	r2, [pc, #488]	; (800317c <HAL_I2C_Init+0x240>)
 8002f94:	4293      	cmp	r3, r2
 8002f96:	bf94      	ite	ls
 8002f98:	2301      	movls	r3, #1
 8002f9a:	2300      	movhi	r3, #0
 8002f9c:	b2db      	uxtb	r3, r3
 8002f9e:	e006      	b.n	8002fae <HAL_I2C_Init+0x72>
 8002fa0:	68fb      	ldr	r3, [r7, #12]
 8002fa2:	4a77      	ldr	r2, [pc, #476]	; (8003180 <HAL_I2C_Init+0x244>)
 8002fa4:	4293      	cmp	r3, r2
 8002fa6:	bf94      	ite	ls
 8002fa8:	2301      	movls	r3, #1
 8002faa:	2300      	movhi	r3, #0
 8002fac:	b2db      	uxtb	r3, r3
 8002fae:	2b00      	cmp	r3, #0
 8002fb0:	d001      	beq.n	8002fb6 <HAL_I2C_Init+0x7a>
  {
    return HAL_ERROR;
 8002fb2:	2301      	movs	r3, #1
 8002fb4:	e0db      	b.n	800316e <HAL_I2C_Init+0x232>
  }

  /* Calculate frequency range */
  freqrange = I2C_FREQRANGE(pclk1);
 8002fb6:	68fb      	ldr	r3, [r7, #12]
 8002fb8:	4a72      	ldr	r2, [pc, #456]	; (8003184 <HAL_I2C_Init+0x248>)
 8002fba:	fba2 2303 	umull	r2, r3, r2, r3
 8002fbe:	0c9b      	lsrs	r3, r3, #18
 8002fc0:	60bb      	str	r3, [r7, #8]

  /*---------------------------- I2Cx CR2 Configuration ----------------------*/
  /* Configure I2Cx: Frequency range */
  MODIFY_REG(hi2c->Instance->CR2, I2C_CR2_FREQ, freqrange);
 8002fc2:	687b      	ldr	r3, [r7, #4]
 8002fc4:	681b      	ldr	r3, [r3, #0]
 8002fc6:	685b      	ldr	r3, [r3, #4]
 8002fc8:	f023 013f 	bic.w	r1, r3, #63	; 0x3f
 8002fcc:	687b      	ldr	r3, [r7, #4]
 8002fce:	681b      	ldr	r3, [r3, #0]
 8002fd0:	68ba      	ldr	r2, [r7, #8]
 8002fd2:	430a      	orrs	r2, r1
 8002fd4:	605a      	str	r2, [r3, #4]

  /*---------------------------- I2Cx TRISE Configuration --------------------*/
  /* Configure I2Cx: Rise Time */
  MODIFY_REG(hi2c->Instance->TRISE, I2C_TRISE_TRISE, I2C_RISE_TIME(freqrange, hi2c->Init.ClockSpeed));
 8002fd6:	687b      	ldr	r3, [r7, #4]
 8002fd8:	681b      	ldr	r3, [r3, #0]
 8002fda:	6a1b      	ldr	r3, [r3, #32]
 8002fdc:	f023 013f 	bic.w	r1, r3, #63	; 0x3f
 8002fe0:	687b      	ldr	r3, [r7, #4]
 8002fe2:	685b      	ldr	r3, [r3, #4]
 8002fe4:	4a64      	ldr	r2, [pc, #400]	; (8003178 <HAL_I2C_Init+0x23c>)
 8002fe6:	4293      	cmp	r3, r2
 8002fe8:	d802      	bhi.n	8002ff0 <HAL_I2C_Init+0xb4>
 8002fea:	68bb      	ldr	r3, [r7, #8]
 8002fec:	3301      	adds	r3, #1
 8002fee:	e009      	b.n	8003004 <HAL_I2C_Init+0xc8>
 8002ff0:	68bb      	ldr	r3, [r7, #8]
 8002ff2:	f44f 7296 	mov.w	r2, #300	; 0x12c
 8002ff6:	fb02 f303 	mul.w	r3, r2, r3
 8002ffa:	4a63      	ldr	r2, [pc, #396]	; (8003188 <HAL_I2C_Init+0x24c>)
 8002ffc:	fba2 2303 	umull	r2, r3, r2, r3
 8003000:	099b      	lsrs	r3, r3, #6
 8003002:	3301      	adds	r3, #1
 8003004:	687a      	ldr	r2, [r7, #4]
 8003006:	6812      	ldr	r2, [r2, #0]
 8003008:	430b      	orrs	r3, r1
 800300a:	6213      	str	r3, [r2, #32]

  /*---------------------------- I2Cx CCR Configuration ----------------------*/
  /* Configure I2Cx: Speed */
  MODIFY_REG(hi2c->Instance->CCR, (I2C_CCR_FS | I2C_CCR_DUTY | I2C_CCR_CCR), I2C_SPEED(pclk1, hi2c->Init.ClockSpeed, hi2c->Init.DutyCycle));
 800300c:	687b      	ldr	r3, [r7, #4]
 800300e:	681b      	ldr	r3, [r3, #0]
 8003010:	69db      	ldr	r3, [r3, #28]
 8003012:	f423 424f 	bic.w	r2, r3, #52992	; 0xcf00
 8003016:	f022 02ff 	bic.w	r2, r2, #255	; 0xff
 800301a:	687b      	ldr	r3, [r7, #4]
 800301c:	685b      	ldr	r3, [r3, #4]
 800301e:	4956      	ldr	r1, [pc, #344]	; (8003178 <HAL_I2C_Init+0x23c>)
 8003020:	428b      	cmp	r3, r1
 8003022:	d80d      	bhi.n	8003040 <HAL_I2C_Init+0x104>
 8003024:	68fb      	ldr	r3, [r7, #12]
 8003026:	1e59      	subs	r1, r3, #1
 8003028:	687b      	ldr	r3, [r7, #4]
 800302a:	685b      	ldr	r3, [r3, #4]
 800302c:	005b      	lsls	r3, r3, #1
 800302e:	fbb1 f3f3 	udiv	r3, r1, r3
 8003032:	3301      	adds	r3, #1
 8003034:	f3c3 030b 	ubfx	r3, r3, #0, #12
 8003038:	2b04      	cmp	r3, #4
 800303a:	bf38      	it	cc
 800303c:	2304      	movcc	r3, #4
 800303e:	e04f      	b.n	80030e0 <HAL_I2C_Init+0x1a4>
 8003040:	687b      	ldr	r3, [r7, #4]
 8003042:	689b      	ldr	r3, [r3, #8]
 8003044:	2b00      	cmp	r3, #0
 8003046:	d111      	bne.n	800306c <HAL_I2C_Init+0x130>
 8003048:	68fb      	ldr	r3, [r7, #12]
 800304a:	1e58      	subs	r0, r3, #1
 800304c:	687b      	ldr	r3, [r7, #4]
 800304e:	6859      	ldr	r1, [r3, #4]
 8003050:	460b      	mov	r3, r1
 8003052:	005b      	lsls	r3, r3, #1
 8003054:	440b      	add	r3, r1
 8003056:	fbb0 f3f3 	udiv	r3, r0, r3
 800305a:	3301      	adds	r3, #1
 800305c:	f3c3 030b 	ubfx	r3, r3, #0, #12
 8003060:	2b00      	cmp	r3, #0
 8003062:	bf0c      	ite	eq
 8003064:	2301      	moveq	r3, #1
 8003066:	2300      	movne	r3, #0
 8003068:	b2db      	uxtb	r3, r3
 800306a:	e012      	b.n	8003092 <HAL_I2C_Init+0x156>
 800306c:	68fb      	ldr	r3, [r7, #12]
 800306e:	1e58      	subs	r0, r3, #1
 8003070:	687b      	ldr	r3, [r7, #4]
 8003072:	6859      	ldr	r1, [r3, #4]
 8003074:	460b      	mov	r3, r1
 8003076:	009b      	lsls	r3, r3, #2
 8003078:	440b      	add	r3, r1
 800307a:	0099      	lsls	r1, r3, #2
 800307c:	440b      	add	r3, r1
 800307e:	fbb0 f3f3 	udiv	r3, r0, r3
 8003082:	3301      	adds	r3, #1
 8003084:	f3c3 030b 	ubfx	r3, r3, #0, #12
 8003088:	2b00      	cmp	r3, #0
 800308a:	bf0c      	ite	eq
 800308c:	2301      	moveq	r3, #1
 800308e:	2300      	movne	r3, #0
 8003090:	b2db      	uxtb	r3, r3
 8003092:	2b00      	cmp	r3, #0
 8003094:	d001      	beq.n	800309a <HAL_I2C_Init+0x15e>
 8003096:	2301      	movs	r3, #1
 8003098:	e022      	b.n	80030e0 <HAL_I2C_Init+0x1a4>
 800309a:	687b      	ldr	r3, [r7, #4]
 800309c:	689b      	ldr	r3, [r3, #8]
 800309e:	2b00      	cmp	r3, #0
 80030a0:	d10e      	bne.n	80030c0 <HAL_I2C_Init+0x184>
 80030a2:	68fb      	ldr	r3, [r7, #12]
 80030a4:	1e58      	subs	r0, r3, #1
 80030a6:	687b      	ldr	r3, [r7, #4]
 80030a8:	6859      	ldr	r1, [r3, #4]
 80030aa:	460b      	mov	r3, r1
 80030ac:	005b      	lsls	r3, r3, #1
 80030ae:	440b      	add	r3, r1
 80030b0:	fbb0 f3f3 	udiv	r3, r0, r3
 80030b4:	3301      	adds	r3, #1
 80030b6:	f3c3 030b 	ubfx	r3, r3, #0, #12
 80030ba:	f443 4300 	orr.w	r3, r3, #32768	; 0x8000
 80030be:	e00f      	b.n	80030e0 <HAL_I2C_Init+0x1a4>
 80030c0:	68fb      	ldr	r3, [r7, #12]
 80030c2:	1e58      	subs	r0, r3, #1
 80030c4:	687b      	ldr	r3, [r7, #4]
 80030c6:	6859      	ldr	r1, [r3, #4]
 80030c8:	460b      	mov	r3, r1
 80030ca:	009b      	lsls	r3, r3, #2
 80030cc:	440b      	add	r3, r1
 80030ce:	0099      	lsls	r1, r3, #2
 80030d0:	440b      	add	r3, r1
 80030d2:	fbb0 f3f3 	udiv	r3, r0, r3
 80030d6:	3301      	adds	r3, #1
 80030d8:	f3c3 030b 	ubfx	r3, r3, #0, #12
 80030dc:	f443 4340 	orr.w	r3, r3, #49152	; 0xc000
 80030e0:	6879      	ldr	r1, [r7, #4]
 80030e2:	6809      	ldr	r1, [r1, #0]
 80030e4:	4313      	orrs	r3, r2
 80030e6:	61cb      	str	r3, [r1, #28]

  /*---------------------------- I2Cx CR1 Configuration ----------------------*/
  /* Configure I2Cx: Generalcall and NoStretch mode */
  MODIFY_REG(hi2c->Instance->CR1, (I2C_CR1_ENGC | I2C_CR1_NOSTRETCH), (hi2c->Init.GeneralCallMode | hi2c->Init.NoStretchMode));
 80030e8:	687b      	ldr	r3, [r7, #4]
 80030ea:	681b      	ldr	r3, [r3, #0]
 80030ec:	681b      	ldr	r3, [r3, #0]
 80030ee:	f023 01c0 	bic.w	r1, r3, #192	; 0xc0
 80030f2:	687b      	ldr	r3, [r7, #4]
 80030f4:	69da      	ldr	r2, [r3, #28]
 80030f6:	687b      	ldr	r3, [r7, #4]
 80030f8:	6a1b      	ldr	r3, [r3, #32]
 80030fa:	431a      	orrs	r2, r3
 80030fc:	687b      	ldr	r3, [r7, #4]
 80030fe:	681b      	ldr	r3, [r3, #0]
 8003100:	430a      	orrs	r2, r1
 8003102:	601a      	str	r2, [r3, #0]

  /*---------------------------- I2Cx OAR1 Configuration ---------------------*/
  /* Configure I2Cx: Own Address1 and addressing mode */
  MODIFY_REG(hi2c->Instance->OAR1, (I2C_OAR1_ADDMODE | I2C_OAR1_ADD8_9 | I2C_OAR1_ADD1_7 | I2C_OAR1_ADD0), (hi2c->Init.AddressingMode | hi2c->Init.OwnAddress1));
 8003104:	687b      	ldr	r3, [r7, #4]
 8003106:	681b      	ldr	r3, [r3, #0]
 8003108:	689b      	ldr	r3, [r3, #8]
 800310a:	f423 4303 	bic.w	r3, r3, #33536	; 0x8300
 800310e:	f023 03ff 	bic.w	r3, r3, #255	; 0xff
 8003112:	687a      	ldr	r2, [r7, #4]
 8003114:	6911      	ldr	r1, [r2, #16]
 8003116:	687a      	ldr	r2, [r7, #4]
 8003118:	68d2      	ldr	r2, [r2, #12]
 800311a:	4311      	orrs	r1, r2
 800311c:	687a      	ldr	r2, [r7, #4]
 800311e:	6812      	ldr	r2, [r2, #0]
 8003120:	430b      	orrs	r3, r1
 8003122:	6093      	str	r3, [r2, #8]

  /*---------------------------- I2Cx OAR2 Configuration ---------------------*/
  /* Configure I2Cx: Dual mode and Own Address2 */
  MODIFY_REG(hi2c->Instance->OAR2, (I2C_OAR2_ENDUAL | I2C_OAR2_ADD2), (hi2c->Init.DualAddressMode | hi2c->Init.OwnAddress2));
 8003124:	687b      	ldr	r3, [r7, #4]
 8003126:	681b      	ldr	r3, [r3, #0]
 8003128:	68db      	ldr	r3, [r3, #12]
 800312a:	f023 01ff 	bic.w	r1, r3, #255	; 0xff
 800312e:	687b      	ldr	r3, [r7, #4]
 8003130:	695a      	ldr	r2, [r3, #20]
 8003132:	687b      	ldr	r3, [r7, #4]
 8003134:	699b      	ldr	r3, [r3, #24]
 8003136:	431a      	orrs	r2, r3
 8003138:	687b      	ldr	r3, [r7, #4]
 800313a:	681b      	ldr	r3, [r3, #0]
 800313c:	430a      	orrs	r2, r1
 800313e:	60da      	str	r2, [r3, #12]

  /* Enable the selected I2C peripheral */
  __HAL_I2C_ENABLE(hi2c);
 8003140:	687b      	ldr	r3, [r7, #4]
 8003142:	681b      	ldr	r3, [r3, #0]
 8003144:	681a      	ldr	r2, [r3, #0]
 8003146:	687b      	ldr	r3, [r7, #4]
 8003148:	681b      	ldr	r3, [r3, #0]
 800314a:	f042 0201 	orr.w	r2, r2, #1
 800314e:	601a      	str	r2, [r3, #0]

  hi2c->ErrorCode = HAL_I2C_ERROR_NONE;
 8003150:	687b      	ldr	r3, [r7, #4]
 8003152:	2200      	movs	r2, #0
 8003154:	641a      	str	r2, [r3, #64]	; 0x40
  hi2c->State = HAL_I2C_STATE_READY;
 8003156:	687b      	ldr	r3, [r7, #4]
 8003158:	2220      	movs	r2, #32
 800315a:	f883 203d 	strb.w	r2, [r3, #61]	; 0x3d
  hi2c->PreviousState = I2C_STATE_NONE;
 800315e:	687b      	ldr	r3, [r7, #4]
 8003160:	2200      	movs	r2, #0
 8003162:	631a      	str	r2, [r3, #48]	; 0x30
  hi2c->Mode = HAL_I2C_MODE_NONE;
 8003164:	687b      	ldr	r3, [r7, #4]
 8003166:	2200      	movs	r2, #0
 8003168:	f883 203e 	strb.w	r2, [r3, #62]	; 0x3e

  return HAL_OK;
 800316c:	2300      	movs	r3, #0
}
 800316e:	4618      	mov	r0, r3
 8003170:	3710      	adds	r7, #16
 8003172:	46bd      	mov	sp, r7
 8003174:	bd80      	pop	{r7, pc}
 8003176:	bf00      	nop
 8003178:	000186a0 	.word	0x000186a0
 800317c:	001e847f 	.word	0x001e847f
 8003180:	003d08ff 	.word	0x003d08ff
 8003184:	431bde83 	.word	0x431bde83
 8003188:	10624dd3 	.word	0x10624dd3

0800318c <HAL_I2C_Master_Transmit>:
  * @param  Size Amount of data to be sent
  * @param  Timeout Timeout duration
  * @retval HAL status
  */
HAL_StatusTypeDef HAL_I2C_Master_Transmit(I2C_HandleTypeDef *hi2c, uint16_t DevAddress, uint8_t *pData, uint16_t Size, uint32_t Timeout)
{
 800318c:	b580      	push	{r7, lr}
 800318e:	b088      	sub	sp, #32
 8003190:	af02      	add	r7, sp, #8
 8003192:	60f8      	str	r0, [r7, #12]
 8003194:	607a      	str	r2, [r7, #4]
 8003196:	461a      	mov	r2, r3
 8003198:	460b      	mov	r3, r1
 800319a:	817b      	strh	r3, [r7, #10]
 800319c:	4613      	mov	r3, r2
 800319e:	813b      	strh	r3, [r7, #8]
  /* Init tickstart for timeout management*/
  uint32_t tickstart = HAL_GetTick();
 80031a0:	f7fd fff8 	bl	8001194 <HAL_GetTick>
 80031a4:	6178      	str	r0, [r7, #20]

  if (hi2c->State == HAL_I2C_STATE_READY)
 80031a6:	68fb      	ldr	r3, [r7, #12]
 80031a8:	f893 303d 	ldrb.w	r3, [r3, #61]	; 0x3d
 80031ac:	b2db      	uxtb	r3, r3
 80031ae:	2b20      	cmp	r3, #32
 80031b0:	f040 80e0 	bne.w	8003374 <HAL_I2C_Master_Transmit+0x1e8>
  {
    /* Wait until BUSY flag is reset */
    if (I2C_WaitOnFlagUntilTimeout(hi2c, I2C_FLAG_BUSY, SET, I2C_TIMEOUT_BUSY_FLAG, tickstart) != HAL_OK)
 80031b4:	697b      	ldr	r3, [r7, #20]
 80031b6:	9300      	str	r3, [sp, #0]
 80031b8:	2319      	movs	r3, #25
 80031ba:	2201      	movs	r2, #1
 80031bc:	4970      	ldr	r1, [pc, #448]	; (8003380 <HAL_I2C_Master_Transmit+0x1f4>)
 80031be:	68f8      	ldr	r0, [r7, #12]
 80031c0:	f000 f958 	bl	8003474 <I2C_WaitOnFlagUntilTimeout>
 80031c4:	4603      	mov	r3, r0
 80031c6:	2b00      	cmp	r3, #0
 80031c8:	d001      	beq.n	80031ce <HAL_I2C_Master_Transmit+0x42>
    {
      return HAL_BUSY;
 80031ca:	2302      	movs	r3, #2
 80031cc:	e0d3      	b.n	8003376 <HAL_I2C_Master_Transmit+0x1ea>
    }

    /* Process Locked */
    __HAL_LOCK(hi2c);
 80031ce:	68fb      	ldr	r3, [r7, #12]
 80031d0:	f893 303c 	ldrb.w	r3, [r3, #60]	; 0x3c
 80031d4:	2b01      	cmp	r3, #1
 80031d6:	d101      	bne.n	80031dc <HAL_I2C_Master_Transmit+0x50>
 80031d8:	2302      	movs	r3, #2
 80031da:	e0cc      	b.n	8003376 <HAL_I2C_Master_Transmit+0x1ea>
 80031dc:	68fb      	ldr	r3, [r7, #12]
 80031de:	2201      	movs	r2, #1
 80031e0:	f883 203c 	strb.w	r2, [r3, #60]	; 0x3c

    /* Check if the I2C is already enabled */
    if ((hi2c->Instance->CR1 & I2C_CR1_PE) != I2C_CR1_PE)
 80031e4:	68fb      	ldr	r3, [r7, #12]
 80031e6:	681b      	ldr	r3, [r3, #0]
 80031e8:	681b      	ldr	r3, [r3, #0]
 80031ea:	f003 0301 	and.w	r3, r3, #1
 80031ee:	2b01      	cmp	r3, #1
 80031f0:	d007      	beq.n	8003202 <HAL_I2C_Master_Transmit+0x76>
    {
      /* Enable I2C peripheral */
      __HAL_I2C_ENABLE(hi2c);
 80031f2:	68fb      	ldr	r3, [r7, #12]
 80031f4:	681b      	ldr	r3, [r3, #0]
 80031f6:	681a      	ldr	r2, [r3, #0]
 80031f8:	68fb      	ldr	r3, [r7, #12]
 80031fa:	681b      	ldr	r3, [r3, #0]
 80031fc:	f042 0201 	orr.w	r2, r2, #1
 8003200:	601a      	str	r2, [r3, #0]
    }

    /* Disable Pos */
    CLEAR_BIT(hi2c->Instance->CR1, I2C_CR1_POS);
 8003202:	68fb      	ldr	r3, [r7, #12]
 8003204:	681b      	ldr	r3, [r3, #0]
 8003206:	681a      	ldr	r2, [r3, #0]
 8003208:	68fb      	ldr	r3, [r7, #12]
 800320a:	681b      	ldr	r3, [r3, #0]
 800320c:	f422 6200 	bic.w	r2, r2, #2048	; 0x800
 8003210:	601a      	str	r2, [r3, #0]

    hi2c->State       = HAL_I2C_STATE_BUSY_TX;
 8003212:	68fb      	ldr	r3, [r7, #12]
 8003214:	2221      	movs	r2, #33	; 0x21
 8003216:	f883 203d 	strb.w	r2, [r3, #61]	; 0x3d
    hi2c->Mode        = HAL_I2C_MODE_MASTER;
 800321a:	68fb      	ldr	r3, [r7, #12]
 800321c:	2210      	movs	r2, #16
 800321e:	f883 203e 	strb.w	r2, [r3, #62]	; 0x3e
    hi2c->ErrorCode   = HAL_I2C_ERROR_NONE;
 8003222:	68fb      	ldr	r3, [r7, #12]
 8003224:	2200      	movs	r2, #0
 8003226:	641a      	str	r2, [r3, #64]	; 0x40

    /* Prepare transfer parameters */
    hi2c->pBuffPtr    = pData;
 8003228:	68fb      	ldr	r3, [r7, #12]
 800322a:	687a      	ldr	r2, [r7, #4]
 800322c:	625a      	str	r2, [r3, #36]	; 0x24
    hi2c->XferCount   = Size;
 800322e:	68fb      	ldr	r3, [r7, #12]
 8003230:	893a      	ldrh	r2, [r7, #8]
 8003232:	855a      	strh	r2, [r3, #42]	; 0x2a
    hi2c->XferSize    = hi2c->XferCount;
 8003234:	68fb      	ldr	r3, [r7, #12]
 8003236:	8d5b      	ldrh	r3, [r3, #42]	; 0x2a
 8003238:	b29a      	uxth	r2, r3
 800323a:	68fb      	ldr	r3, [r7, #12]
 800323c:	851a      	strh	r2, [r3, #40]	; 0x28
    hi2c->XferOptions = I2C_NO_OPTION_FRAME;
 800323e:	68fb      	ldr	r3, [r7, #12]
 8003240:	4a50      	ldr	r2, [pc, #320]	; (8003384 <HAL_I2C_Master_Transmit+0x1f8>)
 8003242:	62da      	str	r2, [r3, #44]	; 0x2c

    /* Send Slave Address */
    if (I2C_MasterRequestWrite(hi2c, DevAddress, Timeout, tickstart) != HAL_OK)
 8003244:	8979      	ldrh	r1, [r7, #10]
 8003246:	697b      	ldr	r3, [r7, #20]
 8003248:	6a3a      	ldr	r2, [r7, #32]
 800324a:	68f8      	ldr	r0, [r7, #12]
 800324c:	f000 f89c 	bl	8003388 <I2C_MasterRequestWrite>
 8003250:	4603      	mov	r3, r0
 8003252:	2b00      	cmp	r3, #0
 8003254:	d001      	beq.n	800325a <HAL_I2C_Master_Transmit+0xce>
    {
      return HAL_ERROR;
 8003256:	2301      	movs	r3, #1
 8003258:	e08d      	b.n	8003376 <HAL_I2C_Master_Transmit+0x1ea>
    }

    /* Clear ADDR flag */
    __HAL_I2C_CLEAR_ADDRFLAG(hi2c);
 800325a:	2300      	movs	r3, #0
 800325c:	613b      	str	r3, [r7, #16]
 800325e:	68fb      	ldr	r3, [r7, #12]
 8003260:	681b      	ldr	r3, [r3, #0]
 8003262:	695b      	ldr	r3, [r3, #20]
 8003264:	613b      	str	r3, [r7, #16]
 8003266:	68fb      	ldr	r3, [r7, #12]
 8003268:	681b      	ldr	r3, [r3, #0]
 800326a:	699b      	ldr	r3, [r3, #24]
 800326c:	613b      	str	r3, [r7, #16]
 800326e:	693b      	ldr	r3, [r7, #16]

    while (hi2c->XferSize > 0U)
 8003270:	e066      	b.n	8003340 <HAL_I2C_Master_Transmit+0x1b4>
    {
      /* Wait until TXE flag is set */
      if (I2C_WaitOnTXEFlagUntilTimeout(hi2c, Timeout, tickstart) != HAL_OK)
 8003272:	697a      	ldr	r2, [r7, #20]
 8003274:	6a39      	ldr	r1, [r7, #32]
 8003276:	68f8      	ldr	r0, [r7, #12]
 8003278:	f000 f9d2 	bl	8003620 <I2C_WaitOnTXEFlagUntilTimeout>
 800327c:	4603      	mov	r3, r0
 800327e:	2b00      	cmp	r3, #0
 8003280:	d00d      	beq.n	800329e <HAL_I2C_Master_Transmit+0x112>
      {
        if (hi2c->ErrorCode == HAL_I2C_ERROR_AF)
 8003282:	68fb      	ldr	r3, [r7, #12]
 8003284:	6c1b      	ldr	r3, [r3, #64]	; 0x40
 8003286:	2b04      	cmp	r3, #4
 8003288:	d107      	bne.n	800329a <HAL_I2C_Master_Transmit+0x10e>
        {
          /* Generate Stop */
          SET_BIT(hi2c->Instance->CR1, I2C_CR1_STOP);
 800328a:	68fb      	ldr	r3, [r7, #12]
 800328c:	681b      	ldr	r3, [r3, #0]
 800328e:	681a      	ldr	r2, [r3, #0]
 8003290:	68fb      	ldr	r3, [r7, #12]
 8003292:	681b      	ldr	r3, [r3, #0]
 8003294:	f442 7200 	orr.w	r2, r2, #512	; 0x200
 8003298:	601a      	str	r2, [r3, #0]
        }
        return HAL_ERROR;
 800329a:	2301      	movs	r3, #1
 800329c:	e06b      	b.n	8003376 <HAL_I2C_Master_Transmit+0x1ea>
      }

      /* Write data to DR */
      hi2c->Instance->DR = *hi2c->pBuffPtr;
 800329e:	68fb      	ldr	r3, [r7, #12]
 80032a0:	6a5b      	ldr	r3, [r3, #36]	; 0x24
 80032a2:	781a      	ldrb	r2, [r3, #0]
 80032a4:	68fb      	ldr	r3, [r7, #12]
 80032a6:	681b      	ldr	r3, [r3, #0]
 80032a8:	611a      	str	r2, [r3, #16]

      /* Increment Buffer pointer */
      hi2c->pBuffPtr++;
 80032aa:	68fb      	ldr	r3, [r7, #12]
 80032ac:	6a5b      	ldr	r3, [r3, #36]	; 0x24
 80032ae:	1c5a      	adds	r2, r3, #1
 80032b0:	68fb      	ldr	r3, [r7, #12]
 80032b2:	625a      	str	r2, [r3, #36]	; 0x24

      /* Update counter */
      hi2c->XferCount--;
 80032b4:	68fb      	ldr	r3, [r7, #12]
 80032b6:	8d5b      	ldrh	r3, [r3, #42]	; 0x2a
 80032b8:	b29b      	uxth	r3, r3
 80032ba:	3b01      	subs	r3, #1
 80032bc:	b29a      	uxth	r2, r3
 80032be:	68fb      	ldr	r3, [r7, #12]
 80032c0:	855a      	strh	r2, [r3, #42]	; 0x2a
      hi2c->XferSize--;
 80032c2:	68fb      	ldr	r3, [r7, #12]
 80032c4:	8d1b      	ldrh	r3, [r3, #40]	; 0x28
 80032c6:	3b01      	subs	r3, #1
 80032c8:	b29a      	uxth	r2, r3
 80032ca:	68fb      	ldr	r3, [r7, #12]
 80032cc:	851a      	strh	r2, [r3, #40]	; 0x28

      if ((__HAL_I2C_GET_FLAG(hi2c, I2C_FLAG_BTF) == SET) && (hi2c->XferSize != 0U))
 80032ce:	68fb      	ldr	r3, [r7, #12]
 80032d0:	681b      	ldr	r3, [r3, #0]
 80032d2:	695b      	ldr	r3, [r3, #20]
 80032d4:	f003 0304 	and.w	r3, r3, #4
 80032d8:	2b04      	cmp	r3, #4
 80032da:	d11b      	bne.n	8003314 <HAL_I2C_Master_Transmit+0x188>
 80032dc:	68fb      	ldr	r3, [r7, #12]
 80032de:	8d1b      	ldrh	r3, [r3, #40]	; 0x28
 80032e0:	2b00      	cmp	r3, #0
 80032e2:	d017      	beq.n	8003314 <HAL_I2C_Master_Transmit+0x188>
      {
        /* Write data to DR */
        hi2c->Instance->DR = *hi2c->pBuffPtr;
 80032e4:	68fb      	ldr	r3, [r7, #12]
 80032e6:	6a5b      	ldr	r3, [r3, #36]	; 0x24
 80032e8:	781a      	ldrb	r2, [r3, #0]
 80032ea:	68fb      	ldr	r3, [r7, #12]
 80032ec:	681b      	ldr	r3, [r3, #0]
 80032ee:	611a      	str	r2, [r3, #16]

        /* Increment Buffer pointer */
        hi2c->pBuffPtr++;
 80032f0:	68fb      	ldr	r3, [r7, #12]
 80032f2:	6a5b      	ldr	r3, [r3, #36]	; 0x24
 80032f4:	1c5a      	adds	r2, r3, #1
 80032f6:	68fb      	ldr	r3, [r7, #12]
 80032f8:	625a      	str	r2, [r3, #36]	; 0x24

        /* Update counter */
        hi2c->XferCount--;
 80032fa:	68fb      	ldr	r3, [r7, #12]
 80032fc:	8d5b      	ldrh	r3, [r3, #42]	; 0x2a
 80032fe:	b29b      	uxth	r3, r3
 8003300:	3b01      	subs	r3, #1
 8003302:	b29a      	uxth	r2, r3
 8003304:	68fb      	ldr	r3, [r7, #12]
 8003306:	855a      	strh	r2, [r3, #42]	; 0x2a
        hi2c->XferSize--;
 8003308:	68fb      	ldr	r3, [r7, #12]
 800330a:	8d1b      	ldrh	r3, [r3, #40]	; 0x28
 800330c:	3b01      	subs	r3, #1
 800330e:	b29a      	uxth	r2, r3
 8003310:	68fb      	ldr	r3, [r7, #12]
 8003312:	851a      	strh	r2, [r3, #40]	; 0x28
      }

      /* Wait until BTF flag is set */
      if (I2C_WaitOnBTFFlagUntilTimeout(hi2c, Timeout, tickstart) != HAL_OK)
 8003314:	697a      	ldr	r2, [r7, #20]
 8003316:	6a39      	ldr	r1, [r7, #32]
 8003318:	68f8      	ldr	r0, [r7, #12]
 800331a:	f000 f9c2 	bl	80036a2 <I2C_WaitOnBTFFlagUntilTimeout>
 800331e:	4603      	mov	r3, r0
 8003320:	2b00      	cmp	r3, #0
 8003322:	d00d      	beq.n	8003340 <HAL_I2C_Master_Transmit+0x1b4>
      {
        if (hi2c->ErrorCode == HAL_I2C_ERROR_AF)
 8003324:	68fb      	ldr	r3, [r7, #12]
 8003326:	6c1b      	ldr	r3, [r3, #64]	; 0x40
 8003328:	2b04      	cmp	r3, #4
 800332a:	d107      	bne.n	800333c <HAL_I2C_Master_Transmit+0x1b0>
        {
          /* Generate Stop */
          SET_BIT(hi2c->Instance->CR1, I2C_CR1_STOP);
 800332c:	68fb      	ldr	r3, [r7, #12]
 800332e:	681b      	ldr	r3, [r3, #0]
 8003330:	681a      	ldr	r2, [r3, #0]
 8003332:	68fb      	ldr	r3, [r7, #12]
 8003334:	681b      	ldr	r3, [r3, #0]
 8003336:	f442 7200 	orr.w	r2, r2, #512	; 0x200
 800333a:	601a      	str	r2, [r3, #0]
        }
        return HAL_ERROR;
 800333c:	2301      	movs	r3, #1
 800333e:	e01a      	b.n	8003376 <HAL_I2C_Master_Transmit+0x1ea>
    while (hi2c->XferSize > 0U)
 8003340:	68fb      	ldr	r3, [r7, #12]
 8003342:	8d1b      	ldrh	r3, [r3, #40]	; 0x28
 8003344:	2b00      	cmp	r3, #0
 8003346:	d194      	bne.n	8003272 <HAL_I2C_Master_Transmit+0xe6>
      }
    }

    /* Generate Stop */
    SET_BIT(hi2c->Instance->CR1, I2C_CR1_STOP);
 8003348:	68fb      	ldr	r3, [r7, #12]
 800334a:	681b      	ldr	r3, [r3, #0]
 800334c:	681a      	ldr	r2, [r3, #0]
 800334e:	68fb      	ldr	r3, [r7, #12]
 8003350:	681b      	ldr	r3, [r3, #0]
 8003352:	f442 7200 	orr.w	r2, r2, #512	; 0x200
 8003356:	601a      	str	r2, [r3, #0]

    hi2c->State = HAL_I2C_STATE_READY;
 8003358:	68fb      	ldr	r3, [r7, #12]
 800335a:	2220      	movs	r2, #32
 800335c:	f883 203d 	strb.w	r2, [r3, #61]	; 0x3d
    hi2c->Mode = HAL_I2C_MODE_NONE;
 8003360:	68fb      	ldr	r3, [r7, #12]
 8003362:	2200      	movs	r2, #0
 8003364:	f883 203e 	strb.w	r2, [r3, #62]	; 0x3e

    /* Process Unlocked */
    __HAL_UNLOCK(hi2c);
 8003368:	68fb      	ldr	r3, [r7, #12]
 800336a:	2200      	movs	r2, #0
 800336c:	f883 203c 	strb.w	r2, [r3, #60]	; 0x3c

    return HAL_OK;
 8003370:	2300      	movs	r3, #0
 8003372:	e000      	b.n	8003376 <HAL_I2C_Master_Transmit+0x1ea>
  }
  else
  {
    return HAL_BUSY;
 8003374:	2302      	movs	r3, #2
  }
}
 8003376:	4618      	mov	r0, r3
 8003378:	3718      	adds	r7, #24
 800337a:	46bd      	mov	sp, r7
 800337c:	bd80      	pop	{r7, pc}
 800337e:	bf00      	nop
 8003380:	00100002 	.word	0x00100002
 8003384:	ffff0000 	.word	0xffff0000

08003388 <I2C_MasterRequestWrite>:
  * @param  Timeout Timeout duration
  * @param  Tickstart Tick start value
  * @retval HAL status
  */
static HAL_StatusTypeDef I2C_MasterRequestWrite(I2C_HandleTypeDef *hi2c, uint16_t DevAddress, uint32_t Timeout, uint32_t Tickstart)
{
 8003388:	b580      	push	{r7, lr}
 800338a:	b088      	sub	sp, #32
 800338c:	af02      	add	r7, sp, #8
 800338e:	60f8      	str	r0, [r7, #12]
 8003390:	607a      	str	r2, [r7, #4]
 8003392:	603b      	str	r3, [r7, #0]
 8003394:	460b      	mov	r3, r1
 8003396:	817b      	strh	r3, [r7, #10]
  /* Declaration of temporary variable to prevent undefined behavior of volatile usage */
  uint32_t CurrentXferOptions = hi2c->XferOptions;
 8003398:	68fb      	ldr	r3, [r7, #12]
 800339a:	6adb      	ldr	r3, [r3, #44]	; 0x2c
 800339c:	617b      	str	r3, [r7, #20]

  /* Generate Start condition if first transfer */
  if ((CurrentXferOptions == I2C_FIRST_AND_LAST_FRAME) || (CurrentXferOptions == I2C_FIRST_FRAME) || (CurrentXferOptions == I2C_NO_OPTION_FRAME))
 800339e:	697b      	ldr	r3, [r7, #20]
 80033a0:	2b08      	cmp	r3, #8
 80033a2:	d006      	beq.n	80033b2 <I2C_MasterRequestWrite+0x2a>
 80033a4:	697b      	ldr	r3, [r7, #20]
 80033a6:	2b01      	cmp	r3, #1
 80033a8:	d003      	beq.n	80033b2 <I2C_MasterRequestWrite+0x2a>
 80033aa:	697b      	ldr	r3, [r7, #20]
 80033ac:	f513 3f80 	cmn.w	r3, #65536	; 0x10000
 80033b0:	d108      	bne.n	80033c4 <I2C_MasterRequestWrite+0x3c>
  {
    /* Generate Start */
    SET_BIT(hi2c->Instance->CR1, I2C_CR1_START);
 80033b2:	68fb      	ldr	r3, [r7, #12]
 80033b4:	681b      	ldr	r3, [r3, #0]
 80033b6:	681a      	ldr	r2, [r3, #0]
 80033b8:	68fb      	ldr	r3, [r7, #12]
 80033ba:	681b      	ldr	r3, [r3, #0]
 80033bc:	f442 7280 	orr.w	r2, r2, #256	; 0x100
 80033c0:	601a      	str	r2, [r3, #0]
 80033c2:	e00b      	b.n	80033dc <I2C_MasterRequestWrite+0x54>
  }
  else if (hi2c->PreviousState == I2C_STATE_MASTER_BUSY_RX)
 80033c4:	68fb      	ldr	r3, [r7, #12]
 80033c6:	6b1b      	ldr	r3, [r3, #48]	; 0x30
 80033c8:	2b12      	cmp	r3, #18
 80033ca:	d107      	bne.n	80033dc <I2C_MasterRequestWrite+0x54>
  {
    /* Generate ReStart */
    SET_BIT(hi2c->Instance->CR1, I2C_CR1_START);
 80033cc:	68fb      	ldr	r3, [r7, #12]
 80033ce:	681b      	ldr	r3, [r3, #0]
 80033d0:	681a      	ldr	r2, [r3, #0]
 80033d2:	68fb      	ldr	r3, [r7, #12]
 80033d4:	681b      	ldr	r3, [r3, #0]
 80033d6:	f442 7280 	orr.w	r2, r2, #256	; 0x100
 80033da:	601a      	str	r2, [r3, #0]
  {
    /* Do nothing */
  }

  /* Wait until SB flag is set */
  if (I2C_WaitOnFlagUntilTimeout(hi2c, I2C_FLAG_SB, RESET, Timeout, Tickstart) != HAL_OK)
 80033dc:	683b      	ldr	r3, [r7, #0]
 80033de:	9300      	str	r3, [sp, #0]
 80033e0:	687b      	ldr	r3, [r7, #4]
 80033e2:	2200      	movs	r2, #0
 80033e4:	f04f 1101 	mov.w	r1, #65537	; 0x10001
 80033e8:	68f8      	ldr	r0, [r7, #12]
 80033ea:	f000 f843 	bl	8003474 <I2C_WaitOnFlagUntilTimeout>
 80033ee:	4603      	mov	r3, r0
 80033f0:	2b00      	cmp	r3, #0
 80033f2:	d001      	beq.n	80033f8 <I2C_MasterRequestWrite+0x70>
  {
    return HAL_ERROR;
 80033f4:	2301      	movs	r3, #1
 80033f6:	e035      	b.n	8003464 <I2C_MasterRequestWrite+0xdc>
  }

  if (hi2c->Init.AddressingMode == I2C_ADDRESSINGMODE_7BIT)
 80033f8:	68fb      	ldr	r3, [r7, #12]
 80033fa:	691b      	ldr	r3, [r3, #16]
 80033fc:	f5b3 4f80 	cmp.w	r3, #16384	; 0x4000
 8003400:	d108      	bne.n	8003414 <I2C_MasterRequestWrite+0x8c>
  {
    /* Send slave address */
    hi2c->Instance->DR = I2C_7BIT_ADD_WRITE(DevAddress);
 8003402:	897b      	ldrh	r3, [r7, #10]
 8003404:	b2db      	uxtb	r3, r3
 8003406:	461a      	mov	r2, r3
 8003408:	68fb      	ldr	r3, [r7, #12]
 800340a:	681b      	ldr	r3, [r3, #0]
 800340c:	f002 02fe 	and.w	r2, r2, #254	; 0xfe
 8003410:	611a      	str	r2, [r3, #16]
 8003412:	e01b      	b.n	800344c <I2C_MasterRequestWrite+0xc4>
  }
  else
  {
    /* Send header of slave address */
    hi2c->Instance->DR = I2C_10BIT_HEADER_WRITE(DevAddress);
 8003414:	897b      	ldrh	r3, [r7, #10]
 8003416:	11db      	asrs	r3, r3, #7
 8003418:	b2db      	uxtb	r3, r3
 800341a:	f003 0306 	and.w	r3, r3, #6
 800341e:	b2db      	uxtb	r3, r3
 8003420:	f063 030f 	orn	r3, r3, #15
 8003424:	b2da      	uxtb	r2, r3
 8003426:	68fb      	ldr	r3, [r7, #12]
 8003428:	681b      	ldr	r3, [r3, #0]
 800342a:	611a      	str	r2, [r3, #16]

    /* Wait until ADD10 flag is set */
    if (I2C_WaitOnMasterAddressFlagUntilTimeout(hi2c, I2C_FLAG_ADD10, Timeout, Tickstart) != HAL_OK)
 800342c:	683b      	ldr	r3, [r7, #0]
 800342e:	687a      	ldr	r2, [r7, #4]
 8003430:	490e      	ldr	r1, [pc, #56]	; (800346c <I2C_MasterRequestWrite+0xe4>)
 8003432:	68f8      	ldr	r0, [r7, #12]
 8003434:	f000 f875 	bl	8003522 <I2C_WaitOnMasterAddressFlagUntilTimeout>
 8003438:	4603      	mov	r3, r0
 800343a:	2b00      	cmp	r3, #0
 800343c:	d001      	beq.n	8003442 <I2C_MasterRequestWrite+0xba>
    {
      return HAL_ERROR;
 800343e:	2301      	movs	r3, #1
 8003440:	e010      	b.n	8003464 <I2C_MasterRequestWrite+0xdc>
    }

    /* Send slave address */
    hi2c->Instance->DR = I2C_10BIT_ADDRESS(DevAddress);
 8003442:	897b      	ldrh	r3, [r7, #10]
 8003444:	b2da      	uxtb	r2, r3
 8003446:	68fb      	ldr	r3, [r7, #12]
 8003448:	681b      	ldr	r3, [r3, #0]
 800344a:	611a      	str	r2, [r3, #16]
  }

  /* Wait until ADDR flag is set */
  if (I2C_WaitOnMasterAddressFlagUntilTimeout(hi2c, I2C_FLAG_ADDR, Timeout, Tickstart) != HAL_OK)
 800344c:	683b      	ldr	r3, [r7, #0]
 800344e:	687a      	ldr	r2, [r7, #4]
 8003450:	4907      	ldr	r1, [pc, #28]	; (8003470 <I2C_MasterRequestWrite+0xe8>)
 8003452:	68f8      	ldr	r0, [r7, #12]
 8003454:	f000 f865 	bl	8003522 <I2C_WaitOnMasterAddressFlagUntilTimeout>
 8003458:	4603      	mov	r3, r0
 800345a:	2b00      	cmp	r3, #0
 800345c:	d001      	beq.n	8003462 <I2C_MasterRequestWrite+0xda>
  {
    return HAL_ERROR;
 800345e:	2301      	movs	r3, #1
 8003460:	e000      	b.n	8003464 <I2C_MasterRequestWrite+0xdc>
  }

  return HAL_OK;
 8003462:	2300      	movs	r3, #0
}
 8003464:	4618      	mov	r0, r3
 8003466:	3718      	adds	r7, #24
 8003468:	46bd      	mov	sp, r7
 800346a:	bd80      	pop	{r7, pc}
 800346c:	00010008 	.word	0x00010008
 8003470:	00010002 	.word	0x00010002

08003474 <I2C_WaitOnFlagUntilTimeout>:
  * @param  Timeout Timeout duration
  * @param  Tickstart Tick start value
  * @retval HAL status
  */
static HAL_StatusTypeDef I2C_WaitOnFlagUntilTimeout(I2C_HandleTypeDef *hi2c, uint32_t Flag, FlagStatus Status, uint32_t Timeout, uint32_t Tickstart)
{
 8003474:	b580      	push	{r7, lr}
 8003476:	b084      	sub	sp, #16
 8003478:	af00      	add	r7, sp, #0
 800347a:	60f8      	str	r0, [r7, #12]
 800347c:	60b9      	str	r1, [r7, #8]
 800347e:	603b      	str	r3, [r7, #0]
 8003480:	4613      	mov	r3, r2
 8003482:	71fb      	strb	r3, [r7, #7]
  /* Wait until flag is set */
  while (__HAL_I2C_GET_FLAG(hi2c, Flag) == Status)
 8003484:	e025      	b.n	80034d2 <I2C_WaitOnFlagUntilTimeout+0x5e>
  {
    /* Check for the Timeout */
    if (Timeout != HAL_MAX_DELAY)
 8003486:	683b      	ldr	r3, [r7, #0]
 8003488:	f1b3 3fff 	cmp.w	r3, #4294967295
 800348c:	d021      	beq.n	80034d2 <I2C_WaitOnFlagUntilTimeout+0x5e>
    {
      if (((HAL_GetTick() - Tickstart) > Timeout) || (Timeout == 0U))
 800348e:	f7fd fe81 	bl	8001194 <HAL_GetTick>
 8003492:	4602      	mov	r2, r0
 8003494:	69bb      	ldr	r3, [r7, #24]
 8003496:	1ad3      	subs	r3, r2, r3
 8003498:	683a      	ldr	r2, [r7, #0]
 800349a:	429a      	cmp	r2, r3
 800349c:	d302      	bcc.n	80034a4 <I2C_WaitOnFlagUntilTimeout+0x30>
 800349e:	683b      	ldr	r3, [r7, #0]
 80034a0:	2b00      	cmp	r3, #0
 80034a2:	d116      	bne.n	80034d2 <I2C_WaitOnFlagUntilTimeout+0x5e>
      {
        hi2c->PreviousState     = I2C_STATE_NONE;
 80034a4:	68fb      	ldr	r3, [r7, #12]
 80034a6:	2200      	movs	r2, #0
 80034a8:	631a      	str	r2, [r3, #48]	; 0x30
        hi2c->State             = HAL_I2C_STATE_READY;
 80034aa:	68fb      	ldr	r3, [r7, #12]
 80034ac:	2220      	movs	r2, #32
 80034ae:	f883 203d 	strb.w	r2, [r3, #61]	; 0x3d
        hi2c->Mode              = HAL_I2C_MODE_NONE;
 80034b2:	68fb      	ldr	r3, [r7, #12]
 80034b4:	2200      	movs	r2, #0
 80034b6:	f883 203e 	strb.w	r2, [r3, #62]	; 0x3e
        hi2c->ErrorCode         |= HAL_I2C_ERROR_TIMEOUT;
 80034ba:	68fb      	ldr	r3, [r7, #12]
 80034bc:	6c1b      	ldr	r3, [r3, #64]	; 0x40
 80034be:	f043 0220 	orr.w	r2, r3, #32
 80034c2:	68fb      	ldr	r3, [r7, #12]
 80034c4:	641a      	str	r2, [r3, #64]	; 0x40

        /* Process Unlocked */
        __HAL_UNLOCK(hi2c);
 80034c6:	68fb      	ldr	r3, [r7, #12]
 80034c8:	2200      	movs	r2, #0
 80034ca:	f883 203c 	strb.w	r2, [r3, #60]	; 0x3c

        return HAL_ERROR;
 80034ce:	2301      	movs	r3, #1
 80034d0:	e023      	b.n	800351a <I2C_WaitOnFlagUntilTimeout+0xa6>
  while (__HAL_I2C_GET_FLAG(hi2c, Flag) == Status)
 80034d2:	68bb      	ldr	r3, [r7, #8]
 80034d4:	0c1b      	lsrs	r3, r3, #16
 80034d6:	b2db      	uxtb	r3, r3
 80034d8:	2b01      	cmp	r3, #1
 80034da:	d10d      	bne.n	80034f8 <I2C_WaitOnFlagUntilTimeout+0x84>
 80034dc:	68fb      	ldr	r3, [r7, #12]
 80034de:	681b      	ldr	r3, [r3, #0]
 80034e0:	695b      	ldr	r3, [r3, #20]
 80034e2:	43da      	mvns	r2, r3
 80034e4:	68bb      	ldr	r3, [r7, #8]
 80034e6:	4013      	ands	r3, r2
 80034e8:	b29b      	uxth	r3, r3
 80034ea:	2b00      	cmp	r3, #0
 80034ec:	bf0c      	ite	eq
 80034ee:	2301      	moveq	r3, #1
 80034f0:	2300      	movne	r3, #0
 80034f2:	b2db      	uxtb	r3, r3
 80034f4:	461a      	mov	r2, r3
 80034f6:	e00c      	b.n	8003512 <I2C_WaitOnFlagUntilTimeout+0x9e>
 80034f8:	68fb      	ldr	r3, [r7, #12]
 80034fa:	681b      	ldr	r3, [r3, #0]
 80034fc:	699b      	ldr	r3, [r3, #24]
 80034fe:	43da      	mvns	r2, r3
 8003500:	68bb      	ldr	r3, [r7, #8]
 8003502:	4013      	ands	r3, r2
 8003504:	b29b      	uxth	r3, r3
 8003506:	2b00      	cmp	r3, #0
 8003508:	bf0c      	ite	eq
 800350a:	2301      	moveq	r3, #1
 800350c:	2300      	movne	r3, #0
 800350e:	b2db      	uxtb	r3, r3
 8003510:	461a      	mov	r2, r3
 8003512:	79fb      	ldrb	r3, [r7, #7]
 8003514:	429a      	cmp	r2, r3
 8003516:	d0b6      	beq.n	8003486 <I2C_WaitOnFlagUntilTimeout+0x12>
      }
    }
  }
  return HAL_OK;
 8003518:	2300      	movs	r3, #0
}
 800351a:	4618      	mov	r0, r3
 800351c:	3710      	adds	r7, #16
 800351e:	46bd      	mov	sp, r7
 8003520:	bd80      	pop	{r7, pc}

08003522 <I2C_WaitOnMasterAddressFlagUntilTimeout>:
  * @param  Timeout Timeout duration
  * @param  Tickstart Tick start value
  * @retval HAL status
  */
static HAL_StatusTypeDef I2C_WaitOnMasterAddressFlagUntilTimeout(I2C_HandleTypeDef *hi2c, uint32_t Flag, uint32_t Timeout, uint32_t Tickstart)
{
 8003522:	b580      	push	{r7, lr}
 8003524:	b084      	sub	sp, #16
 8003526:	af00      	add	r7, sp, #0
 8003528:	60f8      	str	r0, [r7, #12]
 800352a:	60b9      	str	r1, [r7, #8]
 800352c:	607a      	str	r2, [r7, #4]
 800352e:	603b      	str	r3, [r7, #0]
  while (__HAL_I2C_GET_FLAG(hi2c, Flag) == RESET)
 8003530:	e051      	b.n	80035d6 <I2C_WaitOnMasterAddressFlagUntilTimeout+0xb4>
  {
    if (__HAL_I2C_GET_FLAG(hi2c, I2C_FLAG_AF) == SET)
 8003532:	68fb      	ldr	r3, [r7, #12]
 8003534:	681b      	ldr	r3, [r3, #0]
 8003536:	695b      	ldr	r3, [r3, #20]
 8003538:	f403 6380 	and.w	r3, r3, #1024	; 0x400
 800353c:	f5b3 6f80 	cmp.w	r3, #1024	; 0x400
 8003540:	d123      	bne.n	800358a <I2C_WaitOnMasterAddressFlagUntilTimeout+0x68>
    {
      /* Generate Stop */
      SET_BIT(hi2c->Instance->CR1, I2C_CR1_STOP);
 8003542:	68fb      	ldr	r3, [r7, #12]
 8003544:	681b      	ldr	r3, [r3, #0]
 8003546:	681a      	ldr	r2, [r3, #0]
 8003548:	68fb      	ldr	r3, [r7, #12]
 800354a:	681b      	ldr	r3, [r3, #0]
 800354c:	f442 7200 	orr.w	r2, r2, #512	; 0x200
 8003550:	601a      	str	r2, [r3, #0]

      /* Clear AF Flag */
      __HAL_I2C_CLEAR_FLAG(hi2c, I2C_FLAG_AF);
 8003552:	68fb      	ldr	r3, [r7, #12]
 8003554:	681b      	ldr	r3, [r3, #0]
 8003556:	f46f 6280 	mvn.w	r2, #1024	; 0x400
 800355a:	615a      	str	r2, [r3, #20]

      hi2c->PreviousState       = I2C_STATE_NONE;
 800355c:	68fb      	ldr	r3, [r7, #12]
 800355e:	2200      	movs	r2, #0
 8003560:	631a      	str	r2, [r3, #48]	; 0x30
      hi2c->State               = HAL_I2C_STATE_READY;
 8003562:	68fb      	ldr	r3, [r7, #12]
 8003564:	2220      	movs	r2, #32
 8003566:	f883 203d 	strb.w	r2, [r3, #61]	; 0x3d
      hi2c->Mode                = HAL_I2C_MODE_NONE;
 800356a:	68fb      	ldr	r3, [r7, #12]
 800356c:	2200      	movs	r2, #0
 800356e:	f883 203e 	strb.w	r2, [r3, #62]	; 0x3e
      hi2c->ErrorCode           |= HAL_I2C_ERROR_AF;
 8003572:	68fb      	ldr	r3, [r7, #12]
 8003574:	6c1b      	ldr	r3, [r3, #64]	; 0x40
 8003576:	f043 0204 	orr.w	r2, r3, #4
 800357a:	68fb      	ldr	r3, [r7, #12]
 800357c:	641a      	str	r2, [r3, #64]	; 0x40

      /* Process Unlocked */
      __HAL_UNLOCK(hi2c);
 800357e:	68fb      	ldr	r3, [r7, #12]
 8003580:	2200      	movs	r2, #0
 8003582:	f883 203c 	strb.w	r2, [r3, #60]	; 0x3c

      return HAL_ERROR;
 8003586:	2301      	movs	r3, #1
 8003588:	e046      	b.n	8003618 <I2C_WaitOnMasterAddressFlagUntilTimeout+0xf6>
    }

    /* Check for the Timeout */
    if (Timeout != HAL_MAX_DELAY)
 800358a:	687b      	ldr	r3, [r7, #4]
 800358c:	f1b3 3fff 	cmp.w	r3, #4294967295
 8003590:	d021      	beq.n	80035d6 <I2C_WaitOnMasterAddressFlagUntilTimeout+0xb4>
    {
      if (((HAL_GetTick() - Tickstart) > Timeout) || (Timeout == 0U))
 8003592:	f7fd fdff 	bl	8001194 <HAL_GetTick>
 8003596:	4602      	mov	r2, r0
 8003598:	683b      	ldr	r3, [r7, #0]
 800359a:	1ad3      	subs	r3, r2, r3
 800359c:	687a      	ldr	r2, [r7, #4]
 800359e:	429a      	cmp	r2, r3
 80035a0:	d302      	bcc.n	80035a8 <I2C_WaitOnMasterAddressFlagUntilTimeout+0x86>
 80035a2:	687b      	ldr	r3, [r7, #4]
 80035a4:	2b00      	cmp	r3, #0
 80035a6:	d116      	bne.n	80035d6 <I2C_WaitOnMasterAddressFlagUntilTimeout+0xb4>
      {
        hi2c->PreviousState       = I2C_STATE_NONE;
 80035a8:	68fb      	ldr	r3, [r7, #12]
 80035aa:	2200      	movs	r2, #0
 80035ac:	631a      	str	r2, [r3, #48]	; 0x30
        hi2c->State               = HAL_I2C_STATE_READY;
 80035ae:	68fb      	ldr	r3, [r7, #12]
 80035b0:	2220      	movs	r2, #32
 80035b2:	f883 203d 	strb.w	r2, [r3, #61]	; 0x3d
        hi2c->Mode                = HAL_I2C_MODE_NONE;
 80035b6:	68fb      	ldr	r3, [r7, #12]
 80035b8:	2200      	movs	r2, #0
 80035ba:	f883 203e 	strb.w	r2, [r3, #62]	; 0x3e
        hi2c->ErrorCode           |= HAL_I2C_ERROR_TIMEOUT;
 80035be:	68fb      	ldr	r3, [r7, #12]
 80035c0:	6c1b      	ldr	r3, [r3, #64]	; 0x40
 80035c2:	f043 0220 	orr.w	r2, r3, #32
 80035c6:	68fb      	ldr	r3, [r7, #12]
 80035c8:	641a      	str	r2, [r3, #64]	; 0x40

        /* Process Unlocked */
        __HAL_UNLOCK(hi2c);
 80035ca:	68fb      	ldr	r3, [r7, #12]
 80035cc:	2200      	movs	r2, #0
 80035ce:	f883 203c 	strb.w	r2, [r3, #60]	; 0x3c

        return HAL_ERROR;
 80035d2:	2301      	movs	r3, #1
 80035d4:	e020      	b.n	8003618 <I2C_WaitOnMasterAddressFlagUntilTimeout+0xf6>
  while (__HAL_I2C_GET_FLAG(hi2c, Flag) == RESET)
 80035d6:	68bb      	ldr	r3, [r7, #8]
 80035d8:	0c1b      	lsrs	r3, r3, #16
 80035da:	b2db      	uxtb	r3, r3
 80035dc:	2b01      	cmp	r3, #1
 80035de:	d10c      	bne.n	80035fa <I2C_WaitOnMasterAddressFlagUntilTimeout+0xd8>
 80035e0:	68fb      	ldr	r3, [r7, #12]
 80035e2:	681b      	ldr	r3, [r3, #0]
 80035e4:	695b      	ldr	r3, [r3, #20]
 80035e6:	43da      	mvns	r2, r3
 80035e8:	68bb      	ldr	r3, [r7, #8]
 80035ea:	4013      	ands	r3, r2
 80035ec:	b29b      	uxth	r3, r3
 80035ee:	2b00      	cmp	r3, #0
 80035f0:	bf14      	ite	ne
 80035f2:	2301      	movne	r3, #1
 80035f4:	2300      	moveq	r3, #0
 80035f6:	b2db      	uxtb	r3, r3
 80035f8:	e00b      	b.n	8003612 <I2C_WaitOnMasterAddressFlagUntilTimeout+0xf0>
 80035fa:	68fb      	ldr	r3, [r7, #12]
 80035fc:	681b      	ldr	r3, [r3, #0]
 80035fe:	699b      	ldr	r3, [r3, #24]
 8003600:	43da      	mvns	r2, r3
 8003602:	68bb      	ldr	r3, [r7, #8]
 8003604:	4013      	ands	r3, r2
 8003606:	b29b      	uxth	r3, r3
 8003608:	2b00      	cmp	r3, #0
 800360a:	bf14      	ite	ne
 800360c:	2301      	movne	r3, #1
 800360e:	2300      	moveq	r3, #0
 8003610:	b2db      	uxtb	r3, r3
 8003612:	2b00      	cmp	r3, #0
 8003614:	d18d      	bne.n	8003532 <I2C_WaitOnMasterAddressFlagUntilTimeout+0x10>
      }
    }
  }
  return HAL_OK;
 8003616:	2300      	movs	r3, #0
}
 8003618:	4618      	mov	r0, r3
 800361a:	3710      	adds	r7, #16
 800361c:	46bd      	mov	sp, r7
 800361e:	bd80      	pop	{r7, pc}

08003620 <I2C_WaitOnTXEFlagUntilTimeout>:
  * @param  Timeout Timeout duration
  * @param  Tickstart Tick start value
  * @retval HAL status
  */
static HAL_StatusTypeDef I2C_WaitOnTXEFlagUntilTimeout(I2C_HandleTypeDef *hi2c, uint32_t Timeout, uint32_t Tickstart)
{
 8003620:	b580      	push	{r7, lr}
 8003622:	b084      	sub	sp, #16
 8003624:	af00      	add	r7, sp, #0
 8003626:	60f8      	str	r0, [r7, #12]
 8003628:	60b9      	str	r1, [r7, #8]
 800362a:	607a      	str	r2, [r7, #4]
  while (__HAL_I2C_GET_FLAG(hi2c, I2C_FLAG_TXE) == RESET)
 800362c:	e02d      	b.n	800368a <I2C_WaitOnTXEFlagUntilTimeout+0x6a>
  {
    /* Check if a NACK is detected */
    if (I2C_IsAcknowledgeFailed(hi2c) != HAL_OK)
 800362e:	68f8      	ldr	r0, [r7, #12]
 8003630:	f000 f878 	bl	8003724 <I2C_IsAcknowledgeFailed>
 8003634:	4603      	mov	r3, r0
 8003636:	2b00      	cmp	r3, #0
 8003638:	d001      	beq.n	800363e <I2C_WaitOnTXEFlagUntilTimeout+0x1e>
    {
      return HAL_ERROR;
 800363a:	2301      	movs	r3, #1
 800363c:	e02d      	b.n	800369a <I2C_WaitOnTXEFlagUntilTimeout+0x7a>
    }

    /* Check for the Timeout */
    if (Timeout != HAL_MAX_DELAY)
 800363e:	68bb      	ldr	r3, [r7, #8]
 8003640:	f1b3 3fff 	cmp.w	r3, #4294967295
 8003644:	d021      	beq.n	800368a <I2C_WaitOnTXEFlagUntilTimeout+0x6a>
    {
      if (((HAL_GetTick() - Tickstart) > Timeout) || (Timeout == 0U))
 8003646:	f7fd fda5 	bl	8001194 <HAL_GetTick>
 800364a:	4602      	mov	r2, r0
 800364c:	687b      	ldr	r3, [r7, #4]
 800364e:	1ad3      	subs	r3, r2, r3
 8003650:	68ba      	ldr	r2, [r7, #8]
 8003652:	429a      	cmp	r2, r3
 8003654:	d302      	bcc.n	800365c <I2C_WaitOnTXEFlagUntilTimeout+0x3c>
 8003656:	68bb      	ldr	r3, [r7, #8]
 8003658:	2b00      	cmp	r3, #0
 800365a:	d116      	bne.n	800368a <I2C_WaitOnTXEFlagUntilTimeout+0x6a>
      {
        hi2c->PreviousState       = I2C_STATE_NONE;
 800365c:	68fb      	ldr	r3, [r7, #12]
 800365e:	2200      	movs	r2, #0
 8003660:	631a      	str	r2, [r3, #48]	; 0x30
        hi2c->State               = HAL_I2C_STATE_READY;
 8003662:	68fb      	ldr	r3, [r7, #12]
 8003664:	2220      	movs	r2, #32
 8003666:	f883 203d 	strb.w	r2, [r3, #61]	; 0x3d
        hi2c->Mode                = HAL_I2C_MODE_NONE;
 800366a:	68fb      	ldr	r3, [r7, #12]
 800366c:	2200      	movs	r2, #0
 800366e:	f883 203e 	strb.w	r2, [r3, #62]	; 0x3e
        hi2c->ErrorCode           |= HAL_I2C_ERROR_TIMEOUT;
 8003672:	68fb      	ldr	r3, [r7, #12]
 8003674:	6c1b      	ldr	r3, [r3, #64]	; 0x40
 8003676:	f043 0220 	orr.w	r2, r3, #32
 800367a:	68fb      	ldr	r3, [r7, #12]
 800367c:	641a      	str	r2, [r3, #64]	; 0x40

        /* Process Unlocked */
        __HAL_UNLOCK(hi2c);
 800367e:	68fb      	ldr	r3, [r7, #12]
 8003680:	2200      	movs	r2, #0
 8003682:	f883 203c 	strb.w	r2, [r3, #60]	; 0x3c

        return HAL_ERROR;
 8003686:	2301      	movs	r3, #1
 8003688:	e007      	b.n	800369a <I2C_WaitOnTXEFlagUntilTimeout+0x7a>
  while (__HAL_I2C_GET_FLAG(hi2c, I2C_FLAG_TXE) == RESET)
 800368a:	68fb      	ldr	r3, [r7, #12]
 800368c:	681b      	ldr	r3, [r3, #0]
 800368e:	695b      	ldr	r3, [r3, #20]
 8003690:	f003 0380 	and.w	r3, r3, #128	; 0x80
 8003694:	2b80      	cmp	r3, #128	; 0x80
 8003696:	d1ca      	bne.n	800362e <I2C_WaitOnTXEFlagUntilTimeout+0xe>
      }
    }
  }
  return HAL_OK;
 8003698:	2300      	movs	r3, #0
}
 800369a:	4618      	mov	r0, r3
 800369c:	3710      	adds	r7, #16
 800369e:	46bd      	mov	sp, r7
 80036a0:	bd80      	pop	{r7, pc}

080036a2 <I2C_WaitOnBTFFlagUntilTimeout>:
  * @param  Timeout Timeout duration
  * @param  Tickstart Tick start value
  * @retval HAL status
  */
static HAL_StatusTypeDef I2C_WaitOnBTFFlagUntilTimeout(I2C_HandleTypeDef *hi2c, uint32_t Timeout, uint32_t Tickstart)
{
 80036a2:	b580      	push	{r7, lr}
 80036a4:	b084      	sub	sp, #16
 80036a6:	af00      	add	r7, sp, #0
 80036a8:	60f8      	str	r0, [r7, #12]
 80036aa:	60b9      	str	r1, [r7, #8]
 80036ac:	607a      	str	r2, [r7, #4]
  while (__HAL_I2C_GET_FLAG(hi2c, I2C_FLAG_BTF) == RESET)
 80036ae:	e02d      	b.n	800370c <I2C_WaitOnBTFFlagUntilTimeout+0x6a>
  {
    /* Check if a NACK is detected */
    if (I2C_IsAcknowledgeFailed(hi2c) != HAL_OK)
 80036b0:	68f8      	ldr	r0, [r7, #12]
 80036b2:	f000 f837 	bl	8003724 <I2C_IsAcknowledgeFailed>
 80036b6:	4603      	mov	r3, r0
 80036b8:	2b00      	cmp	r3, #0
 80036ba:	d001      	beq.n	80036c0 <I2C_WaitOnBTFFlagUntilTimeout+0x1e>
    {
      return HAL_ERROR;
 80036bc:	2301      	movs	r3, #1
 80036be:	e02d      	b.n	800371c <I2C_WaitOnBTFFlagUntilTimeout+0x7a>
    }

    /* Check for the Timeout */
    if (Timeout != HAL_MAX_DELAY)
 80036c0:	68bb      	ldr	r3, [r7, #8]
 80036c2:	f1b3 3fff 	cmp.w	r3, #4294967295
 80036c6:	d021      	beq.n	800370c <I2C_WaitOnBTFFlagUntilTimeout+0x6a>
    {
      if (((HAL_GetTick() - Tickstart) > Timeout) || (Timeout == 0U))
 80036c8:	f7fd fd64 	bl	8001194 <HAL_GetTick>
 80036cc:	4602      	mov	r2, r0
 80036ce:	687b      	ldr	r3, [r7, #4]
 80036d0:	1ad3      	subs	r3, r2, r3
 80036d2:	68ba      	ldr	r2, [r7, #8]
 80036d4:	429a      	cmp	r2, r3
 80036d6:	d302      	bcc.n	80036de <I2C_WaitOnBTFFlagUntilTimeout+0x3c>
 80036d8:	68bb      	ldr	r3, [r7, #8]
 80036da:	2b00      	cmp	r3, #0
 80036dc:	d116      	bne.n	800370c <I2C_WaitOnBTFFlagUntilTimeout+0x6a>
      {
        hi2c->PreviousState       = I2C_STATE_NONE;
 80036de:	68fb      	ldr	r3, [r7, #12]
 80036e0:	2200      	movs	r2, #0
 80036e2:	631a      	str	r2, [r3, #48]	; 0x30
        hi2c->State               = HAL_I2C_STATE_READY;
 80036e4:	68fb      	ldr	r3, [r7, #12]
 80036e6:	2220      	movs	r2, #32
 80036e8:	f883 203d 	strb.w	r2, [r3, #61]	; 0x3d
        hi2c->Mode                = HAL_I2C_MODE_NONE;
 80036ec:	68fb      	ldr	r3, [r7, #12]
 80036ee:	2200      	movs	r2, #0
 80036f0:	f883 203e 	strb.w	r2, [r3, #62]	; 0x3e
        hi2c->ErrorCode           |= HAL_I2C_ERROR_TIMEOUT;
 80036f4:	68fb      	ldr	r3, [r7, #12]
 80036f6:	6c1b      	ldr	r3, [r3, #64]	; 0x40
 80036f8:	f043 0220 	orr.w	r2, r3, #32
 80036fc:	68fb      	ldr	r3, [r7, #12]
 80036fe:	641a      	str	r2, [r3, #64]	; 0x40

        /* Process Unlocked */
        __HAL_UNLOCK(hi2c);
 8003700:	68fb      	ldr	r3, [r7, #12]
 8003702:	2200      	movs	r2, #0
 8003704:	f883 203c 	strb.w	r2, [r3, #60]	; 0x3c

        return HAL_ERROR;
 8003708:	2301      	movs	r3, #1
 800370a:	e007      	b.n	800371c <I2C_WaitOnBTFFlagUntilTimeout+0x7a>
  while (__HAL_I2C_GET_FLAG(hi2c, I2C_FLAG_BTF) == RESET)
 800370c:	68fb      	ldr	r3, [r7, #12]
 800370e:	681b      	ldr	r3, [r3, #0]
 8003710:	695b      	ldr	r3, [r3, #20]
 8003712:	f003 0304 	and.w	r3, r3, #4
 8003716:	2b04      	cmp	r3, #4
 8003718:	d1ca      	bne.n	80036b0 <I2C_WaitOnBTFFlagUntilTimeout+0xe>
      }
    }
  }
  return HAL_OK;
 800371a:	2300      	movs	r3, #0
}
 800371c:	4618      	mov	r0, r3
 800371e:	3710      	adds	r7, #16
 8003720:	46bd      	mov	sp, r7
 8003722:	bd80      	pop	{r7, pc}

08003724 <I2C_IsAcknowledgeFailed>:
  * @param  hi2c Pointer to a I2C_HandleTypeDef structure that contains
  *                the configuration information for the specified I2C.
  * @retval HAL status
  */
static HAL_StatusTypeDef I2C_IsAcknowledgeFailed(I2C_HandleTypeDef *hi2c)
{
 8003724:	b480      	push	{r7}
 8003726:	b083      	sub	sp, #12
 8003728:	af00      	add	r7, sp, #0
 800372a:	6078      	str	r0, [r7, #4]
  if (__HAL_I2C_GET_FLAG(hi2c, I2C_FLAG_AF) == SET)
 800372c:	687b      	ldr	r3, [r7, #4]
 800372e:	681b      	ldr	r3, [r3, #0]
 8003730:	695b      	ldr	r3, [r3, #20]
 8003732:	f403 6380 	and.w	r3, r3, #1024	; 0x400
 8003736:	f5b3 6f80 	cmp.w	r3, #1024	; 0x400
 800373a:	d11b      	bne.n	8003774 <I2C_IsAcknowledgeFailed+0x50>
  {
    /* Clear NACKF Flag */
    __HAL_I2C_CLEAR_FLAG(hi2c, I2C_FLAG_AF);
 800373c:	687b      	ldr	r3, [r7, #4]
 800373e:	681b      	ldr	r3, [r3, #0]
 8003740:	f46f 6280 	mvn.w	r2, #1024	; 0x400
 8003744:	615a      	str	r2, [r3, #20]

    hi2c->PreviousState       = I2C_STATE_NONE;
 8003746:	687b      	ldr	r3, [r7, #4]
 8003748:	2200      	movs	r2, #0
 800374a:	631a      	str	r2, [r3, #48]	; 0x30
    hi2c->State               = HAL_I2C_STATE_READY;
 800374c:	687b      	ldr	r3, [r7, #4]
 800374e:	2220      	movs	r2, #32
 8003750:	f883 203d 	strb.w	r2, [r3, #61]	; 0x3d
    hi2c->Mode                = HAL_I2C_MODE_NONE;
 8003754:	687b      	ldr	r3, [r7, #4]
 8003756:	2200      	movs	r2, #0
 8003758:	f883 203e 	strb.w	r2, [r3, #62]	; 0x3e
    hi2c->ErrorCode           |= HAL_I2C_ERROR_AF;
 800375c:	687b      	ldr	r3, [r7, #4]
 800375e:	6c1b      	ldr	r3, [r3, #64]	; 0x40
 8003760:	f043 0204 	orr.w	r2, r3, #4
 8003764:	687b      	ldr	r3, [r7, #4]
 8003766:	641a      	str	r2, [r3, #64]	; 0x40

    /* Process Unlocked */
    __HAL_UNLOCK(hi2c);
 8003768:	687b      	ldr	r3, [r7, #4]
 800376a:	2200      	movs	r2, #0
 800376c:	f883 203c 	strb.w	r2, [r3, #60]	; 0x3c

    return HAL_ERROR;
 8003770:	2301      	movs	r3, #1
 8003772:	e000      	b.n	8003776 <I2C_IsAcknowledgeFailed+0x52>
  }
  return HAL_OK;
 8003774:	2300      	movs	r3, #0
}
 8003776:	4618      	mov	r0, r3
 8003778:	370c      	adds	r7, #12
 800377a:	46bd      	mov	sp, r7
 800377c:	bc80      	pop	{r7}
 800377e:	4770      	bx	lr

08003780 <HAL_RCC_OscConfig>:
  *         supported by this macro. User should request a transition to HSE Off
  *         first and then HSE On or HSE Bypass.
  * @retval HAL status
  */
HAL_StatusTypeDef HAL_RCC_OscConfig(RCC_OscInitTypeDef  *RCC_OscInitStruct)
{
 8003780:	b580      	push	{r7, lr}
 8003782:	b086      	sub	sp, #24
 8003784:	af00      	add	r7, sp, #0
 8003786:	6078      	str	r0, [r7, #4]
  uint32_t tickstart;
  uint32_t pll_config;

  /* Check Null pointer */
  if (RCC_OscInitStruct == NULL)
 8003788:	687b      	ldr	r3, [r7, #4]
 800378a:	2b00      	cmp	r3, #0
 800378c:	d101      	bne.n	8003792 <HAL_RCC_OscConfig+0x12>
  {
    return HAL_ERROR;
 800378e:	2301      	movs	r3, #1
 8003790:	e26c      	b.n	8003c6c <HAL_RCC_OscConfig+0x4ec>

  /* Check the parameters */
  assert_param(IS_RCC_OSCILLATORTYPE(RCC_OscInitStruct->OscillatorType));

  /*------------------------------- HSE Configuration ------------------------*/
  if (((RCC_OscInitStruct->OscillatorType) & RCC_OSCILLATORTYPE_HSE) == RCC_OSCILLATORTYPE_HSE)
 8003792:	687b      	ldr	r3, [r7, #4]
 8003794:	681b      	ldr	r3, [r3, #0]
 8003796:	f003 0301 	and.w	r3, r3, #1
 800379a:	2b00      	cmp	r3, #0
 800379c:	f000 8087 	beq.w	80038ae <HAL_RCC_OscConfig+0x12e>
  {
    /* Check the parameters */
    assert_param(IS_RCC_HSE(RCC_OscInitStruct->HSEState));

    /* When the HSE is used as system clock or clock source for PLL in these cases it is not allowed to be disabled */
    if ((__HAL_RCC_GET_SYSCLK_SOURCE() == RCC_SYSCLKSOURCE_STATUS_HSE)
 80037a0:	4b92      	ldr	r3, [pc, #584]	; (80039ec <HAL_RCC_OscConfig+0x26c>)
 80037a2:	685b      	ldr	r3, [r3, #4]
 80037a4:	f003 030c 	and.w	r3, r3, #12
 80037a8:	2b04      	cmp	r3, #4
 80037aa:	d00c      	beq.n	80037c6 <HAL_RCC_OscConfig+0x46>
        || ((__HAL_RCC_GET_SYSCLK_SOURCE() == RCC_SYSCLKSOURCE_STATUS_PLLCLK) && (__HAL_RCC_GET_PLL_OSCSOURCE() == RCC_PLLSOURCE_HSE)))
 80037ac:	4b8f      	ldr	r3, [pc, #572]	; (80039ec <HAL_RCC_OscConfig+0x26c>)
 80037ae:	685b      	ldr	r3, [r3, #4]
 80037b0:	f003 030c 	and.w	r3, r3, #12
 80037b4:	2b08      	cmp	r3, #8
 80037b6:	d112      	bne.n	80037de <HAL_RCC_OscConfig+0x5e>
 80037b8:	4b8c      	ldr	r3, [pc, #560]	; (80039ec <HAL_RCC_OscConfig+0x26c>)
 80037ba:	685b      	ldr	r3, [r3, #4]
 80037bc:	f403 3380 	and.w	r3, r3, #65536	; 0x10000
 80037c0:	f5b3 3f80 	cmp.w	r3, #65536	; 0x10000
 80037c4:	d10b      	bne.n	80037de <HAL_RCC_OscConfig+0x5e>
    {
      if ((__HAL_RCC_GET_FLAG(RCC_FLAG_HSERDY) != RESET) && (RCC_OscInitStruct->HSEState == RCC_HSE_OFF))
 80037c6:	4b89      	ldr	r3, [pc, #548]	; (80039ec <HAL_RCC_OscConfig+0x26c>)
 80037c8:	681b      	ldr	r3, [r3, #0]
 80037ca:	f403 3300 	and.w	r3, r3, #131072	; 0x20000
 80037ce:	2b00      	cmp	r3, #0
 80037d0:	d06c      	beq.n	80038ac <HAL_RCC_OscConfig+0x12c>
 80037d2:	687b      	ldr	r3, [r7, #4]
 80037d4:	685b      	ldr	r3, [r3, #4]
 80037d6:	2b00      	cmp	r3, #0
 80037d8:	d168      	bne.n	80038ac <HAL_RCC_OscConfig+0x12c>
      {
        return HAL_ERROR;
 80037da:	2301      	movs	r3, #1
 80037dc:	e246      	b.n	8003c6c <HAL_RCC_OscConfig+0x4ec>
      }
    }
    else
    {
      /* Set the new HSE configuration ---------------------------------------*/
      __HAL_RCC_HSE_CONFIG(RCC_OscInitStruct->HSEState);
 80037de:	687b      	ldr	r3, [r7, #4]
 80037e0:	685b      	ldr	r3, [r3, #4]
 80037e2:	f5b3 3f80 	cmp.w	r3, #65536	; 0x10000
 80037e6:	d106      	bne.n	80037f6 <HAL_RCC_OscConfig+0x76>
 80037e8:	4b80      	ldr	r3, [pc, #512]	; (80039ec <HAL_RCC_OscConfig+0x26c>)
 80037ea:	681b      	ldr	r3, [r3, #0]
 80037ec:	4a7f      	ldr	r2, [pc, #508]	; (80039ec <HAL_RCC_OscConfig+0x26c>)
 80037ee:	f443 3380 	orr.w	r3, r3, #65536	; 0x10000
 80037f2:	6013      	str	r3, [r2, #0]
 80037f4:	e02e      	b.n	8003854 <HAL_RCC_OscConfig+0xd4>
 80037f6:	687b      	ldr	r3, [r7, #4]
 80037f8:	685b      	ldr	r3, [r3, #4]
 80037fa:	2b00      	cmp	r3, #0
 80037fc:	d10c      	bne.n	8003818 <HAL_RCC_OscConfig+0x98>
 80037fe:	4b7b      	ldr	r3, [pc, #492]	; (80039ec <HAL_RCC_OscConfig+0x26c>)
 8003800:	681b      	ldr	r3, [r3, #0]
 8003802:	4a7a      	ldr	r2, [pc, #488]	; (80039ec <HAL_RCC_OscConfig+0x26c>)
 8003804:	f423 3380 	bic.w	r3, r3, #65536	; 0x10000
 8003808:	6013      	str	r3, [r2, #0]
 800380a:	4b78      	ldr	r3, [pc, #480]	; (80039ec <HAL_RCC_OscConfig+0x26c>)
 800380c:	681b      	ldr	r3, [r3, #0]
 800380e:	4a77      	ldr	r2, [pc, #476]	; (80039ec <HAL_RCC_OscConfig+0x26c>)
 8003810:	f423 2380 	bic.w	r3, r3, #262144	; 0x40000
 8003814:	6013      	str	r3, [r2, #0]
 8003816:	e01d      	b.n	8003854 <HAL_RCC_OscConfig+0xd4>
 8003818:	687b      	ldr	r3, [r7, #4]
 800381a:	685b      	ldr	r3, [r3, #4]
 800381c:	f5b3 2fa0 	cmp.w	r3, #327680	; 0x50000
 8003820:	d10c      	bne.n	800383c <HAL_RCC_OscConfig+0xbc>
 8003822:	4b72      	ldr	r3, [pc, #456]	; (80039ec <HAL_RCC_OscConfig+0x26c>)
 8003824:	681b      	ldr	r3, [r3, #0]
 8003826:	4a71      	ldr	r2, [pc, #452]	; (80039ec <HAL_RCC_OscConfig+0x26c>)
 8003828:	f443 2380 	orr.w	r3, r3, #262144	; 0x40000
 800382c:	6013      	str	r3, [r2, #0]
 800382e:	4b6f      	ldr	r3, [pc, #444]	; (80039ec <HAL_RCC_OscConfig+0x26c>)
 8003830:	681b      	ldr	r3, [r3, #0]
 8003832:	4a6e      	ldr	r2, [pc, #440]	; (80039ec <HAL_RCC_OscConfig+0x26c>)
 8003834:	f443 3380 	orr.w	r3, r3, #65536	; 0x10000
 8003838:	6013      	str	r3, [r2, #0]
 800383a:	e00b      	b.n	8003854 <HAL_RCC_OscConfig+0xd4>
 800383c:	4b6b      	ldr	r3, [pc, #428]	; (80039ec <HAL_RCC_OscConfig+0x26c>)
 800383e:	681b      	ldr	r3, [r3, #0]
 8003840:	4a6a      	ldr	r2, [pc, #424]	; (80039ec <HAL_RCC_OscConfig+0x26c>)
 8003842:	f423 3380 	bic.w	r3, r3, #65536	; 0x10000
 8003846:	6013      	str	r3, [r2, #0]
 8003848:	4b68      	ldr	r3, [pc, #416]	; (80039ec <HAL_RCC_OscConfig+0x26c>)
 800384a:	681b      	ldr	r3, [r3, #0]
 800384c:	4a67      	ldr	r2, [pc, #412]	; (80039ec <HAL_RCC_OscConfig+0x26c>)
 800384e:	f423 2380 	bic.w	r3, r3, #262144	; 0x40000
 8003852:	6013      	str	r3, [r2, #0]


      /* Check the HSE State */
      if (RCC_OscInitStruct->HSEState != RCC_HSE_OFF)
 8003854:	687b      	ldr	r3, [r7, #4]
 8003856:	685b      	ldr	r3, [r3, #4]
 8003858:	2b00      	cmp	r3, #0
 800385a:	d013      	beq.n	8003884 <HAL_RCC_OscConfig+0x104>
      {
        /* Get Start Tick */
        tickstart = HAL_GetTick();
 800385c:	f7fd fc9a 	bl	8001194 <HAL_GetTick>
 8003860:	6138      	str	r0, [r7, #16]

        /* Wait till HSE is ready */
        while (__HAL_RCC_GET_FLAG(RCC_FLAG_HSERDY) == RESET)
 8003862:	e008      	b.n	8003876 <HAL_RCC_OscConfig+0xf6>
        {
          if ((HAL_GetTick() - tickstart) > HSE_TIMEOUT_VALUE)
 8003864:	f7fd fc96 	bl	8001194 <HAL_GetTick>
 8003868:	4602      	mov	r2, r0
 800386a:	693b      	ldr	r3, [r7, #16]
 800386c:	1ad3      	subs	r3, r2, r3
 800386e:	2b64      	cmp	r3, #100	; 0x64
 8003870:	d901      	bls.n	8003876 <HAL_RCC_OscConfig+0xf6>
          {
            return HAL_TIMEOUT;
 8003872:	2303      	movs	r3, #3
 8003874:	e1fa      	b.n	8003c6c <HAL_RCC_OscConfig+0x4ec>
        while (__HAL_RCC_GET_FLAG(RCC_FLAG_HSERDY) == RESET)
 8003876:	4b5d      	ldr	r3, [pc, #372]	; (80039ec <HAL_RCC_OscConfig+0x26c>)
 8003878:	681b      	ldr	r3, [r3, #0]
 800387a:	f403 3300 	and.w	r3, r3, #131072	; 0x20000
 800387e:	2b00      	cmp	r3, #0
 8003880:	d0f0      	beq.n	8003864 <HAL_RCC_OscConfig+0xe4>
 8003882:	e014      	b.n	80038ae <HAL_RCC_OscConfig+0x12e>
        }
      }
      else
      {
        /* Get Start Tick */
        tickstart = HAL_GetTick();
 8003884:	f7fd fc86 	bl	8001194 <HAL_GetTick>
 8003888:	6138      	str	r0, [r7, #16]

        /* Wait till HSE is disabled */
        while (__HAL_RCC_GET_FLAG(RCC_FLAG_HSERDY) != RESET)
 800388a:	e008      	b.n	800389e <HAL_RCC_OscConfig+0x11e>
        {
          if ((HAL_GetTick() - tickstart) > HSE_TIMEOUT_VALUE)
 800388c:	f7fd fc82 	bl	8001194 <HAL_GetTick>
 8003890:	4602      	mov	r2, r0
 8003892:	693b      	ldr	r3, [r7, #16]
 8003894:	1ad3      	subs	r3, r2, r3
 8003896:	2b64      	cmp	r3, #100	; 0x64
 8003898:	d901      	bls.n	800389e <HAL_RCC_OscConfig+0x11e>
          {
            return HAL_TIMEOUT;
 800389a:	2303      	movs	r3, #3
 800389c:	e1e6      	b.n	8003c6c <HAL_RCC_OscConfig+0x4ec>
        while (__HAL_RCC_GET_FLAG(RCC_FLAG_HSERDY) != RESET)
 800389e:	4b53      	ldr	r3, [pc, #332]	; (80039ec <HAL_RCC_OscConfig+0x26c>)
 80038a0:	681b      	ldr	r3, [r3, #0]
 80038a2:	f403 3300 	and.w	r3, r3, #131072	; 0x20000
 80038a6:	2b00      	cmp	r3, #0
 80038a8:	d1f0      	bne.n	800388c <HAL_RCC_OscConfig+0x10c>
 80038aa:	e000      	b.n	80038ae <HAL_RCC_OscConfig+0x12e>
      if ((__HAL_RCC_GET_FLAG(RCC_FLAG_HSERDY) != RESET) && (RCC_OscInitStruct->HSEState == RCC_HSE_OFF))
 80038ac:	bf00      	nop
        }
      }
    }
  }
  /*----------------------------- HSI Configuration --------------------------*/
  if (((RCC_OscInitStruct->OscillatorType) & RCC_OSCILLATORTYPE_HSI) == RCC_OSCILLATORTYPE_HSI)
 80038ae:	687b      	ldr	r3, [r7, #4]
 80038b0:	681b      	ldr	r3, [r3, #0]
 80038b2:	f003 0302 	and.w	r3, r3, #2
 80038b6:	2b00      	cmp	r3, #0
 80038b8:	d063      	beq.n	8003982 <HAL_RCC_OscConfig+0x202>
    /* Check the parameters */
    assert_param(IS_RCC_HSI(RCC_OscInitStruct->HSIState));
    assert_param(IS_RCC_CALIBRATION_VALUE(RCC_OscInitStruct->HSICalibrationValue));

    /* Check if HSI is used as system clock or as PLL source when PLL is selected as system clock */
    if ((__HAL_RCC_GET_SYSCLK_SOURCE() == RCC_SYSCLKSOURCE_STATUS_HSI)
 80038ba:	4b4c      	ldr	r3, [pc, #304]	; (80039ec <HAL_RCC_OscConfig+0x26c>)
 80038bc:	685b      	ldr	r3, [r3, #4]
 80038be:	f003 030c 	and.w	r3, r3, #12
 80038c2:	2b00      	cmp	r3, #0
 80038c4:	d00b      	beq.n	80038de <HAL_RCC_OscConfig+0x15e>
        || ((__HAL_RCC_GET_SYSCLK_SOURCE() == RCC_SYSCLKSOURCE_STATUS_PLLCLK) && (__HAL_RCC_GET_PLL_OSCSOURCE() == RCC_PLLSOURCE_HSI_DIV2)))
 80038c6:	4b49      	ldr	r3, [pc, #292]	; (80039ec <HAL_RCC_OscConfig+0x26c>)
 80038c8:	685b      	ldr	r3, [r3, #4]
 80038ca:	f003 030c 	and.w	r3, r3, #12
 80038ce:	2b08      	cmp	r3, #8
 80038d0:	d11c      	bne.n	800390c <HAL_RCC_OscConfig+0x18c>
 80038d2:	4b46      	ldr	r3, [pc, #280]	; (80039ec <HAL_RCC_OscConfig+0x26c>)
 80038d4:	685b      	ldr	r3, [r3, #4]
 80038d6:	f403 3380 	and.w	r3, r3, #65536	; 0x10000
 80038da:	2b00      	cmp	r3, #0
 80038dc:	d116      	bne.n	800390c <HAL_RCC_OscConfig+0x18c>
    {
      /* When HSI is used as system clock it will not disabled */
      if ((__HAL_RCC_GET_FLAG(RCC_FLAG_HSIRDY) != RESET) && (RCC_OscInitStruct->HSIState != RCC_HSI_ON))
 80038de:	4b43      	ldr	r3, [pc, #268]	; (80039ec <HAL_RCC_OscConfig+0x26c>)
 80038e0:	681b      	ldr	r3, [r3, #0]
 80038e2:	f003 0302 	and.w	r3, r3, #2
 80038e6:	2b00      	cmp	r3, #0
 80038e8:	d005      	beq.n	80038f6 <HAL_RCC_OscConfig+0x176>
 80038ea:	687b      	ldr	r3, [r7, #4]
 80038ec:	691b      	ldr	r3, [r3, #16]
 80038ee:	2b01      	cmp	r3, #1
 80038f0:	d001      	beq.n	80038f6 <HAL_RCC_OscConfig+0x176>
      {
        return HAL_ERROR;
 80038f2:	2301      	movs	r3, #1
 80038f4:	e1ba      	b.n	8003c6c <HAL_RCC_OscConfig+0x4ec>
      }
      /* Otherwise, just the calibration is allowed */
      else
      {
        /* Adjusts the Internal High Speed oscillator (HSI) calibration value.*/
        __HAL_RCC_HSI_CALIBRATIONVALUE_ADJUST(RCC_OscInitStruct->HSICalibrationValue);
 80038f6:	4b3d      	ldr	r3, [pc, #244]	; (80039ec <HAL_RCC_OscConfig+0x26c>)
 80038f8:	681b      	ldr	r3, [r3, #0]
 80038fa:	f023 02f8 	bic.w	r2, r3, #248	; 0xf8
 80038fe:	687b      	ldr	r3, [r7, #4]
 8003900:	695b      	ldr	r3, [r3, #20]
 8003902:	00db      	lsls	r3, r3, #3
 8003904:	4939      	ldr	r1, [pc, #228]	; (80039ec <HAL_RCC_OscConfig+0x26c>)
 8003906:	4313      	orrs	r3, r2
 8003908:	600b      	str	r3, [r1, #0]
      if ((__HAL_RCC_GET_FLAG(RCC_FLAG_HSIRDY) != RESET) && (RCC_OscInitStruct->HSIState != RCC_HSI_ON))
 800390a:	e03a      	b.n	8003982 <HAL_RCC_OscConfig+0x202>
      }
    }
    else
    {
      /* Check the HSI State */
      if (RCC_OscInitStruct->HSIState != RCC_HSI_OFF)
 800390c:	687b      	ldr	r3, [r7, #4]
 800390e:	691b      	ldr	r3, [r3, #16]
 8003910:	2b00      	cmp	r3, #0
 8003912:	d020      	beq.n	8003956 <HAL_RCC_OscConfig+0x1d6>
      {
        /* Enable the Internal High Speed oscillator (HSI). */
        __HAL_RCC_HSI_ENABLE();
 8003914:	4b36      	ldr	r3, [pc, #216]	; (80039f0 <HAL_RCC_OscConfig+0x270>)
 8003916:	2201      	movs	r2, #1
 8003918:	601a      	str	r2, [r3, #0]

        /* Get Start Tick */
        tickstart = HAL_GetTick();
 800391a:	f7fd fc3b 	bl	8001194 <HAL_GetTick>
 800391e:	6138      	str	r0, [r7, #16]

        /* Wait till HSI is ready */
        while (__HAL_RCC_GET_FLAG(RCC_FLAG_HSIRDY) == RESET)
 8003920:	e008      	b.n	8003934 <HAL_RCC_OscConfig+0x1b4>
        {
          if ((HAL_GetTick() - tickstart) > HSI_TIMEOUT_VALUE)
 8003922:	f7fd fc37 	bl	8001194 <HAL_GetTick>
 8003926:	4602      	mov	r2, r0
 8003928:	693b      	ldr	r3, [r7, #16]
 800392a:	1ad3      	subs	r3, r2, r3
 800392c:	2b02      	cmp	r3, #2
 800392e:	d901      	bls.n	8003934 <HAL_RCC_OscConfig+0x1b4>
          {
            return HAL_TIMEOUT;
 8003930:	2303      	movs	r3, #3
 8003932:	e19b      	b.n	8003c6c <HAL_RCC_OscConfig+0x4ec>
        while (__HAL_RCC_GET_FLAG(RCC_FLAG_HSIRDY) == RESET)
 8003934:	4b2d      	ldr	r3, [pc, #180]	; (80039ec <HAL_RCC_OscConfig+0x26c>)
 8003936:	681b      	ldr	r3, [r3, #0]
 8003938:	f003 0302 	and.w	r3, r3, #2
 800393c:	2b00      	cmp	r3, #0
 800393e:	d0f0      	beq.n	8003922 <HAL_RCC_OscConfig+0x1a2>
          }
        }

        /* Adjusts the Internal High Speed oscillator (HSI) calibration value.*/
        __HAL_RCC_HSI_CALIBRATIONVALUE_ADJUST(RCC_OscInitStruct->HSICalibrationValue);
 8003940:	4b2a      	ldr	r3, [pc, #168]	; (80039ec <HAL_RCC_OscConfig+0x26c>)
 8003942:	681b      	ldr	r3, [r3, #0]
 8003944:	f023 02f8 	bic.w	r2, r3, #248	; 0xf8
 8003948:	687b      	ldr	r3, [r7, #4]
 800394a:	695b      	ldr	r3, [r3, #20]
 800394c:	00db      	lsls	r3, r3, #3
 800394e:	4927      	ldr	r1, [pc, #156]	; (80039ec <HAL_RCC_OscConfig+0x26c>)
 8003950:	4313      	orrs	r3, r2
 8003952:	600b      	str	r3, [r1, #0]
 8003954:	e015      	b.n	8003982 <HAL_RCC_OscConfig+0x202>
      }
      else
      {
        /* Disable the Internal High Speed oscillator (HSI). */
        __HAL_RCC_HSI_DISABLE();
 8003956:	4b26      	ldr	r3, [pc, #152]	; (80039f0 <HAL_RCC_OscConfig+0x270>)
 8003958:	2200      	movs	r2, #0
 800395a:	601a      	str	r2, [r3, #0]

        /* Get Start Tick */
        tickstart = HAL_GetTick();
 800395c:	f7fd fc1a 	bl	8001194 <HAL_GetTick>
 8003960:	6138      	str	r0, [r7, #16]

        /* Wait till HSI is disabled */
        while (__HAL_RCC_GET_FLAG(RCC_FLAG_HSIRDY) != RESET)
 8003962:	e008      	b.n	8003976 <HAL_RCC_OscConfig+0x1f6>
        {
          if ((HAL_GetTick() - tickstart) > HSI_TIMEOUT_VALUE)
 8003964:	f7fd fc16 	bl	8001194 <HAL_GetTick>
 8003968:	4602      	mov	r2, r0
 800396a:	693b      	ldr	r3, [r7, #16]
 800396c:	1ad3      	subs	r3, r2, r3
 800396e:	2b02      	cmp	r3, #2
 8003970:	d901      	bls.n	8003976 <HAL_RCC_OscConfig+0x1f6>
          {
            return HAL_TIMEOUT;
 8003972:	2303      	movs	r3, #3
 8003974:	e17a      	b.n	8003c6c <HAL_RCC_OscConfig+0x4ec>
        while (__HAL_RCC_GET_FLAG(RCC_FLAG_HSIRDY) != RESET)
 8003976:	4b1d      	ldr	r3, [pc, #116]	; (80039ec <HAL_RCC_OscConfig+0x26c>)
 8003978:	681b      	ldr	r3, [r3, #0]
 800397a:	f003 0302 	and.w	r3, r3, #2
 800397e:	2b00      	cmp	r3, #0
 8003980:	d1f0      	bne.n	8003964 <HAL_RCC_OscConfig+0x1e4>
        }
      }
    }
  }
  /*------------------------------ LSI Configuration -------------------------*/
  if (((RCC_OscInitStruct->OscillatorType) & RCC_OSCILLATORTYPE_LSI) == RCC_OSCILLATORTYPE_LSI)
 8003982:	687b      	ldr	r3, [r7, #4]
 8003984:	681b      	ldr	r3, [r3, #0]
 8003986:	f003 0308 	and.w	r3, r3, #8
 800398a:	2b00      	cmp	r3, #0
 800398c:	d03a      	beq.n	8003a04 <HAL_RCC_OscConfig+0x284>
  {
    /* Check the parameters */
    assert_param(IS_RCC_LSI(RCC_OscInitStruct->LSIState));

    /* Check the LSI State */
    if (RCC_OscInitStruct->LSIState != RCC_LSI_OFF)
 800398e:	687b      	ldr	r3, [r7, #4]
 8003990:	699b      	ldr	r3, [r3, #24]
 8003992:	2b00      	cmp	r3, #0
 8003994:	d019      	beq.n	80039ca <HAL_RCC_OscConfig+0x24a>
    {
      /* Enable the Internal Low Speed oscillator (LSI). */
      __HAL_RCC_LSI_ENABLE();
 8003996:	4b17      	ldr	r3, [pc, #92]	; (80039f4 <HAL_RCC_OscConfig+0x274>)
 8003998:	2201      	movs	r2, #1
 800399a:	601a      	str	r2, [r3, #0]

      /* Get Start Tick */
      tickstart = HAL_GetTick();
 800399c:	f7fd fbfa 	bl	8001194 <HAL_GetTick>
 80039a0:	6138      	str	r0, [r7, #16]

      /* Wait till LSI is ready */
      while (__HAL_RCC_GET_FLAG(RCC_FLAG_LSIRDY) == RESET)
 80039a2:	e008      	b.n	80039b6 <HAL_RCC_OscConfig+0x236>
      {
        if ((HAL_GetTick() - tickstart) > LSI_TIMEOUT_VALUE)
 80039a4:	f7fd fbf6 	bl	8001194 <HAL_GetTick>
 80039a8:	4602      	mov	r2, r0
 80039aa:	693b      	ldr	r3, [r7, #16]
 80039ac:	1ad3      	subs	r3, r2, r3
 80039ae:	2b02      	cmp	r3, #2
 80039b0:	d901      	bls.n	80039b6 <HAL_RCC_OscConfig+0x236>
        {
          return HAL_TIMEOUT;
 80039b2:	2303      	movs	r3, #3
 80039b4:	e15a      	b.n	8003c6c <HAL_RCC_OscConfig+0x4ec>
      while (__HAL_RCC_GET_FLAG(RCC_FLAG_LSIRDY) == RESET)
 80039b6:	4b0d      	ldr	r3, [pc, #52]	; (80039ec <HAL_RCC_OscConfig+0x26c>)
 80039b8:	6a5b      	ldr	r3, [r3, #36]	; 0x24
 80039ba:	f003 0302 	and.w	r3, r3, #2
 80039be:	2b00      	cmp	r3, #0
 80039c0:	d0f0      	beq.n	80039a4 <HAL_RCC_OscConfig+0x224>
        }
      }
      /*  To have a fully stabilized clock in the specified range, a software delay of 1ms
          should be added.*/
      RCC_Delay(1);
 80039c2:	2001      	movs	r0, #1
 80039c4:	f000 fb0a 	bl	8003fdc <RCC_Delay>
 80039c8:	e01c      	b.n	8003a04 <HAL_RCC_OscConfig+0x284>
    }
    else
    {
      /* Disable the Internal Low Speed oscillator (LSI). */
      __HAL_RCC_LSI_DISABLE();
 80039ca:	4b0a      	ldr	r3, [pc, #40]	; (80039f4 <HAL_RCC_OscConfig+0x274>)
 80039cc:	2200      	movs	r2, #0
 80039ce:	601a      	str	r2, [r3, #0]

      /* Get Start Tick */
      tickstart = HAL_GetTick();
 80039d0:	f7fd fbe0 	bl	8001194 <HAL_GetTick>
 80039d4:	6138      	str	r0, [r7, #16]

      /* Wait till LSI is disabled */
      while (__HAL_RCC_GET_FLAG(RCC_FLAG_LSIRDY) != RESET)
 80039d6:	e00f      	b.n	80039f8 <HAL_RCC_OscConfig+0x278>
      {
        if ((HAL_GetTick() - tickstart) > LSI_TIMEOUT_VALUE)
 80039d8:	f7fd fbdc 	bl	8001194 <HAL_GetTick>
 80039dc:	4602      	mov	r2, r0
 80039de:	693b      	ldr	r3, [r7, #16]
 80039e0:	1ad3      	subs	r3, r2, r3
 80039e2:	2b02      	cmp	r3, #2
 80039e4:	d908      	bls.n	80039f8 <HAL_RCC_OscConfig+0x278>
        {
          return HAL_TIMEOUT;
 80039e6:	2303      	movs	r3, #3
 80039e8:	e140      	b.n	8003c6c <HAL_RCC_OscConfig+0x4ec>
 80039ea:	bf00      	nop
 80039ec:	40021000 	.word	0x40021000
 80039f0:	42420000 	.word	0x42420000
 80039f4:	42420480 	.word	0x42420480
      while (__HAL_RCC_GET_FLAG(RCC_FLAG_LSIRDY) != RESET)
 80039f8:	4b9e      	ldr	r3, [pc, #632]	; (8003c74 <HAL_RCC_OscConfig+0x4f4>)
 80039fa:	6a5b      	ldr	r3, [r3, #36]	; 0x24
 80039fc:	f003 0302 	and.w	r3, r3, #2
 8003a00:	2b00      	cmp	r3, #0
 8003a02:	d1e9      	bne.n	80039d8 <HAL_RCC_OscConfig+0x258>
        }
      }
    }
  }
  /*------------------------------ LSE Configuration -------------------------*/
  if (((RCC_OscInitStruct->OscillatorType) & RCC_OSCILLATORTYPE_LSE) == RCC_OSCILLATORTYPE_LSE)
 8003a04:	687b      	ldr	r3, [r7, #4]
 8003a06:	681b      	ldr	r3, [r3, #0]
 8003a08:	f003 0304 	and.w	r3, r3, #4
 8003a0c:	2b00      	cmp	r3, #0
 8003a0e:	f000 80a6 	beq.w	8003b5e <HAL_RCC_OscConfig+0x3de>
  {
    FlagStatus       pwrclkchanged = RESET;
 8003a12:	2300      	movs	r3, #0
 8003a14:	75fb      	strb	r3, [r7, #23]
    /* Check the parameters */
    assert_param(IS_RCC_LSE(RCC_OscInitStruct->LSEState));

    /* Update LSE configuration in Backup Domain control register    */
    /* Requires to enable write access to Backup Domain of necessary */
    if (__HAL_RCC_PWR_IS_CLK_DISABLED())
 8003a16:	4b97      	ldr	r3, [pc, #604]	; (8003c74 <HAL_RCC_OscConfig+0x4f4>)
 8003a18:	69db      	ldr	r3, [r3, #28]
 8003a1a:	f003 5380 	and.w	r3, r3, #268435456	; 0x10000000
 8003a1e:	2b00      	cmp	r3, #0
 8003a20:	d10d      	bne.n	8003a3e <HAL_RCC_OscConfig+0x2be>
    {
      __HAL_RCC_PWR_CLK_ENABLE();
 8003a22:	4b94      	ldr	r3, [pc, #592]	; (8003c74 <HAL_RCC_OscConfig+0x4f4>)
 8003a24:	69db      	ldr	r3, [r3, #28]
 8003a26:	4a93      	ldr	r2, [pc, #588]	; (8003c74 <HAL_RCC_OscConfig+0x4f4>)
 8003a28:	f043 5380 	orr.w	r3, r3, #268435456	; 0x10000000
 8003a2c:	61d3      	str	r3, [r2, #28]
 8003a2e:	4b91      	ldr	r3, [pc, #580]	; (8003c74 <HAL_RCC_OscConfig+0x4f4>)
 8003a30:	69db      	ldr	r3, [r3, #28]
 8003a32:	f003 5380 	and.w	r3, r3, #268435456	; 0x10000000
 8003a36:	60bb      	str	r3, [r7, #8]
 8003a38:	68bb      	ldr	r3, [r7, #8]
      pwrclkchanged = SET;
 8003a3a:	2301      	movs	r3, #1
 8003a3c:	75fb      	strb	r3, [r7, #23]
    }

    if (HAL_IS_BIT_CLR(PWR->CR, PWR_CR_DBP))
 8003a3e:	4b8e      	ldr	r3, [pc, #568]	; (8003c78 <HAL_RCC_OscConfig+0x4f8>)
 8003a40:	681b      	ldr	r3, [r3, #0]
 8003a42:	f403 7380 	and.w	r3, r3, #256	; 0x100
 8003a46:	2b00      	cmp	r3, #0
 8003a48:	d118      	bne.n	8003a7c <HAL_RCC_OscConfig+0x2fc>
    {
      /* Enable write access to Backup domain */
      SET_BIT(PWR->CR, PWR_CR_DBP);
 8003a4a:	4b8b      	ldr	r3, [pc, #556]	; (8003c78 <HAL_RCC_OscConfig+0x4f8>)
 8003a4c:	681b      	ldr	r3, [r3, #0]
 8003a4e:	4a8a      	ldr	r2, [pc, #552]	; (8003c78 <HAL_RCC_OscConfig+0x4f8>)
 8003a50:	f443 7380 	orr.w	r3, r3, #256	; 0x100
 8003a54:	6013      	str	r3, [r2, #0]

      /* Wait for Backup domain Write protection disable */
      tickstart = HAL_GetTick();
 8003a56:	f7fd fb9d 	bl	8001194 <HAL_GetTick>
 8003a5a:	6138      	str	r0, [r7, #16]

      while (HAL_IS_BIT_CLR(PWR->CR, PWR_CR_DBP))
 8003a5c:	e008      	b.n	8003a70 <HAL_RCC_OscConfig+0x2f0>
      {
        if ((HAL_GetTick() - tickstart) > RCC_DBP_TIMEOUT_VALUE)
 8003a5e:	f7fd fb99 	bl	8001194 <HAL_GetTick>
 8003a62:	4602      	mov	r2, r0
 8003a64:	693b      	ldr	r3, [r7, #16]
 8003a66:	1ad3      	subs	r3, r2, r3
 8003a68:	2b64      	cmp	r3, #100	; 0x64
 8003a6a:	d901      	bls.n	8003a70 <HAL_RCC_OscConfig+0x2f0>
        {
          return HAL_TIMEOUT;
 8003a6c:	2303      	movs	r3, #3
 8003a6e:	e0fd      	b.n	8003c6c <HAL_RCC_OscConfig+0x4ec>
      while (HAL_IS_BIT_CLR(PWR->CR, PWR_CR_DBP))
 8003a70:	4b81      	ldr	r3, [pc, #516]	; (8003c78 <HAL_RCC_OscConfig+0x4f8>)
 8003a72:	681b      	ldr	r3, [r3, #0]
 8003a74:	f403 7380 	and.w	r3, r3, #256	; 0x100
 8003a78:	2b00      	cmp	r3, #0
 8003a7a:	d0f0      	beq.n	8003a5e <HAL_RCC_OscConfig+0x2de>
        }
      }
    }

    /* Set the new LSE configuration -----------------------------------------*/
    __HAL_RCC_LSE_CONFIG(RCC_OscInitStruct->LSEState);
 8003a7c:	687b      	ldr	r3, [r7, #4]
 8003a7e:	68db      	ldr	r3, [r3, #12]
 8003a80:	2b01      	cmp	r3, #1
 8003a82:	d106      	bne.n	8003a92 <HAL_RCC_OscConfig+0x312>
 8003a84:	4b7b      	ldr	r3, [pc, #492]	; (8003c74 <HAL_RCC_OscConfig+0x4f4>)
 8003a86:	6a1b      	ldr	r3, [r3, #32]
 8003a88:	4a7a      	ldr	r2, [pc, #488]	; (8003c74 <HAL_RCC_OscConfig+0x4f4>)
 8003a8a:	f043 0301 	orr.w	r3, r3, #1
 8003a8e:	6213      	str	r3, [r2, #32]
 8003a90:	e02d      	b.n	8003aee <HAL_RCC_OscConfig+0x36e>
 8003a92:	687b      	ldr	r3, [r7, #4]
 8003a94:	68db      	ldr	r3, [r3, #12]
 8003a96:	2b00      	cmp	r3, #0
 8003a98:	d10c      	bne.n	8003ab4 <HAL_RCC_OscConfig+0x334>
 8003a9a:	4b76      	ldr	r3, [pc, #472]	; (8003c74 <HAL_RCC_OscConfig+0x4f4>)
 8003a9c:	6a1b      	ldr	r3, [r3, #32]
 8003a9e:	4a75      	ldr	r2, [pc, #468]	; (8003c74 <HAL_RCC_OscConfig+0x4f4>)
 8003aa0:	f023 0301 	bic.w	r3, r3, #1
 8003aa4:	6213      	str	r3, [r2, #32]
 8003aa6:	4b73      	ldr	r3, [pc, #460]	; (8003c74 <HAL_RCC_OscConfig+0x4f4>)
 8003aa8:	6a1b      	ldr	r3, [r3, #32]
 8003aaa:	4a72      	ldr	r2, [pc, #456]	; (8003c74 <HAL_RCC_OscConfig+0x4f4>)
 8003aac:	f023 0304 	bic.w	r3, r3, #4
 8003ab0:	6213      	str	r3, [r2, #32]
 8003ab2:	e01c      	b.n	8003aee <HAL_RCC_OscConfig+0x36e>
 8003ab4:	687b      	ldr	r3, [r7, #4]
 8003ab6:	68db      	ldr	r3, [r3, #12]
 8003ab8:	2b05      	cmp	r3, #5
 8003aba:	d10c      	bne.n	8003ad6 <HAL_RCC_OscConfig+0x356>
 8003abc:	4b6d      	ldr	r3, [pc, #436]	; (8003c74 <HAL_RCC_OscConfig+0x4f4>)
 8003abe:	6a1b      	ldr	r3, [r3, #32]
 8003ac0:	4a6c      	ldr	r2, [pc, #432]	; (8003c74 <HAL_RCC_OscConfig+0x4f4>)
 8003ac2:	f043 0304 	orr.w	r3, r3, #4
 8003ac6:	6213      	str	r3, [r2, #32]
 8003ac8:	4b6a      	ldr	r3, [pc, #424]	; (8003c74 <HAL_RCC_OscConfig+0x4f4>)
 8003aca:	6a1b      	ldr	r3, [r3, #32]
 8003acc:	4a69      	ldr	r2, [pc, #420]	; (8003c74 <HAL_RCC_OscConfig+0x4f4>)
 8003ace:	f043 0301 	orr.w	r3, r3, #1
 8003ad2:	6213      	str	r3, [r2, #32]
 8003ad4:	e00b      	b.n	8003aee <HAL_RCC_OscConfig+0x36e>
 8003ad6:	4b67      	ldr	r3, [pc, #412]	; (8003c74 <HAL_RCC_OscConfig+0x4f4>)
 8003ad8:	6a1b      	ldr	r3, [r3, #32]
 8003ada:	4a66      	ldr	r2, [pc, #408]	; (8003c74 <HAL_RCC_OscConfig+0x4f4>)
 8003adc:	f023 0301 	bic.w	r3, r3, #1
 8003ae0:	6213      	str	r3, [r2, #32]
 8003ae2:	4b64      	ldr	r3, [pc, #400]	; (8003c74 <HAL_RCC_OscConfig+0x4f4>)
 8003ae4:	6a1b      	ldr	r3, [r3, #32]
 8003ae6:	4a63      	ldr	r2, [pc, #396]	; (8003c74 <HAL_RCC_OscConfig+0x4f4>)
 8003ae8:	f023 0304 	bic.w	r3, r3, #4
 8003aec:	6213      	str	r3, [r2, #32]
    /* Check the LSE State */
    if (RCC_OscInitStruct->LSEState != RCC_LSE_OFF)
 8003aee:	687b      	ldr	r3, [r7, #4]
 8003af0:	68db      	ldr	r3, [r3, #12]
 8003af2:	2b00      	cmp	r3, #0
 8003af4:	d015      	beq.n	8003b22 <HAL_RCC_OscConfig+0x3a2>
    {
      /* Get Start Tick */
      tickstart = HAL_GetTick();
 8003af6:	f7fd fb4d 	bl	8001194 <HAL_GetTick>
 8003afa:	6138      	str	r0, [r7, #16]

      /* Wait till LSE is ready */
      while (__HAL_RCC_GET_FLAG(RCC_FLAG_LSERDY) == RESET)
 8003afc:	e00a      	b.n	8003b14 <HAL_RCC_OscConfig+0x394>
      {
        if ((HAL_GetTick() - tickstart) > RCC_LSE_TIMEOUT_VALUE)
 8003afe:	f7fd fb49 	bl	8001194 <HAL_GetTick>
 8003b02:	4602      	mov	r2, r0
 8003b04:	693b      	ldr	r3, [r7, #16]
 8003b06:	1ad3      	subs	r3, r2, r3
 8003b08:	f241 3288 	movw	r2, #5000	; 0x1388
 8003b0c:	4293      	cmp	r3, r2
 8003b0e:	d901      	bls.n	8003b14 <HAL_RCC_OscConfig+0x394>
        {
          return HAL_TIMEOUT;
 8003b10:	2303      	movs	r3, #3
 8003b12:	e0ab      	b.n	8003c6c <HAL_RCC_OscConfig+0x4ec>
      while (__HAL_RCC_GET_FLAG(RCC_FLAG_LSERDY) == RESET)
 8003b14:	4b57      	ldr	r3, [pc, #348]	; (8003c74 <HAL_RCC_OscConfig+0x4f4>)
 8003b16:	6a1b      	ldr	r3, [r3, #32]
 8003b18:	f003 0302 	and.w	r3, r3, #2
 8003b1c:	2b00      	cmp	r3, #0
 8003b1e:	d0ee      	beq.n	8003afe <HAL_RCC_OscConfig+0x37e>
 8003b20:	e014      	b.n	8003b4c <HAL_RCC_OscConfig+0x3cc>
      }
    }
    else
    {
      /* Get Start Tick */
      tickstart = HAL_GetTick();
 8003b22:	f7fd fb37 	bl	8001194 <HAL_GetTick>
 8003b26:	6138      	str	r0, [r7, #16]

      /* Wait till LSE is disabled */
      while (__HAL_RCC_GET_FLAG(RCC_FLAG_LSERDY) != RESET)
 8003b28:	e00a      	b.n	8003b40 <HAL_RCC_OscConfig+0x3c0>
      {
        if ((HAL_GetTick() - tickstart) > RCC_LSE_TIMEOUT_VALUE)
 8003b2a:	f7fd fb33 	bl	8001194 <HAL_GetTick>
 8003b2e:	4602      	mov	r2, r0
 8003b30:	693b      	ldr	r3, [r7, #16]
 8003b32:	1ad3      	subs	r3, r2, r3
 8003b34:	f241 3288 	movw	r2, #5000	; 0x1388
 8003b38:	4293      	cmp	r3, r2
 8003b3a:	d901      	bls.n	8003b40 <HAL_RCC_OscConfig+0x3c0>
        {
          return HAL_TIMEOUT;
 8003b3c:	2303      	movs	r3, #3
 8003b3e:	e095      	b.n	8003c6c <HAL_RCC_OscConfig+0x4ec>
      while (__HAL_RCC_GET_FLAG(RCC_FLAG_LSERDY) != RESET)
 8003b40:	4b4c      	ldr	r3, [pc, #304]	; (8003c74 <HAL_RCC_OscConfig+0x4f4>)
 8003b42:	6a1b      	ldr	r3, [r3, #32]
 8003b44:	f003 0302 	and.w	r3, r3, #2
 8003b48:	2b00      	cmp	r3, #0
 8003b4a:	d1ee      	bne.n	8003b2a <HAL_RCC_OscConfig+0x3aa>
        }
      }
    }

    /* Require to disable power clock if necessary */
    if (pwrclkchanged == SET)
 8003b4c:	7dfb      	ldrb	r3, [r7, #23]
 8003b4e:	2b01      	cmp	r3, #1
 8003b50:	d105      	bne.n	8003b5e <HAL_RCC_OscConfig+0x3de>
    {
      __HAL_RCC_PWR_CLK_DISABLE();
 8003b52:	4b48      	ldr	r3, [pc, #288]	; (8003c74 <HAL_RCC_OscConfig+0x4f4>)
 8003b54:	69db      	ldr	r3, [r3, #28]
 8003b56:	4a47      	ldr	r2, [pc, #284]	; (8003c74 <HAL_RCC_OscConfig+0x4f4>)
 8003b58:	f023 5380 	bic.w	r3, r3, #268435456	; 0x10000000
 8003b5c:	61d3      	str	r3, [r2, #28]

#endif /* RCC_CR_PLL2ON */
  /*-------------------------------- PLL Configuration -----------------------*/
  /* Check the parameters */
  assert_param(IS_RCC_PLL(RCC_OscInitStruct->PLL.PLLState));
  if ((RCC_OscInitStruct->PLL.PLLState) != RCC_PLL_NONE)
 8003b5e:	687b      	ldr	r3, [r7, #4]
 8003b60:	69db      	ldr	r3, [r3, #28]
 8003b62:	2b00      	cmp	r3, #0
 8003b64:	f000 8081 	beq.w	8003c6a <HAL_RCC_OscConfig+0x4ea>
  {
    /* Check if the PLL is used as system clock or not */
    if (__HAL_RCC_GET_SYSCLK_SOURCE() != RCC_SYSCLKSOURCE_STATUS_PLLCLK)
 8003b68:	4b42      	ldr	r3, [pc, #264]	; (8003c74 <HAL_RCC_OscConfig+0x4f4>)
 8003b6a:	685b      	ldr	r3, [r3, #4]
 8003b6c:	f003 030c 	and.w	r3, r3, #12
 8003b70:	2b08      	cmp	r3, #8
 8003b72:	d061      	beq.n	8003c38 <HAL_RCC_OscConfig+0x4b8>
    {
      if ((RCC_OscInitStruct->PLL.PLLState) == RCC_PLL_ON)
 8003b74:	687b      	ldr	r3, [r7, #4]
 8003b76:	69db      	ldr	r3, [r3, #28]
 8003b78:	2b02      	cmp	r3, #2
 8003b7a:	d146      	bne.n	8003c0a <HAL_RCC_OscConfig+0x48a>
        /* Check the parameters */
        assert_param(IS_RCC_PLLSOURCE(RCC_OscInitStruct->PLL.PLLSource));
        assert_param(IS_RCC_PLL_MUL(RCC_OscInitStruct->PLL.PLLMUL));

        /* Disable the main PLL. */
        __HAL_RCC_PLL_DISABLE();
 8003b7c:	4b3f      	ldr	r3, [pc, #252]	; (8003c7c <HAL_RCC_OscConfig+0x4fc>)
 8003b7e:	2200      	movs	r2, #0
 8003b80:	601a      	str	r2, [r3, #0]

        /* Get Start Tick */
        tickstart = HAL_GetTick();
 8003b82:	f7fd fb07 	bl	8001194 <HAL_GetTick>
 8003b86:	6138      	str	r0, [r7, #16]

        /* Wait till PLL is disabled */
        while (__HAL_RCC_GET_FLAG(RCC_FLAG_PLLRDY)  != RESET)
 8003b88:	e008      	b.n	8003b9c <HAL_RCC_OscConfig+0x41c>
        {
          if ((HAL_GetTick() - tickstart) > PLL_TIMEOUT_VALUE)
 8003b8a:	f7fd fb03 	bl	8001194 <HAL_GetTick>
 8003b8e:	4602      	mov	r2, r0
 8003b90:	693b      	ldr	r3, [r7, #16]
 8003b92:	1ad3      	subs	r3, r2, r3
 8003b94:	2b02      	cmp	r3, #2
 8003b96:	d901      	bls.n	8003b9c <HAL_RCC_OscConfig+0x41c>
          {
            return HAL_TIMEOUT;
 8003b98:	2303      	movs	r3, #3
 8003b9a:	e067      	b.n	8003c6c <HAL_RCC_OscConfig+0x4ec>
        while (__HAL_RCC_GET_FLAG(RCC_FLAG_PLLRDY)  != RESET)
 8003b9c:	4b35      	ldr	r3, [pc, #212]	; (8003c74 <HAL_RCC_OscConfig+0x4f4>)
 8003b9e:	681b      	ldr	r3, [r3, #0]
 8003ba0:	f003 7300 	and.w	r3, r3, #33554432	; 0x2000000
 8003ba4:	2b00      	cmp	r3, #0
 8003ba6:	d1f0      	bne.n	8003b8a <HAL_RCC_OscConfig+0x40a>
          }
        }

        /* Configure the HSE prediv factor --------------------------------*/
        /* It can be written only when the PLL is disabled. Not used in PLL source is different than HSE */
        if (RCC_OscInitStruct->PLL.PLLSource == RCC_PLLSOURCE_HSE)
 8003ba8:	687b      	ldr	r3, [r7, #4]
 8003baa:	6a1b      	ldr	r3, [r3, #32]
 8003bac:	f5b3 3f80 	cmp.w	r3, #65536	; 0x10000
 8003bb0:	d108      	bne.n	8003bc4 <HAL_RCC_OscConfig+0x444>
          /* Set PREDIV1 source */
          SET_BIT(RCC->CFGR2, RCC_OscInitStruct->Prediv1Source);
#endif /* RCC_CFGR2_PREDIV1SRC */

          /* Set PREDIV1 Value */
          __HAL_RCC_HSE_PREDIV_CONFIG(RCC_OscInitStruct->HSEPredivValue);
 8003bb2:	4b30      	ldr	r3, [pc, #192]	; (8003c74 <HAL_RCC_OscConfig+0x4f4>)
 8003bb4:	685b      	ldr	r3, [r3, #4]
 8003bb6:	f423 3200 	bic.w	r2, r3, #131072	; 0x20000
 8003bba:	687b      	ldr	r3, [r7, #4]
 8003bbc:	689b      	ldr	r3, [r3, #8]
 8003bbe:	492d      	ldr	r1, [pc, #180]	; (8003c74 <HAL_RCC_OscConfig+0x4f4>)
 8003bc0:	4313      	orrs	r3, r2
 8003bc2:	604b      	str	r3, [r1, #4]
        }

        /* Configure the main PLL clock source and multiplication factors. */
        __HAL_RCC_PLL_CONFIG(RCC_OscInitStruct->PLL.PLLSource,
 8003bc4:	4b2b      	ldr	r3, [pc, #172]	; (8003c74 <HAL_RCC_OscConfig+0x4f4>)
 8003bc6:	685b      	ldr	r3, [r3, #4]
 8003bc8:	f423 1274 	bic.w	r2, r3, #3997696	; 0x3d0000
 8003bcc:	687b      	ldr	r3, [r7, #4]
 8003bce:	6a19      	ldr	r1, [r3, #32]
 8003bd0:	687b      	ldr	r3, [r7, #4]
 8003bd2:	6a5b      	ldr	r3, [r3, #36]	; 0x24
 8003bd4:	430b      	orrs	r3, r1
 8003bd6:	4927      	ldr	r1, [pc, #156]	; (8003c74 <HAL_RCC_OscConfig+0x4f4>)
 8003bd8:	4313      	orrs	r3, r2
 8003bda:	604b      	str	r3, [r1, #4]
                             RCC_OscInitStruct->PLL.PLLMUL);
        /* Enable the main PLL. */
        __HAL_RCC_PLL_ENABLE();
 8003bdc:	4b27      	ldr	r3, [pc, #156]	; (8003c7c <HAL_RCC_OscConfig+0x4fc>)
 8003bde:	2201      	movs	r2, #1
 8003be0:	601a      	str	r2, [r3, #0]

        /* Get Start Tick */
        tickstart = HAL_GetTick();
 8003be2:	f7fd fad7 	bl	8001194 <HAL_GetTick>
 8003be6:	6138      	str	r0, [r7, #16]

        /* Wait till PLL is ready */
        while (__HAL_RCC_GET_FLAG(RCC_FLAG_PLLRDY)  == RESET)
 8003be8:	e008      	b.n	8003bfc <HAL_RCC_OscConfig+0x47c>
        {
          if ((HAL_GetTick() - tickstart) > PLL_TIMEOUT_VALUE)
 8003bea:	f7fd fad3 	bl	8001194 <HAL_GetTick>
 8003bee:	4602      	mov	r2, r0
 8003bf0:	693b      	ldr	r3, [r7, #16]
 8003bf2:	1ad3      	subs	r3, r2, r3
 8003bf4:	2b02      	cmp	r3, #2
 8003bf6:	d901      	bls.n	8003bfc <HAL_RCC_OscConfig+0x47c>
          {
            return HAL_TIMEOUT;
 8003bf8:	2303      	movs	r3, #3
 8003bfa:	e037      	b.n	8003c6c <HAL_RCC_OscConfig+0x4ec>
        while (__HAL_RCC_GET_FLAG(RCC_FLAG_PLLRDY)  == RESET)
 8003bfc:	4b1d      	ldr	r3, [pc, #116]	; (8003c74 <HAL_RCC_OscConfig+0x4f4>)
 8003bfe:	681b      	ldr	r3, [r3, #0]
 8003c00:	f003 7300 	and.w	r3, r3, #33554432	; 0x2000000
 8003c04:	2b00      	cmp	r3, #0
 8003c06:	d0f0      	beq.n	8003bea <HAL_RCC_OscConfig+0x46a>
 8003c08:	e02f      	b.n	8003c6a <HAL_RCC_OscConfig+0x4ea>
        }
      }
      else
      {
        /* Disable the main PLL. */
        __HAL_RCC_PLL_DISABLE();
 8003c0a:	4b1c      	ldr	r3, [pc, #112]	; (8003c7c <HAL_RCC_OscConfig+0x4fc>)
 8003c0c:	2200      	movs	r2, #0
 8003c0e:	601a      	str	r2, [r3, #0]

        /* Get Start Tick */
        tickstart = HAL_GetTick();
 8003c10:	f7fd fac0 	bl	8001194 <HAL_GetTick>
 8003c14:	6138      	str	r0, [r7, #16]

        /* Wait till PLL is disabled */
        while (__HAL_RCC_GET_FLAG(RCC_FLAG_PLLRDY)  != RESET)
 8003c16:	e008      	b.n	8003c2a <HAL_RCC_OscConfig+0x4aa>
        {
          if ((HAL_GetTick() - tickstart) > PLL_TIMEOUT_VALUE)
 8003c18:	f7fd fabc 	bl	8001194 <HAL_GetTick>
 8003c1c:	4602      	mov	r2, r0
 8003c1e:	693b      	ldr	r3, [r7, #16]
 8003c20:	1ad3      	subs	r3, r2, r3
 8003c22:	2b02      	cmp	r3, #2
 8003c24:	d901      	bls.n	8003c2a <HAL_RCC_OscConfig+0x4aa>
          {
            return HAL_TIMEOUT;
 8003c26:	2303      	movs	r3, #3
 8003c28:	e020      	b.n	8003c6c <HAL_RCC_OscConfig+0x4ec>
        while (__HAL_RCC_GET_FLAG(RCC_FLAG_PLLRDY)  != RESET)
 8003c2a:	4b12      	ldr	r3, [pc, #72]	; (8003c74 <HAL_RCC_OscConfig+0x4f4>)
 8003c2c:	681b      	ldr	r3, [r3, #0]
 8003c2e:	f003 7300 	and.w	r3, r3, #33554432	; 0x2000000
 8003c32:	2b00      	cmp	r3, #0
 8003c34:	d1f0      	bne.n	8003c18 <HAL_RCC_OscConfig+0x498>
 8003c36:	e018      	b.n	8003c6a <HAL_RCC_OscConfig+0x4ea>
      }
    }
    else
    {
      /* Check if there is a request to disable the PLL used as System clock source */
      if ((RCC_OscInitStruct->PLL.PLLState) == RCC_PLL_OFF)
 8003c38:	687b      	ldr	r3, [r7, #4]
 8003c3a:	69db      	ldr	r3, [r3, #28]
 8003c3c:	2b01      	cmp	r3, #1
 8003c3e:	d101      	bne.n	8003c44 <HAL_RCC_OscConfig+0x4c4>
      {
        return HAL_ERROR;
 8003c40:	2301      	movs	r3, #1
 8003c42:	e013      	b.n	8003c6c <HAL_RCC_OscConfig+0x4ec>
      }
      else
      {
        /* Do not return HAL_ERROR if request repeats the current configuration */
        pll_config = RCC->CFGR;
 8003c44:	4b0b      	ldr	r3, [pc, #44]	; (8003c74 <HAL_RCC_OscConfig+0x4f4>)
 8003c46:	685b      	ldr	r3, [r3, #4]
 8003c48:	60fb      	str	r3, [r7, #12]
        if ((READ_BIT(pll_config, RCC_CFGR_PLLSRC) != RCC_OscInitStruct->PLL.PLLSource) ||
 8003c4a:	68fb      	ldr	r3, [r7, #12]
 8003c4c:	f403 3280 	and.w	r2, r3, #65536	; 0x10000
 8003c50:	687b      	ldr	r3, [r7, #4]
 8003c52:	6a1b      	ldr	r3, [r3, #32]
 8003c54:	429a      	cmp	r2, r3
 8003c56:	d106      	bne.n	8003c66 <HAL_RCC_OscConfig+0x4e6>
            (READ_BIT(pll_config, RCC_CFGR_PLLMULL) != RCC_OscInitStruct->PLL.PLLMUL))
 8003c58:	68fb      	ldr	r3, [r7, #12]
 8003c5a:	f403 1270 	and.w	r2, r3, #3932160	; 0x3c0000
 8003c5e:	687b      	ldr	r3, [r7, #4]
 8003c60:	6a5b      	ldr	r3, [r3, #36]	; 0x24
        if ((READ_BIT(pll_config, RCC_CFGR_PLLSRC) != RCC_OscInitStruct->PLL.PLLSource) ||
 8003c62:	429a      	cmp	r2, r3
 8003c64:	d001      	beq.n	8003c6a <HAL_RCC_OscConfig+0x4ea>
        {
          return HAL_ERROR;
 8003c66:	2301      	movs	r3, #1
 8003c68:	e000      	b.n	8003c6c <HAL_RCC_OscConfig+0x4ec>
        }
      }
    }
  }

  return HAL_OK;
 8003c6a:	2300      	movs	r3, #0
}
 8003c6c:	4618      	mov	r0, r3
 8003c6e:	3718      	adds	r7, #24
 8003c70:	46bd      	mov	sp, r7
 8003c72:	bd80      	pop	{r7, pc}
 8003c74:	40021000 	.word	0x40021000
 8003c78:	40007000 	.word	0x40007000
 8003c7c:	42420060 	.word	0x42420060

08003c80 <HAL_RCC_ClockConfig>:
  *         You can use @ref HAL_RCC_GetClockConfig() function to know which clock is
  *         currently used as system clock source.
  * @retval HAL status
  */
HAL_StatusTypeDef HAL_RCC_ClockConfig(RCC_ClkInitTypeDef  *RCC_ClkInitStruct, uint32_t FLatency)
{
 8003c80:	b580      	push	{r7, lr}
 8003c82:	b084      	sub	sp, #16
 8003c84:	af00      	add	r7, sp, #0
 8003c86:	6078      	str	r0, [r7, #4]
 8003c88:	6039      	str	r1, [r7, #0]
  uint32_t tickstart;

  /* Check Null pointer */
  if (RCC_ClkInitStruct == NULL)
 8003c8a:	687b      	ldr	r3, [r7, #4]
 8003c8c:	2b00      	cmp	r3, #0
 8003c8e:	d101      	bne.n	8003c94 <HAL_RCC_ClockConfig+0x14>
  {
    return HAL_ERROR;
 8003c90:	2301      	movs	r3, #1
 8003c92:	e0d0      	b.n	8003e36 <HAL_RCC_ClockConfig+0x1b6>
  must be correctly programmed according to the frequency of the CPU clock
    (HCLK) of the device. */

#if defined(FLASH_ACR_LATENCY)
  /* Increasing the number of wait states because of higher CPU frequency */
  if (FLatency > __HAL_FLASH_GET_LATENCY())
 8003c94:	4b6a      	ldr	r3, [pc, #424]	; (8003e40 <HAL_RCC_ClockConfig+0x1c0>)
 8003c96:	681b      	ldr	r3, [r3, #0]
 8003c98:	f003 0307 	and.w	r3, r3, #7
 8003c9c:	683a      	ldr	r2, [r7, #0]
 8003c9e:	429a      	cmp	r2, r3
 8003ca0:	d910      	bls.n	8003cc4 <HAL_RCC_ClockConfig+0x44>
  {
    /* Program the new number of wait states to the LATENCY bits in the FLASH_ACR register */
    __HAL_FLASH_SET_LATENCY(FLatency);
 8003ca2:	4b67      	ldr	r3, [pc, #412]	; (8003e40 <HAL_RCC_ClockConfig+0x1c0>)
 8003ca4:	681b      	ldr	r3, [r3, #0]
 8003ca6:	f023 0207 	bic.w	r2, r3, #7
 8003caa:	4965      	ldr	r1, [pc, #404]	; (8003e40 <HAL_RCC_ClockConfig+0x1c0>)
 8003cac:	683b      	ldr	r3, [r7, #0]
 8003cae:	4313      	orrs	r3, r2
 8003cb0:	600b      	str	r3, [r1, #0]

    /* Check that the new number of wait states is taken into account to access the Flash
    memory by reading the FLASH_ACR register */
    if (__HAL_FLASH_GET_LATENCY() != FLatency)
 8003cb2:	4b63      	ldr	r3, [pc, #396]	; (8003e40 <HAL_RCC_ClockConfig+0x1c0>)
 8003cb4:	681b      	ldr	r3, [r3, #0]
 8003cb6:	f003 0307 	and.w	r3, r3, #7
 8003cba:	683a      	ldr	r2, [r7, #0]
 8003cbc:	429a      	cmp	r2, r3
 8003cbe:	d001      	beq.n	8003cc4 <HAL_RCC_ClockConfig+0x44>
  {
    return HAL_ERROR;
 8003cc0:	2301      	movs	r3, #1
 8003cc2:	e0b8      	b.n	8003e36 <HAL_RCC_ClockConfig+0x1b6>
  }
}

#endif /* FLASH_ACR_LATENCY */
/*-------------------------- HCLK Configuration --------------------------*/
if (((RCC_ClkInitStruct->ClockType) & RCC_CLOCKTYPE_HCLK) == RCC_CLOCKTYPE_HCLK)
 8003cc4:	687b      	ldr	r3, [r7, #4]
 8003cc6:	681b      	ldr	r3, [r3, #0]
 8003cc8:	f003 0302 	and.w	r3, r3, #2
 8003ccc:	2b00      	cmp	r3, #0
 8003cce:	d020      	beq.n	8003d12 <HAL_RCC_ClockConfig+0x92>
  {
    /* Set the highest APBx dividers in order to ensure that we do not go through
    a non-spec phase whatever we decrease or increase HCLK. */
    if (((RCC_ClkInitStruct->ClockType) & RCC_CLOCKTYPE_PCLK1) == RCC_CLOCKTYPE_PCLK1)
 8003cd0:	687b      	ldr	r3, [r7, #4]
 8003cd2:	681b      	ldr	r3, [r3, #0]
 8003cd4:	f003 0304 	and.w	r3, r3, #4
 8003cd8:	2b00      	cmp	r3, #0
 8003cda:	d005      	beq.n	8003ce8 <HAL_RCC_ClockConfig+0x68>
    {
      MODIFY_REG(RCC->CFGR, RCC_CFGR_PPRE1, RCC_HCLK_DIV16);
 8003cdc:	4b59      	ldr	r3, [pc, #356]	; (8003e44 <HAL_RCC_ClockConfig+0x1c4>)
 8003cde:	685b      	ldr	r3, [r3, #4]
 8003ce0:	4a58      	ldr	r2, [pc, #352]	; (8003e44 <HAL_RCC_ClockConfig+0x1c4>)
 8003ce2:	f443 63e0 	orr.w	r3, r3, #1792	; 0x700
 8003ce6:	6053      	str	r3, [r2, #4]
    }

    if (((RCC_ClkInitStruct->ClockType) & RCC_CLOCKTYPE_PCLK2) == RCC_CLOCKTYPE_PCLK2)
 8003ce8:	687b      	ldr	r3, [r7, #4]
 8003cea:	681b      	ldr	r3, [r3, #0]
 8003cec:	f003 0308 	and.w	r3, r3, #8
 8003cf0:	2b00      	cmp	r3, #0
 8003cf2:	d005      	beq.n	8003d00 <HAL_RCC_ClockConfig+0x80>
    {
      MODIFY_REG(RCC->CFGR, RCC_CFGR_PPRE2, (RCC_HCLK_DIV16 << 3));
 8003cf4:	4b53      	ldr	r3, [pc, #332]	; (8003e44 <HAL_RCC_ClockConfig+0x1c4>)
 8003cf6:	685b      	ldr	r3, [r3, #4]
 8003cf8:	4a52      	ldr	r2, [pc, #328]	; (8003e44 <HAL_RCC_ClockConfig+0x1c4>)
 8003cfa:	f443 5360 	orr.w	r3, r3, #14336	; 0x3800
 8003cfe:	6053      	str	r3, [r2, #4]
    }

    /* Set the new HCLK clock divider */
    assert_param(IS_RCC_HCLK(RCC_ClkInitStruct->AHBCLKDivider));
    MODIFY_REG(RCC->CFGR, RCC_CFGR_HPRE, RCC_ClkInitStruct->AHBCLKDivider);
 8003d00:	4b50      	ldr	r3, [pc, #320]	; (8003e44 <HAL_RCC_ClockConfig+0x1c4>)
 8003d02:	685b      	ldr	r3, [r3, #4]
 8003d04:	f023 02f0 	bic.w	r2, r3, #240	; 0xf0
 8003d08:	687b      	ldr	r3, [r7, #4]
 8003d0a:	689b      	ldr	r3, [r3, #8]
 8003d0c:	494d      	ldr	r1, [pc, #308]	; (8003e44 <HAL_RCC_ClockConfig+0x1c4>)
 8003d0e:	4313      	orrs	r3, r2
 8003d10:	604b      	str	r3, [r1, #4]
  }

  /*------------------------- SYSCLK Configuration ---------------------------*/
  if (((RCC_ClkInitStruct->ClockType) & RCC_CLOCKTYPE_SYSCLK) == RCC_CLOCKTYPE_SYSCLK)
 8003d12:	687b      	ldr	r3, [r7, #4]
 8003d14:	681b      	ldr	r3, [r3, #0]
 8003d16:	f003 0301 	and.w	r3, r3, #1
 8003d1a:	2b00      	cmp	r3, #0
 8003d1c:	d040      	beq.n	8003da0 <HAL_RCC_ClockConfig+0x120>
  {
    assert_param(IS_RCC_SYSCLKSOURCE(RCC_ClkInitStruct->SYSCLKSource));

    /* HSE is selected as System Clock Source */
    if (RCC_ClkInitStruct->SYSCLKSource == RCC_SYSCLKSOURCE_HSE)
 8003d1e:	687b      	ldr	r3, [r7, #4]
 8003d20:	685b      	ldr	r3, [r3, #4]
 8003d22:	2b01      	cmp	r3, #1
 8003d24:	d107      	bne.n	8003d36 <HAL_RCC_ClockConfig+0xb6>
    {
      /* Check the HSE ready flag */
      if (__HAL_RCC_GET_FLAG(RCC_FLAG_HSERDY) == RESET)
 8003d26:	4b47      	ldr	r3, [pc, #284]	; (8003e44 <HAL_RCC_ClockConfig+0x1c4>)
 8003d28:	681b      	ldr	r3, [r3, #0]
 8003d2a:	f403 3300 	and.w	r3, r3, #131072	; 0x20000
 8003d2e:	2b00      	cmp	r3, #0
 8003d30:	d115      	bne.n	8003d5e <HAL_RCC_ClockConfig+0xde>
      {
        return HAL_ERROR;
 8003d32:	2301      	movs	r3, #1
 8003d34:	e07f      	b.n	8003e36 <HAL_RCC_ClockConfig+0x1b6>
      }
    }
    /* PLL is selected as System Clock Source */
    else if (RCC_ClkInitStruct->SYSCLKSource == RCC_SYSCLKSOURCE_PLLCLK)
 8003d36:	687b      	ldr	r3, [r7, #4]
 8003d38:	685b      	ldr	r3, [r3, #4]
 8003d3a:	2b02      	cmp	r3, #2
 8003d3c:	d107      	bne.n	8003d4e <HAL_RCC_ClockConfig+0xce>
    {
      /* Check the PLL ready flag */
      if (__HAL_RCC_GET_FLAG(RCC_FLAG_PLLRDY) == RESET)
 8003d3e:	4b41      	ldr	r3, [pc, #260]	; (8003e44 <HAL_RCC_ClockConfig+0x1c4>)
 8003d40:	681b      	ldr	r3, [r3, #0]
 8003d42:	f003 7300 	and.w	r3, r3, #33554432	; 0x2000000
 8003d46:	2b00      	cmp	r3, #0
 8003d48:	d109      	bne.n	8003d5e <HAL_RCC_ClockConfig+0xde>
      {
        return HAL_ERROR;
 8003d4a:	2301      	movs	r3, #1
 8003d4c:	e073      	b.n	8003e36 <HAL_RCC_ClockConfig+0x1b6>
    }
    /* HSI is selected as System Clock Source */
    else
    {
      /* Check the HSI ready flag */
      if (__HAL_RCC_GET_FLAG(RCC_FLAG_HSIRDY) == RESET)
 8003d4e:	4b3d      	ldr	r3, [pc, #244]	; (8003e44 <HAL_RCC_ClockConfig+0x1c4>)
 8003d50:	681b      	ldr	r3, [r3, #0]
 8003d52:	f003 0302 	and.w	r3, r3, #2
 8003d56:	2b00      	cmp	r3, #0
 8003d58:	d101      	bne.n	8003d5e <HAL_RCC_ClockConfig+0xde>
      {
        return HAL_ERROR;
 8003d5a:	2301      	movs	r3, #1
 8003d5c:	e06b      	b.n	8003e36 <HAL_RCC_ClockConfig+0x1b6>
      }
    }
    __HAL_RCC_SYSCLK_CONFIG(RCC_ClkInitStruct->SYSCLKSource);
 8003d5e:	4b39      	ldr	r3, [pc, #228]	; (8003e44 <HAL_RCC_ClockConfig+0x1c4>)
 8003d60:	685b      	ldr	r3, [r3, #4]
 8003d62:	f023 0203 	bic.w	r2, r3, #3
 8003d66:	687b      	ldr	r3, [r7, #4]
 8003d68:	685b      	ldr	r3, [r3, #4]
 8003d6a:	4936      	ldr	r1, [pc, #216]	; (8003e44 <HAL_RCC_ClockConfig+0x1c4>)
 8003d6c:	4313      	orrs	r3, r2
 8003d6e:	604b      	str	r3, [r1, #4]

    /* Get Start Tick */
    tickstart = HAL_GetTick();
 8003d70:	f7fd fa10 	bl	8001194 <HAL_GetTick>
 8003d74:	60f8      	str	r0, [r7, #12]

    while (__HAL_RCC_GET_SYSCLK_SOURCE() != (RCC_ClkInitStruct->SYSCLKSource << RCC_CFGR_SWS_Pos))
 8003d76:	e00a      	b.n	8003d8e <HAL_RCC_ClockConfig+0x10e>
    {
      if ((HAL_GetTick() - tickstart) > CLOCKSWITCH_TIMEOUT_VALUE)
 8003d78:	f7fd fa0c 	bl	8001194 <HAL_GetTick>
 8003d7c:	4602      	mov	r2, r0
 8003d7e:	68fb      	ldr	r3, [r7, #12]
 8003d80:	1ad3      	subs	r3, r2, r3
 8003d82:	f241 3288 	movw	r2, #5000	; 0x1388
 8003d86:	4293      	cmp	r3, r2
 8003d88:	d901      	bls.n	8003d8e <HAL_RCC_ClockConfig+0x10e>
      {
        return HAL_TIMEOUT;
 8003d8a:	2303      	movs	r3, #3
 8003d8c:	e053      	b.n	8003e36 <HAL_RCC_ClockConfig+0x1b6>
    while (__HAL_RCC_GET_SYSCLK_SOURCE() != (RCC_ClkInitStruct->SYSCLKSource << RCC_CFGR_SWS_Pos))
 8003d8e:	4b2d      	ldr	r3, [pc, #180]	; (8003e44 <HAL_RCC_ClockConfig+0x1c4>)
 8003d90:	685b      	ldr	r3, [r3, #4]
 8003d92:	f003 020c 	and.w	r2, r3, #12
 8003d96:	687b      	ldr	r3, [r7, #4]
 8003d98:	685b      	ldr	r3, [r3, #4]
 8003d9a:	009b      	lsls	r3, r3, #2
 8003d9c:	429a      	cmp	r2, r3
 8003d9e:	d1eb      	bne.n	8003d78 <HAL_RCC_ClockConfig+0xf8>
    }
  }

#if defined(FLASH_ACR_LATENCY)
  /* Decreasing the number of wait states because of lower CPU frequency */
  if (FLatency < __HAL_FLASH_GET_LATENCY())
 8003da0:	4b27      	ldr	r3, [pc, #156]	; (8003e40 <HAL_RCC_ClockConfig+0x1c0>)
 8003da2:	681b      	ldr	r3, [r3, #0]
 8003da4:	f003 0307 	and.w	r3, r3, #7
 8003da8:	683a      	ldr	r2, [r7, #0]
 8003daa:	429a      	cmp	r2, r3
 8003dac:	d210      	bcs.n	8003dd0 <HAL_RCC_ClockConfig+0x150>
  {
    /* Program the new number of wait states to the LATENCY bits in the FLASH_ACR register */
    __HAL_FLASH_SET_LATENCY(FLatency);
 8003dae:	4b24      	ldr	r3, [pc, #144]	; (8003e40 <HAL_RCC_ClockConfig+0x1c0>)
 8003db0:	681b      	ldr	r3, [r3, #0]
 8003db2:	f023 0207 	bic.w	r2, r3, #7
 8003db6:	4922      	ldr	r1, [pc, #136]	; (8003e40 <HAL_RCC_ClockConfig+0x1c0>)
 8003db8:	683b      	ldr	r3, [r7, #0]
 8003dba:	4313      	orrs	r3, r2
 8003dbc:	600b      	str	r3, [r1, #0]

    /* Check that the new number of wait states is taken into account to access the Flash
    memory by reading the FLASH_ACR register */
    if (__HAL_FLASH_GET_LATENCY() != FLatency)
 8003dbe:	4b20      	ldr	r3, [pc, #128]	; (8003e40 <HAL_RCC_ClockConfig+0x1c0>)
 8003dc0:	681b      	ldr	r3, [r3, #0]
 8003dc2:	f003 0307 	and.w	r3, r3, #7
 8003dc6:	683a      	ldr	r2, [r7, #0]
 8003dc8:	429a      	cmp	r2, r3
 8003dca:	d001      	beq.n	8003dd0 <HAL_RCC_ClockConfig+0x150>
  {
    return HAL_ERROR;
 8003dcc:	2301      	movs	r3, #1
 8003dce:	e032      	b.n	8003e36 <HAL_RCC_ClockConfig+0x1b6>
  }
}
#endif /* FLASH_ACR_LATENCY */

/*-------------------------- PCLK1 Configuration ---------------------------*/
if (((RCC_ClkInitStruct->ClockType) & RCC_CLOCKTYPE_PCLK1) == RCC_CLOCKTYPE_PCLK1)
 8003dd0:	687b      	ldr	r3, [r7, #4]
 8003dd2:	681b      	ldr	r3, [r3, #0]
 8003dd4:	f003 0304 	and.w	r3, r3, #4
 8003dd8:	2b00      	cmp	r3, #0
 8003dda:	d008      	beq.n	8003dee <HAL_RCC_ClockConfig+0x16e>
  {
    assert_param(IS_RCC_PCLK(RCC_ClkInitStruct->APB1CLKDivider));
    MODIFY_REG(RCC->CFGR, RCC_CFGR_PPRE1, RCC_ClkInitStruct->APB1CLKDivider);
 8003ddc:	4b19      	ldr	r3, [pc, #100]	; (8003e44 <HAL_RCC_ClockConfig+0x1c4>)
 8003dde:	685b      	ldr	r3, [r3, #4]
 8003de0:	f423 62e0 	bic.w	r2, r3, #1792	; 0x700
 8003de4:	687b      	ldr	r3, [r7, #4]
 8003de6:	68db      	ldr	r3, [r3, #12]
 8003de8:	4916      	ldr	r1, [pc, #88]	; (8003e44 <HAL_RCC_ClockConfig+0x1c4>)
 8003dea:	4313      	orrs	r3, r2
 8003dec:	604b      	str	r3, [r1, #4]
  }

  /*-------------------------- PCLK2 Configuration ---------------------------*/
  if (((RCC_ClkInitStruct->ClockType) & RCC_CLOCKTYPE_PCLK2) == RCC_CLOCKTYPE_PCLK2)
 8003dee:	687b      	ldr	r3, [r7, #4]
 8003df0:	681b      	ldr	r3, [r3, #0]
 8003df2:	f003 0308 	and.w	r3, r3, #8
 8003df6:	2b00      	cmp	r3, #0
 8003df8:	d009      	beq.n	8003e0e <HAL_RCC_ClockConfig+0x18e>
  {
    assert_param(IS_RCC_PCLK(RCC_ClkInitStruct->APB2CLKDivider));
    MODIFY_REG(RCC->CFGR, RCC_CFGR_PPRE2, ((RCC_ClkInitStruct->APB2CLKDivider) << 3));
 8003dfa:	4b12      	ldr	r3, [pc, #72]	; (8003e44 <HAL_RCC_ClockConfig+0x1c4>)
 8003dfc:	685b      	ldr	r3, [r3, #4]
 8003dfe:	f423 5260 	bic.w	r2, r3, #14336	; 0x3800
 8003e02:	687b      	ldr	r3, [r7, #4]
 8003e04:	691b      	ldr	r3, [r3, #16]
 8003e06:	00db      	lsls	r3, r3, #3
 8003e08:	490e      	ldr	r1, [pc, #56]	; (8003e44 <HAL_RCC_ClockConfig+0x1c4>)
 8003e0a:	4313      	orrs	r3, r2
 8003e0c:	604b      	str	r3, [r1, #4]
  }

  /* Update the SystemCoreClock global variable */
  SystemCoreClock = HAL_RCC_GetSysClockFreq() >> AHBPrescTable[(RCC->CFGR & RCC_CFGR_HPRE) >> RCC_CFGR_HPRE_Pos];
 8003e0e:	f000 f821 	bl	8003e54 <HAL_RCC_GetSysClockFreq>
 8003e12:	4601      	mov	r1, r0
 8003e14:	4b0b      	ldr	r3, [pc, #44]	; (8003e44 <HAL_RCC_ClockConfig+0x1c4>)
 8003e16:	685b      	ldr	r3, [r3, #4]
 8003e18:	091b      	lsrs	r3, r3, #4
 8003e1a:	f003 030f 	and.w	r3, r3, #15
 8003e1e:	4a0a      	ldr	r2, [pc, #40]	; (8003e48 <HAL_RCC_ClockConfig+0x1c8>)
 8003e20:	5cd3      	ldrb	r3, [r2, r3]
 8003e22:	fa21 f303 	lsr.w	r3, r1, r3
 8003e26:	4a09      	ldr	r2, [pc, #36]	; (8003e4c <HAL_RCC_ClockConfig+0x1cc>)
 8003e28:	6013      	str	r3, [r2, #0]

  /* Configure the source of time base considering new system clocks settings*/
  HAL_InitTick(uwTickPrio);
 8003e2a:	4b09      	ldr	r3, [pc, #36]	; (8003e50 <HAL_RCC_ClockConfig+0x1d0>)
 8003e2c:	681b      	ldr	r3, [r3, #0]
 8003e2e:	4618      	mov	r0, r3
 8003e30:	f7fd f86e 	bl	8000f10 <HAL_InitTick>

  return HAL_OK;
 8003e34:	2300      	movs	r3, #0
}
 8003e36:	4618      	mov	r0, r3
 8003e38:	3710      	adds	r7, #16
 8003e3a:	46bd      	mov	sp, r7
 8003e3c:	bd80      	pop	{r7, pc}
 8003e3e:	bf00      	nop
 8003e40:	40022000 	.word	0x40022000
 8003e44:	40021000 	.word	0x40021000
 8003e48:	08006564 	.word	0x08006564
 8003e4c:	20000004 	.word	0x20000004
 8003e50:	20000008 	.word	0x20000008

08003e54 <HAL_RCC_GetSysClockFreq>:
  *         right SYSCLK value. Otherwise, any configuration based on this function will be incorrect.
  *
  * @retval SYSCLK frequency
  */
uint32_t HAL_RCC_GetSysClockFreq(void)
{
 8003e54:	b490      	push	{r4, r7}
 8003e56:	b08a      	sub	sp, #40	; 0x28
 8003e58:	af00      	add	r7, sp, #0
#if defined(RCC_CFGR2_PREDIV1SRC)
  const uint8_t aPLLMULFactorTable[14] = {0, 0, 4, 5, 6, 7, 8, 9, 0, 0, 0, 0, 0, 13};
  const uint8_t aPredivFactorTable[16] = {1, 2, 3, 4, 5, 6, 7, 8, 9, 10, 11, 12, 13, 14, 15, 16};
#else
  const uint8_t aPLLMULFactorTable[16] = {2, 3, 4, 5, 6, 7, 8, 9, 10, 11, 12, 13, 14, 15, 16, 16};
 8003e5a:	4b2a      	ldr	r3, [pc, #168]	; (8003f04 <HAL_RCC_GetSysClockFreq+0xb0>)
 8003e5c:	1d3c      	adds	r4, r7, #4
 8003e5e:	cb0f      	ldmia	r3, {r0, r1, r2, r3}
 8003e60:	e884 000f 	stmia.w	r4, {r0, r1, r2, r3}
#if defined(RCC_CFGR2_PREDIV1)
  const uint8_t aPredivFactorTable[16] = {1, 2, 3, 4, 5, 6, 7, 8, 9, 10, 11, 12, 13, 14, 15, 16};
#else
  const uint8_t aPredivFactorTable[2] = {1, 2};
 8003e64:	4b28      	ldr	r3, [pc, #160]	; (8003f08 <HAL_RCC_GetSysClockFreq+0xb4>)
 8003e66:	881b      	ldrh	r3, [r3, #0]
 8003e68:	803b      	strh	r3, [r7, #0]
#endif /*RCC_CFGR2_PREDIV1*/

#endif
  uint32_t tmpreg = 0U, prediv = 0U, pllclk = 0U, pllmul = 0U;
 8003e6a:	2300      	movs	r3, #0
 8003e6c:	61fb      	str	r3, [r7, #28]
 8003e6e:	2300      	movs	r3, #0
 8003e70:	61bb      	str	r3, [r7, #24]
 8003e72:	2300      	movs	r3, #0
 8003e74:	627b      	str	r3, [r7, #36]	; 0x24
 8003e76:	2300      	movs	r3, #0
 8003e78:	617b      	str	r3, [r7, #20]
  uint32_t sysclockfreq = 0U;
 8003e7a:	2300      	movs	r3, #0
 8003e7c:	623b      	str	r3, [r7, #32]
#if defined(RCC_CFGR2_PREDIV1SRC)
  uint32_t prediv2 = 0U, pll2mul = 0U;
#endif /*RCC_CFGR2_PREDIV1SRC*/

  tmpreg = RCC->CFGR;
 8003e7e:	4b23      	ldr	r3, [pc, #140]	; (8003f0c <HAL_RCC_GetSysClockFreq+0xb8>)
 8003e80:	685b      	ldr	r3, [r3, #4]
 8003e82:	61fb      	str	r3, [r7, #28]

  /* Get SYSCLK source -------------------------------------------------------*/
  switch (tmpreg & RCC_CFGR_SWS)
 8003e84:	69fb      	ldr	r3, [r7, #28]
 8003e86:	f003 030c 	and.w	r3, r3, #12
 8003e8a:	2b04      	cmp	r3, #4
 8003e8c:	d002      	beq.n	8003e94 <HAL_RCC_GetSysClockFreq+0x40>
 8003e8e:	2b08      	cmp	r3, #8
 8003e90:	d003      	beq.n	8003e9a <HAL_RCC_GetSysClockFreq+0x46>
 8003e92:	e02d      	b.n	8003ef0 <HAL_RCC_GetSysClockFreq+0x9c>
  {
    case RCC_SYSCLKSOURCE_STATUS_HSE:  /* HSE used as system clock */
    {
      sysclockfreq = HSE_VALUE;
 8003e94:	4b1e      	ldr	r3, [pc, #120]	; (8003f10 <HAL_RCC_GetSysClockFreq+0xbc>)
 8003e96:	623b      	str	r3, [r7, #32]
      break;
 8003e98:	e02d      	b.n	8003ef6 <HAL_RCC_GetSysClockFreq+0xa2>
    }
    case RCC_SYSCLKSOURCE_STATUS_PLLCLK:  /* PLL used as system clock */
    {
      pllmul = aPLLMULFactorTable[(uint32_t)(tmpreg & RCC_CFGR_PLLMULL) >> RCC_CFGR_PLLMULL_Pos];
 8003e9a:	69fb      	ldr	r3, [r7, #28]
 8003e9c:	0c9b      	lsrs	r3, r3, #18
 8003e9e:	f003 030f 	and.w	r3, r3, #15
 8003ea2:	f107 0228 	add.w	r2, r7, #40	; 0x28
 8003ea6:	4413      	add	r3, r2
 8003ea8:	f813 3c24 	ldrb.w	r3, [r3, #-36]
 8003eac:	617b      	str	r3, [r7, #20]
      if ((tmpreg & RCC_CFGR_PLLSRC) != RCC_PLLSOURCE_HSI_DIV2)
 8003eae:	69fb      	ldr	r3, [r7, #28]
 8003eb0:	f403 3380 	and.w	r3, r3, #65536	; 0x10000
 8003eb4:	2b00      	cmp	r3, #0
 8003eb6:	d013      	beq.n	8003ee0 <HAL_RCC_GetSysClockFreq+0x8c>
      {
#if defined(RCC_CFGR2_PREDIV1)
        prediv = aPredivFactorTable[(uint32_t)(RCC->CFGR2 & RCC_CFGR2_PREDIV1) >> RCC_CFGR2_PREDIV1_Pos];
#else
        prediv = aPredivFactorTable[(uint32_t)(RCC->CFGR & RCC_CFGR_PLLXTPRE) >> RCC_CFGR_PLLXTPRE_Pos];
 8003eb8:	4b14      	ldr	r3, [pc, #80]	; (8003f0c <HAL_RCC_GetSysClockFreq+0xb8>)
 8003eba:	685b      	ldr	r3, [r3, #4]
 8003ebc:	0c5b      	lsrs	r3, r3, #17
 8003ebe:	f003 0301 	and.w	r3, r3, #1
 8003ec2:	f107 0228 	add.w	r2, r7, #40	; 0x28
 8003ec6:	4413      	add	r3, r2
 8003ec8:	f813 3c28 	ldrb.w	r3, [r3, #-40]
 8003ecc:	61bb      	str	r3, [r7, #24]
        {
          pllclk = pllclk / 2;
        }
#else
        /* HSE used as PLL clock source : PLLCLK = HSE/PREDIV1 * PLLMUL */
        pllclk = (uint32_t)((HSE_VALUE  * pllmul) / prediv);
 8003ece:	697b      	ldr	r3, [r7, #20]
 8003ed0:	4a0f      	ldr	r2, [pc, #60]	; (8003f10 <HAL_RCC_GetSysClockFreq+0xbc>)
 8003ed2:	fb02 f203 	mul.w	r2, r2, r3
 8003ed6:	69bb      	ldr	r3, [r7, #24]
 8003ed8:	fbb2 f3f3 	udiv	r3, r2, r3
 8003edc:	627b      	str	r3, [r7, #36]	; 0x24
 8003ede:	e004      	b.n	8003eea <HAL_RCC_GetSysClockFreq+0x96>
#endif /*RCC_CFGR2_PREDIV1SRC*/
      }
      else
      {
        /* HSI used as PLL clock source : PLLCLK = HSI/2 * PLLMUL */
        pllclk = (uint32_t)((HSI_VALUE >> 1) * pllmul);
 8003ee0:	697b      	ldr	r3, [r7, #20]
 8003ee2:	4a0c      	ldr	r2, [pc, #48]	; (8003f14 <HAL_RCC_GetSysClockFreq+0xc0>)
 8003ee4:	fb02 f303 	mul.w	r3, r2, r3
 8003ee8:	627b      	str	r3, [r7, #36]	; 0x24
      }
      sysclockfreq = pllclk;
 8003eea:	6a7b      	ldr	r3, [r7, #36]	; 0x24
 8003eec:	623b      	str	r3, [r7, #32]
      break;
 8003eee:	e002      	b.n	8003ef6 <HAL_RCC_GetSysClockFreq+0xa2>
    }
    case RCC_SYSCLKSOURCE_STATUS_HSI:  /* HSI used as system clock source */
    default: /* HSI used as system clock */
    {
      sysclockfreq = HSI_VALUE;
 8003ef0:	4b07      	ldr	r3, [pc, #28]	; (8003f10 <HAL_RCC_GetSysClockFreq+0xbc>)
 8003ef2:	623b      	str	r3, [r7, #32]
      break;
 8003ef4:	bf00      	nop
    }
  }
  return sysclockfreq;
 8003ef6:	6a3b      	ldr	r3, [r7, #32]
}
 8003ef8:	4618      	mov	r0, r3
 8003efa:	3728      	adds	r7, #40	; 0x28
 8003efc:	46bd      	mov	sp, r7
 8003efe:	bc90      	pop	{r4, r7}
 8003f00:	4770      	bx	lr
 8003f02:	bf00      	nop
 8003f04:	08006548 	.word	0x08006548
 8003f08:	08006558 	.word	0x08006558
 8003f0c:	40021000 	.word	0x40021000
 8003f10:	007a1200 	.word	0x007a1200
 8003f14:	003d0900 	.word	0x003d0900

08003f18 <HAL_RCC_GetHCLKFreq>:
  * @note   The SystemCoreClock CMSIS variable is used to store System Clock Frequency
  *         and updated within this function
  * @retval HCLK frequency
  */
uint32_t HAL_RCC_GetHCLKFreq(void)
{
 8003f18:	b480      	push	{r7}
 8003f1a:	af00      	add	r7, sp, #0
  return SystemCoreClock;
 8003f1c:	4b02      	ldr	r3, [pc, #8]	; (8003f28 <HAL_RCC_GetHCLKFreq+0x10>)
 8003f1e:	681b      	ldr	r3, [r3, #0]
}
 8003f20:	4618      	mov	r0, r3
 8003f22:	46bd      	mov	sp, r7
 8003f24:	bc80      	pop	{r7}
 8003f26:	4770      	bx	lr
 8003f28:	20000004 	.word	0x20000004

08003f2c <HAL_RCC_GetPCLK1Freq>:
  * @note   Each time PCLK1 changes, this function must be called to update the
  *         right PCLK1 value. Otherwise, any configuration based on this function will be incorrect.
  * @retval PCLK1 frequency
  */
uint32_t HAL_RCC_GetPCLK1Freq(void)
{
 8003f2c:	b580      	push	{r7, lr}
 8003f2e:	af00      	add	r7, sp, #0
  /* Get HCLK source and Compute PCLK1 frequency ---------------------------*/
  return (HAL_RCC_GetHCLKFreq() >> APBPrescTable[(RCC->CFGR & RCC_CFGR_PPRE1) >> RCC_CFGR_PPRE1_Pos]);
 8003f30:	f7ff fff2 	bl	8003f18 <HAL_RCC_GetHCLKFreq>
 8003f34:	4601      	mov	r1, r0
 8003f36:	4b05      	ldr	r3, [pc, #20]	; (8003f4c <HAL_RCC_GetPCLK1Freq+0x20>)
 8003f38:	685b      	ldr	r3, [r3, #4]
 8003f3a:	0a1b      	lsrs	r3, r3, #8
 8003f3c:	f003 0307 	and.w	r3, r3, #7
 8003f40:	4a03      	ldr	r2, [pc, #12]	; (8003f50 <HAL_RCC_GetPCLK1Freq+0x24>)
 8003f42:	5cd3      	ldrb	r3, [r2, r3]
 8003f44:	fa21 f303 	lsr.w	r3, r1, r3
}
 8003f48:	4618      	mov	r0, r3
 8003f4a:	bd80      	pop	{r7, pc}
 8003f4c:	40021000 	.word	0x40021000
 8003f50:	08006574 	.word	0x08006574

08003f54 <HAL_RCC_GetPCLK2Freq>:
  * @note   Each time PCLK2 changes, this function must be called to update the
  *         right PCLK2 value. Otherwise, any configuration based on this function will be incorrect.
  * @retval PCLK2 frequency
  */
uint32_t HAL_RCC_GetPCLK2Freq(void)
{
 8003f54:	b580      	push	{r7, lr}
 8003f56:	af00      	add	r7, sp, #0
  /* Get HCLK source and Compute PCLK2 frequency ---------------------------*/
  return (HAL_RCC_GetHCLKFreq() >> APBPrescTable[(RCC->CFGR & RCC_CFGR_PPRE2) >> RCC_CFGR_PPRE2_Pos]);
 8003f58:	f7ff ffde 	bl	8003f18 <HAL_RCC_GetHCLKFreq>
 8003f5c:	4601      	mov	r1, r0
 8003f5e:	4b05      	ldr	r3, [pc, #20]	; (8003f74 <HAL_RCC_GetPCLK2Freq+0x20>)
 8003f60:	685b      	ldr	r3, [r3, #4]
 8003f62:	0adb      	lsrs	r3, r3, #11
 8003f64:	f003 0307 	and.w	r3, r3, #7
 8003f68:	4a03      	ldr	r2, [pc, #12]	; (8003f78 <HAL_RCC_GetPCLK2Freq+0x24>)
 8003f6a:	5cd3      	ldrb	r3, [r2, r3]
 8003f6c:	fa21 f303 	lsr.w	r3, r1, r3
}
 8003f70:	4618      	mov	r0, r3
 8003f72:	bd80      	pop	{r7, pc}
 8003f74:	40021000 	.word	0x40021000
 8003f78:	08006574 	.word	0x08006574

08003f7c <HAL_RCC_GetClockConfig>:
  * contains the current clock configuration.
  * @param  pFLatency Pointer on the Flash Latency.
  * @retval None
  */
void HAL_RCC_GetClockConfig(RCC_ClkInitTypeDef  *RCC_ClkInitStruct, uint32_t *pFLatency)
{
 8003f7c:	b480      	push	{r7}
 8003f7e:	b083      	sub	sp, #12
 8003f80:	af00      	add	r7, sp, #0
 8003f82:	6078      	str	r0, [r7, #4]
 8003f84:	6039      	str	r1, [r7, #0]
  /* Check the parameters */
  assert_param(RCC_ClkInitStruct != NULL);
  assert_param(pFLatency != NULL);

  /* Set all possible values for the Clock type parameter --------------------*/
  RCC_ClkInitStruct->ClockType = RCC_CLOCKTYPE_SYSCLK | RCC_CLOCKTYPE_HCLK | RCC_CLOCKTYPE_PCLK1 | RCC_CLOCKTYPE_PCLK2;
 8003f86:	687b      	ldr	r3, [r7, #4]
 8003f88:	220f      	movs	r2, #15
 8003f8a:	601a      	str	r2, [r3, #0]

  /* Get the SYSCLK configuration --------------------------------------------*/
  RCC_ClkInitStruct->SYSCLKSource = (uint32_t)(RCC->CFGR & RCC_CFGR_SW);
 8003f8c:	4b11      	ldr	r3, [pc, #68]	; (8003fd4 <HAL_RCC_GetClockConfig+0x58>)
 8003f8e:	685b      	ldr	r3, [r3, #4]
 8003f90:	f003 0203 	and.w	r2, r3, #3
 8003f94:	687b      	ldr	r3, [r7, #4]
 8003f96:	605a      	str	r2, [r3, #4]

  /* Get the HCLK configuration ----------------------------------------------*/
  RCC_ClkInitStruct->AHBCLKDivider = (uint32_t)(RCC->CFGR & RCC_CFGR_HPRE);
 8003f98:	4b0e      	ldr	r3, [pc, #56]	; (8003fd4 <HAL_RCC_GetClockConfig+0x58>)
 8003f9a:	685b      	ldr	r3, [r3, #4]
 8003f9c:	f003 02f0 	and.w	r2, r3, #240	; 0xf0
 8003fa0:	687b      	ldr	r3, [r7, #4]
 8003fa2:	609a      	str	r2, [r3, #8]

  /* Get the APB1 configuration ----------------------------------------------*/
  RCC_ClkInitStruct->APB1CLKDivider = (uint32_t)(RCC->CFGR & RCC_CFGR_PPRE1);
 8003fa4:	4b0b      	ldr	r3, [pc, #44]	; (8003fd4 <HAL_RCC_GetClockConfig+0x58>)
 8003fa6:	685b      	ldr	r3, [r3, #4]
 8003fa8:	f403 62e0 	and.w	r2, r3, #1792	; 0x700
 8003fac:	687b      	ldr	r3, [r7, #4]
 8003fae:	60da      	str	r2, [r3, #12]

  /* Get the APB2 configuration ----------------------------------------------*/
  RCC_ClkInitStruct->APB2CLKDivider = (uint32_t)((RCC->CFGR & RCC_CFGR_PPRE2) >> 3);
 8003fb0:	4b08      	ldr	r3, [pc, #32]	; (8003fd4 <HAL_RCC_GetClockConfig+0x58>)
 8003fb2:	685b      	ldr	r3, [r3, #4]
 8003fb4:	08db      	lsrs	r3, r3, #3
 8003fb6:	f403 62e0 	and.w	r2, r3, #1792	; 0x700
 8003fba:	687b      	ldr	r3, [r7, #4]
 8003fbc:	611a      	str	r2, [r3, #16]

#if   defined(FLASH_ACR_LATENCY)
  /* Get the Flash Wait State (Latency) configuration ------------------------*/
  *pFLatency = (uint32_t)(FLASH->ACR & FLASH_ACR_LATENCY);
 8003fbe:	4b06      	ldr	r3, [pc, #24]	; (8003fd8 <HAL_RCC_GetClockConfig+0x5c>)
 8003fc0:	681b      	ldr	r3, [r3, #0]
 8003fc2:	f003 0207 	and.w	r2, r3, #7
 8003fc6:	683b      	ldr	r3, [r7, #0]
 8003fc8:	601a      	str	r2, [r3, #0]
#else
  /* For VALUE lines devices, only LATENCY_0 can be set*/
  *pFLatency = (uint32_t)FLASH_LATENCY_0;
#endif
}
 8003fca:	bf00      	nop
 8003fcc:	370c      	adds	r7, #12
 8003fce:	46bd      	mov	sp, r7
 8003fd0:	bc80      	pop	{r7}
 8003fd2:	4770      	bx	lr
 8003fd4:	40021000 	.word	0x40021000
 8003fd8:	40022000 	.word	0x40022000

08003fdc <RCC_Delay>:
  * @brief  This function provides delay (in milliseconds) based on CPU cycles method.
  * @param  mdelay: specifies the delay time length, in milliseconds.
  * @retval None
  */
static void RCC_Delay(uint32_t mdelay)
{
 8003fdc:	b480      	push	{r7}
 8003fde:	b085      	sub	sp, #20
 8003fe0:	af00      	add	r7, sp, #0
 8003fe2:	6078      	str	r0, [r7, #4]
  __IO uint32_t Delay = mdelay * (SystemCoreClock / 8U / 1000U);
 8003fe4:	4b0a      	ldr	r3, [pc, #40]	; (8004010 <RCC_Delay+0x34>)
 8003fe6:	681b      	ldr	r3, [r3, #0]
 8003fe8:	4a0a      	ldr	r2, [pc, #40]	; (8004014 <RCC_Delay+0x38>)
 8003fea:	fba2 2303 	umull	r2, r3, r2, r3
 8003fee:	0a5b      	lsrs	r3, r3, #9
 8003ff0:	687a      	ldr	r2, [r7, #4]
 8003ff2:	fb02 f303 	mul.w	r3, r2, r3
 8003ff6:	60fb      	str	r3, [r7, #12]
  do
  {
    __NOP();
 8003ff8:	bf00      	nop
  }
  while (Delay --);
 8003ffa:	68fb      	ldr	r3, [r7, #12]
 8003ffc:	1e5a      	subs	r2, r3, #1
 8003ffe:	60fa      	str	r2, [r7, #12]
 8004000:	2b00      	cmp	r3, #0
 8004002:	d1f9      	bne.n	8003ff8 <RCC_Delay+0x1c>
}
 8004004:	bf00      	nop
 8004006:	3714      	adds	r7, #20
 8004008:	46bd      	mov	sp, r7
 800400a:	bc80      	pop	{r7}
 800400c:	4770      	bx	lr
 800400e:	bf00      	nop
 8004010:	20000004 	.word	0x20000004
 8004014:	10624dd3 	.word	0x10624dd3

08004018 <HAL_RCCEx_PeriphCLKConfig>:
  *         manually disable it.
  *
  * @retval HAL status
  */
HAL_StatusTypeDef HAL_RCCEx_PeriphCLKConfig(RCC_PeriphCLKInitTypeDef  *PeriphClkInit)
{
 8004018:	b580      	push	{r7, lr}
 800401a:	b086      	sub	sp, #24
 800401c:	af00      	add	r7, sp, #0
 800401e:	6078      	str	r0, [r7, #4]
  uint32_t tickstart = 0U, temp_reg = 0U;
 8004020:	2300      	movs	r3, #0
 8004022:	613b      	str	r3, [r7, #16]
 8004024:	2300      	movs	r3, #0
 8004026:	60fb      	str	r3, [r7, #12]

  /* Check the parameters */
  assert_param(IS_RCC_PERIPHCLOCK(PeriphClkInit->PeriphClockSelection));

  /*------------------------------- RTC/LCD Configuration ------------------------*/
  if ((((PeriphClkInit->PeriphClockSelection) & RCC_PERIPHCLK_RTC) == RCC_PERIPHCLK_RTC))
 8004028:	687b      	ldr	r3, [r7, #4]
 800402a:	681b      	ldr	r3, [r3, #0]
 800402c:	f003 0301 	and.w	r3, r3, #1
 8004030:	2b00      	cmp	r3, #0
 8004032:	d07d      	beq.n	8004130 <HAL_RCCEx_PeriphCLKConfig+0x118>
  {
    /* check for RTC Parameters used to output RTCCLK */
    assert_param(IS_RCC_RTCCLKSOURCE(PeriphClkInit->RTCClockSelection));

    FlagStatus       pwrclkchanged = RESET;
 8004034:	2300      	movs	r3, #0
 8004036:	75fb      	strb	r3, [r7, #23]

    /* As soon as function is called to change RTC clock source, activation of the
       power domain is done. */
    /* Requires to enable write access to Backup Domain of necessary */
    if (__HAL_RCC_PWR_IS_CLK_DISABLED())
 8004038:	4b4f      	ldr	r3, [pc, #316]	; (8004178 <HAL_RCCEx_PeriphCLKConfig+0x160>)
 800403a:	69db      	ldr	r3, [r3, #28]
 800403c:	f003 5380 	and.w	r3, r3, #268435456	; 0x10000000
 8004040:	2b00      	cmp	r3, #0
 8004042:	d10d      	bne.n	8004060 <HAL_RCCEx_PeriphCLKConfig+0x48>
    {
      __HAL_RCC_PWR_CLK_ENABLE();
 8004044:	4b4c      	ldr	r3, [pc, #304]	; (8004178 <HAL_RCCEx_PeriphCLKConfig+0x160>)
 8004046:	69db      	ldr	r3, [r3, #28]
 8004048:	4a4b      	ldr	r2, [pc, #300]	; (8004178 <HAL_RCCEx_PeriphCLKConfig+0x160>)
 800404a:	f043 5380 	orr.w	r3, r3, #268435456	; 0x10000000
 800404e:	61d3      	str	r3, [r2, #28]
 8004050:	4b49      	ldr	r3, [pc, #292]	; (8004178 <HAL_RCCEx_PeriphCLKConfig+0x160>)
 8004052:	69db      	ldr	r3, [r3, #28]
 8004054:	f003 5380 	and.w	r3, r3, #268435456	; 0x10000000
 8004058:	60bb      	str	r3, [r7, #8]
 800405a:	68bb      	ldr	r3, [r7, #8]
      pwrclkchanged = SET;
 800405c:	2301      	movs	r3, #1
 800405e:	75fb      	strb	r3, [r7, #23]
    }

    if (HAL_IS_BIT_CLR(PWR->CR, PWR_CR_DBP))
 8004060:	4b46      	ldr	r3, [pc, #280]	; (800417c <HAL_RCCEx_PeriphCLKConfig+0x164>)
 8004062:	681b      	ldr	r3, [r3, #0]
 8004064:	f403 7380 	and.w	r3, r3, #256	; 0x100
 8004068:	2b00      	cmp	r3, #0
 800406a:	d118      	bne.n	800409e <HAL_RCCEx_PeriphCLKConfig+0x86>
    {
      /* Enable write access to Backup domain */
      SET_BIT(PWR->CR, PWR_CR_DBP);
 800406c:	4b43      	ldr	r3, [pc, #268]	; (800417c <HAL_RCCEx_PeriphCLKConfig+0x164>)
 800406e:	681b      	ldr	r3, [r3, #0]
 8004070:	4a42      	ldr	r2, [pc, #264]	; (800417c <HAL_RCCEx_PeriphCLKConfig+0x164>)
 8004072:	f443 7380 	orr.w	r3, r3, #256	; 0x100
 8004076:	6013      	str	r3, [r2, #0]

      /* Wait for Backup domain Write protection disable */
      tickstart = HAL_GetTick();
 8004078:	f7fd f88c 	bl	8001194 <HAL_GetTick>
 800407c:	6138      	str	r0, [r7, #16]

      while (HAL_IS_BIT_CLR(PWR->CR, PWR_CR_DBP))
 800407e:	e008      	b.n	8004092 <HAL_RCCEx_PeriphCLKConfig+0x7a>
      {
        if ((HAL_GetTick() - tickstart) > RCC_DBP_TIMEOUT_VALUE)
 8004080:	f7fd f888 	bl	8001194 <HAL_GetTick>
 8004084:	4602      	mov	r2, r0
 8004086:	693b      	ldr	r3, [r7, #16]
 8004088:	1ad3      	subs	r3, r2, r3
 800408a:	2b64      	cmp	r3, #100	; 0x64
 800408c:	d901      	bls.n	8004092 <HAL_RCCEx_PeriphCLKConfig+0x7a>
        {
          return HAL_TIMEOUT;
 800408e:	2303      	movs	r3, #3
 8004090:	e06d      	b.n	800416e <HAL_RCCEx_PeriphCLKConfig+0x156>
      while (HAL_IS_BIT_CLR(PWR->CR, PWR_CR_DBP))
 8004092:	4b3a      	ldr	r3, [pc, #232]	; (800417c <HAL_RCCEx_PeriphCLKConfig+0x164>)
 8004094:	681b      	ldr	r3, [r3, #0]
 8004096:	f403 7380 	and.w	r3, r3, #256	; 0x100
 800409a:	2b00      	cmp	r3, #0
 800409c:	d0f0      	beq.n	8004080 <HAL_RCCEx_PeriphCLKConfig+0x68>
        }
      }
    }

    /* Reset the Backup domain only if the RTC Clock source selection is modified from reset value */
    temp_reg = (RCC->BDCR & RCC_BDCR_RTCSEL);
 800409e:	4b36      	ldr	r3, [pc, #216]	; (8004178 <HAL_RCCEx_PeriphCLKConfig+0x160>)
 80040a0:	6a1b      	ldr	r3, [r3, #32]
 80040a2:	f403 7340 	and.w	r3, r3, #768	; 0x300
 80040a6:	60fb      	str	r3, [r7, #12]
    if ((temp_reg != 0x00000000U) && (temp_reg != (PeriphClkInit->RTCClockSelection & RCC_BDCR_RTCSEL)))
 80040a8:	68fb      	ldr	r3, [r7, #12]
 80040aa:	2b00      	cmp	r3, #0
 80040ac:	d02e      	beq.n	800410c <HAL_RCCEx_PeriphCLKConfig+0xf4>
 80040ae:	687b      	ldr	r3, [r7, #4]
 80040b0:	685b      	ldr	r3, [r3, #4]
 80040b2:	f403 7340 	and.w	r3, r3, #768	; 0x300
 80040b6:	68fa      	ldr	r2, [r7, #12]
 80040b8:	429a      	cmp	r2, r3
 80040ba:	d027      	beq.n	800410c <HAL_RCCEx_PeriphCLKConfig+0xf4>
    {
      /* Store the content of BDCR register before the reset of Backup Domain */
      temp_reg = (RCC->BDCR & ~(RCC_BDCR_RTCSEL));
 80040bc:	4b2e      	ldr	r3, [pc, #184]	; (8004178 <HAL_RCCEx_PeriphCLKConfig+0x160>)
 80040be:	6a1b      	ldr	r3, [r3, #32]
 80040c0:	f423 7340 	bic.w	r3, r3, #768	; 0x300
 80040c4:	60fb      	str	r3, [r7, #12]
      /* RTC Clock selection can be changed only if the Backup Domain is reset */
      __HAL_RCC_BACKUPRESET_FORCE();
 80040c6:	4b2e      	ldr	r3, [pc, #184]	; (8004180 <HAL_RCCEx_PeriphCLKConfig+0x168>)
 80040c8:	2201      	movs	r2, #1
 80040ca:	601a      	str	r2, [r3, #0]
      __HAL_RCC_BACKUPRESET_RELEASE();
 80040cc:	4b2c      	ldr	r3, [pc, #176]	; (8004180 <HAL_RCCEx_PeriphCLKConfig+0x168>)
 80040ce:	2200      	movs	r2, #0
 80040d0:	601a      	str	r2, [r3, #0]
      /* Restore the Content of BDCR register */
      RCC->BDCR = temp_reg;
 80040d2:	4a29      	ldr	r2, [pc, #164]	; (8004178 <HAL_RCCEx_PeriphCLKConfig+0x160>)
 80040d4:	68fb      	ldr	r3, [r7, #12]
 80040d6:	6213      	str	r3, [r2, #32]

      /* Wait for LSERDY if LSE was enabled */
      if (HAL_IS_BIT_SET(temp_reg, RCC_BDCR_LSEON))
 80040d8:	68fb      	ldr	r3, [r7, #12]
 80040da:	f003 0301 	and.w	r3, r3, #1
 80040de:	2b00      	cmp	r3, #0
 80040e0:	d014      	beq.n	800410c <HAL_RCCEx_PeriphCLKConfig+0xf4>
      {
        /* Get Start Tick */
        tickstart = HAL_GetTick();
 80040e2:	f7fd f857 	bl	8001194 <HAL_GetTick>
 80040e6:	6138      	str	r0, [r7, #16]

        /* Wait till LSE is ready */
        while (__HAL_RCC_GET_FLAG(RCC_FLAG_LSERDY) == RESET)
 80040e8:	e00a      	b.n	8004100 <HAL_RCCEx_PeriphCLKConfig+0xe8>
        {
          if ((HAL_GetTick() - tickstart) > RCC_LSE_TIMEOUT_VALUE)
 80040ea:	f7fd f853 	bl	8001194 <HAL_GetTick>
 80040ee:	4602      	mov	r2, r0
 80040f0:	693b      	ldr	r3, [r7, #16]
 80040f2:	1ad3      	subs	r3, r2, r3
 80040f4:	f241 3288 	movw	r2, #5000	; 0x1388
 80040f8:	4293      	cmp	r3, r2
 80040fa:	d901      	bls.n	8004100 <HAL_RCCEx_PeriphCLKConfig+0xe8>
          {
            return HAL_TIMEOUT;
 80040fc:	2303      	movs	r3, #3
 80040fe:	e036      	b.n	800416e <HAL_RCCEx_PeriphCLKConfig+0x156>
        while (__HAL_RCC_GET_FLAG(RCC_FLAG_LSERDY) == RESET)
 8004100:	4b1d      	ldr	r3, [pc, #116]	; (8004178 <HAL_RCCEx_PeriphCLKConfig+0x160>)
 8004102:	6a1b      	ldr	r3, [r3, #32]
 8004104:	f003 0302 	and.w	r3, r3, #2
 8004108:	2b00      	cmp	r3, #0
 800410a:	d0ee      	beq.n	80040ea <HAL_RCCEx_PeriphCLKConfig+0xd2>
          }
        }
      }
    }
    __HAL_RCC_RTC_CONFIG(PeriphClkInit->RTCClockSelection);
 800410c:	4b1a      	ldr	r3, [pc, #104]	; (8004178 <HAL_RCCEx_PeriphCLKConfig+0x160>)
 800410e:	6a1b      	ldr	r3, [r3, #32]
 8004110:	f423 7240 	bic.w	r2, r3, #768	; 0x300
 8004114:	687b      	ldr	r3, [r7, #4]
 8004116:	685b      	ldr	r3, [r3, #4]
 8004118:	4917      	ldr	r1, [pc, #92]	; (8004178 <HAL_RCCEx_PeriphCLKConfig+0x160>)
 800411a:	4313      	orrs	r3, r2
 800411c:	620b      	str	r3, [r1, #32]

    /* Require to disable power clock if necessary */
    if (pwrclkchanged == SET)
 800411e:	7dfb      	ldrb	r3, [r7, #23]
 8004120:	2b01      	cmp	r3, #1
 8004122:	d105      	bne.n	8004130 <HAL_RCCEx_PeriphCLKConfig+0x118>
    {
      __HAL_RCC_PWR_CLK_DISABLE();
 8004124:	4b14      	ldr	r3, [pc, #80]	; (8004178 <HAL_RCCEx_PeriphCLKConfig+0x160>)
 8004126:	69db      	ldr	r3, [r3, #28]
 8004128:	4a13      	ldr	r2, [pc, #76]	; (8004178 <HAL_RCCEx_PeriphCLKConfig+0x160>)
 800412a:	f023 5380 	bic.w	r3, r3, #268435456	; 0x10000000
 800412e:	61d3      	str	r3, [r2, #28]
    }
  }

  /*------------------------------ ADC clock Configuration ------------------*/
  if (((PeriphClkInit->PeriphClockSelection) & RCC_PERIPHCLK_ADC) == RCC_PERIPHCLK_ADC)
 8004130:	687b      	ldr	r3, [r7, #4]
 8004132:	681b      	ldr	r3, [r3, #0]
 8004134:	f003 0302 	and.w	r3, r3, #2
 8004138:	2b00      	cmp	r3, #0
 800413a:	d008      	beq.n	800414e <HAL_RCCEx_PeriphCLKConfig+0x136>
  {
    /* Check the parameters */
    assert_param(IS_RCC_ADCPLLCLK_DIV(PeriphClkInit->AdcClockSelection));

    /* Configure the ADC clock source */
    __HAL_RCC_ADC_CONFIG(PeriphClkInit->AdcClockSelection);
 800413c:	4b0e      	ldr	r3, [pc, #56]	; (8004178 <HAL_RCCEx_PeriphCLKConfig+0x160>)
 800413e:	685b      	ldr	r3, [r3, #4]
 8004140:	f423 4240 	bic.w	r2, r3, #49152	; 0xc000
 8004144:	687b      	ldr	r3, [r7, #4]
 8004146:	689b      	ldr	r3, [r3, #8]
 8004148:	490b      	ldr	r1, [pc, #44]	; (8004178 <HAL_RCCEx_PeriphCLKConfig+0x160>)
 800414a:	4313      	orrs	r3, r2
 800414c:	604b      	str	r3, [r1, #4]

#if defined(STM32F102x6) || defined(STM32F102xB) || defined(STM32F103x6)\
 || defined(STM32F103xB) || defined(STM32F103xE) || defined(STM32F103xG)\
 || defined(STM32F105xC) || defined(STM32F107xC)
  /*------------------------------ USB clock Configuration ------------------*/
  if (((PeriphClkInit->PeriphClockSelection) & RCC_PERIPHCLK_USB) == RCC_PERIPHCLK_USB)
 800414e:	687b      	ldr	r3, [r7, #4]
 8004150:	681b      	ldr	r3, [r3, #0]
 8004152:	f003 0310 	and.w	r3, r3, #16
 8004156:	2b00      	cmp	r3, #0
 8004158:	d008      	beq.n	800416c <HAL_RCCEx_PeriphCLKConfig+0x154>
  {
    /* Check the parameters */
    assert_param(IS_RCC_USBPLLCLK_DIV(PeriphClkInit->UsbClockSelection));

    /* Configure the USB clock source */
    __HAL_RCC_USB_CONFIG(PeriphClkInit->UsbClockSelection);
 800415a:	4b07      	ldr	r3, [pc, #28]	; (8004178 <HAL_RCCEx_PeriphCLKConfig+0x160>)
 800415c:	685b      	ldr	r3, [r3, #4]
 800415e:	f423 0280 	bic.w	r2, r3, #4194304	; 0x400000
 8004162:	687b      	ldr	r3, [r7, #4]
 8004164:	68db      	ldr	r3, [r3, #12]
 8004166:	4904      	ldr	r1, [pc, #16]	; (8004178 <HAL_RCCEx_PeriphCLKConfig+0x160>)
 8004168:	4313      	orrs	r3, r2
 800416a:	604b      	str	r3, [r1, #4]
  }
#endif /* STM32F102x6 || STM32F102xB || STM32F103x6 || STM32F103xB || STM32F103xE || STM32F103xG || STM32F105xC || STM32F107xC */

  return HAL_OK;
 800416c:	2300      	movs	r3, #0
}
 800416e:	4618      	mov	r0, r3
 8004170:	3718      	adds	r7, #24
 8004172:	46bd      	mov	sp, r7
 8004174:	bd80      	pop	{r7, pc}
 8004176:	bf00      	nop
 8004178:	40021000 	.word	0x40021000
 800417c:	40007000 	.word	0x40007000
 8004180:	42420440 	.word	0x42420440

08004184 <HAL_TIM_Base_Init>:
  *         Ex: call @ref HAL_TIM_Base_DeInit() before HAL_TIM_Base_Init()
  * @param  htim TIM Base handle
  * @retval HAL status
  */
HAL_StatusTypeDef HAL_TIM_Base_Init(TIM_HandleTypeDef *htim)
{
 8004184:	b580      	push	{r7, lr}
 8004186:	b082      	sub	sp, #8
 8004188:	af00      	add	r7, sp, #0
 800418a:	6078      	str	r0, [r7, #4]
  /* Check the TIM handle allocation */
  if (htim == NULL)
 800418c:	687b      	ldr	r3, [r7, #4]
 800418e:	2b00      	cmp	r3, #0
 8004190:	d101      	bne.n	8004196 <HAL_TIM_Base_Init+0x12>
  {
    return HAL_ERROR;
 8004192:	2301      	movs	r3, #1
 8004194:	e01d      	b.n	80041d2 <HAL_TIM_Base_Init+0x4e>
  assert_param(IS_TIM_INSTANCE(htim->Instance));
  assert_param(IS_TIM_COUNTER_MODE(htim->Init.CounterMode));
  assert_param(IS_TIM_CLOCKDIVISION_DIV(htim->Init.ClockDivision));
  assert_param(IS_TIM_AUTORELOAD_PRELOAD(htim->Init.AutoReloadPreload));

  if (htim->State == HAL_TIM_STATE_RESET)
 8004196:	687b      	ldr	r3, [r7, #4]
 8004198:	f893 303d 	ldrb.w	r3, [r3, #61]	; 0x3d
 800419c:	b2db      	uxtb	r3, r3
 800419e:	2b00      	cmp	r3, #0
 80041a0:	d106      	bne.n	80041b0 <HAL_TIM_Base_Init+0x2c>
  {
    /* Allocate lock resource and initialize it */
    htim->Lock = HAL_UNLOCKED;
 80041a2:	687b      	ldr	r3, [r7, #4]
 80041a4:	2200      	movs	r2, #0
 80041a6:	f883 203c 	strb.w	r2, [r3, #60]	; 0x3c
    }
    /* Init the low level hardware : GPIO, CLOCK, NVIC */
    htim->Base_MspInitCallback(htim);
#else
    /* Init the low level hardware : GPIO, CLOCK, NVIC */
    HAL_TIM_Base_MspInit(htim);
 80041aa:	6878      	ldr	r0, [r7, #4]
 80041ac:	f000 f815 	bl	80041da <HAL_TIM_Base_MspInit>
#endif /* USE_HAL_TIM_REGISTER_CALLBACKS */
  }

  /* Set the TIM state */
  htim->State = HAL_TIM_STATE_BUSY;
 80041b0:	687b      	ldr	r3, [r7, #4]
 80041b2:	2202      	movs	r2, #2
 80041b4:	f883 203d 	strb.w	r2, [r3, #61]	; 0x3d

  /* Set the Time Base configuration */
  TIM_Base_SetConfig(htim->Instance, &htim->Init);
 80041b8:	687b      	ldr	r3, [r7, #4]
 80041ba:	681a      	ldr	r2, [r3, #0]
 80041bc:	687b      	ldr	r3, [r7, #4]
 80041be:	3304      	adds	r3, #4
 80041c0:	4619      	mov	r1, r3
 80041c2:	4610      	mov	r0, r2
 80041c4:	f000 f962 	bl	800448c <TIM_Base_SetConfig>

  /* Initialize the TIM state*/
  htim->State = HAL_TIM_STATE_READY;
 80041c8:	687b      	ldr	r3, [r7, #4]
 80041ca:	2201      	movs	r2, #1
 80041cc:	f883 203d 	strb.w	r2, [r3, #61]	; 0x3d

  return HAL_OK;
 80041d0:	2300      	movs	r3, #0
}
 80041d2:	4618      	mov	r0, r3
 80041d4:	3708      	adds	r7, #8
 80041d6:	46bd      	mov	sp, r7
 80041d8:	bd80      	pop	{r7, pc}

080041da <HAL_TIM_Base_MspInit>:
  * @brief  Initializes the TIM Base MSP.
  * @param  htim TIM Base handle
  * @retval None
  */
__weak void HAL_TIM_Base_MspInit(TIM_HandleTypeDef *htim)
{
 80041da:	b480      	push	{r7}
 80041dc:	b083      	sub	sp, #12
 80041de:	af00      	add	r7, sp, #0
 80041e0:	6078      	str	r0, [r7, #4]
  UNUSED(htim);

  /* NOTE : This function should not be modified, when the callback is needed,
            the HAL_TIM_Base_MspInit could be implemented in the user file
   */
}
 80041e2:	bf00      	nop
 80041e4:	370c      	adds	r7, #12
 80041e6:	46bd      	mov	sp, r7
 80041e8:	bc80      	pop	{r7}
 80041ea:	4770      	bx	lr

080041ec <HAL_TIM_Base_Start_IT>:
  * @brief  Starts the TIM Base generation in interrupt mode.
  * @param  htim TIM Base handle
  * @retval HAL status
  */
HAL_StatusTypeDef HAL_TIM_Base_Start_IT(TIM_HandleTypeDef *htim)
{
 80041ec:	b480      	push	{r7}
 80041ee:	b085      	sub	sp, #20
 80041f0:	af00      	add	r7, sp, #0
 80041f2:	6078      	str	r0, [r7, #4]

  /* Check the parameters */
  assert_param(IS_TIM_INSTANCE(htim->Instance));

  /* Enable the TIM Update interrupt */
  __HAL_TIM_ENABLE_IT(htim, TIM_IT_UPDATE);
 80041f4:	687b      	ldr	r3, [r7, #4]
 80041f6:	681b      	ldr	r3, [r3, #0]
 80041f8:	68da      	ldr	r2, [r3, #12]
 80041fa:	687b      	ldr	r3, [r7, #4]
 80041fc:	681b      	ldr	r3, [r3, #0]
 80041fe:	f042 0201 	orr.w	r2, r2, #1
 8004202:	60da      	str	r2, [r3, #12]

  /* Enable the Peripheral, except in trigger mode where enable is automatically done with trigger */
  tmpsmcr = htim->Instance->SMCR & TIM_SMCR_SMS;
 8004204:	687b      	ldr	r3, [r7, #4]
 8004206:	681b      	ldr	r3, [r3, #0]
 8004208:	689b      	ldr	r3, [r3, #8]
 800420a:	f003 0307 	and.w	r3, r3, #7
 800420e:	60fb      	str	r3, [r7, #12]
  if (!IS_TIM_SLAVEMODE_TRIGGER_ENABLED(tmpsmcr))
 8004210:	68fb      	ldr	r3, [r7, #12]
 8004212:	2b06      	cmp	r3, #6
 8004214:	d007      	beq.n	8004226 <HAL_TIM_Base_Start_IT+0x3a>
  {
    __HAL_TIM_ENABLE(htim);
 8004216:	687b      	ldr	r3, [r7, #4]
 8004218:	681b      	ldr	r3, [r3, #0]
 800421a:	681a      	ldr	r2, [r3, #0]
 800421c:	687b      	ldr	r3, [r7, #4]
 800421e:	681b      	ldr	r3, [r3, #0]
 8004220:	f042 0201 	orr.w	r2, r2, #1
 8004224:	601a      	str	r2, [r3, #0]
  }

  /* Return function status */
  return HAL_OK;
 8004226:	2300      	movs	r3, #0
}
 8004228:	4618      	mov	r0, r3
 800422a:	3714      	adds	r7, #20
 800422c:	46bd      	mov	sp, r7
 800422e:	bc80      	pop	{r7}
 8004230:	4770      	bx	lr

08004232 <HAL_TIM_IRQHandler>:
  * @brief  This function handles TIM interrupts requests.
  * @param  htim TIM  handle
  * @retval None
  */
void HAL_TIM_IRQHandler(TIM_HandleTypeDef *htim)
{
 8004232:	b580      	push	{r7, lr}
 8004234:	b082      	sub	sp, #8
 8004236:	af00      	add	r7, sp, #0
 8004238:	6078      	str	r0, [r7, #4]
  /* Capture compare 1 event */
  if (__HAL_TIM_GET_FLAG(htim, TIM_FLAG_CC1) != RESET)
 800423a:	687b      	ldr	r3, [r7, #4]
 800423c:	681b      	ldr	r3, [r3, #0]
 800423e:	691b      	ldr	r3, [r3, #16]
 8004240:	f003 0302 	and.w	r3, r3, #2
 8004244:	2b02      	cmp	r3, #2
 8004246:	d122      	bne.n	800428e <HAL_TIM_IRQHandler+0x5c>
  {
    if (__HAL_TIM_GET_IT_SOURCE(htim, TIM_IT_CC1) != RESET)
 8004248:	687b      	ldr	r3, [r7, #4]
 800424a:	681b      	ldr	r3, [r3, #0]
 800424c:	68db      	ldr	r3, [r3, #12]
 800424e:	f003 0302 	and.w	r3, r3, #2
 8004252:	2b02      	cmp	r3, #2
 8004254:	d11b      	bne.n	800428e <HAL_TIM_IRQHandler+0x5c>
    {
      {
        __HAL_TIM_CLEAR_IT(htim, TIM_IT_CC1);
 8004256:	687b      	ldr	r3, [r7, #4]
 8004258:	681b      	ldr	r3, [r3, #0]
 800425a:	f06f 0202 	mvn.w	r2, #2
 800425e:	611a      	str	r2, [r3, #16]
        htim->Channel = HAL_TIM_ACTIVE_CHANNEL_1;
 8004260:	687b      	ldr	r3, [r7, #4]
 8004262:	2201      	movs	r2, #1
 8004264:	771a      	strb	r2, [r3, #28]

        /* Input capture event */
        if ((htim->Instance->CCMR1 & TIM_CCMR1_CC1S) != 0x00U)
 8004266:	687b      	ldr	r3, [r7, #4]
 8004268:	681b      	ldr	r3, [r3, #0]
 800426a:	699b      	ldr	r3, [r3, #24]
 800426c:	f003 0303 	and.w	r3, r3, #3
 8004270:	2b00      	cmp	r3, #0
 8004272:	d003      	beq.n	800427c <HAL_TIM_IRQHandler+0x4a>
        {
#if (USE_HAL_TIM_REGISTER_CALLBACKS == 1)
          htim->IC_CaptureCallback(htim);
#else
          HAL_TIM_IC_CaptureCallback(htim);
 8004274:	6878      	ldr	r0, [r7, #4]
 8004276:	f000 f8ed 	bl	8004454 <HAL_TIM_IC_CaptureCallback>
 800427a:	e005      	b.n	8004288 <HAL_TIM_IRQHandler+0x56>
        {
#if (USE_HAL_TIM_REGISTER_CALLBACKS == 1)
          htim->OC_DelayElapsedCallback(htim);
          htim->PWM_PulseFinishedCallback(htim);
#else
          HAL_TIM_OC_DelayElapsedCallback(htim);
 800427c:	6878      	ldr	r0, [r7, #4]
 800427e:	f000 f8e0 	bl	8004442 <HAL_TIM_OC_DelayElapsedCallback>
          HAL_TIM_PWM_PulseFinishedCallback(htim);
 8004282:	6878      	ldr	r0, [r7, #4]
 8004284:	f000 f8ef 	bl	8004466 <HAL_TIM_PWM_PulseFinishedCallback>
#endif /* USE_HAL_TIM_REGISTER_CALLBACKS */
        }
        htim->Channel = HAL_TIM_ACTIVE_CHANNEL_CLEARED;
 8004288:	687b      	ldr	r3, [r7, #4]
 800428a:	2200      	movs	r2, #0
 800428c:	771a      	strb	r2, [r3, #28]
      }
    }
  }
  /* Capture compare 2 event */
  if (__HAL_TIM_GET_FLAG(htim, TIM_FLAG_CC2) != RESET)
 800428e:	687b      	ldr	r3, [r7, #4]
 8004290:	681b      	ldr	r3, [r3, #0]
 8004292:	691b      	ldr	r3, [r3, #16]
 8004294:	f003 0304 	and.w	r3, r3, #4
 8004298:	2b04      	cmp	r3, #4
 800429a:	d122      	bne.n	80042e2 <HAL_TIM_IRQHandler+0xb0>
  {
    if (__HAL_TIM_GET_IT_SOURCE(htim, TIM_IT_CC2) != RESET)
 800429c:	687b      	ldr	r3, [r7, #4]
 800429e:	681b      	ldr	r3, [r3, #0]
 80042a0:	68db      	ldr	r3, [r3, #12]
 80042a2:	f003 0304 	and.w	r3, r3, #4
 80042a6:	2b04      	cmp	r3, #4
 80042a8:	d11b      	bne.n	80042e2 <HAL_TIM_IRQHandler+0xb0>
    {
      __HAL_TIM_CLEAR_IT(htim, TIM_IT_CC2);
 80042aa:	687b      	ldr	r3, [r7, #4]
 80042ac:	681b      	ldr	r3, [r3, #0]
 80042ae:	f06f 0204 	mvn.w	r2, #4
 80042b2:	611a      	str	r2, [r3, #16]
      htim->Channel = HAL_TIM_ACTIVE_CHANNEL_2;
 80042b4:	687b      	ldr	r3, [r7, #4]
 80042b6:	2202      	movs	r2, #2
 80042b8:	771a      	strb	r2, [r3, #28]
      /* Input capture event */
      if ((htim->Instance->CCMR1 & TIM_CCMR1_CC2S) != 0x00U)
 80042ba:	687b      	ldr	r3, [r7, #4]
 80042bc:	681b      	ldr	r3, [r3, #0]
 80042be:	699b      	ldr	r3, [r3, #24]
 80042c0:	f403 7340 	and.w	r3, r3, #768	; 0x300
 80042c4:	2b00      	cmp	r3, #0
 80042c6:	d003      	beq.n	80042d0 <HAL_TIM_IRQHandler+0x9e>
      {
#if (USE_HAL_TIM_REGISTER_CALLBACKS == 1)
        htim->IC_CaptureCallback(htim);
#else
        HAL_TIM_IC_CaptureCallback(htim);
 80042c8:	6878      	ldr	r0, [r7, #4]
 80042ca:	f000 f8c3 	bl	8004454 <HAL_TIM_IC_CaptureCallback>
 80042ce:	e005      	b.n	80042dc <HAL_TIM_IRQHandler+0xaa>
      {
#if (USE_HAL_TIM_REGISTER_CALLBACKS == 1)
        htim->OC_DelayElapsedCallback(htim);
        htim->PWM_PulseFinishedCallback(htim);
#else
        HAL_TIM_OC_DelayElapsedCallback(htim);
 80042d0:	6878      	ldr	r0, [r7, #4]
 80042d2:	f000 f8b6 	bl	8004442 <HAL_TIM_OC_DelayElapsedCallback>
        HAL_TIM_PWM_PulseFinishedCallback(htim);
 80042d6:	6878      	ldr	r0, [r7, #4]
 80042d8:	f000 f8c5 	bl	8004466 <HAL_TIM_PWM_PulseFinishedCallback>
#endif /* USE_HAL_TIM_REGISTER_CALLBACKS */
      }
      htim->Channel = HAL_TIM_ACTIVE_CHANNEL_CLEARED;
 80042dc:	687b      	ldr	r3, [r7, #4]
 80042de:	2200      	movs	r2, #0
 80042e0:	771a      	strb	r2, [r3, #28]
    }
  }
  /* Capture compare 3 event */
  if (__HAL_TIM_GET_FLAG(htim, TIM_FLAG_CC3) != RESET)
 80042e2:	687b      	ldr	r3, [r7, #4]
 80042e4:	681b      	ldr	r3, [r3, #0]
 80042e6:	691b      	ldr	r3, [r3, #16]
 80042e8:	f003 0308 	and.w	r3, r3, #8
 80042ec:	2b08      	cmp	r3, #8
 80042ee:	d122      	bne.n	8004336 <HAL_TIM_IRQHandler+0x104>
  {
    if (__HAL_TIM_GET_IT_SOURCE(htim, TIM_IT_CC3) != RESET)
 80042f0:	687b      	ldr	r3, [r7, #4]
 80042f2:	681b      	ldr	r3, [r3, #0]
 80042f4:	68db      	ldr	r3, [r3, #12]
 80042f6:	f003 0308 	and.w	r3, r3, #8
 80042fa:	2b08      	cmp	r3, #8
 80042fc:	d11b      	bne.n	8004336 <HAL_TIM_IRQHandler+0x104>
    {
      __HAL_TIM_CLEAR_IT(htim, TIM_IT_CC3);
 80042fe:	687b      	ldr	r3, [r7, #4]
 8004300:	681b      	ldr	r3, [r3, #0]
 8004302:	f06f 0208 	mvn.w	r2, #8
 8004306:	611a      	str	r2, [r3, #16]
      htim->Channel = HAL_TIM_ACTIVE_CHANNEL_3;
 8004308:	687b      	ldr	r3, [r7, #4]
 800430a:	2204      	movs	r2, #4
 800430c:	771a      	strb	r2, [r3, #28]
      /* Input capture event */
      if ((htim->Instance->CCMR2 & TIM_CCMR2_CC3S) != 0x00U)
 800430e:	687b      	ldr	r3, [r7, #4]
 8004310:	681b      	ldr	r3, [r3, #0]
 8004312:	69db      	ldr	r3, [r3, #28]
 8004314:	f003 0303 	and.w	r3, r3, #3
 8004318:	2b00      	cmp	r3, #0
 800431a:	d003      	beq.n	8004324 <HAL_TIM_IRQHandler+0xf2>
      {
#if (USE_HAL_TIM_REGISTER_CALLBACKS == 1)
        htim->IC_CaptureCallback(htim);
#else
        HAL_TIM_IC_CaptureCallback(htim);
 800431c:	6878      	ldr	r0, [r7, #4]
 800431e:	f000 f899 	bl	8004454 <HAL_TIM_IC_CaptureCallback>
 8004322:	e005      	b.n	8004330 <HAL_TIM_IRQHandler+0xfe>
      {
#if (USE_HAL_TIM_REGISTER_CALLBACKS == 1)
        htim->OC_DelayElapsedCallback(htim);
        htim->PWM_PulseFinishedCallback(htim);
#else
        HAL_TIM_OC_DelayElapsedCallback(htim);
 8004324:	6878      	ldr	r0, [r7, #4]
 8004326:	f000 f88c 	bl	8004442 <HAL_TIM_OC_DelayElapsedCallback>
        HAL_TIM_PWM_PulseFinishedCallback(htim);
 800432a:	6878      	ldr	r0, [r7, #4]
 800432c:	f000 f89b 	bl	8004466 <HAL_TIM_PWM_PulseFinishedCallback>
#endif /* USE_HAL_TIM_REGISTER_CALLBACKS */
      }
      htim->Channel = HAL_TIM_ACTIVE_CHANNEL_CLEARED;
 8004330:	687b      	ldr	r3, [r7, #4]
 8004332:	2200      	movs	r2, #0
 8004334:	771a      	strb	r2, [r3, #28]
    }
  }
  /* Capture compare 4 event */
  if (__HAL_TIM_GET_FLAG(htim, TIM_FLAG_CC4) != RESET)
 8004336:	687b      	ldr	r3, [r7, #4]
 8004338:	681b      	ldr	r3, [r3, #0]
 800433a:	691b      	ldr	r3, [r3, #16]
 800433c:	f003 0310 	and.w	r3, r3, #16
 8004340:	2b10      	cmp	r3, #16
 8004342:	d122      	bne.n	800438a <HAL_TIM_IRQHandler+0x158>
  {
    if (__HAL_TIM_GET_IT_SOURCE(htim, TIM_IT_CC4) != RESET)
 8004344:	687b      	ldr	r3, [r7, #4]
 8004346:	681b      	ldr	r3, [r3, #0]
 8004348:	68db      	ldr	r3, [r3, #12]
 800434a:	f003 0310 	and.w	r3, r3, #16
 800434e:	2b10      	cmp	r3, #16
 8004350:	d11b      	bne.n	800438a <HAL_TIM_IRQHandler+0x158>
    {
      __HAL_TIM_CLEAR_IT(htim, TIM_IT_CC4);
 8004352:	687b      	ldr	r3, [r7, #4]
 8004354:	681b      	ldr	r3, [r3, #0]
 8004356:	f06f 0210 	mvn.w	r2, #16
 800435a:	611a      	str	r2, [r3, #16]
      htim->Channel = HAL_TIM_ACTIVE_CHANNEL_4;
 800435c:	687b      	ldr	r3, [r7, #4]
 800435e:	2208      	movs	r2, #8
 8004360:	771a      	strb	r2, [r3, #28]
      /* Input capture event */
      if ((htim->Instance->CCMR2 & TIM_CCMR2_CC4S) != 0x00U)
 8004362:	687b      	ldr	r3, [r7, #4]
 8004364:	681b      	ldr	r3, [r3, #0]
 8004366:	69db      	ldr	r3, [r3, #28]
 8004368:	f403 7340 	and.w	r3, r3, #768	; 0x300
 800436c:	2b00      	cmp	r3, #0
 800436e:	d003      	beq.n	8004378 <HAL_TIM_IRQHandler+0x146>
      {
#if (USE_HAL_TIM_REGISTER_CALLBACKS == 1)
        htim->IC_CaptureCallback(htim);
#else
        HAL_TIM_IC_CaptureCallback(htim);
 8004370:	6878      	ldr	r0, [r7, #4]
 8004372:	f000 f86f 	bl	8004454 <HAL_TIM_IC_CaptureCallback>
 8004376:	e005      	b.n	8004384 <HAL_TIM_IRQHandler+0x152>
      {
#if (USE_HAL_TIM_REGISTER_CALLBACKS == 1)
        htim->OC_DelayElapsedCallback(htim);
        htim->PWM_PulseFinishedCallback(htim);
#else
        HAL_TIM_OC_DelayElapsedCallback(htim);
 8004378:	6878      	ldr	r0, [r7, #4]
 800437a:	f000 f862 	bl	8004442 <HAL_TIM_OC_DelayElapsedCallback>
        HAL_TIM_PWM_PulseFinishedCallback(htim);
 800437e:	6878      	ldr	r0, [r7, #4]
 8004380:	f000 f871 	bl	8004466 <HAL_TIM_PWM_PulseFinishedCallback>
#endif /* USE_HAL_TIM_REGISTER_CALLBACKS */
      }
      htim->Channel = HAL_TIM_ACTIVE_CHANNEL_CLEARED;
 8004384:	687b      	ldr	r3, [r7, #4]
 8004386:	2200      	movs	r2, #0
 8004388:	771a      	strb	r2, [r3, #28]
    }
  }
  /* TIM Update event */
  if (__HAL_TIM_GET_FLAG(htim, TIM_FLAG_UPDATE) != RESET)
 800438a:	687b      	ldr	r3, [r7, #4]
 800438c:	681b      	ldr	r3, [r3, #0]
 800438e:	691b      	ldr	r3, [r3, #16]
 8004390:	f003 0301 	and.w	r3, r3, #1
 8004394:	2b01      	cmp	r3, #1
 8004396:	d10e      	bne.n	80043b6 <HAL_TIM_IRQHandler+0x184>
  {
    if (__HAL_TIM_GET_IT_SOURCE(htim, TIM_IT_UPDATE) != RESET)
 8004398:	687b      	ldr	r3, [r7, #4]
 800439a:	681b      	ldr	r3, [r3, #0]
 800439c:	68db      	ldr	r3, [r3, #12]
 800439e:	f003 0301 	and.w	r3, r3, #1
 80043a2:	2b01      	cmp	r3, #1
 80043a4:	d107      	bne.n	80043b6 <HAL_TIM_IRQHandler+0x184>
    {
      __HAL_TIM_CLEAR_IT(htim, TIM_IT_UPDATE);
 80043a6:	687b      	ldr	r3, [r7, #4]
 80043a8:	681b      	ldr	r3, [r3, #0]
 80043aa:	f06f 0201 	mvn.w	r2, #1
 80043ae:	611a      	str	r2, [r3, #16]
#if (USE_HAL_TIM_REGISTER_CALLBACKS == 1)
      htim->PeriodElapsedCallback(htim);
#else
      HAL_TIM_PeriodElapsedCallback(htim);
 80043b0:	6878      	ldr	r0, [r7, #4]
 80043b2:	f7fc fb81 	bl	8000ab8 <HAL_TIM_PeriodElapsedCallback>
#endif /* USE_HAL_TIM_REGISTER_CALLBACKS */
    }
  }
  /* TIM Break input event */
  if (__HAL_TIM_GET_FLAG(htim, TIM_FLAG_BREAK) != RESET)
 80043b6:	687b      	ldr	r3, [r7, #4]
 80043b8:	681b      	ldr	r3, [r3, #0]
 80043ba:	691b      	ldr	r3, [r3, #16]
 80043bc:	f003 0380 	and.w	r3, r3, #128	; 0x80
 80043c0:	2b80      	cmp	r3, #128	; 0x80
 80043c2:	d10e      	bne.n	80043e2 <HAL_TIM_IRQHandler+0x1b0>
  {
    if (__HAL_TIM_GET_IT_SOURCE(htim, TIM_IT_BREAK) != RESET)
 80043c4:	687b      	ldr	r3, [r7, #4]
 80043c6:	681b      	ldr	r3, [r3, #0]
 80043c8:	68db      	ldr	r3, [r3, #12]
 80043ca:	f003 0380 	and.w	r3, r3, #128	; 0x80
 80043ce:	2b80      	cmp	r3, #128	; 0x80
 80043d0:	d107      	bne.n	80043e2 <HAL_TIM_IRQHandler+0x1b0>
    {
      __HAL_TIM_CLEAR_IT(htim, TIM_IT_BREAK);
 80043d2:	687b      	ldr	r3, [r7, #4]
 80043d4:	681b      	ldr	r3, [r3, #0]
 80043d6:	f06f 0280 	mvn.w	r2, #128	; 0x80
 80043da:	611a      	str	r2, [r3, #16]
#if (USE_HAL_TIM_REGISTER_CALLBACKS == 1)
      htim->BreakCallback(htim);
#else
      HAL_TIMEx_BreakCallback(htim);
 80043dc:	6878      	ldr	r0, [r7, #4]
 80043de:	f000 f8c0 	bl	8004562 <HAL_TIMEx_BreakCallback>
#endif /* USE_HAL_TIM_REGISTER_CALLBACKS */
    }
  }
  /* TIM Trigger detection event */
  if (__HAL_TIM_GET_FLAG(htim, TIM_FLAG_TRIGGER) != RESET)
 80043e2:	687b      	ldr	r3, [r7, #4]
 80043e4:	681b      	ldr	r3, [r3, #0]
 80043e6:	691b      	ldr	r3, [r3, #16]
 80043e8:	f003 0340 	and.w	r3, r3, #64	; 0x40
 80043ec:	2b40      	cmp	r3, #64	; 0x40
 80043ee:	d10e      	bne.n	800440e <HAL_TIM_IRQHandler+0x1dc>
  {
    if (__HAL_TIM_GET_IT_SOURCE(htim, TIM_IT_TRIGGER) != RESET)
 80043f0:	687b      	ldr	r3, [r7, #4]
 80043f2:	681b      	ldr	r3, [r3, #0]
 80043f4:	68db      	ldr	r3, [r3, #12]
 80043f6:	f003 0340 	and.w	r3, r3, #64	; 0x40
 80043fa:	2b40      	cmp	r3, #64	; 0x40
 80043fc:	d107      	bne.n	800440e <HAL_TIM_IRQHandler+0x1dc>
    {
      __HAL_TIM_CLEAR_IT(htim, TIM_IT_TRIGGER);
 80043fe:	687b      	ldr	r3, [r7, #4]
 8004400:	681b      	ldr	r3, [r3, #0]
 8004402:	f06f 0240 	mvn.w	r2, #64	; 0x40
 8004406:	611a      	str	r2, [r3, #16]
#if (USE_HAL_TIM_REGISTER_CALLBACKS == 1)
      htim->TriggerCallback(htim);
#else
      HAL_TIM_TriggerCallback(htim);
 8004408:	6878      	ldr	r0, [r7, #4]
 800440a:	f000 f835 	bl	8004478 <HAL_TIM_TriggerCallback>
#endif /* USE_HAL_TIM_REGISTER_CALLBACKS */
    }
  }
  /* TIM commutation event */
  if (__HAL_TIM_GET_FLAG(htim, TIM_FLAG_COM) != RESET)
 800440e:	687b      	ldr	r3, [r7, #4]
 8004410:	681b      	ldr	r3, [r3, #0]
 8004412:	691b      	ldr	r3, [r3, #16]
 8004414:	f003 0320 	and.w	r3, r3, #32
 8004418:	2b20      	cmp	r3, #32
 800441a:	d10e      	bne.n	800443a <HAL_TIM_IRQHandler+0x208>
  {
    if (__HAL_TIM_GET_IT_SOURCE(htim, TIM_IT_COM) != RESET)
 800441c:	687b      	ldr	r3, [r7, #4]
 800441e:	681b      	ldr	r3, [r3, #0]
 8004420:	68db      	ldr	r3, [r3, #12]
 8004422:	f003 0320 	and.w	r3, r3, #32
 8004426:	2b20      	cmp	r3, #32
 8004428:	d107      	bne.n	800443a <HAL_TIM_IRQHandler+0x208>
    {
      __HAL_TIM_CLEAR_IT(htim, TIM_FLAG_COM);
 800442a:	687b      	ldr	r3, [r7, #4]
 800442c:	681b      	ldr	r3, [r3, #0]
 800442e:	f06f 0220 	mvn.w	r2, #32
 8004432:	611a      	str	r2, [r3, #16]
#if (USE_HAL_TIM_REGISTER_CALLBACKS == 1)
      htim->CommutationCallback(htim);
#else
      HAL_TIMEx_CommutCallback(htim);
 8004434:	6878      	ldr	r0, [r7, #4]
 8004436:	f000 f88b 	bl	8004550 <HAL_TIMEx_CommutCallback>
#endif /* USE_HAL_TIM_REGISTER_CALLBACKS */
    }
  }
}
 800443a:	bf00      	nop
 800443c:	3708      	adds	r7, #8
 800443e:	46bd      	mov	sp, r7
 8004440:	bd80      	pop	{r7, pc}

08004442 <HAL_TIM_OC_DelayElapsedCallback>:
  * @brief  Output Compare callback in non-blocking mode
  * @param  htim TIM OC handle
  * @retval None
  */
__weak void HAL_TIM_OC_DelayElapsedCallback(TIM_HandleTypeDef *htim)
{
 8004442:	b480      	push	{r7}
 8004444:	b083      	sub	sp, #12
 8004446:	af00      	add	r7, sp, #0
 8004448:	6078      	str	r0, [r7, #4]
  UNUSED(htim);

  /* NOTE : This function should not be modified, when the callback is needed,
            the HAL_TIM_OC_DelayElapsedCallback could be implemented in the user file
   */
}
 800444a:	bf00      	nop
 800444c:	370c      	adds	r7, #12
 800444e:	46bd      	mov	sp, r7
 8004450:	bc80      	pop	{r7}
 8004452:	4770      	bx	lr

08004454 <HAL_TIM_IC_CaptureCallback>:
  * @brief  Input Capture callback in non-blocking mode
  * @param  htim TIM IC handle
  * @retval None
  */
__weak void HAL_TIM_IC_CaptureCallback(TIM_HandleTypeDef *htim)
{
 8004454:	b480      	push	{r7}
 8004456:	b083      	sub	sp, #12
 8004458:	af00      	add	r7, sp, #0
 800445a:	6078      	str	r0, [r7, #4]
  UNUSED(htim);

  /* NOTE : This function should not be modified, when the callback is needed,
            the HAL_TIM_IC_CaptureCallback could be implemented in the user file
   */
}
 800445c:	bf00      	nop
 800445e:	370c      	adds	r7, #12
 8004460:	46bd      	mov	sp, r7
 8004462:	bc80      	pop	{r7}
 8004464:	4770      	bx	lr

08004466 <HAL_TIM_PWM_PulseFinishedCallback>:
  * @brief  PWM Pulse finished callback in non-blocking mode
  * @param  htim TIM handle
  * @retval None
  */
__weak void HAL_TIM_PWM_PulseFinishedCallback(TIM_HandleTypeDef *htim)
{
 8004466:	b480      	push	{r7}
 8004468:	b083      	sub	sp, #12
 800446a:	af00      	add	r7, sp, #0
 800446c:	6078      	str	r0, [r7, #4]
  UNUSED(htim);

  /* NOTE : This function should not be modified, when the callback is needed,
            the HAL_TIM_PWM_PulseFinishedCallback could be implemented in the user file
   */
}
 800446e:	bf00      	nop
 8004470:	370c      	adds	r7, #12
 8004472:	46bd      	mov	sp, r7
 8004474:	bc80      	pop	{r7}
 8004476:	4770      	bx	lr

08004478 <HAL_TIM_TriggerCallback>:
  * @brief  Hall Trigger detection callback in non-blocking mode
  * @param  htim TIM handle
  * @retval None
  */
__weak void HAL_TIM_TriggerCallback(TIM_HandleTypeDef *htim)
{
 8004478:	b480      	push	{r7}
 800447a:	b083      	sub	sp, #12
 800447c:	af00      	add	r7, sp, #0
 800447e:	6078      	str	r0, [r7, #4]
  UNUSED(htim);

  /* NOTE : This function should not be modified, when the callback is needed,
            the HAL_TIM_TriggerCallback could be implemented in the user file
   */
}
 8004480:	bf00      	nop
 8004482:	370c      	adds	r7, #12
 8004484:	46bd      	mov	sp, r7
 8004486:	bc80      	pop	{r7}
 8004488:	4770      	bx	lr
	...

0800448c <TIM_Base_SetConfig>:
  * @param  TIMx TIM peripheral
  * @param  Structure TIM Base configuration structure
  * @retval None
  */
void TIM_Base_SetConfig(TIM_TypeDef *TIMx, TIM_Base_InitTypeDef *Structure)
{
 800448c:	b480      	push	{r7}
 800448e:	b085      	sub	sp, #20
 8004490:	af00      	add	r7, sp, #0
 8004492:	6078      	str	r0, [r7, #4]
 8004494:	6039      	str	r1, [r7, #0]
  uint32_t tmpcr1;
  tmpcr1 = TIMx->CR1;
 8004496:	687b      	ldr	r3, [r7, #4]
 8004498:	681b      	ldr	r3, [r3, #0]
 800449a:	60fb      	str	r3, [r7, #12]

  /* Set TIM Time Base Unit parameters ---------------------------------------*/
  if (IS_TIM_COUNTER_MODE_SELECT_INSTANCE(TIMx))
 800449c:	687b      	ldr	r3, [r7, #4]
 800449e:	4a29      	ldr	r2, [pc, #164]	; (8004544 <TIM_Base_SetConfig+0xb8>)
 80044a0:	4293      	cmp	r3, r2
 80044a2:	d00b      	beq.n	80044bc <TIM_Base_SetConfig+0x30>
 80044a4:	687b      	ldr	r3, [r7, #4]
 80044a6:	f1b3 4f80 	cmp.w	r3, #1073741824	; 0x40000000
 80044aa:	d007      	beq.n	80044bc <TIM_Base_SetConfig+0x30>
 80044ac:	687b      	ldr	r3, [r7, #4]
 80044ae:	4a26      	ldr	r2, [pc, #152]	; (8004548 <TIM_Base_SetConfig+0xbc>)
 80044b0:	4293      	cmp	r3, r2
 80044b2:	d003      	beq.n	80044bc <TIM_Base_SetConfig+0x30>
 80044b4:	687b      	ldr	r3, [r7, #4]
 80044b6:	4a25      	ldr	r2, [pc, #148]	; (800454c <TIM_Base_SetConfig+0xc0>)
 80044b8:	4293      	cmp	r3, r2
 80044ba:	d108      	bne.n	80044ce <TIM_Base_SetConfig+0x42>
  {
    /* Select the Counter Mode */
    tmpcr1 &= ~(TIM_CR1_DIR | TIM_CR1_CMS);
 80044bc:	68fb      	ldr	r3, [r7, #12]
 80044be:	f023 0370 	bic.w	r3, r3, #112	; 0x70
 80044c2:	60fb      	str	r3, [r7, #12]
    tmpcr1 |= Structure->CounterMode;
 80044c4:	683b      	ldr	r3, [r7, #0]
 80044c6:	685b      	ldr	r3, [r3, #4]
 80044c8:	68fa      	ldr	r2, [r7, #12]
 80044ca:	4313      	orrs	r3, r2
 80044cc:	60fb      	str	r3, [r7, #12]
  }

  if (IS_TIM_CLOCK_DIVISION_INSTANCE(TIMx))
 80044ce:	687b      	ldr	r3, [r7, #4]
 80044d0:	4a1c      	ldr	r2, [pc, #112]	; (8004544 <TIM_Base_SetConfig+0xb8>)
 80044d2:	4293      	cmp	r3, r2
 80044d4:	d00b      	beq.n	80044ee <TIM_Base_SetConfig+0x62>
 80044d6:	687b      	ldr	r3, [r7, #4]
 80044d8:	f1b3 4f80 	cmp.w	r3, #1073741824	; 0x40000000
 80044dc:	d007      	beq.n	80044ee <TIM_Base_SetConfig+0x62>
 80044de:	687b      	ldr	r3, [r7, #4]
 80044e0:	4a19      	ldr	r2, [pc, #100]	; (8004548 <TIM_Base_SetConfig+0xbc>)
 80044e2:	4293      	cmp	r3, r2
 80044e4:	d003      	beq.n	80044ee <TIM_Base_SetConfig+0x62>
 80044e6:	687b      	ldr	r3, [r7, #4]
 80044e8:	4a18      	ldr	r2, [pc, #96]	; (800454c <TIM_Base_SetConfig+0xc0>)
 80044ea:	4293      	cmp	r3, r2
 80044ec:	d108      	bne.n	8004500 <TIM_Base_SetConfig+0x74>
  {
    /* Set the clock division */
    tmpcr1 &= ~TIM_CR1_CKD;
 80044ee:	68fb      	ldr	r3, [r7, #12]
 80044f0:	f423 7340 	bic.w	r3, r3, #768	; 0x300
 80044f4:	60fb      	str	r3, [r7, #12]
    tmpcr1 |= (uint32_t)Structure->ClockDivision;
 80044f6:	683b      	ldr	r3, [r7, #0]
 80044f8:	68db      	ldr	r3, [r3, #12]
 80044fa:	68fa      	ldr	r2, [r7, #12]
 80044fc:	4313      	orrs	r3, r2
 80044fe:	60fb      	str	r3, [r7, #12]
  }

  /* Set the auto-reload preload */
  MODIFY_REG(tmpcr1, TIM_CR1_ARPE, Structure->AutoReloadPreload);
 8004500:	68fb      	ldr	r3, [r7, #12]
 8004502:	f023 0280 	bic.w	r2, r3, #128	; 0x80
 8004506:	683b      	ldr	r3, [r7, #0]
 8004508:	695b      	ldr	r3, [r3, #20]
 800450a:	4313      	orrs	r3, r2
 800450c:	60fb      	str	r3, [r7, #12]

  TIMx->CR1 = tmpcr1;
 800450e:	687b      	ldr	r3, [r7, #4]
 8004510:	68fa      	ldr	r2, [r7, #12]
 8004512:	601a      	str	r2, [r3, #0]

  /* Set the Autoreload value */
  TIMx->ARR = (uint32_t)Structure->Period ;
 8004514:	683b      	ldr	r3, [r7, #0]
 8004516:	689a      	ldr	r2, [r3, #8]
 8004518:	687b      	ldr	r3, [r7, #4]
 800451a:	62da      	str	r2, [r3, #44]	; 0x2c

  /* Set the Prescaler value */
  TIMx->PSC = Structure->Prescaler;
 800451c:	683b      	ldr	r3, [r7, #0]
 800451e:	681a      	ldr	r2, [r3, #0]
 8004520:	687b      	ldr	r3, [r7, #4]
 8004522:	629a      	str	r2, [r3, #40]	; 0x28

  if (IS_TIM_REPETITION_COUNTER_INSTANCE(TIMx))
 8004524:	687b      	ldr	r3, [r7, #4]
 8004526:	4a07      	ldr	r2, [pc, #28]	; (8004544 <TIM_Base_SetConfig+0xb8>)
 8004528:	4293      	cmp	r3, r2
 800452a:	d103      	bne.n	8004534 <TIM_Base_SetConfig+0xa8>
  {
    /* Set the Repetition Counter value */
    TIMx->RCR = Structure->RepetitionCounter;
 800452c:	683b      	ldr	r3, [r7, #0]
 800452e:	691a      	ldr	r2, [r3, #16]
 8004530:	687b      	ldr	r3, [r7, #4]
 8004532:	631a      	str	r2, [r3, #48]	; 0x30
  }

  /* Generate an update event to reload the Prescaler
     and the repetition counter (only for advanced timer) value immediately */
  TIMx->EGR = TIM_EGR_UG;
 8004534:	687b      	ldr	r3, [r7, #4]
 8004536:	2201      	movs	r2, #1
 8004538:	615a      	str	r2, [r3, #20]
}
 800453a:	bf00      	nop
 800453c:	3714      	adds	r7, #20
 800453e:	46bd      	mov	sp, r7
 8004540:	bc80      	pop	{r7}
 8004542:	4770      	bx	lr
 8004544:	40012c00 	.word	0x40012c00
 8004548:	40000400 	.word	0x40000400
 800454c:	40000800 	.word	0x40000800

08004550 <HAL_TIMEx_CommutCallback>:
  * @brief  Hall commutation changed callback in non-blocking mode
  * @param  htim TIM handle
  * @retval None
  */
__weak void HAL_TIMEx_CommutCallback(TIM_HandleTypeDef *htim)
{
 8004550:	b480      	push	{r7}
 8004552:	b083      	sub	sp, #12
 8004554:	af00      	add	r7, sp, #0
 8004556:	6078      	str	r0, [r7, #4]
  UNUSED(htim);

  /* NOTE : This function should not be modified, when the callback is needed,
            the HAL_TIMEx_CommutCallback could be implemented in the user file
   */
}
 8004558:	bf00      	nop
 800455a:	370c      	adds	r7, #12
 800455c:	46bd      	mov	sp, r7
 800455e:	bc80      	pop	{r7}
 8004560:	4770      	bx	lr

08004562 <HAL_TIMEx_BreakCallback>:
  * @brief  Hall Break detection callback in non-blocking mode
  * @param  htim TIM handle
  * @retval None
  */
__weak void HAL_TIMEx_BreakCallback(TIM_HandleTypeDef *htim)
{
 8004562:	b480      	push	{r7}
 8004564:	b083      	sub	sp, #12
 8004566:	af00      	add	r7, sp, #0
 8004568:	6078      	str	r0, [r7, #4]
  UNUSED(htim);

  /* NOTE : This function should not be modified, when the callback is needed,
            the HAL_TIMEx_BreakCallback could be implemented in the user file
   */
}
 800456a:	bf00      	nop
 800456c:	370c      	adds	r7, #12
 800456e:	46bd      	mov	sp, r7
 8004570:	bc80      	pop	{r7}
 8004572:	4770      	bx	lr

08004574 <HAL_UART_Init>:
  * @param  huart  Pointer to a UART_HandleTypeDef structure that contains
  *                the configuration information for the specified UART module.
  * @retval HAL status
  */
HAL_StatusTypeDef HAL_UART_Init(UART_HandleTypeDef *huart)
{
 8004574:	b580      	push	{r7, lr}
 8004576:	b082      	sub	sp, #8
 8004578:	af00      	add	r7, sp, #0
 800457a:	6078      	str	r0, [r7, #4]
  /* Check the UART handle allocation */
  if (huart == NULL)
 800457c:	687b      	ldr	r3, [r7, #4]
 800457e:	2b00      	cmp	r3, #0
 8004580:	d101      	bne.n	8004586 <HAL_UART_Init+0x12>
  {
    return HAL_ERROR;
 8004582:	2301      	movs	r3, #1
 8004584:	e03f      	b.n	8004606 <HAL_UART_Init+0x92>
  assert_param(IS_UART_WORD_LENGTH(huart->Init.WordLength));
#if defined(USART_CR1_OVER8)
  assert_param(IS_UART_OVERSAMPLING(huart->Init.OverSampling));
#endif /* USART_CR1_OVER8 */

  if (huart->gState == HAL_UART_STATE_RESET)
 8004586:	687b      	ldr	r3, [r7, #4]
 8004588:	f893 3039 	ldrb.w	r3, [r3, #57]	; 0x39
 800458c:	b2db      	uxtb	r3, r3
 800458e:	2b00      	cmp	r3, #0
 8004590:	d106      	bne.n	80045a0 <HAL_UART_Init+0x2c>
  {
    /* Allocate lock resource and initialize it */
    huart->Lock = HAL_UNLOCKED;
 8004592:	687b      	ldr	r3, [r7, #4]
 8004594:	2200      	movs	r2, #0
 8004596:	f883 2038 	strb.w	r2, [r3, #56]	; 0x38

    /* Init the low level hardware */
    huart->MspInitCallback(huart);
#else
    /* Init the low level hardware : GPIO, CLOCK */
    HAL_UART_MspInit(huart);
 800459a:	6878      	ldr	r0, [r7, #4]
 800459c:	f7fc fc02 	bl	8000da4 <HAL_UART_MspInit>
#endif /* (USE_HAL_UART_REGISTER_CALLBACKS) */
  }

  huart->gState = HAL_UART_STATE_BUSY;
 80045a0:	687b      	ldr	r3, [r7, #4]
 80045a2:	2224      	movs	r2, #36	; 0x24
 80045a4:	f883 2039 	strb.w	r2, [r3, #57]	; 0x39

  /* Disable the peripheral */
  __HAL_UART_DISABLE(huart);
 80045a8:	687b      	ldr	r3, [r7, #4]
 80045aa:	681b      	ldr	r3, [r3, #0]
 80045ac:	68da      	ldr	r2, [r3, #12]
 80045ae:	687b      	ldr	r3, [r7, #4]
 80045b0:	681b      	ldr	r3, [r3, #0]
 80045b2:	f422 5200 	bic.w	r2, r2, #8192	; 0x2000
 80045b6:	60da      	str	r2, [r3, #12]

  /* Set the UART Communication parameters */
  UART_SetConfig(huart);
 80045b8:	6878      	ldr	r0, [r7, #4]
 80045ba:	f000 fb8d 	bl	8004cd8 <UART_SetConfig>

  /* In asynchronous mode, the following bits must be kept cleared:
     - LINEN and CLKEN bits in the USART_CR2 register,
     - SCEN, HDSEL and IREN  bits in the USART_CR3 register.*/
  CLEAR_BIT(huart->Instance->CR2, (USART_CR2_LINEN | USART_CR2_CLKEN));
 80045be:	687b      	ldr	r3, [r7, #4]
 80045c0:	681b      	ldr	r3, [r3, #0]
 80045c2:	691a      	ldr	r2, [r3, #16]
 80045c4:	687b      	ldr	r3, [r7, #4]
 80045c6:	681b      	ldr	r3, [r3, #0]
 80045c8:	f422 4290 	bic.w	r2, r2, #18432	; 0x4800
 80045cc:	611a      	str	r2, [r3, #16]
  CLEAR_BIT(huart->Instance->CR3, (USART_CR3_SCEN | USART_CR3_HDSEL | USART_CR3_IREN));
 80045ce:	687b      	ldr	r3, [r7, #4]
 80045d0:	681b      	ldr	r3, [r3, #0]
 80045d2:	695a      	ldr	r2, [r3, #20]
 80045d4:	687b      	ldr	r3, [r7, #4]
 80045d6:	681b      	ldr	r3, [r3, #0]
 80045d8:	f022 022a 	bic.w	r2, r2, #42	; 0x2a
 80045dc:	615a      	str	r2, [r3, #20]

  /* Enable the peripheral */
  __HAL_UART_ENABLE(huart);
 80045de:	687b      	ldr	r3, [r7, #4]
 80045e0:	681b      	ldr	r3, [r3, #0]
 80045e2:	68da      	ldr	r2, [r3, #12]
 80045e4:	687b      	ldr	r3, [r7, #4]
 80045e6:	681b      	ldr	r3, [r3, #0]
 80045e8:	f442 5200 	orr.w	r2, r2, #8192	; 0x2000
 80045ec:	60da      	str	r2, [r3, #12]

  /* Initialize the UART state */
  huart->ErrorCode = HAL_UART_ERROR_NONE;
 80045ee:	687b      	ldr	r3, [r7, #4]
 80045f0:	2200      	movs	r2, #0
 80045f2:	63da      	str	r2, [r3, #60]	; 0x3c
  huart->gState = HAL_UART_STATE_READY;
 80045f4:	687b      	ldr	r3, [r7, #4]
 80045f6:	2220      	movs	r2, #32
 80045f8:	f883 2039 	strb.w	r2, [r3, #57]	; 0x39
  huart->RxState = HAL_UART_STATE_READY;
 80045fc:	687b      	ldr	r3, [r7, #4]
 80045fe:	2220      	movs	r2, #32
 8004600:	f883 203a 	strb.w	r2, [r3, #58]	; 0x3a

  return HAL_OK;
 8004604:	2300      	movs	r3, #0
}
 8004606:	4618      	mov	r0, r3
 8004608:	3708      	adds	r7, #8
 800460a:	46bd      	mov	sp, r7
 800460c:	bd80      	pop	{r7, pc}

0800460e <HAL_UART_Transmit>:
  * @param  Size  Amount of data elements (u8 or u16) to be sent
  * @param  Timeout Timeout duration
  * @retval HAL status
  */
HAL_StatusTypeDef HAL_UART_Transmit(UART_HandleTypeDef *huart, uint8_t *pData, uint16_t Size, uint32_t Timeout)
{
 800460e:	b580      	push	{r7, lr}
 8004610:	b088      	sub	sp, #32
 8004612:	af02      	add	r7, sp, #8
 8004614:	60f8      	str	r0, [r7, #12]
 8004616:	60b9      	str	r1, [r7, #8]
 8004618:	603b      	str	r3, [r7, #0]
 800461a:	4613      	mov	r3, r2
 800461c:	80fb      	strh	r3, [r7, #6]
  uint16_t *tmp;
  uint32_t tickstart = 0U;
 800461e:	2300      	movs	r3, #0
 8004620:	617b      	str	r3, [r7, #20]

  /* Check that a Tx process is not already ongoing */
  if (huart->gState == HAL_UART_STATE_READY)
 8004622:	68fb      	ldr	r3, [r7, #12]
 8004624:	f893 3039 	ldrb.w	r3, [r3, #57]	; 0x39
 8004628:	b2db      	uxtb	r3, r3
 800462a:	2b20      	cmp	r3, #32
 800462c:	f040 8083 	bne.w	8004736 <HAL_UART_Transmit+0x128>
  {
    if ((pData == NULL) || (Size == 0U))
 8004630:	68bb      	ldr	r3, [r7, #8]
 8004632:	2b00      	cmp	r3, #0
 8004634:	d002      	beq.n	800463c <HAL_UART_Transmit+0x2e>
 8004636:	88fb      	ldrh	r3, [r7, #6]
 8004638:	2b00      	cmp	r3, #0
 800463a:	d101      	bne.n	8004640 <HAL_UART_Transmit+0x32>
    {
      return  HAL_ERROR;
 800463c:	2301      	movs	r3, #1
 800463e:	e07b      	b.n	8004738 <HAL_UART_Transmit+0x12a>
    }

    /* Process Locked */
    __HAL_LOCK(huart);
 8004640:	68fb      	ldr	r3, [r7, #12]
 8004642:	f893 3038 	ldrb.w	r3, [r3, #56]	; 0x38
 8004646:	2b01      	cmp	r3, #1
 8004648:	d101      	bne.n	800464e <HAL_UART_Transmit+0x40>
 800464a:	2302      	movs	r3, #2
 800464c:	e074      	b.n	8004738 <HAL_UART_Transmit+0x12a>
 800464e:	68fb      	ldr	r3, [r7, #12]
 8004650:	2201      	movs	r2, #1
 8004652:	f883 2038 	strb.w	r2, [r3, #56]	; 0x38

    huart->ErrorCode = HAL_UART_ERROR_NONE;
 8004656:	68fb      	ldr	r3, [r7, #12]
 8004658:	2200      	movs	r2, #0
 800465a:	63da      	str	r2, [r3, #60]	; 0x3c
    huart->gState = HAL_UART_STATE_BUSY_TX;
 800465c:	68fb      	ldr	r3, [r7, #12]
 800465e:	2221      	movs	r2, #33	; 0x21
 8004660:	f883 2039 	strb.w	r2, [r3, #57]	; 0x39

    /* Init tickstart for timeout managment */
    tickstart = HAL_GetTick();
 8004664:	f7fc fd96 	bl	8001194 <HAL_GetTick>
 8004668:	6178      	str	r0, [r7, #20]

    huart->TxXferSize = Size;
 800466a:	68fb      	ldr	r3, [r7, #12]
 800466c:	88fa      	ldrh	r2, [r7, #6]
 800466e:	849a      	strh	r2, [r3, #36]	; 0x24
    huart->TxXferCount = Size;
 8004670:	68fb      	ldr	r3, [r7, #12]
 8004672:	88fa      	ldrh	r2, [r7, #6]
 8004674:	84da      	strh	r2, [r3, #38]	; 0x26
    while (huart->TxXferCount > 0U)
 8004676:	e042      	b.n	80046fe <HAL_UART_Transmit+0xf0>
    {
      huart->TxXferCount--;
 8004678:	68fb      	ldr	r3, [r7, #12]
 800467a:	8cdb      	ldrh	r3, [r3, #38]	; 0x26
 800467c:	b29b      	uxth	r3, r3
 800467e:	3b01      	subs	r3, #1
 8004680:	b29a      	uxth	r2, r3
 8004682:	68fb      	ldr	r3, [r7, #12]
 8004684:	84da      	strh	r2, [r3, #38]	; 0x26
      if (huart->Init.WordLength == UART_WORDLENGTH_9B)
 8004686:	68fb      	ldr	r3, [r7, #12]
 8004688:	689b      	ldr	r3, [r3, #8]
 800468a:	f5b3 5f80 	cmp.w	r3, #4096	; 0x1000
 800468e:	d122      	bne.n	80046d6 <HAL_UART_Transmit+0xc8>
      {
        if (UART_WaitOnFlagUntilTimeout(huart, UART_FLAG_TXE, RESET, tickstart, Timeout) != HAL_OK)
 8004690:	683b      	ldr	r3, [r7, #0]
 8004692:	9300      	str	r3, [sp, #0]
 8004694:	697b      	ldr	r3, [r7, #20]
 8004696:	2200      	movs	r2, #0
 8004698:	2180      	movs	r1, #128	; 0x80
 800469a:	68f8      	ldr	r0, [r7, #12]
 800469c:	f000 f9b2 	bl	8004a04 <UART_WaitOnFlagUntilTimeout>
 80046a0:	4603      	mov	r3, r0
 80046a2:	2b00      	cmp	r3, #0
 80046a4:	d001      	beq.n	80046aa <HAL_UART_Transmit+0x9c>
        {
          return HAL_TIMEOUT;
 80046a6:	2303      	movs	r3, #3
 80046a8:	e046      	b.n	8004738 <HAL_UART_Transmit+0x12a>
        }
        tmp = (uint16_t *) pData;
 80046aa:	68bb      	ldr	r3, [r7, #8]
 80046ac:	613b      	str	r3, [r7, #16]
        huart->Instance->DR = (*tmp & (uint16_t)0x01FF);
 80046ae:	693b      	ldr	r3, [r7, #16]
 80046b0:	881b      	ldrh	r3, [r3, #0]
 80046b2:	461a      	mov	r2, r3
 80046b4:	68fb      	ldr	r3, [r7, #12]
 80046b6:	681b      	ldr	r3, [r3, #0]
 80046b8:	f3c2 0208 	ubfx	r2, r2, #0, #9
 80046bc:	605a      	str	r2, [r3, #4]
        if (huart->Init.Parity == UART_PARITY_NONE)
 80046be:	68fb      	ldr	r3, [r7, #12]
 80046c0:	691b      	ldr	r3, [r3, #16]
 80046c2:	2b00      	cmp	r3, #0
 80046c4:	d103      	bne.n	80046ce <HAL_UART_Transmit+0xc0>
        {
          pData += 2U;
 80046c6:	68bb      	ldr	r3, [r7, #8]
 80046c8:	3302      	adds	r3, #2
 80046ca:	60bb      	str	r3, [r7, #8]
 80046cc:	e017      	b.n	80046fe <HAL_UART_Transmit+0xf0>
        }
        else
        {
          pData += 1U;
 80046ce:	68bb      	ldr	r3, [r7, #8]
 80046d0:	3301      	adds	r3, #1
 80046d2:	60bb      	str	r3, [r7, #8]
 80046d4:	e013      	b.n	80046fe <HAL_UART_Transmit+0xf0>
        }
      }
      else
      {
        if (UART_WaitOnFlagUntilTimeout(huart, UART_FLAG_TXE, RESET, tickstart, Timeout) != HAL_OK)
 80046d6:	683b      	ldr	r3, [r7, #0]
 80046d8:	9300      	str	r3, [sp, #0]
 80046da:	697b      	ldr	r3, [r7, #20]
 80046dc:	2200      	movs	r2, #0
 80046de:	2180      	movs	r1, #128	; 0x80
 80046e0:	68f8      	ldr	r0, [r7, #12]
 80046e2:	f000 f98f 	bl	8004a04 <UART_WaitOnFlagUntilTimeout>
 80046e6:	4603      	mov	r3, r0
 80046e8:	2b00      	cmp	r3, #0
 80046ea:	d001      	beq.n	80046f0 <HAL_UART_Transmit+0xe2>
        {
          return HAL_TIMEOUT;
 80046ec:	2303      	movs	r3, #3
 80046ee:	e023      	b.n	8004738 <HAL_UART_Transmit+0x12a>
        }
        huart->Instance->DR = (*pData++ & (uint8_t)0xFF);
 80046f0:	68bb      	ldr	r3, [r7, #8]
 80046f2:	1c5a      	adds	r2, r3, #1
 80046f4:	60ba      	str	r2, [r7, #8]
 80046f6:	781a      	ldrb	r2, [r3, #0]
 80046f8:	68fb      	ldr	r3, [r7, #12]
 80046fa:	681b      	ldr	r3, [r3, #0]
 80046fc:	605a      	str	r2, [r3, #4]
    while (huart->TxXferCount > 0U)
 80046fe:	68fb      	ldr	r3, [r7, #12]
 8004700:	8cdb      	ldrh	r3, [r3, #38]	; 0x26
 8004702:	b29b      	uxth	r3, r3
 8004704:	2b00      	cmp	r3, #0
 8004706:	d1b7      	bne.n	8004678 <HAL_UART_Transmit+0x6a>
      }
    }

    if (UART_WaitOnFlagUntilTimeout(huart, UART_FLAG_TC, RESET, tickstart, Timeout) != HAL_OK)
 8004708:	683b      	ldr	r3, [r7, #0]
 800470a:	9300      	str	r3, [sp, #0]
 800470c:	697b      	ldr	r3, [r7, #20]
 800470e:	2200      	movs	r2, #0
 8004710:	2140      	movs	r1, #64	; 0x40
 8004712:	68f8      	ldr	r0, [r7, #12]
 8004714:	f000 f976 	bl	8004a04 <UART_WaitOnFlagUntilTimeout>
 8004718:	4603      	mov	r3, r0
 800471a:	2b00      	cmp	r3, #0
 800471c:	d001      	beq.n	8004722 <HAL_UART_Transmit+0x114>
    {
      return HAL_TIMEOUT;
 800471e:	2303      	movs	r3, #3
 8004720:	e00a      	b.n	8004738 <HAL_UART_Transmit+0x12a>
    }

    /* At end of Tx process, restore huart->gState to Ready */
    huart->gState = HAL_UART_STATE_READY;
 8004722:	68fb      	ldr	r3, [r7, #12]
 8004724:	2220      	movs	r2, #32
 8004726:	f883 2039 	strb.w	r2, [r3, #57]	; 0x39

    /* Process Unlocked */
    __HAL_UNLOCK(huart);
 800472a:	68fb      	ldr	r3, [r7, #12]
 800472c:	2200      	movs	r2, #0
 800472e:	f883 2038 	strb.w	r2, [r3, #56]	; 0x38

    return HAL_OK;
 8004732:	2300      	movs	r3, #0
 8004734:	e000      	b.n	8004738 <HAL_UART_Transmit+0x12a>
  }
  else
  {
    return HAL_BUSY;
 8004736:	2302      	movs	r3, #2
  }
}
 8004738:	4618      	mov	r0, r3
 800473a:	3718      	adds	r7, #24
 800473c:	46bd      	mov	sp, r7
 800473e:	bd80      	pop	{r7, pc}

08004740 <HAL_UART_Receive_IT>:
  * @param  pData Pointer to data buffer (u8 or u16 data elements).
  * @param  Size  Amount of data elements (u8 or u16) to be received.
  * @retval HAL status
  */
HAL_StatusTypeDef HAL_UART_Receive_IT(UART_HandleTypeDef *huart, uint8_t *pData, uint16_t Size)
{
 8004740:	b480      	push	{r7}
 8004742:	b085      	sub	sp, #20
 8004744:	af00      	add	r7, sp, #0
 8004746:	60f8      	str	r0, [r7, #12]
 8004748:	60b9      	str	r1, [r7, #8]
 800474a:	4613      	mov	r3, r2
 800474c:	80fb      	strh	r3, [r7, #6]
  /* Check that a Rx process is not already ongoing */
  if (huart->RxState == HAL_UART_STATE_READY)
 800474e:	68fb      	ldr	r3, [r7, #12]
 8004750:	f893 303a 	ldrb.w	r3, [r3, #58]	; 0x3a
 8004754:	b2db      	uxtb	r3, r3
 8004756:	2b20      	cmp	r3, #32
 8004758:	d140      	bne.n	80047dc <HAL_UART_Receive_IT+0x9c>
  {
    if ((pData == NULL) || (Size == 0U))
 800475a:	68bb      	ldr	r3, [r7, #8]
 800475c:	2b00      	cmp	r3, #0
 800475e:	d002      	beq.n	8004766 <HAL_UART_Receive_IT+0x26>
 8004760:	88fb      	ldrh	r3, [r7, #6]
 8004762:	2b00      	cmp	r3, #0
 8004764:	d101      	bne.n	800476a <HAL_UART_Receive_IT+0x2a>
    {
      return HAL_ERROR;
 8004766:	2301      	movs	r3, #1
 8004768:	e039      	b.n	80047de <HAL_UART_Receive_IT+0x9e>
    }

    /* Process Locked */
    __HAL_LOCK(huart);
 800476a:	68fb      	ldr	r3, [r7, #12]
 800476c:	f893 3038 	ldrb.w	r3, [r3, #56]	; 0x38
 8004770:	2b01      	cmp	r3, #1
 8004772:	d101      	bne.n	8004778 <HAL_UART_Receive_IT+0x38>
 8004774:	2302      	movs	r3, #2
 8004776:	e032      	b.n	80047de <HAL_UART_Receive_IT+0x9e>
 8004778:	68fb      	ldr	r3, [r7, #12]
 800477a:	2201      	movs	r2, #1
 800477c:	f883 2038 	strb.w	r2, [r3, #56]	; 0x38

    huart->pRxBuffPtr = pData;
 8004780:	68fb      	ldr	r3, [r7, #12]
 8004782:	68ba      	ldr	r2, [r7, #8]
 8004784:	629a      	str	r2, [r3, #40]	; 0x28
    huart->RxXferSize = Size;
 8004786:	68fb      	ldr	r3, [r7, #12]
 8004788:	88fa      	ldrh	r2, [r7, #6]
 800478a:	859a      	strh	r2, [r3, #44]	; 0x2c
    huart->RxXferCount = Size;
 800478c:	68fb      	ldr	r3, [r7, #12]
 800478e:	88fa      	ldrh	r2, [r7, #6]
 8004790:	85da      	strh	r2, [r3, #46]	; 0x2e

    huart->ErrorCode = HAL_UART_ERROR_NONE;
 8004792:	68fb      	ldr	r3, [r7, #12]
 8004794:	2200      	movs	r2, #0
 8004796:	63da      	str	r2, [r3, #60]	; 0x3c
    huart->RxState = HAL_UART_STATE_BUSY_RX;
 8004798:	68fb      	ldr	r3, [r7, #12]
 800479a:	2222      	movs	r2, #34	; 0x22
 800479c:	f883 203a 	strb.w	r2, [r3, #58]	; 0x3a

    /* Process Unlocked */
    __HAL_UNLOCK(huart);
 80047a0:	68fb      	ldr	r3, [r7, #12]
 80047a2:	2200      	movs	r2, #0
 80047a4:	f883 2038 	strb.w	r2, [r3, #56]	; 0x38

    /* Enable the UART Parity Error Interrupt */
    __HAL_UART_ENABLE_IT(huart, UART_IT_PE);
 80047a8:	68fb      	ldr	r3, [r7, #12]
 80047aa:	681b      	ldr	r3, [r3, #0]
 80047ac:	68da      	ldr	r2, [r3, #12]
 80047ae:	68fb      	ldr	r3, [r7, #12]
 80047b0:	681b      	ldr	r3, [r3, #0]
 80047b2:	f442 7280 	orr.w	r2, r2, #256	; 0x100
 80047b6:	60da      	str	r2, [r3, #12]

    /* Enable the UART Error Interrupt: (Frame error, noise error, overrun error) */
    __HAL_UART_ENABLE_IT(huart, UART_IT_ERR);
 80047b8:	68fb      	ldr	r3, [r7, #12]
 80047ba:	681b      	ldr	r3, [r3, #0]
 80047bc:	695a      	ldr	r2, [r3, #20]
 80047be:	68fb      	ldr	r3, [r7, #12]
 80047c0:	681b      	ldr	r3, [r3, #0]
 80047c2:	f042 0201 	orr.w	r2, r2, #1
 80047c6:	615a      	str	r2, [r3, #20]

    /* Enable the UART Data Register not empty Interrupt */
    __HAL_UART_ENABLE_IT(huart, UART_IT_RXNE);
 80047c8:	68fb      	ldr	r3, [r7, #12]
 80047ca:	681b      	ldr	r3, [r3, #0]
 80047cc:	68da      	ldr	r2, [r3, #12]
 80047ce:	68fb      	ldr	r3, [r7, #12]
 80047d0:	681b      	ldr	r3, [r3, #0]
 80047d2:	f042 0220 	orr.w	r2, r2, #32
 80047d6:	60da      	str	r2, [r3, #12]

    return HAL_OK;
 80047d8:	2300      	movs	r3, #0
 80047da:	e000      	b.n	80047de <HAL_UART_Receive_IT+0x9e>
  }
  else
  {
    return HAL_BUSY;
 80047dc:	2302      	movs	r3, #2
  }
}
 80047de:	4618      	mov	r0, r3
 80047e0:	3714      	adds	r7, #20
 80047e2:	46bd      	mov	sp, r7
 80047e4:	bc80      	pop	{r7}
 80047e6:	4770      	bx	lr

080047e8 <HAL_UART_IRQHandler>:
  * @param  huart  Pointer to a UART_HandleTypeDef structure that contains
  *                the configuration information for the specified UART module.
  * @retval None
  */
void HAL_UART_IRQHandler(UART_HandleTypeDef *huart)
{
 80047e8:	b580      	push	{r7, lr}
 80047ea:	b088      	sub	sp, #32
 80047ec:	af00      	add	r7, sp, #0
 80047ee:	6078      	str	r0, [r7, #4]
  uint32_t isrflags   = READ_REG(huart->Instance->SR);
 80047f0:	687b      	ldr	r3, [r7, #4]
 80047f2:	681b      	ldr	r3, [r3, #0]
 80047f4:	681b      	ldr	r3, [r3, #0]
 80047f6:	61fb      	str	r3, [r7, #28]
  uint32_t cr1its     = READ_REG(huart->Instance->CR1);
 80047f8:	687b      	ldr	r3, [r7, #4]
 80047fa:	681b      	ldr	r3, [r3, #0]
 80047fc:	68db      	ldr	r3, [r3, #12]
 80047fe:	61bb      	str	r3, [r7, #24]
  uint32_t cr3its     = READ_REG(huart->Instance->CR3);
 8004800:	687b      	ldr	r3, [r7, #4]
 8004802:	681b      	ldr	r3, [r3, #0]
 8004804:	695b      	ldr	r3, [r3, #20]
 8004806:	617b      	str	r3, [r7, #20]
  uint32_t errorflags = 0x00U;
 8004808:	2300      	movs	r3, #0
 800480a:	613b      	str	r3, [r7, #16]
  uint32_t dmarequest = 0x00U;
 800480c:	2300      	movs	r3, #0
 800480e:	60fb      	str	r3, [r7, #12]

  /* If no error occurs */
  errorflags = (isrflags & (uint32_t)(USART_SR_PE | USART_SR_FE | USART_SR_ORE | USART_SR_NE));
 8004810:	69fb      	ldr	r3, [r7, #28]
 8004812:	f003 030f 	and.w	r3, r3, #15
 8004816:	613b      	str	r3, [r7, #16]
  if (errorflags == RESET)
 8004818:	693b      	ldr	r3, [r7, #16]
 800481a:	2b00      	cmp	r3, #0
 800481c:	d10d      	bne.n	800483a <HAL_UART_IRQHandler+0x52>
  {
    /* UART in mode Receiver -------------------------------------------------*/
    if (((isrflags & USART_SR_RXNE) != RESET) && ((cr1its & USART_CR1_RXNEIE) != RESET))
 800481e:	69fb      	ldr	r3, [r7, #28]
 8004820:	f003 0320 	and.w	r3, r3, #32
 8004824:	2b00      	cmp	r3, #0
 8004826:	d008      	beq.n	800483a <HAL_UART_IRQHandler+0x52>
 8004828:	69bb      	ldr	r3, [r7, #24]
 800482a:	f003 0320 	and.w	r3, r3, #32
 800482e:	2b00      	cmp	r3, #0
 8004830:	d003      	beq.n	800483a <HAL_UART_IRQHandler+0x52>
    {
      UART_Receive_IT(huart);
 8004832:	6878      	ldr	r0, [r7, #4]
 8004834:	f000 f9ce 	bl	8004bd4 <UART_Receive_IT>
      return;
 8004838:	e0cc      	b.n	80049d4 <HAL_UART_IRQHandler+0x1ec>
    }
  }

  /* If some errors occur */
  if ((errorflags != RESET) && (((cr3its & USART_CR3_EIE) != RESET) || ((cr1its & (USART_CR1_RXNEIE | USART_CR1_PEIE)) != RESET)))
 800483a:	693b      	ldr	r3, [r7, #16]
 800483c:	2b00      	cmp	r3, #0
 800483e:	f000 80ab 	beq.w	8004998 <HAL_UART_IRQHandler+0x1b0>
 8004842:	697b      	ldr	r3, [r7, #20]
 8004844:	f003 0301 	and.w	r3, r3, #1
 8004848:	2b00      	cmp	r3, #0
 800484a:	d105      	bne.n	8004858 <HAL_UART_IRQHandler+0x70>
 800484c:	69bb      	ldr	r3, [r7, #24]
 800484e:	f403 7390 	and.w	r3, r3, #288	; 0x120
 8004852:	2b00      	cmp	r3, #0
 8004854:	f000 80a0 	beq.w	8004998 <HAL_UART_IRQHandler+0x1b0>
  {
    /* UART parity error interrupt occurred ----------------------------------*/
    if (((isrflags & USART_SR_PE) != RESET) && ((cr1its & USART_CR1_PEIE) != RESET))
 8004858:	69fb      	ldr	r3, [r7, #28]
 800485a:	f003 0301 	and.w	r3, r3, #1
 800485e:	2b00      	cmp	r3, #0
 8004860:	d00a      	beq.n	8004878 <HAL_UART_IRQHandler+0x90>
 8004862:	69bb      	ldr	r3, [r7, #24]
 8004864:	f403 7380 	and.w	r3, r3, #256	; 0x100
 8004868:	2b00      	cmp	r3, #0
 800486a:	d005      	beq.n	8004878 <HAL_UART_IRQHandler+0x90>
    {
      huart->ErrorCode |= HAL_UART_ERROR_PE;
 800486c:	687b      	ldr	r3, [r7, #4]
 800486e:	6bdb      	ldr	r3, [r3, #60]	; 0x3c
 8004870:	f043 0201 	orr.w	r2, r3, #1
 8004874:	687b      	ldr	r3, [r7, #4]
 8004876:	63da      	str	r2, [r3, #60]	; 0x3c
    }

    /* UART noise error interrupt occurred -----------------------------------*/
    if (((isrflags & USART_SR_NE) != RESET) && ((cr3its & USART_CR3_EIE) != RESET))
 8004878:	69fb      	ldr	r3, [r7, #28]
 800487a:	f003 0304 	and.w	r3, r3, #4
 800487e:	2b00      	cmp	r3, #0
 8004880:	d00a      	beq.n	8004898 <HAL_UART_IRQHandler+0xb0>
 8004882:	697b      	ldr	r3, [r7, #20]
 8004884:	f003 0301 	and.w	r3, r3, #1
 8004888:	2b00      	cmp	r3, #0
 800488a:	d005      	beq.n	8004898 <HAL_UART_IRQHandler+0xb0>
    {
      huart->ErrorCode |= HAL_UART_ERROR_NE;
 800488c:	687b      	ldr	r3, [r7, #4]
 800488e:	6bdb      	ldr	r3, [r3, #60]	; 0x3c
 8004890:	f043 0202 	orr.w	r2, r3, #2
 8004894:	687b      	ldr	r3, [r7, #4]
 8004896:	63da      	str	r2, [r3, #60]	; 0x3c
    }

    /* UART frame error interrupt occurred -----------------------------------*/
    if (((isrflags & USART_SR_FE) != RESET) && ((cr3its & USART_CR3_EIE) != RESET))
 8004898:	69fb      	ldr	r3, [r7, #28]
 800489a:	f003 0302 	and.w	r3, r3, #2
 800489e:	2b00      	cmp	r3, #0
 80048a0:	d00a      	beq.n	80048b8 <HAL_UART_IRQHandler+0xd0>
 80048a2:	697b      	ldr	r3, [r7, #20]
 80048a4:	f003 0301 	and.w	r3, r3, #1
 80048a8:	2b00      	cmp	r3, #0
 80048aa:	d005      	beq.n	80048b8 <HAL_UART_IRQHandler+0xd0>
    {
      huart->ErrorCode |= HAL_UART_ERROR_FE;
 80048ac:	687b      	ldr	r3, [r7, #4]
 80048ae:	6bdb      	ldr	r3, [r3, #60]	; 0x3c
 80048b0:	f043 0204 	orr.w	r2, r3, #4
 80048b4:	687b      	ldr	r3, [r7, #4]
 80048b6:	63da      	str	r2, [r3, #60]	; 0x3c
    }

    /* UART Over-Run interrupt occurred --------------------------------------*/
    if (((isrflags & USART_SR_ORE) != RESET) && ((cr3its & USART_CR3_EIE) != RESET))
 80048b8:	69fb      	ldr	r3, [r7, #28]
 80048ba:	f003 0308 	and.w	r3, r3, #8
 80048be:	2b00      	cmp	r3, #0
 80048c0:	d00a      	beq.n	80048d8 <HAL_UART_IRQHandler+0xf0>
 80048c2:	697b      	ldr	r3, [r7, #20]
 80048c4:	f003 0301 	and.w	r3, r3, #1
 80048c8:	2b00      	cmp	r3, #0
 80048ca:	d005      	beq.n	80048d8 <HAL_UART_IRQHandler+0xf0>
    {
      huart->ErrorCode |= HAL_UART_ERROR_ORE;
 80048cc:	687b      	ldr	r3, [r7, #4]
 80048ce:	6bdb      	ldr	r3, [r3, #60]	; 0x3c
 80048d0:	f043 0208 	orr.w	r2, r3, #8
 80048d4:	687b      	ldr	r3, [r7, #4]
 80048d6:	63da      	str	r2, [r3, #60]	; 0x3c
    }

    /* Call UART Error Call back function if need be --------------------------*/
    if (huart->ErrorCode != HAL_UART_ERROR_NONE)
 80048d8:	687b      	ldr	r3, [r7, #4]
 80048da:	6bdb      	ldr	r3, [r3, #60]	; 0x3c
 80048dc:	2b00      	cmp	r3, #0
 80048de:	d078      	beq.n	80049d2 <HAL_UART_IRQHandler+0x1ea>
    {
      /* UART in mode Receiver -----------------------------------------------*/
      if (((isrflags & USART_SR_RXNE) != RESET) && ((cr1its & USART_CR1_RXNEIE) != RESET))
 80048e0:	69fb      	ldr	r3, [r7, #28]
 80048e2:	f003 0320 	and.w	r3, r3, #32
 80048e6:	2b00      	cmp	r3, #0
 80048e8:	d007      	beq.n	80048fa <HAL_UART_IRQHandler+0x112>
 80048ea:	69bb      	ldr	r3, [r7, #24]
 80048ec:	f003 0320 	and.w	r3, r3, #32
 80048f0:	2b00      	cmp	r3, #0
 80048f2:	d002      	beq.n	80048fa <HAL_UART_IRQHandler+0x112>
      {
        UART_Receive_IT(huart);
 80048f4:	6878      	ldr	r0, [r7, #4]
 80048f6:	f000 f96d 	bl	8004bd4 <UART_Receive_IT>
      }

      /* If Overrun error occurs, or if any error occurs in DMA mode reception,
         consider error as blocking */
      dmarequest = HAL_IS_BIT_SET(huart->Instance->CR3, USART_CR3_DMAR);
 80048fa:	687b      	ldr	r3, [r7, #4]
 80048fc:	681b      	ldr	r3, [r3, #0]
 80048fe:	695b      	ldr	r3, [r3, #20]
 8004900:	f003 0340 	and.w	r3, r3, #64	; 0x40
 8004904:	2b00      	cmp	r3, #0
 8004906:	bf14      	ite	ne
 8004908:	2301      	movne	r3, #1
 800490a:	2300      	moveq	r3, #0
 800490c:	b2db      	uxtb	r3, r3
 800490e:	60fb      	str	r3, [r7, #12]
      if (((huart->ErrorCode & HAL_UART_ERROR_ORE) != RESET) || dmarequest)
 8004910:	687b      	ldr	r3, [r7, #4]
 8004912:	6bdb      	ldr	r3, [r3, #60]	; 0x3c
 8004914:	f003 0308 	and.w	r3, r3, #8
 8004918:	2b00      	cmp	r3, #0
 800491a:	d102      	bne.n	8004922 <HAL_UART_IRQHandler+0x13a>
 800491c:	68fb      	ldr	r3, [r7, #12]
 800491e:	2b00      	cmp	r3, #0
 8004920:	d031      	beq.n	8004986 <HAL_UART_IRQHandler+0x19e>
      {
        /* Blocking error : transfer is aborted
           Set the UART state ready to be able to start again the process,
           Disable Rx Interrupts, and disable Rx DMA request, if ongoing */
        UART_EndRxTransfer(huart);
 8004922:	6878      	ldr	r0, [r7, #4]
 8004924:	f000 f8b8 	bl	8004a98 <UART_EndRxTransfer>

        /* Disable the UART DMA Rx request if enabled */
        if (HAL_IS_BIT_SET(huart->Instance->CR3, USART_CR3_DMAR))
 8004928:	687b      	ldr	r3, [r7, #4]
 800492a:	681b      	ldr	r3, [r3, #0]
 800492c:	695b      	ldr	r3, [r3, #20]
 800492e:	f003 0340 	and.w	r3, r3, #64	; 0x40
 8004932:	2b00      	cmp	r3, #0
 8004934:	d023      	beq.n	800497e <HAL_UART_IRQHandler+0x196>
        {
          CLEAR_BIT(huart->Instance->CR3, USART_CR3_DMAR);
 8004936:	687b      	ldr	r3, [r7, #4]
 8004938:	681b      	ldr	r3, [r3, #0]
 800493a:	695a      	ldr	r2, [r3, #20]
 800493c:	687b      	ldr	r3, [r7, #4]
 800493e:	681b      	ldr	r3, [r3, #0]
 8004940:	f022 0240 	bic.w	r2, r2, #64	; 0x40
 8004944:	615a      	str	r2, [r3, #20]

          /* Abort the UART DMA Rx channel */
          if (huart->hdmarx != NULL)
 8004946:	687b      	ldr	r3, [r7, #4]
 8004948:	6b5b      	ldr	r3, [r3, #52]	; 0x34
 800494a:	2b00      	cmp	r3, #0
 800494c:	d013      	beq.n	8004976 <HAL_UART_IRQHandler+0x18e>
          {
            /* Set the UART DMA Abort callback :
               will lead to call HAL_UART_ErrorCallback() at end of DMA abort procedure */
            huart->hdmarx->XferAbortCallback = UART_DMAAbortOnError;
 800494e:	687b      	ldr	r3, [r7, #4]
 8004950:	6b5b      	ldr	r3, [r3, #52]	; 0x34
 8004952:	4a22      	ldr	r2, [pc, #136]	; (80049dc <HAL_UART_IRQHandler+0x1f4>)
 8004954:	635a      	str	r2, [r3, #52]	; 0x34
            if (HAL_DMA_Abort_IT(huart->hdmarx) != HAL_OK)
 8004956:	687b      	ldr	r3, [r7, #4]
 8004958:	6b5b      	ldr	r3, [r3, #52]	; 0x34
 800495a:	4618      	mov	r0, r3
 800495c:	f7fd ffd2 	bl	8002904 <HAL_DMA_Abort_IT>
 8004960:	4603      	mov	r3, r0
 8004962:	2b00      	cmp	r3, #0
 8004964:	d016      	beq.n	8004994 <HAL_UART_IRQHandler+0x1ac>
            {
              /* Call Directly XferAbortCallback function in case of error */
              huart->hdmarx->XferAbortCallback(huart->hdmarx);
 8004966:	687b      	ldr	r3, [r7, #4]
 8004968:	6b5b      	ldr	r3, [r3, #52]	; 0x34
 800496a:	6b5b      	ldr	r3, [r3, #52]	; 0x34
 800496c:	687a      	ldr	r2, [r7, #4]
 800496e:	6b52      	ldr	r2, [r2, #52]	; 0x34
 8004970:	4610      	mov	r0, r2
 8004972:	4798      	blx	r3
        if (HAL_IS_BIT_SET(huart->Instance->CR3, USART_CR3_DMAR))
 8004974:	e00e      	b.n	8004994 <HAL_UART_IRQHandler+0x1ac>
#if (USE_HAL_UART_REGISTER_CALLBACKS == 1)
            /*Call registered error callback*/
            huart->ErrorCallback(huart);
#else
            /*Call legacy weak error callback*/
            HAL_UART_ErrorCallback(huart);
 8004976:	6878      	ldr	r0, [r7, #4]
 8004978:	f000 f83b 	bl	80049f2 <HAL_UART_ErrorCallback>
        if (HAL_IS_BIT_SET(huart->Instance->CR3, USART_CR3_DMAR))
 800497c:	e00a      	b.n	8004994 <HAL_UART_IRQHandler+0x1ac>
#if (USE_HAL_UART_REGISTER_CALLBACKS == 1)
          /*Call registered error callback*/
          huart->ErrorCallback(huart);
#else
          /*Call legacy weak error callback*/
          HAL_UART_ErrorCallback(huart);
 800497e:	6878      	ldr	r0, [r7, #4]
 8004980:	f000 f837 	bl	80049f2 <HAL_UART_ErrorCallback>
        if (HAL_IS_BIT_SET(huart->Instance->CR3, USART_CR3_DMAR))
 8004984:	e006      	b.n	8004994 <HAL_UART_IRQHandler+0x1ac>
#if (USE_HAL_UART_REGISTER_CALLBACKS == 1)
        /*Call registered error callback*/
        huart->ErrorCallback(huart);
#else
        /*Call legacy weak error callback*/
        HAL_UART_ErrorCallback(huart);
 8004986:	6878      	ldr	r0, [r7, #4]
 8004988:	f000 f833 	bl	80049f2 <HAL_UART_ErrorCallback>
#endif /* USE_HAL_UART_REGISTER_CALLBACKS */

        huart->ErrorCode = HAL_UART_ERROR_NONE;
 800498c:	687b      	ldr	r3, [r7, #4]
 800498e:	2200      	movs	r2, #0
 8004990:	63da      	str	r2, [r3, #60]	; 0x3c
      }
    }
    return;
 8004992:	e01e      	b.n	80049d2 <HAL_UART_IRQHandler+0x1ea>
        if (HAL_IS_BIT_SET(huart->Instance->CR3, USART_CR3_DMAR))
 8004994:	bf00      	nop
    return;
 8004996:	e01c      	b.n	80049d2 <HAL_UART_IRQHandler+0x1ea>
  } /* End if some error occurs */

  /* UART in mode Transmitter ------------------------------------------------*/
  if (((isrflags & USART_SR_TXE) != RESET) && ((cr1its & USART_CR1_TXEIE) != RESET))
 8004998:	69fb      	ldr	r3, [r7, #28]
 800499a:	f003 0380 	and.w	r3, r3, #128	; 0x80
 800499e:	2b00      	cmp	r3, #0
 80049a0:	d008      	beq.n	80049b4 <HAL_UART_IRQHandler+0x1cc>
 80049a2:	69bb      	ldr	r3, [r7, #24]
 80049a4:	f003 0380 	and.w	r3, r3, #128	; 0x80
 80049a8:	2b00      	cmp	r3, #0
 80049aa:	d003      	beq.n	80049b4 <HAL_UART_IRQHandler+0x1cc>
  {
    UART_Transmit_IT(huart);
 80049ac:	6878      	ldr	r0, [r7, #4]
 80049ae:	f000 f8a4 	bl	8004afa <UART_Transmit_IT>
    return;
 80049b2:	e00f      	b.n	80049d4 <HAL_UART_IRQHandler+0x1ec>
  }

  /* UART in mode Transmitter end --------------------------------------------*/
  if (((isrflags & USART_SR_TC) != RESET) && ((cr1its & USART_CR1_TCIE) != RESET))
 80049b4:	69fb      	ldr	r3, [r7, #28]
 80049b6:	f003 0340 	and.w	r3, r3, #64	; 0x40
 80049ba:	2b00      	cmp	r3, #0
 80049bc:	d00a      	beq.n	80049d4 <HAL_UART_IRQHandler+0x1ec>
 80049be:	69bb      	ldr	r3, [r7, #24]
 80049c0:	f003 0340 	and.w	r3, r3, #64	; 0x40
 80049c4:	2b00      	cmp	r3, #0
 80049c6:	d005      	beq.n	80049d4 <HAL_UART_IRQHandler+0x1ec>
  {
    UART_EndTransmit_IT(huart);
 80049c8:	6878      	ldr	r0, [r7, #4]
 80049ca:	f000 f8eb 	bl	8004ba4 <UART_EndTransmit_IT>
    return;
 80049ce:	bf00      	nop
 80049d0:	e000      	b.n	80049d4 <HAL_UART_IRQHandler+0x1ec>
    return;
 80049d2:	bf00      	nop
  }
}
 80049d4:	3720      	adds	r7, #32
 80049d6:	46bd      	mov	sp, r7
 80049d8:	bd80      	pop	{r7, pc}
 80049da:	bf00      	nop
 80049dc:	08004ad3 	.word	0x08004ad3

080049e0 <HAL_UART_TxCpltCallback>:
  * @param  huart  Pointer to a UART_HandleTypeDef structure that contains
  *                the configuration information for the specified UART module.
  * @retval None
  */
__weak void HAL_UART_TxCpltCallback(UART_HandleTypeDef *huart)
{
 80049e0:	b480      	push	{r7}
 80049e2:	b083      	sub	sp, #12
 80049e4:	af00      	add	r7, sp, #0
 80049e6:	6078      	str	r0, [r7, #4]
  /* Prevent unused argument(s) compilation warning */
  UNUSED(huart);
  /* NOTE: This function should not be modified, when the callback is needed,
           the HAL_UART_TxCpltCallback could be implemented in the user file
   */
}
 80049e8:	bf00      	nop
 80049ea:	370c      	adds	r7, #12
 80049ec:	46bd      	mov	sp, r7
 80049ee:	bc80      	pop	{r7}
 80049f0:	4770      	bx	lr

080049f2 <HAL_UART_ErrorCallback>:
  * @param  huart  Pointer to a UART_HandleTypeDef structure that contains
  *                the configuration information for the specified UART module.
  * @retval None
  */
__weak void HAL_UART_ErrorCallback(UART_HandleTypeDef *huart)
{
 80049f2:	b480      	push	{r7}
 80049f4:	b083      	sub	sp, #12
 80049f6:	af00      	add	r7, sp, #0
 80049f8:	6078      	str	r0, [r7, #4]
  /* Prevent unused argument(s) compilation warning */
  UNUSED(huart);
  /* NOTE: This function should not be modified, when the callback is needed,
           the HAL_UART_ErrorCallback could be implemented in the user file
   */
}
 80049fa:	bf00      	nop
 80049fc:	370c      	adds	r7, #12
 80049fe:	46bd      	mov	sp, r7
 8004a00:	bc80      	pop	{r7}
 8004a02:	4770      	bx	lr

08004a04 <UART_WaitOnFlagUntilTimeout>:
  * @param  Tickstart Tick start value
  * @param  Timeout Timeout duration
  * @retval HAL status
  */
static HAL_StatusTypeDef UART_WaitOnFlagUntilTimeout(UART_HandleTypeDef *huart, uint32_t Flag, FlagStatus Status, uint32_t Tickstart, uint32_t Timeout)
{
 8004a04:	b580      	push	{r7, lr}
 8004a06:	b084      	sub	sp, #16
 8004a08:	af00      	add	r7, sp, #0
 8004a0a:	60f8      	str	r0, [r7, #12]
 8004a0c:	60b9      	str	r1, [r7, #8]
 8004a0e:	603b      	str	r3, [r7, #0]
 8004a10:	4613      	mov	r3, r2
 8004a12:	71fb      	strb	r3, [r7, #7]
  /* Wait until flag is set */
  while ((__HAL_UART_GET_FLAG(huart, Flag) ? SET : RESET) == Status)
 8004a14:	e02c      	b.n	8004a70 <UART_WaitOnFlagUntilTimeout+0x6c>
  {
    /* Check for the Timeout */
    if (Timeout != HAL_MAX_DELAY)
 8004a16:	69bb      	ldr	r3, [r7, #24]
 8004a18:	f1b3 3fff 	cmp.w	r3, #4294967295
 8004a1c:	d028      	beq.n	8004a70 <UART_WaitOnFlagUntilTimeout+0x6c>
    {
      if ((Timeout == 0U) || ((HAL_GetTick() - Tickstart) > Timeout))
 8004a1e:	69bb      	ldr	r3, [r7, #24]
 8004a20:	2b00      	cmp	r3, #0
 8004a22:	d007      	beq.n	8004a34 <UART_WaitOnFlagUntilTimeout+0x30>
 8004a24:	f7fc fbb6 	bl	8001194 <HAL_GetTick>
 8004a28:	4602      	mov	r2, r0
 8004a2a:	683b      	ldr	r3, [r7, #0]
 8004a2c:	1ad3      	subs	r3, r2, r3
 8004a2e:	69ba      	ldr	r2, [r7, #24]
 8004a30:	429a      	cmp	r2, r3
 8004a32:	d21d      	bcs.n	8004a70 <UART_WaitOnFlagUntilTimeout+0x6c>
      {
        /* Disable TXE, RXNE, PE and ERR (Frame error, noise error, overrun error) interrupts for the interrupt process */
        CLEAR_BIT(huart->Instance->CR1, (USART_CR1_RXNEIE | USART_CR1_PEIE | USART_CR1_TXEIE));
 8004a34:	68fb      	ldr	r3, [r7, #12]
 8004a36:	681b      	ldr	r3, [r3, #0]
 8004a38:	68da      	ldr	r2, [r3, #12]
 8004a3a:	68fb      	ldr	r3, [r7, #12]
 8004a3c:	681b      	ldr	r3, [r3, #0]
 8004a3e:	f422 72d0 	bic.w	r2, r2, #416	; 0x1a0
 8004a42:	60da      	str	r2, [r3, #12]
        CLEAR_BIT(huart->Instance->CR3, USART_CR3_EIE);
 8004a44:	68fb      	ldr	r3, [r7, #12]
 8004a46:	681b      	ldr	r3, [r3, #0]
 8004a48:	695a      	ldr	r2, [r3, #20]
 8004a4a:	68fb      	ldr	r3, [r7, #12]
 8004a4c:	681b      	ldr	r3, [r3, #0]
 8004a4e:	f022 0201 	bic.w	r2, r2, #1
 8004a52:	615a      	str	r2, [r3, #20]

        huart->gState  = HAL_UART_STATE_READY;
 8004a54:	68fb      	ldr	r3, [r7, #12]
 8004a56:	2220      	movs	r2, #32
 8004a58:	f883 2039 	strb.w	r2, [r3, #57]	; 0x39
        huart->RxState = HAL_UART_STATE_READY;
 8004a5c:	68fb      	ldr	r3, [r7, #12]
 8004a5e:	2220      	movs	r2, #32
 8004a60:	f883 203a 	strb.w	r2, [r3, #58]	; 0x3a

        /* Process Unlocked */
        __HAL_UNLOCK(huart);
 8004a64:	68fb      	ldr	r3, [r7, #12]
 8004a66:	2200      	movs	r2, #0
 8004a68:	f883 2038 	strb.w	r2, [r3, #56]	; 0x38

        return HAL_TIMEOUT;
 8004a6c:	2303      	movs	r3, #3
 8004a6e:	e00f      	b.n	8004a90 <UART_WaitOnFlagUntilTimeout+0x8c>
  while ((__HAL_UART_GET_FLAG(huart, Flag) ? SET : RESET) == Status)
 8004a70:	68fb      	ldr	r3, [r7, #12]
 8004a72:	681b      	ldr	r3, [r3, #0]
 8004a74:	681a      	ldr	r2, [r3, #0]
 8004a76:	68bb      	ldr	r3, [r7, #8]
 8004a78:	4013      	ands	r3, r2
 8004a7a:	68ba      	ldr	r2, [r7, #8]
 8004a7c:	429a      	cmp	r2, r3
 8004a7e:	bf0c      	ite	eq
 8004a80:	2301      	moveq	r3, #1
 8004a82:	2300      	movne	r3, #0
 8004a84:	b2db      	uxtb	r3, r3
 8004a86:	461a      	mov	r2, r3
 8004a88:	79fb      	ldrb	r3, [r7, #7]
 8004a8a:	429a      	cmp	r2, r3
 8004a8c:	d0c3      	beq.n	8004a16 <UART_WaitOnFlagUntilTimeout+0x12>
      }
    }
  }
  return HAL_OK;
 8004a8e:	2300      	movs	r3, #0
}
 8004a90:	4618      	mov	r0, r3
 8004a92:	3710      	adds	r7, #16
 8004a94:	46bd      	mov	sp, r7
 8004a96:	bd80      	pop	{r7, pc}

08004a98 <UART_EndRxTransfer>:
  * @brief  End ongoing Rx transfer on UART peripheral (following error detection or Reception completion).
  * @param  huart UART handle.
  * @retval None
  */
static void UART_EndRxTransfer(UART_HandleTypeDef *huart)
{
 8004a98:	b480      	push	{r7}
 8004a9a:	b083      	sub	sp, #12
 8004a9c:	af00      	add	r7, sp, #0
 8004a9e:	6078      	str	r0, [r7, #4]
  /* Disable RXNE, PE and ERR (Frame error, noise error, overrun error) interrupts */
  CLEAR_BIT(huart->Instance->CR1, (USART_CR1_RXNEIE | USART_CR1_PEIE));
 8004aa0:	687b      	ldr	r3, [r7, #4]
 8004aa2:	681b      	ldr	r3, [r3, #0]
 8004aa4:	68da      	ldr	r2, [r3, #12]
 8004aa6:	687b      	ldr	r3, [r7, #4]
 8004aa8:	681b      	ldr	r3, [r3, #0]
 8004aaa:	f422 7290 	bic.w	r2, r2, #288	; 0x120
 8004aae:	60da      	str	r2, [r3, #12]
  CLEAR_BIT(huart->Instance->CR3, USART_CR3_EIE);
 8004ab0:	687b      	ldr	r3, [r7, #4]
 8004ab2:	681b      	ldr	r3, [r3, #0]
 8004ab4:	695a      	ldr	r2, [r3, #20]
 8004ab6:	687b      	ldr	r3, [r7, #4]
 8004ab8:	681b      	ldr	r3, [r3, #0]
 8004aba:	f022 0201 	bic.w	r2, r2, #1
 8004abe:	615a      	str	r2, [r3, #20]

  /* At end of Rx process, restore huart->RxState to Ready */
  huart->RxState = HAL_UART_STATE_READY;
 8004ac0:	687b      	ldr	r3, [r7, #4]
 8004ac2:	2220      	movs	r2, #32
 8004ac4:	f883 203a 	strb.w	r2, [r3, #58]	; 0x3a
}
 8004ac8:	bf00      	nop
 8004aca:	370c      	adds	r7, #12
 8004acc:	46bd      	mov	sp, r7
 8004ace:	bc80      	pop	{r7}
 8004ad0:	4770      	bx	lr

08004ad2 <UART_DMAAbortOnError>:
  * @param  hdma  Pointer to a DMA_HandleTypeDef structure that contains
  *               the configuration information for the specified DMA module.
  * @retval None
  */
static void UART_DMAAbortOnError(DMA_HandleTypeDef *hdma)
{
 8004ad2:	b580      	push	{r7, lr}
 8004ad4:	b084      	sub	sp, #16
 8004ad6:	af00      	add	r7, sp, #0
 8004ad8:	6078      	str	r0, [r7, #4]
  UART_HandleTypeDef *huart = (UART_HandleTypeDef *)((DMA_HandleTypeDef *)hdma)->Parent;
 8004ada:	687b      	ldr	r3, [r7, #4]
 8004adc:	6a5b      	ldr	r3, [r3, #36]	; 0x24
 8004ade:	60fb      	str	r3, [r7, #12]
  huart->RxXferCount = 0x00U;
 8004ae0:	68fb      	ldr	r3, [r7, #12]
 8004ae2:	2200      	movs	r2, #0
 8004ae4:	85da      	strh	r2, [r3, #46]	; 0x2e
  huart->TxXferCount = 0x00U;
 8004ae6:	68fb      	ldr	r3, [r7, #12]
 8004ae8:	2200      	movs	r2, #0
 8004aea:	84da      	strh	r2, [r3, #38]	; 0x26
#if (USE_HAL_UART_REGISTER_CALLBACKS == 1)
  /*Call registered error callback*/
  huart->ErrorCallback(huart);
#else
  /*Call legacy weak error callback*/
  HAL_UART_ErrorCallback(huart);
 8004aec:	68f8      	ldr	r0, [r7, #12]
 8004aee:	f7ff ff80 	bl	80049f2 <HAL_UART_ErrorCallback>
#endif /* USE_HAL_UART_REGISTER_CALLBACKS */
}
 8004af2:	bf00      	nop
 8004af4:	3710      	adds	r7, #16
 8004af6:	46bd      	mov	sp, r7
 8004af8:	bd80      	pop	{r7, pc}

08004afa <UART_Transmit_IT>:
  * @param  huart  Pointer to a UART_HandleTypeDef structure that contains
  *                the configuration information for the specified UART module.
  * @retval HAL status
  */
static HAL_StatusTypeDef UART_Transmit_IT(UART_HandleTypeDef *huart)
{
 8004afa:	b480      	push	{r7}
 8004afc:	b085      	sub	sp, #20
 8004afe:	af00      	add	r7, sp, #0
 8004b00:	6078      	str	r0, [r7, #4]
  uint16_t *tmp;

  /* Check that a Tx process is ongoing */
  if (huart->gState == HAL_UART_STATE_BUSY_TX)
 8004b02:	687b      	ldr	r3, [r7, #4]
 8004b04:	f893 3039 	ldrb.w	r3, [r3, #57]	; 0x39
 8004b08:	b2db      	uxtb	r3, r3
 8004b0a:	2b21      	cmp	r3, #33	; 0x21
 8004b0c:	d144      	bne.n	8004b98 <UART_Transmit_IT+0x9e>
  {
    if (huart->Init.WordLength == UART_WORDLENGTH_9B)
 8004b0e:	687b      	ldr	r3, [r7, #4]
 8004b10:	689b      	ldr	r3, [r3, #8]
 8004b12:	f5b3 5f80 	cmp.w	r3, #4096	; 0x1000
 8004b16:	d11a      	bne.n	8004b4e <UART_Transmit_IT+0x54>
    {
      tmp = (uint16_t *) huart->pTxBuffPtr;
 8004b18:	687b      	ldr	r3, [r7, #4]
 8004b1a:	6a1b      	ldr	r3, [r3, #32]
 8004b1c:	60fb      	str	r3, [r7, #12]
      huart->Instance->DR = (uint16_t)(*tmp & (uint16_t)0x01FF);
 8004b1e:	68fb      	ldr	r3, [r7, #12]
 8004b20:	881b      	ldrh	r3, [r3, #0]
 8004b22:	461a      	mov	r2, r3
 8004b24:	687b      	ldr	r3, [r7, #4]
 8004b26:	681b      	ldr	r3, [r3, #0]
 8004b28:	f3c2 0208 	ubfx	r2, r2, #0, #9
 8004b2c:	605a      	str	r2, [r3, #4]
      if (huart->Init.Parity == UART_PARITY_NONE)
 8004b2e:	687b      	ldr	r3, [r7, #4]
 8004b30:	691b      	ldr	r3, [r3, #16]
 8004b32:	2b00      	cmp	r3, #0
 8004b34:	d105      	bne.n	8004b42 <UART_Transmit_IT+0x48>
      {
        huart->pTxBuffPtr += 2U;
 8004b36:	687b      	ldr	r3, [r7, #4]
 8004b38:	6a1b      	ldr	r3, [r3, #32]
 8004b3a:	1c9a      	adds	r2, r3, #2
 8004b3c:	687b      	ldr	r3, [r7, #4]
 8004b3e:	621a      	str	r2, [r3, #32]
 8004b40:	e00e      	b.n	8004b60 <UART_Transmit_IT+0x66>
      }
      else
      {
        huart->pTxBuffPtr += 1U;
 8004b42:	687b      	ldr	r3, [r7, #4]
 8004b44:	6a1b      	ldr	r3, [r3, #32]
 8004b46:	1c5a      	adds	r2, r3, #1
 8004b48:	687b      	ldr	r3, [r7, #4]
 8004b4a:	621a      	str	r2, [r3, #32]
 8004b4c:	e008      	b.n	8004b60 <UART_Transmit_IT+0x66>
      }
    }
    else
    {
      huart->Instance->DR = (uint8_t)(*huart->pTxBuffPtr++ & (uint8_t)0x00FF);
 8004b4e:	687b      	ldr	r3, [r7, #4]
 8004b50:	6a1b      	ldr	r3, [r3, #32]
 8004b52:	1c59      	adds	r1, r3, #1
 8004b54:	687a      	ldr	r2, [r7, #4]
 8004b56:	6211      	str	r1, [r2, #32]
 8004b58:	781a      	ldrb	r2, [r3, #0]
 8004b5a:	687b      	ldr	r3, [r7, #4]
 8004b5c:	681b      	ldr	r3, [r3, #0]
 8004b5e:	605a      	str	r2, [r3, #4]
    }

    if (--huart->TxXferCount == 0U)
 8004b60:	687b      	ldr	r3, [r7, #4]
 8004b62:	8cdb      	ldrh	r3, [r3, #38]	; 0x26
 8004b64:	b29b      	uxth	r3, r3
 8004b66:	3b01      	subs	r3, #1
 8004b68:	b29b      	uxth	r3, r3
 8004b6a:	687a      	ldr	r2, [r7, #4]
 8004b6c:	4619      	mov	r1, r3
 8004b6e:	84d1      	strh	r1, [r2, #38]	; 0x26
 8004b70:	2b00      	cmp	r3, #0
 8004b72:	d10f      	bne.n	8004b94 <UART_Transmit_IT+0x9a>
    {
      /* Disable the UART Transmit Complete Interrupt */
      __HAL_UART_DISABLE_IT(huart, UART_IT_TXE);
 8004b74:	687b      	ldr	r3, [r7, #4]
 8004b76:	681b      	ldr	r3, [r3, #0]
 8004b78:	68da      	ldr	r2, [r3, #12]
 8004b7a:	687b      	ldr	r3, [r7, #4]
 8004b7c:	681b      	ldr	r3, [r3, #0]
 8004b7e:	f022 0280 	bic.w	r2, r2, #128	; 0x80
 8004b82:	60da      	str	r2, [r3, #12]

      /* Enable the UART Transmit Complete Interrupt */
      __HAL_UART_ENABLE_IT(huart, UART_IT_TC);
 8004b84:	687b      	ldr	r3, [r7, #4]
 8004b86:	681b      	ldr	r3, [r3, #0]
 8004b88:	68da      	ldr	r2, [r3, #12]
 8004b8a:	687b      	ldr	r3, [r7, #4]
 8004b8c:	681b      	ldr	r3, [r3, #0]
 8004b8e:	f042 0240 	orr.w	r2, r2, #64	; 0x40
 8004b92:	60da      	str	r2, [r3, #12]
    }
    return HAL_OK;
 8004b94:	2300      	movs	r3, #0
 8004b96:	e000      	b.n	8004b9a <UART_Transmit_IT+0xa0>
  }
  else
  {
    return HAL_BUSY;
 8004b98:	2302      	movs	r3, #2
  }
}
 8004b9a:	4618      	mov	r0, r3
 8004b9c:	3714      	adds	r7, #20
 8004b9e:	46bd      	mov	sp, r7
 8004ba0:	bc80      	pop	{r7}
 8004ba2:	4770      	bx	lr

08004ba4 <UART_EndTransmit_IT>:
  * @param  huart  Pointer to a UART_HandleTypeDef structure that contains
  *                the configuration information for the specified UART module.
  * @retval HAL status
  */
static HAL_StatusTypeDef UART_EndTransmit_IT(UART_HandleTypeDef *huart)
{
 8004ba4:	b580      	push	{r7, lr}
 8004ba6:	b082      	sub	sp, #8
 8004ba8:	af00      	add	r7, sp, #0
 8004baa:	6078      	str	r0, [r7, #4]
  /* Disable the UART Transmit Complete Interrupt */
  __HAL_UART_DISABLE_IT(huart, UART_IT_TC);
 8004bac:	687b      	ldr	r3, [r7, #4]
 8004bae:	681b      	ldr	r3, [r3, #0]
 8004bb0:	68da      	ldr	r2, [r3, #12]
 8004bb2:	687b      	ldr	r3, [r7, #4]
 8004bb4:	681b      	ldr	r3, [r3, #0]
 8004bb6:	f022 0240 	bic.w	r2, r2, #64	; 0x40
 8004bba:	60da      	str	r2, [r3, #12]

  /* Tx process is ended, restore huart->gState to Ready */
  huart->gState = HAL_UART_STATE_READY;
 8004bbc:	687b      	ldr	r3, [r7, #4]
 8004bbe:	2220      	movs	r2, #32
 8004bc0:	f883 2039 	strb.w	r2, [r3, #57]	; 0x39
#if (USE_HAL_UART_REGISTER_CALLBACKS == 1)
  /*Call registered Tx complete callback*/
  huart->TxCpltCallback(huart);
#else
  /*Call legacy weak Tx complete callback*/
  HAL_UART_TxCpltCallback(huart);
 8004bc4:	6878      	ldr	r0, [r7, #4]
 8004bc6:	f7ff ff0b 	bl	80049e0 <HAL_UART_TxCpltCallback>
#endif /* USE_HAL_UART_REGISTER_CALLBACKS */

  return HAL_OK;
 8004bca:	2300      	movs	r3, #0
}
 8004bcc:	4618      	mov	r0, r3
 8004bce:	3708      	adds	r7, #8
 8004bd0:	46bd      	mov	sp, r7
 8004bd2:	bd80      	pop	{r7, pc}

08004bd4 <UART_Receive_IT>:
  * @param  huart  Pointer to a UART_HandleTypeDef structure that contains
  *                the configuration information for the specified UART module.
  * @retval HAL status
  */
static HAL_StatusTypeDef UART_Receive_IT(UART_HandleTypeDef *huart)
{
 8004bd4:	b580      	push	{r7, lr}
 8004bd6:	b084      	sub	sp, #16
 8004bd8:	af00      	add	r7, sp, #0
 8004bda:	6078      	str	r0, [r7, #4]
  uint16_t *tmp;

  /* Check that a Rx process is ongoing */
  if (huart->RxState == HAL_UART_STATE_BUSY_RX)
 8004bdc:	687b      	ldr	r3, [r7, #4]
 8004bde:	f893 303a 	ldrb.w	r3, [r3, #58]	; 0x3a
 8004be2:	b2db      	uxtb	r3, r3
 8004be4:	2b22      	cmp	r3, #34	; 0x22
 8004be6:	d171      	bne.n	8004ccc <UART_Receive_IT+0xf8>
  {
    if (huart->Init.WordLength == UART_WORDLENGTH_9B)
 8004be8:	687b      	ldr	r3, [r7, #4]
 8004bea:	689b      	ldr	r3, [r3, #8]
 8004bec:	f5b3 5f80 	cmp.w	r3, #4096	; 0x1000
 8004bf0:	d123      	bne.n	8004c3a <UART_Receive_IT+0x66>
    {
      tmp = (uint16_t *) huart->pRxBuffPtr;
 8004bf2:	687b      	ldr	r3, [r7, #4]
 8004bf4:	6a9b      	ldr	r3, [r3, #40]	; 0x28
 8004bf6:	60fb      	str	r3, [r7, #12]
      if (huart->Init.Parity == UART_PARITY_NONE)
 8004bf8:	687b      	ldr	r3, [r7, #4]
 8004bfa:	691b      	ldr	r3, [r3, #16]
 8004bfc:	2b00      	cmp	r3, #0
 8004bfe:	d10e      	bne.n	8004c1e <UART_Receive_IT+0x4a>
      {
        *tmp = (uint16_t)(huart->Instance->DR & (uint16_t)0x01FF);
 8004c00:	687b      	ldr	r3, [r7, #4]
 8004c02:	681b      	ldr	r3, [r3, #0]
 8004c04:	685b      	ldr	r3, [r3, #4]
 8004c06:	b29b      	uxth	r3, r3
 8004c08:	f3c3 0308 	ubfx	r3, r3, #0, #9
 8004c0c:	b29a      	uxth	r2, r3
 8004c0e:	68fb      	ldr	r3, [r7, #12]
 8004c10:	801a      	strh	r2, [r3, #0]
        huart->pRxBuffPtr += 2U;
 8004c12:	687b      	ldr	r3, [r7, #4]
 8004c14:	6a9b      	ldr	r3, [r3, #40]	; 0x28
 8004c16:	1c9a      	adds	r2, r3, #2
 8004c18:	687b      	ldr	r3, [r7, #4]
 8004c1a:	629a      	str	r2, [r3, #40]	; 0x28
 8004c1c:	e029      	b.n	8004c72 <UART_Receive_IT+0x9e>
      }
      else
      {
        *tmp = (uint16_t)(huart->Instance->DR & (uint16_t)0x00FF);
 8004c1e:	687b      	ldr	r3, [r7, #4]
 8004c20:	681b      	ldr	r3, [r3, #0]
 8004c22:	685b      	ldr	r3, [r3, #4]
 8004c24:	b29b      	uxth	r3, r3
 8004c26:	b2db      	uxtb	r3, r3
 8004c28:	b29a      	uxth	r2, r3
 8004c2a:	68fb      	ldr	r3, [r7, #12]
 8004c2c:	801a      	strh	r2, [r3, #0]
        huart->pRxBuffPtr += 1U;
 8004c2e:	687b      	ldr	r3, [r7, #4]
 8004c30:	6a9b      	ldr	r3, [r3, #40]	; 0x28
 8004c32:	1c5a      	adds	r2, r3, #1
 8004c34:	687b      	ldr	r3, [r7, #4]
 8004c36:	629a      	str	r2, [r3, #40]	; 0x28
 8004c38:	e01b      	b.n	8004c72 <UART_Receive_IT+0x9e>
      }
    }
    else
    {
      if (huart->Init.Parity == UART_PARITY_NONE)
 8004c3a:	687b      	ldr	r3, [r7, #4]
 8004c3c:	691b      	ldr	r3, [r3, #16]
 8004c3e:	2b00      	cmp	r3, #0
 8004c40:	d10a      	bne.n	8004c58 <UART_Receive_IT+0x84>
      {
        *huart->pRxBuffPtr++ = (uint8_t)(huart->Instance->DR & (uint8_t)0x00FF);
 8004c42:	687b      	ldr	r3, [r7, #4]
 8004c44:	681b      	ldr	r3, [r3, #0]
 8004c46:	6858      	ldr	r0, [r3, #4]
 8004c48:	687b      	ldr	r3, [r7, #4]
 8004c4a:	6a9b      	ldr	r3, [r3, #40]	; 0x28
 8004c4c:	1c59      	adds	r1, r3, #1
 8004c4e:	687a      	ldr	r2, [r7, #4]
 8004c50:	6291      	str	r1, [r2, #40]	; 0x28
 8004c52:	b2c2      	uxtb	r2, r0
 8004c54:	701a      	strb	r2, [r3, #0]
 8004c56:	e00c      	b.n	8004c72 <UART_Receive_IT+0x9e>
      }
      else
      {
        *huart->pRxBuffPtr++ = (uint8_t)(huart->Instance->DR & (uint8_t)0x007F);
 8004c58:	687b      	ldr	r3, [r7, #4]
 8004c5a:	681b      	ldr	r3, [r3, #0]
 8004c5c:	685b      	ldr	r3, [r3, #4]
 8004c5e:	b2da      	uxtb	r2, r3
 8004c60:	687b      	ldr	r3, [r7, #4]
 8004c62:	6a9b      	ldr	r3, [r3, #40]	; 0x28
 8004c64:	1c58      	adds	r0, r3, #1
 8004c66:	6879      	ldr	r1, [r7, #4]
 8004c68:	6288      	str	r0, [r1, #40]	; 0x28
 8004c6a:	f002 027f 	and.w	r2, r2, #127	; 0x7f
 8004c6e:	b2d2      	uxtb	r2, r2
 8004c70:	701a      	strb	r2, [r3, #0]
      }
    }

    if (--huart->RxXferCount == 0U)
 8004c72:	687b      	ldr	r3, [r7, #4]
 8004c74:	8ddb      	ldrh	r3, [r3, #46]	; 0x2e
 8004c76:	b29b      	uxth	r3, r3
 8004c78:	3b01      	subs	r3, #1
 8004c7a:	b29b      	uxth	r3, r3
 8004c7c:	687a      	ldr	r2, [r7, #4]
 8004c7e:	4619      	mov	r1, r3
 8004c80:	85d1      	strh	r1, [r2, #46]	; 0x2e
 8004c82:	2b00      	cmp	r3, #0
 8004c84:	d120      	bne.n	8004cc8 <UART_Receive_IT+0xf4>
    {
      /* Disable the UART Data Register not empty Interrupt */
      __HAL_UART_DISABLE_IT(huart, UART_IT_RXNE);
 8004c86:	687b      	ldr	r3, [r7, #4]
 8004c88:	681b      	ldr	r3, [r3, #0]
 8004c8a:	68da      	ldr	r2, [r3, #12]
 8004c8c:	687b      	ldr	r3, [r7, #4]
 8004c8e:	681b      	ldr	r3, [r3, #0]
 8004c90:	f022 0220 	bic.w	r2, r2, #32
 8004c94:	60da      	str	r2, [r3, #12]

      /* Disable the UART Parity Error Interrupt */
      __HAL_UART_DISABLE_IT(huart, UART_IT_PE);
 8004c96:	687b      	ldr	r3, [r7, #4]
 8004c98:	681b      	ldr	r3, [r3, #0]
 8004c9a:	68da      	ldr	r2, [r3, #12]
 8004c9c:	687b      	ldr	r3, [r7, #4]
 8004c9e:	681b      	ldr	r3, [r3, #0]
 8004ca0:	f422 7280 	bic.w	r2, r2, #256	; 0x100
 8004ca4:	60da      	str	r2, [r3, #12]

      /* Disable the UART Error Interrupt: (Frame error, noise error, overrun error) */
      __HAL_UART_DISABLE_IT(huart, UART_IT_ERR);
 8004ca6:	687b      	ldr	r3, [r7, #4]
 8004ca8:	681b      	ldr	r3, [r3, #0]
 8004caa:	695a      	ldr	r2, [r3, #20]
 8004cac:	687b      	ldr	r3, [r7, #4]
 8004cae:	681b      	ldr	r3, [r3, #0]
 8004cb0:	f022 0201 	bic.w	r2, r2, #1
 8004cb4:	615a      	str	r2, [r3, #20]

      /* Rx process is completed, restore huart->RxState to Ready */
      huart->RxState = HAL_UART_STATE_READY;
 8004cb6:	687b      	ldr	r3, [r7, #4]
 8004cb8:	2220      	movs	r2, #32
 8004cba:	f883 203a 	strb.w	r2, [r3, #58]	; 0x3a
#if (USE_HAL_UART_REGISTER_CALLBACKS == 1)
      /*Call registered Rx complete callback*/
      huart->RxCpltCallback(huart);
#else
      /*Call legacy weak Rx complete callback*/
      HAL_UART_RxCpltCallback(huart);
 8004cbe:	6878      	ldr	r0, [r7, #4]
 8004cc0:	f7fb fa5e 	bl	8000180 <HAL_UART_RxCpltCallback>
#endif /* USE_HAL_UART_REGISTER_CALLBACKS */

      return HAL_OK;
 8004cc4:	2300      	movs	r3, #0
 8004cc6:	e002      	b.n	8004cce <UART_Receive_IT+0xfa>
    }
    return HAL_OK;
 8004cc8:	2300      	movs	r3, #0
 8004cca:	e000      	b.n	8004cce <UART_Receive_IT+0xfa>
  }
  else
  {
    return HAL_BUSY;
 8004ccc:	2302      	movs	r3, #2
  }
}
 8004cce:	4618      	mov	r0, r3
 8004cd0:	3710      	adds	r7, #16
 8004cd2:	46bd      	mov	sp, r7
 8004cd4:	bd80      	pop	{r7, pc}
	...

08004cd8 <UART_SetConfig>:
  * @param  huart  Pointer to a UART_HandleTypeDef structure that contains
  *                the configuration information for the specified UART module.
  * @retval None
  */
static void UART_SetConfig(UART_HandleTypeDef *huart)
{
 8004cd8:	b580      	push	{r7, lr}
 8004cda:	b084      	sub	sp, #16
 8004cdc:	af00      	add	r7, sp, #0
 8004cde:	6078      	str	r0, [r7, #4]
  assert_param(IS_UART_MODE(huart->Init.Mode));

  /*-------------------------- USART CR2 Configuration -----------------------*/
  /* Configure the UART Stop Bits: Set STOP[13:12] bits
     according to huart->Init.StopBits value */
  MODIFY_REG(huart->Instance->CR2, USART_CR2_STOP, huart->Init.StopBits);
 8004ce0:	687b      	ldr	r3, [r7, #4]
 8004ce2:	681b      	ldr	r3, [r3, #0]
 8004ce4:	691b      	ldr	r3, [r3, #16]
 8004ce6:	f423 5140 	bic.w	r1, r3, #12288	; 0x3000
 8004cea:	687b      	ldr	r3, [r7, #4]
 8004cec:	68da      	ldr	r2, [r3, #12]
 8004cee:	687b      	ldr	r3, [r7, #4]
 8004cf0:	681b      	ldr	r3, [r3, #0]
 8004cf2:	430a      	orrs	r2, r1
 8004cf4:	611a      	str	r2, [r3, #16]
  tmpreg = (uint32_t)huart->Init.WordLength | huart->Init.Parity | huart->Init.Mode | huart->Init.OverSampling;
  MODIFY_REG(huart->Instance->CR1,
             (uint32_t)(USART_CR1_M | USART_CR1_PCE | USART_CR1_PS | USART_CR1_TE | USART_CR1_RE | USART_CR1_OVER8),
             tmpreg);
#else
  tmpreg = (uint32_t)huart->Init.WordLength | huart->Init.Parity | huart->Init.Mode;
 8004cf6:	687b      	ldr	r3, [r7, #4]
 8004cf8:	689a      	ldr	r2, [r3, #8]
 8004cfa:	687b      	ldr	r3, [r7, #4]
 8004cfc:	691b      	ldr	r3, [r3, #16]
 8004cfe:	431a      	orrs	r2, r3
 8004d00:	687b      	ldr	r3, [r7, #4]
 8004d02:	695b      	ldr	r3, [r3, #20]
 8004d04:	4313      	orrs	r3, r2
 8004d06:	60fb      	str	r3, [r7, #12]
  MODIFY_REG(huart->Instance->CR1,
 8004d08:	687b      	ldr	r3, [r7, #4]
 8004d0a:	681b      	ldr	r3, [r3, #0]
 8004d0c:	68db      	ldr	r3, [r3, #12]
 8004d0e:	f423 53b0 	bic.w	r3, r3, #5632	; 0x1600
 8004d12:	f023 030c 	bic.w	r3, r3, #12
 8004d16:	687a      	ldr	r2, [r7, #4]
 8004d18:	6812      	ldr	r2, [r2, #0]
 8004d1a:	68f9      	ldr	r1, [r7, #12]
 8004d1c:	430b      	orrs	r3, r1
 8004d1e:	60d3      	str	r3, [r2, #12]
             tmpreg);
#endif /* USART_CR1_OVER8 */

  /*-------------------------- USART CR3 Configuration -----------------------*/
  /* Configure the UART HFC: Set CTSE and RTSE bits according to huart->Init.HwFlowCtl value */
  MODIFY_REG(huart->Instance->CR3, (USART_CR3_RTSE | USART_CR3_CTSE), huart->Init.HwFlowCtl);
 8004d20:	687b      	ldr	r3, [r7, #4]
 8004d22:	681b      	ldr	r3, [r3, #0]
 8004d24:	695b      	ldr	r3, [r3, #20]
 8004d26:	f423 7140 	bic.w	r1, r3, #768	; 0x300
 8004d2a:	687b      	ldr	r3, [r7, #4]
 8004d2c:	699a      	ldr	r2, [r3, #24]
 8004d2e:	687b      	ldr	r3, [r7, #4]
 8004d30:	681b      	ldr	r3, [r3, #0]
 8004d32:	430a      	orrs	r2, r1
 8004d34:	615a      	str	r2, [r3, #20]
      huart->Instance->BRR = UART_BRR_SAMPLING16(pclk, huart->Init.BaudRate);
    }
  }
#else
  /*-------------------------- USART BRR Configuration ---------------------*/
  if(huart->Instance == USART1)
 8004d36:	687b      	ldr	r3, [r7, #4]
 8004d38:	681b      	ldr	r3, [r3, #0]
 8004d3a:	4a52      	ldr	r2, [pc, #328]	; (8004e84 <UART_SetConfig+0x1ac>)
 8004d3c:	4293      	cmp	r3, r2
 8004d3e:	d14e      	bne.n	8004dde <UART_SetConfig+0x106>
  {
    pclk = HAL_RCC_GetPCLK2Freq();
 8004d40:	f7ff f908 	bl	8003f54 <HAL_RCC_GetPCLK2Freq>
 8004d44:	60b8      	str	r0, [r7, #8]
    huart->Instance->BRR = UART_BRR_SAMPLING16(pclk, huart->Init.BaudRate);
 8004d46:	68ba      	ldr	r2, [r7, #8]
 8004d48:	4613      	mov	r3, r2
 8004d4a:	009b      	lsls	r3, r3, #2
 8004d4c:	4413      	add	r3, r2
 8004d4e:	009a      	lsls	r2, r3, #2
 8004d50:	441a      	add	r2, r3
 8004d52:	687b      	ldr	r3, [r7, #4]
 8004d54:	685b      	ldr	r3, [r3, #4]
 8004d56:	009b      	lsls	r3, r3, #2
 8004d58:	fbb2 f3f3 	udiv	r3, r2, r3
 8004d5c:	4a4a      	ldr	r2, [pc, #296]	; (8004e88 <UART_SetConfig+0x1b0>)
 8004d5e:	fba2 2303 	umull	r2, r3, r2, r3
 8004d62:	095b      	lsrs	r3, r3, #5
 8004d64:	0119      	lsls	r1, r3, #4
 8004d66:	68ba      	ldr	r2, [r7, #8]
 8004d68:	4613      	mov	r3, r2
 8004d6a:	009b      	lsls	r3, r3, #2
 8004d6c:	4413      	add	r3, r2
 8004d6e:	009a      	lsls	r2, r3, #2
 8004d70:	441a      	add	r2, r3
 8004d72:	687b      	ldr	r3, [r7, #4]
 8004d74:	685b      	ldr	r3, [r3, #4]
 8004d76:	009b      	lsls	r3, r3, #2
 8004d78:	fbb2 f2f3 	udiv	r2, r2, r3
 8004d7c:	4b42      	ldr	r3, [pc, #264]	; (8004e88 <UART_SetConfig+0x1b0>)
 8004d7e:	fba3 0302 	umull	r0, r3, r3, r2
 8004d82:	095b      	lsrs	r3, r3, #5
 8004d84:	2064      	movs	r0, #100	; 0x64
 8004d86:	fb00 f303 	mul.w	r3, r0, r3
 8004d8a:	1ad3      	subs	r3, r2, r3
 8004d8c:	011b      	lsls	r3, r3, #4
 8004d8e:	3332      	adds	r3, #50	; 0x32
 8004d90:	4a3d      	ldr	r2, [pc, #244]	; (8004e88 <UART_SetConfig+0x1b0>)
 8004d92:	fba2 2303 	umull	r2, r3, r2, r3
 8004d96:	095b      	lsrs	r3, r3, #5
 8004d98:	f003 03f0 	and.w	r3, r3, #240	; 0xf0
 8004d9c:	4419      	add	r1, r3
 8004d9e:	68ba      	ldr	r2, [r7, #8]
 8004da0:	4613      	mov	r3, r2
 8004da2:	009b      	lsls	r3, r3, #2
 8004da4:	4413      	add	r3, r2
 8004da6:	009a      	lsls	r2, r3, #2
 8004da8:	441a      	add	r2, r3
 8004daa:	687b      	ldr	r3, [r7, #4]
 8004dac:	685b      	ldr	r3, [r3, #4]
 8004dae:	009b      	lsls	r3, r3, #2
 8004db0:	fbb2 f2f3 	udiv	r2, r2, r3
 8004db4:	4b34      	ldr	r3, [pc, #208]	; (8004e88 <UART_SetConfig+0x1b0>)
 8004db6:	fba3 0302 	umull	r0, r3, r3, r2
 8004dba:	095b      	lsrs	r3, r3, #5
 8004dbc:	2064      	movs	r0, #100	; 0x64
 8004dbe:	fb00 f303 	mul.w	r3, r0, r3
 8004dc2:	1ad3      	subs	r3, r2, r3
 8004dc4:	011b      	lsls	r3, r3, #4
 8004dc6:	3332      	adds	r3, #50	; 0x32
 8004dc8:	4a2f      	ldr	r2, [pc, #188]	; (8004e88 <UART_SetConfig+0x1b0>)
 8004dca:	fba2 2303 	umull	r2, r3, r2, r3
 8004dce:	095b      	lsrs	r3, r3, #5
 8004dd0:	f003 020f 	and.w	r2, r3, #15
 8004dd4:	687b      	ldr	r3, [r7, #4]
 8004dd6:	681b      	ldr	r3, [r3, #0]
 8004dd8:	440a      	add	r2, r1
 8004dda:	609a      	str	r2, [r3, #8]
  {
    pclk = HAL_RCC_GetPCLK1Freq();
    huart->Instance->BRR = UART_BRR_SAMPLING16(pclk, huart->Init.BaudRate);
  }
#endif /* USART_CR1_OVER8 */
}
 8004ddc:	e04d      	b.n	8004e7a <UART_SetConfig+0x1a2>
    pclk = HAL_RCC_GetPCLK1Freq();
 8004dde:	f7ff f8a5 	bl	8003f2c <HAL_RCC_GetPCLK1Freq>
 8004de2:	60b8      	str	r0, [r7, #8]
    huart->Instance->BRR = UART_BRR_SAMPLING16(pclk, huart->Init.BaudRate);
 8004de4:	68ba      	ldr	r2, [r7, #8]
 8004de6:	4613      	mov	r3, r2
 8004de8:	009b      	lsls	r3, r3, #2
 8004dea:	4413      	add	r3, r2
 8004dec:	009a      	lsls	r2, r3, #2
 8004dee:	441a      	add	r2, r3
 8004df0:	687b      	ldr	r3, [r7, #4]
 8004df2:	685b      	ldr	r3, [r3, #4]
 8004df4:	009b      	lsls	r3, r3, #2
 8004df6:	fbb2 f3f3 	udiv	r3, r2, r3
 8004dfa:	4a23      	ldr	r2, [pc, #140]	; (8004e88 <UART_SetConfig+0x1b0>)
 8004dfc:	fba2 2303 	umull	r2, r3, r2, r3
 8004e00:	095b      	lsrs	r3, r3, #5
 8004e02:	0119      	lsls	r1, r3, #4
 8004e04:	68ba      	ldr	r2, [r7, #8]
 8004e06:	4613      	mov	r3, r2
 8004e08:	009b      	lsls	r3, r3, #2
 8004e0a:	4413      	add	r3, r2
 8004e0c:	009a      	lsls	r2, r3, #2
 8004e0e:	441a      	add	r2, r3
 8004e10:	687b      	ldr	r3, [r7, #4]
 8004e12:	685b      	ldr	r3, [r3, #4]
 8004e14:	009b      	lsls	r3, r3, #2
 8004e16:	fbb2 f2f3 	udiv	r2, r2, r3
 8004e1a:	4b1b      	ldr	r3, [pc, #108]	; (8004e88 <UART_SetConfig+0x1b0>)
 8004e1c:	fba3 0302 	umull	r0, r3, r3, r2
 8004e20:	095b      	lsrs	r3, r3, #5
 8004e22:	2064      	movs	r0, #100	; 0x64
 8004e24:	fb00 f303 	mul.w	r3, r0, r3
 8004e28:	1ad3      	subs	r3, r2, r3
 8004e2a:	011b      	lsls	r3, r3, #4
 8004e2c:	3332      	adds	r3, #50	; 0x32
 8004e2e:	4a16      	ldr	r2, [pc, #88]	; (8004e88 <UART_SetConfig+0x1b0>)
 8004e30:	fba2 2303 	umull	r2, r3, r2, r3
 8004e34:	095b      	lsrs	r3, r3, #5
 8004e36:	f003 03f0 	and.w	r3, r3, #240	; 0xf0
 8004e3a:	4419      	add	r1, r3
 8004e3c:	68ba      	ldr	r2, [r7, #8]
 8004e3e:	4613      	mov	r3, r2
 8004e40:	009b      	lsls	r3, r3, #2
 8004e42:	4413      	add	r3, r2
 8004e44:	009a      	lsls	r2, r3, #2
 8004e46:	441a      	add	r2, r3
 8004e48:	687b      	ldr	r3, [r7, #4]
 8004e4a:	685b      	ldr	r3, [r3, #4]
 8004e4c:	009b      	lsls	r3, r3, #2
 8004e4e:	fbb2 f2f3 	udiv	r2, r2, r3
 8004e52:	4b0d      	ldr	r3, [pc, #52]	; (8004e88 <UART_SetConfig+0x1b0>)
 8004e54:	fba3 0302 	umull	r0, r3, r3, r2
 8004e58:	095b      	lsrs	r3, r3, #5
 8004e5a:	2064      	movs	r0, #100	; 0x64
 8004e5c:	fb00 f303 	mul.w	r3, r0, r3
 8004e60:	1ad3      	subs	r3, r2, r3
 8004e62:	011b      	lsls	r3, r3, #4
 8004e64:	3332      	adds	r3, #50	; 0x32
 8004e66:	4a08      	ldr	r2, [pc, #32]	; (8004e88 <UART_SetConfig+0x1b0>)
 8004e68:	fba2 2303 	umull	r2, r3, r2, r3
 8004e6c:	095b      	lsrs	r3, r3, #5
 8004e6e:	f003 020f 	and.w	r2, r3, #15
 8004e72:	687b      	ldr	r3, [r7, #4]
 8004e74:	681b      	ldr	r3, [r3, #0]
 8004e76:	440a      	add	r2, r1
 8004e78:	609a      	str	r2, [r3, #8]
}
 8004e7a:	bf00      	nop
 8004e7c:	3710      	adds	r7, #16
 8004e7e:	46bd      	mov	sp, r7
 8004e80:	bd80      	pop	{r7, pc}
 8004e82:	bf00      	nop
 8004e84:	40013800 	.word	0x40013800
 8004e88:	51eb851f 	.word	0x51eb851f

08004e8c <vListInitialise>:
/*-----------------------------------------------------------
 * PUBLIC LIST API documented in list.h
 *----------------------------------------------------------*/

void vListInitialise( List_t * const pxList )
{
 8004e8c:	b480      	push	{r7}
 8004e8e:	b083      	sub	sp, #12
 8004e90:	af00      	add	r7, sp, #0
 8004e92:	6078      	str	r0, [r7, #4]
	/* The list structure contains a list item which is used to mark the
	end of the list.  To initialise the list the list end is inserted
	as the only list entry. */
	pxList->pxIndex = ( ListItem_t * ) &( pxList->xListEnd );			/*lint !e826 !e740 The mini list structure is used as the list end to save RAM.  This is checked and valid. */
 8004e94:	687b      	ldr	r3, [r7, #4]
 8004e96:	f103 0208 	add.w	r2, r3, #8
 8004e9a:	687b      	ldr	r3, [r7, #4]
 8004e9c:	605a      	str	r2, [r3, #4]

	/* The list end value is the highest possible value in the list to
	ensure it remains at the end of the list. */
	pxList->xListEnd.xItemValue = portMAX_DELAY;
 8004e9e:	687b      	ldr	r3, [r7, #4]
 8004ea0:	f04f 32ff 	mov.w	r2, #4294967295
 8004ea4:	609a      	str	r2, [r3, #8]

	/* The list end next and previous pointers point to itself so we know
	when the list is empty. */
	pxList->xListEnd.pxNext = ( ListItem_t * ) &( pxList->xListEnd );	/*lint !e826 !e740 The mini list structure is used as the list end to save RAM.  This is checked and valid. */
 8004ea6:	687b      	ldr	r3, [r7, #4]
 8004ea8:	f103 0208 	add.w	r2, r3, #8
 8004eac:	687b      	ldr	r3, [r7, #4]
 8004eae:	60da      	str	r2, [r3, #12]
	pxList->xListEnd.pxPrevious = ( ListItem_t * ) &( pxList->xListEnd );/*lint !e826 !e740 The mini list structure is used as the list end to save RAM.  This is checked and valid. */
 8004eb0:	687b      	ldr	r3, [r7, #4]
 8004eb2:	f103 0208 	add.w	r2, r3, #8
 8004eb6:	687b      	ldr	r3, [r7, #4]
 8004eb8:	611a      	str	r2, [r3, #16]

	pxList->uxNumberOfItems = ( UBaseType_t ) 0U;
 8004eba:	687b      	ldr	r3, [r7, #4]
 8004ebc:	2200      	movs	r2, #0
 8004ebe:	601a      	str	r2, [r3, #0]

	/* Write known values into the list if
	configUSE_LIST_DATA_INTEGRITY_CHECK_BYTES is set to 1. */
	listSET_LIST_INTEGRITY_CHECK_1_VALUE( pxList );
	listSET_LIST_INTEGRITY_CHECK_2_VALUE( pxList );
}
 8004ec0:	bf00      	nop
 8004ec2:	370c      	adds	r7, #12
 8004ec4:	46bd      	mov	sp, r7
 8004ec6:	bc80      	pop	{r7}
 8004ec8:	4770      	bx	lr

08004eca <vListInitialiseItem>:
/*-----------------------------------------------------------*/

void vListInitialiseItem( ListItem_t * const pxItem )
{
 8004eca:	b480      	push	{r7}
 8004ecc:	b083      	sub	sp, #12
 8004ece:	af00      	add	r7, sp, #0
 8004ed0:	6078      	str	r0, [r7, #4]
	/* Make sure the list item is not recorded as being on a list. */
	pxItem->pvContainer = NULL;
 8004ed2:	687b      	ldr	r3, [r7, #4]
 8004ed4:	2200      	movs	r2, #0
 8004ed6:	611a      	str	r2, [r3, #16]

	/* Write known values into the list item if
	configUSE_LIST_DATA_INTEGRITY_CHECK_BYTES is set to 1. */
	listSET_FIRST_LIST_ITEM_INTEGRITY_CHECK_VALUE( pxItem );
	listSET_SECOND_LIST_ITEM_INTEGRITY_CHECK_VALUE( pxItem );
}
 8004ed8:	bf00      	nop
 8004eda:	370c      	adds	r7, #12
 8004edc:	46bd      	mov	sp, r7
 8004ede:	bc80      	pop	{r7}
 8004ee0:	4770      	bx	lr

08004ee2 <vListInsertEnd>:
/*-----------------------------------------------------------*/

void vListInsertEnd( List_t * const pxList, ListItem_t * const pxNewListItem )
{
 8004ee2:	b480      	push	{r7}
 8004ee4:	b085      	sub	sp, #20
 8004ee6:	af00      	add	r7, sp, #0
 8004ee8:	6078      	str	r0, [r7, #4]
 8004eea:	6039      	str	r1, [r7, #0]
ListItem_t * const pxIndex = pxList->pxIndex;
 8004eec:	687b      	ldr	r3, [r7, #4]
 8004eee:	685b      	ldr	r3, [r3, #4]
 8004ef0:	60fb      	str	r3, [r7, #12]
	listTEST_LIST_ITEM_INTEGRITY( pxNewListItem );

	/* Insert a new list item into pxList, but rather than sort the list,
	makes the new list item the last item to be removed by a call to
	listGET_OWNER_OF_NEXT_ENTRY(). */
	pxNewListItem->pxNext = pxIndex;
 8004ef2:	683b      	ldr	r3, [r7, #0]
 8004ef4:	68fa      	ldr	r2, [r7, #12]
 8004ef6:	605a      	str	r2, [r3, #4]
	pxNewListItem->pxPrevious = pxIndex->pxPrevious;
 8004ef8:	68fb      	ldr	r3, [r7, #12]
 8004efa:	689a      	ldr	r2, [r3, #8]
 8004efc:	683b      	ldr	r3, [r7, #0]
 8004efe:	609a      	str	r2, [r3, #8]

	/* Only used during decision coverage testing. */
	mtCOVERAGE_TEST_DELAY();

	pxIndex->pxPrevious->pxNext = pxNewListItem;
 8004f00:	68fb      	ldr	r3, [r7, #12]
 8004f02:	689b      	ldr	r3, [r3, #8]
 8004f04:	683a      	ldr	r2, [r7, #0]
 8004f06:	605a      	str	r2, [r3, #4]
	pxIndex->pxPrevious = pxNewListItem;
 8004f08:	68fb      	ldr	r3, [r7, #12]
 8004f0a:	683a      	ldr	r2, [r7, #0]
 8004f0c:	609a      	str	r2, [r3, #8]

	/* Remember which list the item is in. */
	pxNewListItem->pvContainer = ( void * ) pxList;
 8004f0e:	683b      	ldr	r3, [r7, #0]
 8004f10:	687a      	ldr	r2, [r7, #4]
 8004f12:	611a      	str	r2, [r3, #16]

	( pxList->uxNumberOfItems )++;
 8004f14:	687b      	ldr	r3, [r7, #4]
 8004f16:	681b      	ldr	r3, [r3, #0]
 8004f18:	1c5a      	adds	r2, r3, #1
 8004f1a:	687b      	ldr	r3, [r7, #4]
 8004f1c:	601a      	str	r2, [r3, #0]
}
 8004f1e:	bf00      	nop
 8004f20:	3714      	adds	r7, #20
 8004f22:	46bd      	mov	sp, r7
 8004f24:	bc80      	pop	{r7}
 8004f26:	4770      	bx	lr

08004f28 <vListInsert>:
/*-----------------------------------------------------------*/

void vListInsert( List_t * const pxList, ListItem_t * const pxNewListItem )
{
 8004f28:	b480      	push	{r7}
 8004f2a:	b085      	sub	sp, #20
 8004f2c:	af00      	add	r7, sp, #0
 8004f2e:	6078      	str	r0, [r7, #4]
 8004f30:	6039      	str	r1, [r7, #0]
ListItem_t *pxIterator;
const TickType_t xValueOfInsertion = pxNewListItem->xItemValue;
 8004f32:	683b      	ldr	r3, [r7, #0]
 8004f34:	681b      	ldr	r3, [r3, #0]
 8004f36:	60bb      	str	r3, [r7, #8]
	new list item should be placed after it.  This ensures that TCB's which are
	stored in ready lists (all of which have the same xItemValue value) get a
	share of the CPU.  However, if the xItemValue is the same as the back marker
	the iteration loop below will not end.  Therefore the value is checked
	first, and the algorithm slightly modified if necessary. */
	if( xValueOfInsertion == portMAX_DELAY )
 8004f38:	68bb      	ldr	r3, [r7, #8]
 8004f3a:	f1b3 3fff 	cmp.w	r3, #4294967295
 8004f3e:	d103      	bne.n	8004f48 <vListInsert+0x20>
	{
		pxIterator = pxList->xListEnd.pxPrevious;
 8004f40:	687b      	ldr	r3, [r7, #4]
 8004f42:	691b      	ldr	r3, [r3, #16]
 8004f44:	60fb      	str	r3, [r7, #12]
 8004f46:	e00c      	b.n	8004f62 <vListInsert+0x3a>
			4) Using a queue or semaphore before it has been initialised or
			   before the scheduler has been started (are interrupts firing
			   before vTaskStartScheduler() has been called?).
		**********************************************************************/

		for( pxIterator = ( ListItem_t * ) &( pxList->xListEnd ); pxIterator->pxNext->xItemValue <= xValueOfInsertion; pxIterator = pxIterator->pxNext ) /*lint !e826 !e740 The mini list structure is used as the list end to save RAM.  This is checked and valid. */
 8004f48:	687b      	ldr	r3, [r7, #4]
 8004f4a:	3308      	adds	r3, #8
 8004f4c:	60fb      	str	r3, [r7, #12]
 8004f4e:	e002      	b.n	8004f56 <vListInsert+0x2e>
 8004f50:	68fb      	ldr	r3, [r7, #12]
 8004f52:	685b      	ldr	r3, [r3, #4]
 8004f54:	60fb      	str	r3, [r7, #12]
 8004f56:	68fb      	ldr	r3, [r7, #12]
 8004f58:	685b      	ldr	r3, [r3, #4]
 8004f5a:	681b      	ldr	r3, [r3, #0]
 8004f5c:	68ba      	ldr	r2, [r7, #8]
 8004f5e:	429a      	cmp	r2, r3
 8004f60:	d2f6      	bcs.n	8004f50 <vListInsert+0x28>
			/* There is nothing to do here, just iterating to the wanted
			insertion position. */
		}
	}

	pxNewListItem->pxNext = pxIterator->pxNext;
 8004f62:	68fb      	ldr	r3, [r7, #12]
 8004f64:	685a      	ldr	r2, [r3, #4]
 8004f66:	683b      	ldr	r3, [r7, #0]
 8004f68:	605a      	str	r2, [r3, #4]
	pxNewListItem->pxNext->pxPrevious = pxNewListItem;
 8004f6a:	683b      	ldr	r3, [r7, #0]
 8004f6c:	685b      	ldr	r3, [r3, #4]
 8004f6e:	683a      	ldr	r2, [r7, #0]
 8004f70:	609a      	str	r2, [r3, #8]
	pxNewListItem->pxPrevious = pxIterator;
 8004f72:	683b      	ldr	r3, [r7, #0]
 8004f74:	68fa      	ldr	r2, [r7, #12]
 8004f76:	609a      	str	r2, [r3, #8]
	pxIterator->pxNext = pxNewListItem;
 8004f78:	68fb      	ldr	r3, [r7, #12]
 8004f7a:	683a      	ldr	r2, [r7, #0]
 8004f7c:	605a      	str	r2, [r3, #4]

	/* Remember which list the item is in.  This allows fast removal of the
	item later. */
	pxNewListItem->pvContainer = ( void * ) pxList;
 8004f7e:	683b      	ldr	r3, [r7, #0]
 8004f80:	687a      	ldr	r2, [r7, #4]
 8004f82:	611a      	str	r2, [r3, #16]

	( pxList->uxNumberOfItems )++;
 8004f84:	687b      	ldr	r3, [r7, #4]
 8004f86:	681b      	ldr	r3, [r3, #0]
 8004f88:	1c5a      	adds	r2, r3, #1
 8004f8a:	687b      	ldr	r3, [r7, #4]
 8004f8c:	601a      	str	r2, [r3, #0]
}
 8004f8e:	bf00      	nop
 8004f90:	3714      	adds	r7, #20
 8004f92:	46bd      	mov	sp, r7
 8004f94:	bc80      	pop	{r7}
 8004f96:	4770      	bx	lr

08004f98 <uxListRemove>:
/*-----------------------------------------------------------*/

UBaseType_t uxListRemove( ListItem_t * const pxItemToRemove )
{
 8004f98:	b480      	push	{r7}
 8004f9a:	b085      	sub	sp, #20
 8004f9c:	af00      	add	r7, sp, #0
 8004f9e:	6078      	str	r0, [r7, #4]
/* The list item knows which list it is in.  Obtain the list from the list
item. */
List_t * const pxList = ( List_t * ) pxItemToRemove->pvContainer;
 8004fa0:	687b      	ldr	r3, [r7, #4]
 8004fa2:	691b      	ldr	r3, [r3, #16]
 8004fa4:	60fb      	str	r3, [r7, #12]

	pxItemToRemove->pxNext->pxPrevious = pxItemToRemove->pxPrevious;
 8004fa6:	687b      	ldr	r3, [r7, #4]
 8004fa8:	685b      	ldr	r3, [r3, #4]
 8004faa:	687a      	ldr	r2, [r7, #4]
 8004fac:	6892      	ldr	r2, [r2, #8]
 8004fae:	609a      	str	r2, [r3, #8]
	pxItemToRemove->pxPrevious->pxNext = pxItemToRemove->pxNext;
 8004fb0:	687b      	ldr	r3, [r7, #4]
 8004fb2:	689b      	ldr	r3, [r3, #8]
 8004fb4:	687a      	ldr	r2, [r7, #4]
 8004fb6:	6852      	ldr	r2, [r2, #4]
 8004fb8:	605a      	str	r2, [r3, #4]

	/* Only used during decision coverage testing. */
	mtCOVERAGE_TEST_DELAY();

	/* Make sure the index is left pointing to a valid item. */
	if( pxList->pxIndex == pxItemToRemove )
 8004fba:	68fb      	ldr	r3, [r7, #12]
 8004fbc:	685b      	ldr	r3, [r3, #4]
 8004fbe:	687a      	ldr	r2, [r7, #4]
 8004fc0:	429a      	cmp	r2, r3
 8004fc2:	d103      	bne.n	8004fcc <uxListRemove+0x34>
	{
		pxList->pxIndex = pxItemToRemove->pxPrevious;
 8004fc4:	687b      	ldr	r3, [r7, #4]
 8004fc6:	689a      	ldr	r2, [r3, #8]
 8004fc8:	68fb      	ldr	r3, [r7, #12]
 8004fca:	605a      	str	r2, [r3, #4]
	else
	{
		mtCOVERAGE_TEST_MARKER();
	}

	pxItemToRemove->pvContainer = NULL;
 8004fcc:	687b      	ldr	r3, [r7, #4]
 8004fce:	2200      	movs	r2, #0
 8004fd0:	611a      	str	r2, [r3, #16]
	( pxList->uxNumberOfItems )--;
 8004fd2:	68fb      	ldr	r3, [r7, #12]
 8004fd4:	681b      	ldr	r3, [r3, #0]
 8004fd6:	1e5a      	subs	r2, r3, #1
 8004fd8:	68fb      	ldr	r3, [r7, #12]
 8004fda:	601a      	str	r2, [r3, #0]

	return pxList->uxNumberOfItems;
 8004fdc:	68fb      	ldr	r3, [r7, #12]
 8004fde:	681b      	ldr	r3, [r3, #0]
}
 8004fe0:	4618      	mov	r0, r3
 8004fe2:	3714      	adds	r7, #20
 8004fe4:	46bd      	mov	sp, r7
 8004fe6:	bc80      	pop	{r7}
 8004fe8:	4770      	bx	lr

08004fea <xTaskCreateStatic>:
									const uint32_t ulStackDepth,
									void * const pvParameters,
									UBaseType_t uxPriority,
									StackType_t * const puxStackBuffer,
									StaticTask_t * const pxTaskBuffer )
	{
 8004fea:	b580      	push	{r7, lr}
 8004fec:	b08e      	sub	sp, #56	; 0x38
 8004fee:	af04      	add	r7, sp, #16
 8004ff0:	60f8      	str	r0, [r7, #12]
 8004ff2:	60b9      	str	r1, [r7, #8]
 8004ff4:	607a      	str	r2, [r7, #4]
 8004ff6:	603b      	str	r3, [r7, #0]
	TCB_t *pxNewTCB;
	TaskHandle_t xReturn;

		configASSERT( puxStackBuffer != NULL );
 8004ff8:	6b7b      	ldr	r3, [r7, #52]	; 0x34
 8004ffa:	2b00      	cmp	r3, #0
 8004ffc:	d109      	bne.n	8005012 <xTaskCreateStatic+0x28>

portFORCE_INLINE static void vPortRaiseBASEPRI( void )
{
uint32_t ulNewBASEPRI;

	__asm volatile
 8004ffe:	f04f 0350 	mov.w	r3, #80	; 0x50
 8005002:	f383 8811 	msr	BASEPRI, r3
 8005006:	f3bf 8f6f 	isb	sy
 800500a:	f3bf 8f4f 	dsb	sy
 800500e:	623b      	str	r3, [r7, #32]
 8005010:	e7fe      	b.n	8005010 <xTaskCreateStatic+0x26>
		configASSERT( pxTaskBuffer != NULL );
 8005012:	6bbb      	ldr	r3, [r7, #56]	; 0x38
 8005014:	2b00      	cmp	r3, #0
 8005016:	d109      	bne.n	800502c <xTaskCreateStatic+0x42>
 8005018:	f04f 0350 	mov.w	r3, #80	; 0x50
 800501c:	f383 8811 	msr	BASEPRI, r3
 8005020:	f3bf 8f6f 	isb	sy
 8005024:	f3bf 8f4f 	dsb	sy
 8005028:	61fb      	str	r3, [r7, #28]
 800502a:	e7fe      	b.n	800502a <xTaskCreateStatic+0x40>
		#if( configASSERT_DEFINED == 1 )
		{
			/* Sanity check that the size of the structure used to declare a
			variable of type StaticTask_t equals the size of the real task
			structure. */
			volatile size_t xSize = sizeof( StaticTask_t );
 800502c:	2354      	movs	r3, #84	; 0x54
 800502e:	613b      	str	r3, [r7, #16]
			configASSERT( xSize == sizeof( TCB_t ) );
 8005030:	693b      	ldr	r3, [r7, #16]
 8005032:	2b54      	cmp	r3, #84	; 0x54
 8005034:	d009      	beq.n	800504a <xTaskCreateStatic+0x60>
 8005036:	f04f 0350 	mov.w	r3, #80	; 0x50
 800503a:	f383 8811 	msr	BASEPRI, r3
 800503e:	f3bf 8f6f 	isb	sy
 8005042:	f3bf 8f4f 	dsb	sy
 8005046:	61bb      	str	r3, [r7, #24]
 8005048:	e7fe      	b.n	8005048 <xTaskCreateStatic+0x5e>
		}
		#endif /* configASSERT_DEFINED */


		if( ( pxTaskBuffer != NULL ) && ( puxStackBuffer != NULL ) )
 800504a:	6bbb      	ldr	r3, [r7, #56]	; 0x38
 800504c:	2b00      	cmp	r3, #0
 800504e:	d01e      	beq.n	800508e <xTaskCreateStatic+0xa4>
 8005050:	6b7b      	ldr	r3, [r7, #52]	; 0x34
 8005052:	2b00      	cmp	r3, #0
 8005054:	d01b      	beq.n	800508e <xTaskCreateStatic+0xa4>
		{
			/* The memory used for the task's TCB and stack are passed into this
			function - use them. */
			pxNewTCB = ( TCB_t * ) pxTaskBuffer; /*lint !e740 Unusual cast is ok as the structures are designed to have the same alignment, and the size is checked by an assert. */
 8005056:	6bbb      	ldr	r3, [r7, #56]	; 0x38
 8005058:	627b      	str	r3, [r7, #36]	; 0x24
			pxNewTCB->pxStack = ( StackType_t * ) puxStackBuffer;
 800505a:	6a7b      	ldr	r3, [r7, #36]	; 0x24
 800505c:	6b7a      	ldr	r2, [r7, #52]	; 0x34
 800505e:	631a      	str	r2, [r3, #48]	; 0x30

			#if( tskSTATIC_AND_DYNAMIC_ALLOCATION_POSSIBLE != 0 ) /*lint !e731 Macro has been consolidated for readability reasons. */
			{
				/* Tasks can be created statically or dynamically, so note this
				task was created statically in case the task is later deleted. */
				pxNewTCB->ucStaticallyAllocated = tskSTATICALLY_ALLOCATED_STACK_AND_TCB;
 8005060:	6a7b      	ldr	r3, [r7, #36]	; 0x24
 8005062:	2202      	movs	r2, #2
 8005064:	f883 2051 	strb.w	r2, [r3, #81]	; 0x51
			}
			#endif /* configSUPPORT_DYNAMIC_ALLOCATION */

			prvInitialiseNewTask( pxTaskCode, pcName, ulStackDepth, pvParameters, uxPriority, &xReturn, pxNewTCB, NULL );
 8005068:	2300      	movs	r3, #0
 800506a:	9303      	str	r3, [sp, #12]
 800506c:	6a7b      	ldr	r3, [r7, #36]	; 0x24
 800506e:	9302      	str	r3, [sp, #8]
 8005070:	f107 0314 	add.w	r3, r7, #20
 8005074:	9301      	str	r3, [sp, #4]
 8005076:	6b3b      	ldr	r3, [r7, #48]	; 0x30
 8005078:	9300      	str	r3, [sp, #0]
 800507a:	683b      	ldr	r3, [r7, #0]
 800507c:	687a      	ldr	r2, [r7, #4]
 800507e:	68b9      	ldr	r1, [r7, #8]
 8005080:	68f8      	ldr	r0, [r7, #12]
 8005082:	f000 f850 	bl	8005126 <prvInitialiseNewTask>
			prvAddNewTaskToReadyList( pxNewTCB );
 8005086:	6a78      	ldr	r0, [r7, #36]	; 0x24
 8005088:	f000 f8cc 	bl	8005224 <prvAddNewTaskToReadyList>
 800508c:	e001      	b.n	8005092 <xTaskCreateStatic+0xa8>
		}
		else
		{
			xReturn = NULL;
 800508e:	2300      	movs	r3, #0
 8005090:	617b      	str	r3, [r7, #20]
		}

		return xReturn;
 8005092:	697b      	ldr	r3, [r7, #20]
	}
 8005094:	4618      	mov	r0, r3
 8005096:	3728      	adds	r7, #40	; 0x28
 8005098:	46bd      	mov	sp, r7
 800509a:	bd80      	pop	{r7, pc}

0800509c <xTaskCreate>:
							const char * const pcName,		/*lint !e971 Unqualified char types are allowed for strings and single characters only. */
							const configSTACK_DEPTH_TYPE usStackDepth,
							void * const pvParameters,
							UBaseType_t uxPriority,
							TaskHandle_t * const pxCreatedTask )
	{
 800509c:	b580      	push	{r7, lr}
 800509e:	b08c      	sub	sp, #48	; 0x30
 80050a0:	af04      	add	r7, sp, #16
 80050a2:	60f8      	str	r0, [r7, #12]
 80050a4:	60b9      	str	r1, [r7, #8]
 80050a6:	603b      	str	r3, [r7, #0]
 80050a8:	4613      	mov	r3, r2
 80050aa:	80fb      	strh	r3, [r7, #6]
		#else /* portSTACK_GROWTH */
		{
		StackType_t *pxStack;

			/* Allocate space for the stack used by the task being created. */
			pxStack = ( StackType_t * ) pvPortMalloc( ( ( ( size_t ) usStackDepth ) * sizeof( StackType_t ) ) ); /*lint !e961 MISRA exception as the casts are only redundant for some ports. */
 80050ac:	88fb      	ldrh	r3, [r7, #6]
 80050ae:	009b      	lsls	r3, r3, #2
 80050b0:	4618      	mov	r0, r3
 80050b2:	f001 f81f 	bl	80060f4 <pvPortMalloc>
 80050b6:	6178      	str	r0, [r7, #20]

			if( pxStack != NULL )
 80050b8:	697b      	ldr	r3, [r7, #20]
 80050ba:	2b00      	cmp	r3, #0
 80050bc:	d00e      	beq.n	80050dc <xTaskCreate+0x40>
			{
				/* Allocate space for the TCB. */
				pxNewTCB = ( TCB_t * ) pvPortMalloc( sizeof( TCB_t ) ); /*lint !e961 MISRA exception as the casts are only redundant for some paths. */
 80050be:	2054      	movs	r0, #84	; 0x54
 80050c0:	f001 f818 	bl	80060f4 <pvPortMalloc>
 80050c4:	61f8      	str	r0, [r7, #28]

				if( pxNewTCB != NULL )
 80050c6:	69fb      	ldr	r3, [r7, #28]
 80050c8:	2b00      	cmp	r3, #0
 80050ca:	d003      	beq.n	80050d4 <xTaskCreate+0x38>
				{
					/* Store the stack location in the TCB. */
					pxNewTCB->pxStack = pxStack;
 80050cc:	69fb      	ldr	r3, [r7, #28]
 80050ce:	697a      	ldr	r2, [r7, #20]
 80050d0:	631a      	str	r2, [r3, #48]	; 0x30
 80050d2:	e005      	b.n	80050e0 <xTaskCreate+0x44>
				}
				else
				{
					/* The stack cannot be used as the TCB was not created.  Free
					it again. */
					vPortFree( pxStack );
 80050d4:	6978      	ldr	r0, [r7, #20]
 80050d6:	f001 f8cf 	bl	8006278 <vPortFree>
 80050da:	e001      	b.n	80050e0 <xTaskCreate+0x44>
				}
			}
			else
			{
				pxNewTCB = NULL;
 80050dc:	2300      	movs	r3, #0
 80050de:	61fb      	str	r3, [r7, #28]
			}
		}
		#endif /* portSTACK_GROWTH */

		if( pxNewTCB != NULL )
 80050e0:	69fb      	ldr	r3, [r7, #28]
 80050e2:	2b00      	cmp	r3, #0
 80050e4:	d017      	beq.n	8005116 <xTaskCreate+0x7a>
		{
			#if( tskSTATIC_AND_DYNAMIC_ALLOCATION_POSSIBLE != 0 ) /*lint !e731 Macro has been consolidated for readability reasons. */
			{
				/* Tasks can be created statically or dynamically, so note this
				task was created dynamically in case it is later deleted. */
				pxNewTCB->ucStaticallyAllocated = tskDYNAMICALLY_ALLOCATED_STACK_AND_TCB;
 80050e6:	69fb      	ldr	r3, [r7, #28]
 80050e8:	2200      	movs	r2, #0
 80050ea:	f883 2051 	strb.w	r2, [r3, #81]	; 0x51
			}
			#endif /* configSUPPORT_STATIC_ALLOCATION */

			prvInitialiseNewTask( pxTaskCode, pcName, ( uint32_t ) usStackDepth, pvParameters, uxPriority, pxCreatedTask, pxNewTCB, NULL );
 80050ee:	88fa      	ldrh	r2, [r7, #6]
 80050f0:	2300      	movs	r3, #0
 80050f2:	9303      	str	r3, [sp, #12]
 80050f4:	69fb      	ldr	r3, [r7, #28]
 80050f6:	9302      	str	r3, [sp, #8]
 80050f8:	6afb      	ldr	r3, [r7, #44]	; 0x2c
 80050fa:	9301      	str	r3, [sp, #4]
 80050fc:	6abb      	ldr	r3, [r7, #40]	; 0x28
 80050fe:	9300      	str	r3, [sp, #0]
 8005100:	683b      	ldr	r3, [r7, #0]
 8005102:	68b9      	ldr	r1, [r7, #8]
 8005104:	68f8      	ldr	r0, [r7, #12]
 8005106:	f000 f80e 	bl	8005126 <prvInitialiseNewTask>
			prvAddNewTaskToReadyList( pxNewTCB );
 800510a:	69f8      	ldr	r0, [r7, #28]
 800510c:	f000 f88a 	bl	8005224 <prvAddNewTaskToReadyList>
			xReturn = pdPASS;
 8005110:	2301      	movs	r3, #1
 8005112:	61bb      	str	r3, [r7, #24]
 8005114:	e002      	b.n	800511c <xTaskCreate+0x80>
		}
		else
		{
			xReturn = errCOULD_NOT_ALLOCATE_REQUIRED_MEMORY;
 8005116:	f04f 33ff 	mov.w	r3, #4294967295
 800511a:	61bb      	str	r3, [r7, #24]
		}

		return xReturn;
 800511c:	69bb      	ldr	r3, [r7, #24]
	}
 800511e:	4618      	mov	r0, r3
 8005120:	3720      	adds	r7, #32
 8005122:	46bd      	mov	sp, r7
 8005124:	bd80      	pop	{r7, pc}

08005126 <prvInitialiseNewTask>:
									void * const pvParameters,
									UBaseType_t uxPriority,
									TaskHandle_t * const pxCreatedTask,
									TCB_t *pxNewTCB,
									const MemoryRegion_t * const xRegions )
{
 8005126:	b580      	push	{r7, lr}
 8005128:	b088      	sub	sp, #32
 800512a:	af00      	add	r7, sp, #0
 800512c:	60f8      	str	r0, [r7, #12]
 800512e:	60b9      	str	r1, [r7, #8]
 8005130:	607a      	str	r2, [r7, #4]
 8005132:	603b      	str	r3, [r7, #0]
	grows from high memory to low (as per the 80x86) or vice versa.
	portSTACK_GROWTH is used to make the result positive or negative as required
	by the port. */
	#if( portSTACK_GROWTH < 0 )
	{
		pxTopOfStack = pxNewTCB->pxStack + ( ulStackDepth - ( uint32_t ) 1 );
 8005134:	6b3b      	ldr	r3, [r7, #48]	; 0x30
 8005136:	6b1a      	ldr	r2, [r3, #48]	; 0x30
 8005138:	687b      	ldr	r3, [r7, #4]
 800513a:	f103 4380 	add.w	r3, r3, #1073741824	; 0x40000000
 800513e:	3b01      	subs	r3, #1
 8005140:	009b      	lsls	r3, r3, #2
 8005142:	4413      	add	r3, r2
 8005144:	61bb      	str	r3, [r7, #24]
		pxTopOfStack = ( StackType_t * ) ( ( ( portPOINTER_SIZE_TYPE ) pxTopOfStack ) & ( ~( ( portPOINTER_SIZE_TYPE ) portBYTE_ALIGNMENT_MASK ) ) ); /*lint !e923 MISRA exception.  Avoiding casts between pointers and integers is not practical.  Size differences accounted for using portPOINTER_SIZE_TYPE type. */
 8005146:	69bb      	ldr	r3, [r7, #24]
 8005148:	f023 0307 	bic.w	r3, r3, #7
 800514c:	61bb      	str	r3, [r7, #24]

		/* Check the alignment of the calculated top of stack is correct. */
		configASSERT( ( ( ( portPOINTER_SIZE_TYPE ) pxTopOfStack & ( portPOINTER_SIZE_TYPE ) portBYTE_ALIGNMENT_MASK ) == 0UL ) );
 800514e:	69bb      	ldr	r3, [r7, #24]
 8005150:	f003 0307 	and.w	r3, r3, #7
 8005154:	2b00      	cmp	r3, #0
 8005156:	d009      	beq.n	800516c <prvInitialiseNewTask+0x46>
 8005158:	f04f 0350 	mov.w	r3, #80	; 0x50
 800515c:	f383 8811 	msr	BASEPRI, r3
 8005160:	f3bf 8f6f 	isb	sy
 8005164:	f3bf 8f4f 	dsb	sy
 8005168:	617b      	str	r3, [r7, #20]
 800516a:	e7fe      	b.n	800516a <prvInitialiseNewTask+0x44>
		pxNewTCB->pxEndOfStack = pxNewTCB->pxStack + ( ulStackDepth - ( uint32_t ) 1 );
	}
	#endif /* portSTACK_GROWTH */

	/* Store the task name in the TCB. */
	for( x = ( UBaseType_t ) 0; x < ( UBaseType_t ) configMAX_TASK_NAME_LEN; x++ )
 800516c:	2300      	movs	r3, #0
 800516e:	61fb      	str	r3, [r7, #28]
 8005170:	e012      	b.n	8005198 <prvInitialiseNewTask+0x72>
	{
		pxNewTCB->pcTaskName[ x ] = pcName[ x ];
 8005172:	68ba      	ldr	r2, [r7, #8]
 8005174:	69fb      	ldr	r3, [r7, #28]
 8005176:	4413      	add	r3, r2
 8005178:	7819      	ldrb	r1, [r3, #0]
 800517a:	6b3a      	ldr	r2, [r7, #48]	; 0x30
 800517c:	69fb      	ldr	r3, [r7, #28]
 800517e:	4413      	add	r3, r2
 8005180:	3334      	adds	r3, #52	; 0x34
 8005182:	460a      	mov	r2, r1
 8005184:	701a      	strb	r2, [r3, #0]

		/* Don't copy all configMAX_TASK_NAME_LEN if the string is shorter than
		configMAX_TASK_NAME_LEN characters just in case the memory after the
		string is not accessible (extremely unlikely). */
		if( pcName[ x ] == 0x00 )
 8005186:	68ba      	ldr	r2, [r7, #8]
 8005188:	69fb      	ldr	r3, [r7, #28]
 800518a:	4413      	add	r3, r2
 800518c:	781b      	ldrb	r3, [r3, #0]
 800518e:	2b00      	cmp	r3, #0
 8005190:	d006      	beq.n	80051a0 <prvInitialiseNewTask+0x7a>
	for( x = ( UBaseType_t ) 0; x < ( UBaseType_t ) configMAX_TASK_NAME_LEN; x++ )
 8005192:	69fb      	ldr	r3, [r7, #28]
 8005194:	3301      	adds	r3, #1
 8005196:	61fb      	str	r3, [r7, #28]
 8005198:	69fb      	ldr	r3, [r7, #28]
 800519a:	2b0f      	cmp	r3, #15
 800519c:	d9e9      	bls.n	8005172 <prvInitialiseNewTask+0x4c>
 800519e:	e000      	b.n	80051a2 <prvInitialiseNewTask+0x7c>
		{
			break;
 80051a0:	bf00      	nop
		}
	}

	/* Ensure the name string is terminated in the case that the string length
	was greater or equal to configMAX_TASK_NAME_LEN. */
	pxNewTCB->pcTaskName[ configMAX_TASK_NAME_LEN - 1 ] = '\0';
 80051a2:	6b3b      	ldr	r3, [r7, #48]	; 0x30
 80051a4:	2200      	movs	r2, #0
 80051a6:	f883 2043 	strb.w	r2, [r3, #67]	; 0x43

	/* This is used as an array index so must ensure it's not too large.  First
	remove the privilege bit if one is present. */
	if( uxPriority >= ( UBaseType_t ) configMAX_PRIORITIES )
 80051aa:	6abb      	ldr	r3, [r7, #40]	; 0x28
 80051ac:	2b06      	cmp	r3, #6
 80051ae:	d901      	bls.n	80051b4 <prvInitialiseNewTask+0x8e>
	{
		uxPriority = ( UBaseType_t ) configMAX_PRIORITIES - ( UBaseType_t ) 1U;
 80051b0:	2306      	movs	r3, #6
 80051b2:	62bb      	str	r3, [r7, #40]	; 0x28
	else
	{
		mtCOVERAGE_TEST_MARKER();
	}

	pxNewTCB->uxPriority = uxPriority;
 80051b4:	6b3b      	ldr	r3, [r7, #48]	; 0x30
 80051b6:	6aba      	ldr	r2, [r7, #40]	; 0x28
 80051b8:	62da      	str	r2, [r3, #44]	; 0x2c
	#if ( configUSE_MUTEXES == 1 )
	{
		pxNewTCB->uxBasePriority = uxPriority;
 80051ba:	6b3b      	ldr	r3, [r7, #48]	; 0x30
 80051bc:	6aba      	ldr	r2, [r7, #40]	; 0x28
 80051be:	645a      	str	r2, [r3, #68]	; 0x44
		pxNewTCB->uxMutexesHeld = 0;
 80051c0:	6b3b      	ldr	r3, [r7, #48]	; 0x30
 80051c2:	2200      	movs	r2, #0
 80051c4:	649a      	str	r2, [r3, #72]	; 0x48
	}
	#endif /* configUSE_MUTEXES */

	vListInitialiseItem( &( pxNewTCB->xStateListItem ) );
 80051c6:	6b3b      	ldr	r3, [r7, #48]	; 0x30
 80051c8:	3304      	adds	r3, #4
 80051ca:	4618      	mov	r0, r3
 80051cc:	f7ff fe7d 	bl	8004eca <vListInitialiseItem>
	vListInitialiseItem( &( pxNewTCB->xEventListItem ) );
 80051d0:	6b3b      	ldr	r3, [r7, #48]	; 0x30
 80051d2:	3318      	adds	r3, #24
 80051d4:	4618      	mov	r0, r3
 80051d6:	f7ff fe78 	bl	8004eca <vListInitialiseItem>

	/* Set the pxNewTCB as a link back from the ListItem_t.  This is so we can get
	back to	the containing TCB from a generic item in a list. */
	listSET_LIST_ITEM_OWNER( &( pxNewTCB->xStateListItem ), pxNewTCB );
 80051da:	6b3b      	ldr	r3, [r7, #48]	; 0x30
 80051dc:	6b3a      	ldr	r2, [r7, #48]	; 0x30
 80051de:	611a      	str	r2, [r3, #16]

	/* Event lists are always in priority order. */
	listSET_LIST_ITEM_VALUE( &( pxNewTCB->xEventListItem ), ( TickType_t ) configMAX_PRIORITIES - ( TickType_t ) uxPriority ); /*lint !e961 MISRA exception as the casts are only redundant for some ports. */
 80051e0:	6abb      	ldr	r3, [r7, #40]	; 0x28
 80051e2:	f1c3 0207 	rsb	r2, r3, #7
 80051e6:	6b3b      	ldr	r3, [r7, #48]	; 0x30
 80051e8:	619a      	str	r2, [r3, #24]
	listSET_LIST_ITEM_OWNER( &( pxNewTCB->xEventListItem ), pxNewTCB );
 80051ea:	6b3b      	ldr	r3, [r7, #48]	; 0x30
 80051ec:	6b3a      	ldr	r2, [r7, #48]	; 0x30
 80051ee:	625a      	str	r2, [r3, #36]	; 0x24
	}
	#endif

	#if ( configUSE_TASK_NOTIFICATIONS == 1 )
	{
		pxNewTCB->ulNotifiedValue = 0;
 80051f0:	6b3b      	ldr	r3, [r7, #48]	; 0x30
 80051f2:	2200      	movs	r2, #0
 80051f4:	64da      	str	r2, [r3, #76]	; 0x4c
		pxNewTCB->ucNotifyState = taskNOT_WAITING_NOTIFICATION;
 80051f6:	6b3b      	ldr	r3, [r7, #48]	; 0x30
 80051f8:	2200      	movs	r2, #0
 80051fa:	f883 2050 	strb.w	r2, [r3, #80]	; 0x50
	{
		pxNewTCB->pxTopOfStack = pxPortInitialiseStack( pxTopOfStack, pxTaskCode, pvParameters, xRunPrivileged );
	}
	#else /* portUSING_MPU_WRAPPERS */
	{
		pxNewTCB->pxTopOfStack = pxPortInitialiseStack( pxTopOfStack, pxTaskCode, pvParameters );
 80051fe:	683a      	ldr	r2, [r7, #0]
 8005200:	68f9      	ldr	r1, [r7, #12]
 8005202:	69b8      	ldr	r0, [r7, #24]
 8005204:	f000 fd96 	bl	8005d34 <pxPortInitialiseStack>
 8005208:	4602      	mov	r2, r0
 800520a:	6b3b      	ldr	r3, [r7, #48]	; 0x30
 800520c:	601a      	str	r2, [r3, #0]
	}
	#endif /* portUSING_MPU_WRAPPERS */

	if( ( void * ) pxCreatedTask != NULL )
 800520e:	6afb      	ldr	r3, [r7, #44]	; 0x2c
 8005210:	2b00      	cmp	r3, #0
 8005212:	d002      	beq.n	800521a <prvInitialiseNewTask+0xf4>
	{
		/* Pass the handle out in an anonymous way.  The handle can be used to
		change the created task's priority, delete the created task, etc.*/
		*pxCreatedTask = ( TaskHandle_t ) pxNewTCB;
 8005214:	6afb      	ldr	r3, [r7, #44]	; 0x2c
 8005216:	6b3a      	ldr	r2, [r7, #48]	; 0x30
 8005218:	601a      	str	r2, [r3, #0]
	}
	else
	{
		mtCOVERAGE_TEST_MARKER();
	}
}
 800521a:	bf00      	nop
 800521c:	3720      	adds	r7, #32
 800521e:	46bd      	mov	sp, r7
 8005220:	bd80      	pop	{r7, pc}
	...

08005224 <prvAddNewTaskToReadyList>:
/*-----------------------------------------------------------*/

static void prvAddNewTaskToReadyList( TCB_t *pxNewTCB )
{
 8005224:	b580      	push	{r7, lr}
 8005226:	b082      	sub	sp, #8
 8005228:	af00      	add	r7, sp, #0
 800522a:	6078      	str	r0, [r7, #4]
	/* Ensure interrupts don't access the task lists while the lists are being
	updated. */
	taskENTER_CRITICAL();
 800522c:	f000 fe6c 	bl	8005f08 <vPortEnterCritical>
	{
		uxCurrentNumberOfTasks++;
 8005230:	4b2a      	ldr	r3, [pc, #168]	; (80052dc <prvAddNewTaskToReadyList+0xb8>)
 8005232:	681b      	ldr	r3, [r3, #0]
 8005234:	3301      	adds	r3, #1
 8005236:	4a29      	ldr	r2, [pc, #164]	; (80052dc <prvAddNewTaskToReadyList+0xb8>)
 8005238:	6013      	str	r3, [r2, #0]
		if( pxCurrentTCB == NULL )
 800523a:	4b29      	ldr	r3, [pc, #164]	; (80052e0 <prvAddNewTaskToReadyList+0xbc>)
 800523c:	681b      	ldr	r3, [r3, #0]
 800523e:	2b00      	cmp	r3, #0
 8005240:	d109      	bne.n	8005256 <prvAddNewTaskToReadyList+0x32>
		{
			/* There are no other tasks, or all the other tasks are in
			the suspended state - make this the current task. */
			pxCurrentTCB = pxNewTCB;
 8005242:	4a27      	ldr	r2, [pc, #156]	; (80052e0 <prvAddNewTaskToReadyList+0xbc>)
 8005244:	687b      	ldr	r3, [r7, #4]
 8005246:	6013      	str	r3, [r2, #0]

			if( uxCurrentNumberOfTasks == ( UBaseType_t ) 1 )
 8005248:	4b24      	ldr	r3, [pc, #144]	; (80052dc <prvAddNewTaskToReadyList+0xb8>)
 800524a:	681b      	ldr	r3, [r3, #0]
 800524c:	2b01      	cmp	r3, #1
 800524e:	d110      	bne.n	8005272 <prvAddNewTaskToReadyList+0x4e>
			{
				/* This is the first task to be created so do the preliminary
				initialisation required.  We will not recover if this call
				fails, but we will report the failure. */
				prvInitialiseTaskLists();
 8005250:	f000 fc4c 	bl	8005aec <prvInitialiseTaskLists>
 8005254:	e00d      	b.n	8005272 <prvAddNewTaskToReadyList+0x4e>
		else
		{
			/* If the scheduler is not already running, make this task the
			current task if it is the highest priority task to be created
			so far. */
			if( xSchedulerRunning == pdFALSE )
 8005256:	4b23      	ldr	r3, [pc, #140]	; (80052e4 <prvAddNewTaskToReadyList+0xc0>)
 8005258:	681b      	ldr	r3, [r3, #0]
 800525a:	2b00      	cmp	r3, #0
 800525c:	d109      	bne.n	8005272 <prvAddNewTaskToReadyList+0x4e>
			{
				if( pxCurrentTCB->uxPriority <= pxNewTCB->uxPriority )
 800525e:	4b20      	ldr	r3, [pc, #128]	; (80052e0 <prvAddNewTaskToReadyList+0xbc>)
 8005260:	681b      	ldr	r3, [r3, #0]
 8005262:	6ada      	ldr	r2, [r3, #44]	; 0x2c
 8005264:	687b      	ldr	r3, [r7, #4]
 8005266:	6adb      	ldr	r3, [r3, #44]	; 0x2c
 8005268:	429a      	cmp	r2, r3
 800526a:	d802      	bhi.n	8005272 <prvAddNewTaskToReadyList+0x4e>
				{
					pxCurrentTCB = pxNewTCB;
 800526c:	4a1c      	ldr	r2, [pc, #112]	; (80052e0 <prvAddNewTaskToReadyList+0xbc>)
 800526e:	687b      	ldr	r3, [r7, #4]
 8005270:	6013      	str	r3, [r2, #0]
			{
				mtCOVERAGE_TEST_MARKER();
			}
		}

		uxTaskNumber++;
 8005272:	4b1d      	ldr	r3, [pc, #116]	; (80052e8 <prvAddNewTaskToReadyList+0xc4>)
 8005274:	681b      	ldr	r3, [r3, #0]
 8005276:	3301      	adds	r3, #1
 8005278:	4a1b      	ldr	r2, [pc, #108]	; (80052e8 <prvAddNewTaskToReadyList+0xc4>)
 800527a:	6013      	str	r3, [r2, #0]
			pxNewTCB->uxTCBNumber = uxTaskNumber;
		}
		#endif /* configUSE_TRACE_FACILITY */
		traceTASK_CREATE( pxNewTCB );

		prvAddTaskToReadyList( pxNewTCB );
 800527c:	687b      	ldr	r3, [r7, #4]
 800527e:	6adb      	ldr	r3, [r3, #44]	; 0x2c
 8005280:	2201      	movs	r2, #1
 8005282:	409a      	lsls	r2, r3
 8005284:	4b19      	ldr	r3, [pc, #100]	; (80052ec <prvAddNewTaskToReadyList+0xc8>)
 8005286:	681b      	ldr	r3, [r3, #0]
 8005288:	4313      	orrs	r3, r2
 800528a:	4a18      	ldr	r2, [pc, #96]	; (80052ec <prvAddNewTaskToReadyList+0xc8>)
 800528c:	6013      	str	r3, [r2, #0]
 800528e:	687b      	ldr	r3, [r7, #4]
 8005290:	6ada      	ldr	r2, [r3, #44]	; 0x2c
 8005292:	4613      	mov	r3, r2
 8005294:	009b      	lsls	r3, r3, #2
 8005296:	4413      	add	r3, r2
 8005298:	009b      	lsls	r3, r3, #2
 800529a:	4a15      	ldr	r2, [pc, #84]	; (80052f0 <prvAddNewTaskToReadyList+0xcc>)
 800529c:	441a      	add	r2, r3
 800529e:	687b      	ldr	r3, [r7, #4]
 80052a0:	3304      	adds	r3, #4
 80052a2:	4619      	mov	r1, r3
 80052a4:	4610      	mov	r0, r2
 80052a6:	f7ff fe1c 	bl	8004ee2 <vListInsertEnd>

		portSETUP_TCB( pxNewTCB );
	}
	taskEXIT_CRITICAL();
 80052aa:	f000 fe5b 	bl	8005f64 <vPortExitCritical>

	if( xSchedulerRunning != pdFALSE )
 80052ae:	4b0d      	ldr	r3, [pc, #52]	; (80052e4 <prvAddNewTaskToReadyList+0xc0>)
 80052b0:	681b      	ldr	r3, [r3, #0]
 80052b2:	2b00      	cmp	r3, #0
 80052b4:	d00e      	beq.n	80052d4 <prvAddNewTaskToReadyList+0xb0>
	{
		/* If the created task is of a higher priority than the current task
		then it should run now. */
		if( pxCurrentTCB->uxPriority < pxNewTCB->uxPriority )
 80052b6:	4b0a      	ldr	r3, [pc, #40]	; (80052e0 <prvAddNewTaskToReadyList+0xbc>)
 80052b8:	681b      	ldr	r3, [r3, #0]
 80052ba:	6ada      	ldr	r2, [r3, #44]	; 0x2c
 80052bc:	687b      	ldr	r3, [r7, #4]
 80052be:	6adb      	ldr	r3, [r3, #44]	; 0x2c
 80052c0:	429a      	cmp	r2, r3
 80052c2:	d207      	bcs.n	80052d4 <prvAddNewTaskToReadyList+0xb0>
		{
			taskYIELD_IF_USING_PREEMPTION();
 80052c4:	4b0b      	ldr	r3, [pc, #44]	; (80052f4 <prvAddNewTaskToReadyList+0xd0>)
 80052c6:	f04f 5280 	mov.w	r2, #268435456	; 0x10000000
 80052ca:	601a      	str	r2, [r3, #0]
 80052cc:	f3bf 8f4f 	dsb	sy
 80052d0:	f3bf 8f6f 	isb	sy
	}
	else
	{
		mtCOVERAGE_TEST_MARKER();
	}
}
 80052d4:	bf00      	nop
 80052d6:	3708      	adds	r7, #8
 80052d8:	46bd      	mov	sp, r7
 80052da:	bd80      	pop	{r7, pc}
 80052dc:	20000388 	.word	0x20000388
 80052e0:	20000288 	.word	0x20000288
 80052e4:	20000394 	.word	0x20000394
 80052e8:	200003a4 	.word	0x200003a4
 80052ec:	20000390 	.word	0x20000390
 80052f0:	2000028c 	.word	0x2000028c
 80052f4:	e000ed04 	.word	0xe000ed04

080052f8 <vTaskDelayUntil>:
/*-----------------------------------------------------------*/

#if ( INCLUDE_vTaskDelayUntil == 1 )

	void vTaskDelayUntil( TickType_t * const pxPreviousWakeTime, const TickType_t xTimeIncrement )
	{
 80052f8:	b580      	push	{r7, lr}
 80052fa:	b08a      	sub	sp, #40	; 0x28
 80052fc:	af00      	add	r7, sp, #0
 80052fe:	6078      	str	r0, [r7, #4]
 8005300:	6039      	str	r1, [r7, #0]
	TickType_t xTimeToWake;
	BaseType_t xAlreadyYielded, xShouldDelay = pdFALSE;
 8005302:	2300      	movs	r3, #0
 8005304:	627b      	str	r3, [r7, #36]	; 0x24

		configASSERT( pxPreviousWakeTime );
 8005306:	687b      	ldr	r3, [r7, #4]
 8005308:	2b00      	cmp	r3, #0
 800530a:	d109      	bne.n	8005320 <vTaskDelayUntil+0x28>
 800530c:	f04f 0350 	mov.w	r3, #80	; 0x50
 8005310:	f383 8811 	msr	BASEPRI, r3
 8005314:	f3bf 8f6f 	isb	sy
 8005318:	f3bf 8f4f 	dsb	sy
 800531c:	617b      	str	r3, [r7, #20]
 800531e:	e7fe      	b.n	800531e <vTaskDelayUntil+0x26>
		configASSERT( ( xTimeIncrement > 0U ) );
 8005320:	683b      	ldr	r3, [r7, #0]
 8005322:	2b00      	cmp	r3, #0
 8005324:	d109      	bne.n	800533a <vTaskDelayUntil+0x42>
 8005326:	f04f 0350 	mov.w	r3, #80	; 0x50
 800532a:	f383 8811 	msr	BASEPRI, r3
 800532e:	f3bf 8f6f 	isb	sy
 8005332:	f3bf 8f4f 	dsb	sy
 8005336:	613b      	str	r3, [r7, #16]
 8005338:	e7fe      	b.n	8005338 <vTaskDelayUntil+0x40>
		configASSERT( uxSchedulerSuspended == 0 );
 800533a:	4b29      	ldr	r3, [pc, #164]	; (80053e0 <vTaskDelayUntil+0xe8>)
 800533c:	681b      	ldr	r3, [r3, #0]
 800533e:	2b00      	cmp	r3, #0
 8005340:	d009      	beq.n	8005356 <vTaskDelayUntil+0x5e>
 8005342:	f04f 0350 	mov.w	r3, #80	; 0x50
 8005346:	f383 8811 	msr	BASEPRI, r3
 800534a:	f3bf 8f6f 	isb	sy
 800534e:	f3bf 8f4f 	dsb	sy
 8005352:	60fb      	str	r3, [r7, #12]
 8005354:	e7fe      	b.n	8005354 <vTaskDelayUntil+0x5c>

		vTaskSuspendAll();
 8005356:	f000 f9e3 	bl	8005720 <vTaskSuspendAll>
		{
			/* Minor optimisation.  The tick count cannot change in this
			block. */
			const TickType_t xConstTickCount = xTickCount;
 800535a:	4b22      	ldr	r3, [pc, #136]	; (80053e4 <vTaskDelayUntil+0xec>)
 800535c:	681b      	ldr	r3, [r3, #0]
 800535e:	623b      	str	r3, [r7, #32]

			/* Generate the tick time at which the task wants to wake. */
			xTimeToWake = *pxPreviousWakeTime + xTimeIncrement;
 8005360:	687b      	ldr	r3, [r7, #4]
 8005362:	681b      	ldr	r3, [r3, #0]
 8005364:	683a      	ldr	r2, [r7, #0]
 8005366:	4413      	add	r3, r2
 8005368:	61fb      	str	r3, [r7, #28]

			if( xConstTickCount < *pxPreviousWakeTime )
 800536a:	687b      	ldr	r3, [r7, #4]
 800536c:	681b      	ldr	r3, [r3, #0]
 800536e:	6a3a      	ldr	r2, [r7, #32]
 8005370:	429a      	cmp	r2, r3
 8005372:	d20b      	bcs.n	800538c <vTaskDelayUntil+0x94>
				/* The tick count has overflowed since this function was
				lasted called.  In this case the only time we should ever
				actually delay is if the wake time has also	overflowed,
				and the wake time is greater than the tick time.  When this
				is the case it is as if neither time had overflowed. */
				if( ( xTimeToWake < *pxPreviousWakeTime ) && ( xTimeToWake > xConstTickCount ) )
 8005374:	687b      	ldr	r3, [r7, #4]
 8005376:	681b      	ldr	r3, [r3, #0]
 8005378:	69fa      	ldr	r2, [r7, #28]
 800537a:	429a      	cmp	r2, r3
 800537c:	d211      	bcs.n	80053a2 <vTaskDelayUntil+0xaa>
 800537e:	69fa      	ldr	r2, [r7, #28]
 8005380:	6a3b      	ldr	r3, [r7, #32]
 8005382:	429a      	cmp	r2, r3
 8005384:	d90d      	bls.n	80053a2 <vTaskDelayUntil+0xaa>
				{
					xShouldDelay = pdTRUE;
 8005386:	2301      	movs	r3, #1
 8005388:	627b      	str	r3, [r7, #36]	; 0x24
 800538a:	e00a      	b.n	80053a2 <vTaskDelayUntil+0xaa>
			else
			{
				/* The tick time has not overflowed.  In this case we will
				delay if either the wake time has overflowed, and/or the
				tick time is less than the wake time. */
				if( ( xTimeToWake < *pxPreviousWakeTime ) || ( xTimeToWake > xConstTickCount ) )
 800538c:	687b      	ldr	r3, [r7, #4]
 800538e:	681b      	ldr	r3, [r3, #0]
 8005390:	69fa      	ldr	r2, [r7, #28]
 8005392:	429a      	cmp	r2, r3
 8005394:	d303      	bcc.n	800539e <vTaskDelayUntil+0xa6>
 8005396:	69fa      	ldr	r2, [r7, #28]
 8005398:	6a3b      	ldr	r3, [r7, #32]
 800539a:	429a      	cmp	r2, r3
 800539c:	d901      	bls.n	80053a2 <vTaskDelayUntil+0xaa>
				{
					xShouldDelay = pdTRUE;
 800539e:	2301      	movs	r3, #1
 80053a0:	627b      	str	r3, [r7, #36]	; 0x24
					mtCOVERAGE_TEST_MARKER();
				}
			}

			/* Update the wake time ready for the next call. */
			*pxPreviousWakeTime = xTimeToWake;
 80053a2:	687b      	ldr	r3, [r7, #4]
 80053a4:	69fa      	ldr	r2, [r7, #28]
 80053a6:	601a      	str	r2, [r3, #0]

			if( xShouldDelay != pdFALSE )
 80053a8:	6a7b      	ldr	r3, [r7, #36]	; 0x24
 80053aa:	2b00      	cmp	r3, #0
 80053ac:	d006      	beq.n	80053bc <vTaskDelayUntil+0xc4>
			{
				traceTASK_DELAY_UNTIL( xTimeToWake );

				/* prvAddCurrentTaskToDelayedList() needs the block time, not
				the time to wake, so subtract the current tick count. */
				prvAddCurrentTaskToDelayedList( xTimeToWake - xConstTickCount, pdFALSE );
 80053ae:	69fa      	ldr	r2, [r7, #28]
 80053b0:	6a3b      	ldr	r3, [r7, #32]
 80053b2:	1ad3      	subs	r3, r2, r3
 80053b4:	2100      	movs	r1, #0
 80053b6:	4618      	mov	r0, r3
 80053b8:	f000 fc56 	bl	8005c68 <prvAddCurrentTaskToDelayedList>
			else
			{
				mtCOVERAGE_TEST_MARKER();
			}
		}
		xAlreadyYielded = xTaskResumeAll();
 80053bc:	f000 f9be 	bl	800573c <xTaskResumeAll>
 80053c0:	61b8      	str	r0, [r7, #24]

		/* Force a reschedule if xTaskResumeAll has not already done so, we may
		have put ourselves to sleep. */
		if( xAlreadyYielded == pdFALSE )
 80053c2:	69bb      	ldr	r3, [r7, #24]
 80053c4:	2b00      	cmp	r3, #0
 80053c6:	d107      	bne.n	80053d8 <vTaskDelayUntil+0xe0>
		{
			portYIELD_WITHIN_API();
 80053c8:	4b07      	ldr	r3, [pc, #28]	; (80053e8 <vTaskDelayUntil+0xf0>)
 80053ca:	f04f 5280 	mov.w	r2, #268435456	; 0x10000000
 80053ce:	601a      	str	r2, [r3, #0]
 80053d0:	f3bf 8f4f 	dsb	sy
 80053d4:	f3bf 8f6f 	isb	sy
		}
		else
		{
			mtCOVERAGE_TEST_MARKER();
		}
	}
 80053d8:	bf00      	nop
 80053da:	3728      	adds	r7, #40	; 0x28
 80053dc:	46bd      	mov	sp, r7
 80053de:	bd80      	pop	{r7, pc}
 80053e0:	200003b0 	.word	0x200003b0
 80053e4:	2000038c 	.word	0x2000038c
 80053e8:	e000ed04 	.word	0xe000ed04

080053ec <vTaskSuspend>:
/*-----------------------------------------------------------*/

#if ( INCLUDE_vTaskSuspend == 1 )

	void vTaskSuspend( TaskHandle_t xTaskToSuspend )
	{
 80053ec:	b580      	push	{r7, lr}
 80053ee:	b084      	sub	sp, #16
 80053f0:	af00      	add	r7, sp, #0
 80053f2:	6078      	str	r0, [r7, #4]
	TCB_t *pxTCB;

		taskENTER_CRITICAL();
 80053f4:	f000 fd88 	bl	8005f08 <vPortEnterCritical>
		{
			/* If null is passed in here then it is the running task that is
			being suspended. */
			pxTCB = prvGetTCBFromHandle( xTaskToSuspend );
 80053f8:	687b      	ldr	r3, [r7, #4]
 80053fa:	2b00      	cmp	r3, #0
 80053fc:	d102      	bne.n	8005404 <vTaskSuspend+0x18>
 80053fe:	4b3c      	ldr	r3, [pc, #240]	; (80054f0 <vTaskSuspend+0x104>)
 8005400:	681b      	ldr	r3, [r3, #0]
 8005402:	e000      	b.n	8005406 <vTaskSuspend+0x1a>
 8005404:	687b      	ldr	r3, [r7, #4]
 8005406:	60fb      	str	r3, [r7, #12]

			traceTASK_SUSPEND( pxTCB );

			/* Remove task from the ready/delayed list and place in the
			suspended list. */
			if( uxListRemove( &( pxTCB->xStateListItem ) ) == ( UBaseType_t ) 0 )
 8005408:	68fb      	ldr	r3, [r7, #12]
 800540a:	3304      	adds	r3, #4
 800540c:	4618      	mov	r0, r3
 800540e:	f7ff fdc3 	bl	8004f98 <uxListRemove>
 8005412:	4603      	mov	r3, r0
 8005414:	2b00      	cmp	r3, #0
 8005416:	d115      	bne.n	8005444 <vTaskSuspend+0x58>
			{
				taskRESET_READY_PRIORITY( pxTCB->uxPriority );
 8005418:	68fb      	ldr	r3, [r7, #12]
 800541a:	6ada      	ldr	r2, [r3, #44]	; 0x2c
 800541c:	4935      	ldr	r1, [pc, #212]	; (80054f4 <vTaskSuspend+0x108>)
 800541e:	4613      	mov	r3, r2
 8005420:	009b      	lsls	r3, r3, #2
 8005422:	4413      	add	r3, r2
 8005424:	009b      	lsls	r3, r3, #2
 8005426:	440b      	add	r3, r1
 8005428:	681b      	ldr	r3, [r3, #0]
 800542a:	2b00      	cmp	r3, #0
 800542c:	d10a      	bne.n	8005444 <vTaskSuspend+0x58>
 800542e:	68fb      	ldr	r3, [r7, #12]
 8005430:	6adb      	ldr	r3, [r3, #44]	; 0x2c
 8005432:	2201      	movs	r2, #1
 8005434:	fa02 f303 	lsl.w	r3, r2, r3
 8005438:	43da      	mvns	r2, r3
 800543a:	4b2f      	ldr	r3, [pc, #188]	; (80054f8 <vTaskSuspend+0x10c>)
 800543c:	681b      	ldr	r3, [r3, #0]
 800543e:	4013      	ands	r3, r2
 8005440:	4a2d      	ldr	r2, [pc, #180]	; (80054f8 <vTaskSuspend+0x10c>)
 8005442:	6013      	str	r3, [r2, #0]
			{
				mtCOVERAGE_TEST_MARKER();
			}

			/* Is the task waiting on an event also? */
			if( listLIST_ITEM_CONTAINER( &( pxTCB->xEventListItem ) ) != NULL )
 8005444:	68fb      	ldr	r3, [r7, #12]
 8005446:	6a9b      	ldr	r3, [r3, #40]	; 0x28
 8005448:	2b00      	cmp	r3, #0
 800544a:	d004      	beq.n	8005456 <vTaskSuspend+0x6a>
			{
				( void ) uxListRemove( &( pxTCB->xEventListItem ) );
 800544c:	68fb      	ldr	r3, [r7, #12]
 800544e:	3318      	adds	r3, #24
 8005450:	4618      	mov	r0, r3
 8005452:	f7ff fda1 	bl	8004f98 <uxListRemove>
			else
			{
				mtCOVERAGE_TEST_MARKER();
			}

			vListInsertEnd( &xSuspendedTaskList, &( pxTCB->xStateListItem ) );
 8005456:	68fb      	ldr	r3, [r7, #12]
 8005458:	3304      	adds	r3, #4
 800545a:	4619      	mov	r1, r3
 800545c:	4827      	ldr	r0, [pc, #156]	; (80054fc <vTaskSuspend+0x110>)
 800545e:	f7ff fd40 	bl	8004ee2 <vListInsertEnd>

			#if( configUSE_TASK_NOTIFICATIONS == 1 )
			{
				if( pxTCB->ucNotifyState == taskWAITING_NOTIFICATION )
 8005462:	68fb      	ldr	r3, [r7, #12]
 8005464:	f893 3050 	ldrb.w	r3, [r3, #80]	; 0x50
 8005468:	b2db      	uxtb	r3, r3
 800546a:	2b01      	cmp	r3, #1
 800546c:	d103      	bne.n	8005476 <vTaskSuspend+0x8a>
				{
					/* The task was blocked to wait for a notification, but is
					now suspended, so no notification was received. */
					pxTCB->ucNotifyState = taskNOT_WAITING_NOTIFICATION;
 800546e:	68fb      	ldr	r3, [r7, #12]
 8005470:	2200      	movs	r2, #0
 8005472:	f883 2050 	strb.w	r2, [r3, #80]	; 0x50
				}
			}
			#endif
		}
		taskEXIT_CRITICAL();
 8005476:	f000 fd75 	bl	8005f64 <vPortExitCritical>

		if( xSchedulerRunning != pdFALSE )
 800547a:	4b21      	ldr	r3, [pc, #132]	; (8005500 <vTaskSuspend+0x114>)
 800547c:	681b      	ldr	r3, [r3, #0]
 800547e:	2b00      	cmp	r3, #0
 8005480:	d005      	beq.n	800548e <vTaskSuspend+0xa2>
		{
			/* Reset the next expected unblock time in case it referred to the
			task that is now in the Suspended state. */
			taskENTER_CRITICAL();
 8005482:	f000 fd41 	bl	8005f08 <vPortEnterCritical>
			{
				prvResetNextTaskUnblockTime();
 8005486:	f000 fbcb 	bl	8005c20 <prvResetNextTaskUnblockTime>
			}
			taskEXIT_CRITICAL();
 800548a:	f000 fd6b 	bl	8005f64 <vPortExitCritical>
		else
		{
			mtCOVERAGE_TEST_MARKER();
		}

		if( pxTCB == pxCurrentTCB )
 800548e:	4b18      	ldr	r3, [pc, #96]	; (80054f0 <vTaskSuspend+0x104>)
 8005490:	681b      	ldr	r3, [r3, #0]
 8005492:	68fa      	ldr	r2, [r7, #12]
 8005494:	429a      	cmp	r2, r3
 8005496:	d126      	bne.n	80054e6 <vTaskSuspend+0xfa>
		{
			if( xSchedulerRunning != pdFALSE )
 8005498:	4b19      	ldr	r3, [pc, #100]	; (8005500 <vTaskSuspend+0x114>)
 800549a:	681b      	ldr	r3, [r3, #0]
 800549c:	2b00      	cmp	r3, #0
 800549e:	d016      	beq.n	80054ce <vTaskSuspend+0xe2>
			{
				/* The current task has just been suspended. */
				configASSERT( uxSchedulerSuspended == 0 );
 80054a0:	4b18      	ldr	r3, [pc, #96]	; (8005504 <vTaskSuspend+0x118>)
 80054a2:	681b      	ldr	r3, [r3, #0]
 80054a4:	2b00      	cmp	r3, #0
 80054a6:	d009      	beq.n	80054bc <vTaskSuspend+0xd0>
 80054a8:	f04f 0350 	mov.w	r3, #80	; 0x50
 80054ac:	f383 8811 	msr	BASEPRI, r3
 80054b0:	f3bf 8f6f 	isb	sy
 80054b4:	f3bf 8f4f 	dsb	sy
 80054b8:	60bb      	str	r3, [r7, #8]
 80054ba:	e7fe      	b.n	80054ba <vTaskSuspend+0xce>
				portYIELD_WITHIN_API();
 80054bc:	4b12      	ldr	r3, [pc, #72]	; (8005508 <vTaskSuspend+0x11c>)
 80054be:	f04f 5280 	mov.w	r2, #268435456	; 0x10000000
 80054c2:	601a      	str	r2, [r3, #0]
 80054c4:	f3bf 8f4f 	dsb	sy
 80054c8:	f3bf 8f6f 	isb	sy
		}
		else
		{
			mtCOVERAGE_TEST_MARKER();
		}
	}
 80054cc:	e00b      	b.n	80054e6 <vTaskSuspend+0xfa>
				if( listCURRENT_LIST_LENGTH( &xSuspendedTaskList ) == uxCurrentNumberOfTasks )
 80054ce:	4b0b      	ldr	r3, [pc, #44]	; (80054fc <vTaskSuspend+0x110>)
 80054d0:	681a      	ldr	r2, [r3, #0]
 80054d2:	4b0e      	ldr	r3, [pc, #56]	; (800550c <vTaskSuspend+0x120>)
 80054d4:	681b      	ldr	r3, [r3, #0]
 80054d6:	429a      	cmp	r2, r3
 80054d8:	d103      	bne.n	80054e2 <vTaskSuspend+0xf6>
					pxCurrentTCB = NULL;
 80054da:	4b05      	ldr	r3, [pc, #20]	; (80054f0 <vTaskSuspend+0x104>)
 80054dc:	2200      	movs	r2, #0
 80054de:	601a      	str	r2, [r3, #0]
	}
 80054e0:	e001      	b.n	80054e6 <vTaskSuspend+0xfa>
					vTaskSwitchContext();
 80054e2:	f000 fa91 	bl	8005a08 <vTaskSwitchContext>
	}
 80054e6:	bf00      	nop
 80054e8:	3710      	adds	r7, #16
 80054ea:	46bd      	mov	sp, r7
 80054ec:	bd80      	pop	{r7, pc}
 80054ee:	bf00      	nop
 80054f0:	20000288 	.word	0x20000288
 80054f4:	2000028c 	.word	0x2000028c
 80054f8:	20000390 	.word	0x20000390
 80054fc:	20000374 	.word	0x20000374
 8005500:	20000394 	.word	0x20000394
 8005504:	200003b0 	.word	0x200003b0
 8005508:	e000ed04 	.word	0xe000ed04
 800550c:	20000388 	.word	0x20000388

08005510 <prvTaskIsTaskSuspended>:
/*-----------------------------------------------------------*/

#if ( INCLUDE_vTaskSuspend == 1 )

	static BaseType_t prvTaskIsTaskSuspended( const TaskHandle_t xTask )
	{
 8005510:	b480      	push	{r7}
 8005512:	b087      	sub	sp, #28
 8005514:	af00      	add	r7, sp, #0
 8005516:	6078      	str	r0, [r7, #4]
	BaseType_t xReturn = pdFALSE;
 8005518:	2300      	movs	r3, #0
 800551a:	617b      	str	r3, [r7, #20]
	const TCB_t * const pxTCB = ( TCB_t * ) xTask;
 800551c:	687b      	ldr	r3, [r7, #4]
 800551e:	613b      	str	r3, [r7, #16]

		/* Accesses xPendingReadyList so must be called from a critical
		section. */

		/* It does not make sense to check if the calling task is suspended. */
		configASSERT( xTask );
 8005520:	687b      	ldr	r3, [r7, #4]
 8005522:	2b00      	cmp	r3, #0
 8005524:	d109      	bne.n	800553a <prvTaskIsTaskSuspended+0x2a>
 8005526:	f04f 0350 	mov.w	r3, #80	; 0x50
 800552a:	f383 8811 	msr	BASEPRI, r3
 800552e:	f3bf 8f6f 	isb	sy
 8005532:	f3bf 8f4f 	dsb	sy
 8005536:	60fb      	str	r3, [r7, #12]
 8005538:	e7fe      	b.n	8005538 <prvTaskIsTaskSuspended+0x28>

		/* Is the task being resumed actually in the suspended list? */
		if( listIS_CONTAINED_WITHIN( &xSuspendedTaskList, &( pxTCB->xStateListItem ) ) != pdFALSE )
 800553a:	693b      	ldr	r3, [r7, #16]
 800553c:	695b      	ldr	r3, [r3, #20]
 800553e:	4a0f      	ldr	r2, [pc, #60]	; (800557c <prvTaskIsTaskSuspended+0x6c>)
 8005540:	4293      	cmp	r3, r2
 8005542:	d101      	bne.n	8005548 <prvTaskIsTaskSuspended+0x38>
 8005544:	2301      	movs	r3, #1
 8005546:	e000      	b.n	800554a <prvTaskIsTaskSuspended+0x3a>
 8005548:	2300      	movs	r3, #0
 800554a:	2b00      	cmp	r3, #0
 800554c:	d00f      	beq.n	800556e <prvTaskIsTaskSuspended+0x5e>
		{
			/* Has the task already been resumed from within an ISR? */
			if( listIS_CONTAINED_WITHIN( &xPendingReadyList, &( pxTCB->xEventListItem ) ) == pdFALSE )
 800554e:	693b      	ldr	r3, [r7, #16]
 8005550:	6a9b      	ldr	r3, [r3, #40]	; 0x28
 8005552:	4a0b      	ldr	r2, [pc, #44]	; (8005580 <prvTaskIsTaskSuspended+0x70>)
 8005554:	4293      	cmp	r3, r2
 8005556:	d00a      	beq.n	800556e <prvTaskIsTaskSuspended+0x5e>
			{
				/* Is it in the suspended list because it is in the	Suspended
				state, or because is is blocked with no timeout? */
				if( listIS_CONTAINED_WITHIN( NULL, &( pxTCB->xEventListItem ) ) != pdFALSE ) /*lint !e961.  The cast is only redundant when NULL is used. */
 8005558:	693b      	ldr	r3, [r7, #16]
 800555a:	6a9b      	ldr	r3, [r3, #40]	; 0x28
 800555c:	2b00      	cmp	r3, #0
 800555e:	d101      	bne.n	8005564 <prvTaskIsTaskSuspended+0x54>
 8005560:	2301      	movs	r3, #1
 8005562:	e000      	b.n	8005566 <prvTaskIsTaskSuspended+0x56>
 8005564:	2300      	movs	r3, #0
 8005566:	2b00      	cmp	r3, #0
 8005568:	d001      	beq.n	800556e <prvTaskIsTaskSuspended+0x5e>
				{
					xReturn = pdTRUE;
 800556a:	2301      	movs	r3, #1
 800556c:	617b      	str	r3, [r7, #20]
		else
		{
			mtCOVERAGE_TEST_MARKER();
		}

		return xReturn;
 800556e:	697b      	ldr	r3, [r7, #20]
	} /*lint !e818 xTask cannot be a pointer to const because it is a typedef. */
 8005570:	4618      	mov	r0, r3
 8005572:	371c      	adds	r7, #28
 8005574:	46bd      	mov	sp, r7
 8005576:	bc80      	pop	{r7}
 8005578:	4770      	bx	lr
 800557a:	bf00      	nop
 800557c:	20000374 	.word	0x20000374
 8005580:	20000348 	.word	0x20000348

08005584 <xTaskResumeFromISR>:
/*-----------------------------------------------------------*/

#if ( ( INCLUDE_xTaskResumeFromISR == 1 ) && ( INCLUDE_vTaskSuspend == 1 ) )

	BaseType_t xTaskResumeFromISR( TaskHandle_t xTaskToResume )
	{
 8005584:	b580      	push	{r7, lr}
 8005586:	b08a      	sub	sp, #40	; 0x28
 8005588:	af00      	add	r7, sp, #0
 800558a:	6078      	str	r0, [r7, #4]
	BaseType_t xYieldRequired = pdFALSE;
 800558c:	2300      	movs	r3, #0
 800558e:	627b      	str	r3, [r7, #36]	; 0x24
	TCB_t * const pxTCB = ( TCB_t * ) xTaskToResume;
 8005590:	687b      	ldr	r3, [r7, #4]
 8005592:	623b      	str	r3, [r7, #32]
	UBaseType_t uxSavedInterruptStatus;

		configASSERT( xTaskToResume );
 8005594:	687b      	ldr	r3, [r7, #4]
 8005596:	2b00      	cmp	r3, #0
 8005598:	d109      	bne.n	80055ae <xTaskResumeFromISR+0x2a>
 800559a:	f04f 0350 	mov.w	r3, #80	; 0x50
 800559e:	f383 8811 	msr	BASEPRI, r3
 80055a2:	f3bf 8f6f 	isb	sy
 80055a6:	f3bf 8f4f 	dsb	sy
 80055aa:	61bb      	str	r3, [r7, #24]
 80055ac:	e7fe      	b.n	80055ac <xTaskResumeFromISR+0x28>
		below the maximum system call interrupt priority.  FreeRTOS maintains a
		separate interrupt safe API to ensure interrupt entry is as fast and as
		simple as possible.  More information (albeit Cortex-M specific) is
		provided on the following link:
		http://www.freertos.org/RTOS-Cortex-M3-M4.html */
		portASSERT_IF_INTERRUPT_PRIORITY_INVALID();
 80055ae:	f000 fd65 	bl	800607c <vPortValidateInterruptPriority>

portFORCE_INLINE static uint32_t ulPortRaiseBASEPRI( void )
{
uint32_t ulOriginalBASEPRI, ulNewBASEPRI;

	__asm volatile
 80055b2:	f3ef 8211 	mrs	r2, BASEPRI
 80055b6:	f04f 0350 	mov.w	r3, #80	; 0x50
 80055ba:	f383 8811 	msr	BASEPRI, r3
 80055be:	f3bf 8f6f 	isb	sy
 80055c2:	f3bf 8f4f 	dsb	sy
 80055c6:	617a      	str	r2, [r7, #20]
 80055c8:	613b      	str	r3, [r7, #16]
		:"=r" (ulOriginalBASEPRI), "=r" (ulNewBASEPRI) : "i" ( configMAX_SYSCALL_INTERRUPT_PRIORITY ) : "memory"
	);

	/* This return will not be reached but is necessary to prevent compiler
	warnings. */
	return ulOriginalBASEPRI;
 80055ca:	697b      	ldr	r3, [r7, #20]

		uxSavedInterruptStatus = portSET_INTERRUPT_MASK_FROM_ISR();
 80055cc:	61fb      	str	r3, [r7, #28]
		{
			if( prvTaskIsTaskSuspended( pxTCB ) != pdFALSE )
 80055ce:	6a38      	ldr	r0, [r7, #32]
 80055d0:	f7ff ff9e 	bl	8005510 <prvTaskIsTaskSuspended>
 80055d4:	4603      	mov	r3, r0
 80055d6:	2b00      	cmp	r3, #0
 80055d8:	d02f      	beq.n	800563a <xTaskResumeFromISR+0xb6>
			{
				traceTASK_RESUME_FROM_ISR( pxTCB );

				/* Check the ready lists can be accessed. */
				if( uxSchedulerSuspended == ( UBaseType_t ) pdFALSE )
 80055da:	4b1d      	ldr	r3, [pc, #116]	; (8005650 <xTaskResumeFromISR+0xcc>)
 80055dc:	681b      	ldr	r3, [r3, #0]
 80055de:	2b00      	cmp	r3, #0
 80055e0:	d125      	bne.n	800562e <xTaskResumeFromISR+0xaa>
				{
					/* Ready lists can be accessed so move the task from the
					suspended list to the ready list directly. */
					if( pxTCB->uxPriority >= pxCurrentTCB->uxPriority )
 80055e2:	6a3b      	ldr	r3, [r7, #32]
 80055e4:	6ada      	ldr	r2, [r3, #44]	; 0x2c
 80055e6:	4b1b      	ldr	r3, [pc, #108]	; (8005654 <xTaskResumeFromISR+0xd0>)
 80055e8:	681b      	ldr	r3, [r3, #0]
 80055ea:	6adb      	ldr	r3, [r3, #44]	; 0x2c
 80055ec:	429a      	cmp	r2, r3
 80055ee:	d301      	bcc.n	80055f4 <xTaskResumeFromISR+0x70>
					{
						xYieldRequired = pdTRUE;
 80055f0:	2301      	movs	r3, #1
 80055f2:	627b      	str	r3, [r7, #36]	; 0x24
					else
					{
						mtCOVERAGE_TEST_MARKER();
					}

					( void ) uxListRemove( &( pxTCB->xStateListItem ) );
 80055f4:	6a3b      	ldr	r3, [r7, #32]
 80055f6:	3304      	adds	r3, #4
 80055f8:	4618      	mov	r0, r3
 80055fa:	f7ff fccd 	bl	8004f98 <uxListRemove>
					prvAddTaskToReadyList( pxTCB );
 80055fe:	6a3b      	ldr	r3, [r7, #32]
 8005600:	6adb      	ldr	r3, [r3, #44]	; 0x2c
 8005602:	2201      	movs	r2, #1
 8005604:	409a      	lsls	r2, r3
 8005606:	4b14      	ldr	r3, [pc, #80]	; (8005658 <xTaskResumeFromISR+0xd4>)
 8005608:	681b      	ldr	r3, [r3, #0]
 800560a:	4313      	orrs	r3, r2
 800560c:	4a12      	ldr	r2, [pc, #72]	; (8005658 <xTaskResumeFromISR+0xd4>)
 800560e:	6013      	str	r3, [r2, #0]
 8005610:	6a3b      	ldr	r3, [r7, #32]
 8005612:	6ada      	ldr	r2, [r3, #44]	; 0x2c
 8005614:	4613      	mov	r3, r2
 8005616:	009b      	lsls	r3, r3, #2
 8005618:	4413      	add	r3, r2
 800561a:	009b      	lsls	r3, r3, #2
 800561c:	4a0f      	ldr	r2, [pc, #60]	; (800565c <xTaskResumeFromISR+0xd8>)
 800561e:	441a      	add	r2, r3
 8005620:	6a3b      	ldr	r3, [r7, #32]
 8005622:	3304      	adds	r3, #4
 8005624:	4619      	mov	r1, r3
 8005626:	4610      	mov	r0, r2
 8005628:	f7ff fc5b 	bl	8004ee2 <vListInsertEnd>
 800562c:	e005      	b.n	800563a <xTaskResumeFromISR+0xb6>
				else
				{
					/* The delayed or ready lists cannot be accessed so the task
					is held in the pending ready list until the scheduler is
					unsuspended. */
					vListInsertEnd( &( xPendingReadyList ), &( pxTCB->xEventListItem ) );
 800562e:	6a3b      	ldr	r3, [r7, #32]
 8005630:	3318      	adds	r3, #24
 8005632:	4619      	mov	r1, r3
 8005634:	480a      	ldr	r0, [pc, #40]	; (8005660 <xTaskResumeFromISR+0xdc>)
 8005636:	f7ff fc54 	bl	8004ee2 <vListInsertEnd>
 800563a:	69fb      	ldr	r3, [r7, #28]
 800563c:	60fb      	str	r3, [r7, #12]
}
/*-----------------------------------------------------------*/

portFORCE_INLINE static void vPortSetBASEPRI( uint32_t ulNewMaskValue )
{
	__asm volatile
 800563e:	68fb      	ldr	r3, [r7, #12]
 8005640:	f383 8811 	msr	BASEPRI, r3
				mtCOVERAGE_TEST_MARKER();
			}
		}
		portCLEAR_INTERRUPT_MASK_FROM_ISR( uxSavedInterruptStatus );

		return xYieldRequired;
 8005644:	6a7b      	ldr	r3, [r7, #36]	; 0x24
	}
 8005646:	4618      	mov	r0, r3
 8005648:	3728      	adds	r7, #40	; 0x28
 800564a:	46bd      	mov	sp, r7
 800564c:	bd80      	pop	{r7, pc}
 800564e:	bf00      	nop
 8005650:	200003b0 	.word	0x200003b0
 8005654:	20000288 	.word	0x20000288
 8005658:	20000390 	.word	0x20000390
 800565c:	2000028c 	.word	0x2000028c
 8005660:	20000348 	.word	0x20000348

08005664 <vTaskStartScheduler>:

#endif /* ( ( INCLUDE_xTaskResumeFromISR == 1 ) && ( INCLUDE_vTaskSuspend == 1 ) ) */
/*-----------------------------------------------------------*/

void vTaskStartScheduler( void )
{
 8005664:	b580      	push	{r7, lr}
 8005666:	b08a      	sub	sp, #40	; 0x28
 8005668:	af04      	add	r7, sp, #16
BaseType_t xReturn;

	/* Add the idle task at the lowest priority. */
	#if( configSUPPORT_STATIC_ALLOCATION == 1 )
	{
		StaticTask_t *pxIdleTaskTCBBuffer = NULL;
 800566a:	2300      	movs	r3, #0
 800566c:	60bb      	str	r3, [r7, #8]
		StackType_t *pxIdleTaskStackBuffer = NULL;
 800566e:	2300      	movs	r3, #0
 8005670:	607b      	str	r3, [r7, #4]
		uint32_t ulIdleTaskStackSize;

		/* The Idle task is created using user provided RAM - obtain the
		address of the RAM then create the idle task. */
		vApplicationGetIdleTaskMemory( &pxIdleTaskTCBBuffer, &pxIdleTaskStackBuffer, &ulIdleTaskStackSize );
 8005672:	463a      	mov	r2, r7
 8005674:	1d39      	adds	r1, r7, #4
 8005676:	f107 0308 	add.w	r3, r7, #8
 800567a:	4618      	mov	r0, r3
 800567c:	f7fa fd68 	bl	8000150 <vApplicationGetIdleTaskMemory>
		xIdleTaskHandle = xTaskCreateStatic(	prvIdleTask,
 8005680:	6839      	ldr	r1, [r7, #0]
 8005682:	687b      	ldr	r3, [r7, #4]
 8005684:	68ba      	ldr	r2, [r7, #8]
 8005686:	9202      	str	r2, [sp, #8]
 8005688:	9301      	str	r3, [sp, #4]
 800568a:	2300      	movs	r3, #0
 800568c:	9300      	str	r3, [sp, #0]
 800568e:	2300      	movs	r3, #0
 8005690:	460a      	mov	r2, r1
 8005692:	491d      	ldr	r1, [pc, #116]	; (8005708 <vTaskStartScheduler+0xa4>)
 8005694:	481d      	ldr	r0, [pc, #116]	; (800570c <vTaskStartScheduler+0xa8>)
 8005696:	f7ff fca8 	bl	8004fea <xTaskCreateStatic>
 800569a:	4602      	mov	r2, r0
 800569c:	4b1c      	ldr	r3, [pc, #112]	; (8005710 <vTaskStartScheduler+0xac>)
 800569e:	601a      	str	r2, [r3, #0]
												( void * ) NULL, /*lint !e961.  The cast is not redundant for all compilers. */
												( tskIDLE_PRIORITY | portPRIVILEGE_BIT ),
												pxIdleTaskStackBuffer,
												pxIdleTaskTCBBuffer ); /*lint !e961 MISRA exception, justified as it is not a redundant explicit cast to all supported compilers. */

		if( xIdleTaskHandle != NULL )
 80056a0:	4b1b      	ldr	r3, [pc, #108]	; (8005710 <vTaskStartScheduler+0xac>)
 80056a2:	681b      	ldr	r3, [r3, #0]
 80056a4:	2b00      	cmp	r3, #0
 80056a6:	d002      	beq.n	80056ae <vTaskStartScheduler+0x4a>
		{
			xReturn = pdPASS;
 80056a8:	2301      	movs	r3, #1
 80056aa:	617b      	str	r3, [r7, #20]
 80056ac:	e001      	b.n	80056b2 <vTaskStartScheduler+0x4e>
		}
		else
		{
			xReturn = pdFAIL;
 80056ae:	2300      	movs	r3, #0
 80056b0:	617b      	str	r3, [r7, #20]
			mtCOVERAGE_TEST_MARKER();
		}
	}
	#endif /* configUSE_TIMERS */

	if( xReturn == pdPASS )
 80056b2:	697b      	ldr	r3, [r7, #20]
 80056b4:	2b01      	cmp	r3, #1
 80056b6:	d115      	bne.n	80056e4 <vTaskStartScheduler+0x80>
	__asm volatile
 80056b8:	f04f 0350 	mov.w	r3, #80	; 0x50
 80056bc:	f383 8811 	msr	BASEPRI, r3
 80056c0:	f3bf 8f6f 	isb	sy
 80056c4:	f3bf 8f4f 	dsb	sy
 80056c8:	613b      	str	r3, [r7, #16]
			structure specific to the task that will run first. */
			_impure_ptr = &( pxCurrentTCB->xNewLib_reent );
		}
		#endif /* configUSE_NEWLIB_REENTRANT */

		xNextTaskUnblockTime = portMAX_DELAY;
 80056ca:	4b12      	ldr	r3, [pc, #72]	; (8005714 <vTaskStartScheduler+0xb0>)
 80056cc:	f04f 32ff 	mov.w	r2, #4294967295
 80056d0:	601a      	str	r2, [r3, #0]
		xSchedulerRunning = pdTRUE;
 80056d2:	4b11      	ldr	r3, [pc, #68]	; (8005718 <vTaskStartScheduler+0xb4>)
 80056d4:	2201      	movs	r2, #1
 80056d6:	601a      	str	r2, [r3, #0]
		xTickCount = ( TickType_t ) 0U;
 80056d8:	4b10      	ldr	r3, [pc, #64]	; (800571c <vTaskStartScheduler+0xb8>)
 80056da:	2200      	movs	r2, #0
 80056dc:	601a      	str	r2, [r3, #0]
		FreeRTOSConfig.h file. */
		portCONFIGURE_TIMER_FOR_RUN_TIME_STATS();

		/* Setting up the timer tick is hardware specific and thus in the
		portable interface. */
		if( xPortStartScheduler() != pdFALSE )
 80056de:	f000 fba3 	bl	8005e28 <xPortStartScheduler>
	}

	/* Prevent compiler warnings if INCLUDE_xTaskGetIdleTaskHandle is set to 0,
	meaning xIdleTaskHandle is not used anywhere else. */
	( void ) xIdleTaskHandle;
}
 80056e2:	e00d      	b.n	8005700 <vTaskStartScheduler+0x9c>
		configASSERT( xReturn != errCOULD_NOT_ALLOCATE_REQUIRED_MEMORY );
 80056e4:	697b      	ldr	r3, [r7, #20]
 80056e6:	f1b3 3fff 	cmp.w	r3, #4294967295
 80056ea:	d109      	bne.n	8005700 <vTaskStartScheduler+0x9c>
 80056ec:	f04f 0350 	mov.w	r3, #80	; 0x50
 80056f0:	f383 8811 	msr	BASEPRI, r3
 80056f4:	f3bf 8f6f 	isb	sy
 80056f8:	f3bf 8f4f 	dsb	sy
 80056fc:	60fb      	str	r3, [r7, #12]
 80056fe:	e7fe      	b.n	80056fe <vTaskStartScheduler+0x9a>
}
 8005700:	bf00      	nop
 8005702:	3718      	adds	r7, #24
 8005704:	46bd      	mov	sp, r7
 8005706:	bd80      	pop	{r7, pc}
 8005708:	0800655c 	.word	0x0800655c
 800570c:	08005abd 	.word	0x08005abd
 8005710:	200003ac 	.word	0x200003ac
 8005714:	200003a8 	.word	0x200003a8
 8005718:	20000394 	.word	0x20000394
 800571c:	2000038c 	.word	0x2000038c

08005720 <vTaskSuspendAll>:
	vPortEndScheduler();
}
/*----------------------------------------------------------*/

void vTaskSuspendAll( void )
{
 8005720:	b480      	push	{r7}
 8005722:	af00      	add	r7, sp, #0
	/* A critical section is not required as the variable is of type
	BaseType_t.  Please read Richard Barry's reply in the following link to a
	post in the FreeRTOS support forum before reporting this as a bug! -
	http://goo.gl/wu4acr */
	++uxSchedulerSuspended;
 8005724:	4b04      	ldr	r3, [pc, #16]	; (8005738 <vTaskSuspendAll+0x18>)
 8005726:	681b      	ldr	r3, [r3, #0]
 8005728:	3301      	adds	r3, #1
 800572a:	4a03      	ldr	r2, [pc, #12]	; (8005738 <vTaskSuspendAll+0x18>)
 800572c:	6013      	str	r3, [r2, #0]
}
 800572e:	bf00      	nop
 8005730:	46bd      	mov	sp, r7
 8005732:	bc80      	pop	{r7}
 8005734:	4770      	bx	lr
 8005736:	bf00      	nop
 8005738:	200003b0 	.word	0x200003b0

0800573c <xTaskResumeAll>:

#endif /* configUSE_TICKLESS_IDLE */
/*----------------------------------------------------------*/

BaseType_t xTaskResumeAll( void )
{
 800573c:	b580      	push	{r7, lr}
 800573e:	b084      	sub	sp, #16
 8005740:	af00      	add	r7, sp, #0
TCB_t *pxTCB = NULL;
 8005742:	2300      	movs	r3, #0
 8005744:	60fb      	str	r3, [r7, #12]
BaseType_t xAlreadyYielded = pdFALSE;
 8005746:	2300      	movs	r3, #0
 8005748:	60bb      	str	r3, [r7, #8]

	/* If uxSchedulerSuspended is zero then this function does not match a
	previous call to vTaskSuspendAll(). */
	configASSERT( uxSchedulerSuspended );
 800574a:	4b41      	ldr	r3, [pc, #260]	; (8005850 <xTaskResumeAll+0x114>)
 800574c:	681b      	ldr	r3, [r3, #0]
 800574e:	2b00      	cmp	r3, #0
 8005750:	d109      	bne.n	8005766 <xTaskResumeAll+0x2a>
 8005752:	f04f 0350 	mov.w	r3, #80	; 0x50
 8005756:	f383 8811 	msr	BASEPRI, r3
 800575a:	f3bf 8f6f 	isb	sy
 800575e:	f3bf 8f4f 	dsb	sy
 8005762:	603b      	str	r3, [r7, #0]
 8005764:	e7fe      	b.n	8005764 <xTaskResumeAll+0x28>
	/* It is possible that an ISR caused a task to be removed from an event
	list while the scheduler was suspended.  If this was the case then the
	removed task will have been added to the xPendingReadyList.  Once the
	scheduler has been resumed it is safe to move all the pending ready
	tasks from this list into their appropriate ready list. */
	taskENTER_CRITICAL();
 8005766:	f000 fbcf 	bl	8005f08 <vPortEnterCritical>
	{
		--uxSchedulerSuspended;
 800576a:	4b39      	ldr	r3, [pc, #228]	; (8005850 <xTaskResumeAll+0x114>)
 800576c:	681b      	ldr	r3, [r3, #0]
 800576e:	3b01      	subs	r3, #1
 8005770:	4a37      	ldr	r2, [pc, #220]	; (8005850 <xTaskResumeAll+0x114>)
 8005772:	6013      	str	r3, [r2, #0]

		if( uxSchedulerSuspended == ( UBaseType_t ) pdFALSE )
 8005774:	4b36      	ldr	r3, [pc, #216]	; (8005850 <xTaskResumeAll+0x114>)
 8005776:	681b      	ldr	r3, [r3, #0]
 8005778:	2b00      	cmp	r3, #0
 800577a:	d161      	bne.n	8005840 <xTaskResumeAll+0x104>
		{
			if( uxCurrentNumberOfTasks > ( UBaseType_t ) 0U )
 800577c:	4b35      	ldr	r3, [pc, #212]	; (8005854 <xTaskResumeAll+0x118>)
 800577e:	681b      	ldr	r3, [r3, #0]
 8005780:	2b00      	cmp	r3, #0
 8005782:	d05d      	beq.n	8005840 <xTaskResumeAll+0x104>
			{
				/* Move any readied tasks from the pending list into the
				appropriate ready list. */
				while( listLIST_IS_EMPTY( &xPendingReadyList ) == pdFALSE )
 8005784:	e02e      	b.n	80057e4 <xTaskResumeAll+0xa8>
				{
					pxTCB = ( TCB_t * ) listGET_OWNER_OF_HEAD_ENTRY( ( &xPendingReadyList ) );
 8005786:	4b34      	ldr	r3, [pc, #208]	; (8005858 <xTaskResumeAll+0x11c>)
 8005788:	68db      	ldr	r3, [r3, #12]
 800578a:	68db      	ldr	r3, [r3, #12]
 800578c:	60fb      	str	r3, [r7, #12]
					( void ) uxListRemove( &( pxTCB->xEventListItem ) );
 800578e:	68fb      	ldr	r3, [r7, #12]
 8005790:	3318      	adds	r3, #24
 8005792:	4618      	mov	r0, r3
 8005794:	f7ff fc00 	bl	8004f98 <uxListRemove>
					( void ) uxListRemove( &( pxTCB->xStateListItem ) );
 8005798:	68fb      	ldr	r3, [r7, #12]
 800579a:	3304      	adds	r3, #4
 800579c:	4618      	mov	r0, r3
 800579e:	f7ff fbfb 	bl	8004f98 <uxListRemove>
					prvAddTaskToReadyList( pxTCB );
 80057a2:	68fb      	ldr	r3, [r7, #12]
 80057a4:	6adb      	ldr	r3, [r3, #44]	; 0x2c
 80057a6:	2201      	movs	r2, #1
 80057a8:	409a      	lsls	r2, r3
 80057aa:	4b2c      	ldr	r3, [pc, #176]	; (800585c <xTaskResumeAll+0x120>)
 80057ac:	681b      	ldr	r3, [r3, #0]
 80057ae:	4313      	orrs	r3, r2
 80057b0:	4a2a      	ldr	r2, [pc, #168]	; (800585c <xTaskResumeAll+0x120>)
 80057b2:	6013      	str	r3, [r2, #0]
 80057b4:	68fb      	ldr	r3, [r7, #12]
 80057b6:	6ada      	ldr	r2, [r3, #44]	; 0x2c
 80057b8:	4613      	mov	r3, r2
 80057ba:	009b      	lsls	r3, r3, #2
 80057bc:	4413      	add	r3, r2
 80057be:	009b      	lsls	r3, r3, #2
 80057c0:	4a27      	ldr	r2, [pc, #156]	; (8005860 <xTaskResumeAll+0x124>)
 80057c2:	441a      	add	r2, r3
 80057c4:	68fb      	ldr	r3, [r7, #12]
 80057c6:	3304      	adds	r3, #4
 80057c8:	4619      	mov	r1, r3
 80057ca:	4610      	mov	r0, r2
 80057cc:	f7ff fb89 	bl	8004ee2 <vListInsertEnd>

					/* If the moved task has a priority higher than the current
					task then a yield must be performed. */
					if( pxTCB->uxPriority >= pxCurrentTCB->uxPriority )
 80057d0:	68fb      	ldr	r3, [r7, #12]
 80057d2:	6ada      	ldr	r2, [r3, #44]	; 0x2c
 80057d4:	4b23      	ldr	r3, [pc, #140]	; (8005864 <xTaskResumeAll+0x128>)
 80057d6:	681b      	ldr	r3, [r3, #0]
 80057d8:	6adb      	ldr	r3, [r3, #44]	; 0x2c
 80057da:	429a      	cmp	r2, r3
 80057dc:	d302      	bcc.n	80057e4 <xTaskResumeAll+0xa8>
					{
						xYieldPending = pdTRUE;
 80057de:	4b22      	ldr	r3, [pc, #136]	; (8005868 <xTaskResumeAll+0x12c>)
 80057e0:	2201      	movs	r2, #1
 80057e2:	601a      	str	r2, [r3, #0]
				while( listLIST_IS_EMPTY( &xPendingReadyList ) == pdFALSE )
 80057e4:	4b1c      	ldr	r3, [pc, #112]	; (8005858 <xTaskResumeAll+0x11c>)
 80057e6:	681b      	ldr	r3, [r3, #0]
 80057e8:	2b00      	cmp	r3, #0
 80057ea:	d1cc      	bne.n	8005786 <xTaskResumeAll+0x4a>
					{
						mtCOVERAGE_TEST_MARKER();
					}
				}

				if( pxTCB != NULL )
 80057ec:	68fb      	ldr	r3, [r7, #12]
 80057ee:	2b00      	cmp	r3, #0
 80057f0:	d001      	beq.n	80057f6 <xTaskResumeAll+0xba>
					which may have prevented the next unblock time from being
					re-calculated, in which case re-calculate it now.  Mainly
					important for low power tickless implementations, where
					this can prevent an unnecessary exit from low power
					state. */
					prvResetNextTaskUnblockTime();
 80057f2:	f000 fa15 	bl	8005c20 <prvResetNextTaskUnblockTime>
				/* If any ticks occurred while the scheduler was suspended then
				they should be processed now.  This ensures the tick count does
				not	slip, and that any delayed tasks are resumed at the correct
				time. */
				{
					UBaseType_t uxPendedCounts = uxPendedTicks; /* Non-volatile copy. */
 80057f6:	4b1d      	ldr	r3, [pc, #116]	; (800586c <xTaskResumeAll+0x130>)
 80057f8:	681b      	ldr	r3, [r3, #0]
 80057fa:	607b      	str	r3, [r7, #4]

					if( uxPendedCounts > ( UBaseType_t ) 0U )
 80057fc:	687b      	ldr	r3, [r7, #4]
 80057fe:	2b00      	cmp	r3, #0
 8005800:	d010      	beq.n	8005824 <xTaskResumeAll+0xe8>
					{
						do
						{
							if( xTaskIncrementTick() != pdFALSE )
 8005802:	f000 f845 	bl	8005890 <xTaskIncrementTick>
 8005806:	4603      	mov	r3, r0
 8005808:	2b00      	cmp	r3, #0
 800580a:	d002      	beq.n	8005812 <xTaskResumeAll+0xd6>
							{
								xYieldPending = pdTRUE;
 800580c:	4b16      	ldr	r3, [pc, #88]	; (8005868 <xTaskResumeAll+0x12c>)
 800580e:	2201      	movs	r2, #1
 8005810:	601a      	str	r2, [r3, #0]
							}
							else
							{
								mtCOVERAGE_TEST_MARKER();
							}
							--uxPendedCounts;
 8005812:	687b      	ldr	r3, [r7, #4]
 8005814:	3b01      	subs	r3, #1
 8005816:	607b      	str	r3, [r7, #4]
						} while( uxPendedCounts > ( UBaseType_t ) 0U );
 8005818:	687b      	ldr	r3, [r7, #4]
 800581a:	2b00      	cmp	r3, #0
 800581c:	d1f1      	bne.n	8005802 <xTaskResumeAll+0xc6>

						uxPendedTicks = 0;
 800581e:	4b13      	ldr	r3, [pc, #76]	; (800586c <xTaskResumeAll+0x130>)
 8005820:	2200      	movs	r2, #0
 8005822:	601a      	str	r2, [r3, #0]
					{
						mtCOVERAGE_TEST_MARKER();
					}
				}

				if( xYieldPending != pdFALSE )
 8005824:	4b10      	ldr	r3, [pc, #64]	; (8005868 <xTaskResumeAll+0x12c>)
 8005826:	681b      	ldr	r3, [r3, #0]
 8005828:	2b00      	cmp	r3, #0
 800582a:	d009      	beq.n	8005840 <xTaskResumeAll+0x104>
				{
					#if( configUSE_PREEMPTION != 0 )
					{
						xAlreadyYielded = pdTRUE;
 800582c:	2301      	movs	r3, #1
 800582e:	60bb      	str	r3, [r7, #8]
					}
					#endif
					taskYIELD_IF_USING_PREEMPTION();
 8005830:	4b0f      	ldr	r3, [pc, #60]	; (8005870 <xTaskResumeAll+0x134>)
 8005832:	f04f 5280 	mov.w	r2, #268435456	; 0x10000000
 8005836:	601a      	str	r2, [r3, #0]
 8005838:	f3bf 8f4f 	dsb	sy
 800583c:	f3bf 8f6f 	isb	sy
		else
		{
			mtCOVERAGE_TEST_MARKER();
		}
	}
	taskEXIT_CRITICAL();
 8005840:	f000 fb90 	bl	8005f64 <vPortExitCritical>

	return xAlreadyYielded;
 8005844:	68bb      	ldr	r3, [r7, #8]
}
 8005846:	4618      	mov	r0, r3
 8005848:	3710      	adds	r7, #16
 800584a:	46bd      	mov	sp, r7
 800584c:	bd80      	pop	{r7, pc}
 800584e:	bf00      	nop
 8005850:	200003b0 	.word	0x200003b0
 8005854:	20000388 	.word	0x20000388
 8005858:	20000348 	.word	0x20000348
 800585c:	20000390 	.word	0x20000390
 8005860:	2000028c 	.word	0x2000028c
 8005864:	20000288 	.word	0x20000288
 8005868:	2000039c 	.word	0x2000039c
 800586c:	20000398 	.word	0x20000398
 8005870:	e000ed04 	.word	0xe000ed04

08005874 <xTaskGetTickCount>:
/*-----------------------------------------------------------*/

TickType_t xTaskGetTickCount( void )
{
 8005874:	b480      	push	{r7}
 8005876:	b083      	sub	sp, #12
 8005878:	af00      	add	r7, sp, #0
TickType_t xTicks;

	/* Critical section required if running on a 16 bit processor. */
	portTICK_TYPE_ENTER_CRITICAL();
	{
		xTicks = xTickCount;
 800587a:	4b04      	ldr	r3, [pc, #16]	; (800588c <xTaskGetTickCount+0x18>)
 800587c:	681b      	ldr	r3, [r3, #0]
 800587e:	607b      	str	r3, [r7, #4]
	}
	portTICK_TYPE_EXIT_CRITICAL();

	return xTicks;
 8005880:	687b      	ldr	r3, [r7, #4]
}
 8005882:	4618      	mov	r0, r3
 8005884:	370c      	adds	r7, #12
 8005886:	46bd      	mov	sp, r7
 8005888:	bc80      	pop	{r7}
 800588a:	4770      	bx	lr
 800588c:	2000038c 	.word	0x2000038c

08005890 <xTaskIncrementTick>:

#endif /* INCLUDE_xTaskAbortDelay */
/*----------------------------------------------------------*/

BaseType_t xTaskIncrementTick( void )
{
 8005890:	b580      	push	{r7, lr}
 8005892:	b086      	sub	sp, #24
 8005894:	af00      	add	r7, sp, #0
TCB_t * pxTCB;
TickType_t xItemValue;
BaseType_t xSwitchRequired = pdFALSE;
 8005896:	2300      	movs	r3, #0
 8005898:	617b      	str	r3, [r7, #20]

	/* Called by the portable layer each time a tick interrupt occurs.
	Increments the tick then checks to see if the new tick value will cause any
	tasks to be unblocked. */
	traceTASK_INCREMENT_TICK( xTickCount );
	if( uxSchedulerSuspended == ( UBaseType_t ) pdFALSE )
 800589a:	4b50      	ldr	r3, [pc, #320]	; (80059dc <xTaskIncrementTick+0x14c>)
 800589c:	681b      	ldr	r3, [r3, #0]
 800589e:	2b00      	cmp	r3, #0
 80058a0:	f040 808c 	bne.w	80059bc <xTaskIncrementTick+0x12c>
	{
		/* Minor optimisation.  The tick count cannot change in this
		block. */
		const TickType_t xConstTickCount = xTickCount + ( TickType_t ) 1;
 80058a4:	4b4e      	ldr	r3, [pc, #312]	; (80059e0 <xTaskIncrementTick+0x150>)
 80058a6:	681b      	ldr	r3, [r3, #0]
 80058a8:	3301      	adds	r3, #1
 80058aa:	613b      	str	r3, [r7, #16]

		/* Increment the RTOS tick, switching the delayed and overflowed
		delayed lists if it wraps to 0. */
		xTickCount = xConstTickCount;
 80058ac:	4a4c      	ldr	r2, [pc, #304]	; (80059e0 <xTaskIncrementTick+0x150>)
 80058ae:	693b      	ldr	r3, [r7, #16]
 80058b0:	6013      	str	r3, [r2, #0]

		if( xConstTickCount == ( TickType_t ) 0U ) /*lint !e774 'if' does not always evaluate to false as it is looking for an overflow. */
 80058b2:	693b      	ldr	r3, [r7, #16]
 80058b4:	2b00      	cmp	r3, #0
 80058b6:	d11f      	bne.n	80058f8 <xTaskIncrementTick+0x68>
		{
			taskSWITCH_DELAYED_LISTS();
 80058b8:	4b4a      	ldr	r3, [pc, #296]	; (80059e4 <xTaskIncrementTick+0x154>)
 80058ba:	681b      	ldr	r3, [r3, #0]
 80058bc:	681b      	ldr	r3, [r3, #0]
 80058be:	2b00      	cmp	r3, #0
 80058c0:	d009      	beq.n	80058d6 <xTaskIncrementTick+0x46>
 80058c2:	f04f 0350 	mov.w	r3, #80	; 0x50
 80058c6:	f383 8811 	msr	BASEPRI, r3
 80058ca:	f3bf 8f6f 	isb	sy
 80058ce:	f3bf 8f4f 	dsb	sy
 80058d2:	603b      	str	r3, [r7, #0]
 80058d4:	e7fe      	b.n	80058d4 <xTaskIncrementTick+0x44>
 80058d6:	4b43      	ldr	r3, [pc, #268]	; (80059e4 <xTaskIncrementTick+0x154>)
 80058d8:	681b      	ldr	r3, [r3, #0]
 80058da:	60fb      	str	r3, [r7, #12]
 80058dc:	4b42      	ldr	r3, [pc, #264]	; (80059e8 <xTaskIncrementTick+0x158>)
 80058de:	681b      	ldr	r3, [r3, #0]
 80058e0:	4a40      	ldr	r2, [pc, #256]	; (80059e4 <xTaskIncrementTick+0x154>)
 80058e2:	6013      	str	r3, [r2, #0]
 80058e4:	4a40      	ldr	r2, [pc, #256]	; (80059e8 <xTaskIncrementTick+0x158>)
 80058e6:	68fb      	ldr	r3, [r7, #12]
 80058e8:	6013      	str	r3, [r2, #0]
 80058ea:	4b40      	ldr	r3, [pc, #256]	; (80059ec <xTaskIncrementTick+0x15c>)
 80058ec:	681b      	ldr	r3, [r3, #0]
 80058ee:	3301      	adds	r3, #1
 80058f0:	4a3e      	ldr	r2, [pc, #248]	; (80059ec <xTaskIncrementTick+0x15c>)
 80058f2:	6013      	str	r3, [r2, #0]
 80058f4:	f000 f994 	bl	8005c20 <prvResetNextTaskUnblockTime>

		/* See if this tick has made a timeout expire.  Tasks are stored in
		the	queue in the order of their wake time - meaning once one task
		has been found whose block time has not expired there is no need to
		look any further down the list. */
		if( xConstTickCount >= xNextTaskUnblockTime )
 80058f8:	4b3d      	ldr	r3, [pc, #244]	; (80059f0 <xTaskIncrementTick+0x160>)
 80058fa:	681b      	ldr	r3, [r3, #0]
 80058fc:	693a      	ldr	r2, [r7, #16]
 80058fe:	429a      	cmp	r2, r3
 8005900:	d34d      	bcc.n	800599e <xTaskIncrementTick+0x10e>
		{
			for( ;; )
			{
				if( listLIST_IS_EMPTY( pxDelayedTaskList ) != pdFALSE )
 8005902:	4b38      	ldr	r3, [pc, #224]	; (80059e4 <xTaskIncrementTick+0x154>)
 8005904:	681b      	ldr	r3, [r3, #0]
 8005906:	681b      	ldr	r3, [r3, #0]
 8005908:	2b00      	cmp	r3, #0
 800590a:	d101      	bne.n	8005910 <xTaskIncrementTick+0x80>
 800590c:	2301      	movs	r3, #1
 800590e:	e000      	b.n	8005912 <xTaskIncrementTick+0x82>
 8005910:	2300      	movs	r3, #0
 8005912:	2b00      	cmp	r3, #0
 8005914:	d004      	beq.n	8005920 <xTaskIncrementTick+0x90>
					/* The delayed list is empty.  Set xNextTaskUnblockTime
					to the maximum possible value so it is extremely
					unlikely that the
					if( xTickCount >= xNextTaskUnblockTime ) test will pass
					next time through. */
					xNextTaskUnblockTime = portMAX_DELAY; /*lint !e961 MISRA exception as the casts are only redundant for some ports. */
 8005916:	4b36      	ldr	r3, [pc, #216]	; (80059f0 <xTaskIncrementTick+0x160>)
 8005918:	f04f 32ff 	mov.w	r2, #4294967295
 800591c:	601a      	str	r2, [r3, #0]
					break;
 800591e:	e03e      	b.n	800599e <xTaskIncrementTick+0x10e>
				{
					/* The delayed list is not empty, get the value of the
					item at the head of the delayed list.  This is the time
					at which the task at the head of the delayed list must
					be removed from the Blocked state. */
					pxTCB = ( TCB_t * ) listGET_OWNER_OF_HEAD_ENTRY( pxDelayedTaskList );
 8005920:	4b30      	ldr	r3, [pc, #192]	; (80059e4 <xTaskIncrementTick+0x154>)
 8005922:	681b      	ldr	r3, [r3, #0]
 8005924:	68db      	ldr	r3, [r3, #12]
 8005926:	68db      	ldr	r3, [r3, #12]
 8005928:	60bb      	str	r3, [r7, #8]
					xItemValue = listGET_LIST_ITEM_VALUE( &( pxTCB->xStateListItem ) );
 800592a:	68bb      	ldr	r3, [r7, #8]
 800592c:	685b      	ldr	r3, [r3, #4]
 800592e:	607b      	str	r3, [r7, #4]

					if( xConstTickCount < xItemValue )
 8005930:	693a      	ldr	r2, [r7, #16]
 8005932:	687b      	ldr	r3, [r7, #4]
 8005934:	429a      	cmp	r2, r3
 8005936:	d203      	bcs.n	8005940 <xTaskIncrementTick+0xb0>
						/* It is not time to unblock this item yet, but the
						item value is the time at which the task at the head
						of the blocked list must be removed from the Blocked
						state -	so record the item value in
						xNextTaskUnblockTime. */
						xNextTaskUnblockTime = xItemValue;
 8005938:	4a2d      	ldr	r2, [pc, #180]	; (80059f0 <xTaskIncrementTick+0x160>)
 800593a:	687b      	ldr	r3, [r7, #4]
 800593c:	6013      	str	r3, [r2, #0]
						break;
 800593e:	e02e      	b.n	800599e <xTaskIncrementTick+0x10e>
					{
						mtCOVERAGE_TEST_MARKER();
					}

					/* It is time to remove the item from the Blocked state. */
					( void ) uxListRemove( &( pxTCB->xStateListItem ) );
 8005940:	68bb      	ldr	r3, [r7, #8]
 8005942:	3304      	adds	r3, #4
 8005944:	4618      	mov	r0, r3
 8005946:	f7ff fb27 	bl	8004f98 <uxListRemove>

					/* Is the task waiting on an event also?  If so remove
					it from the event list. */
					if( listLIST_ITEM_CONTAINER( &( pxTCB->xEventListItem ) ) != NULL )
 800594a:	68bb      	ldr	r3, [r7, #8]
 800594c:	6a9b      	ldr	r3, [r3, #40]	; 0x28
 800594e:	2b00      	cmp	r3, #0
 8005950:	d004      	beq.n	800595c <xTaskIncrementTick+0xcc>
					{
						( void ) uxListRemove( &( pxTCB->xEventListItem ) );
 8005952:	68bb      	ldr	r3, [r7, #8]
 8005954:	3318      	adds	r3, #24
 8005956:	4618      	mov	r0, r3
 8005958:	f7ff fb1e 	bl	8004f98 <uxListRemove>
						mtCOVERAGE_TEST_MARKER();
					}

					/* Place the unblocked task into the appropriate ready
					list. */
					prvAddTaskToReadyList( pxTCB );
 800595c:	68bb      	ldr	r3, [r7, #8]
 800595e:	6adb      	ldr	r3, [r3, #44]	; 0x2c
 8005960:	2201      	movs	r2, #1
 8005962:	409a      	lsls	r2, r3
 8005964:	4b23      	ldr	r3, [pc, #140]	; (80059f4 <xTaskIncrementTick+0x164>)
 8005966:	681b      	ldr	r3, [r3, #0]
 8005968:	4313      	orrs	r3, r2
 800596a:	4a22      	ldr	r2, [pc, #136]	; (80059f4 <xTaskIncrementTick+0x164>)
 800596c:	6013      	str	r3, [r2, #0]
 800596e:	68bb      	ldr	r3, [r7, #8]
 8005970:	6ada      	ldr	r2, [r3, #44]	; 0x2c
 8005972:	4613      	mov	r3, r2
 8005974:	009b      	lsls	r3, r3, #2
 8005976:	4413      	add	r3, r2
 8005978:	009b      	lsls	r3, r3, #2
 800597a:	4a1f      	ldr	r2, [pc, #124]	; (80059f8 <xTaskIncrementTick+0x168>)
 800597c:	441a      	add	r2, r3
 800597e:	68bb      	ldr	r3, [r7, #8]
 8005980:	3304      	adds	r3, #4
 8005982:	4619      	mov	r1, r3
 8005984:	4610      	mov	r0, r2
 8005986:	f7ff faac 	bl	8004ee2 <vListInsertEnd>
					{
						/* Preemption is on, but a context switch should
						only be performed if the unblocked task has a
						priority that is equal to or higher than the
						currently executing task. */
						if( pxTCB->uxPriority >= pxCurrentTCB->uxPriority )
 800598a:	68bb      	ldr	r3, [r7, #8]
 800598c:	6ada      	ldr	r2, [r3, #44]	; 0x2c
 800598e:	4b1b      	ldr	r3, [pc, #108]	; (80059fc <xTaskIncrementTick+0x16c>)
 8005990:	681b      	ldr	r3, [r3, #0]
 8005992:	6adb      	ldr	r3, [r3, #44]	; 0x2c
 8005994:	429a      	cmp	r2, r3
 8005996:	d3b4      	bcc.n	8005902 <xTaskIncrementTick+0x72>
						{
							xSwitchRequired = pdTRUE;
 8005998:	2301      	movs	r3, #1
 800599a:	617b      	str	r3, [r7, #20]
				if( listLIST_IS_EMPTY( pxDelayedTaskList ) != pdFALSE )
 800599c:	e7b1      	b.n	8005902 <xTaskIncrementTick+0x72>
		/* Tasks of equal priority to the currently running task will share
		processing time (time slice) if preemption is on, and the application
		writer has not explicitly turned time slicing off. */
		#if ( ( configUSE_PREEMPTION == 1 ) && ( configUSE_TIME_SLICING == 1 ) )
		{
			if( listCURRENT_LIST_LENGTH( &( pxReadyTasksLists[ pxCurrentTCB->uxPriority ] ) ) > ( UBaseType_t ) 1 )
 800599e:	4b17      	ldr	r3, [pc, #92]	; (80059fc <xTaskIncrementTick+0x16c>)
 80059a0:	681b      	ldr	r3, [r3, #0]
 80059a2:	6ada      	ldr	r2, [r3, #44]	; 0x2c
 80059a4:	4914      	ldr	r1, [pc, #80]	; (80059f8 <xTaskIncrementTick+0x168>)
 80059a6:	4613      	mov	r3, r2
 80059a8:	009b      	lsls	r3, r3, #2
 80059aa:	4413      	add	r3, r2
 80059ac:	009b      	lsls	r3, r3, #2
 80059ae:	440b      	add	r3, r1
 80059b0:	681b      	ldr	r3, [r3, #0]
 80059b2:	2b01      	cmp	r3, #1
 80059b4:	d907      	bls.n	80059c6 <xTaskIncrementTick+0x136>
			{
				xSwitchRequired = pdTRUE;
 80059b6:	2301      	movs	r3, #1
 80059b8:	617b      	str	r3, [r7, #20]
 80059ba:	e004      	b.n	80059c6 <xTaskIncrementTick+0x136>
		}
		#endif /* configUSE_TICK_HOOK */
	}
	else
	{
		++uxPendedTicks;
 80059bc:	4b10      	ldr	r3, [pc, #64]	; (8005a00 <xTaskIncrementTick+0x170>)
 80059be:	681b      	ldr	r3, [r3, #0]
 80059c0:	3301      	adds	r3, #1
 80059c2:	4a0f      	ldr	r2, [pc, #60]	; (8005a00 <xTaskIncrementTick+0x170>)
 80059c4:	6013      	str	r3, [r2, #0]
		#endif
	}

	#if ( configUSE_PREEMPTION == 1 )
	{
		if( xYieldPending != pdFALSE )
 80059c6:	4b0f      	ldr	r3, [pc, #60]	; (8005a04 <xTaskIncrementTick+0x174>)
 80059c8:	681b      	ldr	r3, [r3, #0]
 80059ca:	2b00      	cmp	r3, #0
 80059cc:	d001      	beq.n	80059d2 <xTaskIncrementTick+0x142>
		{
			xSwitchRequired = pdTRUE;
 80059ce:	2301      	movs	r3, #1
 80059d0:	617b      	str	r3, [r7, #20]
			mtCOVERAGE_TEST_MARKER();
		}
	}
	#endif /* configUSE_PREEMPTION */

	return xSwitchRequired;
 80059d2:	697b      	ldr	r3, [r7, #20]
}
 80059d4:	4618      	mov	r0, r3
 80059d6:	3718      	adds	r7, #24
 80059d8:	46bd      	mov	sp, r7
 80059da:	bd80      	pop	{r7, pc}
 80059dc:	200003b0 	.word	0x200003b0
 80059e0:	2000038c 	.word	0x2000038c
 80059e4:	20000340 	.word	0x20000340
 80059e8:	20000344 	.word	0x20000344
 80059ec:	200003a0 	.word	0x200003a0
 80059f0:	200003a8 	.word	0x200003a8
 80059f4:	20000390 	.word	0x20000390
 80059f8:	2000028c 	.word	0x2000028c
 80059fc:	20000288 	.word	0x20000288
 8005a00:	20000398 	.word	0x20000398
 8005a04:	2000039c 	.word	0x2000039c

08005a08 <vTaskSwitchContext>:

#endif /* configUSE_APPLICATION_TASK_TAG */
/*-----------------------------------------------------------*/

void vTaskSwitchContext( void )
{
 8005a08:	b480      	push	{r7}
 8005a0a:	b087      	sub	sp, #28
 8005a0c:	af00      	add	r7, sp, #0
	if( uxSchedulerSuspended != ( UBaseType_t ) pdFALSE )
 8005a0e:	4b26      	ldr	r3, [pc, #152]	; (8005aa8 <vTaskSwitchContext+0xa0>)
 8005a10:	681b      	ldr	r3, [r3, #0]
 8005a12:	2b00      	cmp	r3, #0
 8005a14:	d003      	beq.n	8005a1e <vTaskSwitchContext+0x16>
	{
		/* The scheduler is currently suspended - do not allow a context
		switch. */
		xYieldPending = pdTRUE;
 8005a16:	4b25      	ldr	r3, [pc, #148]	; (8005aac <vTaskSwitchContext+0xa4>)
 8005a18:	2201      	movs	r2, #1
 8005a1a:	601a      	str	r2, [r3, #0]
			structure specific to this task. */
			_impure_ptr = &( pxCurrentTCB->xNewLib_reent );
		}
		#endif /* configUSE_NEWLIB_REENTRANT */
	}
}
 8005a1c:	e03e      	b.n	8005a9c <vTaskSwitchContext+0x94>
		xYieldPending = pdFALSE;
 8005a1e:	4b23      	ldr	r3, [pc, #140]	; (8005aac <vTaskSwitchContext+0xa4>)
 8005a20:	2200      	movs	r2, #0
 8005a22:	601a      	str	r2, [r3, #0]
		taskSELECT_HIGHEST_PRIORITY_TASK();
 8005a24:	4b22      	ldr	r3, [pc, #136]	; (8005ab0 <vTaskSwitchContext+0xa8>)
 8005a26:	681b      	ldr	r3, [r3, #0]
 8005a28:	60fb      	str	r3, [r7, #12]
		__asm volatile ( "clz %0, %1" : "=r" ( ucReturn ) : "r" ( ulBitmap ) : "memory" );
 8005a2a:	68fb      	ldr	r3, [r7, #12]
 8005a2c:	fab3 f383 	clz	r3, r3
 8005a30:	72fb      	strb	r3, [r7, #11]
		return ucReturn;
 8005a32:	7afb      	ldrb	r3, [r7, #11]
 8005a34:	f1c3 031f 	rsb	r3, r3, #31
 8005a38:	617b      	str	r3, [r7, #20]
 8005a3a:	491e      	ldr	r1, [pc, #120]	; (8005ab4 <vTaskSwitchContext+0xac>)
 8005a3c:	697a      	ldr	r2, [r7, #20]
 8005a3e:	4613      	mov	r3, r2
 8005a40:	009b      	lsls	r3, r3, #2
 8005a42:	4413      	add	r3, r2
 8005a44:	009b      	lsls	r3, r3, #2
 8005a46:	440b      	add	r3, r1
 8005a48:	681b      	ldr	r3, [r3, #0]
 8005a4a:	2b00      	cmp	r3, #0
 8005a4c:	d109      	bne.n	8005a62 <vTaskSwitchContext+0x5a>
	__asm volatile
 8005a4e:	f04f 0350 	mov.w	r3, #80	; 0x50
 8005a52:	f383 8811 	msr	BASEPRI, r3
 8005a56:	f3bf 8f6f 	isb	sy
 8005a5a:	f3bf 8f4f 	dsb	sy
 8005a5e:	607b      	str	r3, [r7, #4]
 8005a60:	e7fe      	b.n	8005a60 <vTaskSwitchContext+0x58>
 8005a62:	697a      	ldr	r2, [r7, #20]
 8005a64:	4613      	mov	r3, r2
 8005a66:	009b      	lsls	r3, r3, #2
 8005a68:	4413      	add	r3, r2
 8005a6a:	009b      	lsls	r3, r3, #2
 8005a6c:	4a11      	ldr	r2, [pc, #68]	; (8005ab4 <vTaskSwitchContext+0xac>)
 8005a6e:	4413      	add	r3, r2
 8005a70:	613b      	str	r3, [r7, #16]
 8005a72:	693b      	ldr	r3, [r7, #16]
 8005a74:	685b      	ldr	r3, [r3, #4]
 8005a76:	685a      	ldr	r2, [r3, #4]
 8005a78:	693b      	ldr	r3, [r7, #16]
 8005a7a:	605a      	str	r2, [r3, #4]
 8005a7c:	693b      	ldr	r3, [r7, #16]
 8005a7e:	685a      	ldr	r2, [r3, #4]
 8005a80:	693b      	ldr	r3, [r7, #16]
 8005a82:	3308      	adds	r3, #8
 8005a84:	429a      	cmp	r2, r3
 8005a86:	d104      	bne.n	8005a92 <vTaskSwitchContext+0x8a>
 8005a88:	693b      	ldr	r3, [r7, #16]
 8005a8a:	685b      	ldr	r3, [r3, #4]
 8005a8c:	685a      	ldr	r2, [r3, #4]
 8005a8e:	693b      	ldr	r3, [r7, #16]
 8005a90:	605a      	str	r2, [r3, #4]
 8005a92:	693b      	ldr	r3, [r7, #16]
 8005a94:	685b      	ldr	r3, [r3, #4]
 8005a96:	68db      	ldr	r3, [r3, #12]
 8005a98:	4a07      	ldr	r2, [pc, #28]	; (8005ab8 <vTaskSwitchContext+0xb0>)
 8005a9a:	6013      	str	r3, [r2, #0]
}
 8005a9c:	bf00      	nop
 8005a9e:	371c      	adds	r7, #28
 8005aa0:	46bd      	mov	sp, r7
 8005aa2:	bc80      	pop	{r7}
 8005aa4:	4770      	bx	lr
 8005aa6:	bf00      	nop
 8005aa8:	200003b0 	.word	0x200003b0
 8005aac:	2000039c 	.word	0x2000039c
 8005ab0:	20000390 	.word	0x20000390
 8005ab4:	2000028c 	.word	0x2000028c
 8005ab8:	20000288 	.word	0x20000288

08005abc <prvIdleTask>:
 *
 * void prvIdleTask( void *pvParameters );
 *
 */
static portTASK_FUNCTION( prvIdleTask, pvParameters )
{
 8005abc:	b580      	push	{r7, lr}
 8005abe:	b082      	sub	sp, #8
 8005ac0:	af00      	add	r7, sp, #0
 8005ac2:	6078      	str	r0, [r7, #4]

	for( ;; )
	{
		/* See if any tasks have deleted themselves - if so then the idle task
		is responsible for freeing the deleted task's TCB and stack. */
		prvCheckTasksWaitingTermination();
 8005ac4:	f000 f852 	bl	8005b6c <prvCheckTasksWaitingTermination>

			A critical region is not required here as we are just reading from
			the list, and an occasional incorrect value will not matter.  If
			the ready list at the idle priority contains more than one task
			then a task other than the idle task is ready to execute. */
			if( listCURRENT_LIST_LENGTH( &( pxReadyTasksLists[ tskIDLE_PRIORITY ] ) ) > ( UBaseType_t ) 1 )
 8005ac8:	4b06      	ldr	r3, [pc, #24]	; (8005ae4 <prvIdleTask+0x28>)
 8005aca:	681b      	ldr	r3, [r3, #0]
 8005acc:	2b01      	cmp	r3, #1
 8005ace:	d9f9      	bls.n	8005ac4 <prvIdleTask+0x8>
			{
				taskYIELD();
 8005ad0:	4b05      	ldr	r3, [pc, #20]	; (8005ae8 <prvIdleTask+0x2c>)
 8005ad2:	f04f 5280 	mov.w	r2, #268435456	; 0x10000000
 8005ad6:	601a      	str	r2, [r3, #0]
 8005ad8:	f3bf 8f4f 	dsb	sy
 8005adc:	f3bf 8f6f 	isb	sy
		prvCheckTasksWaitingTermination();
 8005ae0:	e7f0      	b.n	8005ac4 <prvIdleTask+0x8>
 8005ae2:	bf00      	nop
 8005ae4:	2000028c 	.word	0x2000028c
 8005ae8:	e000ed04 	.word	0xe000ed04

08005aec <prvInitialiseTaskLists>:

#endif /* portUSING_MPU_WRAPPERS */
/*-----------------------------------------------------------*/

static void prvInitialiseTaskLists( void )
{
 8005aec:	b580      	push	{r7, lr}
 8005aee:	b082      	sub	sp, #8
 8005af0:	af00      	add	r7, sp, #0
UBaseType_t uxPriority;

	for( uxPriority = ( UBaseType_t ) 0U; uxPriority < ( UBaseType_t ) configMAX_PRIORITIES; uxPriority++ )
 8005af2:	2300      	movs	r3, #0
 8005af4:	607b      	str	r3, [r7, #4]
 8005af6:	e00c      	b.n	8005b12 <prvInitialiseTaskLists+0x26>
	{
		vListInitialise( &( pxReadyTasksLists[ uxPriority ] ) );
 8005af8:	687a      	ldr	r2, [r7, #4]
 8005afa:	4613      	mov	r3, r2
 8005afc:	009b      	lsls	r3, r3, #2
 8005afe:	4413      	add	r3, r2
 8005b00:	009b      	lsls	r3, r3, #2
 8005b02:	4a12      	ldr	r2, [pc, #72]	; (8005b4c <prvInitialiseTaskLists+0x60>)
 8005b04:	4413      	add	r3, r2
 8005b06:	4618      	mov	r0, r3
 8005b08:	f7ff f9c0 	bl	8004e8c <vListInitialise>
	for( uxPriority = ( UBaseType_t ) 0U; uxPriority < ( UBaseType_t ) configMAX_PRIORITIES; uxPriority++ )
 8005b0c:	687b      	ldr	r3, [r7, #4]
 8005b0e:	3301      	adds	r3, #1
 8005b10:	607b      	str	r3, [r7, #4]
 8005b12:	687b      	ldr	r3, [r7, #4]
 8005b14:	2b06      	cmp	r3, #6
 8005b16:	d9ef      	bls.n	8005af8 <prvInitialiseTaskLists+0xc>
	}

	vListInitialise( &xDelayedTaskList1 );
 8005b18:	480d      	ldr	r0, [pc, #52]	; (8005b50 <prvInitialiseTaskLists+0x64>)
 8005b1a:	f7ff f9b7 	bl	8004e8c <vListInitialise>
	vListInitialise( &xDelayedTaskList2 );
 8005b1e:	480d      	ldr	r0, [pc, #52]	; (8005b54 <prvInitialiseTaskLists+0x68>)
 8005b20:	f7ff f9b4 	bl	8004e8c <vListInitialise>
	vListInitialise( &xPendingReadyList );
 8005b24:	480c      	ldr	r0, [pc, #48]	; (8005b58 <prvInitialiseTaskLists+0x6c>)
 8005b26:	f7ff f9b1 	bl	8004e8c <vListInitialise>

	#if ( INCLUDE_vTaskDelete == 1 )
	{
		vListInitialise( &xTasksWaitingTermination );
 8005b2a:	480c      	ldr	r0, [pc, #48]	; (8005b5c <prvInitialiseTaskLists+0x70>)
 8005b2c:	f7ff f9ae 	bl	8004e8c <vListInitialise>
	}
	#endif /* INCLUDE_vTaskDelete */

	#if ( INCLUDE_vTaskSuspend == 1 )
	{
		vListInitialise( &xSuspendedTaskList );
 8005b30:	480b      	ldr	r0, [pc, #44]	; (8005b60 <prvInitialiseTaskLists+0x74>)
 8005b32:	f7ff f9ab 	bl	8004e8c <vListInitialise>
	}
	#endif /* INCLUDE_vTaskSuspend */

	/* Start with pxDelayedTaskList using list1 and the pxOverflowDelayedTaskList
	using list2. */
	pxDelayedTaskList = &xDelayedTaskList1;
 8005b36:	4b0b      	ldr	r3, [pc, #44]	; (8005b64 <prvInitialiseTaskLists+0x78>)
 8005b38:	4a05      	ldr	r2, [pc, #20]	; (8005b50 <prvInitialiseTaskLists+0x64>)
 8005b3a:	601a      	str	r2, [r3, #0]
	pxOverflowDelayedTaskList = &xDelayedTaskList2;
 8005b3c:	4b0a      	ldr	r3, [pc, #40]	; (8005b68 <prvInitialiseTaskLists+0x7c>)
 8005b3e:	4a05      	ldr	r2, [pc, #20]	; (8005b54 <prvInitialiseTaskLists+0x68>)
 8005b40:	601a      	str	r2, [r3, #0]
}
 8005b42:	bf00      	nop
 8005b44:	3708      	adds	r7, #8
 8005b46:	46bd      	mov	sp, r7
 8005b48:	bd80      	pop	{r7, pc}
 8005b4a:	bf00      	nop
 8005b4c:	2000028c 	.word	0x2000028c
 8005b50:	20000318 	.word	0x20000318
 8005b54:	2000032c 	.word	0x2000032c
 8005b58:	20000348 	.word	0x20000348
 8005b5c:	2000035c 	.word	0x2000035c
 8005b60:	20000374 	.word	0x20000374
 8005b64:	20000340 	.word	0x20000340
 8005b68:	20000344 	.word	0x20000344

08005b6c <prvCheckTasksWaitingTermination>:
/*-----------------------------------------------------------*/

static void prvCheckTasksWaitingTermination( void )
{
 8005b6c:	b580      	push	{r7, lr}
 8005b6e:	b082      	sub	sp, #8
 8005b70:	af00      	add	r7, sp, #0
	{
		TCB_t *pxTCB;

		/* uxDeletedTasksWaitingCleanUp is used to prevent vTaskSuspendAll()
		being called too often in the idle task. */
		while( uxDeletedTasksWaitingCleanUp > ( UBaseType_t ) 0U )
 8005b72:	e019      	b.n	8005ba8 <prvCheckTasksWaitingTermination+0x3c>
		{
			taskENTER_CRITICAL();
 8005b74:	f000 f9c8 	bl	8005f08 <vPortEnterCritical>
			{
				pxTCB = ( TCB_t * ) listGET_OWNER_OF_HEAD_ENTRY( ( &xTasksWaitingTermination ) );
 8005b78:	4b0f      	ldr	r3, [pc, #60]	; (8005bb8 <prvCheckTasksWaitingTermination+0x4c>)
 8005b7a:	68db      	ldr	r3, [r3, #12]
 8005b7c:	68db      	ldr	r3, [r3, #12]
 8005b7e:	607b      	str	r3, [r7, #4]
				( void ) uxListRemove( &( pxTCB->xStateListItem ) );
 8005b80:	687b      	ldr	r3, [r7, #4]
 8005b82:	3304      	adds	r3, #4
 8005b84:	4618      	mov	r0, r3
 8005b86:	f7ff fa07 	bl	8004f98 <uxListRemove>
				--uxCurrentNumberOfTasks;
 8005b8a:	4b0c      	ldr	r3, [pc, #48]	; (8005bbc <prvCheckTasksWaitingTermination+0x50>)
 8005b8c:	681b      	ldr	r3, [r3, #0]
 8005b8e:	3b01      	subs	r3, #1
 8005b90:	4a0a      	ldr	r2, [pc, #40]	; (8005bbc <prvCheckTasksWaitingTermination+0x50>)
 8005b92:	6013      	str	r3, [r2, #0]
				--uxDeletedTasksWaitingCleanUp;
 8005b94:	4b0a      	ldr	r3, [pc, #40]	; (8005bc0 <prvCheckTasksWaitingTermination+0x54>)
 8005b96:	681b      	ldr	r3, [r3, #0]
 8005b98:	3b01      	subs	r3, #1
 8005b9a:	4a09      	ldr	r2, [pc, #36]	; (8005bc0 <prvCheckTasksWaitingTermination+0x54>)
 8005b9c:	6013      	str	r3, [r2, #0]
			}
			taskEXIT_CRITICAL();
 8005b9e:	f000 f9e1 	bl	8005f64 <vPortExitCritical>

			prvDeleteTCB( pxTCB );
 8005ba2:	6878      	ldr	r0, [r7, #4]
 8005ba4:	f000 f80e 	bl	8005bc4 <prvDeleteTCB>
		while( uxDeletedTasksWaitingCleanUp > ( UBaseType_t ) 0U )
 8005ba8:	4b05      	ldr	r3, [pc, #20]	; (8005bc0 <prvCheckTasksWaitingTermination+0x54>)
 8005baa:	681b      	ldr	r3, [r3, #0]
 8005bac:	2b00      	cmp	r3, #0
 8005bae:	d1e1      	bne.n	8005b74 <prvCheckTasksWaitingTermination+0x8>
		}
	}
	#endif /* INCLUDE_vTaskDelete */
}
 8005bb0:	bf00      	nop
 8005bb2:	3708      	adds	r7, #8
 8005bb4:	46bd      	mov	sp, r7
 8005bb6:	bd80      	pop	{r7, pc}
 8005bb8:	2000035c 	.word	0x2000035c
 8005bbc:	20000388 	.word	0x20000388
 8005bc0:	20000370 	.word	0x20000370

08005bc4 <prvDeleteTCB>:
/*-----------------------------------------------------------*/

#if ( INCLUDE_vTaskDelete == 1 )

	static void prvDeleteTCB( TCB_t *pxTCB )
	{
 8005bc4:	b580      	push	{r7, lr}
 8005bc6:	b084      	sub	sp, #16
 8005bc8:	af00      	add	r7, sp, #0
 8005bca:	6078      	str	r0, [r7, #4]
		#elif( tskSTATIC_AND_DYNAMIC_ALLOCATION_POSSIBLE != 0 ) /*lint !e731 Macro has been consolidated for readability reasons. */
		{
			/* The task could have been allocated statically or dynamically, so
			check what was statically allocated before trying to free the
			memory. */
			if( pxTCB->ucStaticallyAllocated == tskDYNAMICALLY_ALLOCATED_STACK_AND_TCB )
 8005bcc:	687b      	ldr	r3, [r7, #4]
 8005bce:	f893 3051 	ldrb.w	r3, [r3, #81]	; 0x51
 8005bd2:	2b00      	cmp	r3, #0
 8005bd4:	d108      	bne.n	8005be8 <prvDeleteTCB+0x24>
			{
				/* Both the stack and TCB were allocated dynamically, so both
				must be freed. */
				vPortFree( pxTCB->pxStack );
 8005bd6:	687b      	ldr	r3, [r7, #4]
 8005bd8:	6b1b      	ldr	r3, [r3, #48]	; 0x30
 8005bda:	4618      	mov	r0, r3
 8005bdc:	f000 fb4c 	bl	8006278 <vPortFree>
				vPortFree( pxTCB );
 8005be0:	6878      	ldr	r0, [r7, #4]
 8005be2:	f000 fb49 	bl	8006278 <vPortFree>
				configASSERT( pxTCB->ucStaticallyAllocated == tskSTATICALLY_ALLOCATED_STACK_AND_TCB	);
				mtCOVERAGE_TEST_MARKER();
			}
		}
		#endif /* configSUPPORT_DYNAMIC_ALLOCATION */
	}
 8005be6:	e017      	b.n	8005c18 <prvDeleteTCB+0x54>
			else if( pxTCB->ucStaticallyAllocated == tskSTATICALLY_ALLOCATED_STACK_ONLY )
 8005be8:	687b      	ldr	r3, [r7, #4]
 8005bea:	f893 3051 	ldrb.w	r3, [r3, #81]	; 0x51
 8005bee:	2b01      	cmp	r3, #1
 8005bf0:	d103      	bne.n	8005bfa <prvDeleteTCB+0x36>
				vPortFree( pxTCB );
 8005bf2:	6878      	ldr	r0, [r7, #4]
 8005bf4:	f000 fb40 	bl	8006278 <vPortFree>
	}
 8005bf8:	e00e      	b.n	8005c18 <prvDeleteTCB+0x54>
				configASSERT( pxTCB->ucStaticallyAllocated == tskSTATICALLY_ALLOCATED_STACK_AND_TCB	);
 8005bfa:	687b      	ldr	r3, [r7, #4]
 8005bfc:	f893 3051 	ldrb.w	r3, [r3, #81]	; 0x51
 8005c00:	2b02      	cmp	r3, #2
 8005c02:	d009      	beq.n	8005c18 <prvDeleteTCB+0x54>
 8005c04:	f04f 0350 	mov.w	r3, #80	; 0x50
 8005c08:	f383 8811 	msr	BASEPRI, r3
 8005c0c:	f3bf 8f6f 	isb	sy
 8005c10:	f3bf 8f4f 	dsb	sy
 8005c14:	60fb      	str	r3, [r7, #12]
 8005c16:	e7fe      	b.n	8005c16 <prvDeleteTCB+0x52>
	}
 8005c18:	bf00      	nop
 8005c1a:	3710      	adds	r7, #16
 8005c1c:	46bd      	mov	sp, r7
 8005c1e:	bd80      	pop	{r7, pc}

08005c20 <prvResetNextTaskUnblockTime>:

#endif /* INCLUDE_vTaskDelete */
/*-----------------------------------------------------------*/

static void prvResetNextTaskUnblockTime( void )
{
 8005c20:	b480      	push	{r7}
 8005c22:	b083      	sub	sp, #12
 8005c24:	af00      	add	r7, sp, #0
TCB_t *pxTCB;

	if( listLIST_IS_EMPTY( pxDelayedTaskList ) != pdFALSE )
 8005c26:	4b0e      	ldr	r3, [pc, #56]	; (8005c60 <prvResetNextTaskUnblockTime+0x40>)
 8005c28:	681b      	ldr	r3, [r3, #0]
 8005c2a:	681b      	ldr	r3, [r3, #0]
 8005c2c:	2b00      	cmp	r3, #0
 8005c2e:	d101      	bne.n	8005c34 <prvResetNextTaskUnblockTime+0x14>
 8005c30:	2301      	movs	r3, #1
 8005c32:	e000      	b.n	8005c36 <prvResetNextTaskUnblockTime+0x16>
 8005c34:	2300      	movs	r3, #0
 8005c36:	2b00      	cmp	r3, #0
 8005c38:	d004      	beq.n	8005c44 <prvResetNextTaskUnblockTime+0x24>
	{
		/* The new current delayed list is empty.  Set xNextTaskUnblockTime to
		the maximum possible value so it is	extremely unlikely that the
		if( xTickCount >= xNextTaskUnblockTime ) test will pass until
		there is an item in the delayed list. */
		xNextTaskUnblockTime = portMAX_DELAY;
 8005c3a:	4b0a      	ldr	r3, [pc, #40]	; (8005c64 <prvResetNextTaskUnblockTime+0x44>)
 8005c3c:	f04f 32ff 	mov.w	r2, #4294967295
 8005c40:	601a      	str	r2, [r3, #0]
		which the task at the head of the delayed list should be removed
		from the Blocked state. */
		( pxTCB ) = ( TCB_t * ) listGET_OWNER_OF_HEAD_ENTRY( pxDelayedTaskList );
		xNextTaskUnblockTime = listGET_LIST_ITEM_VALUE( &( ( pxTCB )->xStateListItem ) );
	}
}
 8005c42:	e008      	b.n	8005c56 <prvResetNextTaskUnblockTime+0x36>
		( pxTCB ) = ( TCB_t * ) listGET_OWNER_OF_HEAD_ENTRY( pxDelayedTaskList );
 8005c44:	4b06      	ldr	r3, [pc, #24]	; (8005c60 <prvResetNextTaskUnblockTime+0x40>)
 8005c46:	681b      	ldr	r3, [r3, #0]
 8005c48:	68db      	ldr	r3, [r3, #12]
 8005c4a:	68db      	ldr	r3, [r3, #12]
 8005c4c:	607b      	str	r3, [r7, #4]
		xNextTaskUnblockTime = listGET_LIST_ITEM_VALUE( &( ( pxTCB )->xStateListItem ) );
 8005c4e:	687b      	ldr	r3, [r7, #4]
 8005c50:	685b      	ldr	r3, [r3, #4]
 8005c52:	4a04      	ldr	r2, [pc, #16]	; (8005c64 <prvResetNextTaskUnblockTime+0x44>)
 8005c54:	6013      	str	r3, [r2, #0]
}
 8005c56:	bf00      	nop
 8005c58:	370c      	adds	r7, #12
 8005c5a:	46bd      	mov	sp, r7
 8005c5c:	bc80      	pop	{r7}
 8005c5e:	4770      	bx	lr
 8005c60:	20000340 	.word	0x20000340
 8005c64:	200003a8 	.word	0x200003a8

08005c68 <prvAddCurrentTaskToDelayedList>:
#endif /* configUSE_TASK_NOTIFICATIONS */
/*-----------------------------------------------------------*/


static void prvAddCurrentTaskToDelayedList( TickType_t xTicksToWait, const BaseType_t xCanBlockIndefinitely )
{
 8005c68:	b580      	push	{r7, lr}
 8005c6a:	b084      	sub	sp, #16
 8005c6c:	af00      	add	r7, sp, #0
 8005c6e:	6078      	str	r0, [r7, #4]
 8005c70:	6039      	str	r1, [r7, #0]
TickType_t xTimeToWake;
const TickType_t xConstTickCount = xTickCount;
 8005c72:	4b29      	ldr	r3, [pc, #164]	; (8005d18 <prvAddCurrentTaskToDelayedList+0xb0>)
 8005c74:	681b      	ldr	r3, [r3, #0]
 8005c76:	60fb      	str	r3, [r7, #12]
	}
	#endif

	/* Remove the task from the ready list before adding it to the blocked list
	as the same list item is used for both lists. */
	if( uxListRemove( &( pxCurrentTCB->xStateListItem ) ) == ( UBaseType_t ) 0 )
 8005c78:	4b28      	ldr	r3, [pc, #160]	; (8005d1c <prvAddCurrentTaskToDelayedList+0xb4>)
 8005c7a:	681b      	ldr	r3, [r3, #0]
 8005c7c:	3304      	adds	r3, #4
 8005c7e:	4618      	mov	r0, r3
 8005c80:	f7ff f98a 	bl	8004f98 <uxListRemove>
 8005c84:	4603      	mov	r3, r0
 8005c86:	2b00      	cmp	r3, #0
 8005c88:	d10b      	bne.n	8005ca2 <prvAddCurrentTaskToDelayedList+0x3a>
	{
		/* The current task must be in a ready list, so there is no need to
		check, and the port reset macro can be called directly. */
		portRESET_READY_PRIORITY( pxCurrentTCB->uxPriority, uxTopReadyPriority );
 8005c8a:	4b24      	ldr	r3, [pc, #144]	; (8005d1c <prvAddCurrentTaskToDelayedList+0xb4>)
 8005c8c:	681b      	ldr	r3, [r3, #0]
 8005c8e:	6adb      	ldr	r3, [r3, #44]	; 0x2c
 8005c90:	2201      	movs	r2, #1
 8005c92:	fa02 f303 	lsl.w	r3, r2, r3
 8005c96:	43da      	mvns	r2, r3
 8005c98:	4b21      	ldr	r3, [pc, #132]	; (8005d20 <prvAddCurrentTaskToDelayedList+0xb8>)
 8005c9a:	681b      	ldr	r3, [r3, #0]
 8005c9c:	4013      	ands	r3, r2
 8005c9e:	4a20      	ldr	r2, [pc, #128]	; (8005d20 <prvAddCurrentTaskToDelayedList+0xb8>)
 8005ca0:	6013      	str	r3, [r2, #0]
		mtCOVERAGE_TEST_MARKER();
	}

	#if ( INCLUDE_vTaskSuspend == 1 )
	{
		if( ( xTicksToWait == portMAX_DELAY ) && ( xCanBlockIndefinitely != pdFALSE ) )
 8005ca2:	687b      	ldr	r3, [r7, #4]
 8005ca4:	f1b3 3fff 	cmp.w	r3, #4294967295
 8005ca8:	d10a      	bne.n	8005cc0 <prvAddCurrentTaskToDelayedList+0x58>
 8005caa:	683b      	ldr	r3, [r7, #0]
 8005cac:	2b00      	cmp	r3, #0
 8005cae:	d007      	beq.n	8005cc0 <prvAddCurrentTaskToDelayedList+0x58>
		{
			/* Add the task to the suspended task list instead of a delayed task
			list to ensure it is not woken by a timing event.  It will block
			indefinitely. */
			vListInsertEnd( &xSuspendedTaskList, &( pxCurrentTCB->xStateListItem ) );
 8005cb0:	4b1a      	ldr	r3, [pc, #104]	; (8005d1c <prvAddCurrentTaskToDelayedList+0xb4>)
 8005cb2:	681b      	ldr	r3, [r3, #0]
 8005cb4:	3304      	adds	r3, #4
 8005cb6:	4619      	mov	r1, r3
 8005cb8:	481a      	ldr	r0, [pc, #104]	; (8005d24 <prvAddCurrentTaskToDelayedList+0xbc>)
 8005cba:	f7ff f912 	bl	8004ee2 <vListInsertEnd>

		/* Avoid compiler warning when INCLUDE_vTaskSuspend is not 1. */
		( void ) xCanBlockIndefinitely;
	}
	#endif /* INCLUDE_vTaskSuspend */
}
 8005cbe:	e026      	b.n	8005d0e <prvAddCurrentTaskToDelayedList+0xa6>
			xTimeToWake = xConstTickCount + xTicksToWait;
 8005cc0:	68fa      	ldr	r2, [r7, #12]
 8005cc2:	687b      	ldr	r3, [r7, #4]
 8005cc4:	4413      	add	r3, r2
 8005cc6:	60bb      	str	r3, [r7, #8]
			listSET_LIST_ITEM_VALUE( &( pxCurrentTCB->xStateListItem ), xTimeToWake );
 8005cc8:	4b14      	ldr	r3, [pc, #80]	; (8005d1c <prvAddCurrentTaskToDelayedList+0xb4>)
 8005cca:	681b      	ldr	r3, [r3, #0]
 8005ccc:	68ba      	ldr	r2, [r7, #8]
 8005cce:	605a      	str	r2, [r3, #4]
			if( xTimeToWake < xConstTickCount )
 8005cd0:	68ba      	ldr	r2, [r7, #8]
 8005cd2:	68fb      	ldr	r3, [r7, #12]
 8005cd4:	429a      	cmp	r2, r3
 8005cd6:	d209      	bcs.n	8005cec <prvAddCurrentTaskToDelayedList+0x84>
				vListInsert( pxOverflowDelayedTaskList, &( pxCurrentTCB->xStateListItem ) );
 8005cd8:	4b13      	ldr	r3, [pc, #76]	; (8005d28 <prvAddCurrentTaskToDelayedList+0xc0>)
 8005cda:	681a      	ldr	r2, [r3, #0]
 8005cdc:	4b0f      	ldr	r3, [pc, #60]	; (8005d1c <prvAddCurrentTaskToDelayedList+0xb4>)
 8005cde:	681b      	ldr	r3, [r3, #0]
 8005ce0:	3304      	adds	r3, #4
 8005ce2:	4619      	mov	r1, r3
 8005ce4:	4610      	mov	r0, r2
 8005ce6:	f7ff f91f 	bl	8004f28 <vListInsert>
}
 8005cea:	e010      	b.n	8005d0e <prvAddCurrentTaskToDelayedList+0xa6>
				vListInsert( pxDelayedTaskList, &( pxCurrentTCB->xStateListItem ) );
 8005cec:	4b0f      	ldr	r3, [pc, #60]	; (8005d2c <prvAddCurrentTaskToDelayedList+0xc4>)
 8005cee:	681a      	ldr	r2, [r3, #0]
 8005cf0:	4b0a      	ldr	r3, [pc, #40]	; (8005d1c <prvAddCurrentTaskToDelayedList+0xb4>)
 8005cf2:	681b      	ldr	r3, [r3, #0]
 8005cf4:	3304      	adds	r3, #4
 8005cf6:	4619      	mov	r1, r3
 8005cf8:	4610      	mov	r0, r2
 8005cfa:	f7ff f915 	bl	8004f28 <vListInsert>
				if( xTimeToWake < xNextTaskUnblockTime )
 8005cfe:	4b0c      	ldr	r3, [pc, #48]	; (8005d30 <prvAddCurrentTaskToDelayedList+0xc8>)
 8005d00:	681b      	ldr	r3, [r3, #0]
 8005d02:	68ba      	ldr	r2, [r7, #8]
 8005d04:	429a      	cmp	r2, r3
 8005d06:	d202      	bcs.n	8005d0e <prvAddCurrentTaskToDelayedList+0xa6>
					xNextTaskUnblockTime = xTimeToWake;
 8005d08:	4a09      	ldr	r2, [pc, #36]	; (8005d30 <prvAddCurrentTaskToDelayedList+0xc8>)
 8005d0a:	68bb      	ldr	r3, [r7, #8]
 8005d0c:	6013      	str	r3, [r2, #0]
}
 8005d0e:	bf00      	nop
 8005d10:	3710      	adds	r7, #16
 8005d12:	46bd      	mov	sp, r7
 8005d14:	bd80      	pop	{r7, pc}
 8005d16:	bf00      	nop
 8005d18:	2000038c 	.word	0x2000038c
 8005d1c:	20000288 	.word	0x20000288
 8005d20:	20000390 	.word	0x20000390
 8005d24:	20000374 	.word	0x20000374
 8005d28:	20000344 	.word	0x20000344
 8005d2c:	20000340 	.word	0x20000340
 8005d30:	200003a8 	.word	0x200003a8

08005d34 <pxPortInitialiseStack>:

/*
 * See header file for description.
 */
StackType_t *pxPortInitialiseStack( StackType_t *pxTopOfStack, TaskFunction_t pxCode, void *pvParameters )
{
 8005d34:	b480      	push	{r7}
 8005d36:	b085      	sub	sp, #20
 8005d38:	af00      	add	r7, sp, #0
 8005d3a:	60f8      	str	r0, [r7, #12]
 8005d3c:	60b9      	str	r1, [r7, #8]
 8005d3e:	607a      	str	r2, [r7, #4]
	/* Simulate the stack frame as it would be created by a context switch
	interrupt. */
	pxTopOfStack--; /* Offset added to account for the way the MCU uses the stack on entry/exit of interrupts. */
 8005d40:	68fb      	ldr	r3, [r7, #12]
 8005d42:	3b04      	subs	r3, #4
 8005d44:	60fb      	str	r3, [r7, #12]
	*pxTopOfStack = portINITIAL_XPSR;	/* xPSR */
 8005d46:	68fb      	ldr	r3, [r7, #12]
 8005d48:	f04f 7280 	mov.w	r2, #16777216	; 0x1000000
 8005d4c:	601a      	str	r2, [r3, #0]
	pxTopOfStack--;
 8005d4e:	68fb      	ldr	r3, [r7, #12]
 8005d50:	3b04      	subs	r3, #4
 8005d52:	60fb      	str	r3, [r7, #12]
	*pxTopOfStack = ( ( StackType_t ) pxCode ) & portSTART_ADDRESS_MASK;	/* PC */
 8005d54:	68bb      	ldr	r3, [r7, #8]
 8005d56:	f023 0201 	bic.w	r2, r3, #1
 8005d5a:	68fb      	ldr	r3, [r7, #12]
 8005d5c:	601a      	str	r2, [r3, #0]
	pxTopOfStack--;
 8005d5e:	68fb      	ldr	r3, [r7, #12]
 8005d60:	3b04      	subs	r3, #4
 8005d62:	60fb      	str	r3, [r7, #12]
	*pxTopOfStack = ( StackType_t ) portTASK_RETURN_ADDRESS;	/* LR */
 8005d64:	4a08      	ldr	r2, [pc, #32]	; (8005d88 <pxPortInitialiseStack+0x54>)
 8005d66:	68fb      	ldr	r3, [r7, #12]
 8005d68:	601a      	str	r2, [r3, #0]
	pxTopOfStack -= 5;	/* R12, R3, R2 and R1. */
 8005d6a:	68fb      	ldr	r3, [r7, #12]
 8005d6c:	3b14      	subs	r3, #20
 8005d6e:	60fb      	str	r3, [r7, #12]
	*pxTopOfStack = ( StackType_t ) pvParameters;	/* R0 */
 8005d70:	687a      	ldr	r2, [r7, #4]
 8005d72:	68fb      	ldr	r3, [r7, #12]
 8005d74:	601a      	str	r2, [r3, #0]
	pxTopOfStack -= 8;	/* R11, R10, R9, R8, R7, R6, R5 and R4. */
 8005d76:	68fb      	ldr	r3, [r7, #12]
 8005d78:	3b20      	subs	r3, #32
 8005d7a:	60fb      	str	r3, [r7, #12]

	return pxTopOfStack;
 8005d7c:	68fb      	ldr	r3, [r7, #12]
}
 8005d7e:	4618      	mov	r0, r3
 8005d80:	3714      	adds	r7, #20
 8005d82:	46bd      	mov	sp, r7
 8005d84:	bc80      	pop	{r7}
 8005d86:	4770      	bx	lr
 8005d88:	08005d8d 	.word	0x08005d8d

08005d8c <prvTaskExitError>:
/*-----------------------------------------------------------*/

static void prvTaskExitError( void )
{
 8005d8c:	b480      	push	{r7}
 8005d8e:	b085      	sub	sp, #20
 8005d90:	af00      	add	r7, sp, #0
volatile uint32_t ulDummy = 0UL;
 8005d92:	2300      	movs	r3, #0
 8005d94:	607b      	str	r3, [r7, #4]
	its caller as there is nothing to return to.  If a task wants to exit it
	should instead call vTaskDelete( NULL ).

	Artificially force an assert() to be triggered if configASSERT() is
	defined, then stop here so application writers can catch the error. */
	configASSERT( uxCriticalNesting == ~0UL );
 8005d96:	4b10      	ldr	r3, [pc, #64]	; (8005dd8 <prvTaskExitError+0x4c>)
 8005d98:	681b      	ldr	r3, [r3, #0]
 8005d9a:	f1b3 3fff 	cmp.w	r3, #4294967295
 8005d9e:	d009      	beq.n	8005db4 <prvTaskExitError+0x28>
 8005da0:	f04f 0350 	mov.w	r3, #80	; 0x50
 8005da4:	f383 8811 	msr	BASEPRI, r3
 8005da8:	f3bf 8f6f 	isb	sy
 8005dac:	f3bf 8f4f 	dsb	sy
 8005db0:	60fb      	str	r3, [r7, #12]
 8005db2:	e7fe      	b.n	8005db2 <prvTaskExitError+0x26>
 8005db4:	f04f 0350 	mov.w	r3, #80	; 0x50
 8005db8:	f383 8811 	msr	BASEPRI, r3
 8005dbc:	f3bf 8f6f 	isb	sy
 8005dc0:	f3bf 8f4f 	dsb	sy
 8005dc4:	60bb      	str	r3, [r7, #8]
	portDISABLE_INTERRUPTS();
	while( ulDummy == 0 )
 8005dc6:	bf00      	nop
 8005dc8:	687b      	ldr	r3, [r7, #4]
 8005dca:	2b00      	cmp	r3, #0
 8005dcc:	d0fc      	beq.n	8005dc8 <prvTaskExitError+0x3c>
		about code appearing after this function is called - making ulDummy
		volatile makes the compiler think the function could return and
		therefore not output an 'unreachable code' warning for code that appears
		after it. */
	}
}
 8005dce:	bf00      	nop
 8005dd0:	3714      	adds	r7, #20
 8005dd2:	46bd      	mov	sp, r7
 8005dd4:	bc80      	pop	{r7}
 8005dd6:	4770      	bx	lr
 8005dd8:	20000010 	.word	0x20000010
 8005ddc:	00000000 	.word	0x00000000

08005de0 <SVC_Handler>:
/*-----------------------------------------------------------*/

void vPortSVCHandler( void )
{
	__asm volatile (
 8005de0:	4b07      	ldr	r3, [pc, #28]	; (8005e00 <pxCurrentTCBConst2>)
 8005de2:	6819      	ldr	r1, [r3, #0]
 8005de4:	6808      	ldr	r0, [r1, #0]
 8005de6:	e8b0 0ff0 	ldmia.w	r0!, {r4, r5, r6, r7, r8, r9, sl, fp}
 8005dea:	f380 8809 	msr	PSP, r0
 8005dee:	f3bf 8f6f 	isb	sy
 8005df2:	f04f 0000 	mov.w	r0, #0
 8005df6:	f380 8811 	msr	BASEPRI, r0
 8005dfa:	f04e 0e0d 	orr.w	lr, lr, #13
 8005dfe:	4770      	bx	lr

08005e00 <pxCurrentTCBConst2>:
 8005e00:	20000288 	.word	0x20000288
					"	bx r14							\n"
					"									\n"
					"	.align 4						\n"
					"pxCurrentTCBConst2: .word pxCurrentTCB				\n"
				);
}
 8005e04:	bf00      	nop
 8005e06:	bf00      	nop

08005e08 <prvPortStartFirstTask>:
/*-----------------------------------------------------------*/

static void prvPortStartFirstTask( void )
{
	__asm volatile(
 8005e08:	4806      	ldr	r0, [pc, #24]	; (8005e24 <prvPortStartFirstTask+0x1c>)
 8005e0a:	6800      	ldr	r0, [r0, #0]
 8005e0c:	6800      	ldr	r0, [r0, #0]
 8005e0e:	f380 8808 	msr	MSP, r0
 8005e12:	b662      	cpsie	i
 8005e14:	b661      	cpsie	f
 8005e16:	f3bf 8f4f 	dsb	sy
 8005e1a:	f3bf 8f6f 	isb	sy
 8005e1e:	df00      	svc	0
 8005e20:	bf00      	nop
					" dsb					\n"
					" isb					\n"
					" svc 0					\n" /* System call to start first task. */
					" nop					\n"
				);
}
 8005e22:	bf00      	nop
 8005e24:	e000ed08 	.word	0xe000ed08

08005e28 <xPortStartScheduler>:

/*
 * See header file for description.
 */
BaseType_t xPortStartScheduler( void )
{
 8005e28:	b580      	push	{r7, lr}
 8005e2a:	b084      	sub	sp, #16
 8005e2c:	af00      	add	r7, sp, #0
	configASSERT( configMAX_SYSCALL_INTERRUPT_PRIORITY );

	#if( configASSERT_DEFINED == 1 )
	{
		volatile uint32_t ulOriginalPriority;
		volatile uint8_t * const pucFirstUserPriorityRegister = ( volatile uint8_t * const ) ( portNVIC_IP_REGISTERS_OFFSET_16 + portFIRST_USER_INTERRUPT_NUMBER );
 8005e2e:	4b31      	ldr	r3, [pc, #196]	; (8005ef4 <xPortStartScheduler+0xcc>)
 8005e30:	60fb      	str	r3, [r7, #12]
		functions can be called.  ISR safe functions are those that end in
		"FromISR".  FreeRTOS maintains separate thread and ISR API functions to
		ensure interrupt entry is as fast and simple as possible.

		Save the interrupt priority value that is about to be clobbered. */
		ulOriginalPriority = *pucFirstUserPriorityRegister;
 8005e32:	68fb      	ldr	r3, [r7, #12]
 8005e34:	781b      	ldrb	r3, [r3, #0]
 8005e36:	b2db      	uxtb	r3, r3
 8005e38:	607b      	str	r3, [r7, #4]

		/* Determine the number of priority bits available.  First write to all
		possible bits. */
		*pucFirstUserPriorityRegister = portMAX_8_BIT_VALUE;
 8005e3a:	68fb      	ldr	r3, [r7, #12]
 8005e3c:	22ff      	movs	r2, #255	; 0xff
 8005e3e:	701a      	strb	r2, [r3, #0]

		/* Read the value back to see how many bits stuck. */
		ucMaxPriorityValue = *pucFirstUserPriorityRegister;
 8005e40:	68fb      	ldr	r3, [r7, #12]
 8005e42:	781b      	ldrb	r3, [r3, #0]
 8005e44:	b2db      	uxtb	r3, r3
 8005e46:	70fb      	strb	r3, [r7, #3]

		/* Use the same mask on the maximum system call priority. */
		ucMaxSysCallPriority = configMAX_SYSCALL_INTERRUPT_PRIORITY & ucMaxPriorityValue;
 8005e48:	78fb      	ldrb	r3, [r7, #3]
 8005e4a:	b2db      	uxtb	r3, r3
 8005e4c:	f003 0350 	and.w	r3, r3, #80	; 0x50
 8005e50:	b2da      	uxtb	r2, r3
 8005e52:	4b29      	ldr	r3, [pc, #164]	; (8005ef8 <xPortStartScheduler+0xd0>)
 8005e54:	701a      	strb	r2, [r3, #0]

		/* Calculate the maximum acceptable priority group value for the number
		of bits read back. */
		ulMaxPRIGROUPValue = portMAX_PRIGROUP_BITS;
 8005e56:	4b29      	ldr	r3, [pc, #164]	; (8005efc <xPortStartScheduler+0xd4>)
 8005e58:	2207      	movs	r2, #7
 8005e5a:	601a      	str	r2, [r3, #0]
		while( ( ucMaxPriorityValue & portTOP_BIT_OF_BYTE ) == portTOP_BIT_OF_BYTE )
 8005e5c:	e009      	b.n	8005e72 <xPortStartScheduler+0x4a>
		{
			ulMaxPRIGROUPValue--;
 8005e5e:	4b27      	ldr	r3, [pc, #156]	; (8005efc <xPortStartScheduler+0xd4>)
 8005e60:	681b      	ldr	r3, [r3, #0]
 8005e62:	3b01      	subs	r3, #1
 8005e64:	4a25      	ldr	r2, [pc, #148]	; (8005efc <xPortStartScheduler+0xd4>)
 8005e66:	6013      	str	r3, [r2, #0]
			ucMaxPriorityValue <<= ( uint8_t ) 0x01;
 8005e68:	78fb      	ldrb	r3, [r7, #3]
 8005e6a:	b2db      	uxtb	r3, r3
 8005e6c:	005b      	lsls	r3, r3, #1
 8005e6e:	b2db      	uxtb	r3, r3
 8005e70:	70fb      	strb	r3, [r7, #3]
		while( ( ucMaxPriorityValue & portTOP_BIT_OF_BYTE ) == portTOP_BIT_OF_BYTE )
 8005e72:	78fb      	ldrb	r3, [r7, #3]
 8005e74:	b2db      	uxtb	r3, r3
 8005e76:	f003 0380 	and.w	r3, r3, #128	; 0x80
 8005e7a:	2b80      	cmp	r3, #128	; 0x80
 8005e7c:	d0ef      	beq.n	8005e5e <xPortStartScheduler+0x36>
		#ifdef configPRIO_BITS
		{
			/* Check the FreeRTOS configuration that defines the number of
			priority bits matches the number of priority bits actually queried
			from the hardware. */
			configASSERT( ( portMAX_PRIGROUP_BITS - ulMaxPRIGROUPValue ) == configPRIO_BITS );
 8005e7e:	4b1f      	ldr	r3, [pc, #124]	; (8005efc <xPortStartScheduler+0xd4>)
 8005e80:	681b      	ldr	r3, [r3, #0]
 8005e82:	f1c3 0307 	rsb	r3, r3, #7
 8005e86:	2b04      	cmp	r3, #4
 8005e88:	d009      	beq.n	8005e9e <xPortStartScheduler+0x76>
 8005e8a:	f04f 0350 	mov.w	r3, #80	; 0x50
 8005e8e:	f383 8811 	msr	BASEPRI, r3
 8005e92:	f3bf 8f6f 	isb	sy
 8005e96:	f3bf 8f4f 	dsb	sy
 8005e9a:	60bb      	str	r3, [r7, #8]
 8005e9c:	e7fe      	b.n	8005e9c <xPortStartScheduler+0x74>
		}
		#endif

		/* Shift the priority group value back to its position within the AIRCR
		register. */
		ulMaxPRIGROUPValue <<= portPRIGROUP_SHIFT;
 8005e9e:	4b17      	ldr	r3, [pc, #92]	; (8005efc <xPortStartScheduler+0xd4>)
 8005ea0:	681b      	ldr	r3, [r3, #0]
 8005ea2:	021b      	lsls	r3, r3, #8
 8005ea4:	4a15      	ldr	r2, [pc, #84]	; (8005efc <xPortStartScheduler+0xd4>)
 8005ea6:	6013      	str	r3, [r2, #0]
		ulMaxPRIGROUPValue &= portPRIORITY_GROUP_MASK;
 8005ea8:	4b14      	ldr	r3, [pc, #80]	; (8005efc <xPortStartScheduler+0xd4>)
 8005eaa:	681b      	ldr	r3, [r3, #0]
 8005eac:	f403 63e0 	and.w	r3, r3, #1792	; 0x700
 8005eb0:	4a12      	ldr	r2, [pc, #72]	; (8005efc <xPortStartScheduler+0xd4>)
 8005eb2:	6013      	str	r3, [r2, #0]

		/* Restore the clobbered interrupt priority register to its original
		value. */
		*pucFirstUserPriorityRegister = ulOriginalPriority;
 8005eb4:	687b      	ldr	r3, [r7, #4]
 8005eb6:	b2da      	uxtb	r2, r3
 8005eb8:	68fb      	ldr	r3, [r7, #12]
 8005eba:	701a      	strb	r2, [r3, #0]
	}
	#endif /* conifgASSERT_DEFINED */

	/* Make PendSV and SysTick the lowest priority interrupts. */
	portNVIC_SYSPRI2_REG |= portNVIC_PENDSV_PRI;
 8005ebc:	4b10      	ldr	r3, [pc, #64]	; (8005f00 <xPortStartScheduler+0xd8>)
 8005ebe:	681b      	ldr	r3, [r3, #0]
 8005ec0:	4a0f      	ldr	r2, [pc, #60]	; (8005f00 <xPortStartScheduler+0xd8>)
 8005ec2:	f443 0370 	orr.w	r3, r3, #15728640	; 0xf00000
 8005ec6:	6013      	str	r3, [r2, #0]
	portNVIC_SYSPRI2_REG |= portNVIC_SYSTICK_PRI;
 8005ec8:	4b0d      	ldr	r3, [pc, #52]	; (8005f00 <xPortStartScheduler+0xd8>)
 8005eca:	681b      	ldr	r3, [r3, #0]
 8005ecc:	4a0c      	ldr	r2, [pc, #48]	; (8005f00 <xPortStartScheduler+0xd8>)
 8005ece:	f043 4370 	orr.w	r3, r3, #4026531840	; 0xf0000000
 8005ed2:	6013      	str	r3, [r2, #0]

	/* Start the timer that generates the tick ISR.  Interrupts are disabled
	here already. */
	vPortSetupTimerInterrupt();
 8005ed4:	f000 f8b0 	bl	8006038 <vPortSetupTimerInterrupt>

	/* Initialise the critical nesting count ready for the first task. */
	uxCriticalNesting = 0;
 8005ed8:	4b0a      	ldr	r3, [pc, #40]	; (8005f04 <xPortStartScheduler+0xdc>)
 8005eda:	2200      	movs	r2, #0
 8005edc:	601a      	str	r2, [r3, #0]

	/* Start the first task. */
	prvPortStartFirstTask();
 8005ede:	f7ff ff93 	bl	8005e08 <prvPortStartFirstTask>
	exit error function to prevent compiler warnings about a static function
	not being called in the case that the application writer overrides this
	functionality by defining configTASK_RETURN_ADDRESS.  Call
	vTaskSwitchContext() so link time optimisation does not remove the
	symbol. */
	vTaskSwitchContext();
 8005ee2:	f7ff fd91 	bl	8005a08 <vTaskSwitchContext>
	prvTaskExitError();
 8005ee6:	f7ff ff51 	bl	8005d8c <prvTaskExitError>

	/* Should not get here! */
	return 0;
 8005eea:	2300      	movs	r3, #0
}
 8005eec:	4618      	mov	r0, r3
 8005eee:	3710      	adds	r7, #16
 8005ef0:	46bd      	mov	sp, r7
 8005ef2:	bd80      	pop	{r7, pc}
 8005ef4:	e000e400 	.word	0xe000e400
 8005ef8:	200003b4 	.word	0x200003b4
 8005efc:	200003b8 	.word	0x200003b8
 8005f00:	e000ed20 	.word	0xe000ed20
 8005f04:	20000010 	.word	0x20000010

08005f08 <vPortEnterCritical>:
	configASSERT( uxCriticalNesting == 1000UL );
}
/*-----------------------------------------------------------*/

void vPortEnterCritical( void )
{
 8005f08:	b480      	push	{r7}
 8005f0a:	b083      	sub	sp, #12
 8005f0c:	af00      	add	r7, sp, #0
 8005f0e:	f04f 0350 	mov.w	r3, #80	; 0x50
 8005f12:	f383 8811 	msr	BASEPRI, r3
 8005f16:	f3bf 8f6f 	isb	sy
 8005f1a:	f3bf 8f4f 	dsb	sy
 8005f1e:	607b      	str	r3, [r7, #4]
	portDISABLE_INTERRUPTS();
	uxCriticalNesting++;
 8005f20:	4b0e      	ldr	r3, [pc, #56]	; (8005f5c <vPortEnterCritical+0x54>)
 8005f22:	681b      	ldr	r3, [r3, #0]
 8005f24:	3301      	adds	r3, #1
 8005f26:	4a0d      	ldr	r2, [pc, #52]	; (8005f5c <vPortEnterCritical+0x54>)
 8005f28:	6013      	str	r3, [r2, #0]
	/* This is not the interrupt safe version of the enter critical function so
	assert() if it is being called from an interrupt context.  Only API
	functions that end in "FromISR" can be used in an interrupt.  Only assert if
	the critical nesting count is 1 to protect against recursive calls if the
	assert function also uses a critical section. */
	if( uxCriticalNesting == 1 )
 8005f2a:	4b0c      	ldr	r3, [pc, #48]	; (8005f5c <vPortEnterCritical+0x54>)
 8005f2c:	681b      	ldr	r3, [r3, #0]
 8005f2e:	2b01      	cmp	r3, #1
 8005f30:	d10e      	bne.n	8005f50 <vPortEnterCritical+0x48>
	{
		configASSERT( ( portNVIC_INT_CTRL_REG & portVECTACTIVE_MASK ) == 0 );
 8005f32:	4b0b      	ldr	r3, [pc, #44]	; (8005f60 <vPortEnterCritical+0x58>)
 8005f34:	681b      	ldr	r3, [r3, #0]
 8005f36:	b2db      	uxtb	r3, r3
 8005f38:	2b00      	cmp	r3, #0
 8005f3a:	d009      	beq.n	8005f50 <vPortEnterCritical+0x48>
 8005f3c:	f04f 0350 	mov.w	r3, #80	; 0x50
 8005f40:	f383 8811 	msr	BASEPRI, r3
 8005f44:	f3bf 8f6f 	isb	sy
 8005f48:	f3bf 8f4f 	dsb	sy
 8005f4c:	603b      	str	r3, [r7, #0]
 8005f4e:	e7fe      	b.n	8005f4e <vPortEnterCritical+0x46>
	}
}
 8005f50:	bf00      	nop
 8005f52:	370c      	adds	r7, #12
 8005f54:	46bd      	mov	sp, r7
 8005f56:	bc80      	pop	{r7}
 8005f58:	4770      	bx	lr
 8005f5a:	bf00      	nop
 8005f5c:	20000010 	.word	0x20000010
 8005f60:	e000ed04 	.word	0xe000ed04

08005f64 <vPortExitCritical>:
/*-----------------------------------------------------------*/

void vPortExitCritical( void )
{
 8005f64:	b480      	push	{r7}
 8005f66:	b083      	sub	sp, #12
 8005f68:	af00      	add	r7, sp, #0
	configASSERT( uxCriticalNesting );
 8005f6a:	4b10      	ldr	r3, [pc, #64]	; (8005fac <vPortExitCritical+0x48>)
 8005f6c:	681b      	ldr	r3, [r3, #0]
 8005f6e:	2b00      	cmp	r3, #0
 8005f70:	d109      	bne.n	8005f86 <vPortExitCritical+0x22>
 8005f72:	f04f 0350 	mov.w	r3, #80	; 0x50
 8005f76:	f383 8811 	msr	BASEPRI, r3
 8005f7a:	f3bf 8f6f 	isb	sy
 8005f7e:	f3bf 8f4f 	dsb	sy
 8005f82:	607b      	str	r3, [r7, #4]
 8005f84:	e7fe      	b.n	8005f84 <vPortExitCritical+0x20>
	uxCriticalNesting--;
 8005f86:	4b09      	ldr	r3, [pc, #36]	; (8005fac <vPortExitCritical+0x48>)
 8005f88:	681b      	ldr	r3, [r3, #0]
 8005f8a:	3b01      	subs	r3, #1
 8005f8c:	4a07      	ldr	r2, [pc, #28]	; (8005fac <vPortExitCritical+0x48>)
 8005f8e:	6013      	str	r3, [r2, #0]
	if( uxCriticalNesting == 0 )
 8005f90:	4b06      	ldr	r3, [pc, #24]	; (8005fac <vPortExitCritical+0x48>)
 8005f92:	681b      	ldr	r3, [r3, #0]
 8005f94:	2b00      	cmp	r3, #0
 8005f96:	d104      	bne.n	8005fa2 <vPortExitCritical+0x3e>
 8005f98:	2300      	movs	r3, #0
 8005f9a:	603b      	str	r3, [r7, #0]
	__asm volatile
 8005f9c:	683b      	ldr	r3, [r7, #0]
 8005f9e:	f383 8811 	msr	BASEPRI, r3
	{
		portENABLE_INTERRUPTS();
	}
}
 8005fa2:	bf00      	nop
 8005fa4:	370c      	adds	r7, #12
 8005fa6:	46bd      	mov	sp, r7
 8005fa8:	bc80      	pop	{r7}
 8005faa:	4770      	bx	lr
 8005fac:	20000010 	.word	0x20000010

08005fb0 <PendSV_Handler>:

void xPortPendSVHandler( void )
{
	/* This is a naked function. */

	__asm volatile
 8005fb0:	f3ef 8009 	mrs	r0, PSP
 8005fb4:	f3bf 8f6f 	isb	sy
 8005fb8:	4b0d      	ldr	r3, [pc, #52]	; (8005ff0 <pxCurrentTCBConst>)
 8005fba:	681a      	ldr	r2, [r3, #0]
 8005fbc:	e920 0ff0 	stmdb	r0!, {r4, r5, r6, r7, r8, r9, sl, fp}
 8005fc0:	6010      	str	r0, [r2, #0]
 8005fc2:	e92d 4008 	stmdb	sp!, {r3, lr}
 8005fc6:	f04f 0050 	mov.w	r0, #80	; 0x50
 8005fca:	f380 8811 	msr	BASEPRI, r0
 8005fce:	f7ff fd1b 	bl	8005a08 <vTaskSwitchContext>
 8005fd2:	f04f 0000 	mov.w	r0, #0
 8005fd6:	f380 8811 	msr	BASEPRI, r0
 8005fda:	e8bd 4008 	ldmia.w	sp!, {r3, lr}
 8005fde:	6819      	ldr	r1, [r3, #0]
 8005fe0:	6808      	ldr	r0, [r1, #0]
 8005fe2:	e8b0 0ff0 	ldmia.w	r0!, {r4, r5, r6, r7, r8, r9, sl, fp}
 8005fe6:	f380 8809 	msr	PSP, r0
 8005fea:	f3bf 8f6f 	isb	sy
 8005fee:	4770      	bx	lr

08005ff0 <pxCurrentTCBConst>:
 8005ff0:	20000288 	.word	0x20000288
	"										\n"
	"	.align 4							\n"
	"pxCurrentTCBConst: .word pxCurrentTCB	\n"
	::"i"(configMAX_SYSCALL_INTERRUPT_PRIORITY)
	);
}
 8005ff4:	bf00      	nop
 8005ff6:	bf00      	nop

08005ff8 <SysTick_Handler>:
/*-----------------------------------------------------------*/

void xPortSysTickHandler( void )
{
 8005ff8:	b580      	push	{r7, lr}
 8005ffa:	b082      	sub	sp, #8
 8005ffc:	af00      	add	r7, sp, #0
	__asm volatile
 8005ffe:	f04f 0350 	mov.w	r3, #80	; 0x50
 8006002:	f383 8811 	msr	BASEPRI, r3
 8006006:	f3bf 8f6f 	isb	sy
 800600a:	f3bf 8f4f 	dsb	sy
 800600e:	607b      	str	r3, [r7, #4]
	save and then restore the interrupt mask value as its value is already
	known. */
	portDISABLE_INTERRUPTS();
	{
		/* Increment the RTOS tick. */
		if( xTaskIncrementTick() != pdFALSE )
 8006010:	f7ff fc3e 	bl	8005890 <xTaskIncrementTick>
 8006014:	4603      	mov	r3, r0
 8006016:	2b00      	cmp	r3, #0
 8006018:	d003      	beq.n	8006022 <SysTick_Handler+0x2a>
		{
			/* A context switch is required.  Context switching is performed in
			the PendSV interrupt.  Pend the PendSV interrupt. */
			portNVIC_INT_CTRL_REG = portNVIC_PENDSVSET_BIT;
 800601a:	4b06      	ldr	r3, [pc, #24]	; (8006034 <SysTick_Handler+0x3c>)
 800601c:	f04f 5280 	mov.w	r2, #268435456	; 0x10000000
 8006020:	601a      	str	r2, [r3, #0]
 8006022:	2300      	movs	r3, #0
 8006024:	603b      	str	r3, [r7, #0]
	__asm volatile
 8006026:	683b      	ldr	r3, [r7, #0]
 8006028:	f383 8811 	msr	BASEPRI, r3
		}
	}
	portENABLE_INTERRUPTS();
}
 800602c:	bf00      	nop
 800602e:	3708      	adds	r7, #8
 8006030:	46bd      	mov	sp, r7
 8006032:	bd80      	pop	{r7, pc}
 8006034:	e000ed04 	.word	0xe000ed04

08006038 <vPortSetupTimerInterrupt>:
/*
 * Setup the systick timer to generate the tick interrupts at the required
 * frequency.
 */
__attribute__(( weak )) void vPortSetupTimerInterrupt( void )
{
 8006038:	b480      	push	{r7}
 800603a:	af00      	add	r7, sp, #0
		ulStoppedTimerCompensation = portMISSED_COUNTS_FACTOR / ( configCPU_CLOCK_HZ / configSYSTICK_CLOCK_HZ );
	}
	#endif /* configUSE_TICKLESS_IDLE */

	/* Stop and clear the SysTick. */
	portNVIC_SYSTICK_CTRL_REG = 0UL;
 800603c:	4b0a      	ldr	r3, [pc, #40]	; (8006068 <vPortSetupTimerInterrupt+0x30>)
 800603e:	2200      	movs	r2, #0
 8006040:	601a      	str	r2, [r3, #0]
	portNVIC_SYSTICK_CURRENT_VALUE_REG = 0UL;
 8006042:	4b0a      	ldr	r3, [pc, #40]	; (800606c <vPortSetupTimerInterrupt+0x34>)
 8006044:	2200      	movs	r2, #0
 8006046:	601a      	str	r2, [r3, #0]

	/* Configure SysTick to interrupt at the requested rate. */
	portNVIC_SYSTICK_LOAD_REG = ( configSYSTICK_CLOCK_HZ / configTICK_RATE_HZ ) - 1UL;
 8006048:	4b09      	ldr	r3, [pc, #36]	; (8006070 <vPortSetupTimerInterrupt+0x38>)
 800604a:	681b      	ldr	r3, [r3, #0]
 800604c:	4a09      	ldr	r2, [pc, #36]	; (8006074 <vPortSetupTimerInterrupt+0x3c>)
 800604e:	fba2 2303 	umull	r2, r3, r2, r3
 8006052:	099b      	lsrs	r3, r3, #6
 8006054:	4a08      	ldr	r2, [pc, #32]	; (8006078 <vPortSetupTimerInterrupt+0x40>)
 8006056:	3b01      	subs	r3, #1
 8006058:	6013      	str	r3, [r2, #0]
	portNVIC_SYSTICK_CTRL_REG = ( portNVIC_SYSTICK_CLK_BIT | portNVIC_SYSTICK_INT_BIT | portNVIC_SYSTICK_ENABLE_BIT );
 800605a:	4b03      	ldr	r3, [pc, #12]	; (8006068 <vPortSetupTimerInterrupt+0x30>)
 800605c:	2207      	movs	r2, #7
 800605e:	601a      	str	r2, [r3, #0]
}
 8006060:	bf00      	nop
 8006062:	46bd      	mov	sp, r7
 8006064:	bc80      	pop	{r7}
 8006066:	4770      	bx	lr
 8006068:	e000e010 	.word	0xe000e010
 800606c:	e000e018 	.word	0xe000e018
 8006070:	20000004 	.word	0x20000004
 8006074:	10624dd3 	.word	0x10624dd3
 8006078:	e000e014 	.word	0xe000e014

0800607c <vPortValidateInterruptPriority>:
/*-----------------------------------------------------------*/

#if( configASSERT_DEFINED == 1 )

	void vPortValidateInterruptPriority( void )
	{
 800607c:	b480      	push	{r7}
 800607e:	b085      	sub	sp, #20
 8006080:	af00      	add	r7, sp, #0
	uint32_t ulCurrentInterrupt;
	uint8_t ucCurrentPriority;

		/* Obtain the number of the currently executing interrupt. */
		__asm volatile( "mrs %0, ipsr" : "=r"( ulCurrentInterrupt ) :: "memory" );
 8006082:	f3ef 8305 	mrs	r3, IPSR
 8006086:	60fb      	str	r3, [r7, #12]

		/* Is the interrupt number a user defined interrupt? */
		if( ulCurrentInterrupt >= portFIRST_USER_INTERRUPT_NUMBER )
 8006088:	68fb      	ldr	r3, [r7, #12]
 800608a:	2b0f      	cmp	r3, #15
 800608c:	d913      	bls.n	80060b6 <vPortValidateInterruptPriority+0x3a>
		{
			/* Look up the interrupt's priority. */
			ucCurrentPriority = pcInterruptPriorityRegisters[ ulCurrentInterrupt ];
 800608e:	4a15      	ldr	r2, [pc, #84]	; (80060e4 <vPortValidateInterruptPriority+0x68>)
 8006090:	68fb      	ldr	r3, [r7, #12]
 8006092:	4413      	add	r3, r2
 8006094:	781b      	ldrb	r3, [r3, #0]
 8006096:	72fb      	strb	r3, [r7, #11]
			interrupt entry is as fast and simple as possible.

			The following links provide detailed information:
			http://www.freertos.org/RTOS-Cortex-M3-M4.html
			http://www.freertos.org/FAQHelp.html */
			configASSERT( ucCurrentPriority >= ucMaxSysCallPriority );
 8006098:	4b13      	ldr	r3, [pc, #76]	; (80060e8 <vPortValidateInterruptPriority+0x6c>)
 800609a:	781b      	ldrb	r3, [r3, #0]
 800609c:	7afa      	ldrb	r2, [r7, #11]
 800609e:	429a      	cmp	r2, r3
 80060a0:	d209      	bcs.n	80060b6 <vPortValidateInterruptPriority+0x3a>
	__asm volatile
 80060a2:	f04f 0350 	mov.w	r3, #80	; 0x50
 80060a6:	f383 8811 	msr	BASEPRI, r3
 80060aa:	f3bf 8f6f 	isb	sy
 80060ae:	f3bf 8f4f 	dsb	sy
 80060b2:	607b      	str	r3, [r7, #4]
 80060b4:	e7fe      	b.n	80060b4 <vPortValidateInterruptPriority+0x38>
		configuration then the correct setting can be achieved on all Cortex-M
		devices by calling NVIC_SetPriorityGrouping( 0 ); before starting the
		scheduler.  Note however that some vendor specific peripheral libraries
		assume a non-zero priority group setting, in which cases using a value
		of zero will result in unpredictable behaviour. */
		configASSERT( ( portAIRCR_REG & portPRIORITY_GROUP_MASK ) <= ulMaxPRIGROUPValue );
 80060b6:	4b0d      	ldr	r3, [pc, #52]	; (80060ec <vPortValidateInterruptPriority+0x70>)
 80060b8:	681b      	ldr	r3, [r3, #0]
 80060ba:	f403 62e0 	and.w	r2, r3, #1792	; 0x700
 80060be:	4b0c      	ldr	r3, [pc, #48]	; (80060f0 <vPortValidateInterruptPriority+0x74>)
 80060c0:	681b      	ldr	r3, [r3, #0]
 80060c2:	429a      	cmp	r2, r3
 80060c4:	d909      	bls.n	80060da <vPortValidateInterruptPriority+0x5e>
 80060c6:	f04f 0350 	mov.w	r3, #80	; 0x50
 80060ca:	f383 8811 	msr	BASEPRI, r3
 80060ce:	f3bf 8f6f 	isb	sy
 80060d2:	f3bf 8f4f 	dsb	sy
 80060d6:	603b      	str	r3, [r7, #0]
 80060d8:	e7fe      	b.n	80060d8 <vPortValidateInterruptPriority+0x5c>
	}
 80060da:	bf00      	nop
 80060dc:	3714      	adds	r7, #20
 80060de:	46bd      	mov	sp, r7
 80060e0:	bc80      	pop	{r7}
 80060e2:	4770      	bx	lr
 80060e4:	e000e3f0 	.word	0xe000e3f0
 80060e8:	200003b4 	.word	0x200003b4
 80060ec:	e000ed0c 	.word	0xe000ed0c
 80060f0:	200003b8 	.word	0x200003b8

080060f4 <pvPortMalloc>:
static size_t xBlockAllocatedBit = 0;

/*-----------------------------------------------------------*/

void *pvPortMalloc( size_t xWantedSize )
{
 80060f4:	b580      	push	{r7, lr}
 80060f6:	b08a      	sub	sp, #40	; 0x28
 80060f8:	af00      	add	r7, sp, #0
 80060fa:	6078      	str	r0, [r7, #4]
BlockLink_t *pxBlock, *pxPreviousBlock, *pxNewBlockLink;
void *pvReturn = NULL;
 80060fc:	2300      	movs	r3, #0
 80060fe:	61fb      	str	r3, [r7, #28]

	vTaskSuspendAll();
 8006100:	f7ff fb0e 	bl	8005720 <vTaskSuspendAll>
	{
		/* If this is the first call to malloc then the heap will require
		initialisation to setup the list of free blocks. */
		if( pxEnd == NULL )
 8006104:	4b57      	ldr	r3, [pc, #348]	; (8006264 <pvPortMalloc+0x170>)
 8006106:	681b      	ldr	r3, [r3, #0]
 8006108:	2b00      	cmp	r3, #0
 800610a:	d101      	bne.n	8006110 <pvPortMalloc+0x1c>
		{
			prvHeapInit();
 800610c:	f000 f90c 	bl	8006328 <prvHeapInit>

		/* Check the requested block size is not so large that the top bit is
		set.  The top bit of the block size member of the BlockLink_t structure
		is used to determine who owns the block - the application or the
		kernel, so it must be free. */
		if( ( xWantedSize & xBlockAllocatedBit ) == 0 )
 8006110:	4b55      	ldr	r3, [pc, #340]	; (8006268 <pvPortMalloc+0x174>)
 8006112:	681a      	ldr	r2, [r3, #0]
 8006114:	687b      	ldr	r3, [r7, #4]
 8006116:	4013      	ands	r3, r2
 8006118:	2b00      	cmp	r3, #0
 800611a:	f040 808c 	bne.w	8006236 <pvPortMalloc+0x142>
		{
			/* The wanted size is increased so it can contain a BlockLink_t
			structure in addition to the requested amount of bytes. */
			if( xWantedSize > 0 )
 800611e:	687b      	ldr	r3, [r7, #4]
 8006120:	2b00      	cmp	r3, #0
 8006122:	d01c      	beq.n	800615e <pvPortMalloc+0x6a>
			{
				xWantedSize += xHeapStructSize;
 8006124:	2208      	movs	r2, #8
 8006126:	687b      	ldr	r3, [r7, #4]
 8006128:	4413      	add	r3, r2
 800612a:	607b      	str	r3, [r7, #4]

				/* Ensure that blocks are always aligned to the required number
				of bytes. */
				if( ( xWantedSize & portBYTE_ALIGNMENT_MASK ) != 0x00 )
 800612c:	687b      	ldr	r3, [r7, #4]
 800612e:	f003 0307 	and.w	r3, r3, #7
 8006132:	2b00      	cmp	r3, #0
 8006134:	d013      	beq.n	800615e <pvPortMalloc+0x6a>
				{
					/* Byte alignment required. */
					xWantedSize += ( portBYTE_ALIGNMENT - ( xWantedSize & portBYTE_ALIGNMENT_MASK ) );
 8006136:	687b      	ldr	r3, [r7, #4]
 8006138:	f023 0307 	bic.w	r3, r3, #7
 800613c:	3308      	adds	r3, #8
 800613e:	607b      	str	r3, [r7, #4]
					configASSERT( ( xWantedSize & portBYTE_ALIGNMENT_MASK ) == 0 );
 8006140:	687b      	ldr	r3, [r7, #4]
 8006142:	f003 0307 	and.w	r3, r3, #7
 8006146:	2b00      	cmp	r3, #0
 8006148:	d009      	beq.n	800615e <pvPortMalloc+0x6a>
 800614a:	f04f 0350 	mov.w	r3, #80	; 0x50
 800614e:	f383 8811 	msr	BASEPRI, r3
 8006152:	f3bf 8f6f 	isb	sy
 8006156:	f3bf 8f4f 	dsb	sy
 800615a:	617b      	str	r3, [r7, #20]
 800615c:	e7fe      	b.n	800615c <pvPortMalloc+0x68>
			else
			{
				mtCOVERAGE_TEST_MARKER();
			}

			if( ( xWantedSize > 0 ) && ( xWantedSize <= xFreeBytesRemaining ) )
 800615e:	687b      	ldr	r3, [r7, #4]
 8006160:	2b00      	cmp	r3, #0
 8006162:	d068      	beq.n	8006236 <pvPortMalloc+0x142>
 8006164:	4b41      	ldr	r3, [pc, #260]	; (800626c <pvPortMalloc+0x178>)
 8006166:	681b      	ldr	r3, [r3, #0]
 8006168:	687a      	ldr	r2, [r7, #4]
 800616a:	429a      	cmp	r2, r3
 800616c:	d863      	bhi.n	8006236 <pvPortMalloc+0x142>
			{
				/* Traverse the list from the start	(lowest address) block until
				one	of adequate size is found. */
				pxPreviousBlock = &xStart;
 800616e:	4b40      	ldr	r3, [pc, #256]	; (8006270 <pvPortMalloc+0x17c>)
 8006170:	623b      	str	r3, [r7, #32]
				pxBlock = xStart.pxNextFreeBlock;
 8006172:	4b3f      	ldr	r3, [pc, #252]	; (8006270 <pvPortMalloc+0x17c>)
 8006174:	681b      	ldr	r3, [r3, #0]
 8006176:	627b      	str	r3, [r7, #36]	; 0x24
				while( ( pxBlock->xBlockSize < xWantedSize ) && ( pxBlock->pxNextFreeBlock != NULL ) )
 8006178:	e004      	b.n	8006184 <pvPortMalloc+0x90>
				{
					pxPreviousBlock = pxBlock;
 800617a:	6a7b      	ldr	r3, [r7, #36]	; 0x24
 800617c:	623b      	str	r3, [r7, #32]
					pxBlock = pxBlock->pxNextFreeBlock;
 800617e:	6a7b      	ldr	r3, [r7, #36]	; 0x24
 8006180:	681b      	ldr	r3, [r3, #0]
 8006182:	627b      	str	r3, [r7, #36]	; 0x24
				while( ( pxBlock->xBlockSize < xWantedSize ) && ( pxBlock->pxNextFreeBlock != NULL ) )
 8006184:	6a7b      	ldr	r3, [r7, #36]	; 0x24
 8006186:	685b      	ldr	r3, [r3, #4]
 8006188:	687a      	ldr	r2, [r7, #4]
 800618a:	429a      	cmp	r2, r3
 800618c:	d903      	bls.n	8006196 <pvPortMalloc+0xa2>
 800618e:	6a7b      	ldr	r3, [r7, #36]	; 0x24
 8006190:	681b      	ldr	r3, [r3, #0]
 8006192:	2b00      	cmp	r3, #0
 8006194:	d1f1      	bne.n	800617a <pvPortMalloc+0x86>
				}

				/* If the end marker was reached then a block of adequate size
				was	not found. */
				if( pxBlock != pxEnd )
 8006196:	4b33      	ldr	r3, [pc, #204]	; (8006264 <pvPortMalloc+0x170>)
 8006198:	681b      	ldr	r3, [r3, #0]
 800619a:	6a7a      	ldr	r2, [r7, #36]	; 0x24
 800619c:	429a      	cmp	r2, r3
 800619e:	d04a      	beq.n	8006236 <pvPortMalloc+0x142>
				{
					/* Return the memory space pointed to - jumping over the
					BlockLink_t structure at its start. */
					pvReturn = ( void * ) ( ( ( uint8_t * ) pxPreviousBlock->pxNextFreeBlock ) + xHeapStructSize );
 80061a0:	6a3b      	ldr	r3, [r7, #32]
 80061a2:	681b      	ldr	r3, [r3, #0]
 80061a4:	2208      	movs	r2, #8
 80061a6:	4413      	add	r3, r2
 80061a8:	61fb      	str	r3, [r7, #28]

					/* This block is being returned for use so must be taken out
					of the list of free blocks. */
					pxPreviousBlock->pxNextFreeBlock = pxBlock->pxNextFreeBlock;
 80061aa:	6a7b      	ldr	r3, [r7, #36]	; 0x24
 80061ac:	681a      	ldr	r2, [r3, #0]
 80061ae:	6a3b      	ldr	r3, [r7, #32]
 80061b0:	601a      	str	r2, [r3, #0]

					/* If the block is larger than required it can be split into
					two. */
					if( ( pxBlock->xBlockSize - xWantedSize ) > heapMINIMUM_BLOCK_SIZE )
 80061b2:	6a7b      	ldr	r3, [r7, #36]	; 0x24
 80061b4:	685a      	ldr	r2, [r3, #4]
 80061b6:	687b      	ldr	r3, [r7, #4]
 80061b8:	1ad2      	subs	r2, r2, r3
 80061ba:	2308      	movs	r3, #8
 80061bc:	005b      	lsls	r3, r3, #1
 80061be:	429a      	cmp	r2, r3
 80061c0:	d91e      	bls.n	8006200 <pvPortMalloc+0x10c>
					{
						/* This block is to be split into two.  Create a new
						block following the number of bytes requested. The void
						cast is used to prevent byte alignment warnings from the
						compiler. */
						pxNewBlockLink = ( void * ) ( ( ( uint8_t * ) pxBlock ) + xWantedSize );
 80061c2:	6a7a      	ldr	r2, [r7, #36]	; 0x24
 80061c4:	687b      	ldr	r3, [r7, #4]
 80061c6:	4413      	add	r3, r2
 80061c8:	61bb      	str	r3, [r7, #24]
						configASSERT( ( ( ( size_t ) pxNewBlockLink ) & portBYTE_ALIGNMENT_MASK ) == 0 );
 80061ca:	69bb      	ldr	r3, [r7, #24]
 80061cc:	f003 0307 	and.w	r3, r3, #7
 80061d0:	2b00      	cmp	r3, #0
 80061d2:	d009      	beq.n	80061e8 <pvPortMalloc+0xf4>
 80061d4:	f04f 0350 	mov.w	r3, #80	; 0x50
 80061d8:	f383 8811 	msr	BASEPRI, r3
 80061dc:	f3bf 8f6f 	isb	sy
 80061e0:	f3bf 8f4f 	dsb	sy
 80061e4:	613b      	str	r3, [r7, #16]
 80061e6:	e7fe      	b.n	80061e6 <pvPortMalloc+0xf2>

						/* Calculate the sizes of two blocks split from the
						single block. */
						pxNewBlockLink->xBlockSize = pxBlock->xBlockSize - xWantedSize;
 80061e8:	6a7b      	ldr	r3, [r7, #36]	; 0x24
 80061ea:	685a      	ldr	r2, [r3, #4]
 80061ec:	687b      	ldr	r3, [r7, #4]
 80061ee:	1ad2      	subs	r2, r2, r3
 80061f0:	69bb      	ldr	r3, [r7, #24]
 80061f2:	605a      	str	r2, [r3, #4]
						pxBlock->xBlockSize = xWantedSize;
 80061f4:	6a7b      	ldr	r3, [r7, #36]	; 0x24
 80061f6:	687a      	ldr	r2, [r7, #4]
 80061f8:	605a      	str	r2, [r3, #4]

						/* Insert the new block into the list of free blocks. */
						prvInsertBlockIntoFreeList( pxNewBlockLink );
 80061fa:	69b8      	ldr	r0, [r7, #24]
 80061fc:	f000 f8f6 	bl	80063ec <prvInsertBlockIntoFreeList>
					else
					{
						mtCOVERAGE_TEST_MARKER();
					}

					xFreeBytesRemaining -= pxBlock->xBlockSize;
 8006200:	4b1a      	ldr	r3, [pc, #104]	; (800626c <pvPortMalloc+0x178>)
 8006202:	681a      	ldr	r2, [r3, #0]
 8006204:	6a7b      	ldr	r3, [r7, #36]	; 0x24
 8006206:	685b      	ldr	r3, [r3, #4]
 8006208:	1ad3      	subs	r3, r2, r3
 800620a:	4a18      	ldr	r2, [pc, #96]	; (800626c <pvPortMalloc+0x178>)
 800620c:	6013      	str	r3, [r2, #0]

					if( xFreeBytesRemaining < xMinimumEverFreeBytesRemaining )
 800620e:	4b17      	ldr	r3, [pc, #92]	; (800626c <pvPortMalloc+0x178>)
 8006210:	681a      	ldr	r2, [r3, #0]
 8006212:	4b18      	ldr	r3, [pc, #96]	; (8006274 <pvPortMalloc+0x180>)
 8006214:	681b      	ldr	r3, [r3, #0]
 8006216:	429a      	cmp	r2, r3
 8006218:	d203      	bcs.n	8006222 <pvPortMalloc+0x12e>
					{
						xMinimumEverFreeBytesRemaining = xFreeBytesRemaining;
 800621a:	4b14      	ldr	r3, [pc, #80]	; (800626c <pvPortMalloc+0x178>)
 800621c:	681b      	ldr	r3, [r3, #0]
 800621e:	4a15      	ldr	r2, [pc, #84]	; (8006274 <pvPortMalloc+0x180>)
 8006220:	6013      	str	r3, [r2, #0]
						mtCOVERAGE_TEST_MARKER();
					}

					/* The block is being returned - it is allocated and owned
					by the application and has no "next" block. */
					pxBlock->xBlockSize |= xBlockAllocatedBit;
 8006222:	6a7b      	ldr	r3, [r7, #36]	; 0x24
 8006224:	685a      	ldr	r2, [r3, #4]
 8006226:	4b10      	ldr	r3, [pc, #64]	; (8006268 <pvPortMalloc+0x174>)
 8006228:	681b      	ldr	r3, [r3, #0]
 800622a:	431a      	orrs	r2, r3
 800622c:	6a7b      	ldr	r3, [r7, #36]	; 0x24
 800622e:	605a      	str	r2, [r3, #4]
					pxBlock->pxNextFreeBlock = NULL;
 8006230:	6a7b      	ldr	r3, [r7, #36]	; 0x24
 8006232:	2200      	movs	r2, #0
 8006234:	601a      	str	r2, [r3, #0]
			mtCOVERAGE_TEST_MARKER();
		}

		traceMALLOC( pvReturn, xWantedSize );
	}
	( void ) xTaskResumeAll();
 8006236:	f7ff fa81 	bl	800573c <xTaskResumeAll>
			mtCOVERAGE_TEST_MARKER();
		}
	}
	#endif

	configASSERT( ( ( ( size_t ) pvReturn ) & ( size_t ) portBYTE_ALIGNMENT_MASK ) == 0 );
 800623a:	69fb      	ldr	r3, [r7, #28]
 800623c:	f003 0307 	and.w	r3, r3, #7
 8006240:	2b00      	cmp	r3, #0
 8006242:	d009      	beq.n	8006258 <pvPortMalloc+0x164>
 8006244:	f04f 0350 	mov.w	r3, #80	; 0x50
 8006248:	f383 8811 	msr	BASEPRI, r3
 800624c:	f3bf 8f6f 	isb	sy
 8006250:	f3bf 8f4f 	dsb	sy
 8006254:	60fb      	str	r3, [r7, #12]
 8006256:	e7fe      	b.n	8006256 <pvPortMalloc+0x162>
	return pvReturn;
 8006258:	69fb      	ldr	r3, [r7, #28]
}
 800625a:	4618      	mov	r0, r3
 800625c:	3728      	adds	r7, #40	; 0x28
 800625e:	46bd      	mov	sp, r7
 8006260:	bd80      	pop	{r7, pc}
 8006262:	bf00      	nop
 8006264:	20001bc4 	.word	0x20001bc4
 8006268:	20001bd0 	.word	0x20001bd0
 800626c:	20001bc8 	.word	0x20001bc8
 8006270:	20001bbc 	.word	0x20001bbc
 8006274:	20001bcc 	.word	0x20001bcc

08006278 <vPortFree>:
/*-----------------------------------------------------------*/

void vPortFree( void *pv )
{
 8006278:	b580      	push	{r7, lr}
 800627a:	b086      	sub	sp, #24
 800627c:	af00      	add	r7, sp, #0
 800627e:	6078      	str	r0, [r7, #4]
uint8_t *puc = ( uint8_t * ) pv;
 8006280:	687b      	ldr	r3, [r7, #4]
 8006282:	617b      	str	r3, [r7, #20]
BlockLink_t *pxLink;

	if( pv != NULL )
 8006284:	687b      	ldr	r3, [r7, #4]
 8006286:	2b00      	cmp	r3, #0
 8006288:	d046      	beq.n	8006318 <vPortFree+0xa0>
	{
		/* The memory being freed will have an BlockLink_t structure immediately
		before it. */
		puc -= xHeapStructSize;
 800628a:	2308      	movs	r3, #8
 800628c:	425b      	negs	r3, r3
 800628e:	697a      	ldr	r2, [r7, #20]
 8006290:	4413      	add	r3, r2
 8006292:	617b      	str	r3, [r7, #20]

		/* This casting is to keep the compiler from issuing warnings. */
		pxLink = ( void * ) puc;
 8006294:	697b      	ldr	r3, [r7, #20]
 8006296:	613b      	str	r3, [r7, #16]

		/* Check the block is actually allocated. */
		configASSERT( ( pxLink->xBlockSize & xBlockAllocatedBit ) != 0 );
 8006298:	693b      	ldr	r3, [r7, #16]
 800629a:	685a      	ldr	r2, [r3, #4]
 800629c:	4b20      	ldr	r3, [pc, #128]	; (8006320 <vPortFree+0xa8>)
 800629e:	681b      	ldr	r3, [r3, #0]
 80062a0:	4013      	ands	r3, r2
 80062a2:	2b00      	cmp	r3, #0
 80062a4:	d109      	bne.n	80062ba <vPortFree+0x42>
 80062a6:	f04f 0350 	mov.w	r3, #80	; 0x50
 80062aa:	f383 8811 	msr	BASEPRI, r3
 80062ae:	f3bf 8f6f 	isb	sy
 80062b2:	f3bf 8f4f 	dsb	sy
 80062b6:	60fb      	str	r3, [r7, #12]
 80062b8:	e7fe      	b.n	80062b8 <vPortFree+0x40>
		configASSERT( pxLink->pxNextFreeBlock == NULL );
 80062ba:	693b      	ldr	r3, [r7, #16]
 80062bc:	681b      	ldr	r3, [r3, #0]
 80062be:	2b00      	cmp	r3, #0
 80062c0:	d009      	beq.n	80062d6 <vPortFree+0x5e>
 80062c2:	f04f 0350 	mov.w	r3, #80	; 0x50
 80062c6:	f383 8811 	msr	BASEPRI, r3
 80062ca:	f3bf 8f6f 	isb	sy
 80062ce:	f3bf 8f4f 	dsb	sy
 80062d2:	60bb      	str	r3, [r7, #8]
 80062d4:	e7fe      	b.n	80062d4 <vPortFree+0x5c>

		if( ( pxLink->xBlockSize & xBlockAllocatedBit ) != 0 )
 80062d6:	693b      	ldr	r3, [r7, #16]
 80062d8:	685a      	ldr	r2, [r3, #4]
 80062da:	4b11      	ldr	r3, [pc, #68]	; (8006320 <vPortFree+0xa8>)
 80062dc:	681b      	ldr	r3, [r3, #0]
 80062de:	4013      	ands	r3, r2
 80062e0:	2b00      	cmp	r3, #0
 80062e2:	d019      	beq.n	8006318 <vPortFree+0xa0>
		{
			if( pxLink->pxNextFreeBlock == NULL )
 80062e4:	693b      	ldr	r3, [r7, #16]
 80062e6:	681b      	ldr	r3, [r3, #0]
 80062e8:	2b00      	cmp	r3, #0
 80062ea:	d115      	bne.n	8006318 <vPortFree+0xa0>
			{
				/* The block is being returned to the heap - it is no longer
				allocated. */
				pxLink->xBlockSize &= ~xBlockAllocatedBit;
 80062ec:	693b      	ldr	r3, [r7, #16]
 80062ee:	685a      	ldr	r2, [r3, #4]
 80062f0:	4b0b      	ldr	r3, [pc, #44]	; (8006320 <vPortFree+0xa8>)
 80062f2:	681b      	ldr	r3, [r3, #0]
 80062f4:	43db      	mvns	r3, r3
 80062f6:	401a      	ands	r2, r3
 80062f8:	693b      	ldr	r3, [r7, #16]
 80062fa:	605a      	str	r2, [r3, #4]

				vTaskSuspendAll();
 80062fc:	f7ff fa10 	bl	8005720 <vTaskSuspendAll>
				{
					/* Add this block to the list of free blocks. */
					xFreeBytesRemaining += pxLink->xBlockSize;
 8006300:	693b      	ldr	r3, [r7, #16]
 8006302:	685a      	ldr	r2, [r3, #4]
 8006304:	4b07      	ldr	r3, [pc, #28]	; (8006324 <vPortFree+0xac>)
 8006306:	681b      	ldr	r3, [r3, #0]
 8006308:	4413      	add	r3, r2
 800630a:	4a06      	ldr	r2, [pc, #24]	; (8006324 <vPortFree+0xac>)
 800630c:	6013      	str	r3, [r2, #0]
					traceFREE( pv, pxLink->xBlockSize );
					prvInsertBlockIntoFreeList( ( ( BlockLink_t * ) pxLink ) );
 800630e:	6938      	ldr	r0, [r7, #16]
 8006310:	f000 f86c 	bl	80063ec <prvInsertBlockIntoFreeList>
				}
				( void ) xTaskResumeAll();
 8006314:	f7ff fa12 	bl	800573c <xTaskResumeAll>
		else
		{
			mtCOVERAGE_TEST_MARKER();
		}
	}
}
 8006318:	bf00      	nop
 800631a:	3718      	adds	r7, #24
 800631c:	46bd      	mov	sp, r7
 800631e:	bd80      	pop	{r7, pc}
 8006320:	20001bd0 	.word	0x20001bd0
 8006324:	20001bc8 	.word	0x20001bc8

08006328 <prvHeapInit>:
	/* This just exists to keep the linker quiet. */
}
/*-----------------------------------------------------------*/

static void prvHeapInit( void )
{
 8006328:	b480      	push	{r7}
 800632a:	b085      	sub	sp, #20
 800632c:	af00      	add	r7, sp, #0
BlockLink_t *pxFirstFreeBlock;
uint8_t *pucAlignedHeap;
size_t uxAddress;
size_t xTotalHeapSize = configTOTAL_HEAP_SIZE;
 800632e:	f44f 53c0 	mov.w	r3, #6144	; 0x1800
 8006332:	60bb      	str	r3, [r7, #8]

	/* Ensure the heap starts on a correctly aligned boundary. */
	uxAddress = ( size_t ) ucHeap;
 8006334:	4b27      	ldr	r3, [pc, #156]	; (80063d4 <prvHeapInit+0xac>)
 8006336:	60fb      	str	r3, [r7, #12]

	if( ( uxAddress & portBYTE_ALIGNMENT_MASK ) != 0 )
 8006338:	68fb      	ldr	r3, [r7, #12]
 800633a:	f003 0307 	and.w	r3, r3, #7
 800633e:	2b00      	cmp	r3, #0
 8006340:	d00c      	beq.n	800635c <prvHeapInit+0x34>
	{
		uxAddress += ( portBYTE_ALIGNMENT - 1 );
 8006342:	68fb      	ldr	r3, [r7, #12]
 8006344:	3307      	adds	r3, #7
 8006346:	60fb      	str	r3, [r7, #12]
		uxAddress &= ~( ( size_t ) portBYTE_ALIGNMENT_MASK );
 8006348:	68fb      	ldr	r3, [r7, #12]
 800634a:	f023 0307 	bic.w	r3, r3, #7
 800634e:	60fb      	str	r3, [r7, #12]
		xTotalHeapSize -= uxAddress - ( size_t ) ucHeap;
 8006350:	68ba      	ldr	r2, [r7, #8]
 8006352:	68fb      	ldr	r3, [r7, #12]
 8006354:	1ad3      	subs	r3, r2, r3
 8006356:	4a1f      	ldr	r2, [pc, #124]	; (80063d4 <prvHeapInit+0xac>)
 8006358:	4413      	add	r3, r2
 800635a:	60bb      	str	r3, [r7, #8]
	}

	pucAlignedHeap = ( uint8_t * ) uxAddress;
 800635c:	68fb      	ldr	r3, [r7, #12]
 800635e:	607b      	str	r3, [r7, #4]

	/* xStart is used to hold a pointer to the first item in the list of free
	blocks.  The void cast is used to prevent compiler warnings. */
	xStart.pxNextFreeBlock = ( void * ) pucAlignedHeap;
 8006360:	4a1d      	ldr	r2, [pc, #116]	; (80063d8 <prvHeapInit+0xb0>)
 8006362:	687b      	ldr	r3, [r7, #4]
 8006364:	6013      	str	r3, [r2, #0]
	xStart.xBlockSize = ( size_t ) 0;
 8006366:	4b1c      	ldr	r3, [pc, #112]	; (80063d8 <prvHeapInit+0xb0>)
 8006368:	2200      	movs	r2, #0
 800636a:	605a      	str	r2, [r3, #4]

	/* pxEnd is used to mark the end of the list of free blocks and is inserted
	at the end of the heap space. */
	uxAddress = ( ( size_t ) pucAlignedHeap ) + xTotalHeapSize;
 800636c:	687b      	ldr	r3, [r7, #4]
 800636e:	68ba      	ldr	r2, [r7, #8]
 8006370:	4413      	add	r3, r2
 8006372:	60fb      	str	r3, [r7, #12]
	uxAddress -= xHeapStructSize;
 8006374:	2208      	movs	r2, #8
 8006376:	68fb      	ldr	r3, [r7, #12]
 8006378:	1a9b      	subs	r3, r3, r2
 800637a:	60fb      	str	r3, [r7, #12]
	uxAddress &= ~( ( size_t ) portBYTE_ALIGNMENT_MASK );
 800637c:	68fb      	ldr	r3, [r7, #12]
 800637e:	f023 0307 	bic.w	r3, r3, #7
 8006382:	60fb      	str	r3, [r7, #12]
	pxEnd = ( void * ) uxAddress;
 8006384:	68fb      	ldr	r3, [r7, #12]
 8006386:	4a15      	ldr	r2, [pc, #84]	; (80063dc <prvHeapInit+0xb4>)
 8006388:	6013      	str	r3, [r2, #0]
	pxEnd->xBlockSize = 0;
 800638a:	4b14      	ldr	r3, [pc, #80]	; (80063dc <prvHeapInit+0xb4>)
 800638c:	681b      	ldr	r3, [r3, #0]
 800638e:	2200      	movs	r2, #0
 8006390:	605a      	str	r2, [r3, #4]
	pxEnd->pxNextFreeBlock = NULL;
 8006392:	4b12      	ldr	r3, [pc, #72]	; (80063dc <prvHeapInit+0xb4>)
 8006394:	681b      	ldr	r3, [r3, #0]
 8006396:	2200      	movs	r2, #0
 8006398:	601a      	str	r2, [r3, #0]

	/* To start with there is a single free block that is sized to take up the
	entire heap space, minus the space taken by pxEnd. */
	pxFirstFreeBlock = ( void * ) pucAlignedHeap;
 800639a:	687b      	ldr	r3, [r7, #4]
 800639c:	603b      	str	r3, [r7, #0]
	pxFirstFreeBlock->xBlockSize = uxAddress - ( size_t ) pxFirstFreeBlock;
 800639e:	683b      	ldr	r3, [r7, #0]
 80063a0:	68fa      	ldr	r2, [r7, #12]
 80063a2:	1ad2      	subs	r2, r2, r3
 80063a4:	683b      	ldr	r3, [r7, #0]
 80063a6:	605a      	str	r2, [r3, #4]
	pxFirstFreeBlock->pxNextFreeBlock = pxEnd;
 80063a8:	4b0c      	ldr	r3, [pc, #48]	; (80063dc <prvHeapInit+0xb4>)
 80063aa:	681a      	ldr	r2, [r3, #0]
 80063ac:	683b      	ldr	r3, [r7, #0]
 80063ae:	601a      	str	r2, [r3, #0]

	/* Only one block exists - and it covers the entire usable heap space. */
	xMinimumEverFreeBytesRemaining = pxFirstFreeBlock->xBlockSize;
 80063b0:	683b      	ldr	r3, [r7, #0]
 80063b2:	685b      	ldr	r3, [r3, #4]
 80063b4:	4a0a      	ldr	r2, [pc, #40]	; (80063e0 <prvHeapInit+0xb8>)
 80063b6:	6013      	str	r3, [r2, #0]
	xFreeBytesRemaining = pxFirstFreeBlock->xBlockSize;
 80063b8:	683b      	ldr	r3, [r7, #0]
 80063ba:	685b      	ldr	r3, [r3, #4]
 80063bc:	4a09      	ldr	r2, [pc, #36]	; (80063e4 <prvHeapInit+0xbc>)
 80063be:	6013      	str	r3, [r2, #0]

	/* Work out the position of the top bit in a size_t variable. */
	xBlockAllocatedBit = ( ( size_t ) 1 ) << ( ( sizeof( size_t ) * heapBITS_PER_BYTE ) - 1 );
 80063c0:	4b09      	ldr	r3, [pc, #36]	; (80063e8 <prvHeapInit+0xc0>)
 80063c2:	f04f 4200 	mov.w	r2, #2147483648	; 0x80000000
 80063c6:	601a      	str	r2, [r3, #0]
}
 80063c8:	bf00      	nop
 80063ca:	3714      	adds	r7, #20
 80063cc:	46bd      	mov	sp, r7
 80063ce:	bc80      	pop	{r7}
 80063d0:	4770      	bx	lr
 80063d2:	bf00      	nop
 80063d4:	200003bc 	.word	0x200003bc
 80063d8:	20001bbc 	.word	0x20001bbc
 80063dc:	20001bc4 	.word	0x20001bc4
 80063e0:	20001bcc 	.word	0x20001bcc
 80063e4:	20001bc8 	.word	0x20001bc8
 80063e8:	20001bd0 	.word	0x20001bd0

080063ec <prvInsertBlockIntoFreeList>:
/*-----------------------------------------------------------*/

static void prvInsertBlockIntoFreeList( BlockLink_t *pxBlockToInsert )
{
 80063ec:	b480      	push	{r7}
 80063ee:	b085      	sub	sp, #20
 80063f0:	af00      	add	r7, sp, #0
 80063f2:	6078      	str	r0, [r7, #4]
BlockLink_t *pxIterator;
uint8_t *puc;

	/* Iterate through the list until a block is found that has a higher address
	than the block being inserted. */
	for( pxIterator = &xStart; pxIterator->pxNextFreeBlock < pxBlockToInsert; pxIterator = pxIterator->pxNextFreeBlock )
 80063f4:	4b27      	ldr	r3, [pc, #156]	; (8006494 <prvInsertBlockIntoFreeList+0xa8>)
 80063f6:	60fb      	str	r3, [r7, #12]
 80063f8:	e002      	b.n	8006400 <prvInsertBlockIntoFreeList+0x14>
 80063fa:	68fb      	ldr	r3, [r7, #12]
 80063fc:	681b      	ldr	r3, [r3, #0]
 80063fe:	60fb      	str	r3, [r7, #12]
 8006400:	68fb      	ldr	r3, [r7, #12]
 8006402:	681b      	ldr	r3, [r3, #0]
 8006404:	687a      	ldr	r2, [r7, #4]
 8006406:	429a      	cmp	r2, r3
 8006408:	d8f7      	bhi.n	80063fa <prvInsertBlockIntoFreeList+0xe>
		/* Nothing to do here, just iterate to the right position. */
	}

	/* Do the block being inserted, and the block it is being inserted after
	make a contiguous block of memory? */
	puc = ( uint8_t * ) pxIterator;
 800640a:	68fb      	ldr	r3, [r7, #12]
 800640c:	60bb      	str	r3, [r7, #8]
	if( ( puc + pxIterator->xBlockSize ) == ( uint8_t * ) pxBlockToInsert )
 800640e:	68fb      	ldr	r3, [r7, #12]
 8006410:	685b      	ldr	r3, [r3, #4]
 8006412:	68ba      	ldr	r2, [r7, #8]
 8006414:	4413      	add	r3, r2
 8006416:	687a      	ldr	r2, [r7, #4]
 8006418:	429a      	cmp	r2, r3
 800641a:	d108      	bne.n	800642e <prvInsertBlockIntoFreeList+0x42>
	{
		pxIterator->xBlockSize += pxBlockToInsert->xBlockSize;
 800641c:	68fb      	ldr	r3, [r7, #12]
 800641e:	685a      	ldr	r2, [r3, #4]
 8006420:	687b      	ldr	r3, [r7, #4]
 8006422:	685b      	ldr	r3, [r3, #4]
 8006424:	441a      	add	r2, r3
 8006426:	68fb      	ldr	r3, [r7, #12]
 8006428:	605a      	str	r2, [r3, #4]
		pxBlockToInsert = pxIterator;
 800642a:	68fb      	ldr	r3, [r7, #12]
 800642c:	607b      	str	r3, [r7, #4]
		mtCOVERAGE_TEST_MARKER();
	}

	/* Do the block being inserted, and the block it is being inserted before
	make a contiguous block of memory? */
	puc = ( uint8_t * ) pxBlockToInsert;
 800642e:	687b      	ldr	r3, [r7, #4]
 8006430:	60bb      	str	r3, [r7, #8]
	if( ( puc + pxBlockToInsert->xBlockSize ) == ( uint8_t * ) pxIterator->pxNextFreeBlock )
 8006432:	687b      	ldr	r3, [r7, #4]
 8006434:	685b      	ldr	r3, [r3, #4]
 8006436:	68ba      	ldr	r2, [r7, #8]
 8006438:	441a      	add	r2, r3
 800643a:	68fb      	ldr	r3, [r7, #12]
 800643c:	681b      	ldr	r3, [r3, #0]
 800643e:	429a      	cmp	r2, r3
 8006440:	d118      	bne.n	8006474 <prvInsertBlockIntoFreeList+0x88>
	{
		if( pxIterator->pxNextFreeBlock != pxEnd )
 8006442:	68fb      	ldr	r3, [r7, #12]
 8006444:	681a      	ldr	r2, [r3, #0]
 8006446:	4b14      	ldr	r3, [pc, #80]	; (8006498 <prvInsertBlockIntoFreeList+0xac>)
 8006448:	681b      	ldr	r3, [r3, #0]
 800644a:	429a      	cmp	r2, r3
 800644c:	d00d      	beq.n	800646a <prvInsertBlockIntoFreeList+0x7e>
		{
			/* Form one big block from the two blocks. */
			pxBlockToInsert->xBlockSize += pxIterator->pxNextFreeBlock->xBlockSize;
 800644e:	687b      	ldr	r3, [r7, #4]
 8006450:	685a      	ldr	r2, [r3, #4]
 8006452:	68fb      	ldr	r3, [r7, #12]
 8006454:	681b      	ldr	r3, [r3, #0]
 8006456:	685b      	ldr	r3, [r3, #4]
 8006458:	441a      	add	r2, r3
 800645a:	687b      	ldr	r3, [r7, #4]
 800645c:	605a      	str	r2, [r3, #4]
			pxBlockToInsert->pxNextFreeBlock = pxIterator->pxNextFreeBlock->pxNextFreeBlock;
 800645e:	68fb      	ldr	r3, [r7, #12]
 8006460:	681b      	ldr	r3, [r3, #0]
 8006462:	681a      	ldr	r2, [r3, #0]
 8006464:	687b      	ldr	r3, [r7, #4]
 8006466:	601a      	str	r2, [r3, #0]
 8006468:	e008      	b.n	800647c <prvInsertBlockIntoFreeList+0x90>
		}
		else
		{
			pxBlockToInsert->pxNextFreeBlock = pxEnd;
 800646a:	4b0b      	ldr	r3, [pc, #44]	; (8006498 <prvInsertBlockIntoFreeList+0xac>)
 800646c:	681a      	ldr	r2, [r3, #0]
 800646e:	687b      	ldr	r3, [r7, #4]
 8006470:	601a      	str	r2, [r3, #0]
 8006472:	e003      	b.n	800647c <prvInsertBlockIntoFreeList+0x90>
		}
	}
	else
	{
		pxBlockToInsert->pxNextFreeBlock = pxIterator->pxNextFreeBlock;
 8006474:	68fb      	ldr	r3, [r7, #12]
 8006476:	681a      	ldr	r2, [r3, #0]
 8006478:	687b      	ldr	r3, [r7, #4]
 800647a:	601a      	str	r2, [r3, #0]

	/* If the block being inserted plugged a gab, so was merged with the block
	before and the block after, then it's pxNextFreeBlock pointer will have
	already been set, and should not be set here as that would make it point
	to itself. */
	if( pxIterator != pxBlockToInsert )
 800647c:	68fa      	ldr	r2, [r7, #12]
 800647e:	687b      	ldr	r3, [r7, #4]
 8006480:	429a      	cmp	r2, r3
 8006482:	d002      	beq.n	800648a <prvInsertBlockIntoFreeList+0x9e>
	{
		pxIterator->pxNextFreeBlock = pxBlockToInsert;
 8006484:	68fb      	ldr	r3, [r7, #12]
 8006486:	687a      	ldr	r2, [r7, #4]
 8006488:	601a      	str	r2, [r3, #0]
	}
	else
	{
		mtCOVERAGE_TEST_MARKER();
	}
}
 800648a:	bf00      	nop
 800648c:	3714      	adds	r7, #20
 800648e:	46bd      	mov	sp, r7
 8006490:	bc80      	pop	{r7}
 8006492:	4770      	bx	lr
 8006494:	20001bbc 	.word	0x20001bbc
 8006498:	20001bc4 	.word	0x20001bc4

0800649c <__libc_init_array>:
 800649c:	b570      	push	{r4, r5, r6, lr}
 800649e:	2500      	movs	r5, #0
 80064a0:	4e0c      	ldr	r6, [pc, #48]	; (80064d4 <__libc_init_array+0x38>)
 80064a2:	4c0d      	ldr	r4, [pc, #52]	; (80064d8 <__libc_init_array+0x3c>)
 80064a4:	1ba4      	subs	r4, r4, r6
 80064a6:	10a4      	asrs	r4, r4, #2
 80064a8:	42a5      	cmp	r5, r4
 80064aa:	d109      	bne.n	80064c0 <__libc_init_array+0x24>
 80064ac:	f000 f822 	bl	80064f4 <_init>
 80064b0:	2500      	movs	r5, #0
 80064b2:	4e0a      	ldr	r6, [pc, #40]	; (80064dc <__libc_init_array+0x40>)
 80064b4:	4c0a      	ldr	r4, [pc, #40]	; (80064e0 <__libc_init_array+0x44>)
 80064b6:	1ba4      	subs	r4, r4, r6
 80064b8:	10a4      	asrs	r4, r4, #2
 80064ba:	42a5      	cmp	r5, r4
 80064bc:	d105      	bne.n	80064ca <__libc_init_array+0x2e>
 80064be:	bd70      	pop	{r4, r5, r6, pc}
 80064c0:	f856 3025 	ldr.w	r3, [r6, r5, lsl #2]
 80064c4:	4798      	blx	r3
 80064c6:	3501      	adds	r5, #1
 80064c8:	e7ee      	b.n	80064a8 <__libc_init_array+0xc>
 80064ca:	f856 3025 	ldr.w	r3, [r6, r5, lsl #2]
 80064ce:	4798      	blx	r3
 80064d0:	3501      	adds	r5, #1
 80064d2:	e7f2      	b.n	80064ba <__libc_init_array+0x1e>
 80064d4:	0800657c 	.word	0x0800657c
 80064d8:	0800657c 	.word	0x0800657c
 80064dc:	0800657c 	.word	0x0800657c
 80064e0:	08006580 	.word	0x08006580

080064e4 <memset>:
 80064e4:	4603      	mov	r3, r0
 80064e6:	4402      	add	r2, r0
 80064e8:	4293      	cmp	r3, r2
 80064ea:	d100      	bne.n	80064ee <memset+0xa>
 80064ec:	4770      	bx	lr
 80064ee:	f803 1b01 	strb.w	r1, [r3], #1
 80064f2:	e7f9      	b.n	80064e8 <memset+0x4>

080064f4 <_init>:
 80064f4:	b5f8      	push	{r3, r4, r5, r6, r7, lr}
 80064f6:	bf00      	nop
 80064f8:	bcf8      	pop	{r3, r4, r5, r6, r7}
 80064fa:	bc08      	pop	{r3}
 80064fc:	469e      	mov	lr, r3
 80064fe:	4770      	bx	lr

08006500 <_fini>:
 8006500:	b5f8      	push	{r3, r4, r5, r6, r7, lr}
 8006502:	bf00      	nop
 8006504:	bcf8      	pop	{r3, r4, r5, r6, r7}
 8006506:	bc08      	pop	{r3}
 8006508:	469e      	mov	lr, r3
 800650a:	4770      	bx	lr
