
Front_ECU.elf:     file format elf32-littlearm

Sections:
Idx Name          Size      VMA       LMA       File off  Algn
  0 .isr_vector   0000010c  08000000  08000000  00010000  2**0
                  CONTENTS, ALLOC, LOAD, READONLY, DATA
  1 .text         0000630c  08000110  08000110  00010110  2**4
                  CONTENTS, ALLOC, LOAD, READONLY, CODE
  2 .rodata       00000070  0800641c  0800641c  0001641c  2**2
                  CONTENTS, ALLOC, LOAD, READONLY, DATA
  3 .ARM.extab    00000000  0800648c  0800648c  00020014  2**0
                  CONTENTS
  4 .ARM          00000000  0800648c  0800648c  00020014  2**0
                  CONTENTS
  5 .preinit_array 00000000  0800648c  0800648c  00020014  2**0
                  CONTENTS, ALLOC, LOAD, DATA
  6 .init_array   00000004  0800648c  0800648c  0001648c  2**2
                  CONTENTS, ALLOC, LOAD, DATA
  7 .fini_array   00000004  08006490  08006490  00016490  2**2
                  CONTENTS, ALLOC, LOAD, DATA
  8 .data         00000014  20000000  08006494  00020000  2**2
                  CONTENTS, ALLOC, LOAD, DATA
  9 .bss          00002e44  20000014  080064a8  00020014  2**2
                  ALLOC
 10 ._user_heap_stack 00000600  20002e58  080064a8  00022e58  2**0
                  ALLOC
 11 .ARM.attributes 00000029  00000000  00000000  00020014  2**0
                  CONTENTS, READONLY
 12 .debug_info   00014820  00000000  00000000  0002003d  2**0
                  CONTENTS, READONLY, DEBUGGING
 13 .debug_abbrev 00002d40  00000000  00000000  0003485d  2**0
                  CONTENTS, READONLY, DEBUGGING
 14 .debug_aranges 000013e0  00000000  00000000  000375a0  2**3
                  CONTENTS, READONLY, DEBUGGING
 15 .debug_ranges 00001298  00000000  00000000  00038980  2**3
                  CONTENTS, READONLY, DEBUGGING
 16 .debug_macro  000169d2  00000000  00000000  00039c18  2**0
                  CONTENTS, READONLY, DEBUGGING
 17 .debug_line   0000f140  00000000  00000000  000505ea  2**0
                  CONTENTS, READONLY, DEBUGGING
 18 .debug_str    00080bf2  00000000  00000000  0005f72a  2**0
                  CONTENTS, READONLY, DEBUGGING
 19 .comment      0000007b  00000000  00000000  000e031c  2**0
                  CONTENTS, READONLY
 20 .debug_frame  00005340  00000000  00000000  000e0398  2**2
                  CONTENTS, READONLY, DEBUGGING

Disassembly of section .text:

08000110 <__do_global_dtors_aux>:
 8000110:	b510      	push	{r4, lr}
 8000112:	4c05      	ldr	r4, [pc, #20]	; (8000128 <__do_global_dtors_aux+0x18>)
 8000114:	7823      	ldrb	r3, [r4, #0]
 8000116:	b933      	cbnz	r3, 8000126 <__do_global_dtors_aux+0x16>
 8000118:	4b04      	ldr	r3, [pc, #16]	; (800012c <__do_global_dtors_aux+0x1c>)
 800011a:	b113      	cbz	r3, 8000122 <__do_global_dtors_aux+0x12>
 800011c:	4804      	ldr	r0, [pc, #16]	; (8000130 <__do_global_dtors_aux+0x20>)
 800011e:	f3af 8000 	nop.w
 8000122:	2301      	movs	r3, #1
 8000124:	7023      	strb	r3, [r4, #0]
 8000126:	bd10      	pop	{r4, pc}
 8000128:	20000014 	.word	0x20000014
 800012c:	00000000 	.word	0x00000000
 8000130:	08006404 	.word	0x08006404

08000134 <frame_dummy>:
 8000134:	b508      	push	{r3, lr}
 8000136:	4b03      	ldr	r3, [pc, #12]	; (8000144 <frame_dummy+0x10>)
 8000138:	b11b      	cbz	r3, 8000142 <frame_dummy+0xe>
 800013a:	4903      	ldr	r1, [pc, #12]	; (8000148 <frame_dummy+0x14>)
 800013c:	4803      	ldr	r0, [pc, #12]	; (800014c <frame_dummy+0x18>)
 800013e:	f3af 8000 	nop.w
 8000142:	bd08      	pop	{r3, pc}
 8000144:	00000000 	.word	0x00000000
 8000148:	20000018 	.word	0x20000018
 800014c:	08006404 	.word	0x08006404

08000150 <vApplicationGetIdleTaskMemory>:
/* USER CODE BEGIN GET_IDLE_TASK_MEMORY */
static StaticTask_t xIdleTaskTCBBuffer;
static StackType_t xIdleStack[configMINIMAL_STACK_SIZE];
  
void vApplicationGetIdleTaskMemory( StaticTask_t **ppxIdleTaskTCBBuffer, StackType_t **ppxIdleTaskStackBuffer, uint32_t *pulIdleTaskStackSize )
{
 8000150:	b480      	push	{r7}
 8000152:	b085      	sub	sp, #20
 8000154:	af00      	add	r7, sp, #0
 8000156:	60f8      	str	r0, [r7, #12]
 8000158:	60b9      	str	r1, [r7, #8]
 800015a:	607a      	str	r2, [r7, #4]
  *ppxIdleTaskTCBBuffer = &xIdleTaskTCBBuffer;
 800015c:	68fb      	ldr	r3, [r7, #12]
 800015e:	4a06      	ldr	r2, [pc, #24]	; (8000178 <vApplicationGetIdleTaskMemory+0x28>)
 8000160:	601a      	str	r2, [r3, #0]
  *ppxIdleTaskStackBuffer = &xIdleStack[0];
 8000162:	68bb      	ldr	r3, [r7, #8]
 8000164:	4a05      	ldr	r2, [pc, #20]	; (800017c <vApplicationGetIdleTaskMemory+0x2c>)
 8000166:	601a      	str	r2, [r3, #0]
  *pulIdleTaskStackSize = configMINIMAL_STACK_SIZE;
 8000168:	687b      	ldr	r3, [r7, #4]
 800016a:	2280      	movs	r2, #128	; 0x80
 800016c:	601a      	str	r2, [r3, #0]
  /* place for user code */
}                   
 800016e:	bf00      	nop
 8000170:	3714      	adds	r7, #20
 8000172:	46bd      	mov	sp, r7
 8000174:	bc80      	pop	{r7}
 8000176:	4770      	bx	lr
 8000178:	20000030 	.word	0x20000030
 800017c:	20000084 	.word	0x20000084

08000180 <HAL_UART_RxCpltCallback>:
void CAN_Filter_Config(void);
/* USER CODE END PFP */

/* Private user code ---------------------------------------------------------*/
/* USER CODE BEGIN 0 */
void HAL_UART_RxCpltCallback(UART_HandleTypeDef *huart) {
 8000180:	b580      	push	{r7, lr}
 8000182:	b084      	sub	sp, #16
 8000184:	af00      	add	r7, sp, #0
 8000186:	6078      	str	r0, [r7, #4]
	HAL_UART_Receive_IT(&huart2, GPS_in, GPS_in_SIZE);
 8000188:	2224      	movs	r2, #36	; 0x24
 800018a:	490c      	ldr	r1, [pc, #48]	; (80001bc <HAL_UART_RxCpltCallback+0x3c>)
 800018c:	480c      	ldr	r0, [pc, #48]	; (80001c0 <HAL_UART_RxCpltCallback+0x40>)
 800018e:	f004 fab3 	bl	80046f8 <HAL_UART_Receive_IT>

	BaseType_t checkIfYieldRequired;
	checkIfYieldRequired = xTaskResumeFromISR(GPS_Task);
 8000192:	4b0c      	ldr	r3, [pc, #48]	; (80001c4 <HAL_UART_RxCpltCallback+0x44>)
 8000194:	681b      	ldr	r3, [r3, #0]
 8000196:	4618      	mov	r0, r3
 8000198:	f005 f98a 	bl	80054b0 <xTaskResumeFromISR>
 800019c:	60f8      	str	r0, [r7, #12]
	portYIELD_FROM_ISR(checkIfYieldRequired);
 800019e:	68fb      	ldr	r3, [r7, #12]
 80001a0:	2b00      	cmp	r3, #0
 80001a2:	d007      	beq.n	80001b4 <HAL_UART_RxCpltCallback+0x34>
 80001a4:	4b08      	ldr	r3, [pc, #32]	; (80001c8 <HAL_UART_RxCpltCallback+0x48>)
 80001a6:	f04f 5280 	mov.w	r2, #268435456	; 0x10000000
 80001aa:	601a      	str	r2, [r3, #0]
 80001ac:	f3bf 8f4f 	dsb	sy
 80001b0:	f3bf 8f6f 	isb	sy
}
 80001b4:	bf00      	nop
 80001b6:	3710      	adds	r7, #16
 80001b8:	46bd      	mov	sp, r7
 80001ba:	bd80      	pop	{r7, pc}
 80001bc:	20002da4 	.word	0x20002da4
 80001c0:	20002dc8 	.word	0x20002dc8
 80001c4:	20002c20 	.word	0x20002c20
 80001c8:	e000ed04 	.word	0xe000ed04

080001cc <main>:

/**
 * @brief  The application entry point.
 * @retval int
 */
int main(void) {
 80001cc:	b580      	push	{r7, lr}
 80001ce:	b082      	sub	sp, #8
 80001d0:	af02      	add	r7, sp, #8
	/* MCU Configuration--------------------------------------------------------*/

	/* Reset of all peripherals, Initializes the Flash interface and the Systick. */
	HAL_Init();
 80001d2:	f000 ff93 	bl	80010fc <HAL_Init>

	/* Configure the system clock */
	SystemClock_Config();
 80001d6:	f000 f88d 	bl	80002f4 <SystemClock_Config>

	/* Initialize all configured peripherals */
	MX_GPIO_Init();
 80001da:	f000 fa03 	bl	80005e4 <MX_GPIO_Init>
	MX_DMA_Init();
 80001de:	f000 f9db 	bl	8000598 <MX_DMA_Init>
	MX_ADC1_Init();
 80001e2:	f000 f8e3 	bl	80003ac <MX_ADC1_Init>
	MX_CAN_Init();
 80001e6:	f000 f91f 	bl	8000428 <MX_CAN_Init>
	MX_I2C1_Init();
 80001ea:	f000 f953 	bl	8000494 <MX_I2C1_Init>
	MX_USART2_UART_Init();
 80001ee:	f000 f9a9 	bl	8000544 <MX_USART2_UART_Init>
	MX_USART1_UART_Init();
 80001f2:	f000 f97d 	bl	80004f0 <MX_USART1_UART_Init>
	CAN_Filter_Config();
 80001f6:	f000 fa45 	bl	8000684 <CAN_Filter_Config>

	if (HAL_CAN_ActivateNotification(&hcan,
 80001fa:	f240 4103 	movw	r1, #1027	; 0x403
 80001fe:	4829      	ldr	r0, [pc, #164]	; (80002a4 <main+0xd8>)
 8000200:	f001 ff7f 	bl	8002102 <HAL_CAN_ActivateNotification>
 8000204:	4603      	mov	r3, r0
 8000206:	2b00      	cmp	r3, #0
 8000208:	d001      	beq.n	800020e <main+0x42>
	CAN_IT_TX_MAILBOX_EMPTY | CAN_IT_RX_FIFO0_MSG_PENDING | CAN_IT_BUSOFF)
			!= HAL_OK) {
		Error_Handler();
 800020a:	f000 fc43 	bl	8000a94 <Error_Handler>
	}

	if (HAL_CAN_Start(&hcan)) {
 800020e:	4825      	ldr	r0, [pc, #148]	; (80002a4 <main+0xd8>)
 8000210:	f001 fd48 	bl	8001ca4 <HAL_CAN_Start>
 8000214:	4603      	mov	r3, r0
 8000216:	2b00      	cmp	r3, #0
 8000218:	d001      	beq.n	800021e <main+0x52>
		Error_Handler();
 800021a:	f000 fc3b 	bl	8000a94 <Error_Handler>
	}

	HAL_ADC_Start_DMA(&hadc1, (uint32_t*) gas, 1);
 800021e:	2201      	movs	r2, #1
 8000220:	4921      	ldr	r1, [pc, #132]	; (80002a8 <main+0xdc>)
 8000222:	4822      	ldr	r0, [pc, #136]	; (80002ac <main+0xe0>)
 8000224:	f001 f896 	bl	8001354 <HAL_ADC_Start_DMA>

	HAL_UART_Receive_IT(&huart2, GPS_in, GPS_in_SIZE);
 8000228:	2224      	movs	r2, #36	; 0x24
 800022a:	4921      	ldr	r1, [pc, #132]	; (80002b0 <main+0xe4>)
 800022c:	4821      	ldr	r0, [pc, #132]	; (80002b4 <main+0xe8>)
 800022e:	f004 fa63 	bl	80046f8 <HAL_UART_Receive_IT>

	xTaskCreate(GPS_taskF, "GPSTask", 128, NULL, 2, &GPS_Task);
 8000232:	4b21      	ldr	r3, [pc, #132]	; (80002b8 <main+0xec>)
 8000234:	9301      	str	r3, [sp, #4]
 8000236:	2302      	movs	r3, #2
 8000238:	9300      	str	r3, [sp, #0]
 800023a:	2300      	movs	r3, #0
 800023c:	2280      	movs	r2, #128	; 0x80
 800023e:	491f      	ldr	r1, [pc, #124]	; (80002bc <main+0xf0>)
 8000240:	481f      	ldr	r0, [pc, #124]	; (80002c0 <main+0xf4>)
 8000242:	f004 ff07 	bl	8005054 <xTaskCreate>
	xTaskCreate(Gear_Brake_taskF, "Gear_BrakeTask", 128, NULL, 3,
 8000246:	4b1f      	ldr	r3, [pc, #124]	; (80002c4 <main+0xf8>)
 8000248:	9301      	str	r3, [sp, #4]
 800024a:	2303      	movs	r3, #3
 800024c:	9300      	str	r3, [sp, #0]
 800024e:	2300      	movs	r3, #0
 8000250:	2280      	movs	r2, #128	; 0x80
 8000252:	491d      	ldr	r1, [pc, #116]	; (80002c8 <main+0xfc>)
 8000254:	481d      	ldr	r0, [pc, #116]	; (80002cc <main+0x100>)
 8000256:	f004 fefd 	bl	8005054 <xTaskCreate>
			&Gear_Brake_Task);
	xTaskCreate(Gas_taskF, "GasTask", 128, NULL, 0, &Gas_Task);
 800025a:	4b1d      	ldr	r3, [pc, #116]	; (80002d0 <main+0x104>)
 800025c:	9301      	str	r3, [sp, #4]
 800025e:	2300      	movs	r3, #0
 8000260:	9300      	str	r3, [sp, #0]
 8000262:	2300      	movs	r3, #0
 8000264:	2280      	movs	r2, #128	; 0x80
 8000266:	491b      	ldr	r1, [pc, #108]	; (80002d4 <main+0x108>)
 8000268:	481b      	ldr	r0, [pc, #108]	; (80002d8 <main+0x10c>)
 800026a:	f004 fef3 	bl	8005054 <xTaskCreate>
	xTaskCreate(Logger_taskF, "LoggerTask", 128, NULL, 3, &Logger_Task);
 800026e:	4b1b      	ldr	r3, [pc, #108]	; (80002dc <main+0x110>)
 8000270:	9301      	str	r3, [sp, #4]
 8000272:	2303      	movs	r3, #3
 8000274:	9300      	str	r3, [sp, #0]
 8000276:	2300      	movs	r3, #0
 8000278:	2280      	movs	r2, #128	; 0x80
 800027a:	4919      	ldr	r1, [pc, #100]	; (80002e0 <main+0x114>)
 800027c:	4819      	ldr	r0, [pc, #100]	; (80002e4 <main+0x118>)
 800027e:	f004 fee9 	bl	8005054 <xTaskCreate>
	xTaskCreate(Telemetry_taskF, "TelemetryTask", 128, NULL, 1,
 8000282:	4b19      	ldr	r3, [pc, #100]	; (80002e8 <main+0x11c>)
 8000284:	9301      	str	r3, [sp, #4]
 8000286:	2301      	movs	r3, #1
 8000288:	9300      	str	r3, [sp, #0]
 800028a:	2300      	movs	r3, #0
 800028c:	2280      	movs	r2, #128	; 0x80
 800028e:	4917      	ldr	r1, [pc, #92]	; (80002ec <main+0x120>)
 8000290:	4817      	ldr	r0, [pc, #92]	; (80002f0 <main+0x124>)
 8000292:	f004 fedf 	bl	8005054 <xTaskCreate>
			&Telemetry_Task);

	/* Start scheduler */
	vTaskStartScheduler();
 8000296:	f005 f97b 	bl	8005590 <vTaskStartScheduler>
	/* We should never get here as control is now taken by the scheduler */

	/* Infinite loop */
	while (1) {
		HAL_Delay(1); /*JUST I CASE*/
 800029a:	2001      	movs	r0, #1
 800029c:	f000 ff60 	bl	8001160 <HAL_Delay>
 80002a0:	e7fb      	b.n	800029a <main+0xce>
 80002a2:	bf00      	nop
 80002a4:	20002c7c 	.word	0x20002c7c
 80002a8:	20002da0 	.word	0x20002da0
 80002ac:	20002cbc 	.word	0x20002cbc
 80002b0:	20002da4 	.word	0x20002da4
 80002b4:	20002dc8 	.word	0x20002dc8
 80002b8:	20002c20 	.word	0x20002c20
 80002bc:	0800641c 	.word	0x0800641c
 80002c0:	080006d1 	.word	0x080006d1
 80002c4:	20002bd4 	.word	0x20002bd4
 80002c8:	08006424 	.word	0x08006424
 80002cc:	08000771 	.word	0x08000771
 80002d0:	20002e10 	.word	0x20002e10
 80002d4:	08006434 	.word	0x08006434
 80002d8:	08000809 	.word	0x08000809
 80002dc:	20002e08 	.word	0x20002e08
 80002e0:	0800643c 	.word	0x0800643c
 80002e4:	0800087d 	.word	0x0800087d
 80002e8:	20002c1c 	.word	0x20002c1c
 80002ec:	08006448 	.word	0x08006448
 80002f0:	08000935 	.word	0x08000935

080002f4 <SystemClock_Config>:

/**
 * @brief System Clock Configuration
 * @retval None
 */
void SystemClock_Config(void) {
 80002f4:	b580      	push	{r7, lr}
 80002f6:	b094      	sub	sp, #80	; 0x50
 80002f8:	af00      	add	r7, sp, #0
	RCC_OscInitTypeDef RCC_OscInitStruct = { 0 };
 80002fa:	f107 0328 	add.w	r3, r7, #40	; 0x28
 80002fe:	2228      	movs	r2, #40	; 0x28
 8000300:	2100      	movs	r1, #0
 8000302:	4618      	mov	r0, r3
 8000304:	f006 f876 	bl	80063f4 <memset>
	RCC_ClkInitTypeDef RCC_ClkInitStruct = { 0 };
 8000308:	f107 0314 	add.w	r3, r7, #20
 800030c:	2200      	movs	r2, #0
 800030e:	601a      	str	r2, [r3, #0]
 8000310:	605a      	str	r2, [r3, #4]
 8000312:	609a      	str	r2, [r3, #8]
 8000314:	60da      	str	r2, [r3, #12]
 8000316:	611a      	str	r2, [r3, #16]
	RCC_PeriphCLKInitTypeDef PeriphClkInit = { 0 };
 8000318:	1d3b      	adds	r3, r7, #4
 800031a:	2200      	movs	r2, #0
 800031c:	601a      	str	r2, [r3, #0]
 800031e:	605a      	str	r2, [r3, #4]
 8000320:	609a      	str	r2, [r3, #8]
 8000322:	60da      	str	r2, [r3, #12]

	/** Initializes the CPU, AHB and APB busses clocks
	 */
	RCC_OscInitStruct.OscillatorType = RCC_OSCILLATORTYPE_HSE;
 8000324:	2301      	movs	r3, #1
 8000326:	62bb      	str	r3, [r7, #40]	; 0x28
	RCC_OscInitStruct.HSEState = RCC_HSE_ON;
 8000328:	f44f 3380 	mov.w	r3, #65536	; 0x10000
 800032c:	62fb      	str	r3, [r7, #44]	; 0x2c
	RCC_OscInitStruct.HSEPredivValue = RCC_HSE_PREDIV_DIV1;
 800032e:	2300      	movs	r3, #0
 8000330:	633b      	str	r3, [r7, #48]	; 0x30
	RCC_OscInitStruct.HSIState = RCC_HSI_ON;
 8000332:	2301      	movs	r3, #1
 8000334:	63bb      	str	r3, [r7, #56]	; 0x38
	RCC_OscInitStruct.PLL.PLLState = RCC_PLL_ON;
 8000336:	2302      	movs	r3, #2
 8000338:	647b      	str	r3, [r7, #68]	; 0x44
	RCC_OscInitStruct.PLL.PLLSource = RCC_PLLSOURCE_HSE;
 800033a:	f44f 3380 	mov.w	r3, #65536	; 0x10000
 800033e:	64bb      	str	r3, [r7, #72]	; 0x48
	RCC_OscInitStruct.PLL.PLLMUL = RCC_PLL_MUL9;
 8000340:	f44f 13e0 	mov.w	r3, #1835008	; 0x1c0000
 8000344:	64fb      	str	r3, [r7, #76]	; 0x4c
	if (HAL_RCC_OscConfig(&RCC_OscInitStruct) != HAL_OK) {
 8000346:	f107 0328 	add.w	r3, r7, #40	; 0x28
 800034a:	4618      	mov	r0, r3
 800034c:	f003 f9f4 	bl	8003738 <HAL_RCC_OscConfig>
 8000350:	4603      	mov	r3, r0
 8000352:	2b00      	cmp	r3, #0
 8000354:	d001      	beq.n	800035a <SystemClock_Config+0x66>
		Error_Handler();
 8000356:	f000 fb9d 	bl	8000a94 <Error_Handler>
	}
	/** Initializes the CPU, AHB and APB busses clocks
	 */
	RCC_ClkInitStruct.ClockType = RCC_CLOCKTYPE_HCLK | RCC_CLOCKTYPE_SYSCLK
 800035a:	230f      	movs	r3, #15
 800035c:	617b      	str	r3, [r7, #20]
			| RCC_CLOCKTYPE_PCLK1 | RCC_CLOCKTYPE_PCLK2;
	RCC_ClkInitStruct.SYSCLKSource = RCC_SYSCLKSOURCE_PLLCLK;
 800035e:	2302      	movs	r3, #2
 8000360:	61bb      	str	r3, [r7, #24]
	RCC_ClkInitStruct.AHBCLKDivider = RCC_SYSCLK_DIV1;
 8000362:	2300      	movs	r3, #0
 8000364:	61fb      	str	r3, [r7, #28]
	RCC_ClkInitStruct.APB1CLKDivider = RCC_HCLK_DIV2;
 8000366:	f44f 6380 	mov.w	r3, #1024	; 0x400
 800036a:	623b      	str	r3, [r7, #32]
	RCC_ClkInitStruct.APB2CLKDivider = RCC_HCLK_DIV1;
 800036c:	2300      	movs	r3, #0
 800036e:	627b      	str	r3, [r7, #36]	; 0x24

	if (HAL_RCC_ClockConfig(&RCC_ClkInitStruct, FLASH_LATENCY_2) != HAL_OK) {
 8000370:	f107 0314 	add.w	r3, r7, #20
 8000374:	2102      	movs	r1, #2
 8000376:	4618      	mov	r0, r3
 8000378:	f003 fc5e 	bl	8003c38 <HAL_RCC_ClockConfig>
 800037c:	4603      	mov	r3, r0
 800037e:	2b00      	cmp	r3, #0
 8000380:	d001      	beq.n	8000386 <SystemClock_Config+0x92>
		Error_Handler();
 8000382:	f000 fb87 	bl	8000a94 <Error_Handler>
	}
	PeriphClkInit.PeriphClockSelection = RCC_PERIPHCLK_ADC;
 8000386:	2302      	movs	r3, #2
 8000388:	607b      	str	r3, [r7, #4]
	PeriphClkInit.AdcClockSelection = RCC_ADCPCLK2_DIV8;
 800038a:	f44f 4340 	mov.w	r3, #49152	; 0xc000
 800038e:	60fb      	str	r3, [r7, #12]
	if (HAL_RCCEx_PeriphCLKConfig(&PeriphClkInit) != HAL_OK) {
 8000390:	1d3b      	adds	r3, r7, #4
 8000392:	4618      	mov	r0, r3
 8000394:	f003 fe1c 	bl	8003fd0 <HAL_RCCEx_PeriphCLKConfig>
 8000398:	4603      	mov	r3, r0
 800039a:	2b00      	cmp	r3, #0
 800039c:	d001      	beq.n	80003a2 <SystemClock_Config+0xae>
		Error_Handler();
 800039e:	f000 fb79 	bl	8000a94 <Error_Handler>
	}
}
 80003a2:	bf00      	nop
 80003a4:	3750      	adds	r7, #80	; 0x50
 80003a6:	46bd      	mov	sp, r7
 80003a8:	bd80      	pop	{r7, pc}
	...

080003ac <MX_ADC1_Init>:
/**
 * @brief ADC1 Initialization Function
 * @param None
 * @retval None
 */
static void MX_ADC1_Init(void) {
 80003ac:	b580      	push	{r7, lr}
 80003ae:	b084      	sub	sp, #16
 80003b0:	af00      	add	r7, sp, #0
	ADC_ChannelConfTypeDef sConfig = { 0 };
 80003b2:	1d3b      	adds	r3, r7, #4
 80003b4:	2200      	movs	r2, #0
 80003b6:	601a      	str	r2, [r3, #0]
 80003b8:	605a      	str	r2, [r3, #4]
 80003ba:	609a      	str	r2, [r3, #8]

	/** Common config
	 */
	hadc1.Instance = ADC1;
 80003bc:	4b18      	ldr	r3, [pc, #96]	; (8000420 <MX_ADC1_Init+0x74>)
 80003be:	4a19      	ldr	r2, [pc, #100]	; (8000424 <MX_ADC1_Init+0x78>)
 80003c0:	601a      	str	r2, [r3, #0]
	hadc1.Init.ScanConvMode = ADC_SCAN_DISABLE;
 80003c2:	4b17      	ldr	r3, [pc, #92]	; (8000420 <MX_ADC1_Init+0x74>)
 80003c4:	2200      	movs	r2, #0
 80003c6:	609a      	str	r2, [r3, #8]
	hadc1.Init.ContinuousConvMode = ENABLE;
 80003c8:	4b15      	ldr	r3, [pc, #84]	; (8000420 <MX_ADC1_Init+0x74>)
 80003ca:	2201      	movs	r2, #1
 80003cc:	731a      	strb	r2, [r3, #12]
	hadc1.Init.DiscontinuousConvMode = DISABLE;
 80003ce:	4b14      	ldr	r3, [pc, #80]	; (8000420 <MX_ADC1_Init+0x74>)
 80003d0:	2200      	movs	r2, #0
 80003d2:	751a      	strb	r2, [r3, #20]
	hadc1.Init.ExternalTrigConv = ADC_SOFTWARE_START;
 80003d4:	4b12      	ldr	r3, [pc, #72]	; (8000420 <MX_ADC1_Init+0x74>)
 80003d6:	f44f 2260 	mov.w	r2, #917504	; 0xe0000
 80003da:	61da      	str	r2, [r3, #28]
	hadc1.Init.DataAlign = ADC_DATAALIGN_RIGHT;
 80003dc:	4b10      	ldr	r3, [pc, #64]	; (8000420 <MX_ADC1_Init+0x74>)
 80003de:	2200      	movs	r2, #0
 80003e0:	605a      	str	r2, [r3, #4]
	hadc1.Init.NbrOfConversion = 1;
 80003e2:	4b0f      	ldr	r3, [pc, #60]	; (8000420 <MX_ADC1_Init+0x74>)
 80003e4:	2201      	movs	r2, #1
 80003e6:	611a      	str	r2, [r3, #16]
	if (HAL_ADC_Init(&hadc1) != HAL_OK) {
 80003e8:	480d      	ldr	r0, [pc, #52]	; (8000420 <MX_ADC1_Init+0x74>)
 80003ea:	f000 fedb 	bl	80011a4 <HAL_ADC_Init>
 80003ee:	4603      	mov	r3, r0
 80003f0:	2b00      	cmp	r3, #0
 80003f2:	d001      	beq.n	80003f8 <MX_ADC1_Init+0x4c>
		Error_Handler();
 80003f4:	f000 fb4e 	bl	8000a94 <Error_Handler>
	}
	/** Configure Regular Channel
	 */
	sConfig.Channel = ADC_CHANNEL_4;
 80003f8:	2304      	movs	r3, #4
 80003fa:	607b      	str	r3, [r7, #4]
	sConfig.Rank = ADC_REGULAR_RANK_1;
 80003fc:	2301      	movs	r3, #1
 80003fe:	60bb      	str	r3, [r7, #8]
	sConfig.SamplingTime = ADC_SAMPLETIME_239CYCLES_5;
 8000400:	2307      	movs	r3, #7
 8000402:	60fb      	str	r3, [r7, #12]
	if (HAL_ADC_ConfigChannel(&hadc1, &sConfig) != HAL_OK) {
 8000404:	1d3b      	adds	r3, r7, #4
 8000406:	4619      	mov	r1, r3
 8000408:	4805      	ldr	r0, [pc, #20]	; (8000420 <MX_ADC1_Init+0x74>)
 800040a:	f001 f89d 	bl	8001548 <HAL_ADC_ConfigChannel>
 800040e:	4603      	mov	r3, r0
 8000410:	2b00      	cmp	r3, #0
 8000412:	d001      	beq.n	8000418 <MX_ADC1_Init+0x6c>
		Error_Handler();
 8000414:	f000 fb3e 	bl	8000a94 <Error_Handler>
	}
}
 8000418:	bf00      	nop
 800041a:	3710      	adds	r7, #16
 800041c:	46bd      	mov	sp, r7
 800041e:	bd80      	pop	{r7, pc}
 8000420:	20002cbc 	.word	0x20002cbc
 8000424:	40012400 	.word	0x40012400

08000428 <MX_CAN_Init>:
/**
 * @brief CAN Initialization Function
 * @param None
 * @retval None
 */
static void MX_CAN_Init(void) {
 8000428:	b580      	push	{r7, lr}
 800042a:	af00      	add	r7, sp, #0
	hcan.Instance = CAN1;
 800042c:	4b17      	ldr	r3, [pc, #92]	; (800048c <MX_CAN_Init+0x64>)
 800042e:	4a18      	ldr	r2, [pc, #96]	; (8000490 <MX_CAN_Init+0x68>)
 8000430:	601a      	str	r2, [r3, #0]
	hcan.Init.Prescaler = 9;
 8000432:	4b16      	ldr	r3, [pc, #88]	; (800048c <MX_CAN_Init+0x64>)
 8000434:	2209      	movs	r2, #9
 8000436:	605a      	str	r2, [r3, #4]
	hcan.Init.Mode = CAN_MODE_NORMAL;
 8000438:	4b14      	ldr	r3, [pc, #80]	; (800048c <MX_CAN_Init+0x64>)
 800043a:	2200      	movs	r2, #0
 800043c:	609a      	str	r2, [r3, #8]
	hcan.Init.SyncJumpWidth = CAN_SJW_1TQ;
 800043e:	4b13      	ldr	r3, [pc, #76]	; (800048c <MX_CAN_Init+0x64>)
 8000440:	2200      	movs	r2, #0
 8000442:	60da      	str	r2, [r3, #12]
	hcan.Init.TimeSeg1 = CAN_BS1_12TQ;
 8000444:	4b11      	ldr	r3, [pc, #68]	; (800048c <MX_CAN_Init+0x64>)
 8000446:	f44f 2230 	mov.w	r2, #720896	; 0xb0000
 800044a:	611a      	str	r2, [r3, #16]
	hcan.Init.TimeSeg2 = CAN_BS2_3TQ;
 800044c:	4b0f      	ldr	r3, [pc, #60]	; (800048c <MX_CAN_Init+0x64>)
 800044e:	f44f 1200 	mov.w	r2, #2097152	; 0x200000
 8000452:	615a      	str	r2, [r3, #20]
	hcan.Init.TimeTriggeredMode = DISABLE;
 8000454:	4b0d      	ldr	r3, [pc, #52]	; (800048c <MX_CAN_Init+0x64>)
 8000456:	2200      	movs	r2, #0
 8000458:	761a      	strb	r2, [r3, #24]
	hcan.Init.AutoBusOff = ENABLE;
 800045a:	4b0c      	ldr	r3, [pc, #48]	; (800048c <MX_CAN_Init+0x64>)
 800045c:	2201      	movs	r2, #1
 800045e:	765a      	strb	r2, [r3, #25]
	hcan.Init.AutoWakeUp = DISABLE;
 8000460:	4b0a      	ldr	r3, [pc, #40]	; (800048c <MX_CAN_Init+0x64>)
 8000462:	2200      	movs	r2, #0
 8000464:	769a      	strb	r2, [r3, #26]
	hcan.Init.AutoRetransmission = ENABLE;
 8000466:	4b09      	ldr	r3, [pc, #36]	; (800048c <MX_CAN_Init+0x64>)
 8000468:	2201      	movs	r2, #1
 800046a:	76da      	strb	r2, [r3, #27]
	hcan.Init.ReceiveFifoLocked = DISABLE;
 800046c:	4b07      	ldr	r3, [pc, #28]	; (800048c <MX_CAN_Init+0x64>)
 800046e:	2200      	movs	r2, #0
 8000470:	771a      	strb	r2, [r3, #28]
	hcan.Init.TransmitFifoPriority = DISABLE;
 8000472:	4b06      	ldr	r3, [pc, #24]	; (800048c <MX_CAN_Init+0x64>)
 8000474:	2200      	movs	r2, #0
 8000476:	775a      	strb	r2, [r3, #29]
	if (HAL_CAN_Init(&hcan) != HAL_OK) {
 8000478:	4804      	ldr	r0, [pc, #16]	; (800048c <MX_CAN_Init+0x64>)
 800047a:	f001 fa4f 	bl	800191c <HAL_CAN_Init>
 800047e:	4603      	mov	r3, r0
 8000480:	2b00      	cmp	r3, #0
 8000482:	d001      	beq.n	8000488 <MX_CAN_Init+0x60>
		Error_Handler();
 8000484:	f000 fb06 	bl	8000a94 <Error_Handler>
	}
}
 8000488:	bf00      	nop
 800048a:	bd80      	pop	{r7, pc}
 800048c:	20002c7c 	.word	0x20002c7c
 8000490:	40006400 	.word	0x40006400

08000494 <MX_I2C1_Init>:
/**
 * @brief I2C1 Initialization Function
 * @param None
 * @retval None
 */
static void MX_I2C1_Init(void) {
 8000494:	b580      	push	{r7, lr}
 8000496:	af00      	add	r7, sp, #0
	hi2c1.Instance = I2C1;
 8000498:	4b12      	ldr	r3, [pc, #72]	; (80004e4 <MX_I2C1_Init+0x50>)
 800049a:	4a13      	ldr	r2, [pc, #76]	; (80004e8 <MX_I2C1_Init+0x54>)
 800049c:	601a      	str	r2, [r3, #0]
	hi2c1.Init.ClockSpeed = 400000;
 800049e:	4b11      	ldr	r3, [pc, #68]	; (80004e4 <MX_I2C1_Init+0x50>)
 80004a0:	4a12      	ldr	r2, [pc, #72]	; (80004ec <MX_I2C1_Init+0x58>)
 80004a2:	605a      	str	r2, [r3, #4]
	hi2c1.Init.DutyCycle = I2C_DUTYCYCLE_2;
 80004a4:	4b0f      	ldr	r3, [pc, #60]	; (80004e4 <MX_I2C1_Init+0x50>)
 80004a6:	2200      	movs	r2, #0
 80004a8:	609a      	str	r2, [r3, #8]
	hi2c1.Init.OwnAddress1 = 0;
 80004aa:	4b0e      	ldr	r3, [pc, #56]	; (80004e4 <MX_I2C1_Init+0x50>)
 80004ac:	2200      	movs	r2, #0
 80004ae:	60da      	str	r2, [r3, #12]
	hi2c1.Init.AddressingMode = I2C_ADDRESSINGMODE_7BIT;
 80004b0:	4b0c      	ldr	r3, [pc, #48]	; (80004e4 <MX_I2C1_Init+0x50>)
 80004b2:	f44f 4280 	mov.w	r2, #16384	; 0x4000
 80004b6:	611a      	str	r2, [r3, #16]
	hi2c1.Init.DualAddressMode = I2C_DUALADDRESS_DISABLE;
 80004b8:	4b0a      	ldr	r3, [pc, #40]	; (80004e4 <MX_I2C1_Init+0x50>)
 80004ba:	2200      	movs	r2, #0
 80004bc:	615a      	str	r2, [r3, #20]
	hi2c1.Init.OwnAddress2 = 0;
 80004be:	4b09      	ldr	r3, [pc, #36]	; (80004e4 <MX_I2C1_Init+0x50>)
 80004c0:	2200      	movs	r2, #0
 80004c2:	619a      	str	r2, [r3, #24]
	hi2c1.Init.GeneralCallMode = I2C_GENERALCALL_DISABLE;
 80004c4:	4b07      	ldr	r3, [pc, #28]	; (80004e4 <MX_I2C1_Init+0x50>)
 80004c6:	2200      	movs	r2, #0
 80004c8:	61da      	str	r2, [r3, #28]
	hi2c1.Init.NoStretchMode = I2C_NOSTRETCH_DISABLE;
 80004ca:	4b06      	ldr	r3, [pc, #24]	; (80004e4 <MX_I2C1_Init+0x50>)
 80004cc:	2200      	movs	r2, #0
 80004ce:	621a      	str	r2, [r3, #32]
	if (HAL_I2C_Init(&hi2c1) != HAL_OK) {
 80004d0:	4804      	ldr	r0, [pc, #16]	; (80004e4 <MX_I2C1_Init+0x50>)
 80004d2:	f002 fd0f 	bl	8002ef4 <HAL_I2C_Init>
 80004d6:	4603      	mov	r3, r0
 80004d8:	2b00      	cmp	r3, #0
 80004da:	d001      	beq.n	80004e0 <MX_I2C1_Init+0x4c>
		Error_Handler();
 80004dc:	f000 fada 	bl	8000a94 <Error_Handler>
	}
}
 80004e0:	bf00      	nop
 80004e2:	bd80      	pop	{r7, pc}
 80004e4:	20002c28 	.word	0x20002c28
 80004e8:	40005400 	.word	0x40005400
 80004ec:	00061a80 	.word	0x00061a80

080004f0 <MX_USART1_UART_Init>:
/**
 * @brief USART1 Initialization Function
 * @param None
 * @retval None
 */
static void MX_USART1_UART_Init(void) {
 80004f0:	b580      	push	{r7, lr}
 80004f2:	af00      	add	r7, sp, #0
	huart1.Instance = USART1;
 80004f4:	4b11      	ldr	r3, [pc, #68]	; (800053c <MX_USART1_UART_Init+0x4c>)
 80004f6:	4a12      	ldr	r2, [pc, #72]	; (8000540 <MX_USART1_UART_Init+0x50>)
 80004f8:	601a      	str	r2, [r3, #0]
	huart1.Init.BaudRate = 115200;
 80004fa:	4b10      	ldr	r3, [pc, #64]	; (800053c <MX_USART1_UART_Init+0x4c>)
 80004fc:	f44f 32e1 	mov.w	r2, #115200	; 0x1c200
 8000500:	605a      	str	r2, [r3, #4]
	huart1.Init.WordLength = UART_WORDLENGTH_8B;
 8000502:	4b0e      	ldr	r3, [pc, #56]	; (800053c <MX_USART1_UART_Init+0x4c>)
 8000504:	2200      	movs	r2, #0
 8000506:	609a      	str	r2, [r3, #8]
	huart1.Init.StopBits = UART_STOPBITS_1;
 8000508:	4b0c      	ldr	r3, [pc, #48]	; (800053c <MX_USART1_UART_Init+0x4c>)
 800050a:	2200      	movs	r2, #0
 800050c:	60da      	str	r2, [r3, #12]
	huart1.Init.Parity = UART_PARITY_NONE;
 800050e:	4b0b      	ldr	r3, [pc, #44]	; (800053c <MX_USART1_UART_Init+0x4c>)
 8000510:	2200      	movs	r2, #0
 8000512:	611a      	str	r2, [r3, #16]
	huart1.Init.Mode = UART_MODE_TX;
 8000514:	4b09      	ldr	r3, [pc, #36]	; (800053c <MX_USART1_UART_Init+0x4c>)
 8000516:	2208      	movs	r2, #8
 8000518:	615a      	str	r2, [r3, #20]
	huart1.Init.HwFlowCtl = UART_HWCONTROL_NONE;
 800051a:	4b08      	ldr	r3, [pc, #32]	; (800053c <MX_USART1_UART_Init+0x4c>)
 800051c:	2200      	movs	r2, #0
 800051e:	619a      	str	r2, [r3, #24]
	huart1.Init.OverSampling = UART_OVERSAMPLING_16;
 8000520:	4b06      	ldr	r3, [pc, #24]	; (800053c <MX_USART1_UART_Init+0x4c>)
 8000522:	2200      	movs	r2, #0
 8000524:	61da      	str	r2, [r3, #28]
	if (HAL_UART_Init(&huart1) != HAL_OK) {
 8000526:	4805      	ldr	r0, [pc, #20]	; (800053c <MX_USART1_UART_Init+0x4c>)
 8000528:	f004 f800 	bl	800452c <HAL_UART_Init>
 800052c:	4603      	mov	r3, r0
 800052e:	2b00      	cmp	r3, #0
 8000530:	d001      	beq.n	8000536 <MX_USART1_UART_Init+0x46>
		Error_Handler();
 8000532:	f000 faaf 	bl	8000a94 <Error_Handler>
	}
}
 8000536:	bf00      	nop
 8000538:	bd80      	pop	{r7, pc}
 800053a:	bf00      	nop
 800053c:	20002cec 	.word	0x20002cec
 8000540:	40013800 	.word	0x40013800

08000544 <MX_USART2_UART_Init>:
/**
 * @brief USART2 Initialization Function
 * @param None
 * @retval None
 */
static void MX_USART2_UART_Init(void) {
 8000544:	b580      	push	{r7, lr}
 8000546:	af00      	add	r7, sp, #0
	huart2.Instance = USART2;
 8000548:	4b11      	ldr	r3, [pc, #68]	; (8000590 <MX_USART2_UART_Init+0x4c>)
 800054a:	4a12      	ldr	r2, [pc, #72]	; (8000594 <MX_USART2_UART_Init+0x50>)
 800054c:	601a      	str	r2, [r3, #0]
	huart2.Init.BaudRate = 115200;
 800054e:	4b10      	ldr	r3, [pc, #64]	; (8000590 <MX_USART2_UART_Init+0x4c>)
 8000550:	f44f 32e1 	mov.w	r2, #115200	; 0x1c200
 8000554:	605a      	str	r2, [r3, #4]
	huart2.Init.WordLength = UART_WORDLENGTH_8B;
 8000556:	4b0e      	ldr	r3, [pc, #56]	; (8000590 <MX_USART2_UART_Init+0x4c>)
 8000558:	2200      	movs	r2, #0
 800055a:	609a      	str	r2, [r3, #8]
	huart2.Init.StopBits = UART_STOPBITS_1;
 800055c:	4b0c      	ldr	r3, [pc, #48]	; (8000590 <MX_USART2_UART_Init+0x4c>)
 800055e:	2200      	movs	r2, #0
 8000560:	60da      	str	r2, [r3, #12]
	huart2.Init.Parity = UART_PARITY_NONE;
 8000562:	4b0b      	ldr	r3, [pc, #44]	; (8000590 <MX_USART2_UART_Init+0x4c>)
 8000564:	2200      	movs	r2, #0
 8000566:	611a      	str	r2, [r3, #16]
	huart2.Init.Mode = UART_MODE_RX;
 8000568:	4b09      	ldr	r3, [pc, #36]	; (8000590 <MX_USART2_UART_Init+0x4c>)
 800056a:	2204      	movs	r2, #4
 800056c:	615a      	str	r2, [r3, #20]
	huart2.Init.HwFlowCtl = UART_HWCONTROL_NONE;
 800056e:	4b08      	ldr	r3, [pc, #32]	; (8000590 <MX_USART2_UART_Init+0x4c>)
 8000570:	2200      	movs	r2, #0
 8000572:	619a      	str	r2, [r3, #24]
	huart2.Init.OverSampling = UART_OVERSAMPLING_16;
 8000574:	4b06      	ldr	r3, [pc, #24]	; (8000590 <MX_USART2_UART_Init+0x4c>)
 8000576:	2200      	movs	r2, #0
 8000578:	61da      	str	r2, [r3, #28]
	if (HAL_UART_Init(&huart2) != HAL_OK) {
 800057a:	4805      	ldr	r0, [pc, #20]	; (8000590 <MX_USART2_UART_Init+0x4c>)
 800057c:	f003 ffd6 	bl	800452c <HAL_UART_Init>
 8000580:	4603      	mov	r3, r0
 8000582:	2b00      	cmp	r3, #0
 8000584:	d001      	beq.n	800058a <MX_USART2_UART_Init+0x46>
		Error_Handler();
 8000586:	f000 fa85 	bl	8000a94 <Error_Handler>
	}
}
 800058a:	bf00      	nop
 800058c:	bd80      	pop	{r7, pc}
 800058e:	bf00      	nop
 8000590:	20002dc8 	.word	0x20002dc8
 8000594:	40004400 	.word	0x40004400

08000598 <MX_DMA_Init>:

/**
 * Enable DMA controller clock
 */
static void MX_DMA_Init(void) {
 8000598:	b580      	push	{r7, lr}
 800059a:	b082      	sub	sp, #8
 800059c:	af00      	add	r7, sp, #0
	/* DMA controller clock enable */
	__HAL_RCC_DMA1_CLK_ENABLE();
 800059e:	4b10      	ldr	r3, [pc, #64]	; (80005e0 <MX_DMA_Init+0x48>)
 80005a0:	695b      	ldr	r3, [r3, #20]
 80005a2:	4a0f      	ldr	r2, [pc, #60]	; (80005e0 <MX_DMA_Init+0x48>)
 80005a4:	f043 0301 	orr.w	r3, r3, #1
 80005a8:	6153      	str	r3, [r2, #20]
 80005aa:	4b0d      	ldr	r3, [pc, #52]	; (80005e0 <MX_DMA_Init+0x48>)
 80005ac:	695b      	ldr	r3, [r3, #20]
 80005ae:	f003 0301 	and.w	r3, r3, #1
 80005b2:	607b      	str	r3, [r7, #4]
 80005b4:	687b      	ldr	r3, [r7, #4]

	/* DMA interrupt init */
	/* DMA1_Channel1_IRQn interrupt configuration */
	HAL_NVIC_SetPriority(DMA1_Channel1_IRQn, 5, 0);
 80005b6:	2200      	movs	r2, #0
 80005b8:	2105      	movs	r1, #5
 80005ba:	200b      	movs	r0, #11
 80005bc:	f002 f899 	bl	80026f2 <HAL_NVIC_SetPriority>
	HAL_NVIC_EnableIRQ(DMA1_Channel1_IRQn);
 80005c0:	200b      	movs	r0, #11
 80005c2:	f002 f8b2 	bl	800272a <HAL_NVIC_EnableIRQ>
	/* DMA1_Channel6_IRQn interrupt configuration */
	HAL_NVIC_SetPriority(DMA1_Channel6_IRQn, 5, 0);
 80005c6:	2200      	movs	r2, #0
 80005c8:	2105      	movs	r1, #5
 80005ca:	2010      	movs	r0, #16
 80005cc:	f002 f891 	bl	80026f2 <HAL_NVIC_SetPriority>
	HAL_NVIC_EnableIRQ(DMA1_Channel6_IRQn);
 80005d0:	2010      	movs	r0, #16
 80005d2:	f002 f8aa 	bl	800272a <HAL_NVIC_EnableIRQ>
}
 80005d6:	bf00      	nop
 80005d8:	3708      	adds	r7, #8
 80005da:	46bd      	mov	sp, r7
 80005dc:	bd80      	pop	{r7, pc}
 80005de:	bf00      	nop
 80005e0:	40021000 	.word	0x40021000

080005e4 <MX_GPIO_Init>:
/**
 * @brief GPIO Initialization Function
 * @param None
 * @retval None
 */
static void MX_GPIO_Init(void) {
 80005e4:	b580      	push	{r7, lr}
 80005e6:	b088      	sub	sp, #32
 80005e8:	af00      	add	r7, sp, #0
	GPIO_InitTypeDef GPIO_InitStruct = { 0 };
 80005ea:	f107 0310 	add.w	r3, r7, #16
 80005ee:	2200      	movs	r2, #0
 80005f0:	601a      	str	r2, [r3, #0]
 80005f2:	605a      	str	r2, [r3, #4]
 80005f4:	609a      	str	r2, [r3, #8]
 80005f6:	60da      	str	r2, [r3, #12]

	/* GPIO Ports Clock Enable */
	__HAL_RCC_GPIOC_CLK_ENABLE();
 80005f8:	4b20      	ldr	r3, [pc, #128]	; (800067c <MX_GPIO_Init+0x98>)
 80005fa:	699b      	ldr	r3, [r3, #24]
 80005fc:	4a1f      	ldr	r2, [pc, #124]	; (800067c <MX_GPIO_Init+0x98>)
 80005fe:	f043 0310 	orr.w	r3, r3, #16
 8000602:	6193      	str	r3, [r2, #24]
 8000604:	4b1d      	ldr	r3, [pc, #116]	; (800067c <MX_GPIO_Init+0x98>)
 8000606:	699b      	ldr	r3, [r3, #24]
 8000608:	f003 0310 	and.w	r3, r3, #16
 800060c:	60fb      	str	r3, [r7, #12]
 800060e:	68fb      	ldr	r3, [r7, #12]
	__HAL_RCC_GPIOD_CLK_ENABLE();
 8000610:	4b1a      	ldr	r3, [pc, #104]	; (800067c <MX_GPIO_Init+0x98>)
 8000612:	699b      	ldr	r3, [r3, #24]
 8000614:	4a19      	ldr	r2, [pc, #100]	; (800067c <MX_GPIO_Init+0x98>)
 8000616:	f043 0320 	orr.w	r3, r3, #32
 800061a:	6193      	str	r3, [r2, #24]
 800061c:	4b17      	ldr	r3, [pc, #92]	; (800067c <MX_GPIO_Init+0x98>)
 800061e:	699b      	ldr	r3, [r3, #24]
 8000620:	f003 0320 	and.w	r3, r3, #32
 8000624:	60bb      	str	r3, [r7, #8]
 8000626:	68bb      	ldr	r3, [r7, #8]
	__HAL_RCC_GPIOA_CLK_ENABLE();
 8000628:	4b14      	ldr	r3, [pc, #80]	; (800067c <MX_GPIO_Init+0x98>)
 800062a:	699b      	ldr	r3, [r3, #24]
 800062c:	4a13      	ldr	r2, [pc, #76]	; (800067c <MX_GPIO_Init+0x98>)
 800062e:	f043 0304 	orr.w	r3, r3, #4
 8000632:	6193      	str	r3, [r2, #24]
 8000634:	4b11      	ldr	r3, [pc, #68]	; (800067c <MX_GPIO_Init+0x98>)
 8000636:	699b      	ldr	r3, [r3, #24]
 8000638:	f003 0304 	and.w	r3, r3, #4
 800063c:	607b      	str	r3, [r7, #4]
 800063e:	687b      	ldr	r3, [r7, #4]
	__HAL_RCC_GPIOB_CLK_ENABLE();
 8000640:	4b0e      	ldr	r3, [pc, #56]	; (800067c <MX_GPIO_Init+0x98>)
 8000642:	699b      	ldr	r3, [r3, #24]
 8000644:	4a0d      	ldr	r2, [pc, #52]	; (800067c <MX_GPIO_Init+0x98>)
 8000646:	f043 0308 	orr.w	r3, r3, #8
 800064a:	6193      	str	r3, [r2, #24]
 800064c:	4b0b      	ldr	r3, [pc, #44]	; (800067c <MX_GPIO_Init+0x98>)
 800064e:	699b      	ldr	r3, [r3, #24]
 8000650:	f003 0308 	and.w	r3, r3, #8
 8000654:	603b      	str	r3, [r7, #0]
 8000656:	683b      	ldr	r3, [r7, #0]

	/*Configure GPIO pins : Gear_Pin Brake_Pin */
	GPIO_InitStruct.Pin = Gear_Pin | Brake_Pin;
 8000658:	f44f 4340 	mov.w	r3, #49152	; 0xc000
 800065c:	613b      	str	r3, [r7, #16]
	GPIO_InitStruct.Mode = GPIO_MODE_INPUT;
 800065e:	2300      	movs	r3, #0
 8000660:	617b      	str	r3, [r7, #20]
	GPIO_InitStruct.Pull = GPIO_NOPULL;
 8000662:	2300      	movs	r3, #0
 8000664:	61bb      	str	r3, [r7, #24]
	HAL_GPIO_Init(GPIOB, &GPIO_InitStruct);
 8000666:	f107 0310 	add.w	r3, r7, #16
 800066a:	4619      	mov	r1, r3
 800066c:	4804      	ldr	r0, [pc, #16]	; (8000680 <MX_GPIO_Init+0x9c>)
 800066e:	f002 facf 	bl	8002c10 <HAL_GPIO_Init>

}
 8000672:	bf00      	nop
 8000674:	3720      	adds	r7, #32
 8000676:	46bd      	mov	sp, r7
 8000678:	bd80      	pop	{r7, pc}
 800067a:	bf00      	nop
 800067c:	40021000 	.word	0x40021000
 8000680:	40010c00 	.word	0x40010c00

08000684 <CAN_Filter_Config>:

/*Configure CAN Filter */
void CAN_Filter_Config(void) {
 8000684:	b580      	push	{r7, lr}
 8000686:	b08a      	sub	sp, #40	; 0x28
 8000688:	af00      	add	r7, sp, #0
	CAN_FilterTypeDef can_filt;
	can_filt.FilterActivation = ENABLE;
 800068a:	2301      	movs	r3, #1
 800068c:	623b      	str	r3, [r7, #32]
	can_filt.FilterBank = 0;
 800068e:	2300      	movs	r3, #0
 8000690:	617b      	str	r3, [r7, #20]
	can_filt.FilterFIFOAssignment = CAN_RX_FIFO0;
 8000692:	2300      	movs	r3, #0
 8000694:	613b      	str	r3, [r7, #16]
	can_filt.FilterIdHigh = 0x0000;
 8000696:	2300      	movs	r3, #0
 8000698:	603b      	str	r3, [r7, #0]
	can_filt.FilterIdLow = 0x0000;
 800069a:	2300      	movs	r3, #0
 800069c:	607b      	str	r3, [r7, #4]
	can_filt.FilterMaskIdHigh = 0x0000;
 800069e:	2300      	movs	r3, #0
 80006a0:	60bb      	str	r3, [r7, #8]
	can_filt.FilterMaskIdLow = 0x0000;
 80006a2:	2300      	movs	r3, #0
 80006a4:	60fb      	str	r3, [r7, #12]
	can_filt.FilterMode = CAN_FILTERMODE_IDMASK;
 80006a6:	2300      	movs	r3, #0
 80006a8:	61bb      	str	r3, [r7, #24]
	can_filt.FilterScale = CAN_FILTERSCALE_32BIT;
 80006aa:	2301      	movs	r3, #1
 80006ac:	61fb      	str	r3, [r7, #28]

	if (HAL_CAN_ConfigFilter(&hcan, &can_filt) != HAL_OK) {
 80006ae:	463b      	mov	r3, r7
 80006b0:	4619      	mov	r1, r3
 80006b2:	4806      	ldr	r0, [pc, #24]	; (80006cc <CAN_Filter_Config+0x48>)
 80006b4:	f001 fa2d 	bl	8001b12 <HAL_CAN_ConfigFilter>
 80006b8:	4603      	mov	r3, r0
 80006ba:	2b00      	cmp	r3, #0
 80006bc:	d001      	beq.n	80006c2 <CAN_Filter_Config+0x3e>
		Error_Handler();
 80006be:	f000 f9e9 	bl	8000a94 <Error_Handler>
	}
}
 80006c2:	bf00      	nop
 80006c4:	3728      	adds	r7, #40	; 0x28
 80006c6:	46bd      	mov	sp, r7
 80006c8:	bd80      	pop	{r7, pc}
 80006ca:	bf00      	nop
 80006cc:	20002c7c 	.word	0x20002c7c

080006d0 <GPS_taskF>:

/*GPS Read Task --- THIS TASK NEEDS TEST WITH HARDWARE */
void GPS_taskF(void *pvParameters) {
 80006d0:	b580      	push	{r7, lr}
 80006d2:	b08a      	sub	sp, #40	; 0x28
 80006d4:	af00      	add	r7, sp, #0
 80006d6:	6078      	str	r0, [r7, #4]
	while (1) {
		vTaskSuspend(NULL);
 80006d8:	2000      	movs	r0, #0
 80006da:	f004 fe1d 	bl	8005318 <vTaskSuspend>

		if (GPS_in[0] == UBX_HEADER[0] && GPS_in[1] == UBX_HEADER[1]) {
 80006de:	4b21      	ldr	r3, [pc, #132]	; (8000764 <GPS_taskF+0x94>)
 80006e0:	781b      	ldrb	r3, [r3, #0]
 80006e2:	22b5      	movs	r2, #181	; 0xb5
 80006e4:	4293      	cmp	r3, r2
 80006e6:	d1f7      	bne.n	80006d8 <GPS_taskF+0x8>
 80006e8:	4b1e      	ldr	r3, [pc, #120]	; (8000764 <GPS_taskF+0x94>)
 80006ea:	785b      	ldrb	r3, [r3, #1]
 80006ec:	2262      	movs	r2, #98	; 0x62
 80006ee:	4293      	cmp	r3, r2
 80006f0:	d1f2      	bne.n	80006d8 <GPS_taskF+0x8>
			uint8_t GPSbuff[4];

			GPSbuff[0] = GPS_in[16];
 80006f2:	4b1c      	ldr	r3, [pc, #112]	; (8000764 <GPS_taskF+0x94>)
 80006f4:	7c1b      	ldrb	r3, [r3, #16]
 80006f6:	f887 3024 	strb.w	r3, [r7, #36]	; 0x24
			GPSbuff[1] = GPS_in[17];
 80006fa:	4b1a      	ldr	r3, [pc, #104]	; (8000764 <GPS_taskF+0x94>)
 80006fc:	7c5b      	ldrb	r3, [r3, #17]
 80006fe:	f887 3025 	strb.w	r3, [r7, #37]	; 0x25
			GPSbuff[2] = GPS_in[12];
 8000702:	4b18      	ldr	r3, [pc, #96]	; (8000764 <GPS_taskF+0x94>)
 8000704:	7b1b      	ldrb	r3, [r3, #12]
 8000706:	f887 3026 	strb.w	r3, [r7, #38]	; 0x26
			GPSbuff[3] = GPS_in[13];
 800070a:	4b16      	ldr	r3, [pc, #88]	; (8000764 <GPS_taskF+0x94>)
 800070c:	7b5b      	ldrb	r3, [r3, #13]
 800070e:	f887 3027 	strb.w	r3, [r7, #39]	; 0x27

			buffer[18] = GPS_in[16];
 8000712:	4b14      	ldr	r3, [pc, #80]	; (8000764 <GPS_taskF+0x94>)
 8000714:	7c1a      	ldrb	r2, [r3, #16]
 8000716:	4b14      	ldr	r3, [pc, #80]	; (8000768 <GPS_taskF+0x98>)
 8000718:	749a      	strb	r2, [r3, #18]
			buffer[19] = GPS_in[17];
 800071a:	4b12      	ldr	r3, [pc, #72]	; (8000764 <GPS_taskF+0x94>)
 800071c:	7c5a      	ldrb	r2, [r3, #17]
 800071e:	4b12      	ldr	r3, [pc, #72]	; (8000768 <GPS_taskF+0x98>)
 8000720:	74da      	strb	r2, [r3, #19]
			buffer[20] = GPS_in[12];
 8000722:	4b10      	ldr	r3, [pc, #64]	; (8000764 <GPS_taskF+0x94>)
 8000724:	7b1a      	ldrb	r2, [r3, #12]
 8000726:	4b10      	ldr	r3, [pc, #64]	; (8000768 <GPS_taskF+0x98>)
 8000728:	751a      	strb	r2, [r3, #20]
			buffer[21] = GPS_in[13];
 800072a:	4b0e      	ldr	r3, [pc, #56]	; (8000764 <GPS_taskF+0x94>)
 800072c:	7b5a      	ldrb	r2, [r3, #13]
 800072e:	4b0e      	ldr	r3, [pc, #56]	; (8000768 <GPS_taskF+0x98>)
 8000730:	755a      	strb	r2, [r3, #21]
			uint32_t TxMailbox;

			CAN_TxHeaderTypeDef GPSHeader;

			GPSHeader.DLC = 4;
 8000732:	2304      	movs	r3, #4
 8000734:	61bb      	str	r3, [r7, #24]
			GPSHeader.StdId = 0x658;
 8000736:	f44f 63cb 	mov.w	r3, #1624	; 0x658
 800073a:	60bb      	str	r3, [r7, #8]
			GPSHeader.IDE = CAN_ID_STD;
 800073c:	2300      	movs	r3, #0
 800073e:	613b      	str	r3, [r7, #16]
			GPSHeader.RTR = CAN_RTR_DATA;
 8000740:	2300      	movs	r3, #0
 8000742:	617b      	str	r3, [r7, #20]

			if (HAL_CAN_AddTxMessage(&hcan, &GPSHeader, GPSbuff, &TxMailbox)
 8000744:	f107 0320 	add.w	r3, r7, #32
 8000748:	f107 0224 	add.w	r2, r7, #36	; 0x24
 800074c:	f107 0108 	add.w	r1, r7, #8
 8000750:	4806      	ldr	r0, [pc, #24]	; (800076c <GPS_taskF+0x9c>)
 8000752:	f001 faeb 	bl	8001d2c <HAL_CAN_AddTxMessage>
 8000756:	4603      	mov	r3, r0
 8000758:	2b00      	cmp	r3, #0
 800075a:	d0bd      	beq.n	80006d8 <GPS_taskF+0x8>
					!= HAL_OK) {
				Error_Handler();
 800075c:	f000 f99a 	bl	8000a94 <Error_Handler>
		vTaskSuspend(NULL);
 8000760:	e7ba      	b.n	80006d8 <GPS_taskF+0x8>
 8000762:	bf00      	nop
 8000764:	20002da4 	.word	0x20002da4
 8000768:	20002d2c 	.word	0x20002d2c
 800076c:	20002c7c 	.word	0x20002c7c

08000770 <Gear_Brake_taskF>:
		}
	}
}

/*Gear an Brake Read Task */
void Gear_Brake_taskF(void *pvParameters) {
 8000770:	b580      	push	{r7, lr}
 8000772:	b08a      	sub	sp, #40	; 0x28
 8000774:	af00      	add	r7, sp, #0
 8000776:	6078      	str	r0, [r7, #4]
	while (1) {
		gear = HAL_GPIO_ReadPin(GPIOB, Gear_Pin);
 8000778:	f44f 4180 	mov.w	r1, #16384	; 0x4000
 800077c:	481d      	ldr	r0, [pc, #116]	; (80007f4 <Gear_Brake_taskF+0x84>)
 800077e:	f002 fba1 	bl	8002ec4 <HAL_GPIO_ReadPin>
 8000782:	4603      	mov	r3, r0
 8000784:	461a      	mov	r2, r3
 8000786:	4b1c      	ldr	r3, [pc, #112]	; (80007f8 <Gear_Brake_taskF+0x88>)
 8000788:	701a      	strb	r2, [r3, #0]
		brake = HAL_GPIO_ReadPin(GPIOB, Brake_Pin);
 800078a:	f44f 4100 	mov.w	r1, #32768	; 0x8000
 800078e:	4819      	ldr	r0, [pc, #100]	; (80007f4 <Gear_Brake_taskF+0x84>)
 8000790:	f002 fb98 	bl	8002ec4 <HAL_GPIO_ReadPin>
 8000794:	4603      	mov	r3, r0
 8000796:	461a      	mov	r2, r3
 8000798:	4b18      	ldr	r3, [pc, #96]	; (80007fc <Gear_Brake_taskF+0x8c>)
 800079a:	701a      	strb	r2, [r3, #0]
		uint8_t GBbuff[2];
		GBbuff[0] = gear;
 800079c:	4b16      	ldr	r3, [pc, #88]	; (80007f8 <Gear_Brake_taskF+0x88>)
 800079e:	781b      	ldrb	r3, [r3, #0]
 80007a0:	f887 3024 	strb.w	r3, [r7, #36]	; 0x24
		GBbuff[1] = brake;
 80007a4:	4b15      	ldr	r3, [pc, #84]	; (80007fc <Gear_Brake_taskF+0x8c>)
 80007a6:	781b      	ldrb	r3, [r3, #0]
 80007a8:	f887 3025 	strb.w	r3, [r7, #37]	; 0x25

		buffer[0] = gear;
 80007ac:	4b12      	ldr	r3, [pc, #72]	; (80007f8 <Gear_Brake_taskF+0x88>)
 80007ae:	781a      	ldrb	r2, [r3, #0]
 80007b0:	4b13      	ldr	r3, [pc, #76]	; (8000800 <Gear_Brake_taskF+0x90>)
 80007b2:	701a      	strb	r2, [r3, #0]
		buffer[1] = brake;
 80007b4:	4b11      	ldr	r3, [pc, #68]	; (80007fc <Gear_Brake_taskF+0x8c>)
 80007b6:	781a      	ldrb	r2, [r3, #0]
 80007b8:	4b11      	ldr	r3, [pc, #68]	; (8000800 <Gear_Brake_taskF+0x90>)
 80007ba:	705a      	strb	r2, [r3, #1]
		uint32_t TxMailbox;

		CAN_TxHeaderTypeDef GBHeader;

		GBHeader.DLC = 2;
 80007bc:	2302      	movs	r3, #2
 80007be:	61bb      	str	r3, [r7, #24]
		GBHeader.StdId = 0x657;
 80007c0:	f240 6357 	movw	r3, #1623	; 0x657
 80007c4:	60bb      	str	r3, [r7, #8]
		GBHeader.IDE = CAN_ID_STD;
 80007c6:	2300      	movs	r3, #0
 80007c8:	613b      	str	r3, [r7, #16]
		GBHeader.RTR = CAN_RTR_DATA;
 80007ca:	2300      	movs	r3, #0
 80007cc:	617b      	str	r3, [r7, #20]

		if (HAL_CAN_AddTxMessage(&hcan, &GBHeader, GBbuff, &TxMailbox)
 80007ce:	f107 0320 	add.w	r3, r7, #32
 80007d2:	f107 0224 	add.w	r2, r7, #36	; 0x24
 80007d6:	f107 0108 	add.w	r1, r7, #8
 80007da:	480a      	ldr	r0, [pc, #40]	; (8000804 <Gear_Brake_taskF+0x94>)
 80007dc:	f001 faa6 	bl	8001d2c <HAL_CAN_AddTxMessage>
 80007e0:	4603      	mov	r3, r0
 80007e2:	2b00      	cmp	r3, #0
 80007e4:	d001      	beq.n	80007ea <Gear_Brake_taskF+0x7a>
				!= HAL_OK) {
			Error_Handler();
 80007e6:	f000 f955 	bl	8000a94 <Error_Handler>
		}
		vTaskDelay(10); /*100Hz frequency*/
 80007ea:	200a      	movs	r0, #10
 80007ec:	f004 fd60 	bl	80052b0 <vTaskDelay>
	while (1) {
 80007f0:	e7c2      	b.n	8000778 <Gear_Brake_taskF+0x8>
 80007f2:	bf00      	nop
 80007f4:	40010c00 	.word	0x40010c00
 80007f8:	20002c24 	.word	0x20002c24
 80007fc:	20002e0c 	.word	0x20002e0c
 8000800:	20002d2c 	.word	0x20002d2c
 8000804:	20002c7c 	.word	0x20002c7c

08000808 <Gas_taskF>:
	}
}

/*Gas pedal Read Task */
void Gas_taskF(void *pvParameters) {
 8000808:	b580      	push	{r7, lr}
 800080a:	b08a      	sub	sp, #40	; 0x28
 800080c:	af00      	add	r7, sp, #0
 800080e:	6078      	str	r0, [r7, #4]
	while (1) {
		uint8_t gasbuff[2];
		gasbuff[0] = (uint8_t) (gas[0] >> 8) & 0xFF;
 8000810:	4b17      	ldr	r3, [pc, #92]	; (8000870 <Gas_taskF+0x68>)
 8000812:	881b      	ldrh	r3, [r3, #0]
 8000814:	0a1b      	lsrs	r3, r3, #8
 8000816:	b29b      	uxth	r3, r3
 8000818:	b2db      	uxtb	r3, r3
 800081a:	f887 3024 	strb.w	r3, [r7, #36]	; 0x24
		gasbuff[1] = (uint8_t) gas[0] & 0xFF;
 800081e:	4b14      	ldr	r3, [pc, #80]	; (8000870 <Gas_taskF+0x68>)
 8000820:	881b      	ldrh	r3, [r3, #0]
 8000822:	b2db      	uxtb	r3, r3
 8000824:	f887 3025 	strb.w	r3, [r7, #37]	; 0x25

		buffer[2] = gasbuff[0];
 8000828:	f897 2024 	ldrb.w	r2, [r7, #36]	; 0x24
 800082c:	4b11      	ldr	r3, [pc, #68]	; (8000874 <Gas_taskF+0x6c>)
 800082e:	709a      	strb	r2, [r3, #2]
		buffer[3] = gasbuff[1];
 8000830:	f897 2025 	ldrb.w	r2, [r7, #37]	; 0x25
 8000834:	4b0f      	ldr	r3, [pc, #60]	; (8000874 <Gas_taskF+0x6c>)
 8000836:	70da      	strb	r2, [r3, #3]

		uint32_t TxMailbox;

		CAN_TxHeaderTypeDef GasHeader;

		GasHeader.DLC = 2;
 8000838:	2302      	movs	r3, #2
 800083a:	61bb      	str	r3, [r7, #24]
		GasHeader.StdId = 0x656;
 800083c:	f240 6356 	movw	r3, #1622	; 0x656
 8000840:	60bb      	str	r3, [r7, #8]
		GasHeader.IDE = CAN_ID_STD;
 8000842:	2300      	movs	r3, #0
 8000844:	613b      	str	r3, [r7, #16]
		GasHeader.RTR = CAN_RTR_DATA;
 8000846:	2300      	movs	r3, #0
 8000848:	617b      	str	r3, [r7, #20]

		if (HAL_CAN_AddTxMessage(&hcan, &GasHeader, gasbuff, &TxMailbox)
 800084a:	f107 0320 	add.w	r3, r7, #32
 800084e:	f107 0224 	add.w	r2, r7, #36	; 0x24
 8000852:	f107 0108 	add.w	r1, r7, #8
 8000856:	4808      	ldr	r0, [pc, #32]	; (8000878 <Gas_taskF+0x70>)
 8000858:	f001 fa68 	bl	8001d2c <HAL_CAN_AddTxMessage>
 800085c:	4603      	mov	r3, r0
 800085e:	2b00      	cmp	r3, #0
 8000860:	d001      	beq.n	8000866 <Gas_taskF+0x5e>
				!= HAL_OK) {
			Error_Handler();
 8000862:	f000 f917 	bl	8000a94 <Error_Handler>
		}
		vTaskDelay(10); /*100Hz frequency*/
 8000866:	200a      	movs	r0, #10
 8000868:	f004 fd22 	bl	80052b0 <vTaskDelay>
	while (1) {
 800086c:	e7d0      	b.n	8000810 <Gas_taskF+0x8>
 800086e:	bf00      	nop
 8000870:	20002da0 	.word	0x20002da0
 8000874:	20002d2c 	.word	0x20002d2c
 8000878:	20002c7c 	.word	0x20002c7c

0800087c <Logger_taskF>:
	}
}

/*Logger Write Task  --- THIS TASK NEEDS TO IMPLEMENT START AND STOP LOG FUNCTIONS*/
void Logger_taskF(void *pvParameters) {
 800087c:	b580      	push	{r7, lr}
 800087e:	b084      	sub	sp, #16
 8000880:	af02      	add	r7, sp, #8
 8000882:	6078      	str	r0, [r7, #4]
	while (1) {
		if(startLOG==1){
 8000884:	4b26      	ldr	r3, [pc, #152]	; (8000920 <Logger_taskF+0xa4>)
 8000886:	781b      	ldrb	r3, [r3, #0]
 8000888:	2b01      	cmp	r3, #1
 800088a:	d11c      	bne.n	80008c6 <Logger_taskF+0x4a>
			startLOG=0;
 800088c:	4b24      	ldr	r3, [pc, #144]	; (8000920 <Logger_taskF+0xa4>)
 800088e:	2200      	movs	r2, #0
 8000890:	701a      	strb	r2, [r3, #0]
			bsl[1]  = 0xAA;
 8000892:	4b24      	ldr	r3, [pc, #144]	; (8000924 <Logger_taskF+0xa8>)
 8000894:	22aa      	movs	r2, #170	; 0xaa
 8000896:	705a      	strb	r2, [r3, #1]
			bsl[11] = 0xBB;
 8000898:	4b22      	ldr	r3, [pc, #136]	; (8000924 <Logger_taskF+0xa8>)
 800089a:	22bb      	movs	r2, #187	; 0xbb
 800089c:	72da      	strb	r2, [r3, #11]
			bsl[21] = 0xCC;
 800089e:	4b21      	ldr	r3, [pc, #132]	; (8000924 <Logger_taskF+0xa8>)
 80008a0:	22cc      	movs	r2, #204	; 0xcc
 80008a2:	755a      	strb	r2, [r3, #21]
			bsl[0]  = 0x00;
 80008a4:	4b1f      	ldr	r3, [pc, #124]	; (8000924 <Logger_taskF+0xa8>)
 80008a6:	2200      	movs	r2, #0
 80008a8:	701a      	strb	r2, [r3, #0]
			bsl[10] = 0x00;
 80008aa:	4b1e      	ldr	r3, [pc, #120]	; (8000924 <Logger_taskF+0xa8>)
 80008ac:	2200      	movs	r2, #0
 80008ae:	729a      	strb	r2, [r3, #10]
			bsl[20] = 0x00;
 80008b0:	4b1c      	ldr	r3, [pc, #112]	; (8000924 <Logger_taskF+0xa8>)
 80008b2:	2200      	movs	r2, #0
 80008b4:	751a      	strb	r2, [r3, #20]
			HAL_I2C_Master_Transmit(&hi2c1, (0x08 << 1), bsl, 22, 10);
 80008b6:	230a      	movs	r3, #10
 80008b8:	9300      	str	r3, [sp, #0]
 80008ba:	2316      	movs	r3, #22
 80008bc:	4a19      	ldr	r2, [pc, #100]	; (8000924 <Logger_taskF+0xa8>)
 80008be:	2110      	movs	r1, #16
 80008c0:	4819      	ldr	r0, [pc, #100]	; (8000928 <Logger_taskF+0xac>)
 80008c2:	f002 fc3f 	bl	8003144 <HAL_I2C_Master_Transmit>
		}
		if(stopLOG==1){
 80008c6:	4b19      	ldr	r3, [pc, #100]	; (800092c <Logger_taskF+0xb0>)
 80008c8:	781b      	ldrb	r3, [r3, #0]
 80008ca:	2b01      	cmp	r3, #1
 80008cc:	d11c      	bne.n	8000908 <Logger_taskF+0x8c>
			stopLOG=0;
 80008ce:	4b17      	ldr	r3, [pc, #92]	; (800092c <Logger_taskF+0xb0>)
 80008d0:	2200      	movs	r2, #0
 80008d2:	701a      	strb	r2, [r3, #0]
			bsl[0]  = 0xDD;
 80008d4:	4b13      	ldr	r3, [pc, #76]	; (8000924 <Logger_taskF+0xa8>)
 80008d6:	22dd      	movs	r2, #221	; 0xdd
 80008d8:	701a      	strb	r2, [r3, #0]
			bsl[10] = 0xEE;
 80008da:	4b12      	ldr	r3, [pc, #72]	; (8000924 <Logger_taskF+0xa8>)
 80008dc:	22ee      	movs	r2, #238	; 0xee
 80008de:	729a      	strb	r2, [r3, #10]
			bsl[20] = 0xFF;
 80008e0:	4b10      	ldr	r3, [pc, #64]	; (8000924 <Logger_taskF+0xa8>)
 80008e2:	22ff      	movs	r2, #255	; 0xff
 80008e4:	751a      	strb	r2, [r3, #20]
			bsl[1]  = 0x00;
 80008e6:	4b0f      	ldr	r3, [pc, #60]	; (8000924 <Logger_taskF+0xa8>)
 80008e8:	2200      	movs	r2, #0
 80008ea:	705a      	strb	r2, [r3, #1]
			bsl[11] = 0x00;
 80008ec:	4b0d      	ldr	r3, [pc, #52]	; (8000924 <Logger_taskF+0xa8>)
 80008ee:	2200      	movs	r2, #0
 80008f0:	72da      	strb	r2, [r3, #11]
			bsl[21] = 0x00;
 80008f2:	4b0c      	ldr	r3, [pc, #48]	; (8000924 <Logger_taskF+0xa8>)
 80008f4:	2200      	movs	r2, #0
 80008f6:	755a      	strb	r2, [r3, #21]
			HAL_I2C_Master_Transmit(&hi2c1, (0x08 << 1), bsl, 22, 10);
 80008f8:	230a      	movs	r3, #10
 80008fa:	9300      	str	r3, [sp, #0]
 80008fc:	2316      	movs	r3, #22
 80008fe:	4a09      	ldr	r2, [pc, #36]	; (8000924 <Logger_taskF+0xa8>)
 8000900:	2110      	movs	r1, #16
 8000902:	4809      	ldr	r0, [pc, #36]	; (8000928 <Logger_taskF+0xac>)
 8000904:	f002 fc1e 	bl	8003144 <HAL_I2C_Master_Transmit>
		}
		HAL_I2C_Master_Transmit(&hi2c1, (0x08 << 1), buffer, 22, 10);
 8000908:	230a      	movs	r3, #10
 800090a:	9300      	str	r3, [sp, #0]
 800090c:	2316      	movs	r3, #22
 800090e:	4a08      	ldr	r2, [pc, #32]	; (8000930 <Logger_taskF+0xb4>)
 8000910:	2110      	movs	r1, #16
 8000912:	4805      	ldr	r0, [pc, #20]	; (8000928 <Logger_taskF+0xac>)
 8000914:	f002 fc16 	bl	8003144 <HAL_I2C_Master_Transmit>
		vTaskDelay(10); /*100Hz frequency*/
 8000918:	200a      	movs	r0, #10
 800091a:	f004 fcc9 	bl	80052b0 <vTaskDelay>
		if(startLOG==1){
 800091e:	e7b1      	b.n	8000884 <Logger_taskF+0x8>
 8000920:	20000284 	.word	0x20000284
 8000924:	20002ca4 	.word	0x20002ca4
 8000928:	20002c28 	.word	0x20002c28
 800092c:	20000285 	.word	0x20000285
 8000930:	20002d2c 	.word	0x20002d2c

08000934 <Telemetry_taskF>:
	}
}

/*LoRa Transceiver Write Task*/
void Telemetry_taskF(void *pvParameters) {
 8000934:	b580      	push	{r7, lr}
 8000936:	b084      	sub	sp, #16
 8000938:	af00      	add	r7, sp, #0
 800093a:	6078      	str	r0, [r7, #4]
	while (1) {
		LoRa[0] = sync;
 800093c:	4b0f      	ldr	r3, [pc, #60]	; (800097c <Telemetry_taskF+0x48>)
 800093e:	781a      	ldrb	r2, [r3, #0]
 8000940:	4b0f      	ldr	r3, [pc, #60]	; (8000980 <Telemetry_taskF+0x4c>)
 8000942:	701a      	strb	r2, [r3, #0]
		for (int y = 1; y < 23; y++) {
 8000944:	2301      	movs	r3, #1
 8000946:	60fb      	str	r3, [r7, #12]
 8000948:	e00b      	b.n	8000962 <Telemetry_taskF+0x2e>
			LoRa[y] = buffer[y - 1];
 800094a:	68fb      	ldr	r3, [r7, #12]
 800094c:	3b01      	subs	r3, #1
 800094e:	4a0d      	ldr	r2, [pc, #52]	; (8000984 <Telemetry_taskF+0x50>)
 8000950:	5cd1      	ldrb	r1, [r2, r3]
 8000952:	4a0b      	ldr	r2, [pc, #44]	; (8000980 <Telemetry_taskF+0x4c>)
 8000954:	68fb      	ldr	r3, [r7, #12]
 8000956:	4413      	add	r3, r2
 8000958:	460a      	mov	r2, r1
 800095a:	701a      	strb	r2, [r3, #0]
		for (int y = 1; y < 23; y++) {
 800095c:	68fb      	ldr	r3, [r7, #12]
 800095e:	3301      	adds	r3, #1
 8000960:	60fb      	str	r3, [r7, #12]
 8000962:	68fb      	ldr	r3, [r7, #12]
 8000964:	2b16      	cmp	r3, #22
 8000966:	ddf0      	ble.n	800094a <Telemetry_taskF+0x16>
		}
		HAL_UART_Transmit(&huart1, LoRa, 23, 100);
 8000968:	2364      	movs	r3, #100	; 0x64
 800096a:	2217      	movs	r2, #23
 800096c:	4904      	ldr	r1, [pc, #16]	; (8000980 <Telemetry_taskF+0x4c>)
 800096e:	4806      	ldr	r0, [pc, #24]	; (8000988 <Telemetry_taskF+0x54>)
 8000970:	f003 fe29 	bl	80045c6 <HAL_UART_Transmit>
		vTaskDelay(100); /*10Hz frequency*/
 8000974:	2064      	movs	r0, #100	; 0x64
 8000976:	f004 fc9b 	bl	80052b0 <vTaskDelay>
		LoRa[0] = sync;
 800097a:	e7df      	b.n	800093c <Telemetry_taskF+0x8>
 800097c:	20000000 	.word	0x20000000
 8000980:	20002d44 	.word	0x20002d44
 8000984:	20002d2c 	.word	0x20002d2c
 8000988:	20002cec 	.word	0x20002cec

0800098c <HAL_CAN_RxFifo0MsgPendingCallback>:
	}
}

/*CAN Read Callback -- THIS FUNCTION NEEDS TO IMPLEMENT START AND STOP LOG MESSAGES  */
void HAL_CAN_RxFifo0MsgPendingCallback(CAN_HandleTypeDef *hcan) {
 800098c:	b580      	push	{r7, lr}
 800098e:	b08c      	sub	sp, #48	; 0x30
 8000990:	af00      	add	r7, sp, #0
 8000992:	6078      	str	r0, [r7, #4]
	CAN_RxHeaderTypeDef RxHeader;
	uint8_t rcv_msg[8];
	if (HAL_CAN_GetRxMessage(hcan, CAN_RX_FIFO0, &RxHeader, rcv_msg)
 8000994:	f107 030c 	add.w	r3, r7, #12
 8000998:	f107 0214 	add.w	r2, r7, #20
 800099c:	2100      	movs	r1, #0
 800099e:	6878      	ldr	r0, [r7, #4]
 80009a0:	f001 fa9e 	bl	8001ee0 <HAL_CAN_GetRxMessage>
 80009a4:	4603      	mov	r3, r0
 80009a6:	2b00      	cmp	r3, #0
 80009a8:	d001      	beq.n	80009ae <HAL_CAN_RxFifo0MsgPendingCallback+0x22>
			!= HAL_OK) {
		Error_Handler();
 80009aa:	f000 f873 	bl	8000a94 <Error_Handler>
	}

	if (RxHeader.StdId == 0x64E) {
 80009ae:	697b      	ldr	r3, [r7, #20]
 80009b0:	f240 624e 	movw	r2, #1614	; 0x64e
 80009b4:	4293      	cmp	r3, r2
 80009b6:	d102      	bne.n	80009be <HAL_CAN_RxFifo0MsgPendingCallback+0x32>
		//if (rcv_msg[0] == 0x55) {
			startLOG=1;
 80009b8:	4b2a      	ldr	r3, [pc, #168]	; (8000a64 <HAL_CAN_RxFifo0MsgPendingCallback+0xd8>)
 80009ba:	2201      	movs	r2, #1
 80009bc:	701a      	strb	r2, [r3, #0]
		//}
	}

	if (RxHeader.StdId == 0x64F) {
 80009be:	697b      	ldr	r3, [r7, #20]
 80009c0:	f240 624f 	movw	r2, #1615	; 0x64f
 80009c4:	4293      	cmp	r3, r2
 80009c6:	d102      	bne.n	80009ce <HAL_CAN_RxFifo0MsgPendingCallback+0x42>
		//if (rcv_msg[0] == 0x66) {
			stopLOG=1;
 80009c8:	4b27      	ldr	r3, [pc, #156]	; (8000a68 <HAL_CAN_RxFifo0MsgPendingCallback+0xdc>)
 80009ca:	2201      	movs	r2, #1
 80009cc:	701a      	strb	r2, [r3, #0]
		//}
	}

	if (RxHeader.StdId == 0x650) {
 80009ce:	697b      	ldr	r3, [r7, #20]
 80009d0:	f5b3 6fca 	cmp.w	r3, #1616	; 0x650
 80009d4:	d105      	bne.n	80009e2 <HAL_CAN_RxFifo0MsgPendingCallback+0x56>
		buffer[4] = rcv_msg[0];
 80009d6:	7b3a      	ldrb	r2, [r7, #12]
 80009d8:	4b24      	ldr	r3, [pc, #144]	; (8000a6c <HAL_CAN_RxFifo0MsgPendingCallback+0xe0>)
 80009da:	711a      	strb	r2, [r3, #4]
		buffer[5] = rcv_msg[1];
 80009dc:	7b7a      	ldrb	r2, [r7, #13]
 80009de:	4b23      	ldr	r3, [pc, #140]	; (8000a6c <HAL_CAN_RxFifo0MsgPendingCallback+0xe0>)
 80009e0:	715a      	strb	r2, [r3, #5]
	}

	if (RxHeader.StdId == 0x651) {
 80009e2:	697b      	ldr	r3, [r7, #20]
 80009e4:	f240 6251 	movw	r2, #1617	; 0x651
 80009e8:	4293      	cmp	r3, r2
 80009ea:	d105      	bne.n	80009f8 <HAL_CAN_RxFifo0MsgPendingCallback+0x6c>
		buffer[6] = rcv_msg[0];
 80009ec:	7b3a      	ldrb	r2, [r7, #12]
 80009ee:	4b1f      	ldr	r3, [pc, #124]	; (8000a6c <HAL_CAN_RxFifo0MsgPendingCallback+0xe0>)
 80009f0:	719a      	strb	r2, [r3, #6]
		buffer[7] = rcv_msg[1];
 80009f2:	7b7a      	ldrb	r2, [r7, #13]
 80009f4:	4b1d      	ldr	r3, [pc, #116]	; (8000a6c <HAL_CAN_RxFifo0MsgPendingCallback+0xe0>)
 80009f6:	71da      	strb	r2, [r3, #7]
	}

	if (RxHeader.StdId == 0x652) {
 80009f8:	697b      	ldr	r3, [r7, #20]
 80009fa:	f240 6252 	movw	r2, #1618	; 0x652
 80009fe:	4293      	cmp	r3, r2
 8000a00:	d105      	bne.n	8000a0e <HAL_CAN_RxFifo0MsgPendingCallback+0x82>
		buffer[8] = rcv_msg[0];
 8000a02:	7b3a      	ldrb	r2, [r7, #12]
 8000a04:	4b19      	ldr	r3, [pc, #100]	; (8000a6c <HAL_CAN_RxFifo0MsgPendingCallback+0xe0>)
 8000a06:	721a      	strb	r2, [r3, #8]
		buffer[9] = rcv_msg[1];
 8000a08:	7b7a      	ldrb	r2, [r7, #13]
 8000a0a:	4b18      	ldr	r3, [pc, #96]	; (8000a6c <HAL_CAN_RxFifo0MsgPendingCallback+0xe0>)
 8000a0c:	725a      	strb	r2, [r3, #9]
	}

	if (RxHeader.StdId == 0x653) {
 8000a0e:	697b      	ldr	r3, [r7, #20]
 8000a10:	f240 6253 	movw	r2, #1619	; 0x653
 8000a14:	4293      	cmp	r3, r2
 8000a16:	d105      	bne.n	8000a24 <HAL_CAN_RxFifo0MsgPendingCallback+0x98>
		buffer[10] = rcv_msg[0];
 8000a18:	7b3a      	ldrb	r2, [r7, #12]
 8000a1a:	4b14      	ldr	r3, [pc, #80]	; (8000a6c <HAL_CAN_RxFifo0MsgPendingCallback+0xe0>)
 8000a1c:	729a      	strb	r2, [r3, #10]
		buffer[11] = rcv_msg[1];
 8000a1e:	7b7a      	ldrb	r2, [r7, #13]
 8000a20:	4b12      	ldr	r3, [pc, #72]	; (8000a6c <HAL_CAN_RxFifo0MsgPendingCallback+0xe0>)
 8000a22:	72da      	strb	r2, [r3, #11]
	}

	if (RxHeader.StdId == 0x654) {
 8000a24:	697b      	ldr	r3, [r7, #20]
 8000a26:	f240 6254 	movw	r2, #1620	; 0x654
 8000a2a:	4293      	cmp	r3, r2
 8000a2c:	d105      	bne.n	8000a3a <HAL_CAN_RxFifo0MsgPendingCallback+0xae>
		buffer[12] = rcv_msg[0];
 8000a2e:	7b3a      	ldrb	r2, [r7, #12]
 8000a30:	4b0e      	ldr	r3, [pc, #56]	; (8000a6c <HAL_CAN_RxFifo0MsgPendingCallback+0xe0>)
 8000a32:	731a      	strb	r2, [r3, #12]
		buffer[13] = rcv_msg[1];
 8000a34:	7b7a      	ldrb	r2, [r7, #13]
 8000a36:	4b0d      	ldr	r3, [pc, #52]	; (8000a6c <HAL_CAN_RxFifo0MsgPendingCallback+0xe0>)
 8000a38:	735a      	strb	r2, [r3, #13]
	}

	if (RxHeader.StdId == 0x655) {
 8000a3a:	697b      	ldr	r3, [r7, #20]
 8000a3c:	f240 6255 	movw	r2, #1621	; 0x655
 8000a40:	4293      	cmp	r3, r2
 8000a42:	d10b      	bne.n	8000a5c <HAL_CAN_RxFifo0MsgPendingCallback+0xd0>
		buffer[14] = rcv_msg[0];
 8000a44:	7b3a      	ldrb	r2, [r7, #12]
 8000a46:	4b09      	ldr	r3, [pc, #36]	; (8000a6c <HAL_CAN_RxFifo0MsgPendingCallback+0xe0>)
 8000a48:	739a      	strb	r2, [r3, #14]
		buffer[15] = rcv_msg[1];
 8000a4a:	7b7a      	ldrb	r2, [r7, #13]
 8000a4c:	4b07      	ldr	r3, [pc, #28]	; (8000a6c <HAL_CAN_RxFifo0MsgPendingCallback+0xe0>)
 8000a4e:	73da      	strb	r2, [r3, #15]
		buffer[16] = rcv_msg[2];
 8000a50:	7bba      	ldrb	r2, [r7, #14]
 8000a52:	4b06      	ldr	r3, [pc, #24]	; (8000a6c <HAL_CAN_RxFifo0MsgPendingCallback+0xe0>)
 8000a54:	741a      	strb	r2, [r3, #16]
		buffer[17] = rcv_msg[3];
 8000a56:	7bfa      	ldrb	r2, [r7, #15]
 8000a58:	4b04      	ldr	r3, [pc, #16]	; (8000a6c <HAL_CAN_RxFifo0MsgPendingCallback+0xe0>)
 8000a5a:	745a      	strb	r2, [r3, #17]
	}

}
 8000a5c:	bf00      	nop
 8000a5e:	3730      	adds	r7, #48	; 0x30
 8000a60:	46bd      	mov	sp, r7
 8000a62:	bd80      	pop	{r7, pc}
 8000a64:	20000284 	.word	0x20000284
 8000a68:	20000285 	.word	0x20000285
 8000a6c:	20002d2c 	.word	0x20002d2c

08000a70 <HAL_TIM_PeriodElapsedCallback>:
 * HAL_TIM_IRQHandler(). It makes a direct call to HAL_IncTick() to increment
 * a global variable "uwTick" used as application time base.
 * @param  htim : TIM handle
 * @retval None
 */
void HAL_TIM_PeriodElapsedCallback(TIM_HandleTypeDef *htim) {
 8000a70:	b580      	push	{r7, lr}
 8000a72:	b082      	sub	sp, #8
 8000a74:	af00      	add	r7, sp, #0
 8000a76:	6078      	str	r0, [r7, #4]
	/* USER CODE BEGIN Callback 0 */

	/* USER CODE END Callback 0 */
	if (htim->Instance == TIM4) {
 8000a78:	687b      	ldr	r3, [r7, #4]
 8000a7a:	681b      	ldr	r3, [r3, #0]
 8000a7c:	4a04      	ldr	r2, [pc, #16]	; (8000a90 <HAL_TIM_PeriodElapsedCallback+0x20>)
 8000a7e:	4293      	cmp	r3, r2
 8000a80:	d101      	bne.n	8000a86 <HAL_TIM_PeriodElapsedCallback+0x16>
		HAL_IncTick();
 8000a82:	f000 fb51 	bl	8001128 <HAL_IncTick>
	}
	/* USER CODE BEGIN Callback 1 */

	/* USER CODE END Callback 1 */
}
 8000a86:	bf00      	nop
 8000a88:	3708      	adds	r7, #8
 8000a8a:	46bd      	mov	sp, r7
 8000a8c:	bd80      	pop	{r7, pc}
 8000a8e:	bf00      	nop
 8000a90:	40000800 	.word	0x40000800

08000a94 <Error_Handler>:

/**
 * @brief  This function is executed in case of error occurrence.
 * @retval None
 */
void Error_Handler(void) {
 8000a94:	b480      	push	{r7}
 8000a96:	af00      	add	r7, sp, #0
	/* USER CODE BEGIN Error_Handler_Debug */
	/* User can add his own implementation to report the HAL error return state */

	/* USER CODE END Error_Handler_Debug */
}
 8000a98:	bf00      	nop
 8000a9a:	46bd      	mov	sp, r7
 8000a9c:	bc80      	pop	{r7}
 8000a9e:	4770      	bx	lr

08000aa0 <HAL_MspInit>:
/* USER CODE END 0 */
/**
  * Initializes the Global MSP.
  */
void HAL_MspInit(void)
{
 8000aa0:	b580      	push	{r7, lr}
 8000aa2:	b084      	sub	sp, #16
 8000aa4:	af00      	add	r7, sp, #0
  /* USER CODE BEGIN MspInit 0 */

  /* USER CODE END MspInit 0 */

  __HAL_RCC_AFIO_CLK_ENABLE();
 8000aa6:	4b18      	ldr	r3, [pc, #96]	; (8000b08 <HAL_MspInit+0x68>)
 8000aa8:	699b      	ldr	r3, [r3, #24]
 8000aaa:	4a17      	ldr	r2, [pc, #92]	; (8000b08 <HAL_MspInit+0x68>)
 8000aac:	f043 0301 	orr.w	r3, r3, #1
 8000ab0:	6193      	str	r3, [r2, #24]
 8000ab2:	4b15      	ldr	r3, [pc, #84]	; (8000b08 <HAL_MspInit+0x68>)
 8000ab4:	699b      	ldr	r3, [r3, #24]
 8000ab6:	f003 0301 	and.w	r3, r3, #1
 8000aba:	60bb      	str	r3, [r7, #8]
 8000abc:	68bb      	ldr	r3, [r7, #8]
  __HAL_RCC_PWR_CLK_ENABLE();
 8000abe:	4b12      	ldr	r3, [pc, #72]	; (8000b08 <HAL_MspInit+0x68>)
 8000ac0:	69db      	ldr	r3, [r3, #28]
 8000ac2:	4a11      	ldr	r2, [pc, #68]	; (8000b08 <HAL_MspInit+0x68>)
 8000ac4:	f043 5380 	orr.w	r3, r3, #268435456	; 0x10000000
 8000ac8:	61d3      	str	r3, [r2, #28]
 8000aca:	4b0f      	ldr	r3, [pc, #60]	; (8000b08 <HAL_MspInit+0x68>)
 8000acc:	69db      	ldr	r3, [r3, #28]
 8000ace:	f003 5380 	and.w	r3, r3, #268435456	; 0x10000000
 8000ad2:	607b      	str	r3, [r7, #4]
 8000ad4:	687b      	ldr	r3, [r7, #4]

  /* System interrupt init*/
  /* PendSV_IRQn interrupt configuration */
  HAL_NVIC_SetPriority(PendSV_IRQn, 15, 0);
 8000ad6:	2200      	movs	r2, #0
 8000ad8:	210f      	movs	r1, #15
 8000ada:	f06f 0001 	mvn.w	r0, #1
 8000ade:	f001 fe08 	bl	80026f2 <HAL_NVIC_SetPriority>

  /** NOJTAG: JTAG-DP Disabled and SW-DP Enabled
  */
  __HAL_AFIO_REMAP_SWJ_NOJTAG();
 8000ae2:	4b0a      	ldr	r3, [pc, #40]	; (8000b0c <HAL_MspInit+0x6c>)
 8000ae4:	685b      	ldr	r3, [r3, #4]
 8000ae6:	60fb      	str	r3, [r7, #12]
 8000ae8:	68fb      	ldr	r3, [r7, #12]
 8000aea:	f023 63e0 	bic.w	r3, r3, #117440512	; 0x7000000
 8000aee:	60fb      	str	r3, [r7, #12]
 8000af0:	68fb      	ldr	r3, [r7, #12]
 8000af2:	f043 7300 	orr.w	r3, r3, #33554432	; 0x2000000
 8000af6:	60fb      	str	r3, [r7, #12]
 8000af8:	4a04      	ldr	r2, [pc, #16]	; (8000b0c <HAL_MspInit+0x6c>)
 8000afa:	68fb      	ldr	r3, [r7, #12]
 8000afc:	6053      	str	r3, [r2, #4]

  /* USER CODE BEGIN MspInit 1 */

  /* USER CODE END MspInit 1 */
}
 8000afe:	bf00      	nop
 8000b00:	3710      	adds	r7, #16
 8000b02:	46bd      	mov	sp, r7
 8000b04:	bd80      	pop	{r7, pc}
 8000b06:	bf00      	nop
 8000b08:	40021000 	.word	0x40021000
 8000b0c:	40010000 	.word	0x40010000

08000b10 <HAL_ADC_MspInit>:
* This function configures the hardware resources used in this example
* @param hadc: ADC handle pointer
* @retval None
*/
void HAL_ADC_MspInit(ADC_HandleTypeDef* hadc)
{
 8000b10:	b580      	push	{r7, lr}
 8000b12:	b088      	sub	sp, #32
 8000b14:	af00      	add	r7, sp, #0
 8000b16:	6078      	str	r0, [r7, #4]
  GPIO_InitTypeDef GPIO_InitStruct = {0};
 8000b18:	f107 0310 	add.w	r3, r7, #16
 8000b1c:	2200      	movs	r2, #0
 8000b1e:	601a      	str	r2, [r3, #0]
 8000b20:	605a      	str	r2, [r3, #4]
 8000b22:	609a      	str	r2, [r3, #8]
 8000b24:	60da      	str	r2, [r3, #12]
  if(hadc->Instance==ADC1)
 8000b26:	687b      	ldr	r3, [r7, #4]
 8000b28:	681b      	ldr	r3, [r3, #0]
 8000b2a:	4a28      	ldr	r2, [pc, #160]	; (8000bcc <HAL_ADC_MspInit+0xbc>)
 8000b2c:	4293      	cmp	r3, r2
 8000b2e:	d149      	bne.n	8000bc4 <HAL_ADC_MspInit+0xb4>
  {
  /* USER CODE BEGIN ADC1_MspInit 0 */

  /* USER CODE END ADC1_MspInit 0 */
    /* Peripheral clock enable */
    __HAL_RCC_ADC1_CLK_ENABLE();
 8000b30:	4b27      	ldr	r3, [pc, #156]	; (8000bd0 <HAL_ADC_MspInit+0xc0>)
 8000b32:	699b      	ldr	r3, [r3, #24]
 8000b34:	4a26      	ldr	r2, [pc, #152]	; (8000bd0 <HAL_ADC_MspInit+0xc0>)
 8000b36:	f443 7300 	orr.w	r3, r3, #512	; 0x200
 8000b3a:	6193      	str	r3, [r2, #24]
 8000b3c:	4b24      	ldr	r3, [pc, #144]	; (8000bd0 <HAL_ADC_MspInit+0xc0>)
 8000b3e:	699b      	ldr	r3, [r3, #24]
 8000b40:	f403 7300 	and.w	r3, r3, #512	; 0x200
 8000b44:	60fb      	str	r3, [r7, #12]
 8000b46:	68fb      	ldr	r3, [r7, #12]

    __HAL_RCC_GPIOA_CLK_ENABLE();
 8000b48:	4b21      	ldr	r3, [pc, #132]	; (8000bd0 <HAL_ADC_MspInit+0xc0>)
 8000b4a:	699b      	ldr	r3, [r3, #24]
 8000b4c:	4a20      	ldr	r2, [pc, #128]	; (8000bd0 <HAL_ADC_MspInit+0xc0>)
 8000b4e:	f043 0304 	orr.w	r3, r3, #4
 8000b52:	6193      	str	r3, [r2, #24]
 8000b54:	4b1e      	ldr	r3, [pc, #120]	; (8000bd0 <HAL_ADC_MspInit+0xc0>)
 8000b56:	699b      	ldr	r3, [r3, #24]
 8000b58:	f003 0304 	and.w	r3, r3, #4
 8000b5c:	60bb      	str	r3, [r7, #8]
 8000b5e:	68bb      	ldr	r3, [r7, #8]
    /**ADC1 GPIO Configuration
    PA4     ------> ADC1_IN4
    */
    GPIO_InitStruct.Pin = Gas_Pin;
 8000b60:	2310      	movs	r3, #16
 8000b62:	613b      	str	r3, [r7, #16]
    GPIO_InitStruct.Mode = GPIO_MODE_ANALOG;
 8000b64:	2303      	movs	r3, #3
 8000b66:	617b      	str	r3, [r7, #20]
    HAL_GPIO_Init(Gas_GPIO_Port, &GPIO_InitStruct);
 8000b68:	f107 0310 	add.w	r3, r7, #16
 8000b6c:	4619      	mov	r1, r3
 8000b6e:	4819      	ldr	r0, [pc, #100]	; (8000bd4 <HAL_ADC_MspInit+0xc4>)
 8000b70:	f002 f84e 	bl	8002c10 <HAL_GPIO_Init>

    /* ADC1 DMA Init */
    /* ADC1 Init */
    hdma_adc1.Instance = DMA1_Channel1;
 8000b74:	4b18      	ldr	r3, [pc, #96]	; (8000bd8 <HAL_ADC_MspInit+0xc8>)
 8000b76:	4a19      	ldr	r2, [pc, #100]	; (8000bdc <HAL_ADC_MspInit+0xcc>)
 8000b78:	601a      	str	r2, [r3, #0]
    hdma_adc1.Init.Direction = DMA_PERIPH_TO_MEMORY;
 8000b7a:	4b17      	ldr	r3, [pc, #92]	; (8000bd8 <HAL_ADC_MspInit+0xc8>)
 8000b7c:	2200      	movs	r2, #0
 8000b7e:	605a      	str	r2, [r3, #4]
    hdma_adc1.Init.PeriphInc = DMA_PINC_DISABLE;
 8000b80:	4b15      	ldr	r3, [pc, #84]	; (8000bd8 <HAL_ADC_MspInit+0xc8>)
 8000b82:	2200      	movs	r2, #0
 8000b84:	609a      	str	r2, [r3, #8]
    hdma_adc1.Init.MemInc = DMA_MINC_ENABLE;
 8000b86:	4b14      	ldr	r3, [pc, #80]	; (8000bd8 <HAL_ADC_MspInit+0xc8>)
 8000b88:	2280      	movs	r2, #128	; 0x80
 8000b8a:	60da      	str	r2, [r3, #12]
    hdma_adc1.Init.PeriphDataAlignment = DMA_PDATAALIGN_HALFWORD;
 8000b8c:	4b12      	ldr	r3, [pc, #72]	; (8000bd8 <HAL_ADC_MspInit+0xc8>)
 8000b8e:	f44f 7280 	mov.w	r2, #256	; 0x100
 8000b92:	611a      	str	r2, [r3, #16]
    hdma_adc1.Init.MemDataAlignment = DMA_MDATAALIGN_HALFWORD;
 8000b94:	4b10      	ldr	r3, [pc, #64]	; (8000bd8 <HAL_ADC_MspInit+0xc8>)
 8000b96:	f44f 6280 	mov.w	r2, #1024	; 0x400
 8000b9a:	615a      	str	r2, [r3, #20]
    hdma_adc1.Init.Mode = DMA_CIRCULAR;
 8000b9c:	4b0e      	ldr	r3, [pc, #56]	; (8000bd8 <HAL_ADC_MspInit+0xc8>)
 8000b9e:	2220      	movs	r2, #32
 8000ba0:	619a      	str	r2, [r3, #24]
    hdma_adc1.Init.Priority = DMA_PRIORITY_LOW;
 8000ba2:	4b0d      	ldr	r3, [pc, #52]	; (8000bd8 <HAL_ADC_MspInit+0xc8>)
 8000ba4:	2200      	movs	r2, #0
 8000ba6:	61da      	str	r2, [r3, #28]
    if (HAL_DMA_Init(&hdma_adc1) != HAL_OK)
 8000ba8:	480b      	ldr	r0, [pc, #44]	; (8000bd8 <HAL_ADC_MspInit+0xc8>)
 8000baa:	f001 fdcd 	bl	8002748 <HAL_DMA_Init>
 8000bae:	4603      	mov	r3, r0
 8000bb0:	2b00      	cmp	r3, #0
 8000bb2:	d001      	beq.n	8000bb8 <HAL_ADC_MspInit+0xa8>
    {
      Error_Handler();
 8000bb4:	f7ff ff6e 	bl	8000a94 <Error_Handler>
    }

    __HAL_LINKDMA(hadc,DMA_Handle,hdma_adc1);
 8000bb8:	687b      	ldr	r3, [r7, #4]
 8000bba:	4a07      	ldr	r2, [pc, #28]	; (8000bd8 <HAL_ADC_MspInit+0xc8>)
 8000bbc:	621a      	str	r2, [r3, #32]
 8000bbe:	4a06      	ldr	r2, [pc, #24]	; (8000bd8 <HAL_ADC_MspInit+0xc8>)
 8000bc0:	687b      	ldr	r3, [r7, #4]
 8000bc2:	6253      	str	r3, [r2, #36]	; 0x24
  /* USER CODE BEGIN ADC1_MspInit 1 */

  /* USER CODE END ADC1_MspInit 1 */
  }

}
 8000bc4:	bf00      	nop
 8000bc6:	3720      	adds	r7, #32
 8000bc8:	46bd      	mov	sp, r7
 8000bca:	bd80      	pop	{r7, pc}
 8000bcc:	40012400 	.word	0x40012400
 8000bd0:	40021000 	.word	0x40021000
 8000bd4:	40010800 	.word	0x40010800
 8000bd8:	20002d5c 	.word	0x20002d5c
 8000bdc:	40020008 	.word	0x40020008

08000be0 <HAL_CAN_MspInit>:
* This function configures the hardware resources used in this example
* @param hcan: CAN handle pointer
* @retval None
*/
void HAL_CAN_MspInit(CAN_HandleTypeDef* hcan)
{
 8000be0:	b580      	push	{r7, lr}
 8000be2:	b08a      	sub	sp, #40	; 0x28
 8000be4:	af00      	add	r7, sp, #0
 8000be6:	6078      	str	r0, [r7, #4]
  GPIO_InitTypeDef GPIO_InitStruct = {0};
 8000be8:	f107 0314 	add.w	r3, r7, #20
 8000bec:	2200      	movs	r2, #0
 8000bee:	601a      	str	r2, [r3, #0]
 8000bf0:	605a      	str	r2, [r3, #4]
 8000bf2:	609a      	str	r2, [r3, #8]
 8000bf4:	60da      	str	r2, [r3, #12]
  if(hcan->Instance==CAN1)
 8000bf6:	687b      	ldr	r3, [r7, #4]
 8000bf8:	681b      	ldr	r3, [r3, #0]
 8000bfa:	4a35      	ldr	r2, [pc, #212]	; (8000cd0 <HAL_CAN_MspInit+0xf0>)
 8000bfc:	4293      	cmp	r3, r2
 8000bfe:	d163      	bne.n	8000cc8 <HAL_CAN_MspInit+0xe8>
  {
  /* USER CODE BEGIN CAN1_MspInit 0 */

  /* USER CODE END CAN1_MspInit 0 */
    /* Peripheral clock enable */
    __HAL_RCC_CAN1_CLK_ENABLE();
 8000c00:	4b34      	ldr	r3, [pc, #208]	; (8000cd4 <HAL_CAN_MspInit+0xf4>)
 8000c02:	69db      	ldr	r3, [r3, #28]
 8000c04:	4a33      	ldr	r2, [pc, #204]	; (8000cd4 <HAL_CAN_MspInit+0xf4>)
 8000c06:	f043 7300 	orr.w	r3, r3, #33554432	; 0x2000000
 8000c0a:	61d3      	str	r3, [r2, #28]
 8000c0c:	4b31      	ldr	r3, [pc, #196]	; (8000cd4 <HAL_CAN_MspInit+0xf4>)
 8000c0e:	69db      	ldr	r3, [r3, #28]
 8000c10:	f003 7300 	and.w	r3, r3, #33554432	; 0x2000000
 8000c14:	613b      	str	r3, [r7, #16]
 8000c16:	693b      	ldr	r3, [r7, #16]

    __HAL_RCC_GPIOB_CLK_ENABLE();
 8000c18:	4b2e      	ldr	r3, [pc, #184]	; (8000cd4 <HAL_CAN_MspInit+0xf4>)
 8000c1a:	699b      	ldr	r3, [r3, #24]
 8000c1c:	4a2d      	ldr	r2, [pc, #180]	; (8000cd4 <HAL_CAN_MspInit+0xf4>)
 8000c1e:	f043 0308 	orr.w	r3, r3, #8
 8000c22:	6193      	str	r3, [r2, #24]
 8000c24:	4b2b      	ldr	r3, [pc, #172]	; (8000cd4 <HAL_CAN_MspInit+0xf4>)
 8000c26:	699b      	ldr	r3, [r3, #24]
 8000c28:	f003 0308 	and.w	r3, r3, #8
 8000c2c:	60fb      	str	r3, [r7, #12]
 8000c2e:	68fb      	ldr	r3, [r7, #12]
    /**CAN GPIO Configuration
    PB8     ------> CAN_RX
    PB9     ------> CAN_TX
    */
    GPIO_InitStruct.Pin = GPIO_PIN_8;
 8000c30:	f44f 7380 	mov.w	r3, #256	; 0x100
 8000c34:	617b      	str	r3, [r7, #20]
    GPIO_InitStruct.Mode = GPIO_MODE_INPUT;
 8000c36:	2300      	movs	r3, #0
 8000c38:	61bb      	str	r3, [r7, #24]
    GPIO_InitStruct.Pull = GPIO_NOPULL;
 8000c3a:	2300      	movs	r3, #0
 8000c3c:	61fb      	str	r3, [r7, #28]
    HAL_GPIO_Init(GPIOB, &GPIO_InitStruct);
 8000c3e:	f107 0314 	add.w	r3, r7, #20
 8000c42:	4619      	mov	r1, r3
 8000c44:	4824      	ldr	r0, [pc, #144]	; (8000cd8 <HAL_CAN_MspInit+0xf8>)
 8000c46:	f001 ffe3 	bl	8002c10 <HAL_GPIO_Init>

    GPIO_InitStruct.Pin = GPIO_PIN_9;
 8000c4a:	f44f 7300 	mov.w	r3, #512	; 0x200
 8000c4e:	617b      	str	r3, [r7, #20]
    GPIO_InitStruct.Mode = GPIO_MODE_AF_PP;
 8000c50:	2302      	movs	r3, #2
 8000c52:	61bb      	str	r3, [r7, #24]
    GPIO_InitStruct.Speed = GPIO_SPEED_FREQ_HIGH;
 8000c54:	2303      	movs	r3, #3
 8000c56:	623b      	str	r3, [r7, #32]
    HAL_GPIO_Init(GPIOB, &GPIO_InitStruct);
 8000c58:	f107 0314 	add.w	r3, r7, #20
 8000c5c:	4619      	mov	r1, r3
 8000c5e:	481e      	ldr	r0, [pc, #120]	; (8000cd8 <HAL_CAN_MspInit+0xf8>)
 8000c60:	f001 ffd6 	bl	8002c10 <HAL_GPIO_Init>

    __HAL_AFIO_REMAP_CAN1_2();
 8000c64:	4b1d      	ldr	r3, [pc, #116]	; (8000cdc <HAL_CAN_MspInit+0xfc>)
 8000c66:	685b      	ldr	r3, [r3, #4]
 8000c68:	627b      	str	r3, [r7, #36]	; 0x24
 8000c6a:	6a7b      	ldr	r3, [r7, #36]	; 0x24
 8000c6c:	f423 43c0 	bic.w	r3, r3, #24576	; 0x6000
 8000c70:	627b      	str	r3, [r7, #36]	; 0x24
 8000c72:	6a7b      	ldr	r3, [r7, #36]	; 0x24
 8000c74:	f043 63e0 	orr.w	r3, r3, #117440512	; 0x7000000
 8000c78:	627b      	str	r3, [r7, #36]	; 0x24
 8000c7a:	6a7b      	ldr	r3, [r7, #36]	; 0x24
 8000c7c:	f443 4380 	orr.w	r3, r3, #16384	; 0x4000
 8000c80:	627b      	str	r3, [r7, #36]	; 0x24
 8000c82:	4a16      	ldr	r2, [pc, #88]	; (8000cdc <HAL_CAN_MspInit+0xfc>)
 8000c84:	6a7b      	ldr	r3, [r7, #36]	; 0x24
 8000c86:	6053      	str	r3, [r2, #4]

  /* USER CODE BEGIN CAN1_MspInit 1 */
    HAL_NVIC_SetPriority(USB_HP_CAN1_TX_IRQn, 5, 0);
 8000c88:	2200      	movs	r2, #0
 8000c8a:	2105      	movs	r1, #5
 8000c8c:	2013      	movs	r0, #19
 8000c8e:	f001 fd30 	bl	80026f2 <HAL_NVIC_SetPriority>
    HAL_NVIC_EnableIRQ(USB_HP_CAN1_TX_IRQn);
 8000c92:	2013      	movs	r0, #19
 8000c94:	f001 fd49 	bl	800272a <HAL_NVIC_EnableIRQ>
    HAL_NVIC_SetPriority(USB_LP_CAN1_RX0_IRQn, 5, 0);
 8000c98:	2200      	movs	r2, #0
 8000c9a:	2105      	movs	r1, #5
 8000c9c:	2014      	movs	r0, #20
 8000c9e:	f001 fd28 	bl	80026f2 <HAL_NVIC_SetPriority>
    HAL_NVIC_EnableIRQ(USB_LP_CAN1_RX0_IRQn);
 8000ca2:	2014      	movs	r0, #20
 8000ca4:	f001 fd41 	bl	800272a <HAL_NVIC_EnableIRQ>
    HAL_NVIC_SetPriority(CAN1_RX1_IRQn, 5, 0);
 8000ca8:	2200      	movs	r2, #0
 8000caa:	2105      	movs	r1, #5
 8000cac:	2015      	movs	r0, #21
 8000cae:	f001 fd20 	bl	80026f2 <HAL_NVIC_SetPriority>
    HAL_NVIC_EnableIRQ(CAN1_RX1_IRQn);
 8000cb2:	2015      	movs	r0, #21
 8000cb4:	f001 fd39 	bl	800272a <HAL_NVIC_EnableIRQ>
    HAL_NVIC_SetPriority(CAN1_SCE_IRQn, 5, 0);
 8000cb8:	2200      	movs	r2, #0
 8000cba:	2105      	movs	r1, #5
 8000cbc:	2016      	movs	r0, #22
 8000cbe:	f001 fd18 	bl	80026f2 <HAL_NVIC_SetPriority>
    HAL_NVIC_EnableIRQ(CAN1_SCE_IRQn);
 8000cc2:	2016      	movs	r0, #22
 8000cc4:	f001 fd31 	bl	800272a <HAL_NVIC_EnableIRQ>
  /* USER CODE END CAN1_MspInit 1 */
  }

}
 8000cc8:	bf00      	nop
 8000cca:	3728      	adds	r7, #40	; 0x28
 8000ccc:	46bd      	mov	sp, r7
 8000cce:	bd80      	pop	{r7, pc}
 8000cd0:	40006400 	.word	0x40006400
 8000cd4:	40021000 	.word	0x40021000
 8000cd8:	40010c00 	.word	0x40010c00
 8000cdc:	40010000 	.word	0x40010000

08000ce0 <HAL_I2C_MspInit>:
* This function configures the hardware resources used in this example
* @param hi2c: I2C handle pointer
* @retval None
*/
void HAL_I2C_MspInit(I2C_HandleTypeDef* hi2c)
{
 8000ce0:	b580      	push	{r7, lr}
 8000ce2:	b088      	sub	sp, #32
 8000ce4:	af00      	add	r7, sp, #0
 8000ce6:	6078      	str	r0, [r7, #4]
  GPIO_InitTypeDef GPIO_InitStruct = {0};
 8000ce8:	f107 0310 	add.w	r3, r7, #16
 8000cec:	2200      	movs	r2, #0
 8000cee:	601a      	str	r2, [r3, #0]
 8000cf0:	605a      	str	r2, [r3, #4]
 8000cf2:	609a      	str	r2, [r3, #8]
 8000cf4:	60da      	str	r2, [r3, #12]
  if(hi2c->Instance==I2C1)
 8000cf6:	687b      	ldr	r3, [r7, #4]
 8000cf8:	681b      	ldr	r3, [r3, #0]
 8000cfa:	4a15      	ldr	r2, [pc, #84]	; (8000d50 <HAL_I2C_MspInit+0x70>)
 8000cfc:	4293      	cmp	r3, r2
 8000cfe:	d123      	bne.n	8000d48 <HAL_I2C_MspInit+0x68>
  {
  /* USER CODE BEGIN I2C1_MspInit 0 */
	    /* Peripheral clock enable */
    __HAL_RCC_I2C1_CLK_ENABLE();
 8000d00:	4b14      	ldr	r3, [pc, #80]	; (8000d54 <HAL_I2C_MspInit+0x74>)
 8000d02:	69db      	ldr	r3, [r3, #28]
 8000d04:	4a13      	ldr	r2, [pc, #76]	; (8000d54 <HAL_I2C_MspInit+0x74>)
 8000d06:	f443 1300 	orr.w	r3, r3, #2097152	; 0x200000
 8000d0a:	61d3      	str	r3, [r2, #28]
 8000d0c:	4b11      	ldr	r3, [pc, #68]	; (8000d54 <HAL_I2C_MspInit+0x74>)
 8000d0e:	69db      	ldr	r3, [r3, #28]
 8000d10:	f403 1300 	and.w	r3, r3, #2097152	; 0x200000
 8000d14:	60fb      	str	r3, [r7, #12]
 8000d16:	68fb      	ldr	r3, [r7, #12]
  /* USER CODE END I2C1_MspInit 0 */

    __HAL_RCC_GPIOB_CLK_ENABLE();
 8000d18:	4b0e      	ldr	r3, [pc, #56]	; (8000d54 <HAL_I2C_MspInit+0x74>)
 8000d1a:	699b      	ldr	r3, [r3, #24]
 8000d1c:	4a0d      	ldr	r2, [pc, #52]	; (8000d54 <HAL_I2C_MspInit+0x74>)
 8000d1e:	f043 0308 	orr.w	r3, r3, #8
 8000d22:	6193      	str	r3, [r2, #24]
 8000d24:	4b0b      	ldr	r3, [pc, #44]	; (8000d54 <HAL_I2C_MspInit+0x74>)
 8000d26:	699b      	ldr	r3, [r3, #24]
 8000d28:	f003 0308 	and.w	r3, r3, #8
 8000d2c:	60bb      	str	r3, [r7, #8]
 8000d2e:	68bb      	ldr	r3, [r7, #8]
    /**I2C1 GPIO Configuration
    PB6     ------> I2C1_SCL
    PB7     ------> I2C1_SDA
    */
    GPIO_InitStruct.Pin = GPIO_PIN_6|GPIO_PIN_7;
 8000d30:	23c0      	movs	r3, #192	; 0xc0
 8000d32:	613b      	str	r3, [r7, #16]
    GPIO_InitStruct.Mode = GPIO_MODE_AF_OD;
 8000d34:	2312      	movs	r3, #18
 8000d36:	617b      	str	r3, [r7, #20]
    GPIO_InitStruct.Speed = GPIO_SPEED_FREQ_HIGH;
 8000d38:	2303      	movs	r3, #3
 8000d3a:	61fb      	str	r3, [r7, #28]
    HAL_GPIO_Init(GPIOB, &GPIO_InitStruct);
 8000d3c:	f107 0310 	add.w	r3, r7, #16
 8000d40:	4619      	mov	r1, r3
 8000d42:	4805      	ldr	r0, [pc, #20]	; (8000d58 <HAL_I2C_MspInit+0x78>)
 8000d44:	f001 ff64 	bl	8002c10 <HAL_GPIO_Init>
  /* USER CODE BEGIN I2C1_MspInit 1 */

  /* USER CODE END I2C1_MspInit 1 */
  }

}
 8000d48:	bf00      	nop
 8000d4a:	3720      	adds	r7, #32
 8000d4c:	46bd      	mov	sp, r7
 8000d4e:	bd80      	pop	{r7, pc}
 8000d50:	40005400 	.word	0x40005400
 8000d54:	40021000 	.word	0x40021000
 8000d58:	40010c00 	.word	0x40010c00

08000d5c <HAL_UART_MspInit>:
* This function configures the hardware resources used in this example
* @param huart: UART handle pointer
* @retval None
*/
void HAL_UART_MspInit(UART_HandleTypeDef* huart)
{
 8000d5c:	b580      	push	{r7, lr}
 8000d5e:	b08a      	sub	sp, #40	; 0x28
 8000d60:	af00      	add	r7, sp, #0
 8000d62:	6078      	str	r0, [r7, #4]
  GPIO_InitTypeDef GPIO_InitStruct = {0};
 8000d64:	f107 0318 	add.w	r3, r7, #24
 8000d68:	2200      	movs	r2, #0
 8000d6a:	601a      	str	r2, [r3, #0]
 8000d6c:	605a      	str	r2, [r3, #4]
 8000d6e:	609a      	str	r2, [r3, #8]
 8000d70:	60da      	str	r2, [r3, #12]
  if(huart->Instance==USART1)
 8000d72:	687b      	ldr	r3, [r7, #4]
 8000d74:	681b      	ldr	r3, [r3, #0]
 8000d76:	4a4e      	ldr	r2, [pc, #312]	; (8000eb0 <HAL_UART_MspInit+0x154>)
 8000d78:	4293      	cmp	r3, r2
 8000d7a:	d132      	bne.n	8000de2 <HAL_UART_MspInit+0x86>
  {
  /* USER CODE BEGIN USART1_MspInit 0 */

  /* USER CODE END USART1_MspInit 0 */
    /* Peripheral clock enable */
    __HAL_RCC_USART1_CLK_ENABLE();
 8000d7c:	4b4d      	ldr	r3, [pc, #308]	; (8000eb4 <HAL_UART_MspInit+0x158>)
 8000d7e:	699b      	ldr	r3, [r3, #24]
 8000d80:	4a4c      	ldr	r2, [pc, #304]	; (8000eb4 <HAL_UART_MspInit+0x158>)
 8000d82:	f443 4380 	orr.w	r3, r3, #16384	; 0x4000
 8000d86:	6193      	str	r3, [r2, #24]
 8000d88:	4b4a      	ldr	r3, [pc, #296]	; (8000eb4 <HAL_UART_MspInit+0x158>)
 8000d8a:	699b      	ldr	r3, [r3, #24]
 8000d8c:	f403 4380 	and.w	r3, r3, #16384	; 0x4000
 8000d90:	617b      	str	r3, [r7, #20]
 8000d92:	697b      	ldr	r3, [r7, #20]

    __HAL_RCC_GPIOA_CLK_ENABLE();
 8000d94:	4b47      	ldr	r3, [pc, #284]	; (8000eb4 <HAL_UART_MspInit+0x158>)
 8000d96:	699b      	ldr	r3, [r3, #24]
 8000d98:	4a46      	ldr	r2, [pc, #280]	; (8000eb4 <HAL_UART_MspInit+0x158>)
 8000d9a:	f043 0304 	orr.w	r3, r3, #4
 8000d9e:	6193      	str	r3, [r2, #24]
 8000da0:	4b44      	ldr	r3, [pc, #272]	; (8000eb4 <HAL_UART_MspInit+0x158>)
 8000da2:	699b      	ldr	r3, [r3, #24]
 8000da4:	f003 0304 	and.w	r3, r3, #4
 8000da8:	613b      	str	r3, [r7, #16]
 8000daa:	693b      	ldr	r3, [r7, #16]
    /**USART1 GPIO Configuration
    PA9     ------> USART1_TX
    PA10     ------> USART1_RX
    */
    GPIO_InitStruct.Pin = GPIO_PIN_9;
 8000dac:	f44f 7300 	mov.w	r3, #512	; 0x200
 8000db0:	61bb      	str	r3, [r7, #24]
    GPIO_InitStruct.Mode = GPIO_MODE_AF_PP;
 8000db2:	2302      	movs	r3, #2
 8000db4:	61fb      	str	r3, [r7, #28]
    GPIO_InitStruct.Speed = GPIO_SPEED_FREQ_HIGH;
 8000db6:	2303      	movs	r3, #3
 8000db8:	627b      	str	r3, [r7, #36]	; 0x24
    HAL_GPIO_Init(GPIOA, &GPIO_InitStruct);
 8000dba:	f107 0318 	add.w	r3, r7, #24
 8000dbe:	4619      	mov	r1, r3
 8000dc0:	483d      	ldr	r0, [pc, #244]	; (8000eb8 <HAL_UART_MspInit+0x15c>)
 8000dc2:	f001 ff25 	bl	8002c10 <HAL_GPIO_Init>

    GPIO_InitStruct.Pin = GPIO_PIN_10;
 8000dc6:	f44f 6380 	mov.w	r3, #1024	; 0x400
 8000dca:	61bb      	str	r3, [r7, #24]
    GPIO_InitStruct.Mode = GPIO_MODE_INPUT;
 8000dcc:	2300      	movs	r3, #0
 8000dce:	61fb      	str	r3, [r7, #28]
    GPIO_InitStruct.Pull = GPIO_NOPULL;
 8000dd0:	2300      	movs	r3, #0
 8000dd2:	623b      	str	r3, [r7, #32]
    HAL_GPIO_Init(GPIOA, &GPIO_InitStruct);
 8000dd4:	f107 0318 	add.w	r3, r7, #24
 8000dd8:	4619      	mov	r1, r3
 8000dda:	4837      	ldr	r0, [pc, #220]	; (8000eb8 <HAL_UART_MspInit+0x15c>)
 8000ddc:	f001 ff18 	bl	8002c10 <HAL_GPIO_Init>
  /* USER CODE BEGIN USART2_MspInit 1 */

  /* USER CODE END USART2_MspInit 1 */
  }

}
 8000de0:	e062      	b.n	8000ea8 <HAL_UART_MspInit+0x14c>
  else if(huart->Instance==USART2)
 8000de2:	687b      	ldr	r3, [r7, #4]
 8000de4:	681b      	ldr	r3, [r3, #0]
 8000de6:	4a35      	ldr	r2, [pc, #212]	; (8000ebc <HAL_UART_MspInit+0x160>)
 8000de8:	4293      	cmp	r3, r2
 8000dea:	d15d      	bne.n	8000ea8 <HAL_UART_MspInit+0x14c>
    __HAL_RCC_USART2_CLK_ENABLE();
 8000dec:	4b31      	ldr	r3, [pc, #196]	; (8000eb4 <HAL_UART_MspInit+0x158>)
 8000dee:	69db      	ldr	r3, [r3, #28]
 8000df0:	4a30      	ldr	r2, [pc, #192]	; (8000eb4 <HAL_UART_MspInit+0x158>)
 8000df2:	f443 3300 	orr.w	r3, r3, #131072	; 0x20000
 8000df6:	61d3      	str	r3, [r2, #28]
 8000df8:	4b2e      	ldr	r3, [pc, #184]	; (8000eb4 <HAL_UART_MspInit+0x158>)
 8000dfa:	69db      	ldr	r3, [r3, #28]
 8000dfc:	f403 3300 	and.w	r3, r3, #131072	; 0x20000
 8000e00:	60fb      	str	r3, [r7, #12]
 8000e02:	68fb      	ldr	r3, [r7, #12]
    __HAL_RCC_GPIOA_CLK_ENABLE();
 8000e04:	4b2b      	ldr	r3, [pc, #172]	; (8000eb4 <HAL_UART_MspInit+0x158>)
 8000e06:	699b      	ldr	r3, [r3, #24]
 8000e08:	4a2a      	ldr	r2, [pc, #168]	; (8000eb4 <HAL_UART_MspInit+0x158>)
 8000e0a:	f043 0304 	orr.w	r3, r3, #4
 8000e0e:	6193      	str	r3, [r2, #24]
 8000e10:	4b28      	ldr	r3, [pc, #160]	; (8000eb4 <HAL_UART_MspInit+0x158>)
 8000e12:	699b      	ldr	r3, [r3, #24]
 8000e14:	f003 0304 	and.w	r3, r3, #4
 8000e18:	60bb      	str	r3, [r7, #8]
 8000e1a:	68bb      	ldr	r3, [r7, #8]
    GPIO_InitStruct.Pin = GPIO_PIN_2;
 8000e1c:	2304      	movs	r3, #4
 8000e1e:	61bb      	str	r3, [r7, #24]
    GPIO_InitStruct.Mode = GPIO_MODE_AF_PP;
 8000e20:	2302      	movs	r3, #2
 8000e22:	61fb      	str	r3, [r7, #28]
    GPIO_InitStruct.Speed = GPIO_SPEED_FREQ_HIGH;
 8000e24:	2303      	movs	r3, #3
 8000e26:	627b      	str	r3, [r7, #36]	; 0x24
    HAL_GPIO_Init(GPIOA, &GPIO_InitStruct);
 8000e28:	f107 0318 	add.w	r3, r7, #24
 8000e2c:	4619      	mov	r1, r3
 8000e2e:	4822      	ldr	r0, [pc, #136]	; (8000eb8 <HAL_UART_MspInit+0x15c>)
 8000e30:	f001 feee 	bl	8002c10 <HAL_GPIO_Init>
    GPIO_InitStruct.Pin = GPIO_PIN_3;
 8000e34:	2308      	movs	r3, #8
 8000e36:	61bb      	str	r3, [r7, #24]
    GPIO_InitStruct.Mode = GPIO_MODE_INPUT;
 8000e38:	2300      	movs	r3, #0
 8000e3a:	61fb      	str	r3, [r7, #28]
    GPIO_InitStruct.Pull = GPIO_NOPULL;
 8000e3c:	2300      	movs	r3, #0
 8000e3e:	623b      	str	r3, [r7, #32]
    HAL_GPIO_Init(GPIOA, &GPIO_InitStruct);
 8000e40:	f107 0318 	add.w	r3, r7, #24
 8000e44:	4619      	mov	r1, r3
 8000e46:	481c      	ldr	r0, [pc, #112]	; (8000eb8 <HAL_UART_MspInit+0x15c>)
 8000e48:	f001 fee2 	bl	8002c10 <HAL_GPIO_Init>
    hdma_usart2_rx.Instance = DMA1_Channel6;
 8000e4c:	4b1c      	ldr	r3, [pc, #112]	; (8000ec0 <HAL_UART_MspInit+0x164>)
 8000e4e:	4a1d      	ldr	r2, [pc, #116]	; (8000ec4 <HAL_UART_MspInit+0x168>)
 8000e50:	601a      	str	r2, [r3, #0]
    hdma_usart2_rx.Init.Direction = DMA_PERIPH_TO_MEMORY;
 8000e52:	4b1b      	ldr	r3, [pc, #108]	; (8000ec0 <HAL_UART_MspInit+0x164>)
 8000e54:	2200      	movs	r2, #0
 8000e56:	605a      	str	r2, [r3, #4]
    hdma_usart2_rx.Init.PeriphInc = DMA_PINC_DISABLE;
 8000e58:	4b19      	ldr	r3, [pc, #100]	; (8000ec0 <HAL_UART_MspInit+0x164>)
 8000e5a:	2200      	movs	r2, #0
 8000e5c:	609a      	str	r2, [r3, #8]
    hdma_usart2_rx.Init.MemInc = DMA_MINC_ENABLE;
 8000e5e:	4b18      	ldr	r3, [pc, #96]	; (8000ec0 <HAL_UART_MspInit+0x164>)
 8000e60:	2280      	movs	r2, #128	; 0x80
 8000e62:	60da      	str	r2, [r3, #12]
    hdma_usart2_rx.Init.PeriphDataAlignment = DMA_PDATAALIGN_BYTE;
 8000e64:	4b16      	ldr	r3, [pc, #88]	; (8000ec0 <HAL_UART_MspInit+0x164>)
 8000e66:	2200      	movs	r2, #0
 8000e68:	611a      	str	r2, [r3, #16]
    hdma_usart2_rx.Init.MemDataAlignment = DMA_MDATAALIGN_BYTE;
 8000e6a:	4b15      	ldr	r3, [pc, #84]	; (8000ec0 <HAL_UART_MspInit+0x164>)
 8000e6c:	2200      	movs	r2, #0
 8000e6e:	615a      	str	r2, [r3, #20]
    hdma_usart2_rx.Init.Mode = DMA_NORMAL;
 8000e70:	4b13      	ldr	r3, [pc, #76]	; (8000ec0 <HAL_UART_MspInit+0x164>)
 8000e72:	2200      	movs	r2, #0
 8000e74:	619a      	str	r2, [r3, #24]
    hdma_usart2_rx.Init.Priority = DMA_PRIORITY_LOW;
 8000e76:	4b12      	ldr	r3, [pc, #72]	; (8000ec0 <HAL_UART_MspInit+0x164>)
 8000e78:	2200      	movs	r2, #0
 8000e7a:	61da      	str	r2, [r3, #28]
    if (HAL_DMA_Init(&hdma_usart2_rx) != HAL_OK)
 8000e7c:	4810      	ldr	r0, [pc, #64]	; (8000ec0 <HAL_UART_MspInit+0x164>)
 8000e7e:	f001 fc63 	bl	8002748 <HAL_DMA_Init>
 8000e82:	4603      	mov	r3, r0
 8000e84:	2b00      	cmp	r3, #0
 8000e86:	d001      	beq.n	8000e8c <HAL_UART_MspInit+0x130>
      Error_Handler();
 8000e88:	f7ff fe04 	bl	8000a94 <Error_Handler>
    __HAL_LINKDMA(huart,hdmarx,hdma_usart2_rx);
 8000e8c:	687b      	ldr	r3, [r7, #4]
 8000e8e:	4a0c      	ldr	r2, [pc, #48]	; (8000ec0 <HAL_UART_MspInit+0x164>)
 8000e90:	635a      	str	r2, [r3, #52]	; 0x34
 8000e92:	4a0b      	ldr	r2, [pc, #44]	; (8000ec0 <HAL_UART_MspInit+0x164>)
 8000e94:	687b      	ldr	r3, [r7, #4]
 8000e96:	6253      	str	r3, [r2, #36]	; 0x24
    HAL_NVIC_SetPriority(USART2_IRQn, 5, 0);
 8000e98:	2200      	movs	r2, #0
 8000e9a:	2105      	movs	r1, #5
 8000e9c:	2026      	movs	r0, #38	; 0x26
 8000e9e:	f001 fc28 	bl	80026f2 <HAL_NVIC_SetPriority>
    HAL_NVIC_EnableIRQ(USART2_IRQn);
 8000ea2:	2026      	movs	r0, #38	; 0x26
 8000ea4:	f001 fc41 	bl	800272a <HAL_NVIC_EnableIRQ>
}
 8000ea8:	bf00      	nop
 8000eaa:	3728      	adds	r7, #40	; 0x28
 8000eac:	46bd      	mov	sp, r7
 8000eae:	bd80      	pop	{r7, pc}
 8000eb0:	40013800 	.word	0x40013800
 8000eb4:	40021000 	.word	0x40021000
 8000eb8:	40010800 	.word	0x40010800
 8000ebc:	40004400 	.word	0x40004400
 8000ec0:	20002bd8 	.word	0x20002bd8
 8000ec4:	4002006c 	.word	0x4002006c

08000ec8 <HAL_InitTick>:
  *         reset by HAL_Init() or at any time when clock is configured, by HAL_RCC_ClockConfig().
  * @param  TickPriority: Tick interrupt priority.
  * @retval HAL status
  */
HAL_StatusTypeDef HAL_InitTick(uint32_t TickPriority)
{
 8000ec8:	b580      	push	{r7, lr}
 8000eca:	b08c      	sub	sp, #48	; 0x30
 8000ecc:	af00      	add	r7, sp, #0
 8000ece:	6078      	str	r0, [r7, #4]
  RCC_ClkInitTypeDef    clkconfig;
  uint32_t              uwTimclock = 0;
 8000ed0:	2300      	movs	r3, #0
 8000ed2:	62fb      	str	r3, [r7, #44]	; 0x2c
  uint32_t              uwPrescalerValue = 0;
 8000ed4:	2300      	movs	r3, #0
 8000ed6:	62bb      	str	r3, [r7, #40]	; 0x28
  uint32_t              pFLatency;

  /*Configure the TIM4 IRQ priority */
  HAL_NVIC_SetPriority(TIM4_IRQn, TickPriority ,0);
 8000ed8:	2200      	movs	r2, #0
 8000eda:	6879      	ldr	r1, [r7, #4]
 8000edc:	201e      	movs	r0, #30
 8000ede:	f001 fc08 	bl	80026f2 <HAL_NVIC_SetPriority>

  /* Enable the TIM4 global Interrupt */
  HAL_NVIC_EnableIRQ(TIM4_IRQn);
 8000ee2:	201e      	movs	r0, #30
 8000ee4:	f001 fc21 	bl	800272a <HAL_NVIC_EnableIRQ>

  /* Enable TIM4 clock */
  __HAL_RCC_TIM4_CLK_ENABLE();
 8000ee8:	4b1f      	ldr	r3, [pc, #124]	; (8000f68 <HAL_InitTick+0xa0>)
 8000eea:	69db      	ldr	r3, [r3, #28]
 8000eec:	4a1e      	ldr	r2, [pc, #120]	; (8000f68 <HAL_InitTick+0xa0>)
 8000eee:	f043 0304 	orr.w	r3, r3, #4
 8000ef2:	61d3      	str	r3, [r2, #28]
 8000ef4:	4b1c      	ldr	r3, [pc, #112]	; (8000f68 <HAL_InitTick+0xa0>)
 8000ef6:	69db      	ldr	r3, [r3, #28]
 8000ef8:	f003 0304 	and.w	r3, r3, #4
 8000efc:	60fb      	str	r3, [r7, #12]
 8000efe:	68fb      	ldr	r3, [r7, #12]

  /* Get clock configuration */
  HAL_RCC_GetClockConfig(&clkconfig, &pFLatency);
 8000f00:	f107 0210 	add.w	r2, r7, #16
 8000f04:	f107 0314 	add.w	r3, r7, #20
 8000f08:	4611      	mov	r1, r2
 8000f0a:	4618      	mov	r0, r3
 8000f0c:	f003 f812 	bl	8003f34 <HAL_RCC_GetClockConfig>

  /* Compute TIM4 clock */
  uwTimclock = 2*HAL_RCC_GetPCLK1Freq();
 8000f10:	f002 ffe8 	bl	8003ee4 <HAL_RCC_GetPCLK1Freq>
 8000f14:	4603      	mov	r3, r0
 8000f16:	005b      	lsls	r3, r3, #1
 8000f18:	62fb      	str	r3, [r7, #44]	; 0x2c

  /* Compute the prescaler value to have TIM4 counter clock equal to 1MHz */
  uwPrescalerValue = (uint32_t) ((uwTimclock / 1000000) - 1);
 8000f1a:	6afb      	ldr	r3, [r7, #44]	; 0x2c
 8000f1c:	4a13      	ldr	r2, [pc, #76]	; (8000f6c <HAL_InitTick+0xa4>)
 8000f1e:	fba2 2303 	umull	r2, r3, r2, r3
 8000f22:	0c9b      	lsrs	r3, r3, #18
 8000f24:	3b01      	subs	r3, #1
 8000f26:	62bb      	str	r3, [r7, #40]	; 0x28

  /* Initialize TIM4 */
  htim4.Instance = TIM4;
 8000f28:	4b11      	ldr	r3, [pc, #68]	; (8000f70 <HAL_InitTick+0xa8>)
 8000f2a:	4a12      	ldr	r2, [pc, #72]	; (8000f74 <HAL_InitTick+0xac>)
 8000f2c:	601a      	str	r2, [r3, #0]
  + Period = [(TIM4CLK/1000) - 1]. to have a (1/1000) s time base.
  + Prescaler = (uwTimclock/1000000 - 1) to have a 1MHz counter clock.
  + ClockDivision = 0
  + Counter direction = Up
  */
  htim4.Init.Period = (1000000 / 1000) - 1;
 8000f2e:	4b10      	ldr	r3, [pc, #64]	; (8000f70 <HAL_InitTick+0xa8>)
 8000f30:	f240 32e7 	movw	r2, #999	; 0x3e7
 8000f34:	60da      	str	r2, [r3, #12]
  htim4.Init.Prescaler = uwPrescalerValue;
 8000f36:	4a0e      	ldr	r2, [pc, #56]	; (8000f70 <HAL_InitTick+0xa8>)
 8000f38:	6abb      	ldr	r3, [r7, #40]	; 0x28
 8000f3a:	6053      	str	r3, [r2, #4]
  htim4.Init.ClockDivision = 0;
 8000f3c:	4b0c      	ldr	r3, [pc, #48]	; (8000f70 <HAL_InitTick+0xa8>)
 8000f3e:	2200      	movs	r2, #0
 8000f40:	611a      	str	r2, [r3, #16]
  htim4.Init.CounterMode = TIM_COUNTERMODE_UP;
 8000f42:	4b0b      	ldr	r3, [pc, #44]	; (8000f70 <HAL_InitTick+0xa8>)
 8000f44:	2200      	movs	r2, #0
 8000f46:	609a      	str	r2, [r3, #8]
  if(HAL_TIM_Base_Init(&htim4) == HAL_OK)
 8000f48:	4809      	ldr	r0, [pc, #36]	; (8000f70 <HAL_InitTick+0xa8>)
 8000f4a:	f003 f8f7 	bl	800413c <HAL_TIM_Base_Init>
 8000f4e:	4603      	mov	r3, r0
 8000f50:	2b00      	cmp	r3, #0
 8000f52:	d104      	bne.n	8000f5e <HAL_InitTick+0x96>
  {
    /* Start the TIM time Base generation in interrupt mode */
    return HAL_TIM_Base_Start_IT(&htim4);
 8000f54:	4806      	ldr	r0, [pc, #24]	; (8000f70 <HAL_InitTick+0xa8>)
 8000f56:	f003 f925 	bl	80041a4 <HAL_TIM_Base_Start_IT>
 8000f5a:	4603      	mov	r3, r0
 8000f5c:	e000      	b.n	8000f60 <HAL_InitTick+0x98>
  }

  /* Return function status */
  return HAL_ERROR;
 8000f5e:	2301      	movs	r3, #1
}
 8000f60:	4618      	mov	r0, r3
 8000f62:	3730      	adds	r7, #48	; 0x30
 8000f64:	46bd      	mov	sp, r7
 8000f66:	bd80      	pop	{r7, pc}
 8000f68:	40021000 	.word	0x40021000
 8000f6c:	431bde83 	.word	0x431bde83
 8000f70:	20002e14 	.word	0x20002e14
 8000f74:	40000800 	.word	0x40000800

08000f78 <NMI_Handler>:
/******************************************************************************/
/**
  * @brief This function handles Non maskable interrupt.
  */
void NMI_Handler(void)
{
 8000f78:	b480      	push	{r7}
 8000f7a:	af00      	add	r7, sp, #0

  /* USER CODE END NonMaskableInt_IRQn 0 */
  /* USER CODE BEGIN NonMaskableInt_IRQn 1 */

  /* USER CODE END NonMaskableInt_IRQn 1 */
}
 8000f7c:	bf00      	nop
 8000f7e:	46bd      	mov	sp, r7
 8000f80:	bc80      	pop	{r7}
 8000f82:	4770      	bx	lr

08000f84 <HardFault_Handler>:

/**
  * @brief This function handles Hard fault interrupt.
  */
void HardFault_Handler(void)
{
 8000f84:	b480      	push	{r7}
 8000f86:	af00      	add	r7, sp, #0
  /* USER CODE BEGIN HardFault_IRQn 0 */

  /* USER CODE END HardFault_IRQn 0 */
  while (1)
 8000f88:	e7fe      	b.n	8000f88 <HardFault_Handler+0x4>

08000f8a <MemManage_Handler>:

/**
  * @brief This function handles Memory management fault.
  */
void MemManage_Handler(void)
{
 8000f8a:	b480      	push	{r7}
 8000f8c:	af00      	add	r7, sp, #0
  /* USER CODE BEGIN MemoryManagement_IRQn 0 */

  /* USER CODE END MemoryManagement_IRQn 0 */
  while (1)
 8000f8e:	e7fe      	b.n	8000f8e <MemManage_Handler+0x4>

08000f90 <BusFault_Handler>:

/**
  * @brief This function handles Prefetch fault, memory access fault.
  */
void BusFault_Handler(void)
{
 8000f90:	b480      	push	{r7}
 8000f92:	af00      	add	r7, sp, #0
  /* USER CODE BEGIN BusFault_IRQn 0 */

  /* USER CODE END BusFault_IRQn 0 */
  while (1)
 8000f94:	e7fe      	b.n	8000f94 <BusFault_Handler+0x4>

08000f96 <UsageFault_Handler>:

/**
  * @brief This function handles Undefined instruction or illegal state.
  */
void UsageFault_Handler(void)
{
 8000f96:	b480      	push	{r7}
 8000f98:	af00      	add	r7, sp, #0
  /* USER CODE BEGIN UsageFault_IRQn 0 */

  /* USER CODE END UsageFault_IRQn 0 */
  while (1)
 8000f9a:	e7fe      	b.n	8000f9a <UsageFault_Handler+0x4>

08000f9c <DebugMon_Handler>:

/**
  * @brief This function handles Debug monitor.
  */
void DebugMon_Handler(void)
{
 8000f9c:	b480      	push	{r7}
 8000f9e:	af00      	add	r7, sp, #0

  /* USER CODE END DebugMonitor_IRQn 0 */
  /* USER CODE BEGIN DebugMonitor_IRQn 1 */

  /* USER CODE END DebugMonitor_IRQn 1 */
}
 8000fa0:	bf00      	nop
 8000fa2:	46bd      	mov	sp, r7
 8000fa4:	bc80      	pop	{r7}
 8000fa6:	4770      	bx	lr

08000fa8 <DMA1_Channel1_IRQHandler>:

/**
  * @brief This function handles DMA1 channel1 global interrupt.
  */
void DMA1_Channel1_IRQHandler(void)
{
 8000fa8:	b580      	push	{r7, lr}
 8000faa:	af00      	add	r7, sp, #0
  /* USER CODE BEGIN DMA1_Channel1_IRQn 0 */

  /* USER CODE END DMA1_Channel1_IRQn 0 */
  HAL_DMA_IRQHandler(&hdma_adc1);
 8000fac:	4802      	ldr	r0, [pc, #8]	; (8000fb8 <DMA1_Channel1_IRQHandler+0x10>)
 8000fae:	f001 fcfb 	bl	80029a8 <HAL_DMA_IRQHandler>
  /* USER CODE BEGIN DMA1_Channel1_IRQn 1 */

  /* USER CODE END DMA1_Channel1_IRQn 1 */
}
 8000fb2:	bf00      	nop
 8000fb4:	bd80      	pop	{r7, pc}
 8000fb6:	bf00      	nop
 8000fb8:	20002d5c 	.word	0x20002d5c

08000fbc <DMA1_Channel6_IRQHandler>:

/**
  * @brief This function handles DMA1 channel6 global interrupt.
  */
void DMA1_Channel6_IRQHandler(void)
{
 8000fbc:	b580      	push	{r7, lr}
 8000fbe:	af00      	add	r7, sp, #0
  /* USER CODE BEGIN DMA1_Channel6_IRQn 0 */

  /* USER CODE END DMA1_Channel6_IRQn 0 */
  HAL_DMA_IRQHandler(&hdma_usart2_rx);
 8000fc0:	4802      	ldr	r0, [pc, #8]	; (8000fcc <DMA1_Channel6_IRQHandler+0x10>)
 8000fc2:	f001 fcf1 	bl	80029a8 <HAL_DMA_IRQHandler>
  /* USER CODE BEGIN DMA1_Channel6_IRQn 1 */

  /* USER CODE END DMA1_Channel6_IRQn 1 */
}
 8000fc6:	bf00      	nop
 8000fc8:	bd80      	pop	{r7, pc}
 8000fca:	bf00      	nop
 8000fcc:	20002bd8 	.word	0x20002bd8

08000fd0 <TIM4_IRQHandler>:

/**
  * @brief This function handles TIM4 global interrupt.
  */
void TIM4_IRQHandler(void)
{
 8000fd0:	b580      	push	{r7, lr}
 8000fd2:	af00      	add	r7, sp, #0
  /* USER CODE BEGIN TIM4_IRQn 0 */

  /* USER CODE END TIM4_IRQn 0 */
  HAL_TIM_IRQHandler(&htim4);
 8000fd4:	4802      	ldr	r0, [pc, #8]	; (8000fe0 <TIM4_IRQHandler+0x10>)
 8000fd6:	f003 f908 	bl	80041ea <HAL_TIM_IRQHandler>
  /* USER CODE BEGIN TIM4_IRQn 1 */

  /* USER CODE END TIM4_IRQn 1 */
}
 8000fda:	bf00      	nop
 8000fdc:	bd80      	pop	{r7, pc}
 8000fde:	bf00      	nop
 8000fe0:	20002e14 	.word	0x20002e14

08000fe4 <USART2_IRQHandler>:

/**
  * @brief This function handles USART2 global interrupt.
  */
void USART2_IRQHandler(void)
{
 8000fe4:	b580      	push	{r7, lr}
 8000fe6:	af00      	add	r7, sp, #0
  /* USER CODE BEGIN USART2_IRQn 0 */

  /* USER CODE END USART2_IRQn 0 */
  HAL_UART_IRQHandler(&huart2);
 8000fe8:	4802      	ldr	r0, [pc, #8]	; (8000ff4 <USART2_IRQHandler+0x10>)
 8000fea:	f003 fbd9 	bl	80047a0 <HAL_UART_IRQHandler>
  /* USER CODE BEGIN USART2_IRQn 1 */

  /* USER CODE END USART2_IRQn 1 */
}
 8000fee:	bf00      	nop
 8000ff0:	bd80      	pop	{r7, pc}
 8000ff2:	bf00      	nop
 8000ff4:	20002dc8 	.word	0x20002dc8

08000ff8 <USB_HP_CAN1_TX_IRQHandler>:

/* USER CODE BEGIN 1 */
void USB_HP_CAN1_TX_IRQHandler(void){
 8000ff8:	b580      	push	{r7, lr}
 8000ffa:	af00      	add	r7, sp, #0
	HAL_CAN_IRQHandler(&hcan);
 8000ffc:	4802      	ldr	r0, [pc, #8]	; (8001008 <USB_HP_CAN1_TX_IRQHandler+0x10>)
 8000ffe:	f001 f8a5 	bl	800214c <HAL_CAN_IRQHandler>
}
 8001002:	bf00      	nop
 8001004:	bd80      	pop	{r7, pc}
 8001006:	bf00      	nop
 8001008:	20002c7c 	.word	0x20002c7c

0800100c <USB_LP_CAN1_RX0_IRQHandler>:
void USB_LP_CAN1_RX0_IRQHandler(void){
 800100c:	b580      	push	{r7, lr}
 800100e:	af00      	add	r7, sp, #0
	HAL_CAN_IRQHandler(&hcan);
 8001010:	4802      	ldr	r0, [pc, #8]	; (800101c <USB_LP_CAN1_RX0_IRQHandler+0x10>)
 8001012:	f001 f89b 	bl	800214c <HAL_CAN_IRQHandler>
}
 8001016:	bf00      	nop
 8001018:	bd80      	pop	{r7, pc}
 800101a:	bf00      	nop
 800101c:	20002c7c 	.word	0x20002c7c

08001020 <CAN1_RX1_IRQHandler>:
void CAN1_RX1_IRQHandler(void){
 8001020:	b580      	push	{r7, lr}
 8001022:	af00      	add	r7, sp, #0
	HAL_CAN_IRQHandler(&hcan);
 8001024:	4802      	ldr	r0, [pc, #8]	; (8001030 <CAN1_RX1_IRQHandler+0x10>)
 8001026:	f001 f891 	bl	800214c <HAL_CAN_IRQHandler>
}
 800102a:	bf00      	nop
 800102c:	bd80      	pop	{r7, pc}
 800102e:	bf00      	nop
 8001030:	20002c7c 	.word	0x20002c7c

08001034 <CAN1_SCE_IRQHandler>:
void CAN1_SCE_IRQHandler(void){
 8001034:	b580      	push	{r7, lr}
 8001036:	af00      	add	r7, sp, #0
	HAL_CAN_IRQHandler(&hcan);
 8001038:	4802      	ldr	r0, [pc, #8]	; (8001044 <CAN1_SCE_IRQHandler+0x10>)
 800103a:	f001 f887 	bl	800214c <HAL_CAN_IRQHandler>
}
 800103e:	bf00      	nop
 8001040:	bd80      	pop	{r7, pc}
 8001042:	bf00      	nop
 8001044:	20002c7c 	.word	0x20002c7c

08001048 <SystemInit>:
  * @note   This function should be used only after reset.
  * @param  None
  * @retval None
  */
void SystemInit (void)
{
 8001048:	b480      	push	{r7}
 800104a:	af00      	add	r7, sp, #0
  /* Reset the RCC clock configuration to the default reset state(for debug purpose) */
  /* Set HSION bit */
  RCC->CR |= 0x00000001U;
 800104c:	4b15      	ldr	r3, [pc, #84]	; (80010a4 <SystemInit+0x5c>)
 800104e:	681b      	ldr	r3, [r3, #0]
 8001050:	4a14      	ldr	r2, [pc, #80]	; (80010a4 <SystemInit+0x5c>)
 8001052:	f043 0301 	orr.w	r3, r3, #1
 8001056:	6013      	str	r3, [r2, #0]

  /* Reset SW, HPRE, PPRE1, PPRE2, ADCPRE and MCO bits */
#if !defined(STM32F105xC) && !defined(STM32F107xC)
  RCC->CFGR &= 0xF8FF0000U;
 8001058:	4b12      	ldr	r3, [pc, #72]	; (80010a4 <SystemInit+0x5c>)
 800105a:	685a      	ldr	r2, [r3, #4]
 800105c:	4911      	ldr	r1, [pc, #68]	; (80010a4 <SystemInit+0x5c>)
 800105e:	4b12      	ldr	r3, [pc, #72]	; (80010a8 <SystemInit+0x60>)
 8001060:	4013      	ands	r3, r2
 8001062:	604b      	str	r3, [r1, #4]
#else
  RCC->CFGR &= 0xF0FF0000U;
#endif /* STM32F105xC */   
  
  /* Reset HSEON, CSSON and PLLON bits */
  RCC->CR &= 0xFEF6FFFFU;
 8001064:	4b0f      	ldr	r3, [pc, #60]	; (80010a4 <SystemInit+0x5c>)
 8001066:	681b      	ldr	r3, [r3, #0]
 8001068:	4a0e      	ldr	r2, [pc, #56]	; (80010a4 <SystemInit+0x5c>)
 800106a:	f023 7384 	bic.w	r3, r3, #17301504	; 0x1080000
 800106e:	f423 3380 	bic.w	r3, r3, #65536	; 0x10000
 8001072:	6013      	str	r3, [r2, #0]

  /* Reset HSEBYP bit */
  RCC->CR &= 0xFFFBFFFFU;
 8001074:	4b0b      	ldr	r3, [pc, #44]	; (80010a4 <SystemInit+0x5c>)
 8001076:	681b      	ldr	r3, [r3, #0]
 8001078:	4a0a      	ldr	r2, [pc, #40]	; (80010a4 <SystemInit+0x5c>)
 800107a:	f423 2380 	bic.w	r3, r3, #262144	; 0x40000
 800107e:	6013      	str	r3, [r2, #0]

  /* Reset PLLSRC, PLLXTPRE, PLLMUL and USBPRE/OTGFSPRE bits */
  RCC->CFGR &= 0xFF80FFFFU;
 8001080:	4b08      	ldr	r3, [pc, #32]	; (80010a4 <SystemInit+0x5c>)
 8001082:	685b      	ldr	r3, [r3, #4]
 8001084:	4a07      	ldr	r2, [pc, #28]	; (80010a4 <SystemInit+0x5c>)
 8001086:	f423 03fe 	bic.w	r3, r3, #8323072	; 0x7f0000
 800108a:	6053      	str	r3, [r2, #4]

  /* Reset CFGR2 register */
  RCC->CFGR2 = 0x00000000U;      
#else
  /* Disable all interrupts and clear pending bits  */
  RCC->CIR = 0x009F0000U;
 800108c:	4b05      	ldr	r3, [pc, #20]	; (80010a4 <SystemInit+0x5c>)
 800108e:	f44f 021f 	mov.w	r2, #10420224	; 0x9f0000
 8001092:	609a      	str	r2, [r3, #8]
#endif 

#ifdef VECT_TAB_SRAM
  SCB->VTOR = SRAM_BASE | VECT_TAB_OFFSET; /* Vector Table Relocation in Internal SRAM. */
#else
  SCB->VTOR = FLASH_BASE | VECT_TAB_OFFSET; /* Vector Table Relocation in Internal FLASH. */
 8001094:	4b05      	ldr	r3, [pc, #20]	; (80010ac <SystemInit+0x64>)
 8001096:	f04f 6200 	mov.w	r2, #134217728	; 0x8000000
 800109a:	609a      	str	r2, [r3, #8]
#endif 
}
 800109c:	bf00      	nop
 800109e:	46bd      	mov	sp, r7
 80010a0:	bc80      	pop	{r7}
 80010a2:	4770      	bx	lr
 80010a4:	40021000 	.word	0x40021000
 80010a8:	f8ff0000 	.word	0xf8ff0000
 80010ac:	e000ed00 	.word	0xe000ed00

080010b0 <Reset_Handler>:
  .weak Reset_Handler
  .type Reset_Handler, %function
Reset_Handler:

/* Copy the data segment initializers from flash to SRAM */
  movs r1, #0
 80010b0:	2100      	movs	r1, #0
  b LoopCopyDataInit
 80010b2:	e003      	b.n	80010bc <LoopCopyDataInit>

080010b4 <CopyDataInit>:

CopyDataInit:
  ldr r3, =_sidata
 80010b4:	4b0b      	ldr	r3, [pc, #44]	; (80010e4 <LoopFillZerobss+0x14>)
  ldr r3, [r3, r1]
 80010b6:	585b      	ldr	r3, [r3, r1]
  str r3, [r0, r1]
 80010b8:	5043      	str	r3, [r0, r1]
  adds r1, r1, #4
 80010ba:	3104      	adds	r1, #4

080010bc <LoopCopyDataInit>:

LoopCopyDataInit:
  ldr r0, =_sdata
 80010bc:	480a      	ldr	r0, [pc, #40]	; (80010e8 <LoopFillZerobss+0x18>)
  ldr r3, =_edata
 80010be:	4b0b      	ldr	r3, [pc, #44]	; (80010ec <LoopFillZerobss+0x1c>)
  adds r2, r0, r1
 80010c0:	1842      	adds	r2, r0, r1
  cmp r2, r3
 80010c2:	429a      	cmp	r2, r3
  bcc CopyDataInit
 80010c4:	d3f6      	bcc.n	80010b4 <CopyDataInit>
  ldr r2, =_sbss
 80010c6:	4a0a      	ldr	r2, [pc, #40]	; (80010f0 <LoopFillZerobss+0x20>)
  b LoopFillZerobss
 80010c8:	e002      	b.n	80010d0 <LoopFillZerobss>

080010ca <FillZerobss>:
/* Zero fill the bss segment. */
FillZerobss:
  movs r3, #0
 80010ca:	2300      	movs	r3, #0
  str r3, [r2], #4
 80010cc:	f842 3b04 	str.w	r3, [r2], #4

080010d0 <LoopFillZerobss>:

LoopFillZerobss:
  ldr r3, = _ebss
 80010d0:	4b08      	ldr	r3, [pc, #32]	; (80010f4 <LoopFillZerobss+0x24>)
  cmp r2, r3
 80010d2:	429a      	cmp	r2, r3
  bcc FillZerobss
 80010d4:	d3f9      	bcc.n	80010ca <FillZerobss>

/* Call the clock system intitialization function.*/
    bl  SystemInit
 80010d6:	f7ff ffb7 	bl	8001048 <SystemInit>
/* Call static constructors */
    bl __libc_init_array
 80010da:	f005 f967 	bl	80063ac <__libc_init_array>
/* Call the application's entry point.*/
  bl main
 80010de:	f7ff f875 	bl	80001cc <main>
  bx lr
 80010e2:	4770      	bx	lr
  ldr r3, =_sidata
 80010e4:	08006494 	.word	0x08006494
  ldr r0, =_sdata
 80010e8:	20000000 	.word	0x20000000
  ldr r3, =_edata
 80010ec:	20000014 	.word	0x20000014
  ldr r2, =_sbss
 80010f0:	20000014 	.word	0x20000014
  ldr r3, = _ebss
 80010f4:	20002e58 	.word	0x20002e58

080010f8 <ADC1_2_IRQHandler>:
 * @retval : None
*/
    .section .text.Default_Handler,"ax",%progbits
Default_Handler:
Infinite_Loop:
  b Infinite_Loop
 80010f8:	e7fe      	b.n	80010f8 <ADC1_2_IRQHandler>
	...

080010fc <HAL_Init>:
  *         need to ensure that the SysTick time base is always set to 1 millisecond
  *         to have correct HAL operation.
  * @retval HAL status
  */
HAL_StatusTypeDef HAL_Init(void)
{
 80010fc:	b580      	push	{r7, lr}
 80010fe:	af00      	add	r7, sp, #0
    defined(STM32F102x6) || defined(STM32F102xB) || \
    defined(STM32F103x6) || defined(STM32F103xB) || defined(STM32F103xE) || defined(STM32F103xG) || \
    defined(STM32F105xC) || defined(STM32F107xC)

  /* Prefetch buffer is not available on value line devices */
  __HAL_FLASH_PREFETCH_BUFFER_ENABLE();
 8001100:	4b08      	ldr	r3, [pc, #32]	; (8001124 <HAL_Init+0x28>)
 8001102:	681b      	ldr	r3, [r3, #0]
 8001104:	4a07      	ldr	r2, [pc, #28]	; (8001124 <HAL_Init+0x28>)
 8001106:	f043 0310 	orr.w	r3, r3, #16
 800110a:	6013      	str	r3, [r2, #0]
#endif
#endif /* PREFETCH_ENABLE */

  /* Set Interrupt Group Priority */
  HAL_NVIC_SetPriorityGrouping(NVIC_PRIORITYGROUP_4);
 800110c:	2003      	movs	r0, #3
 800110e:	f001 fae5 	bl	80026dc <HAL_NVIC_SetPriorityGrouping>

  /* Use systick as time base source and configure 1ms tick (default clock after Reset is HSI) */
  HAL_InitTick(TICK_INT_PRIORITY);
 8001112:	2000      	movs	r0, #0
 8001114:	f7ff fed8 	bl	8000ec8 <HAL_InitTick>

  /* Init the low level hardware */
  HAL_MspInit();
 8001118:	f7ff fcc2 	bl	8000aa0 <HAL_MspInit>

  /* Return function status */
  return HAL_OK;
 800111c:	2300      	movs	r3, #0
}
 800111e:	4618      	mov	r0, r3
 8001120:	bd80      	pop	{r7, pc}
 8001122:	bf00      	nop
 8001124:	40022000 	.word	0x40022000

08001128 <HAL_IncTick>:
  * @note This function is declared as __weak to be overwritten in case of other
  *      implementations in user file.
  * @retval None
  */
__weak void HAL_IncTick(void)
{
 8001128:	b480      	push	{r7}
 800112a:	af00      	add	r7, sp, #0
  uwTick += uwTickFreq;
 800112c:	4b05      	ldr	r3, [pc, #20]	; (8001144 <HAL_IncTick+0x1c>)
 800112e:	781b      	ldrb	r3, [r3, #0]
 8001130:	461a      	mov	r2, r3
 8001132:	4b05      	ldr	r3, [pc, #20]	; (8001148 <HAL_IncTick+0x20>)
 8001134:	681b      	ldr	r3, [r3, #0]
 8001136:	4413      	add	r3, r2
 8001138:	4a03      	ldr	r2, [pc, #12]	; (8001148 <HAL_IncTick+0x20>)
 800113a:	6013      	str	r3, [r2, #0]
}
 800113c:	bf00      	nop
 800113e:	46bd      	mov	sp, r7
 8001140:	bc80      	pop	{r7}
 8001142:	4770      	bx	lr
 8001144:	2000000c 	.word	0x2000000c
 8001148:	20002e54 	.word	0x20002e54

0800114c <HAL_GetTick>:
  * @note  This function is declared as __weak to be overwritten in case of other
  *       implementations in user file.
  * @retval tick value
  */
__weak uint32_t HAL_GetTick(void)
{
 800114c:	b480      	push	{r7}
 800114e:	af00      	add	r7, sp, #0
  return uwTick;
 8001150:	4b02      	ldr	r3, [pc, #8]	; (800115c <HAL_GetTick+0x10>)
 8001152:	681b      	ldr	r3, [r3, #0]
}
 8001154:	4618      	mov	r0, r3
 8001156:	46bd      	mov	sp, r7
 8001158:	bc80      	pop	{r7}
 800115a:	4770      	bx	lr
 800115c:	20002e54 	.word	0x20002e54

08001160 <HAL_Delay>:
  *       implementations in user file.
  * @param Delay specifies the delay time length, in milliseconds.
  * @retval None
  */
__weak void HAL_Delay(uint32_t Delay)
{
 8001160:	b580      	push	{r7, lr}
 8001162:	b084      	sub	sp, #16
 8001164:	af00      	add	r7, sp, #0
 8001166:	6078      	str	r0, [r7, #4]
  uint32_t tickstart = HAL_GetTick();
 8001168:	f7ff fff0 	bl	800114c <HAL_GetTick>
 800116c:	60b8      	str	r0, [r7, #8]
  uint32_t wait = Delay;
 800116e:	687b      	ldr	r3, [r7, #4]
 8001170:	60fb      	str	r3, [r7, #12]

  /* Add a freq to guarantee minimum wait */
  if (wait < HAL_MAX_DELAY)
 8001172:	68fb      	ldr	r3, [r7, #12]
 8001174:	f1b3 3fff 	cmp.w	r3, #4294967295
 8001178:	d005      	beq.n	8001186 <HAL_Delay+0x26>
  {
    wait += (uint32_t)(uwTickFreq);
 800117a:	4b09      	ldr	r3, [pc, #36]	; (80011a0 <HAL_Delay+0x40>)
 800117c:	781b      	ldrb	r3, [r3, #0]
 800117e:	461a      	mov	r2, r3
 8001180:	68fb      	ldr	r3, [r7, #12]
 8001182:	4413      	add	r3, r2
 8001184:	60fb      	str	r3, [r7, #12]
  }

  while ((HAL_GetTick() - tickstart) < wait)
 8001186:	bf00      	nop
 8001188:	f7ff ffe0 	bl	800114c <HAL_GetTick>
 800118c:	4602      	mov	r2, r0
 800118e:	68bb      	ldr	r3, [r7, #8]
 8001190:	1ad3      	subs	r3, r2, r3
 8001192:	68fa      	ldr	r2, [r7, #12]
 8001194:	429a      	cmp	r2, r3
 8001196:	d8f7      	bhi.n	8001188 <HAL_Delay+0x28>
  {
  }
}
 8001198:	bf00      	nop
 800119a:	3710      	adds	r7, #16
 800119c:	46bd      	mov	sp, r7
 800119e:	bd80      	pop	{r7, pc}
 80011a0:	2000000c 	.word	0x2000000c

080011a4 <HAL_ADC_Init>:
  *         of structure "ADC_InitTypeDef".
  * @param  hadc: ADC handle
  * @retval HAL status
  */
HAL_StatusTypeDef HAL_ADC_Init(ADC_HandleTypeDef* hadc)
{
 80011a4:	b580      	push	{r7, lr}
 80011a6:	b086      	sub	sp, #24
 80011a8:	af00      	add	r7, sp, #0
 80011aa:	6078      	str	r0, [r7, #4]
  HAL_StatusTypeDef tmp_hal_status = HAL_OK;
 80011ac:	2300      	movs	r3, #0
 80011ae:	75fb      	strb	r3, [r7, #23]
  uint32_t tmp_cr1 = 0U;
 80011b0:	2300      	movs	r3, #0
 80011b2:	613b      	str	r3, [r7, #16]
  uint32_t tmp_cr2 = 0U;
 80011b4:	2300      	movs	r3, #0
 80011b6:	60bb      	str	r3, [r7, #8]
  uint32_t tmp_sqr1 = 0U;
 80011b8:	2300      	movs	r3, #0
 80011ba:	60fb      	str	r3, [r7, #12]
  
  /* Check ADC handle */
  if(hadc == NULL)
 80011bc:	687b      	ldr	r3, [r7, #4]
 80011be:	2b00      	cmp	r3, #0
 80011c0:	d101      	bne.n	80011c6 <HAL_ADC_Init+0x22>
  {
    return HAL_ERROR;
 80011c2:	2301      	movs	r3, #1
 80011c4:	e0be      	b.n	8001344 <HAL_ADC_Init+0x1a0>
  assert_param(IS_ADC_DATA_ALIGN(hadc->Init.DataAlign));
  assert_param(IS_ADC_SCAN_MODE(hadc->Init.ScanConvMode));
  assert_param(IS_FUNCTIONAL_STATE(hadc->Init.ContinuousConvMode));
  assert_param(IS_ADC_EXTTRIG(hadc->Init.ExternalTrigConv));
  
  if(hadc->Init.ScanConvMode != ADC_SCAN_DISABLE)
 80011c6:	687b      	ldr	r3, [r7, #4]
 80011c8:	689b      	ldr	r3, [r3, #8]
 80011ca:	2b00      	cmp	r3, #0
  /* Refer to header of this file for more details on clock enabling          */
  /* procedure.                                                               */

  /* Actions performed only if ADC is coming from state reset:                */
  /* - Initialization of ADC MSP                                              */
  if (hadc->State == HAL_ADC_STATE_RESET)
 80011cc:	687b      	ldr	r3, [r7, #4]
 80011ce:	6a9b      	ldr	r3, [r3, #40]	; 0x28
 80011d0:	2b00      	cmp	r3, #0
 80011d2:	d109      	bne.n	80011e8 <HAL_ADC_Init+0x44>
  {
    /* Initialize ADC error code */
    ADC_CLEAR_ERRORCODE(hadc);
 80011d4:	687b      	ldr	r3, [r7, #4]
 80011d6:	2200      	movs	r2, #0
 80011d8:	62da      	str	r2, [r3, #44]	; 0x2c
    
    /* Allocate lock resource and initialize it */
    hadc->Lock = HAL_UNLOCKED;
 80011da:	687b      	ldr	r3, [r7, #4]
 80011dc:	2200      	movs	r2, #0
 80011de:	f883 2024 	strb.w	r2, [r3, #36]	; 0x24
    
    /* Init the low level hardware */
    hadc->MspInitCallback(hadc);
#else
    /* Init the low level hardware */
    HAL_ADC_MspInit(hadc);
 80011e2:	6878      	ldr	r0, [r7, #4]
 80011e4:	f7ff fc94 	bl	8000b10 <HAL_ADC_MspInit>
  /* Stop potential conversion on going, on regular and injected groups */
  /* Disable ADC peripheral */
  /* Note: In case of ADC already enabled, precaution to not launch an        */
  /*       unwanted conversion while modifying register CR2 by writing 1 to   */
  /*       bit ADON.                                                          */
  tmp_hal_status = ADC_ConversionStop_Disable(hadc);
 80011e8:	6878      	ldr	r0, [r7, #4]
 80011ea:	f000 faf7 	bl	80017dc <ADC_ConversionStop_Disable>
 80011ee:	4603      	mov	r3, r0
 80011f0:	75fb      	strb	r3, [r7, #23]
  
  
  /* Configuration of ADC parameters if previous preliminary actions are      */ 
  /* correctly completed.                                                     */
  if (HAL_IS_BIT_CLR(hadc->State, HAL_ADC_STATE_ERROR_INTERNAL) &&
 80011f2:	687b      	ldr	r3, [r7, #4]
 80011f4:	6a9b      	ldr	r3, [r3, #40]	; 0x28
 80011f6:	f003 0310 	and.w	r3, r3, #16
 80011fa:	2b00      	cmp	r3, #0
 80011fc:	f040 8099 	bne.w	8001332 <HAL_ADC_Init+0x18e>
 8001200:	7dfb      	ldrb	r3, [r7, #23]
 8001202:	2b00      	cmp	r3, #0
 8001204:	f040 8095 	bne.w	8001332 <HAL_ADC_Init+0x18e>
      (tmp_hal_status == HAL_OK)                                  )
  {
    /* Set ADC state */
    ADC_STATE_CLR_SET(hadc->State,
 8001208:	687b      	ldr	r3, [r7, #4]
 800120a:	6a9b      	ldr	r3, [r3, #40]	; 0x28
 800120c:	f423 5388 	bic.w	r3, r3, #4352	; 0x1100
 8001210:	f023 0302 	bic.w	r3, r3, #2
 8001214:	f043 0202 	orr.w	r2, r3, #2
 8001218:	687b      	ldr	r3, [r7, #4]
 800121a:	629a      	str	r2, [r3, #40]	; 0x28
    /*  - continuous conversion mode                                          */
    /* Note: External trigger polarity (ADC_CR2_EXTTRIG) is set into          */
    /*       HAL_ADC_Start_xxx functions because if set in this function,     */
    /*       a conversion on injected group would start a conversion also on  */
    /*       regular group after ADC enabling.                                */
    tmp_cr2 |= (hadc->Init.DataAlign                                          |
 800121c:	687b      	ldr	r3, [r7, #4]
 800121e:	685a      	ldr	r2, [r3, #4]
                ADC_CFGR_EXTSEL(hadc, hadc->Init.ExternalTrigConv)            |
 8001220:	687b      	ldr	r3, [r7, #4]
 8001222:	69db      	ldr	r3, [r3, #28]
    tmp_cr2 |= (hadc->Init.DataAlign                                          |
 8001224:	431a      	orrs	r2, r3
                ADC_CR2_CONTINUOUS((uint32_t)hadc->Init.ContinuousConvMode)   );
 8001226:	687b      	ldr	r3, [r7, #4]
 8001228:	7b1b      	ldrb	r3, [r3, #12]
 800122a:	005b      	lsls	r3, r3, #1
                ADC_CFGR_EXTSEL(hadc, hadc->Init.ExternalTrigConv)            |
 800122c:	4313      	orrs	r3, r2
    tmp_cr2 |= (hadc->Init.DataAlign                                          |
 800122e:	68ba      	ldr	r2, [r7, #8]
 8001230:	4313      	orrs	r3, r2
 8001232:	60bb      	str	r3, [r7, #8]

    /* Configuration of ADC:                                                  */
    /*  - scan mode                                                           */
    /*  - discontinuous mode disable/enable                                   */
    /*  - discontinuous mode number of conversions                            */
    tmp_cr1 |= (ADC_CR1_SCAN_SET(hadc->Init.ScanConvMode));
 8001234:	687b      	ldr	r3, [r7, #4]
 8001236:	689b      	ldr	r3, [r3, #8]
 8001238:	f5b3 7f80 	cmp.w	r3, #256	; 0x100
 800123c:	d003      	beq.n	8001246 <HAL_ADC_Init+0xa2>
 800123e:	687b      	ldr	r3, [r7, #4]
 8001240:	689b      	ldr	r3, [r3, #8]
 8001242:	2b01      	cmp	r3, #1
 8001244:	d102      	bne.n	800124c <HAL_ADC_Init+0xa8>
 8001246:	f44f 7380 	mov.w	r3, #256	; 0x100
 800124a:	e000      	b.n	800124e <HAL_ADC_Init+0xaa>
 800124c:	2300      	movs	r3, #0
 800124e:	693a      	ldr	r2, [r7, #16]
 8001250:	4313      	orrs	r3, r2
 8001252:	613b      	str	r3, [r7, #16]
    
    /* Enable discontinuous mode only if continuous mode is disabled */
    /* Note: If parameter "Init.ScanConvMode" is set to disable, parameter    */
    /*       discontinuous is set anyway, but will have no effect on ADC HW.  */
    if (hadc->Init.DiscontinuousConvMode == ENABLE)
 8001254:	687b      	ldr	r3, [r7, #4]
 8001256:	7d1b      	ldrb	r3, [r3, #20]
 8001258:	2b01      	cmp	r3, #1
 800125a:	d119      	bne.n	8001290 <HAL_ADC_Init+0xec>
    {
      if (hadc->Init.ContinuousConvMode == DISABLE)
 800125c:	687b      	ldr	r3, [r7, #4]
 800125e:	7b1b      	ldrb	r3, [r3, #12]
 8001260:	2b00      	cmp	r3, #0
 8001262:	d109      	bne.n	8001278 <HAL_ADC_Init+0xd4>
      {
        /* Enable the selected ADC regular discontinuous mode */
        /* Set the number of channels to be converted in discontinuous mode */
        SET_BIT(tmp_cr1, ADC_CR1_DISCEN                                            |
 8001264:	687b      	ldr	r3, [r7, #4]
 8001266:	699b      	ldr	r3, [r3, #24]
 8001268:	3b01      	subs	r3, #1
 800126a:	035a      	lsls	r2, r3, #13
 800126c:	693b      	ldr	r3, [r7, #16]
 800126e:	4313      	orrs	r3, r2
 8001270:	f443 6300 	orr.w	r3, r3, #2048	; 0x800
 8001274:	613b      	str	r3, [r7, #16]
 8001276:	e00b      	b.n	8001290 <HAL_ADC_Init+0xec>
      {
        /* ADC regular group settings continuous and sequencer discontinuous*/
        /* cannot be enabled simultaneously.                                */
        
        /* Update ADC state machine to error */
        SET_BIT(hadc->State, HAL_ADC_STATE_ERROR_CONFIG);
 8001278:	687b      	ldr	r3, [r7, #4]
 800127a:	6a9b      	ldr	r3, [r3, #40]	; 0x28
 800127c:	f043 0220 	orr.w	r2, r3, #32
 8001280:	687b      	ldr	r3, [r7, #4]
 8001282:	629a      	str	r2, [r3, #40]	; 0x28
        
        /* Set ADC error code to ADC IP internal error */
        SET_BIT(hadc->ErrorCode, HAL_ADC_ERROR_INTERNAL);
 8001284:	687b      	ldr	r3, [r7, #4]
 8001286:	6adb      	ldr	r3, [r3, #44]	; 0x2c
 8001288:	f043 0201 	orr.w	r2, r3, #1
 800128c:	687b      	ldr	r3, [r7, #4]
 800128e:	62da      	str	r2, [r3, #44]	; 0x2c
      }
    }
    
    /* Update ADC configuration register CR1 with previous settings */
      MODIFY_REG(hadc->Instance->CR1,
 8001290:	687b      	ldr	r3, [r7, #4]
 8001292:	681b      	ldr	r3, [r3, #0]
 8001294:	685b      	ldr	r3, [r3, #4]
 8001296:	f423 4169 	bic.w	r1, r3, #59648	; 0xe900
 800129a:	687b      	ldr	r3, [r7, #4]
 800129c:	681b      	ldr	r3, [r3, #0]
 800129e:	693a      	ldr	r2, [r7, #16]
 80012a0:	430a      	orrs	r2, r1
 80012a2:	605a      	str	r2, [r3, #4]
                 ADC_CR1_DISCEN  |
                 ADC_CR1_DISCNUM    ,
                 tmp_cr1             );
    
    /* Update ADC configuration register CR2 with previous settings */
      MODIFY_REG(hadc->Instance->CR2,
 80012a4:	687b      	ldr	r3, [r7, #4]
 80012a6:	681b      	ldr	r3, [r3, #0]
 80012a8:	689a      	ldr	r2, [r3, #8]
 80012aa:	4b28      	ldr	r3, [pc, #160]	; (800134c <HAL_ADC_Init+0x1a8>)
 80012ac:	4013      	ands	r3, r2
 80012ae:	687a      	ldr	r2, [r7, #4]
 80012b0:	6812      	ldr	r2, [r2, #0]
 80012b2:	68b9      	ldr	r1, [r7, #8]
 80012b4:	430b      	orrs	r3, r1
 80012b6:	6093      	str	r3, [r2, #8]
    /*   Note: Scan mode is present by hardware on this device and, if        */
    /*   disabled, discards automatically nb of conversions. Anyway, nb of    */
    /*   conversions is forced to 0x00 for alignment over all STM32 devices.  */
    /* - if scan mode is enabled, regular channels sequence length is set to  */
    /*   parameter "NbrOfConversion"                                          */
    if (ADC_CR1_SCAN_SET(hadc->Init.ScanConvMode) == ADC_SCAN_ENABLE)
 80012b8:	687b      	ldr	r3, [r7, #4]
 80012ba:	689b      	ldr	r3, [r3, #8]
 80012bc:	f5b3 7f80 	cmp.w	r3, #256	; 0x100
 80012c0:	d003      	beq.n	80012ca <HAL_ADC_Init+0x126>
 80012c2:	687b      	ldr	r3, [r7, #4]
 80012c4:	689b      	ldr	r3, [r3, #8]
 80012c6:	2b01      	cmp	r3, #1
 80012c8:	d104      	bne.n	80012d4 <HAL_ADC_Init+0x130>
    {
      tmp_sqr1 = ADC_SQR1_L_SHIFT(hadc->Init.NbrOfConversion);
 80012ca:	687b      	ldr	r3, [r7, #4]
 80012cc:	691b      	ldr	r3, [r3, #16]
 80012ce:	3b01      	subs	r3, #1
 80012d0:	051b      	lsls	r3, r3, #20
 80012d2:	60fb      	str	r3, [r7, #12]
    }
      
    MODIFY_REG(hadc->Instance->SQR1,
 80012d4:	687b      	ldr	r3, [r7, #4]
 80012d6:	681b      	ldr	r3, [r3, #0]
 80012d8:	6adb      	ldr	r3, [r3, #44]	; 0x2c
 80012da:	f423 0170 	bic.w	r1, r3, #15728640	; 0xf00000
 80012de:	687b      	ldr	r3, [r7, #4]
 80012e0:	681b      	ldr	r3, [r3, #0]
 80012e2:	68fa      	ldr	r2, [r7, #12]
 80012e4:	430a      	orrs	r2, r1
 80012e6:	62da      	str	r2, [r3, #44]	; 0x2c
    /* ensure of no potential problem of ADC core IP clocking.                */
    /* Check through register CR2 (excluding bits set in other functions:     */
    /* execution control bits (ADON, JSWSTART, SWSTART), regular group bits   */
    /* (DMA), injected group bits (JEXTTRIG and JEXTSEL), channel internal    */
    /* measurement path bit (TSVREFE).                                        */
    if (READ_BIT(hadc->Instance->CR2, ~(ADC_CR2_ADON | ADC_CR2_DMA |
 80012e8:	687b      	ldr	r3, [r7, #4]
 80012ea:	681b      	ldr	r3, [r3, #0]
 80012ec:	689a      	ldr	r2, [r3, #8]
 80012ee:	4b18      	ldr	r3, [pc, #96]	; (8001350 <HAL_ADC_Init+0x1ac>)
 80012f0:	4013      	ands	r3, r2
 80012f2:	68ba      	ldr	r2, [r7, #8]
 80012f4:	429a      	cmp	r2, r3
 80012f6:	d10b      	bne.n	8001310 <HAL_ADC_Init+0x16c>
                                        ADC_CR2_JEXTTRIG | ADC_CR2_JEXTSEL |
                                        ADC_CR2_TSVREFE                     ))
         == tmp_cr2)
    {
      /* Set ADC error code to none */
      ADC_CLEAR_ERRORCODE(hadc);
 80012f8:	687b      	ldr	r3, [r7, #4]
 80012fa:	2200      	movs	r2, #0
 80012fc:	62da      	str	r2, [r3, #44]	; 0x2c
      
      /* Set the ADC state */
      ADC_STATE_CLR_SET(hadc->State,
 80012fe:	687b      	ldr	r3, [r7, #4]
 8001300:	6a9b      	ldr	r3, [r3, #40]	; 0x28
 8001302:	f023 0303 	bic.w	r3, r3, #3
 8001306:	f043 0201 	orr.w	r2, r3, #1
 800130a:	687b      	ldr	r3, [r7, #4]
 800130c:	629a      	str	r2, [r3, #40]	; 0x28
    if (READ_BIT(hadc->Instance->CR2, ~(ADC_CR2_ADON | ADC_CR2_DMA |
 800130e:	e018      	b.n	8001342 <HAL_ADC_Init+0x19e>
                        HAL_ADC_STATE_READY);
    }
    else
    {
      /* Update ADC state machine to error */
      ADC_STATE_CLR_SET(hadc->State,
 8001310:	687b      	ldr	r3, [r7, #4]
 8001312:	6a9b      	ldr	r3, [r3, #40]	; 0x28
 8001314:	f023 0312 	bic.w	r3, r3, #18
 8001318:	f043 0210 	orr.w	r2, r3, #16
 800131c:	687b      	ldr	r3, [r7, #4]
 800131e:	629a      	str	r2, [r3, #40]	; 0x28
                        HAL_ADC_STATE_BUSY_INTERNAL,
                        HAL_ADC_STATE_ERROR_INTERNAL);
      
      /* Set ADC error code to ADC IP internal error */
      SET_BIT(hadc->ErrorCode, HAL_ADC_ERROR_INTERNAL);
 8001320:	687b      	ldr	r3, [r7, #4]
 8001322:	6adb      	ldr	r3, [r3, #44]	; 0x2c
 8001324:	f043 0201 	orr.w	r2, r3, #1
 8001328:	687b      	ldr	r3, [r7, #4]
 800132a:	62da      	str	r2, [r3, #44]	; 0x2c
      
      tmp_hal_status = HAL_ERROR;
 800132c:	2301      	movs	r3, #1
 800132e:	75fb      	strb	r3, [r7, #23]
    if (READ_BIT(hadc->Instance->CR2, ~(ADC_CR2_ADON | ADC_CR2_DMA |
 8001330:	e007      	b.n	8001342 <HAL_ADC_Init+0x19e>
  
  }
  else
  {
    /* Update ADC state machine to error */
    SET_BIT(hadc->State, HAL_ADC_STATE_ERROR_INTERNAL);
 8001332:	687b      	ldr	r3, [r7, #4]
 8001334:	6a9b      	ldr	r3, [r3, #40]	; 0x28
 8001336:	f043 0210 	orr.w	r2, r3, #16
 800133a:	687b      	ldr	r3, [r7, #4]
 800133c:	629a      	str	r2, [r3, #40]	; 0x28
        
    tmp_hal_status = HAL_ERROR;
 800133e:	2301      	movs	r3, #1
 8001340:	75fb      	strb	r3, [r7, #23]
  }
  
  /* Return function status */
  return tmp_hal_status;
 8001342:	7dfb      	ldrb	r3, [r7, #23]
}
 8001344:	4618      	mov	r0, r3
 8001346:	3718      	adds	r7, #24
 8001348:	46bd      	mov	sp, r7
 800134a:	bd80      	pop	{r7, pc}
 800134c:	ffe1f7fd 	.word	0xffe1f7fd
 8001350:	ff1f0efe 	.word	0xff1f0efe

08001354 <HAL_ADC_Start_DMA>:
  * @param  pData: The destination Buffer address.
  * @param  Length: The length of data to be transferred from ADC peripheral to memory.
  * @retval None
  */
HAL_StatusTypeDef HAL_ADC_Start_DMA(ADC_HandleTypeDef* hadc, uint32_t* pData, uint32_t Length)
{
 8001354:	b580      	push	{r7, lr}
 8001356:	b086      	sub	sp, #24
 8001358:	af00      	add	r7, sp, #0
 800135a:	60f8      	str	r0, [r7, #12]
 800135c:	60b9      	str	r1, [r7, #8]
 800135e:	607a      	str	r2, [r7, #4]
  HAL_StatusTypeDef tmp_hal_status = HAL_OK;
 8001360:	2300      	movs	r3, #0
 8001362:	75fb      	strb	r3, [r7, #23]
  assert_param(IS_ADC_DMA_CAPABILITY_INSTANCE(hadc->Instance));
    
  /* Verification if multimode is disabled (for devices with several ADC)     */
  /* If multimode is enabled, dedicated function multimode conversion         */
  /* start DMA must be used.                                                  */
  if(ADC_MULTIMODE_IS_ENABLE(hadc) == RESET)
 8001364:	68fb      	ldr	r3, [r7, #12]
 8001366:	681b      	ldr	r3, [r3, #0]
 8001368:	4a64      	ldr	r2, [pc, #400]	; (80014fc <HAL_ADC_Start_DMA+0x1a8>)
 800136a:	4293      	cmp	r3, r2
 800136c:	d004      	beq.n	8001378 <HAL_ADC_Start_DMA+0x24>
 800136e:	68fb      	ldr	r3, [r7, #12]
 8001370:	681b      	ldr	r3, [r3, #0]
 8001372:	4a63      	ldr	r2, [pc, #396]	; (8001500 <HAL_ADC_Start_DMA+0x1ac>)
 8001374:	4293      	cmp	r3, r2
 8001376:	d106      	bne.n	8001386 <HAL_ADC_Start_DMA+0x32>
 8001378:	4b60      	ldr	r3, [pc, #384]	; (80014fc <HAL_ADC_Start_DMA+0x1a8>)
 800137a:	685b      	ldr	r3, [r3, #4]
 800137c:	f403 2370 	and.w	r3, r3, #983040	; 0xf0000
 8001380:	2b00      	cmp	r3, #0
 8001382:	f040 80b3 	bne.w	80014ec <HAL_ADC_Start_DMA+0x198>
  {
    /* Process locked */
    __HAL_LOCK(hadc);
 8001386:	68fb      	ldr	r3, [r7, #12]
 8001388:	f893 3024 	ldrb.w	r3, [r3, #36]	; 0x24
 800138c:	2b01      	cmp	r3, #1
 800138e:	d101      	bne.n	8001394 <HAL_ADC_Start_DMA+0x40>
 8001390:	2302      	movs	r3, #2
 8001392:	e0ae      	b.n	80014f2 <HAL_ADC_Start_DMA+0x19e>
 8001394:	68fb      	ldr	r3, [r7, #12]
 8001396:	2201      	movs	r2, #1
 8001398:	f883 2024 	strb.w	r2, [r3, #36]	; 0x24
    
    /* Enable the ADC peripheral */
    tmp_hal_status = ADC_Enable(hadc);
 800139c:	68f8      	ldr	r0, [r7, #12]
 800139e:	f000 f9cb 	bl	8001738 <ADC_Enable>
 80013a2:	4603      	mov	r3, r0
 80013a4:	75fb      	strb	r3, [r7, #23]
    
    /* Start conversion if ADC is effectively enabled */
    if (tmp_hal_status == HAL_OK)
 80013a6:	7dfb      	ldrb	r3, [r7, #23]
 80013a8:	2b00      	cmp	r3, #0
 80013aa:	f040 809a 	bne.w	80014e2 <HAL_ADC_Start_DMA+0x18e>
    {
      /* Set ADC state                                                        */
      /* - Clear state bitfield related to regular group conversion results   */
      /* - Set state bitfield related to regular operation                    */
      ADC_STATE_CLR_SET(hadc->State,
 80013ae:	68fb      	ldr	r3, [r7, #12]
 80013b0:	6a9b      	ldr	r3, [r3, #40]	; 0x28
 80013b2:	f423 6370 	bic.w	r3, r3, #3840	; 0xf00
 80013b6:	f023 0301 	bic.w	r3, r3, #1
 80013ba:	f443 7280 	orr.w	r2, r3, #256	; 0x100
 80013be:	68fb      	ldr	r3, [r7, #12]
 80013c0:	629a      	str	r2, [r3, #40]	; 0x28
                        HAL_ADC_STATE_REG_BUSY);
    
    /* Set group injected state (from auto-injection) and multimode state     */
    /* for all cases of multimode: independent mode, multimode ADC master     */
    /* or multimode ADC slave (for devices with several ADCs):                */
    if (ADC_NONMULTIMODE_OR_MULTIMODEMASTER(hadc))
 80013c2:	68fb      	ldr	r3, [r7, #12]
 80013c4:	681b      	ldr	r3, [r3, #0]
 80013c6:	4a4e      	ldr	r2, [pc, #312]	; (8001500 <HAL_ADC_Start_DMA+0x1ac>)
 80013c8:	4293      	cmp	r3, r2
 80013ca:	d105      	bne.n	80013d8 <HAL_ADC_Start_DMA+0x84>
 80013cc:	4b4b      	ldr	r3, [pc, #300]	; (80014fc <HAL_ADC_Start_DMA+0x1a8>)
 80013ce:	685b      	ldr	r3, [r3, #4]
 80013d0:	f403 2370 	and.w	r3, r3, #983040	; 0xf0000
 80013d4:	2b00      	cmp	r3, #0
 80013d6:	d115      	bne.n	8001404 <HAL_ADC_Start_DMA+0xb0>
    {
      /* Set ADC state (ADC independent or master) */
      CLEAR_BIT(hadc->State, HAL_ADC_STATE_MULTIMODE_SLAVE);
 80013d8:	68fb      	ldr	r3, [r7, #12]
 80013da:	6a9b      	ldr	r3, [r3, #40]	; 0x28
 80013dc:	f423 1280 	bic.w	r2, r3, #1048576	; 0x100000
 80013e0:	68fb      	ldr	r3, [r7, #12]
 80013e2:	629a      	str	r2, [r3, #40]	; 0x28
      
      /* If conversions on group regular are also triggering group injected,  */
      /* update ADC state.                                                    */
      if (READ_BIT(hadc->Instance->CR1, ADC_CR1_JAUTO) != RESET)
 80013e4:	68fb      	ldr	r3, [r7, #12]
 80013e6:	681b      	ldr	r3, [r3, #0]
 80013e8:	685b      	ldr	r3, [r3, #4]
 80013ea:	f403 6380 	and.w	r3, r3, #1024	; 0x400
 80013ee:	2b00      	cmp	r3, #0
 80013f0:	d026      	beq.n	8001440 <HAL_ADC_Start_DMA+0xec>
      {
        ADC_STATE_CLR_SET(hadc->State, HAL_ADC_STATE_INJ_EOC, HAL_ADC_STATE_INJ_BUSY);  
 80013f2:	68fb      	ldr	r3, [r7, #12]
 80013f4:	6a9b      	ldr	r3, [r3, #40]	; 0x28
 80013f6:	f423 5340 	bic.w	r3, r3, #12288	; 0x3000
 80013fa:	f443 5280 	orr.w	r2, r3, #4096	; 0x1000
 80013fe:	68fb      	ldr	r3, [r7, #12]
 8001400:	629a      	str	r2, [r3, #40]	; 0x28
      if (READ_BIT(hadc->Instance->CR1, ADC_CR1_JAUTO) != RESET)
 8001402:	e01d      	b.n	8001440 <HAL_ADC_Start_DMA+0xec>
      }
    }
    else
    {
      /* Set ADC state (ADC slave) */
      SET_BIT(hadc->State, HAL_ADC_STATE_MULTIMODE_SLAVE);
 8001404:	68fb      	ldr	r3, [r7, #12]
 8001406:	6a9b      	ldr	r3, [r3, #40]	; 0x28
 8001408:	f443 1280 	orr.w	r2, r3, #1048576	; 0x100000
 800140c:	68fb      	ldr	r3, [r7, #12]
 800140e:	629a      	str	r2, [r3, #40]	; 0x28
      
      /* If conversions on group regular are also triggering group injected,  */
      /* update ADC state.                                                    */
      if (ADC_MULTIMODE_AUTO_INJECTED(hadc))
 8001410:	68fb      	ldr	r3, [r7, #12]
 8001412:	681b      	ldr	r3, [r3, #0]
 8001414:	4a39      	ldr	r2, [pc, #228]	; (80014fc <HAL_ADC_Start_DMA+0x1a8>)
 8001416:	4293      	cmp	r3, r2
 8001418:	d004      	beq.n	8001424 <HAL_ADC_Start_DMA+0xd0>
 800141a:	68fb      	ldr	r3, [r7, #12]
 800141c:	681b      	ldr	r3, [r3, #0]
 800141e:	4a38      	ldr	r2, [pc, #224]	; (8001500 <HAL_ADC_Start_DMA+0x1ac>)
 8001420:	4293      	cmp	r3, r2
 8001422:	d10d      	bne.n	8001440 <HAL_ADC_Start_DMA+0xec>
 8001424:	4b35      	ldr	r3, [pc, #212]	; (80014fc <HAL_ADC_Start_DMA+0x1a8>)
 8001426:	685b      	ldr	r3, [r3, #4]
 8001428:	f403 6380 	and.w	r3, r3, #1024	; 0x400
 800142c:	2b00      	cmp	r3, #0
 800142e:	d007      	beq.n	8001440 <HAL_ADC_Start_DMA+0xec>
      {
        ADC_STATE_CLR_SET(hadc->State, HAL_ADC_STATE_INJ_EOC, HAL_ADC_STATE_INJ_BUSY);
 8001430:	68fb      	ldr	r3, [r7, #12]
 8001432:	6a9b      	ldr	r3, [r3, #40]	; 0x28
 8001434:	f423 5340 	bic.w	r3, r3, #12288	; 0x3000
 8001438:	f443 5280 	orr.w	r2, r3, #4096	; 0x1000
 800143c:	68fb      	ldr	r3, [r7, #12]
 800143e:	629a      	str	r2, [r3, #40]	; 0x28
      }
    }
      
      /* State machine update: Check if an injected conversion is ongoing */
      if (HAL_IS_BIT_SET(hadc->State, HAL_ADC_STATE_INJ_BUSY))
 8001440:	68fb      	ldr	r3, [r7, #12]
 8001442:	6a9b      	ldr	r3, [r3, #40]	; 0x28
 8001444:	f403 5380 	and.w	r3, r3, #4096	; 0x1000
 8001448:	2b00      	cmp	r3, #0
 800144a:	d006      	beq.n	800145a <HAL_ADC_Start_DMA+0x106>
      {
        /* Reset ADC error code fields related to conversions on group regular */
        CLEAR_BIT(hadc->ErrorCode, (HAL_ADC_ERROR_OVR | HAL_ADC_ERROR_DMA));         
 800144c:	68fb      	ldr	r3, [r7, #12]
 800144e:	6adb      	ldr	r3, [r3, #44]	; 0x2c
 8001450:	f023 0206 	bic.w	r2, r3, #6
 8001454:	68fb      	ldr	r3, [r7, #12]
 8001456:	62da      	str	r2, [r3, #44]	; 0x2c
 8001458:	e002      	b.n	8001460 <HAL_ADC_Start_DMA+0x10c>
      }
      else
      {
        /* Reset ADC all error code fields */
        ADC_CLEAR_ERRORCODE(hadc);
 800145a:	68fb      	ldr	r3, [r7, #12]
 800145c:	2200      	movs	r2, #0
 800145e:	62da      	str	r2, [r3, #44]	; 0x2c
      }
      
      /* Process unlocked */
      /* Unlock before starting ADC conversions: in case of potential         */
      /* interruption, to let the process to ADC IRQ Handler.                 */
      __HAL_UNLOCK(hadc);
 8001460:	68fb      	ldr	r3, [r7, #12]
 8001462:	2200      	movs	r2, #0
 8001464:	f883 2024 	strb.w	r2, [r3, #36]	; 0x24
      
      /* Set the DMA transfer complete callback */
      hadc->DMA_Handle->XferCpltCallback = ADC_DMAConvCplt;
 8001468:	68fb      	ldr	r3, [r7, #12]
 800146a:	6a1b      	ldr	r3, [r3, #32]
 800146c:	4a25      	ldr	r2, [pc, #148]	; (8001504 <HAL_ADC_Start_DMA+0x1b0>)
 800146e:	629a      	str	r2, [r3, #40]	; 0x28

      /* Set the DMA half transfer complete callback */
      hadc->DMA_Handle->XferHalfCpltCallback = ADC_DMAHalfConvCplt;
 8001470:	68fb      	ldr	r3, [r7, #12]
 8001472:	6a1b      	ldr	r3, [r3, #32]
 8001474:	4a24      	ldr	r2, [pc, #144]	; (8001508 <HAL_ADC_Start_DMA+0x1b4>)
 8001476:	62da      	str	r2, [r3, #44]	; 0x2c
      
      /* Set the DMA error callback */
      hadc->DMA_Handle->XferErrorCallback = ADC_DMAError;
 8001478:	68fb      	ldr	r3, [r7, #12]
 800147a:	6a1b      	ldr	r3, [r3, #32]
 800147c:	4a23      	ldr	r2, [pc, #140]	; (800150c <HAL_ADC_Start_DMA+0x1b8>)
 800147e:	631a      	str	r2, [r3, #48]	; 0x30
      /* start (in case of SW start):                                         */
      
      /* Clear regular group conversion flag and overrun flag */
      /* (To ensure of no unknown state from potential previous ADC           */
      /* operations)                                                          */
      __HAL_ADC_CLEAR_FLAG(hadc, ADC_FLAG_EOC);
 8001480:	68fb      	ldr	r3, [r7, #12]
 8001482:	681b      	ldr	r3, [r3, #0]
 8001484:	f06f 0202 	mvn.w	r2, #2
 8001488:	601a      	str	r2, [r3, #0]
      
      /* Enable ADC DMA mode */
      SET_BIT(hadc->Instance->CR2, ADC_CR2_DMA);
 800148a:	68fb      	ldr	r3, [r7, #12]
 800148c:	681b      	ldr	r3, [r3, #0]
 800148e:	689a      	ldr	r2, [r3, #8]
 8001490:	68fb      	ldr	r3, [r7, #12]
 8001492:	681b      	ldr	r3, [r3, #0]
 8001494:	f442 7280 	orr.w	r2, r2, #256	; 0x100
 8001498:	609a      	str	r2, [r3, #8]
      
      /* Start the DMA channel */
      HAL_DMA_Start_IT(hadc->DMA_Handle, (uint32_t)&hadc->Instance->DR, (uint32_t)pData, Length);
 800149a:	68fb      	ldr	r3, [r7, #12]
 800149c:	6a18      	ldr	r0, [r3, #32]
 800149e:	68fb      	ldr	r3, [r7, #12]
 80014a0:	681b      	ldr	r3, [r3, #0]
 80014a2:	334c      	adds	r3, #76	; 0x4c
 80014a4:	4619      	mov	r1, r3
 80014a6:	68ba      	ldr	r2, [r7, #8]
 80014a8:	687b      	ldr	r3, [r7, #4]
 80014aa:	f001 f9a7 	bl	80027fc <HAL_DMA_Start_IT>
      
      /* Enable conversion of regular group.                                  */
      /* If software start has been selected, conversion starts immediately.  */
      /* If external trigger has been selected, conversion will start at next */
      /* trigger event.                                                       */
      if (ADC_IS_SOFTWARE_START_REGULAR(hadc))
 80014ae:	68fb      	ldr	r3, [r7, #12]
 80014b0:	681b      	ldr	r3, [r3, #0]
 80014b2:	689b      	ldr	r3, [r3, #8]
 80014b4:	f403 2360 	and.w	r3, r3, #917504	; 0xe0000
 80014b8:	f5b3 2f60 	cmp.w	r3, #917504	; 0xe0000
 80014bc:	d108      	bne.n	80014d0 <HAL_ADC_Start_DMA+0x17c>
      {
        /* Start ADC conversion on regular group with SW start */
        SET_BIT(hadc->Instance->CR2, (ADC_CR2_SWSTART | ADC_CR2_EXTTRIG));
 80014be:	68fb      	ldr	r3, [r7, #12]
 80014c0:	681b      	ldr	r3, [r3, #0]
 80014c2:	689a      	ldr	r2, [r3, #8]
 80014c4:	68fb      	ldr	r3, [r7, #12]
 80014c6:	681b      	ldr	r3, [r3, #0]
 80014c8:	f442 02a0 	orr.w	r2, r2, #5242880	; 0x500000
 80014cc:	609a      	str	r2, [r3, #8]
    if (tmp_hal_status == HAL_OK)
 80014ce:	e00f      	b.n	80014f0 <HAL_ADC_Start_DMA+0x19c>
      }
      else
      {
        /* Start ADC conversion on regular group with external trigger */
        SET_BIT(hadc->Instance->CR2, ADC_CR2_EXTTRIG);
 80014d0:	68fb      	ldr	r3, [r7, #12]
 80014d2:	681b      	ldr	r3, [r3, #0]
 80014d4:	689a      	ldr	r2, [r3, #8]
 80014d6:	68fb      	ldr	r3, [r7, #12]
 80014d8:	681b      	ldr	r3, [r3, #0]
 80014da:	f442 1280 	orr.w	r2, r2, #1048576	; 0x100000
 80014de:	609a      	str	r2, [r3, #8]
    if (tmp_hal_status == HAL_OK)
 80014e0:	e006      	b.n	80014f0 <HAL_ADC_Start_DMA+0x19c>
      }
    }
    else
    {
      /* Process unlocked */
      __HAL_UNLOCK(hadc);
 80014e2:	68fb      	ldr	r3, [r7, #12]
 80014e4:	2200      	movs	r2, #0
 80014e6:	f883 2024 	strb.w	r2, [r3, #36]	; 0x24
    if (tmp_hal_status == HAL_OK)
 80014ea:	e001      	b.n	80014f0 <HAL_ADC_Start_DMA+0x19c>
    }
  }
  else
  {
    tmp_hal_status = HAL_ERROR;
 80014ec:	2301      	movs	r3, #1
 80014ee:	75fb      	strb	r3, [r7, #23]
  }
  
  /* Return function status */
  return tmp_hal_status;
 80014f0:	7dfb      	ldrb	r3, [r7, #23]
}
 80014f2:	4618      	mov	r0, r3
 80014f4:	3718      	adds	r7, #24
 80014f6:	46bd      	mov	sp, r7
 80014f8:	bd80      	pop	{r7, pc}
 80014fa:	bf00      	nop
 80014fc:	40012400 	.word	0x40012400
 8001500:	40012800 	.word	0x40012800
 8001504:	08001851 	.word	0x08001851
 8001508:	080018cd 	.word	0x080018cd
 800150c:	080018e9 	.word	0x080018e9

08001510 <HAL_ADC_ConvCpltCallback>:
  * @brief  Conversion complete callback in non blocking mode 
  * @param  hadc: ADC handle
  * @retval None
  */
__weak void HAL_ADC_ConvCpltCallback(ADC_HandleTypeDef* hadc)
{
 8001510:	b480      	push	{r7}
 8001512:	b083      	sub	sp, #12
 8001514:	af00      	add	r7, sp, #0
 8001516:	6078      	str	r0, [r7, #4]
  /* Prevent unused argument(s) compilation warning */
  UNUSED(hadc);
  /* NOTE : This function should not be modified. When the callback is needed,
            function HAL_ADC_ConvCpltCallback must be implemented in the user file.
   */
}
 8001518:	bf00      	nop
 800151a:	370c      	adds	r7, #12
 800151c:	46bd      	mov	sp, r7
 800151e:	bc80      	pop	{r7}
 8001520:	4770      	bx	lr

08001522 <HAL_ADC_ConvHalfCpltCallback>:
  * @brief  Conversion DMA half-transfer callback in non blocking mode 
  * @param  hadc: ADC handle
  * @retval None
  */
__weak void HAL_ADC_ConvHalfCpltCallback(ADC_HandleTypeDef* hadc)
{
 8001522:	b480      	push	{r7}
 8001524:	b083      	sub	sp, #12
 8001526:	af00      	add	r7, sp, #0
 8001528:	6078      	str	r0, [r7, #4]
  /* Prevent unused argument(s) compilation warning */
  UNUSED(hadc);
  /* NOTE : This function should not be modified. When the callback is needed,
            function HAL_ADC_ConvHalfCpltCallback must be implemented in the user file.
  */
}
 800152a:	bf00      	nop
 800152c:	370c      	adds	r7, #12
 800152e:	46bd      	mov	sp, r7
 8001530:	bc80      	pop	{r7}
 8001532:	4770      	bx	lr

08001534 <HAL_ADC_ErrorCallback>:
  *        (ADC conversion with interruption or transfer by DMA)
  * @param  hadc: ADC handle
  * @retval None
  */
__weak void HAL_ADC_ErrorCallback(ADC_HandleTypeDef *hadc)
{
 8001534:	b480      	push	{r7}
 8001536:	b083      	sub	sp, #12
 8001538:	af00      	add	r7, sp, #0
 800153a:	6078      	str	r0, [r7, #4]
  /* Prevent unused argument(s) compilation warning */
  UNUSED(hadc);
  /* NOTE : This function should not be modified. When the callback is needed,
            function HAL_ADC_ErrorCallback must be implemented in the user file.
  */
}
 800153c:	bf00      	nop
 800153e:	370c      	adds	r7, #12
 8001540:	46bd      	mov	sp, r7
 8001542:	bc80      	pop	{r7}
 8001544:	4770      	bx	lr
	...

08001548 <HAL_ADC_ConfigChannel>:
  * @param  hadc: ADC handle
  * @param  sConfig: Structure of ADC channel for regular group.
  * @retval HAL status
  */
HAL_StatusTypeDef HAL_ADC_ConfigChannel(ADC_HandleTypeDef* hadc, ADC_ChannelConfTypeDef* sConfig)
{ 
 8001548:	b480      	push	{r7}
 800154a:	b085      	sub	sp, #20
 800154c:	af00      	add	r7, sp, #0
 800154e:	6078      	str	r0, [r7, #4]
 8001550:	6039      	str	r1, [r7, #0]
  HAL_StatusTypeDef tmp_hal_status = HAL_OK;
 8001552:	2300      	movs	r3, #0
 8001554:	73fb      	strb	r3, [r7, #15]
  __IO uint32_t wait_loop_index = 0U;
 8001556:	2300      	movs	r3, #0
 8001558:	60bb      	str	r3, [r7, #8]
  assert_param(IS_ADC_CHANNEL(sConfig->Channel));
  assert_param(IS_ADC_REGULAR_RANK(sConfig->Rank));
  assert_param(IS_ADC_SAMPLE_TIME(sConfig->SamplingTime));
  
  /* Process locked */
  __HAL_LOCK(hadc);
 800155a:	687b      	ldr	r3, [r7, #4]
 800155c:	f893 3024 	ldrb.w	r3, [r3, #36]	; 0x24
 8001560:	2b01      	cmp	r3, #1
 8001562:	d101      	bne.n	8001568 <HAL_ADC_ConfigChannel+0x20>
 8001564:	2302      	movs	r3, #2
 8001566:	e0dc      	b.n	8001722 <HAL_ADC_ConfigChannel+0x1da>
 8001568:	687b      	ldr	r3, [r7, #4]
 800156a:	2201      	movs	r2, #1
 800156c:	f883 2024 	strb.w	r2, [r3, #36]	; 0x24
  
  
  /* Regular sequence configuration */
  /* For Rank 1 to 6 */
  if (sConfig->Rank < 7U)
 8001570:	683b      	ldr	r3, [r7, #0]
 8001572:	685b      	ldr	r3, [r3, #4]
 8001574:	2b06      	cmp	r3, #6
 8001576:	d81c      	bhi.n	80015b2 <HAL_ADC_ConfigChannel+0x6a>
  {
    MODIFY_REG(hadc->Instance->SQR3                        ,
 8001578:	687b      	ldr	r3, [r7, #4]
 800157a:	681b      	ldr	r3, [r3, #0]
 800157c:	6b59      	ldr	r1, [r3, #52]	; 0x34
 800157e:	683b      	ldr	r3, [r7, #0]
 8001580:	685a      	ldr	r2, [r3, #4]
 8001582:	4613      	mov	r3, r2
 8001584:	009b      	lsls	r3, r3, #2
 8001586:	4413      	add	r3, r2
 8001588:	3b05      	subs	r3, #5
 800158a:	221f      	movs	r2, #31
 800158c:	fa02 f303 	lsl.w	r3, r2, r3
 8001590:	43db      	mvns	r3, r3
 8001592:	4019      	ands	r1, r3
 8001594:	683b      	ldr	r3, [r7, #0]
 8001596:	6818      	ldr	r0, [r3, #0]
 8001598:	683b      	ldr	r3, [r7, #0]
 800159a:	685a      	ldr	r2, [r3, #4]
 800159c:	4613      	mov	r3, r2
 800159e:	009b      	lsls	r3, r3, #2
 80015a0:	4413      	add	r3, r2
 80015a2:	3b05      	subs	r3, #5
 80015a4:	fa00 f203 	lsl.w	r2, r0, r3
 80015a8:	687b      	ldr	r3, [r7, #4]
 80015aa:	681b      	ldr	r3, [r3, #0]
 80015ac:	430a      	orrs	r2, r1
 80015ae:	635a      	str	r2, [r3, #52]	; 0x34
 80015b0:	e03c      	b.n	800162c <HAL_ADC_ConfigChannel+0xe4>
               ADC_SQR3_RK(ADC_SQR3_SQ1, sConfig->Rank)    ,
               ADC_SQR3_RK(sConfig->Channel, sConfig->Rank) );
  }
  /* For Rank 7 to 12 */
  else if (sConfig->Rank < 13U)
 80015b2:	683b      	ldr	r3, [r7, #0]
 80015b4:	685b      	ldr	r3, [r3, #4]
 80015b6:	2b0c      	cmp	r3, #12
 80015b8:	d81c      	bhi.n	80015f4 <HAL_ADC_ConfigChannel+0xac>
  {
    MODIFY_REG(hadc->Instance->SQR2                        ,
 80015ba:	687b      	ldr	r3, [r7, #4]
 80015bc:	681b      	ldr	r3, [r3, #0]
 80015be:	6b19      	ldr	r1, [r3, #48]	; 0x30
 80015c0:	683b      	ldr	r3, [r7, #0]
 80015c2:	685a      	ldr	r2, [r3, #4]
 80015c4:	4613      	mov	r3, r2
 80015c6:	009b      	lsls	r3, r3, #2
 80015c8:	4413      	add	r3, r2
 80015ca:	3b23      	subs	r3, #35	; 0x23
 80015cc:	221f      	movs	r2, #31
 80015ce:	fa02 f303 	lsl.w	r3, r2, r3
 80015d2:	43db      	mvns	r3, r3
 80015d4:	4019      	ands	r1, r3
 80015d6:	683b      	ldr	r3, [r7, #0]
 80015d8:	6818      	ldr	r0, [r3, #0]
 80015da:	683b      	ldr	r3, [r7, #0]
 80015dc:	685a      	ldr	r2, [r3, #4]
 80015de:	4613      	mov	r3, r2
 80015e0:	009b      	lsls	r3, r3, #2
 80015e2:	4413      	add	r3, r2
 80015e4:	3b23      	subs	r3, #35	; 0x23
 80015e6:	fa00 f203 	lsl.w	r2, r0, r3
 80015ea:	687b      	ldr	r3, [r7, #4]
 80015ec:	681b      	ldr	r3, [r3, #0]
 80015ee:	430a      	orrs	r2, r1
 80015f0:	631a      	str	r2, [r3, #48]	; 0x30
 80015f2:	e01b      	b.n	800162c <HAL_ADC_ConfigChannel+0xe4>
               ADC_SQR2_RK(sConfig->Channel, sConfig->Rank) );
  }
  /* For Rank 13 to 16 */
  else
  {
    MODIFY_REG(hadc->Instance->SQR1                        ,
 80015f4:	687b      	ldr	r3, [r7, #4]
 80015f6:	681b      	ldr	r3, [r3, #0]
 80015f8:	6ad9      	ldr	r1, [r3, #44]	; 0x2c
 80015fa:	683b      	ldr	r3, [r7, #0]
 80015fc:	685a      	ldr	r2, [r3, #4]
 80015fe:	4613      	mov	r3, r2
 8001600:	009b      	lsls	r3, r3, #2
 8001602:	4413      	add	r3, r2
 8001604:	3b41      	subs	r3, #65	; 0x41
 8001606:	221f      	movs	r2, #31
 8001608:	fa02 f303 	lsl.w	r3, r2, r3
 800160c:	43db      	mvns	r3, r3
 800160e:	4019      	ands	r1, r3
 8001610:	683b      	ldr	r3, [r7, #0]
 8001612:	6818      	ldr	r0, [r3, #0]
 8001614:	683b      	ldr	r3, [r7, #0]
 8001616:	685a      	ldr	r2, [r3, #4]
 8001618:	4613      	mov	r3, r2
 800161a:	009b      	lsls	r3, r3, #2
 800161c:	4413      	add	r3, r2
 800161e:	3b41      	subs	r3, #65	; 0x41
 8001620:	fa00 f203 	lsl.w	r2, r0, r3
 8001624:	687b      	ldr	r3, [r7, #4]
 8001626:	681b      	ldr	r3, [r3, #0]
 8001628:	430a      	orrs	r2, r1
 800162a:	62da      	str	r2, [r3, #44]	; 0x2c
  }
  
  
  /* Channel sampling time configuration */
  /* For channels 10 to 17 */
  if (sConfig->Channel >= ADC_CHANNEL_10)
 800162c:	683b      	ldr	r3, [r7, #0]
 800162e:	681b      	ldr	r3, [r3, #0]
 8001630:	2b09      	cmp	r3, #9
 8001632:	d91c      	bls.n	800166e <HAL_ADC_ConfigChannel+0x126>
  {
    MODIFY_REG(hadc->Instance->SMPR1                             ,
 8001634:	687b      	ldr	r3, [r7, #4]
 8001636:	681b      	ldr	r3, [r3, #0]
 8001638:	68d9      	ldr	r1, [r3, #12]
 800163a:	683b      	ldr	r3, [r7, #0]
 800163c:	681a      	ldr	r2, [r3, #0]
 800163e:	4613      	mov	r3, r2
 8001640:	005b      	lsls	r3, r3, #1
 8001642:	4413      	add	r3, r2
 8001644:	3b1e      	subs	r3, #30
 8001646:	2207      	movs	r2, #7
 8001648:	fa02 f303 	lsl.w	r3, r2, r3
 800164c:	43db      	mvns	r3, r3
 800164e:	4019      	ands	r1, r3
 8001650:	683b      	ldr	r3, [r7, #0]
 8001652:	6898      	ldr	r0, [r3, #8]
 8001654:	683b      	ldr	r3, [r7, #0]
 8001656:	681a      	ldr	r2, [r3, #0]
 8001658:	4613      	mov	r3, r2
 800165a:	005b      	lsls	r3, r3, #1
 800165c:	4413      	add	r3, r2
 800165e:	3b1e      	subs	r3, #30
 8001660:	fa00 f203 	lsl.w	r2, r0, r3
 8001664:	687b      	ldr	r3, [r7, #4]
 8001666:	681b      	ldr	r3, [r3, #0]
 8001668:	430a      	orrs	r2, r1
 800166a:	60da      	str	r2, [r3, #12]
 800166c:	e019      	b.n	80016a2 <HAL_ADC_ConfigChannel+0x15a>
               ADC_SMPR1(ADC_SMPR1_SMP10, sConfig->Channel)      ,
               ADC_SMPR1(sConfig->SamplingTime, sConfig->Channel) );
  }
  else /* For channels 0 to 9 */
  {
    MODIFY_REG(hadc->Instance->SMPR2                             ,
 800166e:	687b      	ldr	r3, [r7, #4]
 8001670:	681b      	ldr	r3, [r3, #0]
 8001672:	6919      	ldr	r1, [r3, #16]
 8001674:	683b      	ldr	r3, [r7, #0]
 8001676:	681a      	ldr	r2, [r3, #0]
 8001678:	4613      	mov	r3, r2
 800167a:	005b      	lsls	r3, r3, #1
 800167c:	4413      	add	r3, r2
 800167e:	2207      	movs	r2, #7
 8001680:	fa02 f303 	lsl.w	r3, r2, r3
 8001684:	43db      	mvns	r3, r3
 8001686:	4019      	ands	r1, r3
 8001688:	683b      	ldr	r3, [r7, #0]
 800168a:	6898      	ldr	r0, [r3, #8]
 800168c:	683b      	ldr	r3, [r7, #0]
 800168e:	681a      	ldr	r2, [r3, #0]
 8001690:	4613      	mov	r3, r2
 8001692:	005b      	lsls	r3, r3, #1
 8001694:	4413      	add	r3, r2
 8001696:	fa00 f203 	lsl.w	r2, r0, r3
 800169a:	687b      	ldr	r3, [r7, #4]
 800169c:	681b      	ldr	r3, [r3, #0]
 800169e:	430a      	orrs	r2, r1
 80016a0:	611a      	str	r2, [r3, #16]
               ADC_SMPR2(sConfig->SamplingTime, sConfig->Channel) );
  }
  
  /* If ADC1 Channel_16 or Channel_17 is selected, enable Temperature sensor  */
  /* and VREFINT measurement path.                                            */
  if ((sConfig->Channel == ADC_CHANNEL_TEMPSENSOR) ||
 80016a2:	683b      	ldr	r3, [r7, #0]
 80016a4:	681b      	ldr	r3, [r3, #0]
 80016a6:	2b10      	cmp	r3, #16
 80016a8:	d003      	beq.n	80016b2 <HAL_ADC_ConfigChannel+0x16a>
      (sConfig->Channel == ADC_CHANNEL_VREFINT)      )
 80016aa:	683b      	ldr	r3, [r7, #0]
 80016ac:	681b      	ldr	r3, [r3, #0]
  if ((sConfig->Channel == ADC_CHANNEL_TEMPSENSOR) ||
 80016ae:	2b11      	cmp	r3, #17
 80016b0:	d132      	bne.n	8001718 <HAL_ADC_ConfigChannel+0x1d0>
  {
    /* For STM32F1 devices with several ADC: Only ADC1 can access internal    */
    /* measurement channels (VrefInt/TempSensor). If these channels are       */
    /* intended to be set on other ADC instances, an error is reported.       */
    if (hadc->Instance == ADC1)
 80016b2:	687b      	ldr	r3, [r7, #4]
 80016b4:	681b      	ldr	r3, [r3, #0]
 80016b6:	4a1d      	ldr	r2, [pc, #116]	; (800172c <HAL_ADC_ConfigChannel+0x1e4>)
 80016b8:	4293      	cmp	r3, r2
 80016ba:	d125      	bne.n	8001708 <HAL_ADC_ConfigChannel+0x1c0>
    {
      if (READ_BIT(hadc->Instance->CR2, ADC_CR2_TSVREFE) == RESET)
 80016bc:	687b      	ldr	r3, [r7, #4]
 80016be:	681b      	ldr	r3, [r3, #0]
 80016c0:	689b      	ldr	r3, [r3, #8]
 80016c2:	f403 0300 	and.w	r3, r3, #8388608	; 0x800000
 80016c6:	2b00      	cmp	r3, #0
 80016c8:	d126      	bne.n	8001718 <HAL_ADC_ConfigChannel+0x1d0>
      {
        SET_BIT(hadc->Instance->CR2, ADC_CR2_TSVREFE);
 80016ca:	687b      	ldr	r3, [r7, #4]
 80016cc:	681b      	ldr	r3, [r3, #0]
 80016ce:	689a      	ldr	r2, [r3, #8]
 80016d0:	687b      	ldr	r3, [r7, #4]
 80016d2:	681b      	ldr	r3, [r3, #0]
 80016d4:	f442 0200 	orr.w	r2, r2, #8388608	; 0x800000
 80016d8:	609a      	str	r2, [r3, #8]
        
        if ((sConfig->Channel == ADC_CHANNEL_TEMPSENSOR))
 80016da:	683b      	ldr	r3, [r7, #0]
 80016dc:	681b      	ldr	r3, [r3, #0]
 80016de:	2b10      	cmp	r3, #16
 80016e0:	d11a      	bne.n	8001718 <HAL_ADC_ConfigChannel+0x1d0>
        {
          /* Delay for temperature sensor stabilization time */
          /* Compute number of CPU cycles to wait for */
          wait_loop_index = (ADC_TEMPSENSOR_DELAY_US * (SystemCoreClock / 1000000U));
 80016e2:	4b13      	ldr	r3, [pc, #76]	; (8001730 <HAL_ADC_ConfigChannel+0x1e8>)
 80016e4:	681b      	ldr	r3, [r3, #0]
 80016e6:	4a13      	ldr	r2, [pc, #76]	; (8001734 <HAL_ADC_ConfigChannel+0x1ec>)
 80016e8:	fba2 2303 	umull	r2, r3, r2, r3
 80016ec:	0c9a      	lsrs	r2, r3, #18
 80016ee:	4613      	mov	r3, r2
 80016f0:	009b      	lsls	r3, r3, #2
 80016f2:	4413      	add	r3, r2
 80016f4:	005b      	lsls	r3, r3, #1
 80016f6:	60bb      	str	r3, [r7, #8]
          while(wait_loop_index != 0U)
 80016f8:	e002      	b.n	8001700 <HAL_ADC_ConfigChannel+0x1b8>
          {
            wait_loop_index--;
 80016fa:	68bb      	ldr	r3, [r7, #8]
 80016fc:	3b01      	subs	r3, #1
 80016fe:	60bb      	str	r3, [r7, #8]
          while(wait_loop_index != 0U)
 8001700:	68bb      	ldr	r3, [r7, #8]
 8001702:	2b00      	cmp	r3, #0
 8001704:	d1f9      	bne.n	80016fa <HAL_ADC_ConfigChannel+0x1b2>
 8001706:	e007      	b.n	8001718 <HAL_ADC_ConfigChannel+0x1d0>
      }
    }
    else
    {
      /* Update ADC state machine to error */
      SET_BIT(hadc->State, HAL_ADC_STATE_ERROR_CONFIG);
 8001708:	687b      	ldr	r3, [r7, #4]
 800170a:	6a9b      	ldr	r3, [r3, #40]	; 0x28
 800170c:	f043 0220 	orr.w	r2, r3, #32
 8001710:	687b      	ldr	r3, [r7, #4]
 8001712:	629a      	str	r2, [r3, #40]	; 0x28
      
      tmp_hal_status = HAL_ERROR;
 8001714:	2301      	movs	r3, #1
 8001716:	73fb      	strb	r3, [r7, #15]
    }
  }
  
  /* Process unlocked */
  __HAL_UNLOCK(hadc);
 8001718:	687b      	ldr	r3, [r7, #4]
 800171a:	2200      	movs	r2, #0
 800171c:	f883 2024 	strb.w	r2, [r3, #36]	; 0x24
  
  /* Return function status */
  return tmp_hal_status;
 8001720:	7bfb      	ldrb	r3, [r7, #15]
}
 8001722:	4618      	mov	r0, r3
 8001724:	3714      	adds	r7, #20
 8001726:	46bd      	mov	sp, r7
 8001728:	bc80      	pop	{r7}
 800172a:	4770      	bx	lr
 800172c:	40012400 	.word	0x40012400
 8001730:	20000004 	.word	0x20000004
 8001734:	431bde83 	.word	0x431bde83

08001738 <ADC_Enable>:
  *         and voltage regulator must be enabled (done into HAL_ADC_Init()).
  * @param  hadc: ADC handle
  * @retval HAL status.
  */
HAL_StatusTypeDef ADC_Enable(ADC_HandleTypeDef* hadc)
{
 8001738:	b580      	push	{r7, lr}
 800173a:	b084      	sub	sp, #16
 800173c:	af00      	add	r7, sp, #0
 800173e:	6078      	str	r0, [r7, #4]
  uint32_t tickstart = 0U;
 8001740:	2300      	movs	r3, #0
 8001742:	60fb      	str	r3, [r7, #12]
  __IO uint32_t wait_loop_index = 0U;
 8001744:	2300      	movs	r3, #0
 8001746:	60bb      	str	r3, [r7, #8]
  
  /* ADC enable and wait for ADC ready (in case of ADC is disabled or         */
  /* enabling phase not yet completed: flag ADC ready not yet set).           */
  /* Timeout implemented to not be stuck if ADC cannot be enabled (possible   */
  /* causes: ADC clock not running, ...).                                     */
  if (ADC_IS_ENABLE(hadc) == RESET)
 8001748:	687b      	ldr	r3, [r7, #4]
 800174a:	681b      	ldr	r3, [r3, #0]
 800174c:	689b      	ldr	r3, [r3, #8]
 800174e:	f003 0301 	and.w	r3, r3, #1
 8001752:	2b01      	cmp	r3, #1
 8001754:	d039      	beq.n	80017ca <ADC_Enable+0x92>
  {
    /* Enable the Peripheral */
    __HAL_ADC_ENABLE(hadc);
 8001756:	687b      	ldr	r3, [r7, #4]
 8001758:	681b      	ldr	r3, [r3, #0]
 800175a:	689a      	ldr	r2, [r3, #8]
 800175c:	687b      	ldr	r3, [r7, #4]
 800175e:	681b      	ldr	r3, [r3, #0]
 8001760:	f042 0201 	orr.w	r2, r2, #1
 8001764:	609a      	str	r2, [r3, #8]
    
    /* Delay for ADC stabilization time */
    /* Compute number of CPU cycles to wait for */
    wait_loop_index = (ADC_STAB_DELAY_US * (SystemCoreClock / 1000000U));
 8001766:	4b1b      	ldr	r3, [pc, #108]	; (80017d4 <ADC_Enable+0x9c>)
 8001768:	681b      	ldr	r3, [r3, #0]
 800176a:	4a1b      	ldr	r2, [pc, #108]	; (80017d8 <ADC_Enable+0xa0>)
 800176c:	fba2 2303 	umull	r2, r3, r2, r3
 8001770:	0c9b      	lsrs	r3, r3, #18
 8001772:	60bb      	str	r3, [r7, #8]
    while(wait_loop_index != 0U)
 8001774:	e002      	b.n	800177c <ADC_Enable+0x44>
    {
      wait_loop_index--;
 8001776:	68bb      	ldr	r3, [r7, #8]
 8001778:	3b01      	subs	r3, #1
 800177a:	60bb      	str	r3, [r7, #8]
    while(wait_loop_index != 0U)
 800177c:	68bb      	ldr	r3, [r7, #8]
 800177e:	2b00      	cmp	r3, #0
 8001780:	d1f9      	bne.n	8001776 <ADC_Enable+0x3e>
    }
    
    /* Get tick count */
    tickstart = HAL_GetTick();
 8001782:	f7ff fce3 	bl	800114c <HAL_GetTick>
 8001786:	60f8      	str	r0, [r7, #12]

    /* Wait for ADC effectively enabled */
    while(ADC_IS_ENABLE(hadc) == RESET)
 8001788:	e018      	b.n	80017bc <ADC_Enable+0x84>
    {
      if((HAL_GetTick() - tickstart) > ADC_ENABLE_TIMEOUT)
 800178a:	f7ff fcdf 	bl	800114c <HAL_GetTick>
 800178e:	4602      	mov	r2, r0
 8001790:	68fb      	ldr	r3, [r7, #12]
 8001792:	1ad3      	subs	r3, r2, r3
 8001794:	2b02      	cmp	r3, #2
 8001796:	d911      	bls.n	80017bc <ADC_Enable+0x84>
      {
        /* Update ADC state machine to error */
        SET_BIT(hadc->State, HAL_ADC_STATE_ERROR_INTERNAL);
 8001798:	687b      	ldr	r3, [r7, #4]
 800179a:	6a9b      	ldr	r3, [r3, #40]	; 0x28
 800179c:	f043 0210 	orr.w	r2, r3, #16
 80017a0:	687b      	ldr	r3, [r7, #4]
 80017a2:	629a      	str	r2, [r3, #40]	; 0x28
      
        /* Set ADC error code to ADC IP internal error */
        SET_BIT(hadc->ErrorCode, HAL_ADC_ERROR_INTERNAL);
 80017a4:	687b      	ldr	r3, [r7, #4]
 80017a6:	6adb      	ldr	r3, [r3, #44]	; 0x2c
 80017a8:	f043 0201 	orr.w	r2, r3, #1
 80017ac:	687b      	ldr	r3, [r7, #4]
 80017ae:	62da      	str	r2, [r3, #44]	; 0x2c
        
        /* Process unlocked */
        __HAL_UNLOCK(hadc);
 80017b0:	687b      	ldr	r3, [r7, #4]
 80017b2:	2200      	movs	r2, #0
 80017b4:	f883 2024 	strb.w	r2, [r3, #36]	; 0x24
      
        return HAL_ERROR;
 80017b8:	2301      	movs	r3, #1
 80017ba:	e007      	b.n	80017cc <ADC_Enable+0x94>
    while(ADC_IS_ENABLE(hadc) == RESET)
 80017bc:	687b      	ldr	r3, [r7, #4]
 80017be:	681b      	ldr	r3, [r3, #0]
 80017c0:	689b      	ldr	r3, [r3, #8]
 80017c2:	f003 0301 	and.w	r3, r3, #1
 80017c6:	2b01      	cmp	r3, #1
 80017c8:	d1df      	bne.n	800178a <ADC_Enable+0x52>
      }
    }
  }
   
  /* Return HAL status */
  return HAL_OK;
 80017ca:	2300      	movs	r3, #0
}
 80017cc:	4618      	mov	r0, r3
 80017ce:	3710      	adds	r7, #16
 80017d0:	46bd      	mov	sp, r7
 80017d2:	bd80      	pop	{r7, pc}
 80017d4:	20000004 	.word	0x20000004
 80017d8:	431bde83 	.word	0x431bde83

080017dc <ADC_ConversionStop_Disable>:
  *         stopped to disable the ADC.
  * @param  hadc: ADC handle
  * @retval HAL status.
  */
HAL_StatusTypeDef ADC_ConversionStop_Disable(ADC_HandleTypeDef* hadc)
{
 80017dc:	b580      	push	{r7, lr}
 80017de:	b084      	sub	sp, #16
 80017e0:	af00      	add	r7, sp, #0
 80017e2:	6078      	str	r0, [r7, #4]
  uint32_t tickstart = 0U;
 80017e4:	2300      	movs	r3, #0
 80017e6:	60fb      	str	r3, [r7, #12]
  
  /* Verification if ADC is not already disabled */
  if (ADC_IS_ENABLE(hadc) != RESET)
 80017e8:	687b      	ldr	r3, [r7, #4]
 80017ea:	681b      	ldr	r3, [r3, #0]
 80017ec:	689b      	ldr	r3, [r3, #8]
 80017ee:	f003 0301 	and.w	r3, r3, #1
 80017f2:	2b01      	cmp	r3, #1
 80017f4:	d127      	bne.n	8001846 <ADC_ConversionStop_Disable+0x6a>
  {
    /* Disable the ADC peripheral */
    __HAL_ADC_DISABLE(hadc);
 80017f6:	687b      	ldr	r3, [r7, #4]
 80017f8:	681b      	ldr	r3, [r3, #0]
 80017fa:	689a      	ldr	r2, [r3, #8]
 80017fc:	687b      	ldr	r3, [r7, #4]
 80017fe:	681b      	ldr	r3, [r3, #0]
 8001800:	f022 0201 	bic.w	r2, r2, #1
 8001804:	609a      	str	r2, [r3, #8]
     
    /* Get tick count */
    tickstart = HAL_GetTick();
 8001806:	f7ff fca1 	bl	800114c <HAL_GetTick>
 800180a:	60f8      	str	r0, [r7, #12]
    
    /* Wait for ADC effectively disabled */
    while(ADC_IS_ENABLE(hadc) != RESET)
 800180c:	e014      	b.n	8001838 <ADC_ConversionStop_Disable+0x5c>
    {
      if((HAL_GetTick() - tickstart) > ADC_DISABLE_TIMEOUT)
 800180e:	f7ff fc9d 	bl	800114c <HAL_GetTick>
 8001812:	4602      	mov	r2, r0
 8001814:	68fb      	ldr	r3, [r7, #12]
 8001816:	1ad3      	subs	r3, r2, r3
 8001818:	2b02      	cmp	r3, #2
 800181a:	d90d      	bls.n	8001838 <ADC_ConversionStop_Disable+0x5c>
      {
        /* Update ADC state machine to error */
        SET_BIT(hadc->State, HAL_ADC_STATE_ERROR_INTERNAL);
 800181c:	687b      	ldr	r3, [r7, #4]
 800181e:	6a9b      	ldr	r3, [r3, #40]	; 0x28
 8001820:	f043 0210 	orr.w	r2, r3, #16
 8001824:	687b      	ldr	r3, [r7, #4]
 8001826:	629a      	str	r2, [r3, #40]	; 0x28
        
        /* Set ADC error code to ADC IP internal error */
        SET_BIT(hadc->ErrorCode, HAL_ADC_ERROR_INTERNAL);
 8001828:	687b      	ldr	r3, [r7, #4]
 800182a:	6adb      	ldr	r3, [r3, #44]	; 0x2c
 800182c:	f043 0201 	orr.w	r2, r3, #1
 8001830:	687b      	ldr	r3, [r7, #4]
 8001832:	62da      	str	r2, [r3, #44]	; 0x2c
        
        return HAL_ERROR;
 8001834:	2301      	movs	r3, #1
 8001836:	e007      	b.n	8001848 <ADC_ConversionStop_Disable+0x6c>
    while(ADC_IS_ENABLE(hadc) != RESET)
 8001838:	687b      	ldr	r3, [r7, #4]
 800183a:	681b      	ldr	r3, [r3, #0]
 800183c:	689b      	ldr	r3, [r3, #8]
 800183e:	f003 0301 	and.w	r3, r3, #1
 8001842:	2b01      	cmp	r3, #1
 8001844:	d0e3      	beq.n	800180e <ADC_ConversionStop_Disable+0x32>
      }
    }
  }
  
  /* Return HAL status */
  return HAL_OK;
 8001846:	2300      	movs	r3, #0
}
 8001848:	4618      	mov	r0, r3
 800184a:	3710      	adds	r7, #16
 800184c:	46bd      	mov	sp, r7
 800184e:	bd80      	pop	{r7, pc}

08001850 <ADC_DMAConvCplt>:
  * @brief  DMA transfer complete callback. 
  * @param  hdma: pointer to DMA handle.
  * @retval None
  */
void ADC_DMAConvCplt(DMA_HandleTypeDef *hdma)
{
 8001850:	b580      	push	{r7, lr}
 8001852:	b084      	sub	sp, #16
 8001854:	af00      	add	r7, sp, #0
 8001856:	6078      	str	r0, [r7, #4]
  /* Retrieve ADC handle corresponding to current DMA handle */
  ADC_HandleTypeDef* hadc = ( ADC_HandleTypeDef* )((DMA_HandleTypeDef* )hdma)->Parent;
 8001858:	687b      	ldr	r3, [r7, #4]
 800185a:	6a5b      	ldr	r3, [r3, #36]	; 0x24
 800185c:	60fb      	str	r3, [r7, #12]
 
  /* Update state machine on conversion status if not in error state */
  if (HAL_IS_BIT_CLR(hadc->State, HAL_ADC_STATE_ERROR_INTERNAL | HAL_ADC_STATE_ERROR_DMA))
 800185e:	68fb      	ldr	r3, [r7, #12]
 8001860:	6a9b      	ldr	r3, [r3, #40]	; 0x28
 8001862:	f003 0350 	and.w	r3, r3, #80	; 0x50
 8001866:	2b00      	cmp	r3, #0
 8001868:	d127      	bne.n	80018ba <ADC_DMAConvCplt+0x6a>
  {
    /* Update ADC state machine */
    SET_BIT(hadc->State, HAL_ADC_STATE_REG_EOC);
 800186a:	68fb      	ldr	r3, [r7, #12]
 800186c:	6a9b      	ldr	r3, [r3, #40]	; 0x28
 800186e:	f443 7200 	orr.w	r2, r3, #512	; 0x200
 8001872:	68fb      	ldr	r3, [r7, #12]
 8001874:	629a      	str	r2, [r3, #40]	; 0x28
    /* Determine whether any further conversion upcoming on group regular     */
    /* by external trigger, continuous mode or scan sequence on going.        */
    /* Note: On STM32F1 devices, in case of sequencer enabled                 */
    /*       (several ranks selected), end of conversion flag is raised       */
    /*       at the end of the sequence.                                      */
    if(ADC_IS_SOFTWARE_START_REGULAR(hadc)        && 
 8001876:	68fb      	ldr	r3, [r7, #12]
 8001878:	681b      	ldr	r3, [r3, #0]
 800187a:	689b      	ldr	r3, [r3, #8]
 800187c:	f403 2360 	and.w	r3, r3, #917504	; 0xe0000
 8001880:	f5b3 2f60 	cmp.w	r3, #917504	; 0xe0000
 8001884:	d115      	bne.n	80018b2 <ADC_DMAConvCplt+0x62>
       (hadc->Init.ContinuousConvMode == DISABLE)   )
 8001886:	68fb      	ldr	r3, [r7, #12]
 8001888:	7b1b      	ldrb	r3, [r3, #12]
    if(ADC_IS_SOFTWARE_START_REGULAR(hadc)        && 
 800188a:	2b00      	cmp	r3, #0
 800188c:	d111      	bne.n	80018b2 <ADC_DMAConvCplt+0x62>
    {
      /* Set ADC state */
      CLEAR_BIT(hadc->State, HAL_ADC_STATE_REG_BUSY);   
 800188e:	68fb      	ldr	r3, [r7, #12]
 8001890:	6a9b      	ldr	r3, [r3, #40]	; 0x28
 8001892:	f423 7280 	bic.w	r2, r3, #256	; 0x100
 8001896:	68fb      	ldr	r3, [r7, #12]
 8001898:	629a      	str	r2, [r3, #40]	; 0x28
      
      if (HAL_IS_BIT_CLR(hadc->State, HAL_ADC_STATE_INJ_BUSY))
 800189a:	68fb      	ldr	r3, [r7, #12]
 800189c:	6a9b      	ldr	r3, [r3, #40]	; 0x28
 800189e:	f403 5380 	and.w	r3, r3, #4096	; 0x1000
 80018a2:	2b00      	cmp	r3, #0
 80018a4:	d105      	bne.n	80018b2 <ADC_DMAConvCplt+0x62>
      {
        SET_BIT(hadc->State, HAL_ADC_STATE_READY);
 80018a6:	68fb      	ldr	r3, [r7, #12]
 80018a8:	6a9b      	ldr	r3, [r3, #40]	; 0x28
 80018aa:	f043 0201 	orr.w	r2, r3, #1
 80018ae:	68fb      	ldr	r3, [r7, #12]
 80018b0:	629a      	str	r2, [r3, #40]	; 0x28
    
    /* Conversion complete callback */
#if (USE_HAL_ADC_REGISTER_CALLBACKS == 1)
    hadc->ConvCpltCallback(hadc);
#else
    HAL_ADC_ConvCpltCallback(hadc);
 80018b2:	68f8      	ldr	r0, [r7, #12]
 80018b4:	f7ff fe2c 	bl	8001510 <HAL_ADC_ConvCpltCallback>
  else
  {
    /* Call DMA error callback */
    hadc->DMA_Handle->XferErrorCallback(hdma);
  }
}
 80018b8:	e004      	b.n	80018c4 <ADC_DMAConvCplt+0x74>
    hadc->DMA_Handle->XferErrorCallback(hdma);
 80018ba:	68fb      	ldr	r3, [r7, #12]
 80018bc:	6a1b      	ldr	r3, [r3, #32]
 80018be:	6b1b      	ldr	r3, [r3, #48]	; 0x30
 80018c0:	6878      	ldr	r0, [r7, #4]
 80018c2:	4798      	blx	r3
}
 80018c4:	bf00      	nop
 80018c6:	3710      	adds	r7, #16
 80018c8:	46bd      	mov	sp, r7
 80018ca:	bd80      	pop	{r7, pc}

080018cc <ADC_DMAHalfConvCplt>:
  * @brief  DMA half transfer complete callback. 
  * @param  hdma: pointer to DMA handle.
  * @retval None
  */
void ADC_DMAHalfConvCplt(DMA_HandleTypeDef *hdma)   
{
 80018cc:	b580      	push	{r7, lr}
 80018ce:	b084      	sub	sp, #16
 80018d0:	af00      	add	r7, sp, #0
 80018d2:	6078      	str	r0, [r7, #4]
  /* Retrieve ADC handle corresponding to current DMA handle */
  ADC_HandleTypeDef* hadc = ( ADC_HandleTypeDef* )((DMA_HandleTypeDef* )hdma)->Parent;
 80018d4:	687b      	ldr	r3, [r7, #4]
 80018d6:	6a5b      	ldr	r3, [r3, #36]	; 0x24
 80018d8:	60fb      	str	r3, [r7, #12]
  
  /* Half conversion callback */
#if (USE_HAL_ADC_REGISTER_CALLBACKS == 1)
    hadc->ConvHalfCpltCallback(hadc);
#else
  HAL_ADC_ConvHalfCpltCallback(hadc);
 80018da:	68f8      	ldr	r0, [r7, #12]
 80018dc:	f7ff fe21 	bl	8001522 <HAL_ADC_ConvHalfCpltCallback>
#endif /* USE_HAL_ADC_REGISTER_CALLBACKS */
}
 80018e0:	bf00      	nop
 80018e2:	3710      	adds	r7, #16
 80018e4:	46bd      	mov	sp, r7
 80018e6:	bd80      	pop	{r7, pc}

080018e8 <ADC_DMAError>:
  * @brief  DMA error callback 
  * @param  hdma: pointer to DMA handle.
  * @retval None
  */
void ADC_DMAError(DMA_HandleTypeDef *hdma)   
{
 80018e8:	b580      	push	{r7, lr}
 80018ea:	b084      	sub	sp, #16
 80018ec:	af00      	add	r7, sp, #0
 80018ee:	6078      	str	r0, [r7, #4]
  /* Retrieve ADC handle corresponding to current DMA handle */
  ADC_HandleTypeDef* hadc = ( ADC_HandleTypeDef* )((DMA_HandleTypeDef* )hdma)->Parent;
 80018f0:	687b      	ldr	r3, [r7, #4]
 80018f2:	6a5b      	ldr	r3, [r3, #36]	; 0x24
 80018f4:	60fb      	str	r3, [r7, #12]
  
  /* Set ADC state */
  SET_BIT(hadc->State, HAL_ADC_STATE_ERROR_DMA);
 80018f6:	68fb      	ldr	r3, [r7, #12]
 80018f8:	6a9b      	ldr	r3, [r3, #40]	; 0x28
 80018fa:	f043 0240 	orr.w	r2, r3, #64	; 0x40
 80018fe:	68fb      	ldr	r3, [r7, #12]
 8001900:	629a      	str	r2, [r3, #40]	; 0x28
  
  /* Set ADC error code to DMA error */
  SET_BIT(hadc->ErrorCode, HAL_ADC_ERROR_DMA);
 8001902:	68fb      	ldr	r3, [r7, #12]
 8001904:	6adb      	ldr	r3, [r3, #44]	; 0x2c
 8001906:	f043 0204 	orr.w	r2, r3, #4
 800190a:	68fb      	ldr	r3, [r7, #12]
 800190c:	62da      	str	r2, [r3, #44]	; 0x2c
  
  /* Error callback */
#if (USE_HAL_ADC_REGISTER_CALLBACKS == 1)
  hadc->ErrorCallback(hadc);
#else
  HAL_ADC_ErrorCallback(hadc);
 800190e:	68f8      	ldr	r0, [r7, #12]
 8001910:	f7ff fe10 	bl	8001534 <HAL_ADC_ErrorCallback>
#endif /* USE_HAL_ADC_REGISTER_CALLBACKS */
}
 8001914:	bf00      	nop
 8001916:	3710      	adds	r7, #16
 8001918:	46bd      	mov	sp, r7
 800191a:	bd80      	pop	{r7, pc}

0800191c <HAL_CAN_Init>:
  * @param  hcan pointer to a CAN_HandleTypeDef structure that contains
  *         the configuration information for the specified CAN.
  * @retval HAL status
  */
HAL_StatusTypeDef HAL_CAN_Init(CAN_HandleTypeDef *hcan)
{
 800191c:	b580      	push	{r7, lr}
 800191e:	b084      	sub	sp, #16
 8001920:	af00      	add	r7, sp, #0
 8001922:	6078      	str	r0, [r7, #4]
  uint32_t tickstart;

  /* Check CAN handle */
  if (hcan == NULL)
 8001924:	687b      	ldr	r3, [r7, #4]
 8001926:	2b00      	cmp	r3, #0
 8001928:	d101      	bne.n	800192e <HAL_CAN_Init+0x12>
  {
    return HAL_ERROR;
 800192a:	2301      	movs	r3, #1
 800192c:	e0ed      	b.n	8001b0a <HAL_CAN_Init+0x1ee>
    /* Init the low level hardware: CLOCK, NVIC */
    hcan->MspInitCallback(hcan);
  }

#else
  if (hcan->State == HAL_CAN_STATE_RESET)
 800192e:	687b      	ldr	r3, [r7, #4]
 8001930:	f893 3020 	ldrb.w	r3, [r3, #32]
 8001934:	b2db      	uxtb	r3, r3
 8001936:	2b00      	cmp	r3, #0
 8001938:	d102      	bne.n	8001940 <HAL_CAN_Init+0x24>
  {
    /* Init the low level hardware: CLOCK, NVIC */
    HAL_CAN_MspInit(hcan);
 800193a:	6878      	ldr	r0, [r7, #4]
 800193c:	f7ff f950 	bl	8000be0 <HAL_CAN_MspInit>
  }
#endif /* (USE_HAL_CAN_REGISTER_CALLBACKS) */

  /* Exit from sleep mode */
  CLEAR_BIT(hcan->Instance->MCR, CAN_MCR_SLEEP);
 8001940:	687b      	ldr	r3, [r7, #4]
 8001942:	681b      	ldr	r3, [r3, #0]
 8001944:	681a      	ldr	r2, [r3, #0]
 8001946:	687b      	ldr	r3, [r7, #4]
 8001948:	681b      	ldr	r3, [r3, #0]
 800194a:	f022 0202 	bic.w	r2, r2, #2
 800194e:	601a      	str	r2, [r3, #0]

  /* Get tick */
  tickstart = HAL_GetTick();
 8001950:	f7ff fbfc 	bl	800114c <HAL_GetTick>
 8001954:	60f8      	str	r0, [r7, #12]

  /* Check Sleep mode leave acknowledge */
  while ((hcan->Instance->MSR & CAN_MSR_SLAK) != 0U)
 8001956:	e012      	b.n	800197e <HAL_CAN_Init+0x62>
  {
    if ((HAL_GetTick() - tickstart) > CAN_TIMEOUT_VALUE)
 8001958:	f7ff fbf8 	bl	800114c <HAL_GetTick>
 800195c:	4602      	mov	r2, r0
 800195e:	68fb      	ldr	r3, [r7, #12]
 8001960:	1ad3      	subs	r3, r2, r3
 8001962:	2b0a      	cmp	r3, #10
 8001964:	d90b      	bls.n	800197e <HAL_CAN_Init+0x62>
    {
      /* Update error code */
      hcan->ErrorCode |= HAL_CAN_ERROR_TIMEOUT;
 8001966:	687b      	ldr	r3, [r7, #4]
 8001968:	6a5b      	ldr	r3, [r3, #36]	; 0x24
 800196a:	f443 3200 	orr.w	r2, r3, #131072	; 0x20000
 800196e:	687b      	ldr	r3, [r7, #4]
 8001970:	625a      	str	r2, [r3, #36]	; 0x24

      /* Change CAN state */
      hcan->State = HAL_CAN_STATE_ERROR;
 8001972:	687b      	ldr	r3, [r7, #4]
 8001974:	2205      	movs	r2, #5
 8001976:	f883 2020 	strb.w	r2, [r3, #32]

      return HAL_ERROR;
 800197a:	2301      	movs	r3, #1
 800197c:	e0c5      	b.n	8001b0a <HAL_CAN_Init+0x1ee>
  while ((hcan->Instance->MSR & CAN_MSR_SLAK) != 0U)
 800197e:	687b      	ldr	r3, [r7, #4]
 8001980:	681b      	ldr	r3, [r3, #0]
 8001982:	685b      	ldr	r3, [r3, #4]
 8001984:	f003 0302 	and.w	r3, r3, #2
 8001988:	2b00      	cmp	r3, #0
 800198a:	d1e5      	bne.n	8001958 <HAL_CAN_Init+0x3c>
    }
  }

  /* Request initialisation */
  SET_BIT(hcan->Instance->MCR, CAN_MCR_INRQ);
 800198c:	687b      	ldr	r3, [r7, #4]
 800198e:	681b      	ldr	r3, [r3, #0]
 8001990:	681a      	ldr	r2, [r3, #0]
 8001992:	687b      	ldr	r3, [r7, #4]
 8001994:	681b      	ldr	r3, [r3, #0]
 8001996:	f042 0201 	orr.w	r2, r2, #1
 800199a:	601a      	str	r2, [r3, #0]

  /* Get tick */
  tickstart = HAL_GetTick();
 800199c:	f7ff fbd6 	bl	800114c <HAL_GetTick>
 80019a0:	60f8      	str	r0, [r7, #12]

  /* Wait initialisation acknowledge */
  while ((hcan->Instance->MSR & CAN_MSR_INAK) == 0U)
 80019a2:	e012      	b.n	80019ca <HAL_CAN_Init+0xae>
  {
    if ((HAL_GetTick() - tickstart) > CAN_TIMEOUT_VALUE)
 80019a4:	f7ff fbd2 	bl	800114c <HAL_GetTick>
 80019a8:	4602      	mov	r2, r0
 80019aa:	68fb      	ldr	r3, [r7, #12]
 80019ac:	1ad3      	subs	r3, r2, r3
 80019ae:	2b0a      	cmp	r3, #10
 80019b0:	d90b      	bls.n	80019ca <HAL_CAN_Init+0xae>
    {
      /* Update error code */
      hcan->ErrorCode |= HAL_CAN_ERROR_TIMEOUT;
 80019b2:	687b      	ldr	r3, [r7, #4]
 80019b4:	6a5b      	ldr	r3, [r3, #36]	; 0x24
 80019b6:	f443 3200 	orr.w	r2, r3, #131072	; 0x20000
 80019ba:	687b      	ldr	r3, [r7, #4]
 80019bc:	625a      	str	r2, [r3, #36]	; 0x24

      /* Change CAN state */
      hcan->State = HAL_CAN_STATE_ERROR;
 80019be:	687b      	ldr	r3, [r7, #4]
 80019c0:	2205      	movs	r2, #5
 80019c2:	f883 2020 	strb.w	r2, [r3, #32]

      return HAL_ERROR;
 80019c6:	2301      	movs	r3, #1
 80019c8:	e09f      	b.n	8001b0a <HAL_CAN_Init+0x1ee>
  while ((hcan->Instance->MSR & CAN_MSR_INAK) == 0U)
 80019ca:	687b      	ldr	r3, [r7, #4]
 80019cc:	681b      	ldr	r3, [r3, #0]
 80019ce:	685b      	ldr	r3, [r3, #4]
 80019d0:	f003 0301 	and.w	r3, r3, #1
 80019d4:	2b00      	cmp	r3, #0
 80019d6:	d0e5      	beq.n	80019a4 <HAL_CAN_Init+0x88>
    }
  }

  /* Set the time triggered communication mode */
  if (hcan->Init.TimeTriggeredMode == ENABLE)
 80019d8:	687b      	ldr	r3, [r7, #4]
 80019da:	7e1b      	ldrb	r3, [r3, #24]
 80019dc:	2b01      	cmp	r3, #1
 80019de:	d108      	bne.n	80019f2 <HAL_CAN_Init+0xd6>
  {
    SET_BIT(hcan->Instance->MCR, CAN_MCR_TTCM);
 80019e0:	687b      	ldr	r3, [r7, #4]
 80019e2:	681b      	ldr	r3, [r3, #0]
 80019e4:	681a      	ldr	r2, [r3, #0]
 80019e6:	687b      	ldr	r3, [r7, #4]
 80019e8:	681b      	ldr	r3, [r3, #0]
 80019ea:	f042 0280 	orr.w	r2, r2, #128	; 0x80
 80019ee:	601a      	str	r2, [r3, #0]
 80019f0:	e007      	b.n	8001a02 <HAL_CAN_Init+0xe6>
  }
  else
  {
    CLEAR_BIT(hcan->Instance->MCR, CAN_MCR_TTCM);
 80019f2:	687b      	ldr	r3, [r7, #4]
 80019f4:	681b      	ldr	r3, [r3, #0]
 80019f6:	681a      	ldr	r2, [r3, #0]
 80019f8:	687b      	ldr	r3, [r7, #4]
 80019fa:	681b      	ldr	r3, [r3, #0]
 80019fc:	f022 0280 	bic.w	r2, r2, #128	; 0x80
 8001a00:	601a      	str	r2, [r3, #0]
  }

  /* Set the automatic bus-off management */
  if (hcan->Init.AutoBusOff == ENABLE)
 8001a02:	687b      	ldr	r3, [r7, #4]
 8001a04:	7e5b      	ldrb	r3, [r3, #25]
 8001a06:	2b01      	cmp	r3, #1
 8001a08:	d108      	bne.n	8001a1c <HAL_CAN_Init+0x100>
  {
    SET_BIT(hcan->Instance->MCR, CAN_MCR_ABOM);
 8001a0a:	687b      	ldr	r3, [r7, #4]
 8001a0c:	681b      	ldr	r3, [r3, #0]
 8001a0e:	681a      	ldr	r2, [r3, #0]
 8001a10:	687b      	ldr	r3, [r7, #4]
 8001a12:	681b      	ldr	r3, [r3, #0]
 8001a14:	f042 0240 	orr.w	r2, r2, #64	; 0x40
 8001a18:	601a      	str	r2, [r3, #0]
 8001a1a:	e007      	b.n	8001a2c <HAL_CAN_Init+0x110>
  }
  else
  {
    CLEAR_BIT(hcan->Instance->MCR, CAN_MCR_ABOM);
 8001a1c:	687b      	ldr	r3, [r7, #4]
 8001a1e:	681b      	ldr	r3, [r3, #0]
 8001a20:	681a      	ldr	r2, [r3, #0]
 8001a22:	687b      	ldr	r3, [r7, #4]
 8001a24:	681b      	ldr	r3, [r3, #0]
 8001a26:	f022 0240 	bic.w	r2, r2, #64	; 0x40
 8001a2a:	601a      	str	r2, [r3, #0]
  }

  /* Set the automatic wake-up mode */
  if (hcan->Init.AutoWakeUp == ENABLE)
 8001a2c:	687b      	ldr	r3, [r7, #4]
 8001a2e:	7e9b      	ldrb	r3, [r3, #26]
 8001a30:	2b01      	cmp	r3, #1
 8001a32:	d108      	bne.n	8001a46 <HAL_CAN_Init+0x12a>
  {
    SET_BIT(hcan->Instance->MCR, CAN_MCR_AWUM);
 8001a34:	687b      	ldr	r3, [r7, #4]
 8001a36:	681b      	ldr	r3, [r3, #0]
 8001a38:	681a      	ldr	r2, [r3, #0]
 8001a3a:	687b      	ldr	r3, [r7, #4]
 8001a3c:	681b      	ldr	r3, [r3, #0]
 8001a3e:	f042 0220 	orr.w	r2, r2, #32
 8001a42:	601a      	str	r2, [r3, #0]
 8001a44:	e007      	b.n	8001a56 <HAL_CAN_Init+0x13a>
  }
  else
  {
    CLEAR_BIT(hcan->Instance->MCR, CAN_MCR_AWUM);
 8001a46:	687b      	ldr	r3, [r7, #4]
 8001a48:	681b      	ldr	r3, [r3, #0]
 8001a4a:	681a      	ldr	r2, [r3, #0]
 8001a4c:	687b      	ldr	r3, [r7, #4]
 8001a4e:	681b      	ldr	r3, [r3, #0]
 8001a50:	f022 0220 	bic.w	r2, r2, #32
 8001a54:	601a      	str	r2, [r3, #0]
  }

  /* Set the automatic retransmission */
  if (hcan->Init.AutoRetransmission == ENABLE)
 8001a56:	687b      	ldr	r3, [r7, #4]
 8001a58:	7edb      	ldrb	r3, [r3, #27]
 8001a5a:	2b01      	cmp	r3, #1
 8001a5c:	d108      	bne.n	8001a70 <HAL_CAN_Init+0x154>
  {
    CLEAR_BIT(hcan->Instance->MCR, CAN_MCR_NART);
 8001a5e:	687b      	ldr	r3, [r7, #4]
 8001a60:	681b      	ldr	r3, [r3, #0]
 8001a62:	681a      	ldr	r2, [r3, #0]
 8001a64:	687b      	ldr	r3, [r7, #4]
 8001a66:	681b      	ldr	r3, [r3, #0]
 8001a68:	f022 0210 	bic.w	r2, r2, #16
 8001a6c:	601a      	str	r2, [r3, #0]
 8001a6e:	e007      	b.n	8001a80 <HAL_CAN_Init+0x164>
  }
  else
  {
    SET_BIT(hcan->Instance->MCR, CAN_MCR_NART);
 8001a70:	687b      	ldr	r3, [r7, #4]
 8001a72:	681b      	ldr	r3, [r3, #0]
 8001a74:	681a      	ldr	r2, [r3, #0]
 8001a76:	687b      	ldr	r3, [r7, #4]
 8001a78:	681b      	ldr	r3, [r3, #0]
 8001a7a:	f042 0210 	orr.w	r2, r2, #16
 8001a7e:	601a      	str	r2, [r3, #0]
  }

  /* Set the receive FIFO locked mode */
  if (hcan->Init.ReceiveFifoLocked == ENABLE)
 8001a80:	687b      	ldr	r3, [r7, #4]
 8001a82:	7f1b      	ldrb	r3, [r3, #28]
 8001a84:	2b01      	cmp	r3, #1
 8001a86:	d108      	bne.n	8001a9a <HAL_CAN_Init+0x17e>
  {
    SET_BIT(hcan->Instance->MCR, CAN_MCR_RFLM);
 8001a88:	687b      	ldr	r3, [r7, #4]
 8001a8a:	681b      	ldr	r3, [r3, #0]
 8001a8c:	681a      	ldr	r2, [r3, #0]
 8001a8e:	687b      	ldr	r3, [r7, #4]
 8001a90:	681b      	ldr	r3, [r3, #0]
 8001a92:	f042 0208 	orr.w	r2, r2, #8
 8001a96:	601a      	str	r2, [r3, #0]
 8001a98:	e007      	b.n	8001aaa <HAL_CAN_Init+0x18e>
  }
  else
  {
    CLEAR_BIT(hcan->Instance->MCR, CAN_MCR_RFLM);
 8001a9a:	687b      	ldr	r3, [r7, #4]
 8001a9c:	681b      	ldr	r3, [r3, #0]
 8001a9e:	681a      	ldr	r2, [r3, #0]
 8001aa0:	687b      	ldr	r3, [r7, #4]
 8001aa2:	681b      	ldr	r3, [r3, #0]
 8001aa4:	f022 0208 	bic.w	r2, r2, #8
 8001aa8:	601a      	str	r2, [r3, #0]
  }

  /* Set the transmit FIFO priority */
  if (hcan->Init.TransmitFifoPriority == ENABLE)
 8001aaa:	687b      	ldr	r3, [r7, #4]
 8001aac:	7f5b      	ldrb	r3, [r3, #29]
 8001aae:	2b01      	cmp	r3, #1
 8001ab0:	d108      	bne.n	8001ac4 <HAL_CAN_Init+0x1a8>
  {
    SET_BIT(hcan->Instance->MCR, CAN_MCR_TXFP);
 8001ab2:	687b      	ldr	r3, [r7, #4]
 8001ab4:	681b      	ldr	r3, [r3, #0]
 8001ab6:	681a      	ldr	r2, [r3, #0]
 8001ab8:	687b      	ldr	r3, [r7, #4]
 8001aba:	681b      	ldr	r3, [r3, #0]
 8001abc:	f042 0204 	orr.w	r2, r2, #4
 8001ac0:	601a      	str	r2, [r3, #0]
 8001ac2:	e007      	b.n	8001ad4 <HAL_CAN_Init+0x1b8>
  }
  else
  {
    CLEAR_BIT(hcan->Instance->MCR, CAN_MCR_TXFP);
 8001ac4:	687b      	ldr	r3, [r7, #4]
 8001ac6:	681b      	ldr	r3, [r3, #0]
 8001ac8:	681a      	ldr	r2, [r3, #0]
 8001aca:	687b      	ldr	r3, [r7, #4]
 8001acc:	681b      	ldr	r3, [r3, #0]
 8001ace:	f022 0204 	bic.w	r2, r2, #4
 8001ad2:	601a      	str	r2, [r3, #0]
  }

  /* Set the bit timing register */
  WRITE_REG(hcan->Instance->BTR, (uint32_t)(hcan->Init.Mode           |
 8001ad4:	687b      	ldr	r3, [r7, #4]
 8001ad6:	689a      	ldr	r2, [r3, #8]
 8001ad8:	687b      	ldr	r3, [r7, #4]
 8001ada:	68db      	ldr	r3, [r3, #12]
 8001adc:	431a      	orrs	r2, r3
 8001ade:	687b      	ldr	r3, [r7, #4]
 8001ae0:	691b      	ldr	r3, [r3, #16]
 8001ae2:	431a      	orrs	r2, r3
 8001ae4:	687b      	ldr	r3, [r7, #4]
 8001ae6:	695b      	ldr	r3, [r3, #20]
 8001ae8:	ea42 0103 	orr.w	r1, r2, r3
 8001aec:	687b      	ldr	r3, [r7, #4]
 8001aee:	685b      	ldr	r3, [r3, #4]
 8001af0:	1e5a      	subs	r2, r3, #1
 8001af2:	687b      	ldr	r3, [r7, #4]
 8001af4:	681b      	ldr	r3, [r3, #0]
 8001af6:	430a      	orrs	r2, r1
 8001af8:	61da      	str	r2, [r3, #28]
                                            hcan->Init.TimeSeg1       |
                                            hcan->Init.TimeSeg2       |
                                            (hcan->Init.Prescaler - 1U)));

  /* Initialize the error code */
  hcan->ErrorCode = HAL_CAN_ERROR_NONE;
 8001afa:	687b      	ldr	r3, [r7, #4]
 8001afc:	2200      	movs	r2, #0
 8001afe:	625a      	str	r2, [r3, #36]	; 0x24

  /* Initialize the CAN state */
  hcan->State = HAL_CAN_STATE_READY;
 8001b00:	687b      	ldr	r3, [r7, #4]
 8001b02:	2201      	movs	r2, #1
 8001b04:	f883 2020 	strb.w	r2, [r3, #32]

  /* Return function status */
  return HAL_OK;
 8001b08:	2300      	movs	r3, #0
}
 8001b0a:	4618      	mov	r0, r3
 8001b0c:	3710      	adds	r7, #16
 8001b0e:	46bd      	mov	sp, r7
 8001b10:	bd80      	pop	{r7, pc}

08001b12 <HAL_CAN_ConfigFilter>:
  * @param  sFilterConfig pointer to a CAN_FilterTypeDef structure that
  *         contains the filter configuration information.
  * @retval None
  */
HAL_StatusTypeDef HAL_CAN_ConfigFilter(CAN_HandleTypeDef *hcan, CAN_FilterTypeDef *sFilterConfig)
{
 8001b12:	b480      	push	{r7}
 8001b14:	b087      	sub	sp, #28
 8001b16:	af00      	add	r7, sp, #0
 8001b18:	6078      	str	r0, [r7, #4]
 8001b1a:	6039      	str	r1, [r7, #0]
  uint32_t filternbrbitpos;
  CAN_TypeDef *can_ip = hcan->Instance;
 8001b1c:	687b      	ldr	r3, [r7, #4]
 8001b1e:	681b      	ldr	r3, [r3, #0]
 8001b20:	617b      	str	r3, [r7, #20]
  HAL_CAN_StateTypeDef state = hcan->State;
 8001b22:	687b      	ldr	r3, [r7, #4]
 8001b24:	f893 3020 	ldrb.w	r3, [r3, #32]
 8001b28:	74fb      	strb	r3, [r7, #19]

  if ((state == HAL_CAN_STATE_READY) ||
 8001b2a:	7cfb      	ldrb	r3, [r7, #19]
 8001b2c:	2b01      	cmp	r3, #1
 8001b2e:	d003      	beq.n	8001b38 <HAL_CAN_ConfigFilter+0x26>
 8001b30:	7cfb      	ldrb	r3, [r7, #19]
 8001b32:	2b02      	cmp	r3, #2
 8001b34:	f040 80aa 	bne.w	8001c8c <HAL_CAN_ConfigFilter+0x17a>
    /* Check the parameters */
    assert_param(IS_CAN_FILTER_BANK_SINGLE(sFilterConfig->FilterBank));
#endif

    /* Initialisation mode for the filter */
    SET_BIT(can_ip->FMR, CAN_FMR_FINIT);
 8001b38:	697b      	ldr	r3, [r7, #20]
 8001b3a:	f8d3 3200 	ldr.w	r3, [r3, #512]	; 0x200
 8001b3e:	f043 0201 	orr.w	r2, r3, #1
 8001b42:	697b      	ldr	r3, [r7, #20]
 8001b44:	f8c3 2200 	str.w	r2, [r3, #512]	; 0x200
    CLEAR_BIT(can_ip->FMR, CAN_FMR_CAN2SB);
    SET_BIT(can_ip->FMR, sFilterConfig->SlaveStartFilterBank << CAN_FMR_CAN2SB_Pos);

#endif
    /* Convert filter number into bit position */
    filternbrbitpos = (uint32_t)1 << (sFilterConfig->FilterBank & 0x1FU);
 8001b48:	683b      	ldr	r3, [r7, #0]
 8001b4a:	695b      	ldr	r3, [r3, #20]
 8001b4c:	f003 031f 	and.w	r3, r3, #31
 8001b50:	2201      	movs	r2, #1
 8001b52:	fa02 f303 	lsl.w	r3, r2, r3
 8001b56:	60fb      	str	r3, [r7, #12]

    /* Filter Deactivation */
    CLEAR_BIT(can_ip->FA1R, filternbrbitpos);
 8001b58:	697b      	ldr	r3, [r7, #20]
 8001b5a:	f8d3 221c 	ldr.w	r2, [r3, #540]	; 0x21c
 8001b5e:	68fb      	ldr	r3, [r7, #12]
 8001b60:	43db      	mvns	r3, r3
 8001b62:	401a      	ands	r2, r3
 8001b64:	697b      	ldr	r3, [r7, #20]
 8001b66:	f8c3 221c 	str.w	r2, [r3, #540]	; 0x21c

    /* Filter Scale */
    if (sFilterConfig->FilterScale == CAN_FILTERSCALE_16BIT)
 8001b6a:	683b      	ldr	r3, [r7, #0]
 8001b6c:	69db      	ldr	r3, [r3, #28]
 8001b6e:	2b00      	cmp	r3, #0
 8001b70:	d123      	bne.n	8001bba <HAL_CAN_ConfigFilter+0xa8>
    {
      /* 16-bit scale for the filter */
      CLEAR_BIT(can_ip->FS1R, filternbrbitpos);
 8001b72:	697b      	ldr	r3, [r7, #20]
 8001b74:	f8d3 220c 	ldr.w	r2, [r3, #524]	; 0x20c
 8001b78:	68fb      	ldr	r3, [r7, #12]
 8001b7a:	43db      	mvns	r3, r3
 8001b7c:	401a      	ands	r2, r3
 8001b7e:	697b      	ldr	r3, [r7, #20]
 8001b80:	f8c3 220c 	str.w	r2, [r3, #524]	; 0x20c

      /* First 16-bit identifier and First 16-bit mask */
      /* Or First 16-bit identifier and Second 16-bit identifier */
      can_ip->sFilterRegister[sFilterConfig->FilterBank].FR1 =
        ((0x0000FFFFU & (uint32_t)sFilterConfig->FilterMaskIdLow) << 16U) |
 8001b84:	683b      	ldr	r3, [r7, #0]
 8001b86:	68db      	ldr	r3, [r3, #12]
 8001b88:	0419      	lsls	r1, r3, #16
        (0x0000FFFFU & (uint32_t)sFilterConfig->FilterIdLow);
 8001b8a:	683b      	ldr	r3, [r7, #0]
 8001b8c:	685b      	ldr	r3, [r3, #4]
 8001b8e:	b29b      	uxth	r3, r3
      can_ip->sFilterRegister[sFilterConfig->FilterBank].FR1 =
 8001b90:	683a      	ldr	r2, [r7, #0]
 8001b92:	6952      	ldr	r2, [r2, #20]
        ((0x0000FFFFU & (uint32_t)sFilterConfig->FilterMaskIdLow) << 16U) |
 8001b94:	4319      	orrs	r1, r3
      can_ip->sFilterRegister[sFilterConfig->FilterBank].FR1 =
 8001b96:	697b      	ldr	r3, [r7, #20]
 8001b98:	3248      	adds	r2, #72	; 0x48
 8001b9a:	f843 1032 	str.w	r1, [r3, r2, lsl #3]

      /* Second 16-bit identifier and Second 16-bit mask */
      /* Or Third 16-bit identifier and Fourth 16-bit identifier */
      can_ip->sFilterRegister[sFilterConfig->FilterBank].FR2 =
        ((0x0000FFFFU & (uint32_t)sFilterConfig->FilterMaskIdHigh) << 16U) |
 8001b9e:	683b      	ldr	r3, [r7, #0]
 8001ba0:	689b      	ldr	r3, [r3, #8]
 8001ba2:	0419      	lsls	r1, r3, #16
        (0x0000FFFFU & (uint32_t)sFilterConfig->FilterIdHigh);
 8001ba4:	683b      	ldr	r3, [r7, #0]
 8001ba6:	681b      	ldr	r3, [r3, #0]
 8001ba8:	b29a      	uxth	r2, r3
      can_ip->sFilterRegister[sFilterConfig->FilterBank].FR2 =
 8001baa:	683b      	ldr	r3, [r7, #0]
 8001bac:	695b      	ldr	r3, [r3, #20]
        ((0x0000FFFFU & (uint32_t)sFilterConfig->FilterMaskIdHigh) << 16U) |
 8001bae:	430a      	orrs	r2, r1
      can_ip->sFilterRegister[sFilterConfig->FilterBank].FR2 =
 8001bb0:	6979      	ldr	r1, [r7, #20]
 8001bb2:	3348      	adds	r3, #72	; 0x48
 8001bb4:	00db      	lsls	r3, r3, #3
 8001bb6:	440b      	add	r3, r1
 8001bb8:	605a      	str	r2, [r3, #4]
    }

    if (sFilterConfig->FilterScale == CAN_FILTERSCALE_32BIT)
 8001bba:	683b      	ldr	r3, [r7, #0]
 8001bbc:	69db      	ldr	r3, [r3, #28]
 8001bbe:	2b01      	cmp	r3, #1
 8001bc0:	d122      	bne.n	8001c08 <HAL_CAN_ConfigFilter+0xf6>
    {
      /* 32-bit scale for the filter */
      SET_BIT(can_ip->FS1R, filternbrbitpos);
 8001bc2:	697b      	ldr	r3, [r7, #20]
 8001bc4:	f8d3 220c 	ldr.w	r2, [r3, #524]	; 0x20c
 8001bc8:	68fb      	ldr	r3, [r7, #12]
 8001bca:	431a      	orrs	r2, r3
 8001bcc:	697b      	ldr	r3, [r7, #20]
 8001bce:	f8c3 220c 	str.w	r2, [r3, #524]	; 0x20c

      /* 32-bit identifier or First 32-bit identifier */
      can_ip->sFilterRegister[sFilterConfig->FilterBank].FR1 =
        ((0x0000FFFFU & (uint32_t)sFilterConfig->FilterIdHigh) << 16U) |
 8001bd2:	683b      	ldr	r3, [r7, #0]
 8001bd4:	681b      	ldr	r3, [r3, #0]
 8001bd6:	0419      	lsls	r1, r3, #16
        (0x0000FFFFU & (uint32_t)sFilterConfig->FilterIdLow);
 8001bd8:	683b      	ldr	r3, [r7, #0]
 8001bda:	685b      	ldr	r3, [r3, #4]
 8001bdc:	b29b      	uxth	r3, r3
      can_ip->sFilterRegister[sFilterConfig->FilterBank].FR1 =
 8001bde:	683a      	ldr	r2, [r7, #0]
 8001be0:	6952      	ldr	r2, [r2, #20]
        ((0x0000FFFFU & (uint32_t)sFilterConfig->FilterIdHigh) << 16U) |
 8001be2:	4319      	orrs	r1, r3
      can_ip->sFilterRegister[sFilterConfig->FilterBank].FR1 =
 8001be4:	697b      	ldr	r3, [r7, #20]
 8001be6:	3248      	adds	r2, #72	; 0x48
 8001be8:	f843 1032 	str.w	r1, [r3, r2, lsl #3]

      /* 32-bit mask or Second 32-bit identifier */
      can_ip->sFilterRegister[sFilterConfig->FilterBank].FR2 =
        ((0x0000FFFFU & (uint32_t)sFilterConfig->FilterMaskIdHigh) << 16U) |
 8001bec:	683b      	ldr	r3, [r7, #0]
 8001bee:	689b      	ldr	r3, [r3, #8]
 8001bf0:	0419      	lsls	r1, r3, #16
        (0x0000FFFFU & (uint32_t)sFilterConfig->FilterMaskIdLow);
 8001bf2:	683b      	ldr	r3, [r7, #0]
 8001bf4:	68db      	ldr	r3, [r3, #12]
 8001bf6:	b29a      	uxth	r2, r3
      can_ip->sFilterRegister[sFilterConfig->FilterBank].FR2 =
 8001bf8:	683b      	ldr	r3, [r7, #0]
 8001bfa:	695b      	ldr	r3, [r3, #20]
        ((0x0000FFFFU & (uint32_t)sFilterConfig->FilterMaskIdHigh) << 16U) |
 8001bfc:	430a      	orrs	r2, r1
      can_ip->sFilterRegister[sFilterConfig->FilterBank].FR2 =
 8001bfe:	6979      	ldr	r1, [r7, #20]
 8001c00:	3348      	adds	r3, #72	; 0x48
 8001c02:	00db      	lsls	r3, r3, #3
 8001c04:	440b      	add	r3, r1
 8001c06:	605a      	str	r2, [r3, #4]
    }

    /* Filter Mode */
    if (sFilterConfig->FilterMode == CAN_FILTERMODE_IDMASK)
 8001c08:	683b      	ldr	r3, [r7, #0]
 8001c0a:	699b      	ldr	r3, [r3, #24]
 8001c0c:	2b00      	cmp	r3, #0
 8001c0e:	d109      	bne.n	8001c24 <HAL_CAN_ConfigFilter+0x112>
    {
      /* Id/Mask mode for the filter*/
      CLEAR_BIT(can_ip->FM1R, filternbrbitpos);
 8001c10:	697b      	ldr	r3, [r7, #20]
 8001c12:	f8d3 2204 	ldr.w	r2, [r3, #516]	; 0x204
 8001c16:	68fb      	ldr	r3, [r7, #12]
 8001c18:	43db      	mvns	r3, r3
 8001c1a:	401a      	ands	r2, r3
 8001c1c:	697b      	ldr	r3, [r7, #20]
 8001c1e:	f8c3 2204 	str.w	r2, [r3, #516]	; 0x204
 8001c22:	e007      	b.n	8001c34 <HAL_CAN_ConfigFilter+0x122>
    }
    else /* CAN_FilterInitStruct->CAN_FilterMode == CAN_FilterMode_IdList */
    {
      /* Identifier list mode for the filter*/
      SET_BIT(can_ip->FM1R, filternbrbitpos);
 8001c24:	697b      	ldr	r3, [r7, #20]
 8001c26:	f8d3 2204 	ldr.w	r2, [r3, #516]	; 0x204
 8001c2a:	68fb      	ldr	r3, [r7, #12]
 8001c2c:	431a      	orrs	r2, r3
 8001c2e:	697b      	ldr	r3, [r7, #20]
 8001c30:	f8c3 2204 	str.w	r2, [r3, #516]	; 0x204
    }

    /* Filter FIFO assignment */
    if (sFilterConfig->FilterFIFOAssignment == CAN_FILTER_FIFO0)
 8001c34:	683b      	ldr	r3, [r7, #0]
 8001c36:	691b      	ldr	r3, [r3, #16]
 8001c38:	2b00      	cmp	r3, #0
 8001c3a:	d109      	bne.n	8001c50 <HAL_CAN_ConfigFilter+0x13e>
    {
      /* FIFO 0 assignation for the filter */
      CLEAR_BIT(can_ip->FFA1R, filternbrbitpos);
 8001c3c:	697b      	ldr	r3, [r7, #20]
 8001c3e:	f8d3 2214 	ldr.w	r2, [r3, #532]	; 0x214
 8001c42:	68fb      	ldr	r3, [r7, #12]
 8001c44:	43db      	mvns	r3, r3
 8001c46:	401a      	ands	r2, r3
 8001c48:	697b      	ldr	r3, [r7, #20]
 8001c4a:	f8c3 2214 	str.w	r2, [r3, #532]	; 0x214
 8001c4e:	e007      	b.n	8001c60 <HAL_CAN_ConfigFilter+0x14e>
    }
    else
    {
      /* FIFO 1 assignation for the filter */
      SET_BIT(can_ip->FFA1R, filternbrbitpos);
 8001c50:	697b      	ldr	r3, [r7, #20]
 8001c52:	f8d3 2214 	ldr.w	r2, [r3, #532]	; 0x214
 8001c56:	68fb      	ldr	r3, [r7, #12]
 8001c58:	431a      	orrs	r2, r3
 8001c5a:	697b      	ldr	r3, [r7, #20]
 8001c5c:	f8c3 2214 	str.w	r2, [r3, #532]	; 0x214
    }

    /* Filter activation */
    if (sFilterConfig->FilterActivation == CAN_FILTER_ENABLE)
 8001c60:	683b      	ldr	r3, [r7, #0]
 8001c62:	6a1b      	ldr	r3, [r3, #32]
 8001c64:	2b01      	cmp	r3, #1
 8001c66:	d107      	bne.n	8001c78 <HAL_CAN_ConfigFilter+0x166>
    {
      SET_BIT(can_ip->FA1R, filternbrbitpos);
 8001c68:	697b      	ldr	r3, [r7, #20]
 8001c6a:	f8d3 221c 	ldr.w	r2, [r3, #540]	; 0x21c
 8001c6e:	68fb      	ldr	r3, [r7, #12]
 8001c70:	431a      	orrs	r2, r3
 8001c72:	697b      	ldr	r3, [r7, #20]
 8001c74:	f8c3 221c 	str.w	r2, [r3, #540]	; 0x21c
    }

    /* Leave the initialisation mode for the filter */
    CLEAR_BIT(can_ip->FMR, CAN_FMR_FINIT);
 8001c78:	697b      	ldr	r3, [r7, #20]
 8001c7a:	f8d3 3200 	ldr.w	r3, [r3, #512]	; 0x200
 8001c7e:	f023 0201 	bic.w	r2, r3, #1
 8001c82:	697b      	ldr	r3, [r7, #20]
 8001c84:	f8c3 2200 	str.w	r2, [r3, #512]	; 0x200

    /* Return function status */
    return HAL_OK;
 8001c88:	2300      	movs	r3, #0
 8001c8a:	e006      	b.n	8001c9a <HAL_CAN_ConfigFilter+0x188>
  }
  else
  {
    /* Update error code */
    hcan->ErrorCode |= HAL_CAN_ERROR_NOT_INITIALIZED;
 8001c8c:	687b      	ldr	r3, [r7, #4]
 8001c8e:	6a5b      	ldr	r3, [r3, #36]	; 0x24
 8001c90:	f443 2280 	orr.w	r2, r3, #262144	; 0x40000
 8001c94:	687b      	ldr	r3, [r7, #4]
 8001c96:	625a      	str	r2, [r3, #36]	; 0x24

    return HAL_ERROR;
 8001c98:	2301      	movs	r3, #1
  }
}
 8001c9a:	4618      	mov	r0, r3
 8001c9c:	371c      	adds	r7, #28
 8001c9e:	46bd      	mov	sp, r7
 8001ca0:	bc80      	pop	{r7}
 8001ca2:	4770      	bx	lr

08001ca4 <HAL_CAN_Start>:
  * @param  hcan pointer to an CAN_HandleTypeDef structure that contains
  *         the configuration information for the specified CAN.
  * @retval HAL status
  */
HAL_StatusTypeDef HAL_CAN_Start(CAN_HandleTypeDef *hcan)
{
 8001ca4:	b580      	push	{r7, lr}
 8001ca6:	b084      	sub	sp, #16
 8001ca8:	af00      	add	r7, sp, #0
 8001caa:	6078      	str	r0, [r7, #4]
  uint32_t tickstart;

  if (hcan->State == HAL_CAN_STATE_READY)
 8001cac:	687b      	ldr	r3, [r7, #4]
 8001cae:	f893 3020 	ldrb.w	r3, [r3, #32]
 8001cb2:	b2db      	uxtb	r3, r3
 8001cb4:	2b01      	cmp	r3, #1
 8001cb6:	d12e      	bne.n	8001d16 <HAL_CAN_Start+0x72>
  {
    /* Change CAN peripheral state */
    hcan->State = HAL_CAN_STATE_LISTENING;
 8001cb8:	687b      	ldr	r3, [r7, #4]
 8001cba:	2202      	movs	r2, #2
 8001cbc:	f883 2020 	strb.w	r2, [r3, #32]

    /* Request leave initialisation */
    CLEAR_BIT(hcan->Instance->MCR, CAN_MCR_INRQ);
 8001cc0:	687b      	ldr	r3, [r7, #4]
 8001cc2:	681b      	ldr	r3, [r3, #0]
 8001cc4:	681a      	ldr	r2, [r3, #0]
 8001cc6:	687b      	ldr	r3, [r7, #4]
 8001cc8:	681b      	ldr	r3, [r3, #0]
 8001cca:	f022 0201 	bic.w	r2, r2, #1
 8001cce:	601a      	str	r2, [r3, #0]

    /* Get tick */
    tickstart = HAL_GetTick();
 8001cd0:	f7ff fa3c 	bl	800114c <HAL_GetTick>
 8001cd4:	60f8      	str	r0, [r7, #12]

    /* Wait the acknowledge */
    while ((hcan->Instance->MSR & CAN_MSR_INAK) != 0U)
 8001cd6:	e012      	b.n	8001cfe <HAL_CAN_Start+0x5a>
    {
      /* Check for the Timeout */
      if ((HAL_GetTick() - tickstart) > CAN_TIMEOUT_VALUE)
 8001cd8:	f7ff fa38 	bl	800114c <HAL_GetTick>
 8001cdc:	4602      	mov	r2, r0
 8001cde:	68fb      	ldr	r3, [r7, #12]
 8001ce0:	1ad3      	subs	r3, r2, r3
 8001ce2:	2b0a      	cmp	r3, #10
 8001ce4:	d90b      	bls.n	8001cfe <HAL_CAN_Start+0x5a>
      {
        /* Update error code */
        hcan->ErrorCode |= HAL_CAN_ERROR_TIMEOUT;
 8001ce6:	687b      	ldr	r3, [r7, #4]
 8001ce8:	6a5b      	ldr	r3, [r3, #36]	; 0x24
 8001cea:	f443 3200 	orr.w	r2, r3, #131072	; 0x20000
 8001cee:	687b      	ldr	r3, [r7, #4]
 8001cf0:	625a      	str	r2, [r3, #36]	; 0x24

        /* Change CAN state */
        hcan->State = HAL_CAN_STATE_ERROR;
 8001cf2:	687b      	ldr	r3, [r7, #4]
 8001cf4:	2205      	movs	r2, #5
 8001cf6:	f883 2020 	strb.w	r2, [r3, #32]

        return HAL_ERROR;
 8001cfa:	2301      	movs	r3, #1
 8001cfc:	e012      	b.n	8001d24 <HAL_CAN_Start+0x80>
    while ((hcan->Instance->MSR & CAN_MSR_INAK) != 0U)
 8001cfe:	687b      	ldr	r3, [r7, #4]
 8001d00:	681b      	ldr	r3, [r3, #0]
 8001d02:	685b      	ldr	r3, [r3, #4]
 8001d04:	f003 0301 	and.w	r3, r3, #1
 8001d08:	2b00      	cmp	r3, #0
 8001d0a:	d1e5      	bne.n	8001cd8 <HAL_CAN_Start+0x34>
      }
    }

    /* Reset the CAN ErrorCode */
    hcan->ErrorCode = HAL_CAN_ERROR_NONE;
 8001d0c:	687b      	ldr	r3, [r7, #4]
 8001d0e:	2200      	movs	r2, #0
 8001d10:	625a      	str	r2, [r3, #36]	; 0x24

    /* Return function status */
    return HAL_OK;
 8001d12:	2300      	movs	r3, #0
 8001d14:	e006      	b.n	8001d24 <HAL_CAN_Start+0x80>
  }
  else
  {
    /* Update error code */
    hcan->ErrorCode |= HAL_CAN_ERROR_NOT_READY;
 8001d16:	687b      	ldr	r3, [r7, #4]
 8001d18:	6a5b      	ldr	r3, [r3, #36]	; 0x24
 8001d1a:	f443 2200 	orr.w	r2, r3, #524288	; 0x80000
 8001d1e:	687b      	ldr	r3, [r7, #4]
 8001d20:	625a      	str	r2, [r3, #36]	; 0x24

    return HAL_ERROR;
 8001d22:	2301      	movs	r3, #1
  }
}
 8001d24:	4618      	mov	r0, r3
 8001d26:	3710      	adds	r7, #16
 8001d28:	46bd      	mov	sp, r7
 8001d2a:	bd80      	pop	{r7, pc}

08001d2c <HAL_CAN_AddTxMessage>:
  *         the TxMailbox used to store the Tx message.
  *         This parameter can be a value of @arg CAN_Tx_Mailboxes.
  * @retval HAL status
  */
HAL_StatusTypeDef HAL_CAN_AddTxMessage(CAN_HandleTypeDef *hcan, CAN_TxHeaderTypeDef *pHeader, uint8_t aData[], uint32_t *pTxMailbox)
{
 8001d2c:	b480      	push	{r7}
 8001d2e:	b089      	sub	sp, #36	; 0x24
 8001d30:	af00      	add	r7, sp, #0
 8001d32:	60f8      	str	r0, [r7, #12]
 8001d34:	60b9      	str	r1, [r7, #8]
 8001d36:	607a      	str	r2, [r7, #4]
 8001d38:	603b      	str	r3, [r7, #0]
  uint32_t transmitmailbox;
  HAL_CAN_StateTypeDef state = hcan->State;
 8001d3a:	68fb      	ldr	r3, [r7, #12]
 8001d3c:	f893 3020 	ldrb.w	r3, [r3, #32]
 8001d40:	77fb      	strb	r3, [r7, #31]
  uint32_t tsr = READ_REG(hcan->Instance->TSR);
 8001d42:	68fb      	ldr	r3, [r7, #12]
 8001d44:	681b      	ldr	r3, [r3, #0]
 8001d46:	689b      	ldr	r3, [r3, #8]
 8001d48:	61bb      	str	r3, [r7, #24]
  {
    assert_param(IS_CAN_EXTID(pHeader->ExtId));
  }
  assert_param(IS_FUNCTIONAL_STATE(pHeader->TransmitGlobalTime));

  if ((state == HAL_CAN_STATE_READY) ||
 8001d4a:	7ffb      	ldrb	r3, [r7, #31]
 8001d4c:	2b01      	cmp	r3, #1
 8001d4e:	d003      	beq.n	8001d58 <HAL_CAN_AddTxMessage+0x2c>
 8001d50:	7ffb      	ldrb	r3, [r7, #31]
 8001d52:	2b02      	cmp	r3, #2
 8001d54:	f040 80b8 	bne.w	8001ec8 <HAL_CAN_AddTxMessage+0x19c>
      (state == HAL_CAN_STATE_LISTENING))
  {
    /* Check that all the Tx mailboxes are not full */
    if (((tsr & CAN_TSR_TME0) != 0U) ||
 8001d58:	69bb      	ldr	r3, [r7, #24]
 8001d5a:	f003 6380 	and.w	r3, r3, #67108864	; 0x4000000
 8001d5e:	2b00      	cmp	r3, #0
 8001d60:	d10a      	bne.n	8001d78 <HAL_CAN_AddTxMessage+0x4c>
        ((tsr & CAN_TSR_TME1) != 0U) ||
 8001d62:	69bb      	ldr	r3, [r7, #24]
 8001d64:	f003 6300 	and.w	r3, r3, #134217728	; 0x8000000
    if (((tsr & CAN_TSR_TME0) != 0U) ||
 8001d68:	2b00      	cmp	r3, #0
 8001d6a:	d105      	bne.n	8001d78 <HAL_CAN_AddTxMessage+0x4c>
        ((tsr & CAN_TSR_TME2) != 0U))
 8001d6c:	69bb      	ldr	r3, [r7, #24]
 8001d6e:	f003 5380 	and.w	r3, r3, #268435456	; 0x10000000
        ((tsr & CAN_TSR_TME1) != 0U) ||
 8001d72:	2b00      	cmp	r3, #0
 8001d74:	f000 80a0 	beq.w	8001eb8 <HAL_CAN_AddTxMessage+0x18c>
    {
      /* Select an empty transmit mailbox */
      transmitmailbox = (tsr & CAN_TSR_CODE) >> CAN_TSR_CODE_Pos;
 8001d78:	69bb      	ldr	r3, [r7, #24]
 8001d7a:	0e1b      	lsrs	r3, r3, #24
 8001d7c:	f003 0303 	and.w	r3, r3, #3
 8001d80:	617b      	str	r3, [r7, #20]

      /* Check transmit mailbox value */
      if (transmitmailbox > 2U)
 8001d82:	697b      	ldr	r3, [r7, #20]
 8001d84:	2b02      	cmp	r3, #2
 8001d86:	d907      	bls.n	8001d98 <HAL_CAN_AddTxMessage+0x6c>
      {
        /* Update error code */
        hcan->ErrorCode |= HAL_CAN_ERROR_INTERNAL;
 8001d88:	68fb      	ldr	r3, [r7, #12]
 8001d8a:	6a5b      	ldr	r3, [r3, #36]	; 0x24
 8001d8c:	f443 0200 	orr.w	r2, r3, #8388608	; 0x800000
 8001d90:	68fb      	ldr	r3, [r7, #12]
 8001d92:	625a      	str	r2, [r3, #36]	; 0x24

        return HAL_ERROR;
 8001d94:	2301      	movs	r3, #1
 8001d96:	e09e      	b.n	8001ed6 <HAL_CAN_AddTxMessage+0x1aa>
      }

      /* Store the Tx mailbox */
      *pTxMailbox = (uint32_t)1 << transmitmailbox;
 8001d98:	2201      	movs	r2, #1
 8001d9a:	697b      	ldr	r3, [r7, #20]
 8001d9c:	409a      	lsls	r2, r3
 8001d9e:	683b      	ldr	r3, [r7, #0]
 8001da0:	601a      	str	r2, [r3, #0]

      /* Set up the Id */
      if (pHeader->IDE == CAN_ID_STD)
 8001da2:	68bb      	ldr	r3, [r7, #8]
 8001da4:	689b      	ldr	r3, [r3, #8]
 8001da6:	2b00      	cmp	r3, #0
 8001da8:	d10d      	bne.n	8001dc6 <HAL_CAN_AddTxMessage+0x9a>
      {
        hcan->Instance->sTxMailBox[transmitmailbox].TIR = ((pHeader->StdId << CAN_TI0R_STID_Pos) |
 8001daa:	68bb      	ldr	r3, [r7, #8]
 8001dac:	681b      	ldr	r3, [r3, #0]
 8001dae:	055a      	lsls	r2, r3, #21
                                                           pHeader->RTR);
 8001db0:	68bb      	ldr	r3, [r7, #8]
 8001db2:	68db      	ldr	r3, [r3, #12]
        hcan->Instance->sTxMailBox[transmitmailbox].TIR = ((pHeader->StdId << CAN_TI0R_STID_Pos) |
 8001db4:	68f9      	ldr	r1, [r7, #12]
 8001db6:	6809      	ldr	r1, [r1, #0]
 8001db8:	431a      	orrs	r2, r3
 8001dba:	697b      	ldr	r3, [r7, #20]
 8001dbc:	3318      	adds	r3, #24
 8001dbe:	011b      	lsls	r3, r3, #4
 8001dc0:	440b      	add	r3, r1
 8001dc2:	601a      	str	r2, [r3, #0]
 8001dc4:	e00f      	b.n	8001de6 <HAL_CAN_AddTxMessage+0xba>
      }
      else
      {
        hcan->Instance->sTxMailBox[transmitmailbox].TIR = ((pHeader->ExtId << CAN_TI0R_EXID_Pos) |
 8001dc6:	68bb      	ldr	r3, [r7, #8]
 8001dc8:	685b      	ldr	r3, [r3, #4]
 8001dca:	00da      	lsls	r2, r3, #3
                                                           pHeader->IDE |
 8001dcc:	68bb      	ldr	r3, [r7, #8]
 8001dce:	689b      	ldr	r3, [r3, #8]
        hcan->Instance->sTxMailBox[transmitmailbox].TIR = ((pHeader->ExtId << CAN_TI0R_EXID_Pos) |
 8001dd0:	431a      	orrs	r2, r3
                                                           pHeader->RTR);
 8001dd2:	68bb      	ldr	r3, [r7, #8]
 8001dd4:	68db      	ldr	r3, [r3, #12]
        hcan->Instance->sTxMailBox[transmitmailbox].TIR = ((pHeader->ExtId << CAN_TI0R_EXID_Pos) |
 8001dd6:	68f9      	ldr	r1, [r7, #12]
 8001dd8:	6809      	ldr	r1, [r1, #0]
                                                           pHeader->IDE |
 8001dda:	431a      	orrs	r2, r3
        hcan->Instance->sTxMailBox[transmitmailbox].TIR = ((pHeader->ExtId << CAN_TI0R_EXID_Pos) |
 8001ddc:	697b      	ldr	r3, [r7, #20]
 8001dde:	3318      	adds	r3, #24
 8001de0:	011b      	lsls	r3, r3, #4
 8001de2:	440b      	add	r3, r1
 8001de4:	601a      	str	r2, [r3, #0]
      }

      /* Set up the DLC */
      hcan->Instance->sTxMailBox[transmitmailbox].TDTR = (pHeader->DLC);
 8001de6:	68fb      	ldr	r3, [r7, #12]
 8001de8:	6819      	ldr	r1, [r3, #0]
 8001dea:	68bb      	ldr	r3, [r7, #8]
 8001dec:	691a      	ldr	r2, [r3, #16]
 8001dee:	697b      	ldr	r3, [r7, #20]
 8001df0:	3318      	adds	r3, #24
 8001df2:	011b      	lsls	r3, r3, #4
 8001df4:	440b      	add	r3, r1
 8001df6:	3304      	adds	r3, #4
 8001df8:	601a      	str	r2, [r3, #0]

      /* Set up the Transmit Global Time mode */
      if (pHeader->TransmitGlobalTime == ENABLE)
 8001dfa:	68bb      	ldr	r3, [r7, #8]
 8001dfc:	7d1b      	ldrb	r3, [r3, #20]
 8001dfe:	2b01      	cmp	r3, #1
 8001e00:	d111      	bne.n	8001e26 <HAL_CAN_AddTxMessage+0xfa>
      {
        SET_BIT(hcan->Instance->sTxMailBox[transmitmailbox].TDTR, CAN_TDT0R_TGT);
 8001e02:	68fb      	ldr	r3, [r7, #12]
 8001e04:	681a      	ldr	r2, [r3, #0]
 8001e06:	697b      	ldr	r3, [r7, #20]
 8001e08:	3318      	adds	r3, #24
 8001e0a:	011b      	lsls	r3, r3, #4
 8001e0c:	4413      	add	r3, r2
 8001e0e:	3304      	adds	r3, #4
 8001e10:	681b      	ldr	r3, [r3, #0]
 8001e12:	68fa      	ldr	r2, [r7, #12]
 8001e14:	6811      	ldr	r1, [r2, #0]
 8001e16:	f443 7280 	orr.w	r2, r3, #256	; 0x100
 8001e1a:	697b      	ldr	r3, [r7, #20]
 8001e1c:	3318      	adds	r3, #24
 8001e1e:	011b      	lsls	r3, r3, #4
 8001e20:	440b      	add	r3, r1
 8001e22:	3304      	adds	r3, #4
 8001e24:	601a      	str	r2, [r3, #0]
      }

      /* Set up the data field */
      WRITE_REG(hcan->Instance->sTxMailBox[transmitmailbox].TDHR,
 8001e26:	687b      	ldr	r3, [r7, #4]
 8001e28:	3307      	adds	r3, #7
 8001e2a:	781b      	ldrb	r3, [r3, #0]
 8001e2c:	061a      	lsls	r2, r3, #24
 8001e2e:	687b      	ldr	r3, [r7, #4]
 8001e30:	3306      	adds	r3, #6
 8001e32:	781b      	ldrb	r3, [r3, #0]
 8001e34:	041b      	lsls	r3, r3, #16
 8001e36:	431a      	orrs	r2, r3
 8001e38:	687b      	ldr	r3, [r7, #4]
 8001e3a:	3305      	adds	r3, #5
 8001e3c:	781b      	ldrb	r3, [r3, #0]
 8001e3e:	021b      	lsls	r3, r3, #8
 8001e40:	4313      	orrs	r3, r2
 8001e42:	687a      	ldr	r2, [r7, #4]
 8001e44:	3204      	adds	r2, #4
 8001e46:	7812      	ldrb	r2, [r2, #0]
 8001e48:	4610      	mov	r0, r2
 8001e4a:	68fa      	ldr	r2, [r7, #12]
 8001e4c:	6811      	ldr	r1, [r2, #0]
 8001e4e:	ea43 0200 	orr.w	r2, r3, r0
 8001e52:	697b      	ldr	r3, [r7, #20]
 8001e54:	011b      	lsls	r3, r3, #4
 8001e56:	440b      	add	r3, r1
 8001e58:	f503 73c6 	add.w	r3, r3, #396	; 0x18c
 8001e5c:	601a      	str	r2, [r3, #0]
                ((uint32_t)aData[7] << CAN_TDH0R_DATA7_Pos) |
                ((uint32_t)aData[6] << CAN_TDH0R_DATA6_Pos) |
                ((uint32_t)aData[5] << CAN_TDH0R_DATA5_Pos) |
                ((uint32_t)aData[4] << CAN_TDH0R_DATA4_Pos));
      WRITE_REG(hcan->Instance->sTxMailBox[transmitmailbox].TDLR,
 8001e5e:	687b      	ldr	r3, [r7, #4]
 8001e60:	3303      	adds	r3, #3
 8001e62:	781b      	ldrb	r3, [r3, #0]
 8001e64:	061a      	lsls	r2, r3, #24
 8001e66:	687b      	ldr	r3, [r7, #4]
 8001e68:	3302      	adds	r3, #2
 8001e6a:	781b      	ldrb	r3, [r3, #0]
 8001e6c:	041b      	lsls	r3, r3, #16
 8001e6e:	431a      	orrs	r2, r3
 8001e70:	687b      	ldr	r3, [r7, #4]
 8001e72:	3301      	adds	r3, #1
 8001e74:	781b      	ldrb	r3, [r3, #0]
 8001e76:	021b      	lsls	r3, r3, #8
 8001e78:	4313      	orrs	r3, r2
 8001e7a:	687a      	ldr	r2, [r7, #4]
 8001e7c:	7812      	ldrb	r2, [r2, #0]
 8001e7e:	4610      	mov	r0, r2
 8001e80:	68fa      	ldr	r2, [r7, #12]
 8001e82:	6811      	ldr	r1, [r2, #0]
 8001e84:	ea43 0200 	orr.w	r2, r3, r0
 8001e88:	697b      	ldr	r3, [r7, #20]
 8001e8a:	011b      	lsls	r3, r3, #4
 8001e8c:	440b      	add	r3, r1
 8001e8e:	f503 73c4 	add.w	r3, r3, #392	; 0x188
 8001e92:	601a      	str	r2, [r3, #0]
                ((uint32_t)aData[2] << CAN_TDL0R_DATA2_Pos) |
                ((uint32_t)aData[1] << CAN_TDL0R_DATA1_Pos) |
                ((uint32_t)aData[0] << CAN_TDL0R_DATA0_Pos));

      /* Request transmission */
      SET_BIT(hcan->Instance->sTxMailBox[transmitmailbox].TIR, CAN_TI0R_TXRQ);
 8001e94:	68fb      	ldr	r3, [r7, #12]
 8001e96:	681a      	ldr	r2, [r3, #0]
 8001e98:	697b      	ldr	r3, [r7, #20]
 8001e9a:	3318      	adds	r3, #24
 8001e9c:	011b      	lsls	r3, r3, #4
 8001e9e:	4413      	add	r3, r2
 8001ea0:	681b      	ldr	r3, [r3, #0]
 8001ea2:	68fa      	ldr	r2, [r7, #12]
 8001ea4:	6811      	ldr	r1, [r2, #0]
 8001ea6:	f043 0201 	orr.w	r2, r3, #1
 8001eaa:	697b      	ldr	r3, [r7, #20]
 8001eac:	3318      	adds	r3, #24
 8001eae:	011b      	lsls	r3, r3, #4
 8001eb0:	440b      	add	r3, r1
 8001eb2:	601a      	str	r2, [r3, #0]

      /* Return function status */
      return HAL_OK;
 8001eb4:	2300      	movs	r3, #0
 8001eb6:	e00e      	b.n	8001ed6 <HAL_CAN_AddTxMessage+0x1aa>
    }
    else
    {
      /* Update error code */
      hcan->ErrorCode |= HAL_CAN_ERROR_PARAM;
 8001eb8:	68fb      	ldr	r3, [r7, #12]
 8001eba:	6a5b      	ldr	r3, [r3, #36]	; 0x24
 8001ebc:	f443 1200 	orr.w	r2, r3, #2097152	; 0x200000
 8001ec0:	68fb      	ldr	r3, [r7, #12]
 8001ec2:	625a      	str	r2, [r3, #36]	; 0x24

      return HAL_ERROR;
 8001ec4:	2301      	movs	r3, #1
 8001ec6:	e006      	b.n	8001ed6 <HAL_CAN_AddTxMessage+0x1aa>
    }
  }
  else
  {
    /* Update error code */
    hcan->ErrorCode |= HAL_CAN_ERROR_NOT_INITIALIZED;
 8001ec8:	68fb      	ldr	r3, [r7, #12]
 8001eca:	6a5b      	ldr	r3, [r3, #36]	; 0x24
 8001ecc:	f443 2280 	orr.w	r2, r3, #262144	; 0x40000
 8001ed0:	68fb      	ldr	r3, [r7, #12]
 8001ed2:	625a      	str	r2, [r3, #36]	; 0x24

    return HAL_ERROR;
 8001ed4:	2301      	movs	r3, #1
  }
}
 8001ed6:	4618      	mov	r0, r3
 8001ed8:	3724      	adds	r7, #36	; 0x24
 8001eda:	46bd      	mov	sp, r7
 8001edc:	bc80      	pop	{r7}
 8001ede:	4770      	bx	lr

08001ee0 <HAL_CAN_GetRxMessage>:
  *         of the Rx frame will be stored.
  * @param  aData array where the payload of the Rx frame will be stored.
  * @retval HAL status
  */
HAL_StatusTypeDef HAL_CAN_GetRxMessage(CAN_HandleTypeDef *hcan, uint32_t RxFifo, CAN_RxHeaderTypeDef *pHeader, uint8_t aData[])
{
 8001ee0:	b480      	push	{r7}
 8001ee2:	b087      	sub	sp, #28
 8001ee4:	af00      	add	r7, sp, #0
 8001ee6:	60f8      	str	r0, [r7, #12]
 8001ee8:	60b9      	str	r1, [r7, #8]
 8001eea:	607a      	str	r2, [r7, #4]
 8001eec:	603b      	str	r3, [r7, #0]
  HAL_CAN_StateTypeDef state = hcan->State;
 8001eee:	68fb      	ldr	r3, [r7, #12]
 8001ef0:	f893 3020 	ldrb.w	r3, [r3, #32]
 8001ef4:	75fb      	strb	r3, [r7, #23]

  assert_param(IS_CAN_RX_FIFO(RxFifo));

  if ((state == HAL_CAN_STATE_READY) ||
 8001ef6:	7dfb      	ldrb	r3, [r7, #23]
 8001ef8:	2b01      	cmp	r3, #1
 8001efa:	d003      	beq.n	8001f04 <HAL_CAN_GetRxMessage+0x24>
 8001efc:	7dfb      	ldrb	r3, [r7, #23]
 8001efe:	2b02      	cmp	r3, #2
 8001f00:	f040 80f3 	bne.w	80020ea <HAL_CAN_GetRxMessage+0x20a>
      (state == HAL_CAN_STATE_LISTENING))
  {
    /* Check the Rx FIFO */
    if (RxFifo == CAN_RX_FIFO0) /* Rx element is assigned to Rx FIFO 0 */
 8001f04:	68bb      	ldr	r3, [r7, #8]
 8001f06:	2b00      	cmp	r3, #0
 8001f08:	d10e      	bne.n	8001f28 <HAL_CAN_GetRxMessage+0x48>
    {
      /* Check that the Rx FIFO 0 is not empty */
      if ((hcan->Instance->RF0R & CAN_RF0R_FMP0) == 0U)
 8001f0a:	68fb      	ldr	r3, [r7, #12]
 8001f0c:	681b      	ldr	r3, [r3, #0]
 8001f0e:	68db      	ldr	r3, [r3, #12]
 8001f10:	f003 0303 	and.w	r3, r3, #3
 8001f14:	2b00      	cmp	r3, #0
 8001f16:	d116      	bne.n	8001f46 <HAL_CAN_GetRxMessage+0x66>
      {
        /* Update error code */
        hcan->ErrorCode |= HAL_CAN_ERROR_PARAM;
 8001f18:	68fb      	ldr	r3, [r7, #12]
 8001f1a:	6a5b      	ldr	r3, [r3, #36]	; 0x24
 8001f1c:	f443 1200 	orr.w	r2, r3, #2097152	; 0x200000
 8001f20:	68fb      	ldr	r3, [r7, #12]
 8001f22:	625a      	str	r2, [r3, #36]	; 0x24

        return HAL_ERROR;
 8001f24:	2301      	movs	r3, #1
 8001f26:	e0e7      	b.n	80020f8 <HAL_CAN_GetRxMessage+0x218>
      }
    }
    else /* Rx element is assigned to Rx FIFO 1 */
    {
      /* Check that the Rx FIFO 1 is not empty */
      if ((hcan->Instance->RF1R & CAN_RF1R_FMP1) == 0U)
 8001f28:	68fb      	ldr	r3, [r7, #12]
 8001f2a:	681b      	ldr	r3, [r3, #0]
 8001f2c:	691b      	ldr	r3, [r3, #16]
 8001f2e:	f003 0303 	and.w	r3, r3, #3
 8001f32:	2b00      	cmp	r3, #0
 8001f34:	d107      	bne.n	8001f46 <HAL_CAN_GetRxMessage+0x66>
      {
        /* Update error code */
        hcan->ErrorCode |= HAL_CAN_ERROR_PARAM;
 8001f36:	68fb      	ldr	r3, [r7, #12]
 8001f38:	6a5b      	ldr	r3, [r3, #36]	; 0x24
 8001f3a:	f443 1200 	orr.w	r2, r3, #2097152	; 0x200000
 8001f3e:	68fb      	ldr	r3, [r7, #12]
 8001f40:	625a      	str	r2, [r3, #36]	; 0x24

        return HAL_ERROR;
 8001f42:	2301      	movs	r3, #1
 8001f44:	e0d8      	b.n	80020f8 <HAL_CAN_GetRxMessage+0x218>
      }
    }

    /* Get the header */
    pHeader->IDE = CAN_RI0R_IDE & hcan->Instance->sFIFOMailBox[RxFifo].RIR;
 8001f46:	68fb      	ldr	r3, [r7, #12]
 8001f48:	681a      	ldr	r2, [r3, #0]
 8001f4a:	68bb      	ldr	r3, [r7, #8]
 8001f4c:	331b      	adds	r3, #27
 8001f4e:	011b      	lsls	r3, r3, #4
 8001f50:	4413      	add	r3, r2
 8001f52:	681b      	ldr	r3, [r3, #0]
 8001f54:	f003 0204 	and.w	r2, r3, #4
 8001f58:	687b      	ldr	r3, [r7, #4]
 8001f5a:	609a      	str	r2, [r3, #8]
    if (pHeader->IDE == CAN_ID_STD)
 8001f5c:	687b      	ldr	r3, [r7, #4]
 8001f5e:	689b      	ldr	r3, [r3, #8]
 8001f60:	2b00      	cmp	r3, #0
 8001f62:	d10c      	bne.n	8001f7e <HAL_CAN_GetRxMessage+0x9e>
    {
      pHeader->StdId = (CAN_RI0R_STID & hcan->Instance->sFIFOMailBox[RxFifo].RIR) >> CAN_TI0R_STID_Pos;
 8001f64:	68fb      	ldr	r3, [r7, #12]
 8001f66:	681a      	ldr	r2, [r3, #0]
 8001f68:	68bb      	ldr	r3, [r7, #8]
 8001f6a:	331b      	adds	r3, #27
 8001f6c:	011b      	lsls	r3, r3, #4
 8001f6e:	4413      	add	r3, r2
 8001f70:	681b      	ldr	r3, [r3, #0]
 8001f72:	0d5b      	lsrs	r3, r3, #21
 8001f74:	f3c3 020a 	ubfx	r2, r3, #0, #11
 8001f78:	687b      	ldr	r3, [r7, #4]
 8001f7a:	601a      	str	r2, [r3, #0]
 8001f7c:	e00b      	b.n	8001f96 <HAL_CAN_GetRxMessage+0xb6>
    }
    else
    {
      pHeader->ExtId = ((CAN_RI0R_EXID | CAN_RI0R_STID) & hcan->Instance->sFIFOMailBox[RxFifo].RIR) >> CAN_RI0R_EXID_Pos;
 8001f7e:	68fb      	ldr	r3, [r7, #12]
 8001f80:	681a      	ldr	r2, [r3, #0]
 8001f82:	68bb      	ldr	r3, [r7, #8]
 8001f84:	331b      	adds	r3, #27
 8001f86:	011b      	lsls	r3, r3, #4
 8001f88:	4413      	add	r3, r2
 8001f8a:	681b      	ldr	r3, [r3, #0]
 8001f8c:	08db      	lsrs	r3, r3, #3
 8001f8e:	f023 4260 	bic.w	r2, r3, #3758096384	; 0xe0000000
 8001f92:	687b      	ldr	r3, [r7, #4]
 8001f94:	605a      	str	r2, [r3, #4]
    }
    pHeader->RTR = (CAN_RI0R_RTR & hcan->Instance->sFIFOMailBox[RxFifo].RIR);
 8001f96:	68fb      	ldr	r3, [r7, #12]
 8001f98:	681a      	ldr	r2, [r3, #0]
 8001f9a:	68bb      	ldr	r3, [r7, #8]
 8001f9c:	331b      	adds	r3, #27
 8001f9e:	011b      	lsls	r3, r3, #4
 8001fa0:	4413      	add	r3, r2
 8001fa2:	681b      	ldr	r3, [r3, #0]
 8001fa4:	f003 0202 	and.w	r2, r3, #2
 8001fa8:	687b      	ldr	r3, [r7, #4]
 8001faa:	60da      	str	r2, [r3, #12]
    pHeader->DLC = (CAN_RDT0R_DLC & hcan->Instance->sFIFOMailBox[RxFifo].RDTR) >> CAN_RDT0R_DLC_Pos;
 8001fac:	68fb      	ldr	r3, [r7, #12]
 8001fae:	681a      	ldr	r2, [r3, #0]
 8001fb0:	68bb      	ldr	r3, [r7, #8]
 8001fb2:	331b      	adds	r3, #27
 8001fb4:	011b      	lsls	r3, r3, #4
 8001fb6:	4413      	add	r3, r2
 8001fb8:	3304      	adds	r3, #4
 8001fba:	681b      	ldr	r3, [r3, #0]
 8001fbc:	f003 020f 	and.w	r2, r3, #15
 8001fc0:	687b      	ldr	r3, [r7, #4]
 8001fc2:	611a      	str	r2, [r3, #16]
    pHeader->FilterMatchIndex = (CAN_RDT0R_FMI & hcan->Instance->sFIFOMailBox[RxFifo].RDTR) >> CAN_RDT0R_FMI_Pos;
 8001fc4:	68fb      	ldr	r3, [r7, #12]
 8001fc6:	681a      	ldr	r2, [r3, #0]
 8001fc8:	68bb      	ldr	r3, [r7, #8]
 8001fca:	331b      	adds	r3, #27
 8001fcc:	011b      	lsls	r3, r3, #4
 8001fce:	4413      	add	r3, r2
 8001fd0:	3304      	adds	r3, #4
 8001fd2:	681b      	ldr	r3, [r3, #0]
 8001fd4:	0a1b      	lsrs	r3, r3, #8
 8001fd6:	b2da      	uxtb	r2, r3
 8001fd8:	687b      	ldr	r3, [r7, #4]
 8001fda:	619a      	str	r2, [r3, #24]
    pHeader->Timestamp = (CAN_RDT0R_TIME & hcan->Instance->sFIFOMailBox[RxFifo].RDTR) >> CAN_RDT0R_TIME_Pos;
 8001fdc:	68fb      	ldr	r3, [r7, #12]
 8001fde:	681a      	ldr	r2, [r3, #0]
 8001fe0:	68bb      	ldr	r3, [r7, #8]
 8001fe2:	331b      	adds	r3, #27
 8001fe4:	011b      	lsls	r3, r3, #4
 8001fe6:	4413      	add	r3, r2
 8001fe8:	3304      	adds	r3, #4
 8001fea:	681b      	ldr	r3, [r3, #0]
 8001fec:	0c1b      	lsrs	r3, r3, #16
 8001fee:	b29a      	uxth	r2, r3
 8001ff0:	687b      	ldr	r3, [r7, #4]
 8001ff2:	615a      	str	r2, [r3, #20]

    /* Get the data */
    aData[0] = (uint8_t)((CAN_RDL0R_DATA0 & hcan->Instance->sFIFOMailBox[RxFifo].RDLR) >> CAN_RDL0R_DATA0_Pos);
 8001ff4:	68fb      	ldr	r3, [r7, #12]
 8001ff6:	681a      	ldr	r2, [r3, #0]
 8001ff8:	68bb      	ldr	r3, [r7, #8]
 8001ffa:	011b      	lsls	r3, r3, #4
 8001ffc:	4413      	add	r3, r2
 8001ffe:	f503 73dc 	add.w	r3, r3, #440	; 0x1b8
 8002002:	681b      	ldr	r3, [r3, #0]
 8002004:	b2da      	uxtb	r2, r3
 8002006:	683b      	ldr	r3, [r7, #0]
 8002008:	701a      	strb	r2, [r3, #0]
    aData[1] = (uint8_t)((CAN_RDL0R_DATA1 & hcan->Instance->sFIFOMailBox[RxFifo].RDLR) >> CAN_RDL0R_DATA1_Pos);
 800200a:	68fb      	ldr	r3, [r7, #12]
 800200c:	681a      	ldr	r2, [r3, #0]
 800200e:	68bb      	ldr	r3, [r7, #8]
 8002010:	011b      	lsls	r3, r3, #4
 8002012:	4413      	add	r3, r2
 8002014:	f503 73dc 	add.w	r3, r3, #440	; 0x1b8
 8002018:	681b      	ldr	r3, [r3, #0]
 800201a:	0a1a      	lsrs	r2, r3, #8
 800201c:	683b      	ldr	r3, [r7, #0]
 800201e:	3301      	adds	r3, #1
 8002020:	b2d2      	uxtb	r2, r2
 8002022:	701a      	strb	r2, [r3, #0]
    aData[2] = (uint8_t)((CAN_RDL0R_DATA2 & hcan->Instance->sFIFOMailBox[RxFifo].RDLR) >> CAN_RDL0R_DATA2_Pos);
 8002024:	68fb      	ldr	r3, [r7, #12]
 8002026:	681a      	ldr	r2, [r3, #0]
 8002028:	68bb      	ldr	r3, [r7, #8]
 800202a:	011b      	lsls	r3, r3, #4
 800202c:	4413      	add	r3, r2
 800202e:	f503 73dc 	add.w	r3, r3, #440	; 0x1b8
 8002032:	681b      	ldr	r3, [r3, #0]
 8002034:	0c1a      	lsrs	r2, r3, #16
 8002036:	683b      	ldr	r3, [r7, #0]
 8002038:	3302      	adds	r3, #2
 800203a:	b2d2      	uxtb	r2, r2
 800203c:	701a      	strb	r2, [r3, #0]
    aData[3] = (uint8_t)((CAN_RDL0R_DATA3 & hcan->Instance->sFIFOMailBox[RxFifo].RDLR) >> CAN_RDL0R_DATA3_Pos);
 800203e:	68fb      	ldr	r3, [r7, #12]
 8002040:	681a      	ldr	r2, [r3, #0]
 8002042:	68bb      	ldr	r3, [r7, #8]
 8002044:	011b      	lsls	r3, r3, #4
 8002046:	4413      	add	r3, r2
 8002048:	f503 73dc 	add.w	r3, r3, #440	; 0x1b8
 800204c:	681b      	ldr	r3, [r3, #0]
 800204e:	0e1a      	lsrs	r2, r3, #24
 8002050:	683b      	ldr	r3, [r7, #0]
 8002052:	3303      	adds	r3, #3
 8002054:	b2d2      	uxtb	r2, r2
 8002056:	701a      	strb	r2, [r3, #0]
    aData[4] = (uint8_t)((CAN_RDH0R_DATA4 & hcan->Instance->sFIFOMailBox[RxFifo].RDHR) >> CAN_RDH0R_DATA4_Pos);
 8002058:	68fb      	ldr	r3, [r7, #12]
 800205a:	681a      	ldr	r2, [r3, #0]
 800205c:	68bb      	ldr	r3, [r7, #8]
 800205e:	011b      	lsls	r3, r3, #4
 8002060:	4413      	add	r3, r2
 8002062:	f503 73de 	add.w	r3, r3, #444	; 0x1bc
 8002066:	681a      	ldr	r2, [r3, #0]
 8002068:	683b      	ldr	r3, [r7, #0]
 800206a:	3304      	adds	r3, #4
 800206c:	b2d2      	uxtb	r2, r2
 800206e:	701a      	strb	r2, [r3, #0]
    aData[5] = (uint8_t)((CAN_RDH0R_DATA5 & hcan->Instance->sFIFOMailBox[RxFifo].RDHR) >> CAN_RDH0R_DATA5_Pos);
 8002070:	68fb      	ldr	r3, [r7, #12]
 8002072:	681a      	ldr	r2, [r3, #0]
 8002074:	68bb      	ldr	r3, [r7, #8]
 8002076:	011b      	lsls	r3, r3, #4
 8002078:	4413      	add	r3, r2
 800207a:	f503 73de 	add.w	r3, r3, #444	; 0x1bc
 800207e:	681b      	ldr	r3, [r3, #0]
 8002080:	0a1a      	lsrs	r2, r3, #8
 8002082:	683b      	ldr	r3, [r7, #0]
 8002084:	3305      	adds	r3, #5
 8002086:	b2d2      	uxtb	r2, r2
 8002088:	701a      	strb	r2, [r3, #0]
    aData[6] = (uint8_t)((CAN_RDH0R_DATA6 & hcan->Instance->sFIFOMailBox[RxFifo].RDHR) >> CAN_RDH0R_DATA6_Pos);
 800208a:	68fb      	ldr	r3, [r7, #12]
 800208c:	681a      	ldr	r2, [r3, #0]
 800208e:	68bb      	ldr	r3, [r7, #8]
 8002090:	011b      	lsls	r3, r3, #4
 8002092:	4413      	add	r3, r2
 8002094:	f503 73de 	add.w	r3, r3, #444	; 0x1bc
 8002098:	681b      	ldr	r3, [r3, #0]
 800209a:	0c1a      	lsrs	r2, r3, #16
 800209c:	683b      	ldr	r3, [r7, #0]
 800209e:	3306      	adds	r3, #6
 80020a0:	b2d2      	uxtb	r2, r2
 80020a2:	701a      	strb	r2, [r3, #0]
    aData[7] = (uint8_t)((CAN_RDH0R_DATA7 & hcan->Instance->sFIFOMailBox[RxFifo].RDHR) >> CAN_RDH0R_DATA7_Pos);
 80020a4:	68fb      	ldr	r3, [r7, #12]
 80020a6:	681a      	ldr	r2, [r3, #0]
 80020a8:	68bb      	ldr	r3, [r7, #8]
 80020aa:	011b      	lsls	r3, r3, #4
 80020ac:	4413      	add	r3, r2
 80020ae:	f503 73de 	add.w	r3, r3, #444	; 0x1bc
 80020b2:	681b      	ldr	r3, [r3, #0]
 80020b4:	0e1a      	lsrs	r2, r3, #24
 80020b6:	683b      	ldr	r3, [r7, #0]
 80020b8:	3307      	adds	r3, #7
 80020ba:	b2d2      	uxtb	r2, r2
 80020bc:	701a      	strb	r2, [r3, #0]

    /* Release the FIFO */
    if (RxFifo == CAN_RX_FIFO0) /* Rx element is assigned to Rx FIFO 0 */
 80020be:	68bb      	ldr	r3, [r7, #8]
 80020c0:	2b00      	cmp	r3, #0
 80020c2:	d108      	bne.n	80020d6 <HAL_CAN_GetRxMessage+0x1f6>
    {
      /* Release RX FIFO 0 */
      SET_BIT(hcan->Instance->RF0R, CAN_RF0R_RFOM0);
 80020c4:	68fb      	ldr	r3, [r7, #12]
 80020c6:	681b      	ldr	r3, [r3, #0]
 80020c8:	68da      	ldr	r2, [r3, #12]
 80020ca:	68fb      	ldr	r3, [r7, #12]
 80020cc:	681b      	ldr	r3, [r3, #0]
 80020ce:	f042 0220 	orr.w	r2, r2, #32
 80020d2:	60da      	str	r2, [r3, #12]
 80020d4:	e007      	b.n	80020e6 <HAL_CAN_GetRxMessage+0x206>
    }
    else /* Rx element is assigned to Rx FIFO 1 */
    {
      /* Release RX FIFO 1 */
      SET_BIT(hcan->Instance->RF1R, CAN_RF1R_RFOM1);
 80020d6:	68fb      	ldr	r3, [r7, #12]
 80020d8:	681b      	ldr	r3, [r3, #0]
 80020da:	691a      	ldr	r2, [r3, #16]
 80020dc:	68fb      	ldr	r3, [r7, #12]
 80020de:	681b      	ldr	r3, [r3, #0]
 80020e0:	f042 0220 	orr.w	r2, r2, #32
 80020e4:	611a      	str	r2, [r3, #16]
    }

    /* Return function status */
    return HAL_OK;
 80020e6:	2300      	movs	r3, #0
 80020e8:	e006      	b.n	80020f8 <HAL_CAN_GetRxMessage+0x218>
  }
  else
  {
    /* Update error code */
    hcan->ErrorCode |= HAL_CAN_ERROR_NOT_INITIALIZED;
 80020ea:	68fb      	ldr	r3, [r7, #12]
 80020ec:	6a5b      	ldr	r3, [r3, #36]	; 0x24
 80020ee:	f443 2280 	orr.w	r2, r3, #262144	; 0x40000
 80020f2:	68fb      	ldr	r3, [r7, #12]
 80020f4:	625a      	str	r2, [r3, #36]	; 0x24

    return HAL_ERROR;
 80020f6:	2301      	movs	r3, #1
  }
}
 80020f8:	4618      	mov	r0, r3
 80020fa:	371c      	adds	r7, #28
 80020fc:	46bd      	mov	sp, r7
 80020fe:	bc80      	pop	{r7}
 8002100:	4770      	bx	lr

08002102 <HAL_CAN_ActivateNotification>:
  * @param  ActiveITs indicates which interrupts will be enabled.
  *         This parameter can be any combination of @arg CAN_Interrupts.
  * @retval HAL status
  */
HAL_StatusTypeDef HAL_CAN_ActivateNotification(CAN_HandleTypeDef *hcan, uint32_t ActiveITs)
{
 8002102:	b480      	push	{r7}
 8002104:	b085      	sub	sp, #20
 8002106:	af00      	add	r7, sp, #0
 8002108:	6078      	str	r0, [r7, #4]
 800210a:	6039      	str	r1, [r7, #0]
  HAL_CAN_StateTypeDef state = hcan->State;
 800210c:	687b      	ldr	r3, [r7, #4]
 800210e:	f893 3020 	ldrb.w	r3, [r3, #32]
 8002112:	73fb      	strb	r3, [r7, #15]

  /* Check function parameters */
  assert_param(IS_CAN_IT(ActiveITs));

  if ((state == HAL_CAN_STATE_READY) ||
 8002114:	7bfb      	ldrb	r3, [r7, #15]
 8002116:	2b01      	cmp	r3, #1
 8002118:	d002      	beq.n	8002120 <HAL_CAN_ActivateNotification+0x1e>
 800211a:	7bfb      	ldrb	r3, [r7, #15]
 800211c:	2b02      	cmp	r3, #2
 800211e:	d109      	bne.n	8002134 <HAL_CAN_ActivateNotification+0x32>
      (state == HAL_CAN_STATE_LISTENING))
  {
    /* Enable the selected interrupts */
    __HAL_CAN_ENABLE_IT(hcan, ActiveITs);
 8002120:	687b      	ldr	r3, [r7, #4]
 8002122:	681b      	ldr	r3, [r3, #0]
 8002124:	6959      	ldr	r1, [r3, #20]
 8002126:	687b      	ldr	r3, [r7, #4]
 8002128:	681b      	ldr	r3, [r3, #0]
 800212a:	683a      	ldr	r2, [r7, #0]
 800212c:	430a      	orrs	r2, r1
 800212e:	615a      	str	r2, [r3, #20]

    /* Return function status */
    return HAL_OK;
 8002130:	2300      	movs	r3, #0
 8002132:	e006      	b.n	8002142 <HAL_CAN_ActivateNotification+0x40>
  }
  else
  {
    /* Update error code */
    hcan->ErrorCode |= HAL_CAN_ERROR_NOT_INITIALIZED;
 8002134:	687b      	ldr	r3, [r7, #4]
 8002136:	6a5b      	ldr	r3, [r3, #36]	; 0x24
 8002138:	f443 2280 	orr.w	r2, r3, #262144	; 0x40000
 800213c:	687b      	ldr	r3, [r7, #4]
 800213e:	625a      	str	r2, [r3, #36]	; 0x24

    return HAL_ERROR;
 8002140:	2301      	movs	r3, #1
  }
}
 8002142:	4618      	mov	r0, r3
 8002144:	3714      	adds	r7, #20
 8002146:	46bd      	mov	sp, r7
 8002148:	bc80      	pop	{r7}
 800214a:	4770      	bx	lr

0800214c <HAL_CAN_IRQHandler>:
  * @param  hcan pointer to a CAN_HandleTypeDef structure that contains
  *         the configuration information for the specified CAN.
  * @retval None
  */
void HAL_CAN_IRQHandler(CAN_HandleTypeDef *hcan)
{
 800214c:	b580      	push	{r7, lr}
 800214e:	b08a      	sub	sp, #40	; 0x28
 8002150:	af00      	add	r7, sp, #0
 8002152:	6078      	str	r0, [r7, #4]
  uint32_t errorcode = HAL_CAN_ERROR_NONE;
 8002154:	2300      	movs	r3, #0
 8002156:	627b      	str	r3, [r7, #36]	; 0x24
  uint32_t interrupts = READ_REG(hcan->Instance->IER);
 8002158:	687b      	ldr	r3, [r7, #4]
 800215a:	681b      	ldr	r3, [r3, #0]
 800215c:	695b      	ldr	r3, [r3, #20]
 800215e:	623b      	str	r3, [r7, #32]
  uint32_t msrflags = READ_REG(hcan->Instance->MSR);
 8002160:	687b      	ldr	r3, [r7, #4]
 8002162:	681b      	ldr	r3, [r3, #0]
 8002164:	685b      	ldr	r3, [r3, #4]
 8002166:	61fb      	str	r3, [r7, #28]
  uint32_t tsrflags = READ_REG(hcan->Instance->TSR);
 8002168:	687b      	ldr	r3, [r7, #4]
 800216a:	681b      	ldr	r3, [r3, #0]
 800216c:	689b      	ldr	r3, [r3, #8]
 800216e:	61bb      	str	r3, [r7, #24]
  uint32_t rf0rflags = READ_REG(hcan->Instance->RF0R);
 8002170:	687b      	ldr	r3, [r7, #4]
 8002172:	681b      	ldr	r3, [r3, #0]
 8002174:	68db      	ldr	r3, [r3, #12]
 8002176:	617b      	str	r3, [r7, #20]
  uint32_t rf1rflags = READ_REG(hcan->Instance->RF1R);
 8002178:	687b      	ldr	r3, [r7, #4]
 800217a:	681b      	ldr	r3, [r3, #0]
 800217c:	691b      	ldr	r3, [r3, #16]
 800217e:	613b      	str	r3, [r7, #16]
  uint32_t esrflags = READ_REG(hcan->Instance->ESR);
 8002180:	687b      	ldr	r3, [r7, #4]
 8002182:	681b      	ldr	r3, [r3, #0]
 8002184:	699b      	ldr	r3, [r3, #24]
 8002186:	60fb      	str	r3, [r7, #12]

  /* Transmit Mailbox empty interrupt management *****************************/
  if ((interrupts & CAN_IT_TX_MAILBOX_EMPTY) != 0U)
 8002188:	6a3b      	ldr	r3, [r7, #32]
 800218a:	f003 0301 	and.w	r3, r3, #1
 800218e:	2b00      	cmp	r3, #0
 8002190:	d07c      	beq.n	800228c <HAL_CAN_IRQHandler+0x140>
  {
    /* Transmit Mailbox 0 management *****************************************/
    if ((tsrflags & CAN_TSR_RQCP0) != 0U)
 8002192:	69bb      	ldr	r3, [r7, #24]
 8002194:	f003 0301 	and.w	r3, r3, #1
 8002198:	2b00      	cmp	r3, #0
 800219a:	d023      	beq.n	80021e4 <HAL_CAN_IRQHandler+0x98>
    {
      /* Clear the Transmission Complete flag (and TXOK0,ALST0,TERR0 bits) */
      __HAL_CAN_CLEAR_FLAG(hcan, CAN_FLAG_RQCP0);
 800219c:	687b      	ldr	r3, [r7, #4]
 800219e:	681b      	ldr	r3, [r3, #0]
 80021a0:	2201      	movs	r2, #1
 80021a2:	609a      	str	r2, [r3, #8]

      if ((tsrflags & CAN_TSR_TXOK0) != 0U)
 80021a4:	69bb      	ldr	r3, [r7, #24]
 80021a6:	f003 0302 	and.w	r3, r3, #2
 80021aa:	2b00      	cmp	r3, #0
 80021ac:	d003      	beq.n	80021b6 <HAL_CAN_IRQHandler+0x6a>
#if USE_HAL_CAN_REGISTER_CALLBACKS == 1
        /* Call registered callback*/
        hcan->TxMailbox0CompleteCallback(hcan);
#else
        /* Call weak (surcharged) callback */
        HAL_CAN_TxMailbox0CompleteCallback(hcan);
 80021ae:	6878      	ldr	r0, [r7, #4]
 80021b0:	f000 f97d 	bl	80024ae <HAL_CAN_TxMailbox0CompleteCallback>
 80021b4:	e016      	b.n	80021e4 <HAL_CAN_IRQHandler+0x98>
#endif /* USE_HAL_CAN_REGISTER_CALLBACKS */
      }
      else
      {
        if ((tsrflags & CAN_TSR_ALST0) != 0U)
 80021b6:	69bb      	ldr	r3, [r7, #24]
 80021b8:	f003 0304 	and.w	r3, r3, #4
 80021bc:	2b00      	cmp	r3, #0
 80021be:	d004      	beq.n	80021ca <HAL_CAN_IRQHandler+0x7e>
        {
          /* Update error code */
          errorcode |= HAL_CAN_ERROR_TX_ALST0;
 80021c0:	6a7b      	ldr	r3, [r7, #36]	; 0x24
 80021c2:	f443 6300 	orr.w	r3, r3, #2048	; 0x800
 80021c6:	627b      	str	r3, [r7, #36]	; 0x24
 80021c8:	e00c      	b.n	80021e4 <HAL_CAN_IRQHandler+0x98>
        }
        else if ((tsrflags & CAN_TSR_TERR0) != 0U)
 80021ca:	69bb      	ldr	r3, [r7, #24]
 80021cc:	f003 0308 	and.w	r3, r3, #8
 80021d0:	2b00      	cmp	r3, #0
 80021d2:	d004      	beq.n	80021de <HAL_CAN_IRQHandler+0x92>
        {
          /* Update error code */
          errorcode |= HAL_CAN_ERROR_TX_TERR0;
 80021d4:	6a7b      	ldr	r3, [r7, #36]	; 0x24
 80021d6:	f443 5380 	orr.w	r3, r3, #4096	; 0x1000
 80021da:	627b      	str	r3, [r7, #36]	; 0x24
 80021dc:	e002      	b.n	80021e4 <HAL_CAN_IRQHandler+0x98>
#if USE_HAL_CAN_REGISTER_CALLBACKS == 1
          /* Call registered callback*/
          hcan->TxMailbox0AbortCallback(hcan);
#else
          /* Call weak (surcharged) callback */
          HAL_CAN_TxMailbox0AbortCallback(hcan);
 80021de:	6878      	ldr	r0, [r7, #4]
 80021e0:	f000 f980 	bl	80024e4 <HAL_CAN_TxMailbox0AbortCallback>
        }
      }
    }

    /* Transmit Mailbox 1 management *****************************************/
    if ((tsrflags & CAN_TSR_RQCP1) != 0U)
 80021e4:	69bb      	ldr	r3, [r7, #24]
 80021e6:	f403 7380 	and.w	r3, r3, #256	; 0x100
 80021ea:	2b00      	cmp	r3, #0
 80021ec:	d024      	beq.n	8002238 <HAL_CAN_IRQHandler+0xec>
    {
      /* Clear the Transmission Complete flag (and TXOK1,ALST1,TERR1 bits) */
      __HAL_CAN_CLEAR_FLAG(hcan, CAN_FLAG_RQCP1);
 80021ee:	687b      	ldr	r3, [r7, #4]
 80021f0:	681b      	ldr	r3, [r3, #0]
 80021f2:	f44f 7280 	mov.w	r2, #256	; 0x100
 80021f6:	609a      	str	r2, [r3, #8]

      if ((tsrflags & CAN_TSR_TXOK1) != 0U)
 80021f8:	69bb      	ldr	r3, [r7, #24]
 80021fa:	f403 7300 	and.w	r3, r3, #512	; 0x200
 80021fe:	2b00      	cmp	r3, #0
 8002200:	d003      	beq.n	800220a <HAL_CAN_IRQHandler+0xbe>
#if USE_HAL_CAN_REGISTER_CALLBACKS == 1
        /* Call registered callback*/
        hcan->TxMailbox1CompleteCallback(hcan);
#else
        /* Call weak (surcharged) callback */
        HAL_CAN_TxMailbox1CompleteCallback(hcan);
 8002202:	6878      	ldr	r0, [r7, #4]
 8002204:	f000 f95c 	bl	80024c0 <HAL_CAN_TxMailbox1CompleteCallback>
 8002208:	e016      	b.n	8002238 <HAL_CAN_IRQHandler+0xec>
#endif /* USE_HAL_CAN_REGISTER_CALLBACKS */
      }
      else
      {
        if ((tsrflags & CAN_TSR_ALST1) != 0U)
 800220a:	69bb      	ldr	r3, [r7, #24]
 800220c:	f403 6380 	and.w	r3, r3, #1024	; 0x400
 8002210:	2b00      	cmp	r3, #0
 8002212:	d004      	beq.n	800221e <HAL_CAN_IRQHandler+0xd2>
        {
          /* Update error code */
          errorcode |= HAL_CAN_ERROR_TX_ALST1;
 8002214:	6a7b      	ldr	r3, [r7, #36]	; 0x24
 8002216:	f443 5300 	orr.w	r3, r3, #8192	; 0x2000
 800221a:	627b      	str	r3, [r7, #36]	; 0x24
 800221c:	e00c      	b.n	8002238 <HAL_CAN_IRQHandler+0xec>
        }
        else if ((tsrflags & CAN_TSR_TERR1) != 0U)
 800221e:	69bb      	ldr	r3, [r7, #24]
 8002220:	f403 6300 	and.w	r3, r3, #2048	; 0x800
 8002224:	2b00      	cmp	r3, #0
 8002226:	d004      	beq.n	8002232 <HAL_CAN_IRQHandler+0xe6>
        {
          /* Update error code */
          errorcode |= HAL_CAN_ERROR_TX_TERR1;
 8002228:	6a7b      	ldr	r3, [r7, #36]	; 0x24
 800222a:	f443 4380 	orr.w	r3, r3, #16384	; 0x4000
 800222e:	627b      	str	r3, [r7, #36]	; 0x24
 8002230:	e002      	b.n	8002238 <HAL_CAN_IRQHandler+0xec>
#if USE_HAL_CAN_REGISTER_CALLBACKS == 1
          /* Call registered callback*/
          hcan->TxMailbox1AbortCallback(hcan);
#else
          /* Call weak (surcharged) callback */
          HAL_CAN_TxMailbox1AbortCallback(hcan);
 8002232:	6878      	ldr	r0, [r7, #4]
 8002234:	f000 f95f 	bl	80024f6 <HAL_CAN_TxMailbox1AbortCallback>
        }
      }
    }

    /* Transmit Mailbox 2 management *****************************************/
    if ((tsrflags & CAN_TSR_RQCP2) != 0U)
 8002238:	69bb      	ldr	r3, [r7, #24]
 800223a:	f403 3380 	and.w	r3, r3, #65536	; 0x10000
 800223e:	2b00      	cmp	r3, #0
 8002240:	d024      	beq.n	800228c <HAL_CAN_IRQHandler+0x140>
    {
      /* Clear the Transmission Complete flag (and TXOK2,ALST2,TERR2 bits) */
      __HAL_CAN_CLEAR_FLAG(hcan, CAN_FLAG_RQCP2);
 8002242:	687b      	ldr	r3, [r7, #4]
 8002244:	681b      	ldr	r3, [r3, #0]
 8002246:	f44f 3280 	mov.w	r2, #65536	; 0x10000
 800224a:	609a      	str	r2, [r3, #8]

      if ((tsrflags & CAN_TSR_TXOK2) != 0U)
 800224c:	69bb      	ldr	r3, [r7, #24]
 800224e:	f403 3300 	and.w	r3, r3, #131072	; 0x20000
 8002252:	2b00      	cmp	r3, #0
 8002254:	d003      	beq.n	800225e <HAL_CAN_IRQHandler+0x112>
#if USE_HAL_CAN_REGISTER_CALLBACKS == 1
        /* Call registered callback*/
        hcan->TxMailbox2CompleteCallback(hcan);
#else
        /* Call weak (surcharged) callback */
        HAL_CAN_TxMailbox2CompleteCallback(hcan);
 8002256:	6878      	ldr	r0, [r7, #4]
 8002258:	f000 f93b 	bl	80024d2 <HAL_CAN_TxMailbox2CompleteCallback>
 800225c:	e016      	b.n	800228c <HAL_CAN_IRQHandler+0x140>
#endif /* USE_HAL_CAN_REGISTER_CALLBACKS */
      }
      else
      {
        if ((tsrflags & CAN_TSR_ALST2) != 0U)
 800225e:	69bb      	ldr	r3, [r7, #24]
 8002260:	f403 2380 	and.w	r3, r3, #262144	; 0x40000
 8002264:	2b00      	cmp	r3, #0
 8002266:	d004      	beq.n	8002272 <HAL_CAN_IRQHandler+0x126>
        {
          /* Update error code */
          errorcode |= HAL_CAN_ERROR_TX_ALST2;
 8002268:	6a7b      	ldr	r3, [r7, #36]	; 0x24
 800226a:	f443 4300 	orr.w	r3, r3, #32768	; 0x8000
 800226e:	627b      	str	r3, [r7, #36]	; 0x24
 8002270:	e00c      	b.n	800228c <HAL_CAN_IRQHandler+0x140>
        }
        else if ((tsrflags & CAN_TSR_TERR2) != 0U)
 8002272:	69bb      	ldr	r3, [r7, #24]
 8002274:	f403 2300 	and.w	r3, r3, #524288	; 0x80000
 8002278:	2b00      	cmp	r3, #0
 800227a:	d004      	beq.n	8002286 <HAL_CAN_IRQHandler+0x13a>
        {
          /* Update error code */
          errorcode |= HAL_CAN_ERROR_TX_TERR2;
 800227c:	6a7b      	ldr	r3, [r7, #36]	; 0x24
 800227e:	f443 3380 	orr.w	r3, r3, #65536	; 0x10000
 8002282:	627b      	str	r3, [r7, #36]	; 0x24
 8002284:	e002      	b.n	800228c <HAL_CAN_IRQHandler+0x140>
#if USE_HAL_CAN_REGISTER_CALLBACKS == 1
          /* Call registered callback*/
          hcan->TxMailbox2AbortCallback(hcan);
#else
          /* Call weak (surcharged) callback */
          HAL_CAN_TxMailbox2AbortCallback(hcan);
 8002286:	6878      	ldr	r0, [r7, #4]
 8002288:	f000 f93e 	bl	8002508 <HAL_CAN_TxMailbox2AbortCallback>
      }
    }
  }

  /* Receive FIFO 0 overrun interrupt management *****************************/
  if ((interrupts & CAN_IT_RX_FIFO0_OVERRUN) != 0U)
 800228c:	6a3b      	ldr	r3, [r7, #32]
 800228e:	f003 0308 	and.w	r3, r3, #8
 8002292:	2b00      	cmp	r3, #0
 8002294:	d00c      	beq.n	80022b0 <HAL_CAN_IRQHandler+0x164>
  {
    if ((rf0rflags & CAN_RF0R_FOVR0) != 0U)
 8002296:	697b      	ldr	r3, [r7, #20]
 8002298:	f003 0310 	and.w	r3, r3, #16
 800229c:	2b00      	cmp	r3, #0
 800229e:	d007      	beq.n	80022b0 <HAL_CAN_IRQHandler+0x164>
    {
      /* Set CAN error code to Rx Fifo 0 overrun error */
      errorcode |= HAL_CAN_ERROR_RX_FOV0;
 80022a0:	6a7b      	ldr	r3, [r7, #36]	; 0x24
 80022a2:	f443 7300 	orr.w	r3, r3, #512	; 0x200
 80022a6:	627b      	str	r3, [r7, #36]	; 0x24

      /* Clear FIFO0 Overrun Flag */
      __HAL_CAN_CLEAR_FLAG(hcan, CAN_FLAG_FOV0);
 80022a8:	687b      	ldr	r3, [r7, #4]
 80022aa:	681b      	ldr	r3, [r3, #0]
 80022ac:	2210      	movs	r2, #16
 80022ae:	60da      	str	r2, [r3, #12]
    }
  }

  /* Receive FIFO 0 full interrupt management ********************************/
  if ((interrupts & CAN_IT_RX_FIFO0_FULL) != 0U)
 80022b0:	6a3b      	ldr	r3, [r7, #32]
 80022b2:	f003 0304 	and.w	r3, r3, #4
 80022b6:	2b00      	cmp	r3, #0
 80022b8:	d00b      	beq.n	80022d2 <HAL_CAN_IRQHandler+0x186>
  {
    if ((rf0rflags & CAN_RF0R_FULL0) != 0U)
 80022ba:	697b      	ldr	r3, [r7, #20]
 80022bc:	f003 0308 	and.w	r3, r3, #8
 80022c0:	2b00      	cmp	r3, #0
 80022c2:	d006      	beq.n	80022d2 <HAL_CAN_IRQHandler+0x186>
    {
      /* Clear FIFO 0 full Flag */
      __HAL_CAN_CLEAR_FLAG(hcan, CAN_FLAG_FF0);
 80022c4:	687b      	ldr	r3, [r7, #4]
 80022c6:	681b      	ldr	r3, [r3, #0]
 80022c8:	2208      	movs	r2, #8
 80022ca:	60da      	str	r2, [r3, #12]
#if USE_HAL_CAN_REGISTER_CALLBACKS == 1
      /* Call registered callback*/
      hcan->RxFifo0FullCallback(hcan);
#else
      /* Call weak (surcharged) callback */
      HAL_CAN_RxFifo0FullCallback(hcan);
 80022cc:	6878      	ldr	r0, [r7, #4]
 80022ce:	f000 f924 	bl	800251a <HAL_CAN_RxFifo0FullCallback>
#endif /* USE_HAL_CAN_REGISTER_CALLBACKS */
    }
  }

  /* Receive FIFO 0 message pending interrupt management *********************/
  if ((interrupts & CAN_IT_RX_FIFO0_MSG_PENDING) != 0U)
 80022d2:	6a3b      	ldr	r3, [r7, #32]
 80022d4:	f003 0302 	and.w	r3, r3, #2
 80022d8:	2b00      	cmp	r3, #0
 80022da:	d009      	beq.n	80022f0 <HAL_CAN_IRQHandler+0x1a4>
  {
    /* Check if message is still pending */
    if ((hcan->Instance->RF0R & CAN_RF0R_FMP0) != 0U)
 80022dc:	687b      	ldr	r3, [r7, #4]
 80022de:	681b      	ldr	r3, [r3, #0]
 80022e0:	68db      	ldr	r3, [r3, #12]
 80022e2:	f003 0303 	and.w	r3, r3, #3
 80022e6:	2b00      	cmp	r3, #0
 80022e8:	d002      	beq.n	80022f0 <HAL_CAN_IRQHandler+0x1a4>
#if USE_HAL_CAN_REGISTER_CALLBACKS == 1
      /* Call registered callback*/
      hcan->RxFifo0MsgPendingCallback(hcan);
#else
      /* Call weak (surcharged) callback */
      HAL_CAN_RxFifo0MsgPendingCallback(hcan);
 80022ea:	6878      	ldr	r0, [r7, #4]
 80022ec:	f7fe fb4e 	bl	800098c <HAL_CAN_RxFifo0MsgPendingCallback>
#endif /* USE_HAL_CAN_REGISTER_CALLBACKS */
    }
  }

  /* Receive FIFO 1 overrun interrupt management *****************************/
  if ((interrupts & CAN_IT_RX_FIFO1_OVERRUN) != 0U)
 80022f0:	6a3b      	ldr	r3, [r7, #32]
 80022f2:	f003 0340 	and.w	r3, r3, #64	; 0x40
 80022f6:	2b00      	cmp	r3, #0
 80022f8:	d00c      	beq.n	8002314 <HAL_CAN_IRQHandler+0x1c8>
  {
    if ((rf1rflags & CAN_RF1R_FOVR1) != 0U)
 80022fa:	693b      	ldr	r3, [r7, #16]
 80022fc:	f003 0310 	and.w	r3, r3, #16
 8002300:	2b00      	cmp	r3, #0
 8002302:	d007      	beq.n	8002314 <HAL_CAN_IRQHandler+0x1c8>
    {
      /* Set CAN error code to Rx Fifo 1 overrun error */
      errorcode |= HAL_CAN_ERROR_RX_FOV1;
 8002304:	6a7b      	ldr	r3, [r7, #36]	; 0x24
 8002306:	f443 6380 	orr.w	r3, r3, #1024	; 0x400
 800230a:	627b      	str	r3, [r7, #36]	; 0x24

      /* Clear FIFO1 Overrun Flag */
      __HAL_CAN_CLEAR_FLAG(hcan, CAN_FLAG_FOV1);
 800230c:	687b      	ldr	r3, [r7, #4]
 800230e:	681b      	ldr	r3, [r3, #0]
 8002310:	2210      	movs	r2, #16
 8002312:	611a      	str	r2, [r3, #16]
    }
  }

  /* Receive FIFO 1 full interrupt management ********************************/
  if ((interrupts & CAN_IT_RX_FIFO1_FULL) != 0U)
 8002314:	6a3b      	ldr	r3, [r7, #32]
 8002316:	f003 0320 	and.w	r3, r3, #32
 800231a:	2b00      	cmp	r3, #0
 800231c:	d00b      	beq.n	8002336 <HAL_CAN_IRQHandler+0x1ea>
  {
    if ((rf1rflags & CAN_RF1R_FULL1) != 0U)
 800231e:	693b      	ldr	r3, [r7, #16]
 8002320:	f003 0308 	and.w	r3, r3, #8
 8002324:	2b00      	cmp	r3, #0
 8002326:	d006      	beq.n	8002336 <HAL_CAN_IRQHandler+0x1ea>
    {
      /* Clear FIFO 1 full Flag */
      __HAL_CAN_CLEAR_FLAG(hcan, CAN_FLAG_FF1);
 8002328:	687b      	ldr	r3, [r7, #4]
 800232a:	681b      	ldr	r3, [r3, #0]
 800232c:	2208      	movs	r2, #8
 800232e:	611a      	str	r2, [r3, #16]
#if USE_HAL_CAN_REGISTER_CALLBACKS == 1
      /* Call registered callback*/
      hcan->RxFifo1FullCallback(hcan);
#else
      /* Call weak (surcharged) callback */
      HAL_CAN_RxFifo1FullCallback(hcan);
 8002330:	6878      	ldr	r0, [r7, #4]
 8002332:	f000 f904 	bl	800253e <HAL_CAN_RxFifo1FullCallback>
#endif /* USE_HAL_CAN_REGISTER_CALLBACKS */
    }
  }

  /* Receive FIFO 1 message pending interrupt management *********************/
  if ((interrupts & CAN_IT_RX_FIFO1_MSG_PENDING) != 0U)
 8002336:	6a3b      	ldr	r3, [r7, #32]
 8002338:	f003 0310 	and.w	r3, r3, #16
 800233c:	2b00      	cmp	r3, #0
 800233e:	d009      	beq.n	8002354 <HAL_CAN_IRQHandler+0x208>
  {
    /* Check if message is still pending */
    if ((hcan->Instance->RF1R & CAN_RF1R_FMP1) != 0U)
 8002340:	687b      	ldr	r3, [r7, #4]
 8002342:	681b      	ldr	r3, [r3, #0]
 8002344:	691b      	ldr	r3, [r3, #16]
 8002346:	f003 0303 	and.w	r3, r3, #3
 800234a:	2b00      	cmp	r3, #0
 800234c:	d002      	beq.n	8002354 <HAL_CAN_IRQHandler+0x208>
#if USE_HAL_CAN_REGISTER_CALLBACKS == 1
      /* Call registered callback*/
      hcan->RxFifo1MsgPendingCallback(hcan);
#else
      /* Call weak (surcharged) callback */
      HAL_CAN_RxFifo1MsgPendingCallback(hcan);
 800234e:	6878      	ldr	r0, [r7, #4]
 8002350:	f000 f8ec 	bl	800252c <HAL_CAN_RxFifo1MsgPendingCallback>
#endif /* USE_HAL_CAN_REGISTER_CALLBACKS */
    }
  }

  /* Sleep interrupt management *********************************************/
  if ((interrupts & CAN_IT_SLEEP_ACK) != 0U)
 8002354:	6a3b      	ldr	r3, [r7, #32]
 8002356:	f403 3300 	and.w	r3, r3, #131072	; 0x20000
 800235a:	2b00      	cmp	r3, #0
 800235c:	d00b      	beq.n	8002376 <HAL_CAN_IRQHandler+0x22a>
  {
    if ((msrflags & CAN_MSR_SLAKI) != 0U)
 800235e:	69fb      	ldr	r3, [r7, #28]
 8002360:	f003 0310 	and.w	r3, r3, #16
 8002364:	2b00      	cmp	r3, #0
 8002366:	d006      	beq.n	8002376 <HAL_CAN_IRQHandler+0x22a>
    {
      /* Clear Sleep interrupt Flag */
      __HAL_CAN_CLEAR_FLAG(hcan, CAN_FLAG_SLAKI);
 8002368:	687b      	ldr	r3, [r7, #4]
 800236a:	681b      	ldr	r3, [r3, #0]
 800236c:	2210      	movs	r2, #16
 800236e:	605a      	str	r2, [r3, #4]
#if USE_HAL_CAN_REGISTER_CALLBACKS == 1
      /* Call registered callback*/
      hcan->SleepCallback(hcan);
#else
      /* Call weak (surcharged) callback */
      HAL_CAN_SleepCallback(hcan);
 8002370:	6878      	ldr	r0, [r7, #4]
 8002372:	f000 f8ed 	bl	8002550 <HAL_CAN_SleepCallback>
#endif /* USE_HAL_CAN_REGISTER_CALLBACKS */
    }
  }

  /* WakeUp interrupt management *********************************************/
  if ((interrupts & CAN_IT_WAKEUP) != 0U)
 8002376:	6a3b      	ldr	r3, [r7, #32]
 8002378:	f403 3380 	and.w	r3, r3, #65536	; 0x10000
 800237c:	2b00      	cmp	r3, #0
 800237e:	d00b      	beq.n	8002398 <HAL_CAN_IRQHandler+0x24c>
  {
    if ((msrflags & CAN_MSR_WKUI) != 0U)
 8002380:	69fb      	ldr	r3, [r7, #28]
 8002382:	f003 0308 	and.w	r3, r3, #8
 8002386:	2b00      	cmp	r3, #0
 8002388:	d006      	beq.n	8002398 <HAL_CAN_IRQHandler+0x24c>
    {
      /* Clear WakeUp Flag */
      __HAL_CAN_CLEAR_FLAG(hcan, CAN_FLAG_WKU);
 800238a:	687b      	ldr	r3, [r7, #4]
 800238c:	681b      	ldr	r3, [r3, #0]
 800238e:	2208      	movs	r2, #8
 8002390:	605a      	str	r2, [r3, #4]
#if USE_HAL_CAN_REGISTER_CALLBACKS == 1
      /* Call registered callback*/
      hcan->WakeUpFromRxMsgCallback(hcan);
#else
      /* Call weak (surcharged) callback */
      HAL_CAN_WakeUpFromRxMsgCallback(hcan);
 8002392:	6878      	ldr	r0, [r7, #4]
 8002394:	f000 f8e5 	bl	8002562 <HAL_CAN_WakeUpFromRxMsgCallback>
#endif /* USE_HAL_CAN_REGISTER_CALLBACKS */
    }
  }

  /* Error interrupts management *********************************************/
  if ((interrupts & CAN_IT_ERROR) != 0U)
 8002398:	6a3b      	ldr	r3, [r7, #32]
 800239a:	f403 4300 	and.w	r3, r3, #32768	; 0x8000
 800239e:	2b00      	cmp	r3, #0
 80023a0:	d075      	beq.n	800248e <HAL_CAN_IRQHandler+0x342>
  {
    if ((msrflags & CAN_MSR_ERRI) != 0U)
 80023a2:	69fb      	ldr	r3, [r7, #28]
 80023a4:	f003 0304 	and.w	r3, r3, #4
 80023a8:	2b00      	cmp	r3, #0
 80023aa:	d06c      	beq.n	8002486 <HAL_CAN_IRQHandler+0x33a>
    {
      /* Check Error Warning Flag */
      if (((interrupts & CAN_IT_ERROR_WARNING) != 0U) &&
 80023ac:	6a3b      	ldr	r3, [r7, #32]
 80023ae:	f403 7380 	and.w	r3, r3, #256	; 0x100
 80023b2:	2b00      	cmp	r3, #0
 80023b4:	d008      	beq.n	80023c8 <HAL_CAN_IRQHandler+0x27c>
          ((esrflags & CAN_ESR_EWGF) != 0U))
 80023b6:	68fb      	ldr	r3, [r7, #12]
 80023b8:	f003 0301 	and.w	r3, r3, #1
      if (((interrupts & CAN_IT_ERROR_WARNING) != 0U) &&
 80023bc:	2b00      	cmp	r3, #0
 80023be:	d003      	beq.n	80023c8 <HAL_CAN_IRQHandler+0x27c>
      {
        /* Set CAN error code to Error Warning */
        errorcode |= HAL_CAN_ERROR_EWG;
 80023c0:	6a7b      	ldr	r3, [r7, #36]	; 0x24
 80023c2:	f043 0301 	orr.w	r3, r3, #1
 80023c6:	627b      	str	r3, [r7, #36]	; 0x24

        /* No need for clear of Error Warning Flag as read-only */
      }

      /* Check Error Passive Flag */
      if (((interrupts & CAN_IT_ERROR_PASSIVE) != 0U) &&
 80023c8:	6a3b      	ldr	r3, [r7, #32]
 80023ca:	f403 7300 	and.w	r3, r3, #512	; 0x200
 80023ce:	2b00      	cmp	r3, #0
 80023d0:	d008      	beq.n	80023e4 <HAL_CAN_IRQHandler+0x298>
          ((esrflags & CAN_ESR_EPVF) != 0U))
 80023d2:	68fb      	ldr	r3, [r7, #12]
 80023d4:	f003 0302 	and.w	r3, r3, #2
      if (((interrupts & CAN_IT_ERROR_PASSIVE) != 0U) &&
 80023d8:	2b00      	cmp	r3, #0
 80023da:	d003      	beq.n	80023e4 <HAL_CAN_IRQHandler+0x298>
      {
        /* Set CAN error code to Error Passive */
        errorcode |= HAL_CAN_ERROR_EPV;
 80023dc:	6a7b      	ldr	r3, [r7, #36]	; 0x24
 80023de:	f043 0302 	orr.w	r3, r3, #2
 80023e2:	627b      	str	r3, [r7, #36]	; 0x24

        /* No need for clear of Error Passive Flag as read-only */
      }

      /* Check Bus-off Flag */
      if (((interrupts & CAN_IT_BUSOFF) != 0U) &&
 80023e4:	6a3b      	ldr	r3, [r7, #32]
 80023e6:	f403 6380 	and.w	r3, r3, #1024	; 0x400
 80023ea:	2b00      	cmp	r3, #0
 80023ec:	d008      	beq.n	8002400 <HAL_CAN_IRQHandler+0x2b4>
          ((esrflags & CAN_ESR_BOFF) != 0U))
 80023ee:	68fb      	ldr	r3, [r7, #12]
 80023f0:	f003 0304 	and.w	r3, r3, #4
      if (((interrupts & CAN_IT_BUSOFF) != 0U) &&
 80023f4:	2b00      	cmp	r3, #0
 80023f6:	d003      	beq.n	8002400 <HAL_CAN_IRQHandler+0x2b4>
      {
        /* Set CAN error code to Bus-Off */
        errorcode |= HAL_CAN_ERROR_BOF;
 80023f8:	6a7b      	ldr	r3, [r7, #36]	; 0x24
 80023fa:	f043 0304 	orr.w	r3, r3, #4
 80023fe:	627b      	str	r3, [r7, #36]	; 0x24

        /* No need for clear of Error Bus-Off as read-only */
      }

      /* Check Last Error Code Flag */
      if (((interrupts & CAN_IT_LAST_ERROR_CODE) != 0U) &&
 8002400:	6a3b      	ldr	r3, [r7, #32]
 8002402:	f403 6300 	and.w	r3, r3, #2048	; 0x800
 8002406:	2b00      	cmp	r3, #0
 8002408:	d03d      	beq.n	8002486 <HAL_CAN_IRQHandler+0x33a>
          ((esrflags & CAN_ESR_LEC) != 0U))
 800240a:	68fb      	ldr	r3, [r7, #12]
 800240c:	f003 0370 	and.w	r3, r3, #112	; 0x70
      if (((interrupts & CAN_IT_LAST_ERROR_CODE) != 0U) &&
 8002410:	2b00      	cmp	r3, #0
 8002412:	d038      	beq.n	8002486 <HAL_CAN_IRQHandler+0x33a>
      {
        switch (esrflags & CAN_ESR_LEC)
 8002414:	68fb      	ldr	r3, [r7, #12]
 8002416:	f003 0370 	and.w	r3, r3, #112	; 0x70
 800241a:	2b30      	cmp	r3, #48	; 0x30
 800241c:	d017      	beq.n	800244e <HAL_CAN_IRQHandler+0x302>
 800241e:	2b30      	cmp	r3, #48	; 0x30
 8002420:	d804      	bhi.n	800242c <HAL_CAN_IRQHandler+0x2e0>
 8002422:	2b10      	cmp	r3, #16
 8002424:	d009      	beq.n	800243a <HAL_CAN_IRQHandler+0x2ee>
 8002426:	2b20      	cmp	r3, #32
 8002428:	d00c      	beq.n	8002444 <HAL_CAN_IRQHandler+0x2f8>
          case (CAN_ESR_LEC_2 | CAN_ESR_LEC_1):
            /* Set CAN error code to CRC error */
            errorcode |= HAL_CAN_ERROR_CRC;
            break;
          default:
            break;
 800242a:	e024      	b.n	8002476 <HAL_CAN_IRQHandler+0x32a>
        switch (esrflags & CAN_ESR_LEC)
 800242c:	2b50      	cmp	r3, #80	; 0x50
 800242e:	d018      	beq.n	8002462 <HAL_CAN_IRQHandler+0x316>
 8002430:	2b60      	cmp	r3, #96	; 0x60
 8002432:	d01b      	beq.n	800246c <HAL_CAN_IRQHandler+0x320>
 8002434:	2b40      	cmp	r3, #64	; 0x40
 8002436:	d00f      	beq.n	8002458 <HAL_CAN_IRQHandler+0x30c>
            break;
 8002438:	e01d      	b.n	8002476 <HAL_CAN_IRQHandler+0x32a>
            errorcode |= HAL_CAN_ERROR_STF;
 800243a:	6a7b      	ldr	r3, [r7, #36]	; 0x24
 800243c:	f043 0308 	orr.w	r3, r3, #8
 8002440:	627b      	str	r3, [r7, #36]	; 0x24
            break;
 8002442:	e018      	b.n	8002476 <HAL_CAN_IRQHandler+0x32a>
            errorcode |= HAL_CAN_ERROR_FOR;
 8002444:	6a7b      	ldr	r3, [r7, #36]	; 0x24
 8002446:	f043 0310 	orr.w	r3, r3, #16
 800244a:	627b      	str	r3, [r7, #36]	; 0x24
            break;
 800244c:	e013      	b.n	8002476 <HAL_CAN_IRQHandler+0x32a>
            errorcode |= HAL_CAN_ERROR_ACK;
 800244e:	6a7b      	ldr	r3, [r7, #36]	; 0x24
 8002450:	f043 0320 	orr.w	r3, r3, #32
 8002454:	627b      	str	r3, [r7, #36]	; 0x24
            break;
 8002456:	e00e      	b.n	8002476 <HAL_CAN_IRQHandler+0x32a>
            errorcode |= HAL_CAN_ERROR_BR;
 8002458:	6a7b      	ldr	r3, [r7, #36]	; 0x24
 800245a:	f043 0340 	orr.w	r3, r3, #64	; 0x40
 800245e:	627b      	str	r3, [r7, #36]	; 0x24
            break;
 8002460:	e009      	b.n	8002476 <HAL_CAN_IRQHandler+0x32a>
            errorcode |= HAL_CAN_ERROR_BD;
 8002462:	6a7b      	ldr	r3, [r7, #36]	; 0x24
 8002464:	f043 0380 	orr.w	r3, r3, #128	; 0x80
 8002468:	627b      	str	r3, [r7, #36]	; 0x24
            break;
 800246a:	e004      	b.n	8002476 <HAL_CAN_IRQHandler+0x32a>
            errorcode |= HAL_CAN_ERROR_CRC;
 800246c:	6a7b      	ldr	r3, [r7, #36]	; 0x24
 800246e:	f443 7380 	orr.w	r3, r3, #256	; 0x100
 8002472:	627b      	str	r3, [r7, #36]	; 0x24
            break;
 8002474:	bf00      	nop
        }

        /* Clear Last error code Flag */
        CLEAR_BIT(hcan->Instance->ESR, CAN_ESR_LEC);
 8002476:	687b      	ldr	r3, [r7, #4]
 8002478:	681b      	ldr	r3, [r3, #0]
 800247a:	699a      	ldr	r2, [r3, #24]
 800247c:	687b      	ldr	r3, [r7, #4]
 800247e:	681b      	ldr	r3, [r3, #0]
 8002480:	f022 0270 	bic.w	r2, r2, #112	; 0x70
 8002484:	619a      	str	r2, [r3, #24]
      }
    }

    /* Clear ERRI Flag */
    __HAL_CAN_CLEAR_FLAG(hcan, CAN_FLAG_ERRI);
 8002486:	687b      	ldr	r3, [r7, #4]
 8002488:	681b      	ldr	r3, [r3, #0]
 800248a:	2204      	movs	r2, #4
 800248c:	605a      	str	r2, [r3, #4]
  }

  /* Call the Error call Back in case of Errors */
  if (errorcode != HAL_CAN_ERROR_NONE)
 800248e:	6a7b      	ldr	r3, [r7, #36]	; 0x24
 8002490:	2b00      	cmp	r3, #0
 8002492:	d008      	beq.n	80024a6 <HAL_CAN_IRQHandler+0x35a>
  {
    /* Update error code in handle */
    hcan->ErrorCode |= errorcode;
 8002494:	687b      	ldr	r3, [r7, #4]
 8002496:	6a5a      	ldr	r2, [r3, #36]	; 0x24
 8002498:	6a7b      	ldr	r3, [r7, #36]	; 0x24
 800249a:	431a      	orrs	r2, r3
 800249c:	687b      	ldr	r3, [r7, #4]
 800249e:	625a      	str	r2, [r3, #36]	; 0x24
#if USE_HAL_CAN_REGISTER_CALLBACKS == 1
    /* Call registered callback*/
    hcan->ErrorCallback(hcan);
#else
    /* Call weak (surcharged) callback */
    HAL_CAN_ErrorCallback(hcan);
 80024a0:	6878      	ldr	r0, [r7, #4]
 80024a2:	f000 f867 	bl	8002574 <HAL_CAN_ErrorCallback>
#endif /* USE_HAL_CAN_REGISTER_CALLBACKS */
  }
}
 80024a6:	bf00      	nop
 80024a8:	3728      	adds	r7, #40	; 0x28
 80024aa:	46bd      	mov	sp, r7
 80024ac:	bd80      	pop	{r7, pc}

080024ae <HAL_CAN_TxMailbox0CompleteCallback>:
  * @param  hcan pointer to a CAN_HandleTypeDef structure that contains
  *         the configuration information for the specified CAN.
  * @retval None
  */
__weak void HAL_CAN_TxMailbox0CompleteCallback(CAN_HandleTypeDef *hcan)
{
 80024ae:	b480      	push	{r7}
 80024b0:	b083      	sub	sp, #12
 80024b2:	af00      	add	r7, sp, #0
 80024b4:	6078      	str	r0, [r7, #4]

  /* NOTE : This function Should not be modified, when the callback is needed,
            the HAL_CAN_TxMailbox0CompleteCallback could be implemented in the
            user file
   */
}
 80024b6:	bf00      	nop
 80024b8:	370c      	adds	r7, #12
 80024ba:	46bd      	mov	sp, r7
 80024bc:	bc80      	pop	{r7}
 80024be:	4770      	bx	lr

080024c0 <HAL_CAN_TxMailbox1CompleteCallback>:
  * @param  hcan pointer to a CAN_HandleTypeDef structure that contains
  *         the configuration information for the specified CAN.
  * @retval None
  */
__weak void HAL_CAN_TxMailbox1CompleteCallback(CAN_HandleTypeDef *hcan)
{
 80024c0:	b480      	push	{r7}
 80024c2:	b083      	sub	sp, #12
 80024c4:	af00      	add	r7, sp, #0
 80024c6:	6078      	str	r0, [r7, #4]

  /* NOTE : This function Should not be modified, when the callback is needed,
            the HAL_CAN_TxMailbox1CompleteCallback could be implemented in the
            user file
   */
}
 80024c8:	bf00      	nop
 80024ca:	370c      	adds	r7, #12
 80024cc:	46bd      	mov	sp, r7
 80024ce:	bc80      	pop	{r7}
 80024d0:	4770      	bx	lr

080024d2 <HAL_CAN_TxMailbox2CompleteCallback>:
  * @param  hcan pointer to a CAN_HandleTypeDef structure that contains
  *         the configuration information for the specified CAN.
  * @retval None
  */
__weak void HAL_CAN_TxMailbox2CompleteCallback(CAN_HandleTypeDef *hcan)
{
 80024d2:	b480      	push	{r7}
 80024d4:	b083      	sub	sp, #12
 80024d6:	af00      	add	r7, sp, #0
 80024d8:	6078      	str	r0, [r7, #4]

  /* NOTE : This function Should not be modified, when the callback is needed,
            the HAL_CAN_TxMailbox2CompleteCallback could be implemented in the
            user file
   */
}
 80024da:	bf00      	nop
 80024dc:	370c      	adds	r7, #12
 80024de:	46bd      	mov	sp, r7
 80024e0:	bc80      	pop	{r7}
 80024e2:	4770      	bx	lr

080024e4 <HAL_CAN_TxMailbox0AbortCallback>:
  * @param  hcan pointer to an CAN_HandleTypeDef structure that contains
  *         the configuration information for the specified CAN.
  * @retval None
  */
__weak void HAL_CAN_TxMailbox0AbortCallback(CAN_HandleTypeDef *hcan)
{
 80024e4:	b480      	push	{r7}
 80024e6:	b083      	sub	sp, #12
 80024e8:	af00      	add	r7, sp, #0
 80024ea:	6078      	str	r0, [r7, #4]

  /* NOTE : This function Should not be modified, when the callback is needed,
            the HAL_CAN_TxMailbox0AbortCallback could be implemented in the
            user file
   */
}
 80024ec:	bf00      	nop
 80024ee:	370c      	adds	r7, #12
 80024f0:	46bd      	mov	sp, r7
 80024f2:	bc80      	pop	{r7}
 80024f4:	4770      	bx	lr

080024f6 <HAL_CAN_TxMailbox1AbortCallback>:
  * @param  hcan pointer to an CAN_HandleTypeDef structure that contains
  *         the configuration information for the specified CAN.
  * @retval None
  */
__weak void HAL_CAN_TxMailbox1AbortCallback(CAN_HandleTypeDef *hcan)
{
 80024f6:	b480      	push	{r7}
 80024f8:	b083      	sub	sp, #12
 80024fa:	af00      	add	r7, sp, #0
 80024fc:	6078      	str	r0, [r7, #4]

  /* NOTE : This function Should not be modified, when the callback is needed,
            the HAL_CAN_TxMailbox1AbortCallback could be implemented in the
            user file
   */
}
 80024fe:	bf00      	nop
 8002500:	370c      	adds	r7, #12
 8002502:	46bd      	mov	sp, r7
 8002504:	bc80      	pop	{r7}
 8002506:	4770      	bx	lr

08002508 <HAL_CAN_TxMailbox2AbortCallback>:
  * @param  hcan pointer to an CAN_HandleTypeDef structure that contains
  *         the configuration information for the specified CAN.
  * @retval None
  */
__weak void HAL_CAN_TxMailbox2AbortCallback(CAN_HandleTypeDef *hcan)
{
 8002508:	b480      	push	{r7}
 800250a:	b083      	sub	sp, #12
 800250c:	af00      	add	r7, sp, #0
 800250e:	6078      	str	r0, [r7, #4]

  /* NOTE : This function Should not be modified, when the callback is needed,
            the HAL_CAN_TxMailbox2AbortCallback could be implemented in the
            user file
   */
}
 8002510:	bf00      	nop
 8002512:	370c      	adds	r7, #12
 8002514:	46bd      	mov	sp, r7
 8002516:	bc80      	pop	{r7}
 8002518:	4770      	bx	lr

0800251a <HAL_CAN_RxFifo0FullCallback>:
  * @param  hcan pointer to a CAN_HandleTypeDef structure that contains
  *         the configuration information for the specified CAN.
  * @retval None
  */
__weak void HAL_CAN_RxFifo0FullCallback(CAN_HandleTypeDef *hcan)
{
 800251a:	b480      	push	{r7}
 800251c:	b083      	sub	sp, #12
 800251e:	af00      	add	r7, sp, #0
 8002520:	6078      	str	r0, [r7, #4]

  /* NOTE : This function Should not be modified, when the callback is needed,
            the HAL_CAN_RxFifo0FullCallback could be implemented in the user
            file
   */
}
 8002522:	bf00      	nop
 8002524:	370c      	adds	r7, #12
 8002526:	46bd      	mov	sp, r7
 8002528:	bc80      	pop	{r7}
 800252a:	4770      	bx	lr

0800252c <HAL_CAN_RxFifo1MsgPendingCallback>:
  * @param  hcan pointer to a CAN_HandleTypeDef structure that contains
  *         the configuration information for the specified CAN.
  * @retval None
  */
__weak void HAL_CAN_RxFifo1MsgPendingCallback(CAN_HandleTypeDef *hcan)
{
 800252c:	b480      	push	{r7}
 800252e:	b083      	sub	sp, #12
 8002530:	af00      	add	r7, sp, #0
 8002532:	6078      	str	r0, [r7, #4]

  /* NOTE : This function Should not be modified, when the callback is needed,
            the HAL_CAN_RxFifo1MsgPendingCallback could be implemented in the
            user file
   */
}
 8002534:	bf00      	nop
 8002536:	370c      	adds	r7, #12
 8002538:	46bd      	mov	sp, r7
 800253a:	bc80      	pop	{r7}
 800253c:	4770      	bx	lr

0800253e <HAL_CAN_RxFifo1FullCallback>:
  * @param  hcan pointer to a CAN_HandleTypeDef structure that contains
  *         the configuration information for the specified CAN.
  * @retval None
  */
__weak void HAL_CAN_RxFifo1FullCallback(CAN_HandleTypeDef *hcan)
{
 800253e:	b480      	push	{r7}
 8002540:	b083      	sub	sp, #12
 8002542:	af00      	add	r7, sp, #0
 8002544:	6078      	str	r0, [r7, #4]

  /* NOTE : This function Should not be modified, when the callback is needed,
            the HAL_CAN_RxFifo1FullCallback could be implemented in the user
            file
   */
}
 8002546:	bf00      	nop
 8002548:	370c      	adds	r7, #12
 800254a:	46bd      	mov	sp, r7
 800254c:	bc80      	pop	{r7}
 800254e:	4770      	bx	lr

08002550 <HAL_CAN_SleepCallback>:
  * @param  hcan pointer to a CAN_HandleTypeDef structure that contains
  *         the configuration information for the specified CAN.
  * @retval None
  */
__weak void HAL_CAN_SleepCallback(CAN_HandleTypeDef *hcan)
{
 8002550:	b480      	push	{r7}
 8002552:	b083      	sub	sp, #12
 8002554:	af00      	add	r7, sp, #0
 8002556:	6078      	str	r0, [r7, #4]
  UNUSED(hcan);

  /* NOTE : This function Should not be modified, when the callback is needed,
            the HAL_CAN_SleepCallback could be implemented in the user file
   */
}
 8002558:	bf00      	nop
 800255a:	370c      	adds	r7, #12
 800255c:	46bd      	mov	sp, r7
 800255e:	bc80      	pop	{r7}
 8002560:	4770      	bx	lr

08002562 <HAL_CAN_WakeUpFromRxMsgCallback>:
  * @param  hcan pointer to a CAN_HandleTypeDef structure that contains
  *         the configuration information for the specified CAN.
  * @retval None
  */
__weak void HAL_CAN_WakeUpFromRxMsgCallback(CAN_HandleTypeDef *hcan)
{
 8002562:	b480      	push	{r7}
 8002564:	b083      	sub	sp, #12
 8002566:	af00      	add	r7, sp, #0
 8002568:	6078      	str	r0, [r7, #4]

  /* NOTE : This function Should not be modified, when the callback is needed,
            the HAL_CAN_WakeUpFromRxMsgCallback could be implemented in the
            user file
   */
}
 800256a:	bf00      	nop
 800256c:	370c      	adds	r7, #12
 800256e:	46bd      	mov	sp, r7
 8002570:	bc80      	pop	{r7}
 8002572:	4770      	bx	lr

08002574 <HAL_CAN_ErrorCallback>:
  * @param  hcan pointer to a CAN_HandleTypeDef structure that contains
  *         the configuration information for the specified CAN.
  * @retval None
  */
__weak void HAL_CAN_ErrorCallback(CAN_HandleTypeDef *hcan)
{
 8002574:	b480      	push	{r7}
 8002576:	b083      	sub	sp, #12
 8002578:	af00      	add	r7, sp, #0
 800257a:	6078      	str	r0, [r7, #4]
  UNUSED(hcan);

  /* NOTE : This function Should not be modified, when the callback is needed,
            the HAL_CAN_ErrorCallback could be implemented in the user file
   */
}
 800257c:	bf00      	nop
 800257e:	370c      	adds	r7, #12
 8002580:	46bd      	mov	sp, r7
 8002582:	bc80      	pop	{r7}
 8002584:	4770      	bx	lr
	...

08002588 <__NVIC_SetPriorityGrouping>:
           In case of a conflict between priority grouping and available
           priority bits (__NVIC_PRIO_BITS), the smallest possible priority group is set.
  \param [in]      PriorityGroup  Priority grouping field.
 */
__STATIC_INLINE void __NVIC_SetPriorityGrouping(uint32_t PriorityGroup)
{
 8002588:	b480      	push	{r7}
 800258a:	b085      	sub	sp, #20
 800258c:	af00      	add	r7, sp, #0
 800258e:	6078      	str	r0, [r7, #4]
  uint32_t reg_value;
  uint32_t PriorityGroupTmp = (PriorityGroup & (uint32_t)0x07UL);             /* only values 0..7 are used          */
 8002590:	687b      	ldr	r3, [r7, #4]
 8002592:	f003 0307 	and.w	r3, r3, #7
 8002596:	60fb      	str	r3, [r7, #12]

  reg_value  =  SCB->AIRCR;                                                   /* read old register configuration    */
 8002598:	4b0c      	ldr	r3, [pc, #48]	; (80025cc <__NVIC_SetPriorityGrouping+0x44>)
 800259a:	68db      	ldr	r3, [r3, #12]
 800259c:	60bb      	str	r3, [r7, #8]
  reg_value &= ~((uint32_t)(SCB_AIRCR_VECTKEY_Msk | SCB_AIRCR_PRIGROUP_Msk)); /* clear bits to change               */
 800259e:	68ba      	ldr	r2, [r7, #8]
 80025a0:	f64f 03ff 	movw	r3, #63743	; 0xf8ff
 80025a4:	4013      	ands	r3, r2
 80025a6:	60bb      	str	r3, [r7, #8]
  reg_value  =  (reg_value                                   |
                ((uint32_t)0x5FAUL << SCB_AIRCR_VECTKEY_Pos) |
                (PriorityGroupTmp << SCB_AIRCR_PRIGROUP_Pos) );               /* Insert write key and priority group */
 80025a8:	68fb      	ldr	r3, [r7, #12]
 80025aa:	021a      	lsls	r2, r3, #8
                ((uint32_t)0x5FAUL << SCB_AIRCR_VECTKEY_Pos) |
 80025ac:	68bb      	ldr	r3, [r7, #8]
 80025ae:	4313      	orrs	r3, r2
  reg_value  =  (reg_value                                   |
 80025b0:	f043 63bf 	orr.w	r3, r3, #100139008	; 0x5f80000
 80025b4:	f443 3300 	orr.w	r3, r3, #131072	; 0x20000
 80025b8:	60bb      	str	r3, [r7, #8]
  SCB->AIRCR =  reg_value;
 80025ba:	4a04      	ldr	r2, [pc, #16]	; (80025cc <__NVIC_SetPriorityGrouping+0x44>)
 80025bc:	68bb      	ldr	r3, [r7, #8]
 80025be:	60d3      	str	r3, [r2, #12]
}
 80025c0:	bf00      	nop
 80025c2:	3714      	adds	r7, #20
 80025c4:	46bd      	mov	sp, r7
 80025c6:	bc80      	pop	{r7}
 80025c8:	4770      	bx	lr
 80025ca:	bf00      	nop
 80025cc:	e000ed00 	.word	0xe000ed00

080025d0 <__NVIC_GetPriorityGrouping>:
  \brief   Get Priority Grouping
  \details Reads the priority grouping field from the NVIC Interrupt Controller.
  \return                Priority grouping field (SCB->AIRCR [10:8] PRIGROUP field).
 */
__STATIC_INLINE uint32_t __NVIC_GetPriorityGrouping(void)
{
 80025d0:	b480      	push	{r7}
 80025d2:	af00      	add	r7, sp, #0
  return ((uint32_t)((SCB->AIRCR & SCB_AIRCR_PRIGROUP_Msk) >> SCB_AIRCR_PRIGROUP_Pos));
 80025d4:	4b04      	ldr	r3, [pc, #16]	; (80025e8 <__NVIC_GetPriorityGrouping+0x18>)
 80025d6:	68db      	ldr	r3, [r3, #12]
 80025d8:	0a1b      	lsrs	r3, r3, #8
 80025da:	f003 0307 	and.w	r3, r3, #7
}
 80025de:	4618      	mov	r0, r3
 80025e0:	46bd      	mov	sp, r7
 80025e2:	bc80      	pop	{r7}
 80025e4:	4770      	bx	lr
 80025e6:	bf00      	nop
 80025e8:	e000ed00 	.word	0xe000ed00

080025ec <__NVIC_EnableIRQ>:
  \details Enables a device specific interrupt in the NVIC interrupt controller.
  \param [in]      IRQn  Device specific interrupt number.
  \note    IRQn must not be negative.
 */
__STATIC_INLINE void __NVIC_EnableIRQ(IRQn_Type IRQn)
{
 80025ec:	b480      	push	{r7}
 80025ee:	b083      	sub	sp, #12
 80025f0:	af00      	add	r7, sp, #0
 80025f2:	4603      	mov	r3, r0
 80025f4:	71fb      	strb	r3, [r7, #7]
  if ((int32_t)(IRQn) >= 0)
 80025f6:	f997 3007 	ldrsb.w	r3, [r7, #7]
 80025fa:	2b00      	cmp	r3, #0
 80025fc:	db0b      	blt.n	8002616 <__NVIC_EnableIRQ+0x2a>
  {
    NVIC->ISER[(((uint32_t)IRQn) >> 5UL)] = (uint32_t)(1UL << (((uint32_t)IRQn) & 0x1FUL));
 80025fe:	79fb      	ldrb	r3, [r7, #7]
 8002600:	f003 021f 	and.w	r2, r3, #31
 8002604:	4906      	ldr	r1, [pc, #24]	; (8002620 <__NVIC_EnableIRQ+0x34>)
 8002606:	f997 3007 	ldrsb.w	r3, [r7, #7]
 800260a:	095b      	lsrs	r3, r3, #5
 800260c:	2001      	movs	r0, #1
 800260e:	fa00 f202 	lsl.w	r2, r0, r2
 8002612:	f841 2023 	str.w	r2, [r1, r3, lsl #2]
  }
}
 8002616:	bf00      	nop
 8002618:	370c      	adds	r7, #12
 800261a:	46bd      	mov	sp, r7
 800261c:	bc80      	pop	{r7}
 800261e:	4770      	bx	lr
 8002620:	e000e100 	.word	0xe000e100

08002624 <__NVIC_SetPriority>:
  \param [in]      IRQn  Interrupt number.
  \param [in]  priority  Priority to set.
  \note    The priority cannot be set for every processor exception.
 */
__STATIC_INLINE void __NVIC_SetPriority(IRQn_Type IRQn, uint32_t priority)
{
 8002624:	b480      	push	{r7}
 8002626:	b083      	sub	sp, #12
 8002628:	af00      	add	r7, sp, #0
 800262a:	4603      	mov	r3, r0
 800262c:	6039      	str	r1, [r7, #0]
 800262e:	71fb      	strb	r3, [r7, #7]
  if ((int32_t)(IRQn) >= 0)
 8002630:	f997 3007 	ldrsb.w	r3, [r7, #7]
 8002634:	2b00      	cmp	r3, #0
 8002636:	db0a      	blt.n	800264e <__NVIC_SetPriority+0x2a>
  {
    NVIC->IP[((uint32_t)IRQn)]               = (uint8_t)((priority << (8U - __NVIC_PRIO_BITS)) & (uint32_t)0xFFUL);
 8002638:	683b      	ldr	r3, [r7, #0]
 800263a:	b2da      	uxtb	r2, r3
 800263c:	490c      	ldr	r1, [pc, #48]	; (8002670 <__NVIC_SetPriority+0x4c>)
 800263e:	f997 3007 	ldrsb.w	r3, [r7, #7]
 8002642:	0112      	lsls	r2, r2, #4
 8002644:	b2d2      	uxtb	r2, r2
 8002646:	440b      	add	r3, r1
 8002648:	f883 2300 	strb.w	r2, [r3, #768]	; 0x300
  }
  else
  {
    SCB->SHP[(((uint32_t)IRQn) & 0xFUL)-4UL] = (uint8_t)((priority << (8U - __NVIC_PRIO_BITS)) & (uint32_t)0xFFUL);
  }
}
 800264c:	e00a      	b.n	8002664 <__NVIC_SetPriority+0x40>
    SCB->SHP[(((uint32_t)IRQn) & 0xFUL)-4UL] = (uint8_t)((priority << (8U - __NVIC_PRIO_BITS)) & (uint32_t)0xFFUL);
 800264e:	683b      	ldr	r3, [r7, #0]
 8002650:	b2da      	uxtb	r2, r3
 8002652:	4908      	ldr	r1, [pc, #32]	; (8002674 <__NVIC_SetPriority+0x50>)
 8002654:	79fb      	ldrb	r3, [r7, #7]
 8002656:	f003 030f 	and.w	r3, r3, #15
 800265a:	3b04      	subs	r3, #4
 800265c:	0112      	lsls	r2, r2, #4
 800265e:	b2d2      	uxtb	r2, r2
 8002660:	440b      	add	r3, r1
 8002662:	761a      	strb	r2, [r3, #24]
}
 8002664:	bf00      	nop
 8002666:	370c      	adds	r7, #12
 8002668:	46bd      	mov	sp, r7
 800266a:	bc80      	pop	{r7}
 800266c:	4770      	bx	lr
 800266e:	bf00      	nop
 8002670:	e000e100 	.word	0xe000e100
 8002674:	e000ed00 	.word	0xe000ed00

08002678 <NVIC_EncodePriority>:
  \param [in]   PreemptPriority  Preemptive priority value (starting from 0).
  \param [in]       SubPriority  Subpriority value (starting from 0).
  \return                        Encoded priority. Value can be used in the function \ref NVIC_SetPriority().
 */
__STATIC_INLINE uint32_t NVIC_EncodePriority (uint32_t PriorityGroup, uint32_t PreemptPriority, uint32_t SubPriority)
{
 8002678:	b480      	push	{r7}
 800267a:	b089      	sub	sp, #36	; 0x24
 800267c:	af00      	add	r7, sp, #0
 800267e:	60f8      	str	r0, [r7, #12]
 8002680:	60b9      	str	r1, [r7, #8]
 8002682:	607a      	str	r2, [r7, #4]
  uint32_t PriorityGroupTmp = (PriorityGroup & (uint32_t)0x07UL);   /* only values 0..7 are used          */
 8002684:	68fb      	ldr	r3, [r7, #12]
 8002686:	f003 0307 	and.w	r3, r3, #7
 800268a:	61fb      	str	r3, [r7, #28]
  uint32_t PreemptPriorityBits;
  uint32_t SubPriorityBits;

  PreemptPriorityBits = ((7UL - PriorityGroupTmp) > (uint32_t)(__NVIC_PRIO_BITS)) ? (uint32_t)(__NVIC_PRIO_BITS) : (uint32_t)(7UL - PriorityGroupTmp);
 800268c:	69fb      	ldr	r3, [r7, #28]
 800268e:	f1c3 0307 	rsb	r3, r3, #7
 8002692:	2b04      	cmp	r3, #4
 8002694:	bf28      	it	cs
 8002696:	2304      	movcs	r3, #4
 8002698:	61bb      	str	r3, [r7, #24]
  SubPriorityBits     = ((PriorityGroupTmp + (uint32_t)(__NVIC_PRIO_BITS)) < (uint32_t)7UL) ? (uint32_t)0UL : (uint32_t)((PriorityGroupTmp - 7UL) + (uint32_t)(__NVIC_PRIO_BITS));
 800269a:	69fb      	ldr	r3, [r7, #28]
 800269c:	3304      	adds	r3, #4
 800269e:	2b06      	cmp	r3, #6
 80026a0:	d902      	bls.n	80026a8 <NVIC_EncodePriority+0x30>
 80026a2:	69fb      	ldr	r3, [r7, #28]
 80026a4:	3b03      	subs	r3, #3
 80026a6:	e000      	b.n	80026aa <NVIC_EncodePriority+0x32>
 80026a8:	2300      	movs	r3, #0
 80026aa:	617b      	str	r3, [r7, #20]

  return (
           ((PreemptPriority & (uint32_t)((1UL << (PreemptPriorityBits)) - 1UL)) << SubPriorityBits) |
 80026ac:	f04f 32ff 	mov.w	r2, #4294967295
 80026b0:	69bb      	ldr	r3, [r7, #24]
 80026b2:	fa02 f303 	lsl.w	r3, r2, r3
 80026b6:	43da      	mvns	r2, r3
 80026b8:	68bb      	ldr	r3, [r7, #8]
 80026ba:	401a      	ands	r2, r3
 80026bc:	697b      	ldr	r3, [r7, #20]
 80026be:	409a      	lsls	r2, r3
           ((SubPriority     & (uint32_t)((1UL << (SubPriorityBits    )) - 1UL)))
 80026c0:	f04f 31ff 	mov.w	r1, #4294967295
 80026c4:	697b      	ldr	r3, [r7, #20]
 80026c6:	fa01 f303 	lsl.w	r3, r1, r3
 80026ca:	43d9      	mvns	r1, r3
 80026cc:	687b      	ldr	r3, [r7, #4]
 80026ce:	400b      	ands	r3, r1
           ((PreemptPriority & (uint32_t)((1UL << (PreemptPriorityBits)) - 1UL)) << SubPriorityBits) |
 80026d0:	4313      	orrs	r3, r2
         );
}
 80026d2:	4618      	mov	r0, r3
 80026d4:	3724      	adds	r7, #36	; 0x24
 80026d6:	46bd      	mov	sp, r7
 80026d8:	bc80      	pop	{r7}
 80026da:	4770      	bx	lr

080026dc <HAL_NVIC_SetPriorityGrouping>:
  * @note   When the NVIC_PriorityGroup_0 is selected, IRQ preemption is no more possible. 
  *         The pending IRQ priority will be managed only by the subpriority. 
  * @retval None
  */
void HAL_NVIC_SetPriorityGrouping(uint32_t PriorityGroup)
{
 80026dc:	b580      	push	{r7, lr}
 80026de:	b082      	sub	sp, #8
 80026e0:	af00      	add	r7, sp, #0
 80026e2:	6078      	str	r0, [r7, #4]
  /* Check the parameters */
  assert_param(IS_NVIC_PRIORITY_GROUP(PriorityGroup));
  
  /* Set the PRIGROUP[10:8] bits according to the PriorityGroup parameter value */
  NVIC_SetPriorityGrouping(PriorityGroup);
 80026e4:	6878      	ldr	r0, [r7, #4]
 80026e6:	f7ff ff4f 	bl	8002588 <__NVIC_SetPriorityGrouping>
}
 80026ea:	bf00      	nop
 80026ec:	3708      	adds	r7, #8
 80026ee:	46bd      	mov	sp, r7
 80026f0:	bd80      	pop	{r7, pc}

080026f2 <HAL_NVIC_SetPriority>:
  *         This parameter can be a value between 0 and 15
  *         A lower priority value indicates a higher priority.          
  * @retval None
  */
void HAL_NVIC_SetPriority(IRQn_Type IRQn, uint32_t PreemptPriority, uint32_t SubPriority)
{ 
 80026f2:	b580      	push	{r7, lr}
 80026f4:	b086      	sub	sp, #24
 80026f6:	af00      	add	r7, sp, #0
 80026f8:	4603      	mov	r3, r0
 80026fa:	60b9      	str	r1, [r7, #8]
 80026fc:	607a      	str	r2, [r7, #4]
 80026fe:	73fb      	strb	r3, [r7, #15]
  uint32_t prioritygroup = 0x00U;
 8002700:	2300      	movs	r3, #0
 8002702:	617b      	str	r3, [r7, #20]
  
  /* Check the parameters */
  assert_param(IS_NVIC_SUB_PRIORITY(SubPriority));
  assert_param(IS_NVIC_PREEMPTION_PRIORITY(PreemptPriority));
  
  prioritygroup = NVIC_GetPriorityGrouping();
 8002704:	f7ff ff64 	bl	80025d0 <__NVIC_GetPriorityGrouping>
 8002708:	6178      	str	r0, [r7, #20]
  
  NVIC_SetPriority(IRQn, NVIC_EncodePriority(prioritygroup, PreemptPriority, SubPriority));
 800270a:	687a      	ldr	r2, [r7, #4]
 800270c:	68b9      	ldr	r1, [r7, #8]
 800270e:	6978      	ldr	r0, [r7, #20]
 8002710:	f7ff ffb2 	bl	8002678 <NVIC_EncodePriority>
 8002714:	4602      	mov	r2, r0
 8002716:	f997 300f 	ldrsb.w	r3, [r7, #15]
 800271a:	4611      	mov	r1, r2
 800271c:	4618      	mov	r0, r3
 800271e:	f7ff ff81 	bl	8002624 <__NVIC_SetPriority>
}
 8002722:	bf00      	nop
 8002724:	3718      	adds	r7, #24
 8002726:	46bd      	mov	sp, r7
 8002728:	bd80      	pop	{r7, pc}

0800272a <HAL_NVIC_EnableIRQ>:
  *         This parameter can be an enumerator of IRQn_Type enumeration
  *         (For the complete STM32 Devices IRQ Channels list, please refer to the appropriate CMSIS device file (stm32f10xxx.h))
  * @retval None
  */
void HAL_NVIC_EnableIRQ(IRQn_Type IRQn)
{
 800272a:	b580      	push	{r7, lr}
 800272c:	b082      	sub	sp, #8
 800272e:	af00      	add	r7, sp, #0
 8002730:	4603      	mov	r3, r0
 8002732:	71fb      	strb	r3, [r7, #7]
  /* Check the parameters */
  assert_param(IS_NVIC_DEVICE_IRQ(IRQn));

  /* Enable interrupt */
  NVIC_EnableIRQ(IRQn);
 8002734:	f997 3007 	ldrsb.w	r3, [r7, #7]
 8002738:	4618      	mov	r0, r3
 800273a:	f7ff ff57 	bl	80025ec <__NVIC_EnableIRQ>
}
 800273e:	bf00      	nop
 8002740:	3708      	adds	r7, #8
 8002742:	46bd      	mov	sp, r7
 8002744:	bd80      	pop	{r7, pc}
	...

08002748 <HAL_DMA_Init>:
  * @param  hdma: Pointer to a DMA_HandleTypeDef structure that contains
  *               the configuration information for the specified DMA Channel.
  * @retval HAL status
  */
HAL_StatusTypeDef HAL_DMA_Init(DMA_HandleTypeDef *hdma)
{
 8002748:	b480      	push	{r7}
 800274a:	b085      	sub	sp, #20
 800274c:	af00      	add	r7, sp, #0
 800274e:	6078      	str	r0, [r7, #4]
  uint32_t tmp = 0U;
 8002750:	2300      	movs	r3, #0
 8002752:	60fb      	str	r3, [r7, #12]

  /* Check the DMA handle allocation */
  if(hdma == NULL)
 8002754:	687b      	ldr	r3, [r7, #4]
 8002756:	2b00      	cmp	r3, #0
 8002758:	d101      	bne.n	800275e <HAL_DMA_Init+0x16>
  {
    return HAL_ERROR;
 800275a:	2301      	movs	r3, #1
 800275c:	e043      	b.n	80027e6 <HAL_DMA_Init+0x9e>
    hdma->ChannelIndex = (((uint32_t)hdma->Instance - (uint32_t)DMA2_Channel1) / ((uint32_t)DMA2_Channel2 - (uint32_t)DMA2_Channel1)) << 2;
    hdma->DmaBaseAddress = DMA2;
  }
#else
  /* DMA1 */
  hdma->ChannelIndex = (((uint32_t)hdma->Instance - (uint32_t)DMA1_Channel1) / ((uint32_t)DMA1_Channel2 - (uint32_t)DMA1_Channel1)) << 2;
 800275e:	687b      	ldr	r3, [r7, #4]
 8002760:	681b      	ldr	r3, [r3, #0]
 8002762:	461a      	mov	r2, r3
 8002764:	4b22      	ldr	r3, [pc, #136]	; (80027f0 <HAL_DMA_Init+0xa8>)
 8002766:	4413      	add	r3, r2
 8002768:	4a22      	ldr	r2, [pc, #136]	; (80027f4 <HAL_DMA_Init+0xac>)
 800276a:	fba2 2303 	umull	r2, r3, r2, r3
 800276e:	091b      	lsrs	r3, r3, #4
 8002770:	009a      	lsls	r2, r3, #2
 8002772:	687b      	ldr	r3, [r7, #4]
 8002774:	641a      	str	r2, [r3, #64]	; 0x40
  hdma->DmaBaseAddress = DMA1;
 8002776:	687b      	ldr	r3, [r7, #4]
 8002778:	4a1f      	ldr	r2, [pc, #124]	; (80027f8 <HAL_DMA_Init+0xb0>)
 800277a:	63da      	str	r2, [r3, #60]	; 0x3c
#endif /* DMA2 */

  /* Change DMA peripheral state */
  hdma->State = HAL_DMA_STATE_BUSY;
 800277c:	687b      	ldr	r3, [r7, #4]
 800277e:	2202      	movs	r2, #2
 8002780:	f883 2021 	strb.w	r2, [r3, #33]	; 0x21

  /* Get the CR register value */
  tmp = hdma->Instance->CCR;
 8002784:	687b      	ldr	r3, [r7, #4]
 8002786:	681b      	ldr	r3, [r3, #0]
 8002788:	681b      	ldr	r3, [r3, #0]
 800278a:	60fb      	str	r3, [r7, #12]

  /* Clear PL, MSIZE, PSIZE, MINC, PINC, CIRC and DIR bits */
  tmp &= ((uint32_t)~(DMA_CCR_PL    | DMA_CCR_MSIZE  | DMA_CCR_PSIZE  | \
 800278c:	68fb      	ldr	r3, [r7, #12]
 800278e:	f423 537f 	bic.w	r3, r3, #16320	; 0x3fc0
 8002792:	f023 0330 	bic.w	r3, r3, #48	; 0x30
 8002796:	60fb      	str	r3, [r7, #12]
                      DMA_CCR_MINC  | DMA_CCR_PINC   | DMA_CCR_CIRC   | \
                      DMA_CCR_DIR));

  /* Prepare the DMA Channel configuration */
  tmp |=  hdma->Init.Direction        |
 8002798:	687b      	ldr	r3, [r7, #4]
 800279a:	685a      	ldr	r2, [r3, #4]
          hdma->Init.PeriphInc           | hdma->Init.MemInc           |
 800279c:	687b      	ldr	r3, [r7, #4]
 800279e:	689b      	ldr	r3, [r3, #8]
  tmp |=  hdma->Init.Direction        |
 80027a0:	431a      	orrs	r2, r3
          hdma->Init.PeriphInc           | hdma->Init.MemInc           |
 80027a2:	687b      	ldr	r3, [r7, #4]
 80027a4:	68db      	ldr	r3, [r3, #12]
 80027a6:	431a      	orrs	r2, r3
          hdma->Init.PeriphDataAlignment | hdma->Init.MemDataAlignment |
 80027a8:	687b      	ldr	r3, [r7, #4]
 80027aa:	691b      	ldr	r3, [r3, #16]
          hdma->Init.PeriphInc           | hdma->Init.MemInc           |
 80027ac:	431a      	orrs	r2, r3
          hdma->Init.PeriphDataAlignment | hdma->Init.MemDataAlignment |
 80027ae:	687b      	ldr	r3, [r7, #4]
 80027b0:	695b      	ldr	r3, [r3, #20]
 80027b2:	431a      	orrs	r2, r3
          hdma->Init.Mode                | hdma->Init.Priority;
 80027b4:	687b      	ldr	r3, [r7, #4]
 80027b6:	699b      	ldr	r3, [r3, #24]
          hdma->Init.PeriphDataAlignment | hdma->Init.MemDataAlignment |
 80027b8:	431a      	orrs	r2, r3
          hdma->Init.Mode                | hdma->Init.Priority;
 80027ba:	687b      	ldr	r3, [r7, #4]
 80027bc:	69db      	ldr	r3, [r3, #28]
 80027be:	4313      	orrs	r3, r2
  tmp |=  hdma->Init.Direction        |
 80027c0:	68fa      	ldr	r2, [r7, #12]
 80027c2:	4313      	orrs	r3, r2
 80027c4:	60fb      	str	r3, [r7, #12]

  /* Write to DMA Channel CR register */
  hdma->Instance->CCR = tmp;
 80027c6:	687b      	ldr	r3, [r7, #4]
 80027c8:	681b      	ldr	r3, [r3, #0]
 80027ca:	68fa      	ldr	r2, [r7, #12]
 80027cc:	601a      	str	r2, [r3, #0]

  /* Initialise the error code */
  hdma->ErrorCode = HAL_DMA_ERROR_NONE;
 80027ce:	687b      	ldr	r3, [r7, #4]
 80027d0:	2200      	movs	r2, #0
 80027d2:	639a      	str	r2, [r3, #56]	; 0x38

  /* Initialize the DMA state*/
  hdma->State = HAL_DMA_STATE_READY;
 80027d4:	687b      	ldr	r3, [r7, #4]
 80027d6:	2201      	movs	r2, #1
 80027d8:	f883 2021 	strb.w	r2, [r3, #33]	; 0x21
  /* Allocate lock resource and initialize it */
  hdma->Lock = HAL_UNLOCKED;
 80027dc:	687b      	ldr	r3, [r7, #4]
 80027de:	2200      	movs	r2, #0
 80027e0:	f883 2020 	strb.w	r2, [r3, #32]

  return HAL_OK;
 80027e4:	2300      	movs	r3, #0
}
 80027e6:	4618      	mov	r0, r3
 80027e8:	3714      	adds	r7, #20
 80027ea:	46bd      	mov	sp, r7
 80027ec:	bc80      	pop	{r7}
 80027ee:	4770      	bx	lr
 80027f0:	bffdfff8 	.word	0xbffdfff8
 80027f4:	cccccccd 	.word	0xcccccccd
 80027f8:	40020000 	.word	0x40020000

080027fc <HAL_DMA_Start_IT>:
  * @param  DstAddress: The destination memory Buffer address
  * @param  DataLength: The length of data to be transferred from source to destination
  * @retval HAL status
  */
HAL_StatusTypeDef HAL_DMA_Start_IT(DMA_HandleTypeDef *hdma, uint32_t SrcAddress, uint32_t DstAddress, uint32_t DataLength)
{
 80027fc:	b580      	push	{r7, lr}
 80027fe:	b086      	sub	sp, #24
 8002800:	af00      	add	r7, sp, #0
 8002802:	60f8      	str	r0, [r7, #12]
 8002804:	60b9      	str	r1, [r7, #8]
 8002806:	607a      	str	r2, [r7, #4]
 8002808:	603b      	str	r3, [r7, #0]
  HAL_StatusTypeDef status = HAL_OK;
 800280a:	2300      	movs	r3, #0
 800280c:	75fb      	strb	r3, [r7, #23]

  /* Check the parameters */
  assert_param(IS_DMA_BUFFER_SIZE(DataLength));

  /* Process locked */
  __HAL_LOCK(hdma);
 800280e:	68fb      	ldr	r3, [r7, #12]
 8002810:	f893 3020 	ldrb.w	r3, [r3, #32]
 8002814:	2b01      	cmp	r3, #1
 8002816:	d101      	bne.n	800281c <HAL_DMA_Start_IT+0x20>
 8002818:	2302      	movs	r3, #2
 800281a:	e04a      	b.n	80028b2 <HAL_DMA_Start_IT+0xb6>
 800281c:	68fb      	ldr	r3, [r7, #12]
 800281e:	2201      	movs	r2, #1
 8002820:	f883 2020 	strb.w	r2, [r3, #32]
  
  if(HAL_DMA_STATE_READY == hdma->State)
 8002824:	68fb      	ldr	r3, [r7, #12]
 8002826:	f893 3021 	ldrb.w	r3, [r3, #33]	; 0x21
 800282a:	2b01      	cmp	r3, #1
 800282c:	d13a      	bne.n	80028a4 <HAL_DMA_Start_IT+0xa8>
  {
    /* Change DMA peripheral state */
    hdma->State = HAL_DMA_STATE_BUSY;
 800282e:	68fb      	ldr	r3, [r7, #12]
 8002830:	2202      	movs	r2, #2
 8002832:	f883 2021 	strb.w	r2, [r3, #33]	; 0x21
    hdma->ErrorCode = HAL_DMA_ERROR_NONE;
 8002836:	68fb      	ldr	r3, [r7, #12]
 8002838:	2200      	movs	r2, #0
 800283a:	639a      	str	r2, [r3, #56]	; 0x38
    
    /* Disable the peripheral */
    __HAL_DMA_DISABLE(hdma);
 800283c:	68fb      	ldr	r3, [r7, #12]
 800283e:	681b      	ldr	r3, [r3, #0]
 8002840:	681a      	ldr	r2, [r3, #0]
 8002842:	68fb      	ldr	r3, [r7, #12]
 8002844:	681b      	ldr	r3, [r3, #0]
 8002846:	f022 0201 	bic.w	r2, r2, #1
 800284a:	601a      	str	r2, [r3, #0]
    
    /* Configure the source, destination address and the data length & clear flags*/
    DMA_SetConfig(hdma, SrcAddress, DstAddress, DataLength);
 800284c:	683b      	ldr	r3, [r7, #0]
 800284e:	687a      	ldr	r2, [r7, #4]
 8002850:	68b9      	ldr	r1, [r7, #8]
 8002852:	68f8      	ldr	r0, [r7, #12]
 8002854:	f000 f9ae 	bl	8002bb4 <DMA_SetConfig>
    
    /* Enable the transfer complete interrupt */
    /* Enable the transfer Error interrupt */
    if(NULL != hdma->XferHalfCpltCallback)
 8002858:	68fb      	ldr	r3, [r7, #12]
 800285a:	6adb      	ldr	r3, [r3, #44]	; 0x2c
 800285c:	2b00      	cmp	r3, #0
 800285e:	d008      	beq.n	8002872 <HAL_DMA_Start_IT+0x76>
    {
      /* Enable the Half transfer complete interrupt as well */
      __HAL_DMA_ENABLE_IT(hdma, (DMA_IT_TC | DMA_IT_HT | DMA_IT_TE));
 8002860:	68fb      	ldr	r3, [r7, #12]
 8002862:	681b      	ldr	r3, [r3, #0]
 8002864:	681a      	ldr	r2, [r3, #0]
 8002866:	68fb      	ldr	r3, [r7, #12]
 8002868:	681b      	ldr	r3, [r3, #0]
 800286a:	f042 020e 	orr.w	r2, r2, #14
 800286e:	601a      	str	r2, [r3, #0]
 8002870:	e00f      	b.n	8002892 <HAL_DMA_Start_IT+0x96>
    }
    else
    {
      __HAL_DMA_DISABLE_IT(hdma, DMA_IT_HT);
 8002872:	68fb      	ldr	r3, [r7, #12]
 8002874:	681b      	ldr	r3, [r3, #0]
 8002876:	681a      	ldr	r2, [r3, #0]
 8002878:	68fb      	ldr	r3, [r7, #12]
 800287a:	681b      	ldr	r3, [r3, #0]
 800287c:	f022 0204 	bic.w	r2, r2, #4
 8002880:	601a      	str	r2, [r3, #0]
      __HAL_DMA_ENABLE_IT(hdma, (DMA_IT_TC | DMA_IT_TE));
 8002882:	68fb      	ldr	r3, [r7, #12]
 8002884:	681b      	ldr	r3, [r3, #0]
 8002886:	681a      	ldr	r2, [r3, #0]
 8002888:	68fb      	ldr	r3, [r7, #12]
 800288a:	681b      	ldr	r3, [r3, #0]
 800288c:	f042 020a 	orr.w	r2, r2, #10
 8002890:	601a      	str	r2, [r3, #0]
    }
    /* Enable the Peripheral */
    __HAL_DMA_ENABLE(hdma);
 8002892:	68fb      	ldr	r3, [r7, #12]
 8002894:	681b      	ldr	r3, [r3, #0]
 8002896:	681a      	ldr	r2, [r3, #0]
 8002898:	68fb      	ldr	r3, [r7, #12]
 800289a:	681b      	ldr	r3, [r3, #0]
 800289c:	f042 0201 	orr.w	r2, r2, #1
 80028a0:	601a      	str	r2, [r3, #0]
 80028a2:	e005      	b.n	80028b0 <HAL_DMA_Start_IT+0xb4>
  }
  else
  {      
    /* Process Unlocked */
    __HAL_UNLOCK(hdma); 
 80028a4:	68fb      	ldr	r3, [r7, #12]
 80028a6:	2200      	movs	r2, #0
 80028a8:	f883 2020 	strb.w	r2, [r3, #32]

    /* Remain BUSY */
    status = HAL_BUSY;
 80028ac:	2302      	movs	r3, #2
 80028ae:	75fb      	strb	r3, [r7, #23]
  }    
  return status;
 80028b0:	7dfb      	ldrb	r3, [r7, #23]
}
 80028b2:	4618      	mov	r0, r3
 80028b4:	3718      	adds	r7, #24
 80028b6:	46bd      	mov	sp, r7
 80028b8:	bd80      	pop	{r7, pc}
	...

080028bc <HAL_DMA_Abort_IT>:
  * @param  hdma  : pointer to a DMA_HandleTypeDef structure that contains
  *                 the configuration information for the specified DMA Channel.
  * @retval HAL status
  */
HAL_StatusTypeDef HAL_DMA_Abort_IT(DMA_HandleTypeDef *hdma)
{  
 80028bc:	b580      	push	{r7, lr}
 80028be:	b084      	sub	sp, #16
 80028c0:	af00      	add	r7, sp, #0
 80028c2:	6078      	str	r0, [r7, #4]
  HAL_StatusTypeDef status = HAL_OK;
 80028c4:	2300      	movs	r3, #0
 80028c6:	73fb      	strb	r3, [r7, #15]
  
  if(HAL_DMA_STATE_BUSY != hdma->State)
 80028c8:	687b      	ldr	r3, [r7, #4]
 80028ca:	f893 3021 	ldrb.w	r3, [r3, #33]	; 0x21
 80028ce:	2b02      	cmp	r3, #2
 80028d0:	d005      	beq.n	80028de <HAL_DMA_Abort_IT+0x22>
  {
    /* no transfer ongoing */
    hdma->ErrorCode = HAL_DMA_ERROR_NO_XFER;
 80028d2:	687b      	ldr	r3, [r7, #4]
 80028d4:	2204      	movs	r2, #4
 80028d6:	639a      	str	r2, [r3, #56]	; 0x38
        
    status = HAL_ERROR;
 80028d8:	2301      	movs	r3, #1
 80028da:	73fb      	strb	r3, [r7, #15]
 80028dc:	e051      	b.n	8002982 <HAL_DMA_Abort_IT+0xc6>
  }
  else
  { 
    /* Disable DMA IT */
    __HAL_DMA_DISABLE_IT(hdma, (DMA_IT_TC | DMA_IT_HT | DMA_IT_TE));
 80028de:	687b      	ldr	r3, [r7, #4]
 80028e0:	681b      	ldr	r3, [r3, #0]
 80028e2:	681a      	ldr	r2, [r3, #0]
 80028e4:	687b      	ldr	r3, [r7, #4]
 80028e6:	681b      	ldr	r3, [r3, #0]
 80028e8:	f022 020e 	bic.w	r2, r2, #14
 80028ec:	601a      	str	r2, [r3, #0]

    /* Disable the channel */
    __HAL_DMA_DISABLE(hdma);
 80028ee:	687b      	ldr	r3, [r7, #4]
 80028f0:	681b      	ldr	r3, [r3, #0]
 80028f2:	681a      	ldr	r2, [r3, #0]
 80028f4:	687b      	ldr	r3, [r7, #4]
 80028f6:	681b      	ldr	r3, [r3, #0]
 80028f8:	f022 0201 	bic.w	r2, r2, #1
 80028fc:	601a      	str	r2, [r3, #0]

    /* Clear all flags */
    __HAL_DMA_CLEAR_FLAG(hdma, __HAL_DMA_GET_GI_FLAG_INDEX(hdma));
 80028fe:	687b      	ldr	r3, [r7, #4]
 8002900:	681b      	ldr	r3, [r3, #0]
 8002902:	4a22      	ldr	r2, [pc, #136]	; (800298c <HAL_DMA_Abort_IT+0xd0>)
 8002904:	4293      	cmp	r3, r2
 8002906:	d029      	beq.n	800295c <HAL_DMA_Abort_IT+0xa0>
 8002908:	687b      	ldr	r3, [r7, #4]
 800290a:	681b      	ldr	r3, [r3, #0]
 800290c:	4a20      	ldr	r2, [pc, #128]	; (8002990 <HAL_DMA_Abort_IT+0xd4>)
 800290e:	4293      	cmp	r3, r2
 8002910:	d022      	beq.n	8002958 <HAL_DMA_Abort_IT+0x9c>
 8002912:	687b      	ldr	r3, [r7, #4]
 8002914:	681b      	ldr	r3, [r3, #0]
 8002916:	4a1f      	ldr	r2, [pc, #124]	; (8002994 <HAL_DMA_Abort_IT+0xd8>)
 8002918:	4293      	cmp	r3, r2
 800291a:	d01a      	beq.n	8002952 <HAL_DMA_Abort_IT+0x96>
 800291c:	687b      	ldr	r3, [r7, #4]
 800291e:	681b      	ldr	r3, [r3, #0]
 8002920:	4a1d      	ldr	r2, [pc, #116]	; (8002998 <HAL_DMA_Abort_IT+0xdc>)
 8002922:	4293      	cmp	r3, r2
 8002924:	d012      	beq.n	800294c <HAL_DMA_Abort_IT+0x90>
 8002926:	687b      	ldr	r3, [r7, #4]
 8002928:	681b      	ldr	r3, [r3, #0]
 800292a:	4a1c      	ldr	r2, [pc, #112]	; (800299c <HAL_DMA_Abort_IT+0xe0>)
 800292c:	4293      	cmp	r3, r2
 800292e:	d00a      	beq.n	8002946 <HAL_DMA_Abort_IT+0x8a>
 8002930:	687b      	ldr	r3, [r7, #4]
 8002932:	681b      	ldr	r3, [r3, #0]
 8002934:	4a1a      	ldr	r2, [pc, #104]	; (80029a0 <HAL_DMA_Abort_IT+0xe4>)
 8002936:	4293      	cmp	r3, r2
 8002938:	d102      	bne.n	8002940 <HAL_DMA_Abort_IT+0x84>
 800293a:	f44f 1380 	mov.w	r3, #1048576	; 0x100000
 800293e:	e00e      	b.n	800295e <HAL_DMA_Abort_IT+0xa2>
 8002940:	f04f 7380 	mov.w	r3, #16777216	; 0x1000000
 8002944:	e00b      	b.n	800295e <HAL_DMA_Abort_IT+0xa2>
 8002946:	f44f 3380 	mov.w	r3, #65536	; 0x10000
 800294a:	e008      	b.n	800295e <HAL_DMA_Abort_IT+0xa2>
 800294c:	f44f 5380 	mov.w	r3, #4096	; 0x1000
 8002950:	e005      	b.n	800295e <HAL_DMA_Abort_IT+0xa2>
 8002952:	f44f 7380 	mov.w	r3, #256	; 0x100
 8002956:	e002      	b.n	800295e <HAL_DMA_Abort_IT+0xa2>
 8002958:	2310      	movs	r3, #16
 800295a:	e000      	b.n	800295e <HAL_DMA_Abort_IT+0xa2>
 800295c:	2301      	movs	r3, #1
 800295e:	4a11      	ldr	r2, [pc, #68]	; (80029a4 <HAL_DMA_Abort_IT+0xe8>)
 8002960:	6053      	str	r3, [r2, #4]

    /* Change the DMA state */
    hdma->State = HAL_DMA_STATE_READY;
 8002962:	687b      	ldr	r3, [r7, #4]
 8002964:	2201      	movs	r2, #1
 8002966:	f883 2021 	strb.w	r2, [r3, #33]	; 0x21

    /* Process Unlocked */
    __HAL_UNLOCK(hdma);
 800296a:	687b      	ldr	r3, [r7, #4]
 800296c:	2200      	movs	r2, #0
 800296e:	f883 2020 	strb.w	r2, [r3, #32]

    /* Call User Abort callback */
    if(hdma->XferAbortCallback != NULL)
 8002972:	687b      	ldr	r3, [r7, #4]
 8002974:	6b5b      	ldr	r3, [r3, #52]	; 0x34
 8002976:	2b00      	cmp	r3, #0
 8002978:	d003      	beq.n	8002982 <HAL_DMA_Abort_IT+0xc6>
    {
      hdma->XferAbortCallback(hdma);
 800297a:	687b      	ldr	r3, [r7, #4]
 800297c:	6b5b      	ldr	r3, [r3, #52]	; 0x34
 800297e:	6878      	ldr	r0, [r7, #4]
 8002980:	4798      	blx	r3
    } 
  }
  return status;
 8002982:	7bfb      	ldrb	r3, [r7, #15]
}
 8002984:	4618      	mov	r0, r3
 8002986:	3710      	adds	r7, #16
 8002988:	46bd      	mov	sp, r7
 800298a:	bd80      	pop	{r7, pc}
 800298c:	40020008 	.word	0x40020008
 8002990:	4002001c 	.word	0x4002001c
 8002994:	40020030 	.word	0x40020030
 8002998:	40020044 	.word	0x40020044
 800299c:	40020058 	.word	0x40020058
 80029a0:	4002006c 	.word	0x4002006c
 80029a4:	40020000 	.word	0x40020000

080029a8 <HAL_DMA_IRQHandler>:
  * @param  hdma: pointer to a DMA_HandleTypeDef structure that contains
  *               the configuration information for the specified DMA Channel.  
  * @retval None
  */
void HAL_DMA_IRQHandler(DMA_HandleTypeDef *hdma)
{
 80029a8:	b580      	push	{r7, lr}
 80029aa:	b084      	sub	sp, #16
 80029ac:	af00      	add	r7, sp, #0
 80029ae:	6078      	str	r0, [r7, #4]
  uint32_t flag_it = hdma->DmaBaseAddress->ISR;
 80029b0:	687b      	ldr	r3, [r7, #4]
 80029b2:	6bdb      	ldr	r3, [r3, #60]	; 0x3c
 80029b4:	681b      	ldr	r3, [r3, #0]
 80029b6:	60fb      	str	r3, [r7, #12]
  uint32_t source_it = hdma->Instance->CCR;
 80029b8:	687b      	ldr	r3, [r7, #4]
 80029ba:	681b      	ldr	r3, [r3, #0]
 80029bc:	681b      	ldr	r3, [r3, #0]
 80029be:	60bb      	str	r3, [r7, #8]
  
  /* Half Transfer Complete Interrupt management ******************************/
  if (((flag_it & (DMA_FLAG_HT1 << hdma->ChannelIndex)) != RESET) && ((source_it & DMA_IT_HT) != RESET))
 80029c0:	687b      	ldr	r3, [r7, #4]
 80029c2:	6c1b      	ldr	r3, [r3, #64]	; 0x40
 80029c4:	2204      	movs	r2, #4
 80029c6:	409a      	lsls	r2, r3
 80029c8:	68fb      	ldr	r3, [r7, #12]
 80029ca:	4013      	ands	r3, r2
 80029cc:	2b00      	cmp	r3, #0
 80029ce:	d04f      	beq.n	8002a70 <HAL_DMA_IRQHandler+0xc8>
 80029d0:	68bb      	ldr	r3, [r7, #8]
 80029d2:	f003 0304 	and.w	r3, r3, #4
 80029d6:	2b00      	cmp	r3, #0
 80029d8:	d04a      	beq.n	8002a70 <HAL_DMA_IRQHandler+0xc8>
  {
    /* Disable the half transfer interrupt if the DMA mode is not CIRCULAR */
    if((hdma->Instance->CCR & DMA_CCR_CIRC) == 0U)
 80029da:	687b      	ldr	r3, [r7, #4]
 80029dc:	681b      	ldr	r3, [r3, #0]
 80029de:	681b      	ldr	r3, [r3, #0]
 80029e0:	f003 0320 	and.w	r3, r3, #32
 80029e4:	2b00      	cmp	r3, #0
 80029e6:	d107      	bne.n	80029f8 <HAL_DMA_IRQHandler+0x50>
    {
      /* Disable the half transfer interrupt */
      __HAL_DMA_DISABLE_IT(hdma, DMA_IT_HT);
 80029e8:	687b      	ldr	r3, [r7, #4]
 80029ea:	681b      	ldr	r3, [r3, #0]
 80029ec:	681a      	ldr	r2, [r3, #0]
 80029ee:	687b      	ldr	r3, [r7, #4]
 80029f0:	681b      	ldr	r3, [r3, #0]
 80029f2:	f022 0204 	bic.w	r2, r2, #4
 80029f6:	601a      	str	r2, [r3, #0]
    }
    /* Clear the half transfer complete flag */
    __HAL_DMA_CLEAR_FLAG(hdma, __HAL_DMA_GET_HT_FLAG_INDEX(hdma));
 80029f8:	687b      	ldr	r3, [r7, #4]
 80029fa:	681b      	ldr	r3, [r3, #0]
 80029fc:	4a66      	ldr	r2, [pc, #408]	; (8002b98 <HAL_DMA_IRQHandler+0x1f0>)
 80029fe:	4293      	cmp	r3, r2
 8002a00:	d029      	beq.n	8002a56 <HAL_DMA_IRQHandler+0xae>
 8002a02:	687b      	ldr	r3, [r7, #4]
 8002a04:	681b      	ldr	r3, [r3, #0]
 8002a06:	4a65      	ldr	r2, [pc, #404]	; (8002b9c <HAL_DMA_IRQHandler+0x1f4>)
 8002a08:	4293      	cmp	r3, r2
 8002a0a:	d022      	beq.n	8002a52 <HAL_DMA_IRQHandler+0xaa>
 8002a0c:	687b      	ldr	r3, [r7, #4]
 8002a0e:	681b      	ldr	r3, [r3, #0]
 8002a10:	4a63      	ldr	r2, [pc, #396]	; (8002ba0 <HAL_DMA_IRQHandler+0x1f8>)
 8002a12:	4293      	cmp	r3, r2
 8002a14:	d01a      	beq.n	8002a4c <HAL_DMA_IRQHandler+0xa4>
 8002a16:	687b      	ldr	r3, [r7, #4]
 8002a18:	681b      	ldr	r3, [r3, #0]
 8002a1a:	4a62      	ldr	r2, [pc, #392]	; (8002ba4 <HAL_DMA_IRQHandler+0x1fc>)
 8002a1c:	4293      	cmp	r3, r2
 8002a1e:	d012      	beq.n	8002a46 <HAL_DMA_IRQHandler+0x9e>
 8002a20:	687b      	ldr	r3, [r7, #4]
 8002a22:	681b      	ldr	r3, [r3, #0]
 8002a24:	4a60      	ldr	r2, [pc, #384]	; (8002ba8 <HAL_DMA_IRQHandler+0x200>)
 8002a26:	4293      	cmp	r3, r2
 8002a28:	d00a      	beq.n	8002a40 <HAL_DMA_IRQHandler+0x98>
 8002a2a:	687b      	ldr	r3, [r7, #4]
 8002a2c:	681b      	ldr	r3, [r3, #0]
 8002a2e:	4a5f      	ldr	r2, [pc, #380]	; (8002bac <HAL_DMA_IRQHandler+0x204>)
 8002a30:	4293      	cmp	r3, r2
 8002a32:	d102      	bne.n	8002a3a <HAL_DMA_IRQHandler+0x92>
 8002a34:	f44f 0380 	mov.w	r3, #4194304	; 0x400000
 8002a38:	e00e      	b.n	8002a58 <HAL_DMA_IRQHandler+0xb0>
 8002a3a:	f04f 6380 	mov.w	r3, #67108864	; 0x4000000
 8002a3e:	e00b      	b.n	8002a58 <HAL_DMA_IRQHandler+0xb0>
 8002a40:	f44f 2380 	mov.w	r3, #262144	; 0x40000
 8002a44:	e008      	b.n	8002a58 <HAL_DMA_IRQHandler+0xb0>
 8002a46:	f44f 4380 	mov.w	r3, #16384	; 0x4000
 8002a4a:	e005      	b.n	8002a58 <HAL_DMA_IRQHandler+0xb0>
 8002a4c:	f44f 6380 	mov.w	r3, #1024	; 0x400
 8002a50:	e002      	b.n	8002a58 <HAL_DMA_IRQHandler+0xb0>
 8002a52:	2340      	movs	r3, #64	; 0x40
 8002a54:	e000      	b.n	8002a58 <HAL_DMA_IRQHandler+0xb0>
 8002a56:	2304      	movs	r3, #4
 8002a58:	4a55      	ldr	r2, [pc, #340]	; (8002bb0 <HAL_DMA_IRQHandler+0x208>)
 8002a5a:	6053      	str	r3, [r2, #4]

    /* DMA peripheral state is not updated in Half Transfer */
    /* but in Transfer Complete case */

    if(hdma->XferHalfCpltCallback != NULL)
 8002a5c:	687b      	ldr	r3, [r7, #4]
 8002a5e:	6adb      	ldr	r3, [r3, #44]	; 0x2c
 8002a60:	2b00      	cmp	r3, #0
 8002a62:	f000 8094 	beq.w	8002b8e <HAL_DMA_IRQHandler+0x1e6>
    {
      /* Half transfer callback */
      hdma->XferHalfCpltCallback(hdma);
 8002a66:	687b      	ldr	r3, [r7, #4]
 8002a68:	6adb      	ldr	r3, [r3, #44]	; 0x2c
 8002a6a:	6878      	ldr	r0, [r7, #4]
 8002a6c:	4798      	blx	r3
    if(hdma->XferHalfCpltCallback != NULL)
 8002a6e:	e08e      	b.n	8002b8e <HAL_DMA_IRQHandler+0x1e6>
    }
  }

  /* Transfer Complete Interrupt management ***********************************/
  else if (((flag_it & (DMA_FLAG_TC1 << hdma->ChannelIndex)) != RESET) && ((source_it & DMA_IT_TC) != RESET))
 8002a70:	687b      	ldr	r3, [r7, #4]
 8002a72:	6c1b      	ldr	r3, [r3, #64]	; 0x40
 8002a74:	2202      	movs	r2, #2
 8002a76:	409a      	lsls	r2, r3
 8002a78:	68fb      	ldr	r3, [r7, #12]
 8002a7a:	4013      	ands	r3, r2
 8002a7c:	2b00      	cmp	r3, #0
 8002a7e:	d056      	beq.n	8002b2e <HAL_DMA_IRQHandler+0x186>
 8002a80:	68bb      	ldr	r3, [r7, #8]
 8002a82:	f003 0302 	and.w	r3, r3, #2
 8002a86:	2b00      	cmp	r3, #0
 8002a88:	d051      	beq.n	8002b2e <HAL_DMA_IRQHandler+0x186>
  {
    if((hdma->Instance->CCR & DMA_CCR_CIRC) == 0U)
 8002a8a:	687b      	ldr	r3, [r7, #4]
 8002a8c:	681b      	ldr	r3, [r3, #0]
 8002a8e:	681b      	ldr	r3, [r3, #0]
 8002a90:	f003 0320 	and.w	r3, r3, #32
 8002a94:	2b00      	cmp	r3, #0
 8002a96:	d10b      	bne.n	8002ab0 <HAL_DMA_IRQHandler+0x108>
    {
      /* Disable the transfer complete and error interrupt */
      __HAL_DMA_DISABLE_IT(hdma, DMA_IT_TE | DMA_IT_TC);  
 8002a98:	687b      	ldr	r3, [r7, #4]
 8002a9a:	681b      	ldr	r3, [r3, #0]
 8002a9c:	681a      	ldr	r2, [r3, #0]
 8002a9e:	687b      	ldr	r3, [r7, #4]
 8002aa0:	681b      	ldr	r3, [r3, #0]
 8002aa2:	f022 020a 	bic.w	r2, r2, #10
 8002aa6:	601a      	str	r2, [r3, #0]

      /* Change the DMA state */
      hdma->State = HAL_DMA_STATE_READY;
 8002aa8:	687b      	ldr	r3, [r7, #4]
 8002aaa:	2201      	movs	r2, #1
 8002aac:	f883 2021 	strb.w	r2, [r3, #33]	; 0x21
    }
    /* Clear the transfer complete flag */
      __HAL_DMA_CLEAR_FLAG(hdma, __HAL_DMA_GET_TC_FLAG_INDEX(hdma));
 8002ab0:	687b      	ldr	r3, [r7, #4]
 8002ab2:	681b      	ldr	r3, [r3, #0]
 8002ab4:	4a38      	ldr	r2, [pc, #224]	; (8002b98 <HAL_DMA_IRQHandler+0x1f0>)
 8002ab6:	4293      	cmp	r3, r2
 8002ab8:	d029      	beq.n	8002b0e <HAL_DMA_IRQHandler+0x166>
 8002aba:	687b      	ldr	r3, [r7, #4]
 8002abc:	681b      	ldr	r3, [r3, #0]
 8002abe:	4a37      	ldr	r2, [pc, #220]	; (8002b9c <HAL_DMA_IRQHandler+0x1f4>)
 8002ac0:	4293      	cmp	r3, r2
 8002ac2:	d022      	beq.n	8002b0a <HAL_DMA_IRQHandler+0x162>
 8002ac4:	687b      	ldr	r3, [r7, #4]
 8002ac6:	681b      	ldr	r3, [r3, #0]
 8002ac8:	4a35      	ldr	r2, [pc, #212]	; (8002ba0 <HAL_DMA_IRQHandler+0x1f8>)
 8002aca:	4293      	cmp	r3, r2
 8002acc:	d01a      	beq.n	8002b04 <HAL_DMA_IRQHandler+0x15c>
 8002ace:	687b      	ldr	r3, [r7, #4]
 8002ad0:	681b      	ldr	r3, [r3, #0]
 8002ad2:	4a34      	ldr	r2, [pc, #208]	; (8002ba4 <HAL_DMA_IRQHandler+0x1fc>)
 8002ad4:	4293      	cmp	r3, r2
 8002ad6:	d012      	beq.n	8002afe <HAL_DMA_IRQHandler+0x156>
 8002ad8:	687b      	ldr	r3, [r7, #4]
 8002ada:	681b      	ldr	r3, [r3, #0]
 8002adc:	4a32      	ldr	r2, [pc, #200]	; (8002ba8 <HAL_DMA_IRQHandler+0x200>)
 8002ade:	4293      	cmp	r3, r2
 8002ae0:	d00a      	beq.n	8002af8 <HAL_DMA_IRQHandler+0x150>
 8002ae2:	687b      	ldr	r3, [r7, #4]
 8002ae4:	681b      	ldr	r3, [r3, #0]
 8002ae6:	4a31      	ldr	r2, [pc, #196]	; (8002bac <HAL_DMA_IRQHandler+0x204>)
 8002ae8:	4293      	cmp	r3, r2
 8002aea:	d102      	bne.n	8002af2 <HAL_DMA_IRQHandler+0x14a>
 8002aec:	f44f 1300 	mov.w	r3, #2097152	; 0x200000
 8002af0:	e00e      	b.n	8002b10 <HAL_DMA_IRQHandler+0x168>
 8002af2:	f04f 7300 	mov.w	r3, #33554432	; 0x2000000
 8002af6:	e00b      	b.n	8002b10 <HAL_DMA_IRQHandler+0x168>
 8002af8:	f44f 3300 	mov.w	r3, #131072	; 0x20000
 8002afc:	e008      	b.n	8002b10 <HAL_DMA_IRQHandler+0x168>
 8002afe:	f44f 5300 	mov.w	r3, #8192	; 0x2000
 8002b02:	e005      	b.n	8002b10 <HAL_DMA_IRQHandler+0x168>
 8002b04:	f44f 7300 	mov.w	r3, #512	; 0x200
 8002b08:	e002      	b.n	8002b10 <HAL_DMA_IRQHandler+0x168>
 8002b0a:	2320      	movs	r3, #32
 8002b0c:	e000      	b.n	8002b10 <HAL_DMA_IRQHandler+0x168>
 8002b0e:	2302      	movs	r3, #2
 8002b10:	4a27      	ldr	r2, [pc, #156]	; (8002bb0 <HAL_DMA_IRQHandler+0x208>)
 8002b12:	6053      	str	r3, [r2, #4]

    /* Process Unlocked */
    __HAL_UNLOCK(hdma);
 8002b14:	687b      	ldr	r3, [r7, #4]
 8002b16:	2200      	movs	r2, #0
 8002b18:	f883 2020 	strb.w	r2, [r3, #32]

    if(hdma->XferCpltCallback != NULL)
 8002b1c:	687b      	ldr	r3, [r7, #4]
 8002b1e:	6a9b      	ldr	r3, [r3, #40]	; 0x28
 8002b20:	2b00      	cmp	r3, #0
 8002b22:	d034      	beq.n	8002b8e <HAL_DMA_IRQHandler+0x1e6>
    {
      /* Transfer complete callback */
      hdma->XferCpltCallback(hdma);
 8002b24:	687b      	ldr	r3, [r7, #4]
 8002b26:	6a9b      	ldr	r3, [r3, #40]	; 0x28
 8002b28:	6878      	ldr	r0, [r7, #4]
 8002b2a:	4798      	blx	r3
    if(hdma->XferCpltCallback != NULL)
 8002b2c:	e02f      	b.n	8002b8e <HAL_DMA_IRQHandler+0x1e6>
    }
  }

  /* Transfer Error Interrupt management **************************************/
  else if (( RESET != (flag_it & (DMA_FLAG_TE1 << hdma->ChannelIndex))) && (RESET != (source_it & DMA_IT_TE)))
 8002b2e:	687b      	ldr	r3, [r7, #4]
 8002b30:	6c1b      	ldr	r3, [r3, #64]	; 0x40
 8002b32:	2208      	movs	r2, #8
 8002b34:	409a      	lsls	r2, r3
 8002b36:	68fb      	ldr	r3, [r7, #12]
 8002b38:	4013      	ands	r3, r2
 8002b3a:	2b00      	cmp	r3, #0
 8002b3c:	d028      	beq.n	8002b90 <HAL_DMA_IRQHandler+0x1e8>
 8002b3e:	68bb      	ldr	r3, [r7, #8]
 8002b40:	f003 0308 	and.w	r3, r3, #8
 8002b44:	2b00      	cmp	r3, #0
 8002b46:	d023      	beq.n	8002b90 <HAL_DMA_IRQHandler+0x1e8>
  {
    /* When a DMA transfer error occurs */
    /* A hardware clear of its EN bits is performed */
    /* Disable ALL DMA IT */
    __HAL_DMA_DISABLE_IT(hdma, (DMA_IT_TC | DMA_IT_HT | DMA_IT_TE));
 8002b48:	687b      	ldr	r3, [r7, #4]
 8002b4a:	681b      	ldr	r3, [r3, #0]
 8002b4c:	681a      	ldr	r2, [r3, #0]
 8002b4e:	687b      	ldr	r3, [r7, #4]
 8002b50:	681b      	ldr	r3, [r3, #0]
 8002b52:	f022 020e 	bic.w	r2, r2, #14
 8002b56:	601a      	str	r2, [r3, #0]

    /* Clear all flags */
    hdma->DmaBaseAddress->IFCR = (DMA_ISR_GIF1 << hdma->ChannelIndex);
 8002b58:	687b      	ldr	r3, [r7, #4]
 8002b5a:	6c1a      	ldr	r2, [r3, #64]	; 0x40
 8002b5c:	687b      	ldr	r3, [r7, #4]
 8002b5e:	6bdb      	ldr	r3, [r3, #60]	; 0x3c
 8002b60:	2101      	movs	r1, #1
 8002b62:	fa01 f202 	lsl.w	r2, r1, r2
 8002b66:	605a      	str	r2, [r3, #4]

    /* Update error code */
    hdma->ErrorCode = HAL_DMA_ERROR_TE;
 8002b68:	687b      	ldr	r3, [r7, #4]
 8002b6a:	2201      	movs	r2, #1
 8002b6c:	639a      	str	r2, [r3, #56]	; 0x38

    /* Change the DMA state */
    hdma->State = HAL_DMA_STATE_READY;
 8002b6e:	687b      	ldr	r3, [r7, #4]
 8002b70:	2201      	movs	r2, #1
 8002b72:	f883 2021 	strb.w	r2, [r3, #33]	; 0x21

    /* Process Unlocked */
    __HAL_UNLOCK(hdma);
 8002b76:	687b      	ldr	r3, [r7, #4]
 8002b78:	2200      	movs	r2, #0
 8002b7a:	f883 2020 	strb.w	r2, [r3, #32]

    if (hdma->XferErrorCallback != NULL)
 8002b7e:	687b      	ldr	r3, [r7, #4]
 8002b80:	6b1b      	ldr	r3, [r3, #48]	; 0x30
 8002b82:	2b00      	cmp	r3, #0
 8002b84:	d004      	beq.n	8002b90 <HAL_DMA_IRQHandler+0x1e8>
    {
      /* Transfer error callback */
      hdma->XferErrorCallback(hdma);
 8002b86:	687b      	ldr	r3, [r7, #4]
 8002b88:	6b1b      	ldr	r3, [r3, #48]	; 0x30
 8002b8a:	6878      	ldr	r0, [r7, #4]
 8002b8c:	4798      	blx	r3
    }
  }
  return;
 8002b8e:	bf00      	nop
 8002b90:	bf00      	nop
}
 8002b92:	3710      	adds	r7, #16
 8002b94:	46bd      	mov	sp, r7
 8002b96:	bd80      	pop	{r7, pc}
 8002b98:	40020008 	.word	0x40020008
 8002b9c:	4002001c 	.word	0x4002001c
 8002ba0:	40020030 	.word	0x40020030
 8002ba4:	40020044 	.word	0x40020044
 8002ba8:	40020058 	.word	0x40020058
 8002bac:	4002006c 	.word	0x4002006c
 8002bb0:	40020000 	.word	0x40020000

08002bb4 <DMA_SetConfig>:
  * @param  DstAddress: The destination memory Buffer address
  * @param  DataLength: The length of data to be transferred from source to destination
  * @retval HAL status
  */
static void DMA_SetConfig(DMA_HandleTypeDef *hdma, uint32_t SrcAddress, uint32_t DstAddress, uint32_t DataLength)
{
 8002bb4:	b480      	push	{r7}
 8002bb6:	b085      	sub	sp, #20
 8002bb8:	af00      	add	r7, sp, #0
 8002bba:	60f8      	str	r0, [r7, #12]
 8002bbc:	60b9      	str	r1, [r7, #8]
 8002bbe:	607a      	str	r2, [r7, #4]
 8002bc0:	603b      	str	r3, [r7, #0]
  /* Clear all flags */
  hdma->DmaBaseAddress->IFCR = (DMA_ISR_GIF1 << hdma->ChannelIndex);
 8002bc2:	68fb      	ldr	r3, [r7, #12]
 8002bc4:	6c1a      	ldr	r2, [r3, #64]	; 0x40
 8002bc6:	68fb      	ldr	r3, [r7, #12]
 8002bc8:	6bdb      	ldr	r3, [r3, #60]	; 0x3c
 8002bca:	2101      	movs	r1, #1
 8002bcc:	fa01 f202 	lsl.w	r2, r1, r2
 8002bd0:	605a      	str	r2, [r3, #4]

  /* Configure DMA Channel data length */
  hdma->Instance->CNDTR = DataLength;
 8002bd2:	68fb      	ldr	r3, [r7, #12]
 8002bd4:	681b      	ldr	r3, [r3, #0]
 8002bd6:	683a      	ldr	r2, [r7, #0]
 8002bd8:	605a      	str	r2, [r3, #4]

  /* Memory to Peripheral */
  if((hdma->Init.Direction) == DMA_MEMORY_TO_PERIPH)
 8002bda:	68fb      	ldr	r3, [r7, #12]
 8002bdc:	685b      	ldr	r3, [r3, #4]
 8002bde:	2b10      	cmp	r3, #16
 8002be0:	d108      	bne.n	8002bf4 <DMA_SetConfig+0x40>
  {
    /* Configure DMA Channel destination address */
    hdma->Instance->CPAR = DstAddress;
 8002be2:	68fb      	ldr	r3, [r7, #12]
 8002be4:	681b      	ldr	r3, [r3, #0]
 8002be6:	687a      	ldr	r2, [r7, #4]
 8002be8:	609a      	str	r2, [r3, #8]

    /* Configure DMA Channel source address */
    hdma->Instance->CMAR = SrcAddress;
 8002bea:	68fb      	ldr	r3, [r7, #12]
 8002bec:	681b      	ldr	r3, [r3, #0]
 8002bee:	68ba      	ldr	r2, [r7, #8]
 8002bf0:	60da      	str	r2, [r3, #12]
    hdma->Instance->CPAR = SrcAddress;

    /* Configure DMA Channel destination address */
    hdma->Instance->CMAR = DstAddress;
  }
}
 8002bf2:	e007      	b.n	8002c04 <DMA_SetConfig+0x50>
    hdma->Instance->CPAR = SrcAddress;
 8002bf4:	68fb      	ldr	r3, [r7, #12]
 8002bf6:	681b      	ldr	r3, [r3, #0]
 8002bf8:	68ba      	ldr	r2, [r7, #8]
 8002bfa:	609a      	str	r2, [r3, #8]
    hdma->Instance->CMAR = DstAddress;
 8002bfc:	68fb      	ldr	r3, [r7, #12]
 8002bfe:	681b      	ldr	r3, [r3, #0]
 8002c00:	687a      	ldr	r2, [r7, #4]
 8002c02:	60da      	str	r2, [r3, #12]
}
 8002c04:	bf00      	nop
 8002c06:	3714      	adds	r7, #20
 8002c08:	46bd      	mov	sp, r7
 8002c0a:	bc80      	pop	{r7}
 8002c0c:	4770      	bx	lr
	...

08002c10 <HAL_GPIO_Init>:
  * @param  GPIO_Init: pointer to a GPIO_InitTypeDef structure that contains
  *         the configuration information for the specified GPIO peripheral.
  * @retval None
  */
void HAL_GPIO_Init(GPIO_TypeDef  *GPIOx, GPIO_InitTypeDef *GPIO_Init)
{
 8002c10:	b480      	push	{r7}
 8002c12:	b08b      	sub	sp, #44	; 0x2c
 8002c14:	af00      	add	r7, sp, #0
 8002c16:	6078      	str	r0, [r7, #4]
 8002c18:	6039      	str	r1, [r7, #0]
  uint32_t position = 0x00u;
 8002c1a:	2300      	movs	r3, #0
 8002c1c:	627b      	str	r3, [r7, #36]	; 0x24
  uint32_t ioposition;
  uint32_t iocurrent;
  uint32_t temp;
  uint32_t config = 0x00u;
 8002c1e:	2300      	movs	r3, #0
 8002c20:	623b      	str	r3, [r7, #32]
  assert_param(IS_GPIO_ALL_INSTANCE(GPIOx));
  assert_param(IS_GPIO_PIN(GPIO_Init->Pin));
  assert_param(IS_GPIO_MODE(GPIO_Init->Mode));

  /* Configure the port pins */
  while (((GPIO_Init->Pin) >> position) != 0x00u)
 8002c22:	e127      	b.n	8002e74 <HAL_GPIO_Init+0x264>
  {
    /* Get the IO position */
    ioposition = (0x01uL << position);
 8002c24:	2201      	movs	r2, #1
 8002c26:	6a7b      	ldr	r3, [r7, #36]	; 0x24
 8002c28:	fa02 f303 	lsl.w	r3, r2, r3
 8002c2c:	61fb      	str	r3, [r7, #28]

    /* Get the current IO position */
    iocurrent = (uint32_t)(GPIO_Init->Pin) & ioposition;
 8002c2e:	683b      	ldr	r3, [r7, #0]
 8002c30:	681b      	ldr	r3, [r3, #0]
 8002c32:	69fa      	ldr	r2, [r7, #28]
 8002c34:	4013      	ands	r3, r2
 8002c36:	61bb      	str	r3, [r7, #24]

    if (iocurrent == ioposition)
 8002c38:	69ba      	ldr	r2, [r7, #24]
 8002c3a:	69fb      	ldr	r3, [r7, #28]
 8002c3c:	429a      	cmp	r2, r3
 8002c3e:	f040 8116 	bne.w	8002e6e <HAL_GPIO_Init+0x25e>
    {
      /* Check the Alternate function parameters */
      assert_param(IS_GPIO_AF_INSTANCE(GPIOx));

      /* Based on the required mode, filling config variable with MODEy[1:0] and CNFy[3:2] corresponding bits */
      switch (GPIO_Init->Mode)
 8002c42:	683b      	ldr	r3, [r7, #0]
 8002c44:	685b      	ldr	r3, [r3, #4]
 8002c46:	2b12      	cmp	r3, #18
 8002c48:	d034      	beq.n	8002cb4 <HAL_GPIO_Init+0xa4>
 8002c4a:	2b12      	cmp	r3, #18
 8002c4c:	d80d      	bhi.n	8002c6a <HAL_GPIO_Init+0x5a>
 8002c4e:	2b02      	cmp	r3, #2
 8002c50:	d02b      	beq.n	8002caa <HAL_GPIO_Init+0x9a>
 8002c52:	2b02      	cmp	r3, #2
 8002c54:	d804      	bhi.n	8002c60 <HAL_GPIO_Init+0x50>
 8002c56:	2b00      	cmp	r3, #0
 8002c58:	d031      	beq.n	8002cbe <HAL_GPIO_Init+0xae>
 8002c5a:	2b01      	cmp	r3, #1
 8002c5c:	d01c      	beq.n	8002c98 <HAL_GPIO_Init+0x88>
          config = GPIO_CR_MODE_INPUT + GPIO_CR_CNF_ANALOG;
          break;

        /* Parameters are checked with assert_param */
        default:
          break;
 8002c5e:	e048      	b.n	8002cf2 <HAL_GPIO_Init+0xe2>
      switch (GPIO_Init->Mode)
 8002c60:	2b03      	cmp	r3, #3
 8002c62:	d043      	beq.n	8002cec <HAL_GPIO_Init+0xdc>
 8002c64:	2b11      	cmp	r3, #17
 8002c66:	d01b      	beq.n	8002ca0 <HAL_GPIO_Init+0x90>
          break;
 8002c68:	e043      	b.n	8002cf2 <HAL_GPIO_Init+0xe2>
      switch (GPIO_Init->Mode)
 8002c6a:	4a89      	ldr	r2, [pc, #548]	; (8002e90 <HAL_GPIO_Init+0x280>)
 8002c6c:	4293      	cmp	r3, r2
 8002c6e:	d026      	beq.n	8002cbe <HAL_GPIO_Init+0xae>
 8002c70:	4a87      	ldr	r2, [pc, #540]	; (8002e90 <HAL_GPIO_Init+0x280>)
 8002c72:	4293      	cmp	r3, r2
 8002c74:	d806      	bhi.n	8002c84 <HAL_GPIO_Init+0x74>
 8002c76:	4a87      	ldr	r2, [pc, #540]	; (8002e94 <HAL_GPIO_Init+0x284>)
 8002c78:	4293      	cmp	r3, r2
 8002c7a:	d020      	beq.n	8002cbe <HAL_GPIO_Init+0xae>
 8002c7c:	4a86      	ldr	r2, [pc, #536]	; (8002e98 <HAL_GPIO_Init+0x288>)
 8002c7e:	4293      	cmp	r3, r2
 8002c80:	d01d      	beq.n	8002cbe <HAL_GPIO_Init+0xae>
          break;
 8002c82:	e036      	b.n	8002cf2 <HAL_GPIO_Init+0xe2>
      switch (GPIO_Init->Mode)
 8002c84:	4a85      	ldr	r2, [pc, #532]	; (8002e9c <HAL_GPIO_Init+0x28c>)
 8002c86:	4293      	cmp	r3, r2
 8002c88:	d019      	beq.n	8002cbe <HAL_GPIO_Init+0xae>
 8002c8a:	4a85      	ldr	r2, [pc, #532]	; (8002ea0 <HAL_GPIO_Init+0x290>)
 8002c8c:	4293      	cmp	r3, r2
 8002c8e:	d016      	beq.n	8002cbe <HAL_GPIO_Init+0xae>
 8002c90:	4a84      	ldr	r2, [pc, #528]	; (8002ea4 <HAL_GPIO_Init+0x294>)
 8002c92:	4293      	cmp	r3, r2
 8002c94:	d013      	beq.n	8002cbe <HAL_GPIO_Init+0xae>
          break;
 8002c96:	e02c      	b.n	8002cf2 <HAL_GPIO_Init+0xe2>
          config = GPIO_Init->Speed + GPIO_CR_CNF_GP_OUTPUT_PP;
 8002c98:	683b      	ldr	r3, [r7, #0]
 8002c9a:	68db      	ldr	r3, [r3, #12]
 8002c9c:	623b      	str	r3, [r7, #32]
          break;
 8002c9e:	e028      	b.n	8002cf2 <HAL_GPIO_Init+0xe2>
          config = GPIO_Init->Speed + GPIO_CR_CNF_GP_OUTPUT_OD;
 8002ca0:	683b      	ldr	r3, [r7, #0]
 8002ca2:	68db      	ldr	r3, [r3, #12]
 8002ca4:	3304      	adds	r3, #4
 8002ca6:	623b      	str	r3, [r7, #32]
          break;
 8002ca8:	e023      	b.n	8002cf2 <HAL_GPIO_Init+0xe2>
          config = GPIO_Init->Speed + GPIO_CR_CNF_AF_OUTPUT_PP;
 8002caa:	683b      	ldr	r3, [r7, #0]
 8002cac:	68db      	ldr	r3, [r3, #12]
 8002cae:	3308      	adds	r3, #8
 8002cb0:	623b      	str	r3, [r7, #32]
          break;
 8002cb2:	e01e      	b.n	8002cf2 <HAL_GPIO_Init+0xe2>
          config = GPIO_Init->Speed + GPIO_CR_CNF_AF_OUTPUT_OD;
 8002cb4:	683b      	ldr	r3, [r7, #0]
 8002cb6:	68db      	ldr	r3, [r3, #12]
 8002cb8:	330c      	adds	r3, #12
 8002cba:	623b      	str	r3, [r7, #32]
          break;
 8002cbc:	e019      	b.n	8002cf2 <HAL_GPIO_Init+0xe2>
          if (GPIO_Init->Pull == GPIO_NOPULL)
 8002cbe:	683b      	ldr	r3, [r7, #0]
 8002cc0:	689b      	ldr	r3, [r3, #8]
 8002cc2:	2b00      	cmp	r3, #0
 8002cc4:	d102      	bne.n	8002ccc <HAL_GPIO_Init+0xbc>
            config = GPIO_CR_MODE_INPUT + GPIO_CR_CNF_INPUT_FLOATING;
 8002cc6:	2304      	movs	r3, #4
 8002cc8:	623b      	str	r3, [r7, #32]
          break;
 8002cca:	e012      	b.n	8002cf2 <HAL_GPIO_Init+0xe2>
          else if (GPIO_Init->Pull == GPIO_PULLUP)
 8002ccc:	683b      	ldr	r3, [r7, #0]
 8002cce:	689b      	ldr	r3, [r3, #8]
 8002cd0:	2b01      	cmp	r3, #1
 8002cd2:	d105      	bne.n	8002ce0 <HAL_GPIO_Init+0xd0>
            config = GPIO_CR_MODE_INPUT + GPIO_CR_CNF_INPUT_PU_PD;
 8002cd4:	2308      	movs	r3, #8
 8002cd6:	623b      	str	r3, [r7, #32]
            GPIOx->BSRR = ioposition;
 8002cd8:	687b      	ldr	r3, [r7, #4]
 8002cda:	69fa      	ldr	r2, [r7, #28]
 8002cdc:	611a      	str	r2, [r3, #16]
          break;
 8002cde:	e008      	b.n	8002cf2 <HAL_GPIO_Init+0xe2>
            config = GPIO_CR_MODE_INPUT + GPIO_CR_CNF_INPUT_PU_PD;
 8002ce0:	2308      	movs	r3, #8
 8002ce2:	623b      	str	r3, [r7, #32]
            GPIOx->BRR = ioposition;
 8002ce4:	687b      	ldr	r3, [r7, #4]
 8002ce6:	69fa      	ldr	r2, [r7, #28]
 8002ce8:	615a      	str	r2, [r3, #20]
          break;
 8002cea:	e002      	b.n	8002cf2 <HAL_GPIO_Init+0xe2>
          config = GPIO_CR_MODE_INPUT + GPIO_CR_CNF_ANALOG;
 8002cec:	2300      	movs	r3, #0
 8002cee:	623b      	str	r3, [r7, #32]
          break;
 8002cf0:	bf00      	nop
      }

      /* Check if the current bit belongs to first half or last half of the pin count number
       in order to address CRH or CRL register*/
      configregister = (iocurrent < GPIO_PIN_8) ? &GPIOx->CRL     : &GPIOx->CRH;
 8002cf2:	69bb      	ldr	r3, [r7, #24]
 8002cf4:	2bff      	cmp	r3, #255	; 0xff
 8002cf6:	d801      	bhi.n	8002cfc <HAL_GPIO_Init+0xec>
 8002cf8:	687b      	ldr	r3, [r7, #4]
 8002cfa:	e001      	b.n	8002d00 <HAL_GPIO_Init+0xf0>
 8002cfc:	687b      	ldr	r3, [r7, #4]
 8002cfe:	3304      	adds	r3, #4
 8002d00:	617b      	str	r3, [r7, #20]
      registeroffset = (iocurrent < GPIO_PIN_8) ? (position << 2u) : ((position - 8u) << 2u);
 8002d02:	69bb      	ldr	r3, [r7, #24]
 8002d04:	2bff      	cmp	r3, #255	; 0xff
 8002d06:	d802      	bhi.n	8002d0e <HAL_GPIO_Init+0xfe>
 8002d08:	6a7b      	ldr	r3, [r7, #36]	; 0x24
 8002d0a:	009b      	lsls	r3, r3, #2
 8002d0c:	e002      	b.n	8002d14 <HAL_GPIO_Init+0x104>
 8002d0e:	6a7b      	ldr	r3, [r7, #36]	; 0x24
 8002d10:	3b08      	subs	r3, #8
 8002d12:	009b      	lsls	r3, r3, #2
 8002d14:	613b      	str	r3, [r7, #16]

      /* Apply the new configuration of the pin to the register */
      MODIFY_REG((*configregister), ((GPIO_CRL_MODE0 | GPIO_CRL_CNF0) << registeroffset), (config << registeroffset));
 8002d16:	697b      	ldr	r3, [r7, #20]
 8002d18:	681a      	ldr	r2, [r3, #0]
 8002d1a:	210f      	movs	r1, #15
 8002d1c:	693b      	ldr	r3, [r7, #16]
 8002d1e:	fa01 f303 	lsl.w	r3, r1, r3
 8002d22:	43db      	mvns	r3, r3
 8002d24:	401a      	ands	r2, r3
 8002d26:	6a39      	ldr	r1, [r7, #32]
 8002d28:	693b      	ldr	r3, [r7, #16]
 8002d2a:	fa01 f303 	lsl.w	r3, r1, r3
 8002d2e:	431a      	orrs	r2, r3
 8002d30:	697b      	ldr	r3, [r7, #20]
 8002d32:	601a      	str	r2, [r3, #0]

      /*--------------------- EXTI Mode Configuration ------------------------*/
      /* Configure the External Interrupt or event for the current IO */
      if ((GPIO_Init->Mode & EXTI_MODE) == EXTI_MODE)
 8002d34:	683b      	ldr	r3, [r7, #0]
 8002d36:	685b      	ldr	r3, [r3, #4]
 8002d38:	f003 5380 	and.w	r3, r3, #268435456	; 0x10000000
 8002d3c:	2b00      	cmp	r3, #0
 8002d3e:	f000 8096 	beq.w	8002e6e <HAL_GPIO_Init+0x25e>
      {
        /* Enable AFIO Clock */
        __HAL_RCC_AFIO_CLK_ENABLE();
 8002d42:	4b59      	ldr	r3, [pc, #356]	; (8002ea8 <HAL_GPIO_Init+0x298>)
 8002d44:	699b      	ldr	r3, [r3, #24]
 8002d46:	4a58      	ldr	r2, [pc, #352]	; (8002ea8 <HAL_GPIO_Init+0x298>)
 8002d48:	f043 0301 	orr.w	r3, r3, #1
 8002d4c:	6193      	str	r3, [r2, #24]
 8002d4e:	4b56      	ldr	r3, [pc, #344]	; (8002ea8 <HAL_GPIO_Init+0x298>)
 8002d50:	699b      	ldr	r3, [r3, #24]
 8002d52:	f003 0301 	and.w	r3, r3, #1
 8002d56:	60bb      	str	r3, [r7, #8]
 8002d58:	68bb      	ldr	r3, [r7, #8]
        temp = AFIO->EXTICR[position >> 2u];
 8002d5a:	4a54      	ldr	r2, [pc, #336]	; (8002eac <HAL_GPIO_Init+0x29c>)
 8002d5c:	6a7b      	ldr	r3, [r7, #36]	; 0x24
 8002d5e:	089b      	lsrs	r3, r3, #2
 8002d60:	3302      	adds	r3, #2
 8002d62:	f852 3023 	ldr.w	r3, [r2, r3, lsl #2]
 8002d66:	60fb      	str	r3, [r7, #12]
        CLEAR_BIT(temp, (0x0Fu) << (4u * (position & 0x03u)));
 8002d68:	6a7b      	ldr	r3, [r7, #36]	; 0x24
 8002d6a:	f003 0303 	and.w	r3, r3, #3
 8002d6e:	009b      	lsls	r3, r3, #2
 8002d70:	220f      	movs	r2, #15
 8002d72:	fa02 f303 	lsl.w	r3, r2, r3
 8002d76:	43db      	mvns	r3, r3
 8002d78:	68fa      	ldr	r2, [r7, #12]
 8002d7a:	4013      	ands	r3, r2
 8002d7c:	60fb      	str	r3, [r7, #12]
        SET_BIT(temp, (GPIO_GET_INDEX(GPIOx)) << (4u * (position & 0x03u)));
 8002d7e:	687b      	ldr	r3, [r7, #4]
 8002d80:	4a4b      	ldr	r2, [pc, #300]	; (8002eb0 <HAL_GPIO_Init+0x2a0>)
 8002d82:	4293      	cmp	r3, r2
 8002d84:	d013      	beq.n	8002dae <HAL_GPIO_Init+0x19e>
 8002d86:	687b      	ldr	r3, [r7, #4]
 8002d88:	4a4a      	ldr	r2, [pc, #296]	; (8002eb4 <HAL_GPIO_Init+0x2a4>)
 8002d8a:	4293      	cmp	r3, r2
 8002d8c:	d00d      	beq.n	8002daa <HAL_GPIO_Init+0x19a>
 8002d8e:	687b      	ldr	r3, [r7, #4]
 8002d90:	4a49      	ldr	r2, [pc, #292]	; (8002eb8 <HAL_GPIO_Init+0x2a8>)
 8002d92:	4293      	cmp	r3, r2
 8002d94:	d007      	beq.n	8002da6 <HAL_GPIO_Init+0x196>
 8002d96:	687b      	ldr	r3, [r7, #4]
 8002d98:	4a48      	ldr	r2, [pc, #288]	; (8002ebc <HAL_GPIO_Init+0x2ac>)
 8002d9a:	4293      	cmp	r3, r2
 8002d9c:	d101      	bne.n	8002da2 <HAL_GPIO_Init+0x192>
 8002d9e:	2303      	movs	r3, #3
 8002da0:	e006      	b.n	8002db0 <HAL_GPIO_Init+0x1a0>
 8002da2:	2304      	movs	r3, #4
 8002da4:	e004      	b.n	8002db0 <HAL_GPIO_Init+0x1a0>
 8002da6:	2302      	movs	r3, #2
 8002da8:	e002      	b.n	8002db0 <HAL_GPIO_Init+0x1a0>
 8002daa:	2301      	movs	r3, #1
 8002dac:	e000      	b.n	8002db0 <HAL_GPIO_Init+0x1a0>
 8002dae:	2300      	movs	r3, #0
 8002db0:	6a7a      	ldr	r2, [r7, #36]	; 0x24
 8002db2:	f002 0203 	and.w	r2, r2, #3
 8002db6:	0092      	lsls	r2, r2, #2
 8002db8:	4093      	lsls	r3, r2
 8002dba:	68fa      	ldr	r2, [r7, #12]
 8002dbc:	4313      	orrs	r3, r2
 8002dbe:	60fb      	str	r3, [r7, #12]
        AFIO->EXTICR[position >> 2u] = temp;
 8002dc0:	493a      	ldr	r1, [pc, #232]	; (8002eac <HAL_GPIO_Init+0x29c>)
 8002dc2:	6a7b      	ldr	r3, [r7, #36]	; 0x24
 8002dc4:	089b      	lsrs	r3, r3, #2
 8002dc6:	3302      	adds	r3, #2
 8002dc8:	68fa      	ldr	r2, [r7, #12]
 8002dca:	f841 2023 	str.w	r2, [r1, r3, lsl #2]


        /* Configure the interrupt mask */
        if ((GPIO_Init->Mode & GPIO_MODE_IT) == GPIO_MODE_IT)
 8002dce:	683b      	ldr	r3, [r7, #0]
 8002dd0:	685b      	ldr	r3, [r3, #4]
 8002dd2:	f403 3380 	and.w	r3, r3, #65536	; 0x10000
 8002dd6:	2b00      	cmp	r3, #0
 8002dd8:	d006      	beq.n	8002de8 <HAL_GPIO_Init+0x1d8>
        {
          SET_BIT(EXTI->IMR, iocurrent);
 8002dda:	4b39      	ldr	r3, [pc, #228]	; (8002ec0 <HAL_GPIO_Init+0x2b0>)
 8002ddc:	681a      	ldr	r2, [r3, #0]
 8002dde:	4938      	ldr	r1, [pc, #224]	; (8002ec0 <HAL_GPIO_Init+0x2b0>)
 8002de0:	69bb      	ldr	r3, [r7, #24]
 8002de2:	4313      	orrs	r3, r2
 8002de4:	600b      	str	r3, [r1, #0]
 8002de6:	e006      	b.n	8002df6 <HAL_GPIO_Init+0x1e6>
        }
        else
        {
          CLEAR_BIT(EXTI->IMR, iocurrent);
 8002de8:	4b35      	ldr	r3, [pc, #212]	; (8002ec0 <HAL_GPIO_Init+0x2b0>)
 8002dea:	681a      	ldr	r2, [r3, #0]
 8002dec:	69bb      	ldr	r3, [r7, #24]
 8002dee:	43db      	mvns	r3, r3
 8002df0:	4933      	ldr	r1, [pc, #204]	; (8002ec0 <HAL_GPIO_Init+0x2b0>)
 8002df2:	4013      	ands	r3, r2
 8002df4:	600b      	str	r3, [r1, #0]
        }

        /* Configure the event mask */
        if ((GPIO_Init->Mode & GPIO_MODE_EVT) == GPIO_MODE_EVT)
 8002df6:	683b      	ldr	r3, [r7, #0]
 8002df8:	685b      	ldr	r3, [r3, #4]
 8002dfa:	f403 3300 	and.w	r3, r3, #131072	; 0x20000
 8002dfe:	2b00      	cmp	r3, #0
 8002e00:	d006      	beq.n	8002e10 <HAL_GPIO_Init+0x200>
        {
          SET_BIT(EXTI->EMR, iocurrent);
 8002e02:	4b2f      	ldr	r3, [pc, #188]	; (8002ec0 <HAL_GPIO_Init+0x2b0>)
 8002e04:	685a      	ldr	r2, [r3, #4]
 8002e06:	492e      	ldr	r1, [pc, #184]	; (8002ec0 <HAL_GPIO_Init+0x2b0>)
 8002e08:	69bb      	ldr	r3, [r7, #24]
 8002e0a:	4313      	orrs	r3, r2
 8002e0c:	604b      	str	r3, [r1, #4]
 8002e0e:	e006      	b.n	8002e1e <HAL_GPIO_Init+0x20e>
        }
        else
        {
          CLEAR_BIT(EXTI->EMR, iocurrent);
 8002e10:	4b2b      	ldr	r3, [pc, #172]	; (8002ec0 <HAL_GPIO_Init+0x2b0>)
 8002e12:	685a      	ldr	r2, [r3, #4]
 8002e14:	69bb      	ldr	r3, [r7, #24]
 8002e16:	43db      	mvns	r3, r3
 8002e18:	4929      	ldr	r1, [pc, #164]	; (8002ec0 <HAL_GPIO_Init+0x2b0>)
 8002e1a:	4013      	ands	r3, r2
 8002e1c:	604b      	str	r3, [r1, #4]
        }

        /* Enable or disable the rising trigger */
        if ((GPIO_Init->Mode & RISING_EDGE) == RISING_EDGE)
 8002e1e:	683b      	ldr	r3, [r7, #0]
 8002e20:	685b      	ldr	r3, [r3, #4]
 8002e22:	f403 1380 	and.w	r3, r3, #1048576	; 0x100000
 8002e26:	2b00      	cmp	r3, #0
 8002e28:	d006      	beq.n	8002e38 <HAL_GPIO_Init+0x228>
        {
          SET_BIT(EXTI->RTSR, iocurrent);
 8002e2a:	4b25      	ldr	r3, [pc, #148]	; (8002ec0 <HAL_GPIO_Init+0x2b0>)
 8002e2c:	689a      	ldr	r2, [r3, #8]
 8002e2e:	4924      	ldr	r1, [pc, #144]	; (8002ec0 <HAL_GPIO_Init+0x2b0>)
 8002e30:	69bb      	ldr	r3, [r7, #24]
 8002e32:	4313      	orrs	r3, r2
 8002e34:	608b      	str	r3, [r1, #8]
 8002e36:	e006      	b.n	8002e46 <HAL_GPIO_Init+0x236>
        }
        else
        {
          CLEAR_BIT(EXTI->RTSR, iocurrent);
 8002e38:	4b21      	ldr	r3, [pc, #132]	; (8002ec0 <HAL_GPIO_Init+0x2b0>)
 8002e3a:	689a      	ldr	r2, [r3, #8]
 8002e3c:	69bb      	ldr	r3, [r7, #24]
 8002e3e:	43db      	mvns	r3, r3
 8002e40:	491f      	ldr	r1, [pc, #124]	; (8002ec0 <HAL_GPIO_Init+0x2b0>)
 8002e42:	4013      	ands	r3, r2
 8002e44:	608b      	str	r3, [r1, #8]
        }

        /* Enable or disable the falling trigger */
        if ((GPIO_Init->Mode & FALLING_EDGE) == FALLING_EDGE)
 8002e46:	683b      	ldr	r3, [r7, #0]
 8002e48:	685b      	ldr	r3, [r3, #4]
 8002e4a:	f403 1300 	and.w	r3, r3, #2097152	; 0x200000
 8002e4e:	2b00      	cmp	r3, #0
 8002e50:	d006      	beq.n	8002e60 <HAL_GPIO_Init+0x250>
        {
          SET_BIT(EXTI->FTSR, iocurrent);
 8002e52:	4b1b      	ldr	r3, [pc, #108]	; (8002ec0 <HAL_GPIO_Init+0x2b0>)
 8002e54:	68da      	ldr	r2, [r3, #12]
 8002e56:	491a      	ldr	r1, [pc, #104]	; (8002ec0 <HAL_GPIO_Init+0x2b0>)
 8002e58:	69bb      	ldr	r3, [r7, #24]
 8002e5a:	4313      	orrs	r3, r2
 8002e5c:	60cb      	str	r3, [r1, #12]
 8002e5e:	e006      	b.n	8002e6e <HAL_GPIO_Init+0x25e>
        }
        else
        {
          CLEAR_BIT(EXTI->FTSR, iocurrent);
 8002e60:	4b17      	ldr	r3, [pc, #92]	; (8002ec0 <HAL_GPIO_Init+0x2b0>)
 8002e62:	68da      	ldr	r2, [r3, #12]
 8002e64:	69bb      	ldr	r3, [r7, #24]
 8002e66:	43db      	mvns	r3, r3
 8002e68:	4915      	ldr	r1, [pc, #84]	; (8002ec0 <HAL_GPIO_Init+0x2b0>)
 8002e6a:	4013      	ands	r3, r2
 8002e6c:	60cb      	str	r3, [r1, #12]
        }
      }
    }

	position++;
 8002e6e:	6a7b      	ldr	r3, [r7, #36]	; 0x24
 8002e70:	3301      	adds	r3, #1
 8002e72:	627b      	str	r3, [r7, #36]	; 0x24
  while (((GPIO_Init->Pin) >> position) != 0x00u)
 8002e74:	683b      	ldr	r3, [r7, #0]
 8002e76:	681a      	ldr	r2, [r3, #0]
 8002e78:	6a7b      	ldr	r3, [r7, #36]	; 0x24
 8002e7a:	fa22 f303 	lsr.w	r3, r2, r3
 8002e7e:	2b00      	cmp	r3, #0
 8002e80:	f47f aed0 	bne.w	8002c24 <HAL_GPIO_Init+0x14>
  }
}
 8002e84:	bf00      	nop
 8002e86:	372c      	adds	r7, #44	; 0x2c
 8002e88:	46bd      	mov	sp, r7
 8002e8a:	bc80      	pop	{r7}
 8002e8c:	4770      	bx	lr
 8002e8e:	bf00      	nop
 8002e90:	10210000 	.word	0x10210000
 8002e94:	10110000 	.word	0x10110000
 8002e98:	10120000 	.word	0x10120000
 8002e9c:	10310000 	.word	0x10310000
 8002ea0:	10320000 	.word	0x10320000
 8002ea4:	10220000 	.word	0x10220000
 8002ea8:	40021000 	.word	0x40021000
 8002eac:	40010000 	.word	0x40010000
 8002eb0:	40010800 	.word	0x40010800
 8002eb4:	40010c00 	.word	0x40010c00
 8002eb8:	40011000 	.word	0x40011000
 8002ebc:	40011400 	.word	0x40011400
 8002ec0:	40010400 	.word	0x40010400

08002ec4 <HAL_GPIO_ReadPin>:
  * @param  GPIO_Pin: specifies the port bit to read.
  *         This parameter can be GPIO_PIN_x where x can be (0..15).
  * @retval The input port pin value.
  */
GPIO_PinState HAL_GPIO_ReadPin(GPIO_TypeDef *GPIOx, uint16_t GPIO_Pin)
{
 8002ec4:	b480      	push	{r7}
 8002ec6:	b085      	sub	sp, #20
 8002ec8:	af00      	add	r7, sp, #0
 8002eca:	6078      	str	r0, [r7, #4]
 8002ecc:	460b      	mov	r3, r1
 8002ece:	807b      	strh	r3, [r7, #2]
  GPIO_PinState bitstatus;

  /* Check the parameters */
  assert_param(IS_GPIO_PIN(GPIO_Pin));

  if ((GPIOx->IDR & GPIO_Pin) != (uint32_t)GPIO_PIN_RESET)
 8002ed0:	687b      	ldr	r3, [r7, #4]
 8002ed2:	689a      	ldr	r2, [r3, #8]
 8002ed4:	887b      	ldrh	r3, [r7, #2]
 8002ed6:	4013      	ands	r3, r2
 8002ed8:	2b00      	cmp	r3, #0
 8002eda:	d002      	beq.n	8002ee2 <HAL_GPIO_ReadPin+0x1e>
  {
    bitstatus = GPIO_PIN_SET;
 8002edc:	2301      	movs	r3, #1
 8002ede:	73fb      	strb	r3, [r7, #15]
 8002ee0:	e001      	b.n	8002ee6 <HAL_GPIO_ReadPin+0x22>
  }
  else
  {
    bitstatus = GPIO_PIN_RESET;
 8002ee2:	2300      	movs	r3, #0
 8002ee4:	73fb      	strb	r3, [r7, #15]
  }
  return bitstatus;
 8002ee6:	7bfb      	ldrb	r3, [r7, #15]
}
 8002ee8:	4618      	mov	r0, r3
 8002eea:	3714      	adds	r7, #20
 8002eec:	46bd      	mov	sp, r7
 8002eee:	bc80      	pop	{r7}
 8002ef0:	4770      	bx	lr
	...

08002ef4 <HAL_I2C_Init>:
  * @param  hi2c Pointer to a I2C_HandleTypeDef structure that contains
  *                the configuration information for the specified I2C.
  * @retval HAL status
  */
HAL_StatusTypeDef HAL_I2C_Init(I2C_HandleTypeDef *hi2c)
{
 8002ef4:	b580      	push	{r7, lr}
 8002ef6:	b084      	sub	sp, #16
 8002ef8:	af00      	add	r7, sp, #0
 8002efa:	6078      	str	r0, [r7, #4]
  uint32_t freqrange;
  uint32_t pclk1;

  /* Check the I2C handle allocation */
  if (hi2c == NULL)
 8002efc:	687b      	ldr	r3, [r7, #4]
 8002efe:	2b00      	cmp	r3, #0
 8002f00:	d101      	bne.n	8002f06 <HAL_I2C_Init+0x12>
  {
    return HAL_ERROR;
 8002f02:	2301      	movs	r3, #1
 8002f04:	e10f      	b.n	8003126 <HAL_I2C_Init+0x232>
  assert_param(IS_I2C_DUAL_ADDRESS(hi2c->Init.DualAddressMode));
  assert_param(IS_I2C_OWN_ADDRESS2(hi2c->Init.OwnAddress2));
  assert_param(IS_I2C_GENERAL_CALL(hi2c->Init.GeneralCallMode));
  assert_param(IS_I2C_NO_STRETCH(hi2c->Init.NoStretchMode));

  if (hi2c->State == HAL_I2C_STATE_RESET)
 8002f06:	687b      	ldr	r3, [r7, #4]
 8002f08:	f893 303d 	ldrb.w	r3, [r3, #61]	; 0x3d
 8002f0c:	b2db      	uxtb	r3, r3
 8002f0e:	2b00      	cmp	r3, #0
 8002f10:	d106      	bne.n	8002f20 <HAL_I2C_Init+0x2c>
  {
    /* Allocate lock resource and initialize it */
    hi2c->Lock = HAL_UNLOCKED;
 8002f12:	687b      	ldr	r3, [r7, #4]
 8002f14:	2200      	movs	r2, #0
 8002f16:	f883 203c 	strb.w	r2, [r3, #60]	; 0x3c

    /* Init the low level hardware : GPIO, CLOCK, NVIC */
    hi2c->MspInitCallback(hi2c);
#else
    /* Init the low level hardware : GPIO, CLOCK, NVIC */
    HAL_I2C_MspInit(hi2c);
 8002f1a:	6878      	ldr	r0, [r7, #4]
 8002f1c:	f7fd fee0 	bl	8000ce0 <HAL_I2C_MspInit>
#endif /* USE_HAL_I2C_REGISTER_CALLBACKS */
  }

  hi2c->State = HAL_I2C_STATE_BUSY;
 8002f20:	687b      	ldr	r3, [r7, #4]
 8002f22:	2224      	movs	r2, #36	; 0x24
 8002f24:	f883 203d 	strb.w	r2, [r3, #61]	; 0x3d

  /* Disable the selected I2C peripheral */
  __HAL_I2C_DISABLE(hi2c);
 8002f28:	687b      	ldr	r3, [r7, #4]
 8002f2a:	681b      	ldr	r3, [r3, #0]
 8002f2c:	681a      	ldr	r2, [r3, #0]
 8002f2e:	687b      	ldr	r3, [r7, #4]
 8002f30:	681b      	ldr	r3, [r3, #0]
 8002f32:	f022 0201 	bic.w	r2, r2, #1
 8002f36:	601a      	str	r2, [r3, #0]

  /* Get PCLK1 frequency */
  pclk1 = HAL_RCC_GetPCLK1Freq();
 8002f38:	f000 ffd4 	bl	8003ee4 <HAL_RCC_GetPCLK1Freq>
 8002f3c:	60f8      	str	r0, [r7, #12]

  /* Check the minimum allowed PCLK1 frequency */
  if (I2C_MIN_PCLK_FREQ(pclk1, hi2c->Init.ClockSpeed) == 1U)
 8002f3e:	687b      	ldr	r3, [r7, #4]
 8002f40:	685b      	ldr	r3, [r3, #4]
 8002f42:	4a7b      	ldr	r2, [pc, #492]	; (8003130 <HAL_I2C_Init+0x23c>)
 8002f44:	4293      	cmp	r3, r2
 8002f46:	d807      	bhi.n	8002f58 <HAL_I2C_Init+0x64>
 8002f48:	68fb      	ldr	r3, [r7, #12]
 8002f4a:	4a7a      	ldr	r2, [pc, #488]	; (8003134 <HAL_I2C_Init+0x240>)
 8002f4c:	4293      	cmp	r3, r2
 8002f4e:	bf94      	ite	ls
 8002f50:	2301      	movls	r3, #1
 8002f52:	2300      	movhi	r3, #0
 8002f54:	b2db      	uxtb	r3, r3
 8002f56:	e006      	b.n	8002f66 <HAL_I2C_Init+0x72>
 8002f58:	68fb      	ldr	r3, [r7, #12]
 8002f5a:	4a77      	ldr	r2, [pc, #476]	; (8003138 <HAL_I2C_Init+0x244>)
 8002f5c:	4293      	cmp	r3, r2
 8002f5e:	bf94      	ite	ls
 8002f60:	2301      	movls	r3, #1
 8002f62:	2300      	movhi	r3, #0
 8002f64:	b2db      	uxtb	r3, r3
 8002f66:	2b00      	cmp	r3, #0
 8002f68:	d001      	beq.n	8002f6e <HAL_I2C_Init+0x7a>
  {
    return HAL_ERROR;
 8002f6a:	2301      	movs	r3, #1
 8002f6c:	e0db      	b.n	8003126 <HAL_I2C_Init+0x232>
  }

  /* Calculate frequency range */
  freqrange = I2C_FREQRANGE(pclk1);
 8002f6e:	68fb      	ldr	r3, [r7, #12]
 8002f70:	4a72      	ldr	r2, [pc, #456]	; (800313c <HAL_I2C_Init+0x248>)
 8002f72:	fba2 2303 	umull	r2, r3, r2, r3
 8002f76:	0c9b      	lsrs	r3, r3, #18
 8002f78:	60bb      	str	r3, [r7, #8]

  /*---------------------------- I2Cx CR2 Configuration ----------------------*/
  /* Configure I2Cx: Frequency range */
  MODIFY_REG(hi2c->Instance->CR2, I2C_CR2_FREQ, freqrange);
 8002f7a:	687b      	ldr	r3, [r7, #4]
 8002f7c:	681b      	ldr	r3, [r3, #0]
 8002f7e:	685b      	ldr	r3, [r3, #4]
 8002f80:	f023 013f 	bic.w	r1, r3, #63	; 0x3f
 8002f84:	687b      	ldr	r3, [r7, #4]
 8002f86:	681b      	ldr	r3, [r3, #0]
 8002f88:	68ba      	ldr	r2, [r7, #8]
 8002f8a:	430a      	orrs	r2, r1
 8002f8c:	605a      	str	r2, [r3, #4]

  /*---------------------------- I2Cx TRISE Configuration --------------------*/
  /* Configure I2Cx: Rise Time */
  MODIFY_REG(hi2c->Instance->TRISE, I2C_TRISE_TRISE, I2C_RISE_TIME(freqrange, hi2c->Init.ClockSpeed));
 8002f8e:	687b      	ldr	r3, [r7, #4]
 8002f90:	681b      	ldr	r3, [r3, #0]
 8002f92:	6a1b      	ldr	r3, [r3, #32]
 8002f94:	f023 013f 	bic.w	r1, r3, #63	; 0x3f
 8002f98:	687b      	ldr	r3, [r7, #4]
 8002f9a:	685b      	ldr	r3, [r3, #4]
 8002f9c:	4a64      	ldr	r2, [pc, #400]	; (8003130 <HAL_I2C_Init+0x23c>)
 8002f9e:	4293      	cmp	r3, r2
 8002fa0:	d802      	bhi.n	8002fa8 <HAL_I2C_Init+0xb4>
 8002fa2:	68bb      	ldr	r3, [r7, #8]
 8002fa4:	3301      	adds	r3, #1
 8002fa6:	e009      	b.n	8002fbc <HAL_I2C_Init+0xc8>
 8002fa8:	68bb      	ldr	r3, [r7, #8]
 8002faa:	f44f 7296 	mov.w	r2, #300	; 0x12c
 8002fae:	fb02 f303 	mul.w	r3, r2, r3
 8002fb2:	4a63      	ldr	r2, [pc, #396]	; (8003140 <HAL_I2C_Init+0x24c>)
 8002fb4:	fba2 2303 	umull	r2, r3, r2, r3
 8002fb8:	099b      	lsrs	r3, r3, #6
 8002fba:	3301      	adds	r3, #1
 8002fbc:	687a      	ldr	r2, [r7, #4]
 8002fbe:	6812      	ldr	r2, [r2, #0]
 8002fc0:	430b      	orrs	r3, r1
 8002fc2:	6213      	str	r3, [r2, #32]

  /*---------------------------- I2Cx CCR Configuration ----------------------*/
  /* Configure I2Cx: Speed */
  MODIFY_REG(hi2c->Instance->CCR, (I2C_CCR_FS | I2C_CCR_DUTY | I2C_CCR_CCR), I2C_SPEED(pclk1, hi2c->Init.ClockSpeed, hi2c->Init.DutyCycle));
 8002fc4:	687b      	ldr	r3, [r7, #4]
 8002fc6:	681b      	ldr	r3, [r3, #0]
 8002fc8:	69db      	ldr	r3, [r3, #28]
 8002fca:	f423 424f 	bic.w	r2, r3, #52992	; 0xcf00
 8002fce:	f022 02ff 	bic.w	r2, r2, #255	; 0xff
 8002fd2:	687b      	ldr	r3, [r7, #4]
 8002fd4:	685b      	ldr	r3, [r3, #4]
 8002fd6:	4956      	ldr	r1, [pc, #344]	; (8003130 <HAL_I2C_Init+0x23c>)
 8002fd8:	428b      	cmp	r3, r1
 8002fda:	d80d      	bhi.n	8002ff8 <HAL_I2C_Init+0x104>
 8002fdc:	68fb      	ldr	r3, [r7, #12]
 8002fde:	1e59      	subs	r1, r3, #1
 8002fe0:	687b      	ldr	r3, [r7, #4]
 8002fe2:	685b      	ldr	r3, [r3, #4]
 8002fe4:	005b      	lsls	r3, r3, #1
 8002fe6:	fbb1 f3f3 	udiv	r3, r1, r3
 8002fea:	3301      	adds	r3, #1
 8002fec:	f3c3 030b 	ubfx	r3, r3, #0, #12
 8002ff0:	2b04      	cmp	r3, #4
 8002ff2:	bf38      	it	cc
 8002ff4:	2304      	movcc	r3, #4
 8002ff6:	e04f      	b.n	8003098 <HAL_I2C_Init+0x1a4>
 8002ff8:	687b      	ldr	r3, [r7, #4]
 8002ffa:	689b      	ldr	r3, [r3, #8]
 8002ffc:	2b00      	cmp	r3, #0
 8002ffe:	d111      	bne.n	8003024 <HAL_I2C_Init+0x130>
 8003000:	68fb      	ldr	r3, [r7, #12]
 8003002:	1e58      	subs	r0, r3, #1
 8003004:	687b      	ldr	r3, [r7, #4]
 8003006:	6859      	ldr	r1, [r3, #4]
 8003008:	460b      	mov	r3, r1
 800300a:	005b      	lsls	r3, r3, #1
 800300c:	440b      	add	r3, r1
 800300e:	fbb0 f3f3 	udiv	r3, r0, r3
 8003012:	3301      	adds	r3, #1
 8003014:	f3c3 030b 	ubfx	r3, r3, #0, #12
 8003018:	2b00      	cmp	r3, #0
 800301a:	bf0c      	ite	eq
 800301c:	2301      	moveq	r3, #1
 800301e:	2300      	movne	r3, #0
 8003020:	b2db      	uxtb	r3, r3
 8003022:	e012      	b.n	800304a <HAL_I2C_Init+0x156>
 8003024:	68fb      	ldr	r3, [r7, #12]
 8003026:	1e58      	subs	r0, r3, #1
 8003028:	687b      	ldr	r3, [r7, #4]
 800302a:	6859      	ldr	r1, [r3, #4]
 800302c:	460b      	mov	r3, r1
 800302e:	009b      	lsls	r3, r3, #2
 8003030:	440b      	add	r3, r1
 8003032:	0099      	lsls	r1, r3, #2
 8003034:	440b      	add	r3, r1
 8003036:	fbb0 f3f3 	udiv	r3, r0, r3
 800303a:	3301      	adds	r3, #1
 800303c:	f3c3 030b 	ubfx	r3, r3, #0, #12
 8003040:	2b00      	cmp	r3, #0
 8003042:	bf0c      	ite	eq
 8003044:	2301      	moveq	r3, #1
 8003046:	2300      	movne	r3, #0
 8003048:	b2db      	uxtb	r3, r3
 800304a:	2b00      	cmp	r3, #0
 800304c:	d001      	beq.n	8003052 <HAL_I2C_Init+0x15e>
 800304e:	2301      	movs	r3, #1
 8003050:	e022      	b.n	8003098 <HAL_I2C_Init+0x1a4>
 8003052:	687b      	ldr	r3, [r7, #4]
 8003054:	689b      	ldr	r3, [r3, #8]
 8003056:	2b00      	cmp	r3, #0
 8003058:	d10e      	bne.n	8003078 <HAL_I2C_Init+0x184>
 800305a:	68fb      	ldr	r3, [r7, #12]
 800305c:	1e58      	subs	r0, r3, #1
 800305e:	687b      	ldr	r3, [r7, #4]
 8003060:	6859      	ldr	r1, [r3, #4]
 8003062:	460b      	mov	r3, r1
 8003064:	005b      	lsls	r3, r3, #1
 8003066:	440b      	add	r3, r1
 8003068:	fbb0 f3f3 	udiv	r3, r0, r3
 800306c:	3301      	adds	r3, #1
 800306e:	f3c3 030b 	ubfx	r3, r3, #0, #12
 8003072:	f443 4300 	orr.w	r3, r3, #32768	; 0x8000
 8003076:	e00f      	b.n	8003098 <HAL_I2C_Init+0x1a4>
 8003078:	68fb      	ldr	r3, [r7, #12]
 800307a:	1e58      	subs	r0, r3, #1
 800307c:	687b      	ldr	r3, [r7, #4]
 800307e:	6859      	ldr	r1, [r3, #4]
 8003080:	460b      	mov	r3, r1
 8003082:	009b      	lsls	r3, r3, #2
 8003084:	440b      	add	r3, r1
 8003086:	0099      	lsls	r1, r3, #2
 8003088:	440b      	add	r3, r1
 800308a:	fbb0 f3f3 	udiv	r3, r0, r3
 800308e:	3301      	adds	r3, #1
 8003090:	f3c3 030b 	ubfx	r3, r3, #0, #12
 8003094:	f443 4340 	orr.w	r3, r3, #49152	; 0xc000
 8003098:	6879      	ldr	r1, [r7, #4]
 800309a:	6809      	ldr	r1, [r1, #0]
 800309c:	4313      	orrs	r3, r2
 800309e:	61cb      	str	r3, [r1, #28]

  /*---------------------------- I2Cx CR1 Configuration ----------------------*/
  /* Configure I2Cx: Generalcall and NoStretch mode */
  MODIFY_REG(hi2c->Instance->CR1, (I2C_CR1_ENGC | I2C_CR1_NOSTRETCH), (hi2c->Init.GeneralCallMode | hi2c->Init.NoStretchMode));
 80030a0:	687b      	ldr	r3, [r7, #4]
 80030a2:	681b      	ldr	r3, [r3, #0]
 80030a4:	681b      	ldr	r3, [r3, #0]
 80030a6:	f023 01c0 	bic.w	r1, r3, #192	; 0xc0
 80030aa:	687b      	ldr	r3, [r7, #4]
 80030ac:	69da      	ldr	r2, [r3, #28]
 80030ae:	687b      	ldr	r3, [r7, #4]
 80030b0:	6a1b      	ldr	r3, [r3, #32]
 80030b2:	431a      	orrs	r2, r3
 80030b4:	687b      	ldr	r3, [r7, #4]
 80030b6:	681b      	ldr	r3, [r3, #0]
 80030b8:	430a      	orrs	r2, r1
 80030ba:	601a      	str	r2, [r3, #0]

  /*---------------------------- I2Cx OAR1 Configuration ---------------------*/
  /* Configure I2Cx: Own Address1 and addressing mode */
  MODIFY_REG(hi2c->Instance->OAR1, (I2C_OAR1_ADDMODE | I2C_OAR1_ADD8_9 | I2C_OAR1_ADD1_7 | I2C_OAR1_ADD0), (hi2c->Init.AddressingMode | hi2c->Init.OwnAddress1));
 80030bc:	687b      	ldr	r3, [r7, #4]
 80030be:	681b      	ldr	r3, [r3, #0]
 80030c0:	689b      	ldr	r3, [r3, #8]
 80030c2:	f423 4303 	bic.w	r3, r3, #33536	; 0x8300
 80030c6:	f023 03ff 	bic.w	r3, r3, #255	; 0xff
 80030ca:	687a      	ldr	r2, [r7, #4]
 80030cc:	6911      	ldr	r1, [r2, #16]
 80030ce:	687a      	ldr	r2, [r7, #4]
 80030d0:	68d2      	ldr	r2, [r2, #12]
 80030d2:	4311      	orrs	r1, r2
 80030d4:	687a      	ldr	r2, [r7, #4]
 80030d6:	6812      	ldr	r2, [r2, #0]
 80030d8:	430b      	orrs	r3, r1
 80030da:	6093      	str	r3, [r2, #8]

  /*---------------------------- I2Cx OAR2 Configuration ---------------------*/
  /* Configure I2Cx: Dual mode and Own Address2 */
  MODIFY_REG(hi2c->Instance->OAR2, (I2C_OAR2_ENDUAL | I2C_OAR2_ADD2), (hi2c->Init.DualAddressMode | hi2c->Init.OwnAddress2));
 80030dc:	687b      	ldr	r3, [r7, #4]
 80030de:	681b      	ldr	r3, [r3, #0]
 80030e0:	68db      	ldr	r3, [r3, #12]
 80030e2:	f023 01ff 	bic.w	r1, r3, #255	; 0xff
 80030e6:	687b      	ldr	r3, [r7, #4]
 80030e8:	695a      	ldr	r2, [r3, #20]
 80030ea:	687b      	ldr	r3, [r7, #4]
 80030ec:	699b      	ldr	r3, [r3, #24]
 80030ee:	431a      	orrs	r2, r3
 80030f0:	687b      	ldr	r3, [r7, #4]
 80030f2:	681b      	ldr	r3, [r3, #0]
 80030f4:	430a      	orrs	r2, r1
 80030f6:	60da      	str	r2, [r3, #12]

  /* Enable the selected I2C peripheral */
  __HAL_I2C_ENABLE(hi2c);
 80030f8:	687b      	ldr	r3, [r7, #4]
 80030fa:	681b      	ldr	r3, [r3, #0]
 80030fc:	681a      	ldr	r2, [r3, #0]
 80030fe:	687b      	ldr	r3, [r7, #4]
 8003100:	681b      	ldr	r3, [r3, #0]
 8003102:	f042 0201 	orr.w	r2, r2, #1
 8003106:	601a      	str	r2, [r3, #0]

  hi2c->ErrorCode = HAL_I2C_ERROR_NONE;
 8003108:	687b      	ldr	r3, [r7, #4]
 800310a:	2200      	movs	r2, #0
 800310c:	641a      	str	r2, [r3, #64]	; 0x40
  hi2c->State = HAL_I2C_STATE_READY;
 800310e:	687b      	ldr	r3, [r7, #4]
 8003110:	2220      	movs	r2, #32
 8003112:	f883 203d 	strb.w	r2, [r3, #61]	; 0x3d
  hi2c->PreviousState = I2C_STATE_NONE;
 8003116:	687b      	ldr	r3, [r7, #4]
 8003118:	2200      	movs	r2, #0
 800311a:	631a      	str	r2, [r3, #48]	; 0x30
  hi2c->Mode = HAL_I2C_MODE_NONE;
 800311c:	687b      	ldr	r3, [r7, #4]
 800311e:	2200      	movs	r2, #0
 8003120:	f883 203e 	strb.w	r2, [r3, #62]	; 0x3e

  return HAL_OK;
 8003124:	2300      	movs	r3, #0
}
 8003126:	4618      	mov	r0, r3
 8003128:	3710      	adds	r7, #16
 800312a:	46bd      	mov	sp, r7
 800312c:	bd80      	pop	{r7, pc}
 800312e:	bf00      	nop
 8003130:	000186a0 	.word	0x000186a0
 8003134:	001e847f 	.word	0x001e847f
 8003138:	003d08ff 	.word	0x003d08ff
 800313c:	431bde83 	.word	0x431bde83
 8003140:	10624dd3 	.word	0x10624dd3

08003144 <HAL_I2C_Master_Transmit>:
  * @param  Size Amount of data to be sent
  * @param  Timeout Timeout duration
  * @retval HAL status
  */
HAL_StatusTypeDef HAL_I2C_Master_Transmit(I2C_HandleTypeDef *hi2c, uint16_t DevAddress, uint8_t *pData, uint16_t Size, uint32_t Timeout)
{
 8003144:	b580      	push	{r7, lr}
 8003146:	b088      	sub	sp, #32
 8003148:	af02      	add	r7, sp, #8
 800314a:	60f8      	str	r0, [r7, #12]
 800314c:	607a      	str	r2, [r7, #4]
 800314e:	461a      	mov	r2, r3
 8003150:	460b      	mov	r3, r1
 8003152:	817b      	strh	r3, [r7, #10]
 8003154:	4613      	mov	r3, r2
 8003156:	813b      	strh	r3, [r7, #8]
  /* Init tickstart for timeout management*/
  uint32_t tickstart = HAL_GetTick();
 8003158:	f7fd fff8 	bl	800114c <HAL_GetTick>
 800315c:	6178      	str	r0, [r7, #20]

  if (hi2c->State == HAL_I2C_STATE_READY)
 800315e:	68fb      	ldr	r3, [r7, #12]
 8003160:	f893 303d 	ldrb.w	r3, [r3, #61]	; 0x3d
 8003164:	b2db      	uxtb	r3, r3
 8003166:	2b20      	cmp	r3, #32
 8003168:	f040 80e0 	bne.w	800332c <HAL_I2C_Master_Transmit+0x1e8>
  {
    /* Wait until BUSY flag is reset */
    if (I2C_WaitOnFlagUntilTimeout(hi2c, I2C_FLAG_BUSY, SET, I2C_TIMEOUT_BUSY_FLAG, tickstart) != HAL_OK)
 800316c:	697b      	ldr	r3, [r7, #20]
 800316e:	9300      	str	r3, [sp, #0]
 8003170:	2319      	movs	r3, #25
 8003172:	2201      	movs	r2, #1
 8003174:	4970      	ldr	r1, [pc, #448]	; (8003338 <HAL_I2C_Master_Transmit+0x1f4>)
 8003176:	68f8      	ldr	r0, [r7, #12]
 8003178:	f000 f958 	bl	800342c <I2C_WaitOnFlagUntilTimeout>
 800317c:	4603      	mov	r3, r0
 800317e:	2b00      	cmp	r3, #0
 8003180:	d001      	beq.n	8003186 <HAL_I2C_Master_Transmit+0x42>
    {
      return HAL_BUSY;
 8003182:	2302      	movs	r3, #2
 8003184:	e0d3      	b.n	800332e <HAL_I2C_Master_Transmit+0x1ea>
    }

    /* Process Locked */
    __HAL_LOCK(hi2c);
 8003186:	68fb      	ldr	r3, [r7, #12]
 8003188:	f893 303c 	ldrb.w	r3, [r3, #60]	; 0x3c
 800318c:	2b01      	cmp	r3, #1
 800318e:	d101      	bne.n	8003194 <HAL_I2C_Master_Transmit+0x50>
 8003190:	2302      	movs	r3, #2
 8003192:	e0cc      	b.n	800332e <HAL_I2C_Master_Transmit+0x1ea>
 8003194:	68fb      	ldr	r3, [r7, #12]
 8003196:	2201      	movs	r2, #1
 8003198:	f883 203c 	strb.w	r2, [r3, #60]	; 0x3c

    /* Check if the I2C is already enabled */
    if ((hi2c->Instance->CR1 & I2C_CR1_PE) != I2C_CR1_PE)
 800319c:	68fb      	ldr	r3, [r7, #12]
 800319e:	681b      	ldr	r3, [r3, #0]
 80031a0:	681b      	ldr	r3, [r3, #0]
 80031a2:	f003 0301 	and.w	r3, r3, #1
 80031a6:	2b01      	cmp	r3, #1
 80031a8:	d007      	beq.n	80031ba <HAL_I2C_Master_Transmit+0x76>
    {
      /* Enable I2C peripheral */
      __HAL_I2C_ENABLE(hi2c);
 80031aa:	68fb      	ldr	r3, [r7, #12]
 80031ac:	681b      	ldr	r3, [r3, #0]
 80031ae:	681a      	ldr	r2, [r3, #0]
 80031b0:	68fb      	ldr	r3, [r7, #12]
 80031b2:	681b      	ldr	r3, [r3, #0]
 80031b4:	f042 0201 	orr.w	r2, r2, #1
 80031b8:	601a      	str	r2, [r3, #0]
    }

    /* Disable Pos */
    CLEAR_BIT(hi2c->Instance->CR1, I2C_CR1_POS);
 80031ba:	68fb      	ldr	r3, [r7, #12]
 80031bc:	681b      	ldr	r3, [r3, #0]
 80031be:	681a      	ldr	r2, [r3, #0]
 80031c0:	68fb      	ldr	r3, [r7, #12]
 80031c2:	681b      	ldr	r3, [r3, #0]
 80031c4:	f422 6200 	bic.w	r2, r2, #2048	; 0x800
 80031c8:	601a      	str	r2, [r3, #0]

    hi2c->State       = HAL_I2C_STATE_BUSY_TX;
 80031ca:	68fb      	ldr	r3, [r7, #12]
 80031cc:	2221      	movs	r2, #33	; 0x21
 80031ce:	f883 203d 	strb.w	r2, [r3, #61]	; 0x3d
    hi2c->Mode        = HAL_I2C_MODE_MASTER;
 80031d2:	68fb      	ldr	r3, [r7, #12]
 80031d4:	2210      	movs	r2, #16
 80031d6:	f883 203e 	strb.w	r2, [r3, #62]	; 0x3e
    hi2c->ErrorCode   = HAL_I2C_ERROR_NONE;
 80031da:	68fb      	ldr	r3, [r7, #12]
 80031dc:	2200      	movs	r2, #0
 80031de:	641a      	str	r2, [r3, #64]	; 0x40

    /* Prepare transfer parameters */
    hi2c->pBuffPtr    = pData;
 80031e0:	68fb      	ldr	r3, [r7, #12]
 80031e2:	687a      	ldr	r2, [r7, #4]
 80031e4:	625a      	str	r2, [r3, #36]	; 0x24
    hi2c->XferCount   = Size;
 80031e6:	68fb      	ldr	r3, [r7, #12]
 80031e8:	893a      	ldrh	r2, [r7, #8]
 80031ea:	855a      	strh	r2, [r3, #42]	; 0x2a
    hi2c->XferSize    = hi2c->XferCount;
 80031ec:	68fb      	ldr	r3, [r7, #12]
 80031ee:	8d5b      	ldrh	r3, [r3, #42]	; 0x2a
 80031f0:	b29a      	uxth	r2, r3
 80031f2:	68fb      	ldr	r3, [r7, #12]
 80031f4:	851a      	strh	r2, [r3, #40]	; 0x28
    hi2c->XferOptions = I2C_NO_OPTION_FRAME;
 80031f6:	68fb      	ldr	r3, [r7, #12]
 80031f8:	4a50      	ldr	r2, [pc, #320]	; (800333c <HAL_I2C_Master_Transmit+0x1f8>)
 80031fa:	62da      	str	r2, [r3, #44]	; 0x2c

    /* Send Slave Address */
    if (I2C_MasterRequestWrite(hi2c, DevAddress, Timeout, tickstart) != HAL_OK)
 80031fc:	8979      	ldrh	r1, [r7, #10]
 80031fe:	697b      	ldr	r3, [r7, #20]
 8003200:	6a3a      	ldr	r2, [r7, #32]
 8003202:	68f8      	ldr	r0, [r7, #12]
 8003204:	f000 f89c 	bl	8003340 <I2C_MasterRequestWrite>
 8003208:	4603      	mov	r3, r0
 800320a:	2b00      	cmp	r3, #0
 800320c:	d001      	beq.n	8003212 <HAL_I2C_Master_Transmit+0xce>
    {
      return HAL_ERROR;
 800320e:	2301      	movs	r3, #1
 8003210:	e08d      	b.n	800332e <HAL_I2C_Master_Transmit+0x1ea>
    }

    /* Clear ADDR flag */
    __HAL_I2C_CLEAR_ADDRFLAG(hi2c);
 8003212:	2300      	movs	r3, #0
 8003214:	613b      	str	r3, [r7, #16]
 8003216:	68fb      	ldr	r3, [r7, #12]
 8003218:	681b      	ldr	r3, [r3, #0]
 800321a:	695b      	ldr	r3, [r3, #20]
 800321c:	613b      	str	r3, [r7, #16]
 800321e:	68fb      	ldr	r3, [r7, #12]
 8003220:	681b      	ldr	r3, [r3, #0]
 8003222:	699b      	ldr	r3, [r3, #24]
 8003224:	613b      	str	r3, [r7, #16]
 8003226:	693b      	ldr	r3, [r7, #16]

    while (hi2c->XferSize > 0U)
 8003228:	e066      	b.n	80032f8 <HAL_I2C_Master_Transmit+0x1b4>
    {
      /* Wait until TXE flag is set */
      if (I2C_WaitOnTXEFlagUntilTimeout(hi2c, Timeout, tickstart) != HAL_OK)
 800322a:	697a      	ldr	r2, [r7, #20]
 800322c:	6a39      	ldr	r1, [r7, #32]
 800322e:	68f8      	ldr	r0, [r7, #12]
 8003230:	f000 f9d2 	bl	80035d8 <I2C_WaitOnTXEFlagUntilTimeout>
 8003234:	4603      	mov	r3, r0
 8003236:	2b00      	cmp	r3, #0
 8003238:	d00d      	beq.n	8003256 <HAL_I2C_Master_Transmit+0x112>
      {
        if (hi2c->ErrorCode == HAL_I2C_ERROR_AF)
 800323a:	68fb      	ldr	r3, [r7, #12]
 800323c:	6c1b      	ldr	r3, [r3, #64]	; 0x40
 800323e:	2b04      	cmp	r3, #4
 8003240:	d107      	bne.n	8003252 <HAL_I2C_Master_Transmit+0x10e>
        {
          /* Generate Stop */
          SET_BIT(hi2c->Instance->CR1, I2C_CR1_STOP);
 8003242:	68fb      	ldr	r3, [r7, #12]
 8003244:	681b      	ldr	r3, [r3, #0]
 8003246:	681a      	ldr	r2, [r3, #0]
 8003248:	68fb      	ldr	r3, [r7, #12]
 800324a:	681b      	ldr	r3, [r3, #0]
 800324c:	f442 7200 	orr.w	r2, r2, #512	; 0x200
 8003250:	601a      	str	r2, [r3, #0]
        }
        return HAL_ERROR;
 8003252:	2301      	movs	r3, #1
 8003254:	e06b      	b.n	800332e <HAL_I2C_Master_Transmit+0x1ea>
      }

      /* Write data to DR */
      hi2c->Instance->DR = *hi2c->pBuffPtr;
 8003256:	68fb      	ldr	r3, [r7, #12]
 8003258:	6a5b      	ldr	r3, [r3, #36]	; 0x24
 800325a:	781a      	ldrb	r2, [r3, #0]
 800325c:	68fb      	ldr	r3, [r7, #12]
 800325e:	681b      	ldr	r3, [r3, #0]
 8003260:	611a      	str	r2, [r3, #16]

      /* Increment Buffer pointer */
      hi2c->pBuffPtr++;
 8003262:	68fb      	ldr	r3, [r7, #12]
 8003264:	6a5b      	ldr	r3, [r3, #36]	; 0x24
 8003266:	1c5a      	adds	r2, r3, #1
 8003268:	68fb      	ldr	r3, [r7, #12]
 800326a:	625a      	str	r2, [r3, #36]	; 0x24

      /* Update counter */
      hi2c->XferCount--;
 800326c:	68fb      	ldr	r3, [r7, #12]
 800326e:	8d5b      	ldrh	r3, [r3, #42]	; 0x2a
 8003270:	b29b      	uxth	r3, r3
 8003272:	3b01      	subs	r3, #1
 8003274:	b29a      	uxth	r2, r3
 8003276:	68fb      	ldr	r3, [r7, #12]
 8003278:	855a      	strh	r2, [r3, #42]	; 0x2a
      hi2c->XferSize--;
 800327a:	68fb      	ldr	r3, [r7, #12]
 800327c:	8d1b      	ldrh	r3, [r3, #40]	; 0x28
 800327e:	3b01      	subs	r3, #1
 8003280:	b29a      	uxth	r2, r3
 8003282:	68fb      	ldr	r3, [r7, #12]
 8003284:	851a      	strh	r2, [r3, #40]	; 0x28

      if ((__HAL_I2C_GET_FLAG(hi2c, I2C_FLAG_BTF) == SET) && (hi2c->XferSize != 0U))
 8003286:	68fb      	ldr	r3, [r7, #12]
 8003288:	681b      	ldr	r3, [r3, #0]
 800328a:	695b      	ldr	r3, [r3, #20]
 800328c:	f003 0304 	and.w	r3, r3, #4
 8003290:	2b04      	cmp	r3, #4
 8003292:	d11b      	bne.n	80032cc <HAL_I2C_Master_Transmit+0x188>
 8003294:	68fb      	ldr	r3, [r7, #12]
 8003296:	8d1b      	ldrh	r3, [r3, #40]	; 0x28
 8003298:	2b00      	cmp	r3, #0
 800329a:	d017      	beq.n	80032cc <HAL_I2C_Master_Transmit+0x188>
      {
        /* Write data to DR */
        hi2c->Instance->DR = *hi2c->pBuffPtr;
 800329c:	68fb      	ldr	r3, [r7, #12]
 800329e:	6a5b      	ldr	r3, [r3, #36]	; 0x24
 80032a0:	781a      	ldrb	r2, [r3, #0]
 80032a2:	68fb      	ldr	r3, [r7, #12]
 80032a4:	681b      	ldr	r3, [r3, #0]
 80032a6:	611a      	str	r2, [r3, #16]

        /* Increment Buffer pointer */
        hi2c->pBuffPtr++;
 80032a8:	68fb      	ldr	r3, [r7, #12]
 80032aa:	6a5b      	ldr	r3, [r3, #36]	; 0x24
 80032ac:	1c5a      	adds	r2, r3, #1
 80032ae:	68fb      	ldr	r3, [r7, #12]
 80032b0:	625a      	str	r2, [r3, #36]	; 0x24

        /* Update counter */
        hi2c->XferCount--;
 80032b2:	68fb      	ldr	r3, [r7, #12]
 80032b4:	8d5b      	ldrh	r3, [r3, #42]	; 0x2a
 80032b6:	b29b      	uxth	r3, r3
 80032b8:	3b01      	subs	r3, #1
 80032ba:	b29a      	uxth	r2, r3
 80032bc:	68fb      	ldr	r3, [r7, #12]
 80032be:	855a      	strh	r2, [r3, #42]	; 0x2a
        hi2c->XferSize--;
 80032c0:	68fb      	ldr	r3, [r7, #12]
 80032c2:	8d1b      	ldrh	r3, [r3, #40]	; 0x28
 80032c4:	3b01      	subs	r3, #1
 80032c6:	b29a      	uxth	r2, r3
 80032c8:	68fb      	ldr	r3, [r7, #12]
 80032ca:	851a      	strh	r2, [r3, #40]	; 0x28
      }

      /* Wait until BTF flag is set */
      if (I2C_WaitOnBTFFlagUntilTimeout(hi2c, Timeout, tickstart) != HAL_OK)
 80032cc:	697a      	ldr	r2, [r7, #20]
 80032ce:	6a39      	ldr	r1, [r7, #32]
 80032d0:	68f8      	ldr	r0, [r7, #12]
 80032d2:	f000 f9c2 	bl	800365a <I2C_WaitOnBTFFlagUntilTimeout>
 80032d6:	4603      	mov	r3, r0
 80032d8:	2b00      	cmp	r3, #0
 80032da:	d00d      	beq.n	80032f8 <HAL_I2C_Master_Transmit+0x1b4>
      {
        if (hi2c->ErrorCode == HAL_I2C_ERROR_AF)
 80032dc:	68fb      	ldr	r3, [r7, #12]
 80032de:	6c1b      	ldr	r3, [r3, #64]	; 0x40
 80032e0:	2b04      	cmp	r3, #4
 80032e2:	d107      	bne.n	80032f4 <HAL_I2C_Master_Transmit+0x1b0>
        {
          /* Generate Stop */
          SET_BIT(hi2c->Instance->CR1, I2C_CR1_STOP);
 80032e4:	68fb      	ldr	r3, [r7, #12]
 80032e6:	681b      	ldr	r3, [r3, #0]
 80032e8:	681a      	ldr	r2, [r3, #0]
 80032ea:	68fb      	ldr	r3, [r7, #12]
 80032ec:	681b      	ldr	r3, [r3, #0]
 80032ee:	f442 7200 	orr.w	r2, r2, #512	; 0x200
 80032f2:	601a      	str	r2, [r3, #0]
        }
        return HAL_ERROR;
 80032f4:	2301      	movs	r3, #1
 80032f6:	e01a      	b.n	800332e <HAL_I2C_Master_Transmit+0x1ea>
    while (hi2c->XferSize > 0U)
 80032f8:	68fb      	ldr	r3, [r7, #12]
 80032fa:	8d1b      	ldrh	r3, [r3, #40]	; 0x28
 80032fc:	2b00      	cmp	r3, #0
 80032fe:	d194      	bne.n	800322a <HAL_I2C_Master_Transmit+0xe6>
      }
    }

    /* Generate Stop */
    SET_BIT(hi2c->Instance->CR1, I2C_CR1_STOP);
 8003300:	68fb      	ldr	r3, [r7, #12]
 8003302:	681b      	ldr	r3, [r3, #0]
 8003304:	681a      	ldr	r2, [r3, #0]
 8003306:	68fb      	ldr	r3, [r7, #12]
 8003308:	681b      	ldr	r3, [r3, #0]
 800330a:	f442 7200 	orr.w	r2, r2, #512	; 0x200
 800330e:	601a      	str	r2, [r3, #0]

    hi2c->State = HAL_I2C_STATE_READY;
 8003310:	68fb      	ldr	r3, [r7, #12]
 8003312:	2220      	movs	r2, #32
 8003314:	f883 203d 	strb.w	r2, [r3, #61]	; 0x3d
    hi2c->Mode = HAL_I2C_MODE_NONE;
 8003318:	68fb      	ldr	r3, [r7, #12]
 800331a:	2200      	movs	r2, #0
 800331c:	f883 203e 	strb.w	r2, [r3, #62]	; 0x3e

    /* Process Unlocked */
    __HAL_UNLOCK(hi2c);
 8003320:	68fb      	ldr	r3, [r7, #12]
 8003322:	2200      	movs	r2, #0
 8003324:	f883 203c 	strb.w	r2, [r3, #60]	; 0x3c

    return HAL_OK;
 8003328:	2300      	movs	r3, #0
 800332a:	e000      	b.n	800332e <HAL_I2C_Master_Transmit+0x1ea>
  }
  else
  {
    return HAL_BUSY;
 800332c:	2302      	movs	r3, #2
  }
}
 800332e:	4618      	mov	r0, r3
 8003330:	3718      	adds	r7, #24
 8003332:	46bd      	mov	sp, r7
 8003334:	bd80      	pop	{r7, pc}
 8003336:	bf00      	nop
 8003338:	00100002 	.word	0x00100002
 800333c:	ffff0000 	.word	0xffff0000

08003340 <I2C_MasterRequestWrite>:
  * @param  Timeout Timeout duration
  * @param  Tickstart Tick start value
  * @retval HAL status
  */
static HAL_StatusTypeDef I2C_MasterRequestWrite(I2C_HandleTypeDef *hi2c, uint16_t DevAddress, uint32_t Timeout, uint32_t Tickstart)
{
 8003340:	b580      	push	{r7, lr}
 8003342:	b088      	sub	sp, #32
 8003344:	af02      	add	r7, sp, #8
 8003346:	60f8      	str	r0, [r7, #12]
 8003348:	607a      	str	r2, [r7, #4]
 800334a:	603b      	str	r3, [r7, #0]
 800334c:	460b      	mov	r3, r1
 800334e:	817b      	strh	r3, [r7, #10]
  /* Declaration of temporary variable to prevent undefined behavior of volatile usage */
  uint32_t CurrentXferOptions = hi2c->XferOptions;
 8003350:	68fb      	ldr	r3, [r7, #12]
 8003352:	6adb      	ldr	r3, [r3, #44]	; 0x2c
 8003354:	617b      	str	r3, [r7, #20]

  /* Generate Start condition if first transfer */
  if ((CurrentXferOptions == I2C_FIRST_AND_LAST_FRAME) || (CurrentXferOptions == I2C_FIRST_FRAME) || (CurrentXferOptions == I2C_NO_OPTION_FRAME))
 8003356:	697b      	ldr	r3, [r7, #20]
 8003358:	2b08      	cmp	r3, #8
 800335a:	d006      	beq.n	800336a <I2C_MasterRequestWrite+0x2a>
 800335c:	697b      	ldr	r3, [r7, #20]
 800335e:	2b01      	cmp	r3, #1
 8003360:	d003      	beq.n	800336a <I2C_MasterRequestWrite+0x2a>
 8003362:	697b      	ldr	r3, [r7, #20]
 8003364:	f513 3f80 	cmn.w	r3, #65536	; 0x10000
 8003368:	d108      	bne.n	800337c <I2C_MasterRequestWrite+0x3c>
  {
    /* Generate Start */
    SET_BIT(hi2c->Instance->CR1, I2C_CR1_START);
 800336a:	68fb      	ldr	r3, [r7, #12]
 800336c:	681b      	ldr	r3, [r3, #0]
 800336e:	681a      	ldr	r2, [r3, #0]
 8003370:	68fb      	ldr	r3, [r7, #12]
 8003372:	681b      	ldr	r3, [r3, #0]
 8003374:	f442 7280 	orr.w	r2, r2, #256	; 0x100
 8003378:	601a      	str	r2, [r3, #0]
 800337a:	e00b      	b.n	8003394 <I2C_MasterRequestWrite+0x54>
  }
  else if (hi2c->PreviousState == I2C_STATE_MASTER_BUSY_RX)
 800337c:	68fb      	ldr	r3, [r7, #12]
 800337e:	6b1b      	ldr	r3, [r3, #48]	; 0x30
 8003380:	2b12      	cmp	r3, #18
 8003382:	d107      	bne.n	8003394 <I2C_MasterRequestWrite+0x54>
  {
    /* Generate ReStart */
    SET_BIT(hi2c->Instance->CR1, I2C_CR1_START);
 8003384:	68fb      	ldr	r3, [r7, #12]
 8003386:	681b      	ldr	r3, [r3, #0]
 8003388:	681a      	ldr	r2, [r3, #0]
 800338a:	68fb      	ldr	r3, [r7, #12]
 800338c:	681b      	ldr	r3, [r3, #0]
 800338e:	f442 7280 	orr.w	r2, r2, #256	; 0x100
 8003392:	601a      	str	r2, [r3, #0]
  {
    /* Do nothing */
  }

  /* Wait until SB flag is set */
  if (I2C_WaitOnFlagUntilTimeout(hi2c, I2C_FLAG_SB, RESET, Timeout, Tickstart) != HAL_OK)
 8003394:	683b      	ldr	r3, [r7, #0]
 8003396:	9300      	str	r3, [sp, #0]
 8003398:	687b      	ldr	r3, [r7, #4]
 800339a:	2200      	movs	r2, #0
 800339c:	f04f 1101 	mov.w	r1, #65537	; 0x10001
 80033a0:	68f8      	ldr	r0, [r7, #12]
 80033a2:	f000 f843 	bl	800342c <I2C_WaitOnFlagUntilTimeout>
 80033a6:	4603      	mov	r3, r0
 80033a8:	2b00      	cmp	r3, #0
 80033aa:	d001      	beq.n	80033b0 <I2C_MasterRequestWrite+0x70>
  {
    return HAL_ERROR;
 80033ac:	2301      	movs	r3, #1
 80033ae:	e035      	b.n	800341c <I2C_MasterRequestWrite+0xdc>
  }

  if (hi2c->Init.AddressingMode == I2C_ADDRESSINGMODE_7BIT)
 80033b0:	68fb      	ldr	r3, [r7, #12]
 80033b2:	691b      	ldr	r3, [r3, #16]
 80033b4:	f5b3 4f80 	cmp.w	r3, #16384	; 0x4000
 80033b8:	d108      	bne.n	80033cc <I2C_MasterRequestWrite+0x8c>
  {
    /* Send slave address */
    hi2c->Instance->DR = I2C_7BIT_ADD_WRITE(DevAddress);
 80033ba:	897b      	ldrh	r3, [r7, #10]
 80033bc:	b2db      	uxtb	r3, r3
 80033be:	461a      	mov	r2, r3
 80033c0:	68fb      	ldr	r3, [r7, #12]
 80033c2:	681b      	ldr	r3, [r3, #0]
 80033c4:	f002 02fe 	and.w	r2, r2, #254	; 0xfe
 80033c8:	611a      	str	r2, [r3, #16]
 80033ca:	e01b      	b.n	8003404 <I2C_MasterRequestWrite+0xc4>
  }
  else
  {
    /* Send header of slave address */
    hi2c->Instance->DR = I2C_10BIT_HEADER_WRITE(DevAddress);
 80033cc:	897b      	ldrh	r3, [r7, #10]
 80033ce:	11db      	asrs	r3, r3, #7
 80033d0:	b2db      	uxtb	r3, r3
 80033d2:	f003 0306 	and.w	r3, r3, #6
 80033d6:	b2db      	uxtb	r3, r3
 80033d8:	f063 030f 	orn	r3, r3, #15
 80033dc:	b2da      	uxtb	r2, r3
 80033de:	68fb      	ldr	r3, [r7, #12]
 80033e0:	681b      	ldr	r3, [r3, #0]
 80033e2:	611a      	str	r2, [r3, #16]

    /* Wait until ADD10 flag is set */
    if (I2C_WaitOnMasterAddressFlagUntilTimeout(hi2c, I2C_FLAG_ADD10, Timeout, Tickstart) != HAL_OK)
 80033e4:	683b      	ldr	r3, [r7, #0]
 80033e6:	687a      	ldr	r2, [r7, #4]
 80033e8:	490e      	ldr	r1, [pc, #56]	; (8003424 <I2C_MasterRequestWrite+0xe4>)
 80033ea:	68f8      	ldr	r0, [r7, #12]
 80033ec:	f000 f875 	bl	80034da <I2C_WaitOnMasterAddressFlagUntilTimeout>
 80033f0:	4603      	mov	r3, r0
 80033f2:	2b00      	cmp	r3, #0
 80033f4:	d001      	beq.n	80033fa <I2C_MasterRequestWrite+0xba>
    {
      return HAL_ERROR;
 80033f6:	2301      	movs	r3, #1
 80033f8:	e010      	b.n	800341c <I2C_MasterRequestWrite+0xdc>
    }

    /* Send slave address */
    hi2c->Instance->DR = I2C_10BIT_ADDRESS(DevAddress);
 80033fa:	897b      	ldrh	r3, [r7, #10]
 80033fc:	b2da      	uxtb	r2, r3
 80033fe:	68fb      	ldr	r3, [r7, #12]
 8003400:	681b      	ldr	r3, [r3, #0]
 8003402:	611a      	str	r2, [r3, #16]
  }

  /* Wait until ADDR flag is set */
  if (I2C_WaitOnMasterAddressFlagUntilTimeout(hi2c, I2C_FLAG_ADDR, Timeout, Tickstart) != HAL_OK)
 8003404:	683b      	ldr	r3, [r7, #0]
 8003406:	687a      	ldr	r2, [r7, #4]
 8003408:	4907      	ldr	r1, [pc, #28]	; (8003428 <I2C_MasterRequestWrite+0xe8>)
 800340a:	68f8      	ldr	r0, [r7, #12]
 800340c:	f000 f865 	bl	80034da <I2C_WaitOnMasterAddressFlagUntilTimeout>
 8003410:	4603      	mov	r3, r0
 8003412:	2b00      	cmp	r3, #0
 8003414:	d001      	beq.n	800341a <I2C_MasterRequestWrite+0xda>
  {
    return HAL_ERROR;
 8003416:	2301      	movs	r3, #1
 8003418:	e000      	b.n	800341c <I2C_MasterRequestWrite+0xdc>
  }

  return HAL_OK;
 800341a:	2300      	movs	r3, #0
}
 800341c:	4618      	mov	r0, r3
 800341e:	3718      	adds	r7, #24
 8003420:	46bd      	mov	sp, r7
 8003422:	bd80      	pop	{r7, pc}
 8003424:	00010008 	.word	0x00010008
 8003428:	00010002 	.word	0x00010002

0800342c <I2C_WaitOnFlagUntilTimeout>:
  * @param  Timeout Timeout duration
  * @param  Tickstart Tick start value
  * @retval HAL status
  */
static HAL_StatusTypeDef I2C_WaitOnFlagUntilTimeout(I2C_HandleTypeDef *hi2c, uint32_t Flag, FlagStatus Status, uint32_t Timeout, uint32_t Tickstart)
{
 800342c:	b580      	push	{r7, lr}
 800342e:	b084      	sub	sp, #16
 8003430:	af00      	add	r7, sp, #0
 8003432:	60f8      	str	r0, [r7, #12]
 8003434:	60b9      	str	r1, [r7, #8]
 8003436:	603b      	str	r3, [r7, #0]
 8003438:	4613      	mov	r3, r2
 800343a:	71fb      	strb	r3, [r7, #7]
  /* Wait until flag is set */
  while (__HAL_I2C_GET_FLAG(hi2c, Flag) == Status)
 800343c:	e025      	b.n	800348a <I2C_WaitOnFlagUntilTimeout+0x5e>
  {
    /* Check for the Timeout */
    if (Timeout != HAL_MAX_DELAY)
 800343e:	683b      	ldr	r3, [r7, #0]
 8003440:	f1b3 3fff 	cmp.w	r3, #4294967295
 8003444:	d021      	beq.n	800348a <I2C_WaitOnFlagUntilTimeout+0x5e>
    {
      if (((HAL_GetTick() - Tickstart) > Timeout) || (Timeout == 0U))
 8003446:	f7fd fe81 	bl	800114c <HAL_GetTick>
 800344a:	4602      	mov	r2, r0
 800344c:	69bb      	ldr	r3, [r7, #24]
 800344e:	1ad3      	subs	r3, r2, r3
 8003450:	683a      	ldr	r2, [r7, #0]
 8003452:	429a      	cmp	r2, r3
 8003454:	d302      	bcc.n	800345c <I2C_WaitOnFlagUntilTimeout+0x30>
 8003456:	683b      	ldr	r3, [r7, #0]
 8003458:	2b00      	cmp	r3, #0
 800345a:	d116      	bne.n	800348a <I2C_WaitOnFlagUntilTimeout+0x5e>
      {
        hi2c->PreviousState     = I2C_STATE_NONE;
 800345c:	68fb      	ldr	r3, [r7, #12]
 800345e:	2200      	movs	r2, #0
 8003460:	631a      	str	r2, [r3, #48]	; 0x30
        hi2c->State             = HAL_I2C_STATE_READY;
 8003462:	68fb      	ldr	r3, [r7, #12]
 8003464:	2220      	movs	r2, #32
 8003466:	f883 203d 	strb.w	r2, [r3, #61]	; 0x3d
        hi2c->Mode              = HAL_I2C_MODE_NONE;
 800346a:	68fb      	ldr	r3, [r7, #12]
 800346c:	2200      	movs	r2, #0
 800346e:	f883 203e 	strb.w	r2, [r3, #62]	; 0x3e
        hi2c->ErrorCode         |= HAL_I2C_ERROR_TIMEOUT;
 8003472:	68fb      	ldr	r3, [r7, #12]
 8003474:	6c1b      	ldr	r3, [r3, #64]	; 0x40
 8003476:	f043 0220 	orr.w	r2, r3, #32
 800347a:	68fb      	ldr	r3, [r7, #12]
 800347c:	641a      	str	r2, [r3, #64]	; 0x40

        /* Process Unlocked */
        __HAL_UNLOCK(hi2c);
 800347e:	68fb      	ldr	r3, [r7, #12]
 8003480:	2200      	movs	r2, #0
 8003482:	f883 203c 	strb.w	r2, [r3, #60]	; 0x3c

        return HAL_ERROR;
 8003486:	2301      	movs	r3, #1
 8003488:	e023      	b.n	80034d2 <I2C_WaitOnFlagUntilTimeout+0xa6>
  while (__HAL_I2C_GET_FLAG(hi2c, Flag) == Status)
 800348a:	68bb      	ldr	r3, [r7, #8]
 800348c:	0c1b      	lsrs	r3, r3, #16
 800348e:	b2db      	uxtb	r3, r3
 8003490:	2b01      	cmp	r3, #1
 8003492:	d10d      	bne.n	80034b0 <I2C_WaitOnFlagUntilTimeout+0x84>
 8003494:	68fb      	ldr	r3, [r7, #12]
 8003496:	681b      	ldr	r3, [r3, #0]
 8003498:	695b      	ldr	r3, [r3, #20]
 800349a:	43da      	mvns	r2, r3
 800349c:	68bb      	ldr	r3, [r7, #8]
 800349e:	4013      	ands	r3, r2
 80034a0:	b29b      	uxth	r3, r3
 80034a2:	2b00      	cmp	r3, #0
 80034a4:	bf0c      	ite	eq
 80034a6:	2301      	moveq	r3, #1
 80034a8:	2300      	movne	r3, #0
 80034aa:	b2db      	uxtb	r3, r3
 80034ac:	461a      	mov	r2, r3
 80034ae:	e00c      	b.n	80034ca <I2C_WaitOnFlagUntilTimeout+0x9e>
 80034b0:	68fb      	ldr	r3, [r7, #12]
 80034b2:	681b      	ldr	r3, [r3, #0]
 80034b4:	699b      	ldr	r3, [r3, #24]
 80034b6:	43da      	mvns	r2, r3
 80034b8:	68bb      	ldr	r3, [r7, #8]
 80034ba:	4013      	ands	r3, r2
 80034bc:	b29b      	uxth	r3, r3
 80034be:	2b00      	cmp	r3, #0
 80034c0:	bf0c      	ite	eq
 80034c2:	2301      	moveq	r3, #1
 80034c4:	2300      	movne	r3, #0
 80034c6:	b2db      	uxtb	r3, r3
 80034c8:	461a      	mov	r2, r3
 80034ca:	79fb      	ldrb	r3, [r7, #7]
 80034cc:	429a      	cmp	r2, r3
 80034ce:	d0b6      	beq.n	800343e <I2C_WaitOnFlagUntilTimeout+0x12>
      }
    }
  }
  return HAL_OK;
 80034d0:	2300      	movs	r3, #0
}
 80034d2:	4618      	mov	r0, r3
 80034d4:	3710      	adds	r7, #16
 80034d6:	46bd      	mov	sp, r7
 80034d8:	bd80      	pop	{r7, pc}

080034da <I2C_WaitOnMasterAddressFlagUntilTimeout>:
  * @param  Timeout Timeout duration
  * @param  Tickstart Tick start value
  * @retval HAL status
  */
static HAL_StatusTypeDef I2C_WaitOnMasterAddressFlagUntilTimeout(I2C_HandleTypeDef *hi2c, uint32_t Flag, uint32_t Timeout, uint32_t Tickstart)
{
 80034da:	b580      	push	{r7, lr}
 80034dc:	b084      	sub	sp, #16
 80034de:	af00      	add	r7, sp, #0
 80034e0:	60f8      	str	r0, [r7, #12]
 80034e2:	60b9      	str	r1, [r7, #8]
 80034e4:	607a      	str	r2, [r7, #4]
 80034e6:	603b      	str	r3, [r7, #0]
  while (__HAL_I2C_GET_FLAG(hi2c, Flag) == RESET)
 80034e8:	e051      	b.n	800358e <I2C_WaitOnMasterAddressFlagUntilTimeout+0xb4>
  {
    if (__HAL_I2C_GET_FLAG(hi2c, I2C_FLAG_AF) == SET)
 80034ea:	68fb      	ldr	r3, [r7, #12]
 80034ec:	681b      	ldr	r3, [r3, #0]
 80034ee:	695b      	ldr	r3, [r3, #20]
 80034f0:	f403 6380 	and.w	r3, r3, #1024	; 0x400
 80034f4:	f5b3 6f80 	cmp.w	r3, #1024	; 0x400
 80034f8:	d123      	bne.n	8003542 <I2C_WaitOnMasterAddressFlagUntilTimeout+0x68>
    {
      /* Generate Stop */
      SET_BIT(hi2c->Instance->CR1, I2C_CR1_STOP);
 80034fa:	68fb      	ldr	r3, [r7, #12]
 80034fc:	681b      	ldr	r3, [r3, #0]
 80034fe:	681a      	ldr	r2, [r3, #0]
 8003500:	68fb      	ldr	r3, [r7, #12]
 8003502:	681b      	ldr	r3, [r3, #0]
 8003504:	f442 7200 	orr.w	r2, r2, #512	; 0x200
 8003508:	601a      	str	r2, [r3, #0]

      /* Clear AF Flag */
      __HAL_I2C_CLEAR_FLAG(hi2c, I2C_FLAG_AF);
 800350a:	68fb      	ldr	r3, [r7, #12]
 800350c:	681b      	ldr	r3, [r3, #0]
 800350e:	f46f 6280 	mvn.w	r2, #1024	; 0x400
 8003512:	615a      	str	r2, [r3, #20]

      hi2c->PreviousState       = I2C_STATE_NONE;
 8003514:	68fb      	ldr	r3, [r7, #12]
 8003516:	2200      	movs	r2, #0
 8003518:	631a      	str	r2, [r3, #48]	; 0x30
      hi2c->State               = HAL_I2C_STATE_READY;
 800351a:	68fb      	ldr	r3, [r7, #12]
 800351c:	2220      	movs	r2, #32
 800351e:	f883 203d 	strb.w	r2, [r3, #61]	; 0x3d
      hi2c->Mode                = HAL_I2C_MODE_NONE;
 8003522:	68fb      	ldr	r3, [r7, #12]
 8003524:	2200      	movs	r2, #0
 8003526:	f883 203e 	strb.w	r2, [r3, #62]	; 0x3e
      hi2c->ErrorCode           |= HAL_I2C_ERROR_AF;
 800352a:	68fb      	ldr	r3, [r7, #12]
 800352c:	6c1b      	ldr	r3, [r3, #64]	; 0x40
 800352e:	f043 0204 	orr.w	r2, r3, #4
 8003532:	68fb      	ldr	r3, [r7, #12]
 8003534:	641a      	str	r2, [r3, #64]	; 0x40

      /* Process Unlocked */
      __HAL_UNLOCK(hi2c);
 8003536:	68fb      	ldr	r3, [r7, #12]
 8003538:	2200      	movs	r2, #0
 800353a:	f883 203c 	strb.w	r2, [r3, #60]	; 0x3c

      return HAL_ERROR;
 800353e:	2301      	movs	r3, #1
 8003540:	e046      	b.n	80035d0 <I2C_WaitOnMasterAddressFlagUntilTimeout+0xf6>
    }

    /* Check for the Timeout */
    if (Timeout != HAL_MAX_DELAY)
 8003542:	687b      	ldr	r3, [r7, #4]
 8003544:	f1b3 3fff 	cmp.w	r3, #4294967295
 8003548:	d021      	beq.n	800358e <I2C_WaitOnMasterAddressFlagUntilTimeout+0xb4>
    {
      if (((HAL_GetTick() - Tickstart) > Timeout) || (Timeout == 0U))
 800354a:	f7fd fdff 	bl	800114c <HAL_GetTick>
 800354e:	4602      	mov	r2, r0
 8003550:	683b      	ldr	r3, [r7, #0]
 8003552:	1ad3      	subs	r3, r2, r3
 8003554:	687a      	ldr	r2, [r7, #4]
 8003556:	429a      	cmp	r2, r3
 8003558:	d302      	bcc.n	8003560 <I2C_WaitOnMasterAddressFlagUntilTimeout+0x86>
 800355a:	687b      	ldr	r3, [r7, #4]
 800355c:	2b00      	cmp	r3, #0
 800355e:	d116      	bne.n	800358e <I2C_WaitOnMasterAddressFlagUntilTimeout+0xb4>
      {
        hi2c->PreviousState       = I2C_STATE_NONE;
 8003560:	68fb      	ldr	r3, [r7, #12]
 8003562:	2200      	movs	r2, #0
 8003564:	631a      	str	r2, [r3, #48]	; 0x30
        hi2c->State               = HAL_I2C_STATE_READY;
 8003566:	68fb      	ldr	r3, [r7, #12]
 8003568:	2220      	movs	r2, #32
 800356a:	f883 203d 	strb.w	r2, [r3, #61]	; 0x3d
        hi2c->Mode                = HAL_I2C_MODE_NONE;
 800356e:	68fb      	ldr	r3, [r7, #12]
 8003570:	2200      	movs	r2, #0
 8003572:	f883 203e 	strb.w	r2, [r3, #62]	; 0x3e
        hi2c->ErrorCode           |= HAL_I2C_ERROR_TIMEOUT;
 8003576:	68fb      	ldr	r3, [r7, #12]
 8003578:	6c1b      	ldr	r3, [r3, #64]	; 0x40
 800357a:	f043 0220 	orr.w	r2, r3, #32
 800357e:	68fb      	ldr	r3, [r7, #12]
 8003580:	641a      	str	r2, [r3, #64]	; 0x40

        /* Process Unlocked */
        __HAL_UNLOCK(hi2c);
 8003582:	68fb      	ldr	r3, [r7, #12]
 8003584:	2200      	movs	r2, #0
 8003586:	f883 203c 	strb.w	r2, [r3, #60]	; 0x3c

        return HAL_ERROR;
 800358a:	2301      	movs	r3, #1
 800358c:	e020      	b.n	80035d0 <I2C_WaitOnMasterAddressFlagUntilTimeout+0xf6>
  while (__HAL_I2C_GET_FLAG(hi2c, Flag) == RESET)
 800358e:	68bb      	ldr	r3, [r7, #8]
 8003590:	0c1b      	lsrs	r3, r3, #16
 8003592:	b2db      	uxtb	r3, r3
 8003594:	2b01      	cmp	r3, #1
 8003596:	d10c      	bne.n	80035b2 <I2C_WaitOnMasterAddressFlagUntilTimeout+0xd8>
 8003598:	68fb      	ldr	r3, [r7, #12]
 800359a:	681b      	ldr	r3, [r3, #0]
 800359c:	695b      	ldr	r3, [r3, #20]
 800359e:	43da      	mvns	r2, r3
 80035a0:	68bb      	ldr	r3, [r7, #8]
 80035a2:	4013      	ands	r3, r2
 80035a4:	b29b      	uxth	r3, r3
 80035a6:	2b00      	cmp	r3, #0
 80035a8:	bf14      	ite	ne
 80035aa:	2301      	movne	r3, #1
 80035ac:	2300      	moveq	r3, #0
 80035ae:	b2db      	uxtb	r3, r3
 80035b0:	e00b      	b.n	80035ca <I2C_WaitOnMasterAddressFlagUntilTimeout+0xf0>
 80035b2:	68fb      	ldr	r3, [r7, #12]
 80035b4:	681b      	ldr	r3, [r3, #0]
 80035b6:	699b      	ldr	r3, [r3, #24]
 80035b8:	43da      	mvns	r2, r3
 80035ba:	68bb      	ldr	r3, [r7, #8]
 80035bc:	4013      	ands	r3, r2
 80035be:	b29b      	uxth	r3, r3
 80035c0:	2b00      	cmp	r3, #0
 80035c2:	bf14      	ite	ne
 80035c4:	2301      	movne	r3, #1
 80035c6:	2300      	moveq	r3, #0
 80035c8:	b2db      	uxtb	r3, r3
 80035ca:	2b00      	cmp	r3, #0
 80035cc:	d18d      	bne.n	80034ea <I2C_WaitOnMasterAddressFlagUntilTimeout+0x10>
      }
    }
  }
  return HAL_OK;
 80035ce:	2300      	movs	r3, #0
}
 80035d0:	4618      	mov	r0, r3
 80035d2:	3710      	adds	r7, #16
 80035d4:	46bd      	mov	sp, r7
 80035d6:	bd80      	pop	{r7, pc}

080035d8 <I2C_WaitOnTXEFlagUntilTimeout>:
  * @param  Timeout Timeout duration
  * @param  Tickstart Tick start value
  * @retval HAL status
  */
static HAL_StatusTypeDef I2C_WaitOnTXEFlagUntilTimeout(I2C_HandleTypeDef *hi2c, uint32_t Timeout, uint32_t Tickstart)
{
 80035d8:	b580      	push	{r7, lr}
 80035da:	b084      	sub	sp, #16
 80035dc:	af00      	add	r7, sp, #0
 80035de:	60f8      	str	r0, [r7, #12]
 80035e0:	60b9      	str	r1, [r7, #8]
 80035e2:	607a      	str	r2, [r7, #4]
  while (__HAL_I2C_GET_FLAG(hi2c, I2C_FLAG_TXE) == RESET)
 80035e4:	e02d      	b.n	8003642 <I2C_WaitOnTXEFlagUntilTimeout+0x6a>
  {
    /* Check if a NACK is detected */
    if (I2C_IsAcknowledgeFailed(hi2c) != HAL_OK)
 80035e6:	68f8      	ldr	r0, [r7, #12]
 80035e8:	f000 f878 	bl	80036dc <I2C_IsAcknowledgeFailed>
 80035ec:	4603      	mov	r3, r0
 80035ee:	2b00      	cmp	r3, #0
 80035f0:	d001      	beq.n	80035f6 <I2C_WaitOnTXEFlagUntilTimeout+0x1e>
    {
      return HAL_ERROR;
 80035f2:	2301      	movs	r3, #1
 80035f4:	e02d      	b.n	8003652 <I2C_WaitOnTXEFlagUntilTimeout+0x7a>
    }

    /* Check for the Timeout */
    if (Timeout != HAL_MAX_DELAY)
 80035f6:	68bb      	ldr	r3, [r7, #8]
 80035f8:	f1b3 3fff 	cmp.w	r3, #4294967295
 80035fc:	d021      	beq.n	8003642 <I2C_WaitOnTXEFlagUntilTimeout+0x6a>
    {
      if (((HAL_GetTick() - Tickstart) > Timeout) || (Timeout == 0U))
 80035fe:	f7fd fda5 	bl	800114c <HAL_GetTick>
 8003602:	4602      	mov	r2, r0
 8003604:	687b      	ldr	r3, [r7, #4]
 8003606:	1ad3      	subs	r3, r2, r3
 8003608:	68ba      	ldr	r2, [r7, #8]
 800360a:	429a      	cmp	r2, r3
 800360c:	d302      	bcc.n	8003614 <I2C_WaitOnTXEFlagUntilTimeout+0x3c>
 800360e:	68bb      	ldr	r3, [r7, #8]
 8003610:	2b00      	cmp	r3, #0
 8003612:	d116      	bne.n	8003642 <I2C_WaitOnTXEFlagUntilTimeout+0x6a>
      {
        hi2c->PreviousState       = I2C_STATE_NONE;
 8003614:	68fb      	ldr	r3, [r7, #12]
 8003616:	2200      	movs	r2, #0
 8003618:	631a      	str	r2, [r3, #48]	; 0x30
        hi2c->State               = HAL_I2C_STATE_READY;
 800361a:	68fb      	ldr	r3, [r7, #12]
 800361c:	2220      	movs	r2, #32
 800361e:	f883 203d 	strb.w	r2, [r3, #61]	; 0x3d
        hi2c->Mode                = HAL_I2C_MODE_NONE;
 8003622:	68fb      	ldr	r3, [r7, #12]
 8003624:	2200      	movs	r2, #0
 8003626:	f883 203e 	strb.w	r2, [r3, #62]	; 0x3e
        hi2c->ErrorCode           |= HAL_I2C_ERROR_TIMEOUT;
 800362a:	68fb      	ldr	r3, [r7, #12]
 800362c:	6c1b      	ldr	r3, [r3, #64]	; 0x40
 800362e:	f043 0220 	orr.w	r2, r3, #32
 8003632:	68fb      	ldr	r3, [r7, #12]
 8003634:	641a      	str	r2, [r3, #64]	; 0x40

        /* Process Unlocked */
        __HAL_UNLOCK(hi2c);
 8003636:	68fb      	ldr	r3, [r7, #12]
 8003638:	2200      	movs	r2, #0
 800363a:	f883 203c 	strb.w	r2, [r3, #60]	; 0x3c

        return HAL_ERROR;
 800363e:	2301      	movs	r3, #1
 8003640:	e007      	b.n	8003652 <I2C_WaitOnTXEFlagUntilTimeout+0x7a>
  while (__HAL_I2C_GET_FLAG(hi2c, I2C_FLAG_TXE) == RESET)
 8003642:	68fb      	ldr	r3, [r7, #12]
 8003644:	681b      	ldr	r3, [r3, #0]
 8003646:	695b      	ldr	r3, [r3, #20]
 8003648:	f003 0380 	and.w	r3, r3, #128	; 0x80
 800364c:	2b80      	cmp	r3, #128	; 0x80
 800364e:	d1ca      	bne.n	80035e6 <I2C_WaitOnTXEFlagUntilTimeout+0xe>
      }
    }
  }
  return HAL_OK;
 8003650:	2300      	movs	r3, #0
}
 8003652:	4618      	mov	r0, r3
 8003654:	3710      	adds	r7, #16
 8003656:	46bd      	mov	sp, r7
 8003658:	bd80      	pop	{r7, pc}

0800365a <I2C_WaitOnBTFFlagUntilTimeout>:
  * @param  Timeout Timeout duration
  * @param  Tickstart Tick start value
  * @retval HAL status
  */
static HAL_StatusTypeDef I2C_WaitOnBTFFlagUntilTimeout(I2C_HandleTypeDef *hi2c, uint32_t Timeout, uint32_t Tickstart)
{
 800365a:	b580      	push	{r7, lr}
 800365c:	b084      	sub	sp, #16
 800365e:	af00      	add	r7, sp, #0
 8003660:	60f8      	str	r0, [r7, #12]
 8003662:	60b9      	str	r1, [r7, #8]
 8003664:	607a      	str	r2, [r7, #4]
  while (__HAL_I2C_GET_FLAG(hi2c, I2C_FLAG_BTF) == RESET)
 8003666:	e02d      	b.n	80036c4 <I2C_WaitOnBTFFlagUntilTimeout+0x6a>
  {
    /* Check if a NACK is detected */
    if (I2C_IsAcknowledgeFailed(hi2c) != HAL_OK)
 8003668:	68f8      	ldr	r0, [r7, #12]
 800366a:	f000 f837 	bl	80036dc <I2C_IsAcknowledgeFailed>
 800366e:	4603      	mov	r3, r0
 8003670:	2b00      	cmp	r3, #0
 8003672:	d001      	beq.n	8003678 <I2C_WaitOnBTFFlagUntilTimeout+0x1e>
    {
      return HAL_ERROR;
 8003674:	2301      	movs	r3, #1
 8003676:	e02d      	b.n	80036d4 <I2C_WaitOnBTFFlagUntilTimeout+0x7a>
    }

    /* Check for the Timeout */
    if (Timeout != HAL_MAX_DELAY)
 8003678:	68bb      	ldr	r3, [r7, #8]
 800367a:	f1b3 3fff 	cmp.w	r3, #4294967295
 800367e:	d021      	beq.n	80036c4 <I2C_WaitOnBTFFlagUntilTimeout+0x6a>
    {
      if (((HAL_GetTick() - Tickstart) > Timeout) || (Timeout == 0U))
 8003680:	f7fd fd64 	bl	800114c <HAL_GetTick>
 8003684:	4602      	mov	r2, r0
 8003686:	687b      	ldr	r3, [r7, #4]
 8003688:	1ad3      	subs	r3, r2, r3
 800368a:	68ba      	ldr	r2, [r7, #8]
 800368c:	429a      	cmp	r2, r3
 800368e:	d302      	bcc.n	8003696 <I2C_WaitOnBTFFlagUntilTimeout+0x3c>
 8003690:	68bb      	ldr	r3, [r7, #8]
 8003692:	2b00      	cmp	r3, #0
 8003694:	d116      	bne.n	80036c4 <I2C_WaitOnBTFFlagUntilTimeout+0x6a>
      {
        hi2c->PreviousState       = I2C_STATE_NONE;
 8003696:	68fb      	ldr	r3, [r7, #12]
 8003698:	2200      	movs	r2, #0
 800369a:	631a      	str	r2, [r3, #48]	; 0x30
        hi2c->State               = HAL_I2C_STATE_READY;
 800369c:	68fb      	ldr	r3, [r7, #12]
 800369e:	2220      	movs	r2, #32
 80036a0:	f883 203d 	strb.w	r2, [r3, #61]	; 0x3d
        hi2c->Mode                = HAL_I2C_MODE_NONE;
 80036a4:	68fb      	ldr	r3, [r7, #12]
 80036a6:	2200      	movs	r2, #0
 80036a8:	f883 203e 	strb.w	r2, [r3, #62]	; 0x3e
        hi2c->ErrorCode           |= HAL_I2C_ERROR_TIMEOUT;
 80036ac:	68fb      	ldr	r3, [r7, #12]
 80036ae:	6c1b      	ldr	r3, [r3, #64]	; 0x40
 80036b0:	f043 0220 	orr.w	r2, r3, #32
 80036b4:	68fb      	ldr	r3, [r7, #12]
 80036b6:	641a      	str	r2, [r3, #64]	; 0x40

        /* Process Unlocked */
        __HAL_UNLOCK(hi2c);
 80036b8:	68fb      	ldr	r3, [r7, #12]
 80036ba:	2200      	movs	r2, #0
 80036bc:	f883 203c 	strb.w	r2, [r3, #60]	; 0x3c

        return HAL_ERROR;
 80036c0:	2301      	movs	r3, #1
 80036c2:	e007      	b.n	80036d4 <I2C_WaitOnBTFFlagUntilTimeout+0x7a>
  while (__HAL_I2C_GET_FLAG(hi2c, I2C_FLAG_BTF) == RESET)
 80036c4:	68fb      	ldr	r3, [r7, #12]
 80036c6:	681b      	ldr	r3, [r3, #0]
 80036c8:	695b      	ldr	r3, [r3, #20]
 80036ca:	f003 0304 	and.w	r3, r3, #4
 80036ce:	2b04      	cmp	r3, #4
 80036d0:	d1ca      	bne.n	8003668 <I2C_WaitOnBTFFlagUntilTimeout+0xe>
      }
    }
  }
  return HAL_OK;
 80036d2:	2300      	movs	r3, #0
}
 80036d4:	4618      	mov	r0, r3
 80036d6:	3710      	adds	r7, #16
 80036d8:	46bd      	mov	sp, r7
 80036da:	bd80      	pop	{r7, pc}

080036dc <I2C_IsAcknowledgeFailed>:
  * @param  hi2c Pointer to a I2C_HandleTypeDef structure that contains
  *                the configuration information for the specified I2C.
  * @retval HAL status
  */
static HAL_StatusTypeDef I2C_IsAcknowledgeFailed(I2C_HandleTypeDef *hi2c)
{
 80036dc:	b480      	push	{r7}
 80036de:	b083      	sub	sp, #12
 80036e0:	af00      	add	r7, sp, #0
 80036e2:	6078      	str	r0, [r7, #4]
  if (__HAL_I2C_GET_FLAG(hi2c, I2C_FLAG_AF) == SET)
 80036e4:	687b      	ldr	r3, [r7, #4]
 80036e6:	681b      	ldr	r3, [r3, #0]
 80036e8:	695b      	ldr	r3, [r3, #20]
 80036ea:	f403 6380 	and.w	r3, r3, #1024	; 0x400
 80036ee:	f5b3 6f80 	cmp.w	r3, #1024	; 0x400
 80036f2:	d11b      	bne.n	800372c <I2C_IsAcknowledgeFailed+0x50>
  {
    /* Clear NACKF Flag */
    __HAL_I2C_CLEAR_FLAG(hi2c, I2C_FLAG_AF);
 80036f4:	687b      	ldr	r3, [r7, #4]
 80036f6:	681b      	ldr	r3, [r3, #0]
 80036f8:	f46f 6280 	mvn.w	r2, #1024	; 0x400
 80036fc:	615a      	str	r2, [r3, #20]

    hi2c->PreviousState       = I2C_STATE_NONE;
 80036fe:	687b      	ldr	r3, [r7, #4]
 8003700:	2200      	movs	r2, #0
 8003702:	631a      	str	r2, [r3, #48]	; 0x30
    hi2c->State               = HAL_I2C_STATE_READY;
 8003704:	687b      	ldr	r3, [r7, #4]
 8003706:	2220      	movs	r2, #32
 8003708:	f883 203d 	strb.w	r2, [r3, #61]	; 0x3d
    hi2c->Mode                = HAL_I2C_MODE_NONE;
 800370c:	687b      	ldr	r3, [r7, #4]
 800370e:	2200      	movs	r2, #0
 8003710:	f883 203e 	strb.w	r2, [r3, #62]	; 0x3e
    hi2c->ErrorCode           |= HAL_I2C_ERROR_AF;
 8003714:	687b      	ldr	r3, [r7, #4]
 8003716:	6c1b      	ldr	r3, [r3, #64]	; 0x40
 8003718:	f043 0204 	orr.w	r2, r3, #4
 800371c:	687b      	ldr	r3, [r7, #4]
 800371e:	641a      	str	r2, [r3, #64]	; 0x40

    /* Process Unlocked */
    __HAL_UNLOCK(hi2c);
 8003720:	687b      	ldr	r3, [r7, #4]
 8003722:	2200      	movs	r2, #0
 8003724:	f883 203c 	strb.w	r2, [r3, #60]	; 0x3c

    return HAL_ERROR;
 8003728:	2301      	movs	r3, #1
 800372a:	e000      	b.n	800372e <I2C_IsAcknowledgeFailed+0x52>
  }
  return HAL_OK;
 800372c:	2300      	movs	r3, #0
}
 800372e:	4618      	mov	r0, r3
 8003730:	370c      	adds	r7, #12
 8003732:	46bd      	mov	sp, r7
 8003734:	bc80      	pop	{r7}
 8003736:	4770      	bx	lr

08003738 <HAL_RCC_OscConfig>:
  *         supported by this macro. User should request a transition to HSE Off
  *         first and then HSE On or HSE Bypass.
  * @retval HAL status
  */
HAL_StatusTypeDef HAL_RCC_OscConfig(RCC_OscInitTypeDef  *RCC_OscInitStruct)
{
 8003738:	b580      	push	{r7, lr}
 800373a:	b086      	sub	sp, #24
 800373c:	af00      	add	r7, sp, #0
 800373e:	6078      	str	r0, [r7, #4]
  uint32_t tickstart;
  uint32_t pll_config;

  /* Check Null pointer */
  if (RCC_OscInitStruct == NULL)
 8003740:	687b      	ldr	r3, [r7, #4]
 8003742:	2b00      	cmp	r3, #0
 8003744:	d101      	bne.n	800374a <HAL_RCC_OscConfig+0x12>
  {
    return HAL_ERROR;
 8003746:	2301      	movs	r3, #1
 8003748:	e26c      	b.n	8003c24 <HAL_RCC_OscConfig+0x4ec>

  /* Check the parameters */
  assert_param(IS_RCC_OSCILLATORTYPE(RCC_OscInitStruct->OscillatorType));

  /*------------------------------- HSE Configuration ------------------------*/
  if (((RCC_OscInitStruct->OscillatorType) & RCC_OSCILLATORTYPE_HSE) == RCC_OSCILLATORTYPE_HSE)
 800374a:	687b      	ldr	r3, [r7, #4]
 800374c:	681b      	ldr	r3, [r3, #0]
 800374e:	f003 0301 	and.w	r3, r3, #1
 8003752:	2b00      	cmp	r3, #0
 8003754:	f000 8087 	beq.w	8003866 <HAL_RCC_OscConfig+0x12e>
  {
    /* Check the parameters */
    assert_param(IS_RCC_HSE(RCC_OscInitStruct->HSEState));

    /* When the HSE is used as system clock or clock source for PLL in these cases it is not allowed to be disabled */
    if ((__HAL_RCC_GET_SYSCLK_SOURCE() == RCC_SYSCLKSOURCE_STATUS_HSE)
 8003758:	4b92      	ldr	r3, [pc, #584]	; (80039a4 <HAL_RCC_OscConfig+0x26c>)
 800375a:	685b      	ldr	r3, [r3, #4]
 800375c:	f003 030c 	and.w	r3, r3, #12
 8003760:	2b04      	cmp	r3, #4
 8003762:	d00c      	beq.n	800377e <HAL_RCC_OscConfig+0x46>
        || ((__HAL_RCC_GET_SYSCLK_SOURCE() == RCC_SYSCLKSOURCE_STATUS_PLLCLK) && (__HAL_RCC_GET_PLL_OSCSOURCE() == RCC_PLLSOURCE_HSE)))
 8003764:	4b8f      	ldr	r3, [pc, #572]	; (80039a4 <HAL_RCC_OscConfig+0x26c>)
 8003766:	685b      	ldr	r3, [r3, #4]
 8003768:	f003 030c 	and.w	r3, r3, #12
 800376c:	2b08      	cmp	r3, #8
 800376e:	d112      	bne.n	8003796 <HAL_RCC_OscConfig+0x5e>
 8003770:	4b8c      	ldr	r3, [pc, #560]	; (80039a4 <HAL_RCC_OscConfig+0x26c>)
 8003772:	685b      	ldr	r3, [r3, #4]
 8003774:	f403 3380 	and.w	r3, r3, #65536	; 0x10000
 8003778:	f5b3 3f80 	cmp.w	r3, #65536	; 0x10000
 800377c:	d10b      	bne.n	8003796 <HAL_RCC_OscConfig+0x5e>
    {
      if ((__HAL_RCC_GET_FLAG(RCC_FLAG_HSERDY) != RESET) && (RCC_OscInitStruct->HSEState == RCC_HSE_OFF))
 800377e:	4b89      	ldr	r3, [pc, #548]	; (80039a4 <HAL_RCC_OscConfig+0x26c>)
 8003780:	681b      	ldr	r3, [r3, #0]
 8003782:	f403 3300 	and.w	r3, r3, #131072	; 0x20000
 8003786:	2b00      	cmp	r3, #0
 8003788:	d06c      	beq.n	8003864 <HAL_RCC_OscConfig+0x12c>
 800378a:	687b      	ldr	r3, [r7, #4]
 800378c:	685b      	ldr	r3, [r3, #4]
 800378e:	2b00      	cmp	r3, #0
 8003790:	d168      	bne.n	8003864 <HAL_RCC_OscConfig+0x12c>
      {
        return HAL_ERROR;
 8003792:	2301      	movs	r3, #1
 8003794:	e246      	b.n	8003c24 <HAL_RCC_OscConfig+0x4ec>
      }
    }
    else
    {
      /* Set the new HSE configuration ---------------------------------------*/
      __HAL_RCC_HSE_CONFIG(RCC_OscInitStruct->HSEState);
 8003796:	687b      	ldr	r3, [r7, #4]
 8003798:	685b      	ldr	r3, [r3, #4]
 800379a:	f5b3 3f80 	cmp.w	r3, #65536	; 0x10000
 800379e:	d106      	bne.n	80037ae <HAL_RCC_OscConfig+0x76>
 80037a0:	4b80      	ldr	r3, [pc, #512]	; (80039a4 <HAL_RCC_OscConfig+0x26c>)
 80037a2:	681b      	ldr	r3, [r3, #0]
 80037a4:	4a7f      	ldr	r2, [pc, #508]	; (80039a4 <HAL_RCC_OscConfig+0x26c>)
 80037a6:	f443 3380 	orr.w	r3, r3, #65536	; 0x10000
 80037aa:	6013      	str	r3, [r2, #0]
 80037ac:	e02e      	b.n	800380c <HAL_RCC_OscConfig+0xd4>
 80037ae:	687b      	ldr	r3, [r7, #4]
 80037b0:	685b      	ldr	r3, [r3, #4]
 80037b2:	2b00      	cmp	r3, #0
 80037b4:	d10c      	bne.n	80037d0 <HAL_RCC_OscConfig+0x98>
 80037b6:	4b7b      	ldr	r3, [pc, #492]	; (80039a4 <HAL_RCC_OscConfig+0x26c>)
 80037b8:	681b      	ldr	r3, [r3, #0]
 80037ba:	4a7a      	ldr	r2, [pc, #488]	; (80039a4 <HAL_RCC_OscConfig+0x26c>)
 80037bc:	f423 3380 	bic.w	r3, r3, #65536	; 0x10000
 80037c0:	6013      	str	r3, [r2, #0]
 80037c2:	4b78      	ldr	r3, [pc, #480]	; (80039a4 <HAL_RCC_OscConfig+0x26c>)
 80037c4:	681b      	ldr	r3, [r3, #0]
 80037c6:	4a77      	ldr	r2, [pc, #476]	; (80039a4 <HAL_RCC_OscConfig+0x26c>)
 80037c8:	f423 2380 	bic.w	r3, r3, #262144	; 0x40000
 80037cc:	6013      	str	r3, [r2, #0]
 80037ce:	e01d      	b.n	800380c <HAL_RCC_OscConfig+0xd4>
 80037d0:	687b      	ldr	r3, [r7, #4]
 80037d2:	685b      	ldr	r3, [r3, #4]
 80037d4:	f5b3 2fa0 	cmp.w	r3, #327680	; 0x50000
 80037d8:	d10c      	bne.n	80037f4 <HAL_RCC_OscConfig+0xbc>
 80037da:	4b72      	ldr	r3, [pc, #456]	; (80039a4 <HAL_RCC_OscConfig+0x26c>)
 80037dc:	681b      	ldr	r3, [r3, #0]
 80037de:	4a71      	ldr	r2, [pc, #452]	; (80039a4 <HAL_RCC_OscConfig+0x26c>)
 80037e0:	f443 2380 	orr.w	r3, r3, #262144	; 0x40000
 80037e4:	6013      	str	r3, [r2, #0]
 80037e6:	4b6f      	ldr	r3, [pc, #444]	; (80039a4 <HAL_RCC_OscConfig+0x26c>)
 80037e8:	681b      	ldr	r3, [r3, #0]
 80037ea:	4a6e      	ldr	r2, [pc, #440]	; (80039a4 <HAL_RCC_OscConfig+0x26c>)
 80037ec:	f443 3380 	orr.w	r3, r3, #65536	; 0x10000
 80037f0:	6013      	str	r3, [r2, #0]
 80037f2:	e00b      	b.n	800380c <HAL_RCC_OscConfig+0xd4>
 80037f4:	4b6b      	ldr	r3, [pc, #428]	; (80039a4 <HAL_RCC_OscConfig+0x26c>)
 80037f6:	681b      	ldr	r3, [r3, #0]
 80037f8:	4a6a      	ldr	r2, [pc, #424]	; (80039a4 <HAL_RCC_OscConfig+0x26c>)
 80037fa:	f423 3380 	bic.w	r3, r3, #65536	; 0x10000
 80037fe:	6013      	str	r3, [r2, #0]
 8003800:	4b68      	ldr	r3, [pc, #416]	; (80039a4 <HAL_RCC_OscConfig+0x26c>)
 8003802:	681b      	ldr	r3, [r3, #0]
 8003804:	4a67      	ldr	r2, [pc, #412]	; (80039a4 <HAL_RCC_OscConfig+0x26c>)
 8003806:	f423 2380 	bic.w	r3, r3, #262144	; 0x40000
 800380a:	6013      	str	r3, [r2, #0]


      /* Check the HSE State */
      if (RCC_OscInitStruct->HSEState != RCC_HSE_OFF)
 800380c:	687b      	ldr	r3, [r7, #4]
 800380e:	685b      	ldr	r3, [r3, #4]
 8003810:	2b00      	cmp	r3, #0
 8003812:	d013      	beq.n	800383c <HAL_RCC_OscConfig+0x104>
      {
        /* Get Start Tick */
        tickstart = HAL_GetTick();
 8003814:	f7fd fc9a 	bl	800114c <HAL_GetTick>
 8003818:	6138      	str	r0, [r7, #16]

        /* Wait till HSE is ready */
        while (__HAL_RCC_GET_FLAG(RCC_FLAG_HSERDY) == RESET)
 800381a:	e008      	b.n	800382e <HAL_RCC_OscConfig+0xf6>
        {
          if ((HAL_GetTick() - tickstart) > HSE_TIMEOUT_VALUE)
 800381c:	f7fd fc96 	bl	800114c <HAL_GetTick>
 8003820:	4602      	mov	r2, r0
 8003822:	693b      	ldr	r3, [r7, #16]
 8003824:	1ad3      	subs	r3, r2, r3
 8003826:	2b64      	cmp	r3, #100	; 0x64
 8003828:	d901      	bls.n	800382e <HAL_RCC_OscConfig+0xf6>
          {
            return HAL_TIMEOUT;
 800382a:	2303      	movs	r3, #3
 800382c:	e1fa      	b.n	8003c24 <HAL_RCC_OscConfig+0x4ec>
        while (__HAL_RCC_GET_FLAG(RCC_FLAG_HSERDY) == RESET)
 800382e:	4b5d      	ldr	r3, [pc, #372]	; (80039a4 <HAL_RCC_OscConfig+0x26c>)
 8003830:	681b      	ldr	r3, [r3, #0]
 8003832:	f403 3300 	and.w	r3, r3, #131072	; 0x20000
 8003836:	2b00      	cmp	r3, #0
 8003838:	d0f0      	beq.n	800381c <HAL_RCC_OscConfig+0xe4>
 800383a:	e014      	b.n	8003866 <HAL_RCC_OscConfig+0x12e>
        }
      }
      else
      {
        /* Get Start Tick */
        tickstart = HAL_GetTick();
 800383c:	f7fd fc86 	bl	800114c <HAL_GetTick>
 8003840:	6138      	str	r0, [r7, #16]

        /* Wait till HSE is disabled */
        while (__HAL_RCC_GET_FLAG(RCC_FLAG_HSERDY) != RESET)
 8003842:	e008      	b.n	8003856 <HAL_RCC_OscConfig+0x11e>
        {
          if ((HAL_GetTick() - tickstart) > HSE_TIMEOUT_VALUE)
 8003844:	f7fd fc82 	bl	800114c <HAL_GetTick>
 8003848:	4602      	mov	r2, r0
 800384a:	693b      	ldr	r3, [r7, #16]
 800384c:	1ad3      	subs	r3, r2, r3
 800384e:	2b64      	cmp	r3, #100	; 0x64
 8003850:	d901      	bls.n	8003856 <HAL_RCC_OscConfig+0x11e>
          {
            return HAL_TIMEOUT;
 8003852:	2303      	movs	r3, #3
 8003854:	e1e6      	b.n	8003c24 <HAL_RCC_OscConfig+0x4ec>
        while (__HAL_RCC_GET_FLAG(RCC_FLAG_HSERDY) != RESET)
 8003856:	4b53      	ldr	r3, [pc, #332]	; (80039a4 <HAL_RCC_OscConfig+0x26c>)
 8003858:	681b      	ldr	r3, [r3, #0]
 800385a:	f403 3300 	and.w	r3, r3, #131072	; 0x20000
 800385e:	2b00      	cmp	r3, #0
 8003860:	d1f0      	bne.n	8003844 <HAL_RCC_OscConfig+0x10c>
 8003862:	e000      	b.n	8003866 <HAL_RCC_OscConfig+0x12e>
      if ((__HAL_RCC_GET_FLAG(RCC_FLAG_HSERDY) != RESET) && (RCC_OscInitStruct->HSEState == RCC_HSE_OFF))
 8003864:	bf00      	nop
        }
      }
    }
  }
  /*----------------------------- HSI Configuration --------------------------*/
  if (((RCC_OscInitStruct->OscillatorType) & RCC_OSCILLATORTYPE_HSI) == RCC_OSCILLATORTYPE_HSI)
 8003866:	687b      	ldr	r3, [r7, #4]
 8003868:	681b      	ldr	r3, [r3, #0]
 800386a:	f003 0302 	and.w	r3, r3, #2
 800386e:	2b00      	cmp	r3, #0
 8003870:	d063      	beq.n	800393a <HAL_RCC_OscConfig+0x202>
    /* Check the parameters */
    assert_param(IS_RCC_HSI(RCC_OscInitStruct->HSIState));
    assert_param(IS_RCC_CALIBRATION_VALUE(RCC_OscInitStruct->HSICalibrationValue));

    /* Check if HSI is used as system clock or as PLL source when PLL is selected as system clock */
    if ((__HAL_RCC_GET_SYSCLK_SOURCE() == RCC_SYSCLKSOURCE_STATUS_HSI)
 8003872:	4b4c      	ldr	r3, [pc, #304]	; (80039a4 <HAL_RCC_OscConfig+0x26c>)
 8003874:	685b      	ldr	r3, [r3, #4]
 8003876:	f003 030c 	and.w	r3, r3, #12
 800387a:	2b00      	cmp	r3, #0
 800387c:	d00b      	beq.n	8003896 <HAL_RCC_OscConfig+0x15e>
        || ((__HAL_RCC_GET_SYSCLK_SOURCE() == RCC_SYSCLKSOURCE_STATUS_PLLCLK) && (__HAL_RCC_GET_PLL_OSCSOURCE() == RCC_PLLSOURCE_HSI_DIV2)))
 800387e:	4b49      	ldr	r3, [pc, #292]	; (80039a4 <HAL_RCC_OscConfig+0x26c>)
 8003880:	685b      	ldr	r3, [r3, #4]
 8003882:	f003 030c 	and.w	r3, r3, #12
 8003886:	2b08      	cmp	r3, #8
 8003888:	d11c      	bne.n	80038c4 <HAL_RCC_OscConfig+0x18c>
 800388a:	4b46      	ldr	r3, [pc, #280]	; (80039a4 <HAL_RCC_OscConfig+0x26c>)
 800388c:	685b      	ldr	r3, [r3, #4]
 800388e:	f403 3380 	and.w	r3, r3, #65536	; 0x10000
 8003892:	2b00      	cmp	r3, #0
 8003894:	d116      	bne.n	80038c4 <HAL_RCC_OscConfig+0x18c>
    {
      /* When HSI is used as system clock it will not disabled */
      if ((__HAL_RCC_GET_FLAG(RCC_FLAG_HSIRDY) != RESET) && (RCC_OscInitStruct->HSIState != RCC_HSI_ON))
 8003896:	4b43      	ldr	r3, [pc, #268]	; (80039a4 <HAL_RCC_OscConfig+0x26c>)
 8003898:	681b      	ldr	r3, [r3, #0]
 800389a:	f003 0302 	and.w	r3, r3, #2
 800389e:	2b00      	cmp	r3, #0
 80038a0:	d005      	beq.n	80038ae <HAL_RCC_OscConfig+0x176>
 80038a2:	687b      	ldr	r3, [r7, #4]
 80038a4:	691b      	ldr	r3, [r3, #16]
 80038a6:	2b01      	cmp	r3, #1
 80038a8:	d001      	beq.n	80038ae <HAL_RCC_OscConfig+0x176>
      {
        return HAL_ERROR;
 80038aa:	2301      	movs	r3, #1
 80038ac:	e1ba      	b.n	8003c24 <HAL_RCC_OscConfig+0x4ec>
      }
      /* Otherwise, just the calibration is allowed */
      else
      {
        /* Adjusts the Internal High Speed oscillator (HSI) calibration value.*/
        __HAL_RCC_HSI_CALIBRATIONVALUE_ADJUST(RCC_OscInitStruct->HSICalibrationValue);
 80038ae:	4b3d      	ldr	r3, [pc, #244]	; (80039a4 <HAL_RCC_OscConfig+0x26c>)
 80038b0:	681b      	ldr	r3, [r3, #0]
 80038b2:	f023 02f8 	bic.w	r2, r3, #248	; 0xf8
 80038b6:	687b      	ldr	r3, [r7, #4]
 80038b8:	695b      	ldr	r3, [r3, #20]
 80038ba:	00db      	lsls	r3, r3, #3
 80038bc:	4939      	ldr	r1, [pc, #228]	; (80039a4 <HAL_RCC_OscConfig+0x26c>)
 80038be:	4313      	orrs	r3, r2
 80038c0:	600b      	str	r3, [r1, #0]
      if ((__HAL_RCC_GET_FLAG(RCC_FLAG_HSIRDY) != RESET) && (RCC_OscInitStruct->HSIState != RCC_HSI_ON))
 80038c2:	e03a      	b.n	800393a <HAL_RCC_OscConfig+0x202>
      }
    }
    else
    {
      /* Check the HSI State */
      if (RCC_OscInitStruct->HSIState != RCC_HSI_OFF)
 80038c4:	687b      	ldr	r3, [r7, #4]
 80038c6:	691b      	ldr	r3, [r3, #16]
 80038c8:	2b00      	cmp	r3, #0
 80038ca:	d020      	beq.n	800390e <HAL_RCC_OscConfig+0x1d6>
      {
        /* Enable the Internal High Speed oscillator (HSI). */
        __HAL_RCC_HSI_ENABLE();
 80038cc:	4b36      	ldr	r3, [pc, #216]	; (80039a8 <HAL_RCC_OscConfig+0x270>)
 80038ce:	2201      	movs	r2, #1
 80038d0:	601a      	str	r2, [r3, #0]

        /* Get Start Tick */
        tickstart = HAL_GetTick();
 80038d2:	f7fd fc3b 	bl	800114c <HAL_GetTick>
 80038d6:	6138      	str	r0, [r7, #16]

        /* Wait till HSI is ready */
        while (__HAL_RCC_GET_FLAG(RCC_FLAG_HSIRDY) == RESET)
 80038d8:	e008      	b.n	80038ec <HAL_RCC_OscConfig+0x1b4>
        {
          if ((HAL_GetTick() - tickstart) > HSI_TIMEOUT_VALUE)
 80038da:	f7fd fc37 	bl	800114c <HAL_GetTick>
 80038de:	4602      	mov	r2, r0
 80038e0:	693b      	ldr	r3, [r7, #16]
 80038e2:	1ad3      	subs	r3, r2, r3
 80038e4:	2b02      	cmp	r3, #2
 80038e6:	d901      	bls.n	80038ec <HAL_RCC_OscConfig+0x1b4>
          {
            return HAL_TIMEOUT;
 80038e8:	2303      	movs	r3, #3
 80038ea:	e19b      	b.n	8003c24 <HAL_RCC_OscConfig+0x4ec>
        while (__HAL_RCC_GET_FLAG(RCC_FLAG_HSIRDY) == RESET)
 80038ec:	4b2d      	ldr	r3, [pc, #180]	; (80039a4 <HAL_RCC_OscConfig+0x26c>)
 80038ee:	681b      	ldr	r3, [r3, #0]
 80038f0:	f003 0302 	and.w	r3, r3, #2
 80038f4:	2b00      	cmp	r3, #0
 80038f6:	d0f0      	beq.n	80038da <HAL_RCC_OscConfig+0x1a2>
          }
        }

        /* Adjusts the Internal High Speed oscillator (HSI) calibration value.*/
        __HAL_RCC_HSI_CALIBRATIONVALUE_ADJUST(RCC_OscInitStruct->HSICalibrationValue);
 80038f8:	4b2a      	ldr	r3, [pc, #168]	; (80039a4 <HAL_RCC_OscConfig+0x26c>)
 80038fa:	681b      	ldr	r3, [r3, #0]
 80038fc:	f023 02f8 	bic.w	r2, r3, #248	; 0xf8
 8003900:	687b      	ldr	r3, [r7, #4]
 8003902:	695b      	ldr	r3, [r3, #20]
 8003904:	00db      	lsls	r3, r3, #3
 8003906:	4927      	ldr	r1, [pc, #156]	; (80039a4 <HAL_RCC_OscConfig+0x26c>)
 8003908:	4313      	orrs	r3, r2
 800390a:	600b      	str	r3, [r1, #0]
 800390c:	e015      	b.n	800393a <HAL_RCC_OscConfig+0x202>
      }
      else
      {
        /* Disable the Internal High Speed oscillator (HSI). */
        __HAL_RCC_HSI_DISABLE();
 800390e:	4b26      	ldr	r3, [pc, #152]	; (80039a8 <HAL_RCC_OscConfig+0x270>)
 8003910:	2200      	movs	r2, #0
 8003912:	601a      	str	r2, [r3, #0]

        /* Get Start Tick */
        tickstart = HAL_GetTick();
 8003914:	f7fd fc1a 	bl	800114c <HAL_GetTick>
 8003918:	6138      	str	r0, [r7, #16]

        /* Wait till HSI is disabled */
        while (__HAL_RCC_GET_FLAG(RCC_FLAG_HSIRDY) != RESET)
 800391a:	e008      	b.n	800392e <HAL_RCC_OscConfig+0x1f6>
        {
          if ((HAL_GetTick() - tickstart) > HSI_TIMEOUT_VALUE)
 800391c:	f7fd fc16 	bl	800114c <HAL_GetTick>
 8003920:	4602      	mov	r2, r0
 8003922:	693b      	ldr	r3, [r7, #16]
 8003924:	1ad3      	subs	r3, r2, r3
 8003926:	2b02      	cmp	r3, #2
 8003928:	d901      	bls.n	800392e <HAL_RCC_OscConfig+0x1f6>
          {
            return HAL_TIMEOUT;
 800392a:	2303      	movs	r3, #3
 800392c:	e17a      	b.n	8003c24 <HAL_RCC_OscConfig+0x4ec>
        while (__HAL_RCC_GET_FLAG(RCC_FLAG_HSIRDY) != RESET)
 800392e:	4b1d      	ldr	r3, [pc, #116]	; (80039a4 <HAL_RCC_OscConfig+0x26c>)
 8003930:	681b      	ldr	r3, [r3, #0]
 8003932:	f003 0302 	and.w	r3, r3, #2
 8003936:	2b00      	cmp	r3, #0
 8003938:	d1f0      	bne.n	800391c <HAL_RCC_OscConfig+0x1e4>
        }
      }
    }
  }
  /*------------------------------ LSI Configuration -------------------------*/
  if (((RCC_OscInitStruct->OscillatorType) & RCC_OSCILLATORTYPE_LSI) == RCC_OSCILLATORTYPE_LSI)
 800393a:	687b      	ldr	r3, [r7, #4]
 800393c:	681b      	ldr	r3, [r3, #0]
 800393e:	f003 0308 	and.w	r3, r3, #8
 8003942:	2b00      	cmp	r3, #0
 8003944:	d03a      	beq.n	80039bc <HAL_RCC_OscConfig+0x284>
  {
    /* Check the parameters */
    assert_param(IS_RCC_LSI(RCC_OscInitStruct->LSIState));

    /* Check the LSI State */
    if (RCC_OscInitStruct->LSIState != RCC_LSI_OFF)
 8003946:	687b      	ldr	r3, [r7, #4]
 8003948:	699b      	ldr	r3, [r3, #24]
 800394a:	2b00      	cmp	r3, #0
 800394c:	d019      	beq.n	8003982 <HAL_RCC_OscConfig+0x24a>
    {
      /* Enable the Internal Low Speed oscillator (LSI). */
      __HAL_RCC_LSI_ENABLE();
 800394e:	4b17      	ldr	r3, [pc, #92]	; (80039ac <HAL_RCC_OscConfig+0x274>)
 8003950:	2201      	movs	r2, #1
 8003952:	601a      	str	r2, [r3, #0]

      /* Get Start Tick */
      tickstart = HAL_GetTick();
 8003954:	f7fd fbfa 	bl	800114c <HAL_GetTick>
 8003958:	6138      	str	r0, [r7, #16]

      /* Wait till LSI is ready */
      while (__HAL_RCC_GET_FLAG(RCC_FLAG_LSIRDY) == RESET)
 800395a:	e008      	b.n	800396e <HAL_RCC_OscConfig+0x236>
      {
        if ((HAL_GetTick() - tickstart) > LSI_TIMEOUT_VALUE)
 800395c:	f7fd fbf6 	bl	800114c <HAL_GetTick>
 8003960:	4602      	mov	r2, r0
 8003962:	693b      	ldr	r3, [r7, #16]
 8003964:	1ad3      	subs	r3, r2, r3
 8003966:	2b02      	cmp	r3, #2
 8003968:	d901      	bls.n	800396e <HAL_RCC_OscConfig+0x236>
        {
          return HAL_TIMEOUT;
 800396a:	2303      	movs	r3, #3
 800396c:	e15a      	b.n	8003c24 <HAL_RCC_OscConfig+0x4ec>
      while (__HAL_RCC_GET_FLAG(RCC_FLAG_LSIRDY) == RESET)
 800396e:	4b0d      	ldr	r3, [pc, #52]	; (80039a4 <HAL_RCC_OscConfig+0x26c>)
 8003970:	6a5b      	ldr	r3, [r3, #36]	; 0x24
 8003972:	f003 0302 	and.w	r3, r3, #2
 8003976:	2b00      	cmp	r3, #0
 8003978:	d0f0      	beq.n	800395c <HAL_RCC_OscConfig+0x224>
        }
      }
      /*  To have a fully stabilized clock in the specified range, a software delay of 1ms
          should be added.*/
      RCC_Delay(1);
 800397a:	2001      	movs	r0, #1
 800397c:	f000 fb0a 	bl	8003f94 <RCC_Delay>
 8003980:	e01c      	b.n	80039bc <HAL_RCC_OscConfig+0x284>
    }
    else
    {
      /* Disable the Internal Low Speed oscillator (LSI). */
      __HAL_RCC_LSI_DISABLE();
 8003982:	4b0a      	ldr	r3, [pc, #40]	; (80039ac <HAL_RCC_OscConfig+0x274>)
 8003984:	2200      	movs	r2, #0
 8003986:	601a      	str	r2, [r3, #0]

      /* Get Start Tick */
      tickstart = HAL_GetTick();
 8003988:	f7fd fbe0 	bl	800114c <HAL_GetTick>
 800398c:	6138      	str	r0, [r7, #16]

      /* Wait till LSI is disabled */
      while (__HAL_RCC_GET_FLAG(RCC_FLAG_LSIRDY) != RESET)
 800398e:	e00f      	b.n	80039b0 <HAL_RCC_OscConfig+0x278>
      {
        if ((HAL_GetTick() - tickstart) > LSI_TIMEOUT_VALUE)
 8003990:	f7fd fbdc 	bl	800114c <HAL_GetTick>
 8003994:	4602      	mov	r2, r0
 8003996:	693b      	ldr	r3, [r7, #16]
 8003998:	1ad3      	subs	r3, r2, r3
 800399a:	2b02      	cmp	r3, #2
 800399c:	d908      	bls.n	80039b0 <HAL_RCC_OscConfig+0x278>
        {
          return HAL_TIMEOUT;
 800399e:	2303      	movs	r3, #3
 80039a0:	e140      	b.n	8003c24 <HAL_RCC_OscConfig+0x4ec>
 80039a2:	bf00      	nop
 80039a4:	40021000 	.word	0x40021000
 80039a8:	42420000 	.word	0x42420000
 80039ac:	42420480 	.word	0x42420480
      while (__HAL_RCC_GET_FLAG(RCC_FLAG_LSIRDY) != RESET)
 80039b0:	4b9e      	ldr	r3, [pc, #632]	; (8003c2c <HAL_RCC_OscConfig+0x4f4>)
 80039b2:	6a5b      	ldr	r3, [r3, #36]	; 0x24
 80039b4:	f003 0302 	and.w	r3, r3, #2
 80039b8:	2b00      	cmp	r3, #0
 80039ba:	d1e9      	bne.n	8003990 <HAL_RCC_OscConfig+0x258>
        }
      }
    }
  }
  /*------------------------------ LSE Configuration -------------------------*/
  if (((RCC_OscInitStruct->OscillatorType) & RCC_OSCILLATORTYPE_LSE) == RCC_OSCILLATORTYPE_LSE)
 80039bc:	687b      	ldr	r3, [r7, #4]
 80039be:	681b      	ldr	r3, [r3, #0]
 80039c0:	f003 0304 	and.w	r3, r3, #4
 80039c4:	2b00      	cmp	r3, #0
 80039c6:	f000 80a6 	beq.w	8003b16 <HAL_RCC_OscConfig+0x3de>
  {
    FlagStatus       pwrclkchanged = RESET;
 80039ca:	2300      	movs	r3, #0
 80039cc:	75fb      	strb	r3, [r7, #23]
    /* Check the parameters */
    assert_param(IS_RCC_LSE(RCC_OscInitStruct->LSEState));

    /* Update LSE configuration in Backup Domain control register    */
    /* Requires to enable write access to Backup Domain of necessary */
    if (__HAL_RCC_PWR_IS_CLK_DISABLED())
 80039ce:	4b97      	ldr	r3, [pc, #604]	; (8003c2c <HAL_RCC_OscConfig+0x4f4>)
 80039d0:	69db      	ldr	r3, [r3, #28]
 80039d2:	f003 5380 	and.w	r3, r3, #268435456	; 0x10000000
 80039d6:	2b00      	cmp	r3, #0
 80039d8:	d10d      	bne.n	80039f6 <HAL_RCC_OscConfig+0x2be>
    {
      __HAL_RCC_PWR_CLK_ENABLE();
 80039da:	4b94      	ldr	r3, [pc, #592]	; (8003c2c <HAL_RCC_OscConfig+0x4f4>)
 80039dc:	69db      	ldr	r3, [r3, #28]
 80039de:	4a93      	ldr	r2, [pc, #588]	; (8003c2c <HAL_RCC_OscConfig+0x4f4>)
 80039e0:	f043 5380 	orr.w	r3, r3, #268435456	; 0x10000000
 80039e4:	61d3      	str	r3, [r2, #28]
 80039e6:	4b91      	ldr	r3, [pc, #580]	; (8003c2c <HAL_RCC_OscConfig+0x4f4>)
 80039e8:	69db      	ldr	r3, [r3, #28]
 80039ea:	f003 5380 	and.w	r3, r3, #268435456	; 0x10000000
 80039ee:	60bb      	str	r3, [r7, #8]
 80039f0:	68bb      	ldr	r3, [r7, #8]
      pwrclkchanged = SET;
 80039f2:	2301      	movs	r3, #1
 80039f4:	75fb      	strb	r3, [r7, #23]
    }

    if (HAL_IS_BIT_CLR(PWR->CR, PWR_CR_DBP))
 80039f6:	4b8e      	ldr	r3, [pc, #568]	; (8003c30 <HAL_RCC_OscConfig+0x4f8>)
 80039f8:	681b      	ldr	r3, [r3, #0]
 80039fa:	f403 7380 	and.w	r3, r3, #256	; 0x100
 80039fe:	2b00      	cmp	r3, #0
 8003a00:	d118      	bne.n	8003a34 <HAL_RCC_OscConfig+0x2fc>
    {
      /* Enable write access to Backup domain */
      SET_BIT(PWR->CR, PWR_CR_DBP);
 8003a02:	4b8b      	ldr	r3, [pc, #556]	; (8003c30 <HAL_RCC_OscConfig+0x4f8>)
 8003a04:	681b      	ldr	r3, [r3, #0]
 8003a06:	4a8a      	ldr	r2, [pc, #552]	; (8003c30 <HAL_RCC_OscConfig+0x4f8>)
 8003a08:	f443 7380 	orr.w	r3, r3, #256	; 0x100
 8003a0c:	6013      	str	r3, [r2, #0]

      /* Wait for Backup domain Write protection disable */
      tickstart = HAL_GetTick();
 8003a0e:	f7fd fb9d 	bl	800114c <HAL_GetTick>
 8003a12:	6138      	str	r0, [r7, #16]

      while (HAL_IS_BIT_CLR(PWR->CR, PWR_CR_DBP))
 8003a14:	e008      	b.n	8003a28 <HAL_RCC_OscConfig+0x2f0>
      {
        if ((HAL_GetTick() - tickstart) > RCC_DBP_TIMEOUT_VALUE)
 8003a16:	f7fd fb99 	bl	800114c <HAL_GetTick>
 8003a1a:	4602      	mov	r2, r0
 8003a1c:	693b      	ldr	r3, [r7, #16]
 8003a1e:	1ad3      	subs	r3, r2, r3
 8003a20:	2b64      	cmp	r3, #100	; 0x64
 8003a22:	d901      	bls.n	8003a28 <HAL_RCC_OscConfig+0x2f0>
        {
          return HAL_TIMEOUT;
 8003a24:	2303      	movs	r3, #3
 8003a26:	e0fd      	b.n	8003c24 <HAL_RCC_OscConfig+0x4ec>
      while (HAL_IS_BIT_CLR(PWR->CR, PWR_CR_DBP))
 8003a28:	4b81      	ldr	r3, [pc, #516]	; (8003c30 <HAL_RCC_OscConfig+0x4f8>)
 8003a2a:	681b      	ldr	r3, [r3, #0]
 8003a2c:	f403 7380 	and.w	r3, r3, #256	; 0x100
 8003a30:	2b00      	cmp	r3, #0
 8003a32:	d0f0      	beq.n	8003a16 <HAL_RCC_OscConfig+0x2de>
        }
      }
    }

    /* Set the new LSE configuration -----------------------------------------*/
    __HAL_RCC_LSE_CONFIG(RCC_OscInitStruct->LSEState);
 8003a34:	687b      	ldr	r3, [r7, #4]
 8003a36:	68db      	ldr	r3, [r3, #12]
 8003a38:	2b01      	cmp	r3, #1
 8003a3a:	d106      	bne.n	8003a4a <HAL_RCC_OscConfig+0x312>
 8003a3c:	4b7b      	ldr	r3, [pc, #492]	; (8003c2c <HAL_RCC_OscConfig+0x4f4>)
 8003a3e:	6a1b      	ldr	r3, [r3, #32]
 8003a40:	4a7a      	ldr	r2, [pc, #488]	; (8003c2c <HAL_RCC_OscConfig+0x4f4>)
 8003a42:	f043 0301 	orr.w	r3, r3, #1
 8003a46:	6213      	str	r3, [r2, #32]
 8003a48:	e02d      	b.n	8003aa6 <HAL_RCC_OscConfig+0x36e>
 8003a4a:	687b      	ldr	r3, [r7, #4]
 8003a4c:	68db      	ldr	r3, [r3, #12]
 8003a4e:	2b00      	cmp	r3, #0
 8003a50:	d10c      	bne.n	8003a6c <HAL_RCC_OscConfig+0x334>
 8003a52:	4b76      	ldr	r3, [pc, #472]	; (8003c2c <HAL_RCC_OscConfig+0x4f4>)
 8003a54:	6a1b      	ldr	r3, [r3, #32]
 8003a56:	4a75      	ldr	r2, [pc, #468]	; (8003c2c <HAL_RCC_OscConfig+0x4f4>)
 8003a58:	f023 0301 	bic.w	r3, r3, #1
 8003a5c:	6213      	str	r3, [r2, #32]
 8003a5e:	4b73      	ldr	r3, [pc, #460]	; (8003c2c <HAL_RCC_OscConfig+0x4f4>)
 8003a60:	6a1b      	ldr	r3, [r3, #32]
 8003a62:	4a72      	ldr	r2, [pc, #456]	; (8003c2c <HAL_RCC_OscConfig+0x4f4>)
 8003a64:	f023 0304 	bic.w	r3, r3, #4
 8003a68:	6213      	str	r3, [r2, #32]
 8003a6a:	e01c      	b.n	8003aa6 <HAL_RCC_OscConfig+0x36e>
 8003a6c:	687b      	ldr	r3, [r7, #4]
 8003a6e:	68db      	ldr	r3, [r3, #12]
 8003a70:	2b05      	cmp	r3, #5
 8003a72:	d10c      	bne.n	8003a8e <HAL_RCC_OscConfig+0x356>
 8003a74:	4b6d      	ldr	r3, [pc, #436]	; (8003c2c <HAL_RCC_OscConfig+0x4f4>)
 8003a76:	6a1b      	ldr	r3, [r3, #32]
 8003a78:	4a6c      	ldr	r2, [pc, #432]	; (8003c2c <HAL_RCC_OscConfig+0x4f4>)
 8003a7a:	f043 0304 	orr.w	r3, r3, #4
 8003a7e:	6213      	str	r3, [r2, #32]
 8003a80:	4b6a      	ldr	r3, [pc, #424]	; (8003c2c <HAL_RCC_OscConfig+0x4f4>)
 8003a82:	6a1b      	ldr	r3, [r3, #32]
 8003a84:	4a69      	ldr	r2, [pc, #420]	; (8003c2c <HAL_RCC_OscConfig+0x4f4>)
 8003a86:	f043 0301 	orr.w	r3, r3, #1
 8003a8a:	6213      	str	r3, [r2, #32]
 8003a8c:	e00b      	b.n	8003aa6 <HAL_RCC_OscConfig+0x36e>
 8003a8e:	4b67      	ldr	r3, [pc, #412]	; (8003c2c <HAL_RCC_OscConfig+0x4f4>)
 8003a90:	6a1b      	ldr	r3, [r3, #32]
 8003a92:	4a66      	ldr	r2, [pc, #408]	; (8003c2c <HAL_RCC_OscConfig+0x4f4>)
 8003a94:	f023 0301 	bic.w	r3, r3, #1
 8003a98:	6213      	str	r3, [r2, #32]
 8003a9a:	4b64      	ldr	r3, [pc, #400]	; (8003c2c <HAL_RCC_OscConfig+0x4f4>)
 8003a9c:	6a1b      	ldr	r3, [r3, #32]
 8003a9e:	4a63      	ldr	r2, [pc, #396]	; (8003c2c <HAL_RCC_OscConfig+0x4f4>)
 8003aa0:	f023 0304 	bic.w	r3, r3, #4
 8003aa4:	6213      	str	r3, [r2, #32]
    /* Check the LSE State */
    if (RCC_OscInitStruct->LSEState != RCC_LSE_OFF)
 8003aa6:	687b      	ldr	r3, [r7, #4]
 8003aa8:	68db      	ldr	r3, [r3, #12]
 8003aaa:	2b00      	cmp	r3, #0
 8003aac:	d015      	beq.n	8003ada <HAL_RCC_OscConfig+0x3a2>
    {
      /* Get Start Tick */
      tickstart = HAL_GetTick();
 8003aae:	f7fd fb4d 	bl	800114c <HAL_GetTick>
 8003ab2:	6138      	str	r0, [r7, #16]

      /* Wait till LSE is ready */
      while (__HAL_RCC_GET_FLAG(RCC_FLAG_LSERDY) == RESET)
 8003ab4:	e00a      	b.n	8003acc <HAL_RCC_OscConfig+0x394>
      {
        if ((HAL_GetTick() - tickstart) > RCC_LSE_TIMEOUT_VALUE)
 8003ab6:	f7fd fb49 	bl	800114c <HAL_GetTick>
 8003aba:	4602      	mov	r2, r0
 8003abc:	693b      	ldr	r3, [r7, #16]
 8003abe:	1ad3      	subs	r3, r2, r3
 8003ac0:	f241 3288 	movw	r2, #5000	; 0x1388
 8003ac4:	4293      	cmp	r3, r2
 8003ac6:	d901      	bls.n	8003acc <HAL_RCC_OscConfig+0x394>
        {
          return HAL_TIMEOUT;
 8003ac8:	2303      	movs	r3, #3
 8003aca:	e0ab      	b.n	8003c24 <HAL_RCC_OscConfig+0x4ec>
      while (__HAL_RCC_GET_FLAG(RCC_FLAG_LSERDY) == RESET)
 8003acc:	4b57      	ldr	r3, [pc, #348]	; (8003c2c <HAL_RCC_OscConfig+0x4f4>)
 8003ace:	6a1b      	ldr	r3, [r3, #32]
 8003ad0:	f003 0302 	and.w	r3, r3, #2
 8003ad4:	2b00      	cmp	r3, #0
 8003ad6:	d0ee      	beq.n	8003ab6 <HAL_RCC_OscConfig+0x37e>
 8003ad8:	e014      	b.n	8003b04 <HAL_RCC_OscConfig+0x3cc>
      }
    }
    else
    {
      /* Get Start Tick */
      tickstart = HAL_GetTick();
 8003ada:	f7fd fb37 	bl	800114c <HAL_GetTick>
 8003ade:	6138      	str	r0, [r7, #16]

      /* Wait till LSE is disabled */
      while (__HAL_RCC_GET_FLAG(RCC_FLAG_LSERDY) != RESET)
 8003ae0:	e00a      	b.n	8003af8 <HAL_RCC_OscConfig+0x3c0>
      {
        if ((HAL_GetTick() - tickstart) > RCC_LSE_TIMEOUT_VALUE)
 8003ae2:	f7fd fb33 	bl	800114c <HAL_GetTick>
 8003ae6:	4602      	mov	r2, r0
 8003ae8:	693b      	ldr	r3, [r7, #16]
 8003aea:	1ad3      	subs	r3, r2, r3
 8003aec:	f241 3288 	movw	r2, #5000	; 0x1388
 8003af0:	4293      	cmp	r3, r2
 8003af2:	d901      	bls.n	8003af8 <HAL_RCC_OscConfig+0x3c0>
        {
          return HAL_TIMEOUT;
 8003af4:	2303      	movs	r3, #3
 8003af6:	e095      	b.n	8003c24 <HAL_RCC_OscConfig+0x4ec>
      while (__HAL_RCC_GET_FLAG(RCC_FLAG_LSERDY) != RESET)
 8003af8:	4b4c      	ldr	r3, [pc, #304]	; (8003c2c <HAL_RCC_OscConfig+0x4f4>)
 8003afa:	6a1b      	ldr	r3, [r3, #32]
 8003afc:	f003 0302 	and.w	r3, r3, #2
 8003b00:	2b00      	cmp	r3, #0
 8003b02:	d1ee      	bne.n	8003ae2 <HAL_RCC_OscConfig+0x3aa>
        }
      }
    }

    /* Require to disable power clock if necessary */
    if (pwrclkchanged == SET)
 8003b04:	7dfb      	ldrb	r3, [r7, #23]
 8003b06:	2b01      	cmp	r3, #1
 8003b08:	d105      	bne.n	8003b16 <HAL_RCC_OscConfig+0x3de>
    {
      __HAL_RCC_PWR_CLK_DISABLE();
 8003b0a:	4b48      	ldr	r3, [pc, #288]	; (8003c2c <HAL_RCC_OscConfig+0x4f4>)
 8003b0c:	69db      	ldr	r3, [r3, #28]
 8003b0e:	4a47      	ldr	r2, [pc, #284]	; (8003c2c <HAL_RCC_OscConfig+0x4f4>)
 8003b10:	f023 5380 	bic.w	r3, r3, #268435456	; 0x10000000
 8003b14:	61d3      	str	r3, [r2, #28]

#endif /* RCC_CR_PLL2ON */
  /*-------------------------------- PLL Configuration -----------------------*/
  /* Check the parameters */
  assert_param(IS_RCC_PLL(RCC_OscInitStruct->PLL.PLLState));
  if ((RCC_OscInitStruct->PLL.PLLState) != RCC_PLL_NONE)
 8003b16:	687b      	ldr	r3, [r7, #4]
 8003b18:	69db      	ldr	r3, [r3, #28]
 8003b1a:	2b00      	cmp	r3, #0
 8003b1c:	f000 8081 	beq.w	8003c22 <HAL_RCC_OscConfig+0x4ea>
  {
    /* Check if the PLL is used as system clock or not */
    if (__HAL_RCC_GET_SYSCLK_SOURCE() != RCC_SYSCLKSOURCE_STATUS_PLLCLK)
 8003b20:	4b42      	ldr	r3, [pc, #264]	; (8003c2c <HAL_RCC_OscConfig+0x4f4>)
 8003b22:	685b      	ldr	r3, [r3, #4]
 8003b24:	f003 030c 	and.w	r3, r3, #12
 8003b28:	2b08      	cmp	r3, #8
 8003b2a:	d061      	beq.n	8003bf0 <HAL_RCC_OscConfig+0x4b8>
    {
      if ((RCC_OscInitStruct->PLL.PLLState) == RCC_PLL_ON)
 8003b2c:	687b      	ldr	r3, [r7, #4]
 8003b2e:	69db      	ldr	r3, [r3, #28]
 8003b30:	2b02      	cmp	r3, #2
 8003b32:	d146      	bne.n	8003bc2 <HAL_RCC_OscConfig+0x48a>
        /* Check the parameters */
        assert_param(IS_RCC_PLLSOURCE(RCC_OscInitStruct->PLL.PLLSource));
        assert_param(IS_RCC_PLL_MUL(RCC_OscInitStruct->PLL.PLLMUL));

        /* Disable the main PLL. */
        __HAL_RCC_PLL_DISABLE();
 8003b34:	4b3f      	ldr	r3, [pc, #252]	; (8003c34 <HAL_RCC_OscConfig+0x4fc>)
 8003b36:	2200      	movs	r2, #0
 8003b38:	601a      	str	r2, [r3, #0]

        /* Get Start Tick */
        tickstart = HAL_GetTick();
 8003b3a:	f7fd fb07 	bl	800114c <HAL_GetTick>
 8003b3e:	6138      	str	r0, [r7, #16]

        /* Wait till PLL is disabled */
        while (__HAL_RCC_GET_FLAG(RCC_FLAG_PLLRDY)  != RESET)
 8003b40:	e008      	b.n	8003b54 <HAL_RCC_OscConfig+0x41c>
        {
          if ((HAL_GetTick() - tickstart) > PLL_TIMEOUT_VALUE)
 8003b42:	f7fd fb03 	bl	800114c <HAL_GetTick>
 8003b46:	4602      	mov	r2, r0
 8003b48:	693b      	ldr	r3, [r7, #16]
 8003b4a:	1ad3      	subs	r3, r2, r3
 8003b4c:	2b02      	cmp	r3, #2
 8003b4e:	d901      	bls.n	8003b54 <HAL_RCC_OscConfig+0x41c>
          {
            return HAL_TIMEOUT;
 8003b50:	2303      	movs	r3, #3
 8003b52:	e067      	b.n	8003c24 <HAL_RCC_OscConfig+0x4ec>
        while (__HAL_RCC_GET_FLAG(RCC_FLAG_PLLRDY)  != RESET)
 8003b54:	4b35      	ldr	r3, [pc, #212]	; (8003c2c <HAL_RCC_OscConfig+0x4f4>)
 8003b56:	681b      	ldr	r3, [r3, #0]
 8003b58:	f003 7300 	and.w	r3, r3, #33554432	; 0x2000000
 8003b5c:	2b00      	cmp	r3, #0
 8003b5e:	d1f0      	bne.n	8003b42 <HAL_RCC_OscConfig+0x40a>
          }
        }

        /* Configure the HSE prediv factor --------------------------------*/
        /* It can be written only when the PLL is disabled. Not used in PLL source is different than HSE */
        if (RCC_OscInitStruct->PLL.PLLSource == RCC_PLLSOURCE_HSE)
 8003b60:	687b      	ldr	r3, [r7, #4]
 8003b62:	6a1b      	ldr	r3, [r3, #32]
 8003b64:	f5b3 3f80 	cmp.w	r3, #65536	; 0x10000
 8003b68:	d108      	bne.n	8003b7c <HAL_RCC_OscConfig+0x444>
          /* Set PREDIV1 source */
          SET_BIT(RCC->CFGR2, RCC_OscInitStruct->Prediv1Source);
#endif /* RCC_CFGR2_PREDIV1SRC */

          /* Set PREDIV1 Value */
          __HAL_RCC_HSE_PREDIV_CONFIG(RCC_OscInitStruct->HSEPredivValue);
 8003b6a:	4b30      	ldr	r3, [pc, #192]	; (8003c2c <HAL_RCC_OscConfig+0x4f4>)
 8003b6c:	685b      	ldr	r3, [r3, #4]
 8003b6e:	f423 3200 	bic.w	r2, r3, #131072	; 0x20000
 8003b72:	687b      	ldr	r3, [r7, #4]
 8003b74:	689b      	ldr	r3, [r3, #8]
 8003b76:	492d      	ldr	r1, [pc, #180]	; (8003c2c <HAL_RCC_OscConfig+0x4f4>)
 8003b78:	4313      	orrs	r3, r2
 8003b7a:	604b      	str	r3, [r1, #4]
        }

        /* Configure the main PLL clock source and multiplication factors. */
        __HAL_RCC_PLL_CONFIG(RCC_OscInitStruct->PLL.PLLSource,
 8003b7c:	4b2b      	ldr	r3, [pc, #172]	; (8003c2c <HAL_RCC_OscConfig+0x4f4>)
 8003b7e:	685b      	ldr	r3, [r3, #4]
 8003b80:	f423 1274 	bic.w	r2, r3, #3997696	; 0x3d0000
 8003b84:	687b      	ldr	r3, [r7, #4]
 8003b86:	6a19      	ldr	r1, [r3, #32]
 8003b88:	687b      	ldr	r3, [r7, #4]
 8003b8a:	6a5b      	ldr	r3, [r3, #36]	; 0x24
 8003b8c:	430b      	orrs	r3, r1
 8003b8e:	4927      	ldr	r1, [pc, #156]	; (8003c2c <HAL_RCC_OscConfig+0x4f4>)
 8003b90:	4313      	orrs	r3, r2
 8003b92:	604b      	str	r3, [r1, #4]
                             RCC_OscInitStruct->PLL.PLLMUL);
        /* Enable the main PLL. */
        __HAL_RCC_PLL_ENABLE();
 8003b94:	4b27      	ldr	r3, [pc, #156]	; (8003c34 <HAL_RCC_OscConfig+0x4fc>)
 8003b96:	2201      	movs	r2, #1
 8003b98:	601a      	str	r2, [r3, #0]

        /* Get Start Tick */
        tickstart = HAL_GetTick();
 8003b9a:	f7fd fad7 	bl	800114c <HAL_GetTick>
 8003b9e:	6138      	str	r0, [r7, #16]

        /* Wait till PLL is ready */
        while (__HAL_RCC_GET_FLAG(RCC_FLAG_PLLRDY)  == RESET)
 8003ba0:	e008      	b.n	8003bb4 <HAL_RCC_OscConfig+0x47c>
        {
          if ((HAL_GetTick() - tickstart) > PLL_TIMEOUT_VALUE)
 8003ba2:	f7fd fad3 	bl	800114c <HAL_GetTick>
 8003ba6:	4602      	mov	r2, r0
 8003ba8:	693b      	ldr	r3, [r7, #16]
 8003baa:	1ad3      	subs	r3, r2, r3
 8003bac:	2b02      	cmp	r3, #2
 8003bae:	d901      	bls.n	8003bb4 <HAL_RCC_OscConfig+0x47c>
          {
            return HAL_TIMEOUT;
 8003bb0:	2303      	movs	r3, #3
 8003bb2:	e037      	b.n	8003c24 <HAL_RCC_OscConfig+0x4ec>
        while (__HAL_RCC_GET_FLAG(RCC_FLAG_PLLRDY)  == RESET)
 8003bb4:	4b1d      	ldr	r3, [pc, #116]	; (8003c2c <HAL_RCC_OscConfig+0x4f4>)
 8003bb6:	681b      	ldr	r3, [r3, #0]
 8003bb8:	f003 7300 	and.w	r3, r3, #33554432	; 0x2000000
 8003bbc:	2b00      	cmp	r3, #0
 8003bbe:	d0f0      	beq.n	8003ba2 <HAL_RCC_OscConfig+0x46a>
 8003bc0:	e02f      	b.n	8003c22 <HAL_RCC_OscConfig+0x4ea>
        }
      }
      else
      {
        /* Disable the main PLL. */
        __HAL_RCC_PLL_DISABLE();
 8003bc2:	4b1c      	ldr	r3, [pc, #112]	; (8003c34 <HAL_RCC_OscConfig+0x4fc>)
 8003bc4:	2200      	movs	r2, #0
 8003bc6:	601a      	str	r2, [r3, #0]

        /* Get Start Tick */
        tickstart = HAL_GetTick();
 8003bc8:	f7fd fac0 	bl	800114c <HAL_GetTick>
 8003bcc:	6138      	str	r0, [r7, #16]

        /* Wait till PLL is disabled */
        while (__HAL_RCC_GET_FLAG(RCC_FLAG_PLLRDY)  != RESET)
 8003bce:	e008      	b.n	8003be2 <HAL_RCC_OscConfig+0x4aa>
        {
          if ((HAL_GetTick() - tickstart) > PLL_TIMEOUT_VALUE)
 8003bd0:	f7fd fabc 	bl	800114c <HAL_GetTick>
 8003bd4:	4602      	mov	r2, r0
 8003bd6:	693b      	ldr	r3, [r7, #16]
 8003bd8:	1ad3      	subs	r3, r2, r3
 8003bda:	2b02      	cmp	r3, #2
 8003bdc:	d901      	bls.n	8003be2 <HAL_RCC_OscConfig+0x4aa>
          {
            return HAL_TIMEOUT;
 8003bde:	2303      	movs	r3, #3
 8003be0:	e020      	b.n	8003c24 <HAL_RCC_OscConfig+0x4ec>
        while (__HAL_RCC_GET_FLAG(RCC_FLAG_PLLRDY)  != RESET)
 8003be2:	4b12      	ldr	r3, [pc, #72]	; (8003c2c <HAL_RCC_OscConfig+0x4f4>)
 8003be4:	681b      	ldr	r3, [r3, #0]
 8003be6:	f003 7300 	and.w	r3, r3, #33554432	; 0x2000000
 8003bea:	2b00      	cmp	r3, #0
 8003bec:	d1f0      	bne.n	8003bd0 <HAL_RCC_OscConfig+0x498>
 8003bee:	e018      	b.n	8003c22 <HAL_RCC_OscConfig+0x4ea>
      }
    }
    else
    {
      /* Check if there is a request to disable the PLL used as System clock source */
      if ((RCC_OscInitStruct->PLL.PLLState) == RCC_PLL_OFF)
 8003bf0:	687b      	ldr	r3, [r7, #4]
 8003bf2:	69db      	ldr	r3, [r3, #28]
 8003bf4:	2b01      	cmp	r3, #1
 8003bf6:	d101      	bne.n	8003bfc <HAL_RCC_OscConfig+0x4c4>
      {
        return HAL_ERROR;
 8003bf8:	2301      	movs	r3, #1
 8003bfa:	e013      	b.n	8003c24 <HAL_RCC_OscConfig+0x4ec>
      }
      else
      {
        /* Do not return HAL_ERROR if request repeats the current configuration */
        pll_config = RCC->CFGR;
 8003bfc:	4b0b      	ldr	r3, [pc, #44]	; (8003c2c <HAL_RCC_OscConfig+0x4f4>)
 8003bfe:	685b      	ldr	r3, [r3, #4]
 8003c00:	60fb      	str	r3, [r7, #12]
        if ((READ_BIT(pll_config, RCC_CFGR_PLLSRC) != RCC_OscInitStruct->PLL.PLLSource) ||
 8003c02:	68fb      	ldr	r3, [r7, #12]
 8003c04:	f403 3280 	and.w	r2, r3, #65536	; 0x10000
 8003c08:	687b      	ldr	r3, [r7, #4]
 8003c0a:	6a1b      	ldr	r3, [r3, #32]
 8003c0c:	429a      	cmp	r2, r3
 8003c0e:	d106      	bne.n	8003c1e <HAL_RCC_OscConfig+0x4e6>
            (READ_BIT(pll_config, RCC_CFGR_PLLMULL) != RCC_OscInitStruct->PLL.PLLMUL))
 8003c10:	68fb      	ldr	r3, [r7, #12]
 8003c12:	f403 1270 	and.w	r2, r3, #3932160	; 0x3c0000
 8003c16:	687b      	ldr	r3, [r7, #4]
 8003c18:	6a5b      	ldr	r3, [r3, #36]	; 0x24
        if ((READ_BIT(pll_config, RCC_CFGR_PLLSRC) != RCC_OscInitStruct->PLL.PLLSource) ||
 8003c1a:	429a      	cmp	r2, r3
 8003c1c:	d001      	beq.n	8003c22 <HAL_RCC_OscConfig+0x4ea>
        {
          return HAL_ERROR;
 8003c1e:	2301      	movs	r3, #1
 8003c20:	e000      	b.n	8003c24 <HAL_RCC_OscConfig+0x4ec>
        }
      }
    }
  }

  return HAL_OK;
 8003c22:	2300      	movs	r3, #0
}
 8003c24:	4618      	mov	r0, r3
 8003c26:	3718      	adds	r7, #24
 8003c28:	46bd      	mov	sp, r7
 8003c2a:	bd80      	pop	{r7, pc}
 8003c2c:	40021000 	.word	0x40021000
 8003c30:	40007000 	.word	0x40007000
 8003c34:	42420060 	.word	0x42420060

08003c38 <HAL_RCC_ClockConfig>:
  *         You can use @ref HAL_RCC_GetClockConfig() function to know which clock is
  *         currently used as system clock source.
  * @retval HAL status
  */
HAL_StatusTypeDef HAL_RCC_ClockConfig(RCC_ClkInitTypeDef  *RCC_ClkInitStruct, uint32_t FLatency)
{
 8003c38:	b580      	push	{r7, lr}
 8003c3a:	b084      	sub	sp, #16
 8003c3c:	af00      	add	r7, sp, #0
 8003c3e:	6078      	str	r0, [r7, #4]
 8003c40:	6039      	str	r1, [r7, #0]
  uint32_t tickstart;

  /* Check Null pointer */
  if (RCC_ClkInitStruct == NULL)
 8003c42:	687b      	ldr	r3, [r7, #4]
 8003c44:	2b00      	cmp	r3, #0
 8003c46:	d101      	bne.n	8003c4c <HAL_RCC_ClockConfig+0x14>
  {
    return HAL_ERROR;
 8003c48:	2301      	movs	r3, #1
 8003c4a:	e0d0      	b.n	8003dee <HAL_RCC_ClockConfig+0x1b6>
  must be correctly programmed according to the frequency of the CPU clock
    (HCLK) of the device. */

#if defined(FLASH_ACR_LATENCY)
  /* Increasing the number of wait states because of higher CPU frequency */
  if (FLatency > __HAL_FLASH_GET_LATENCY())
 8003c4c:	4b6a      	ldr	r3, [pc, #424]	; (8003df8 <HAL_RCC_ClockConfig+0x1c0>)
 8003c4e:	681b      	ldr	r3, [r3, #0]
 8003c50:	f003 0307 	and.w	r3, r3, #7
 8003c54:	683a      	ldr	r2, [r7, #0]
 8003c56:	429a      	cmp	r2, r3
 8003c58:	d910      	bls.n	8003c7c <HAL_RCC_ClockConfig+0x44>
  {
    /* Program the new number of wait states to the LATENCY bits in the FLASH_ACR register */
    __HAL_FLASH_SET_LATENCY(FLatency);
 8003c5a:	4b67      	ldr	r3, [pc, #412]	; (8003df8 <HAL_RCC_ClockConfig+0x1c0>)
 8003c5c:	681b      	ldr	r3, [r3, #0]
 8003c5e:	f023 0207 	bic.w	r2, r3, #7
 8003c62:	4965      	ldr	r1, [pc, #404]	; (8003df8 <HAL_RCC_ClockConfig+0x1c0>)
 8003c64:	683b      	ldr	r3, [r7, #0]
 8003c66:	4313      	orrs	r3, r2
 8003c68:	600b      	str	r3, [r1, #0]

    /* Check that the new number of wait states is taken into account to access the Flash
    memory by reading the FLASH_ACR register */
    if (__HAL_FLASH_GET_LATENCY() != FLatency)
 8003c6a:	4b63      	ldr	r3, [pc, #396]	; (8003df8 <HAL_RCC_ClockConfig+0x1c0>)
 8003c6c:	681b      	ldr	r3, [r3, #0]
 8003c6e:	f003 0307 	and.w	r3, r3, #7
 8003c72:	683a      	ldr	r2, [r7, #0]
 8003c74:	429a      	cmp	r2, r3
 8003c76:	d001      	beq.n	8003c7c <HAL_RCC_ClockConfig+0x44>
  {
    return HAL_ERROR;
 8003c78:	2301      	movs	r3, #1
 8003c7a:	e0b8      	b.n	8003dee <HAL_RCC_ClockConfig+0x1b6>
  }
}

#endif /* FLASH_ACR_LATENCY */
/*-------------------------- HCLK Configuration --------------------------*/
if (((RCC_ClkInitStruct->ClockType) & RCC_CLOCKTYPE_HCLK) == RCC_CLOCKTYPE_HCLK)
 8003c7c:	687b      	ldr	r3, [r7, #4]
 8003c7e:	681b      	ldr	r3, [r3, #0]
 8003c80:	f003 0302 	and.w	r3, r3, #2
 8003c84:	2b00      	cmp	r3, #0
 8003c86:	d020      	beq.n	8003cca <HAL_RCC_ClockConfig+0x92>
  {
    /* Set the highest APBx dividers in order to ensure that we do not go through
    a non-spec phase whatever we decrease or increase HCLK. */
    if (((RCC_ClkInitStruct->ClockType) & RCC_CLOCKTYPE_PCLK1) == RCC_CLOCKTYPE_PCLK1)
 8003c88:	687b      	ldr	r3, [r7, #4]
 8003c8a:	681b      	ldr	r3, [r3, #0]
 8003c8c:	f003 0304 	and.w	r3, r3, #4
 8003c90:	2b00      	cmp	r3, #0
 8003c92:	d005      	beq.n	8003ca0 <HAL_RCC_ClockConfig+0x68>
    {
      MODIFY_REG(RCC->CFGR, RCC_CFGR_PPRE1, RCC_HCLK_DIV16);
 8003c94:	4b59      	ldr	r3, [pc, #356]	; (8003dfc <HAL_RCC_ClockConfig+0x1c4>)
 8003c96:	685b      	ldr	r3, [r3, #4]
 8003c98:	4a58      	ldr	r2, [pc, #352]	; (8003dfc <HAL_RCC_ClockConfig+0x1c4>)
 8003c9a:	f443 63e0 	orr.w	r3, r3, #1792	; 0x700
 8003c9e:	6053      	str	r3, [r2, #4]
    }

    if (((RCC_ClkInitStruct->ClockType) & RCC_CLOCKTYPE_PCLK2) == RCC_CLOCKTYPE_PCLK2)
 8003ca0:	687b      	ldr	r3, [r7, #4]
 8003ca2:	681b      	ldr	r3, [r3, #0]
 8003ca4:	f003 0308 	and.w	r3, r3, #8
 8003ca8:	2b00      	cmp	r3, #0
 8003caa:	d005      	beq.n	8003cb8 <HAL_RCC_ClockConfig+0x80>
    {
      MODIFY_REG(RCC->CFGR, RCC_CFGR_PPRE2, (RCC_HCLK_DIV16 << 3));
 8003cac:	4b53      	ldr	r3, [pc, #332]	; (8003dfc <HAL_RCC_ClockConfig+0x1c4>)
 8003cae:	685b      	ldr	r3, [r3, #4]
 8003cb0:	4a52      	ldr	r2, [pc, #328]	; (8003dfc <HAL_RCC_ClockConfig+0x1c4>)
 8003cb2:	f443 5360 	orr.w	r3, r3, #14336	; 0x3800
 8003cb6:	6053      	str	r3, [r2, #4]
    }

    /* Set the new HCLK clock divider */
    assert_param(IS_RCC_HCLK(RCC_ClkInitStruct->AHBCLKDivider));
    MODIFY_REG(RCC->CFGR, RCC_CFGR_HPRE, RCC_ClkInitStruct->AHBCLKDivider);
 8003cb8:	4b50      	ldr	r3, [pc, #320]	; (8003dfc <HAL_RCC_ClockConfig+0x1c4>)
 8003cba:	685b      	ldr	r3, [r3, #4]
 8003cbc:	f023 02f0 	bic.w	r2, r3, #240	; 0xf0
 8003cc0:	687b      	ldr	r3, [r7, #4]
 8003cc2:	689b      	ldr	r3, [r3, #8]
 8003cc4:	494d      	ldr	r1, [pc, #308]	; (8003dfc <HAL_RCC_ClockConfig+0x1c4>)
 8003cc6:	4313      	orrs	r3, r2
 8003cc8:	604b      	str	r3, [r1, #4]
  }

  /*------------------------- SYSCLK Configuration ---------------------------*/
  if (((RCC_ClkInitStruct->ClockType) & RCC_CLOCKTYPE_SYSCLK) == RCC_CLOCKTYPE_SYSCLK)
 8003cca:	687b      	ldr	r3, [r7, #4]
 8003ccc:	681b      	ldr	r3, [r3, #0]
 8003cce:	f003 0301 	and.w	r3, r3, #1
 8003cd2:	2b00      	cmp	r3, #0
 8003cd4:	d040      	beq.n	8003d58 <HAL_RCC_ClockConfig+0x120>
  {
    assert_param(IS_RCC_SYSCLKSOURCE(RCC_ClkInitStruct->SYSCLKSource));

    /* HSE is selected as System Clock Source */
    if (RCC_ClkInitStruct->SYSCLKSource == RCC_SYSCLKSOURCE_HSE)
 8003cd6:	687b      	ldr	r3, [r7, #4]
 8003cd8:	685b      	ldr	r3, [r3, #4]
 8003cda:	2b01      	cmp	r3, #1
 8003cdc:	d107      	bne.n	8003cee <HAL_RCC_ClockConfig+0xb6>
    {
      /* Check the HSE ready flag */
      if (__HAL_RCC_GET_FLAG(RCC_FLAG_HSERDY) == RESET)
 8003cde:	4b47      	ldr	r3, [pc, #284]	; (8003dfc <HAL_RCC_ClockConfig+0x1c4>)
 8003ce0:	681b      	ldr	r3, [r3, #0]
 8003ce2:	f403 3300 	and.w	r3, r3, #131072	; 0x20000
 8003ce6:	2b00      	cmp	r3, #0
 8003ce8:	d115      	bne.n	8003d16 <HAL_RCC_ClockConfig+0xde>
      {
        return HAL_ERROR;
 8003cea:	2301      	movs	r3, #1
 8003cec:	e07f      	b.n	8003dee <HAL_RCC_ClockConfig+0x1b6>
      }
    }
    /* PLL is selected as System Clock Source */
    else if (RCC_ClkInitStruct->SYSCLKSource == RCC_SYSCLKSOURCE_PLLCLK)
 8003cee:	687b      	ldr	r3, [r7, #4]
 8003cf0:	685b      	ldr	r3, [r3, #4]
 8003cf2:	2b02      	cmp	r3, #2
 8003cf4:	d107      	bne.n	8003d06 <HAL_RCC_ClockConfig+0xce>
    {
      /* Check the PLL ready flag */
      if (__HAL_RCC_GET_FLAG(RCC_FLAG_PLLRDY) == RESET)
 8003cf6:	4b41      	ldr	r3, [pc, #260]	; (8003dfc <HAL_RCC_ClockConfig+0x1c4>)
 8003cf8:	681b      	ldr	r3, [r3, #0]
 8003cfa:	f003 7300 	and.w	r3, r3, #33554432	; 0x2000000
 8003cfe:	2b00      	cmp	r3, #0
 8003d00:	d109      	bne.n	8003d16 <HAL_RCC_ClockConfig+0xde>
      {
        return HAL_ERROR;
 8003d02:	2301      	movs	r3, #1
 8003d04:	e073      	b.n	8003dee <HAL_RCC_ClockConfig+0x1b6>
    }
    /* HSI is selected as System Clock Source */
    else
    {
      /* Check the HSI ready flag */
      if (__HAL_RCC_GET_FLAG(RCC_FLAG_HSIRDY) == RESET)
 8003d06:	4b3d      	ldr	r3, [pc, #244]	; (8003dfc <HAL_RCC_ClockConfig+0x1c4>)
 8003d08:	681b      	ldr	r3, [r3, #0]
 8003d0a:	f003 0302 	and.w	r3, r3, #2
 8003d0e:	2b00      	cmp	r3, #0
 8003d10:	d101      	bne.n	8003d16 <HAL_RCC_ClockConfig+0xde>
      {
        return HAL_ERROR;
 8003d12:	2301      	movs	r3, #1
 8003d14:	e06b      	b.n	8003dee <HAL_RCC_ClockConfig+0x1b6>
      }
    }
    __HAL_RCC_SYSCLK_CONFIG(RCC_ClkInitStruct->SYSCLKSource);
 8003d16:	4b39      	ldr	r3, [pc, #228]	; (8003dfc <HAL_RCC_ClockConfig+0x1c4>)
 8003d18:	685b      	ldr	r3, [r3, #4]
 8003d1a:	f023 0203 	bic.w	r2, r3, #3
 8003d1e:	687b      	ldr	r3, [r7, #4]
 8003d20:	685b      	ldr	r3, [r3, #4]
 8003d22:	4936      	ldr	r1, [pc, #216]	; (8003dfc <HAL_RCC_ClockConfig+0x1c4>)
 8003d24:	4313      	orrs	r3, r2
 8003d26:	604b      	str	r3, [r1, #4]

    /* Get Start Tick */
    tickstart = HAL_GetTick();
 8003d28:	f7fd fa10 	bl	800114c <HAL_GetTick>
 8003d2c:	60f8      	str	r0, [r7, #12]

    while (__HAL_RCC_GET_SYSCLK_SOURCE() != (RCC_ClkInitStruct->SYSCLKSource << RCC_CFGR_SWS_Pos))
 8003d2e:	e00a      	b.n	8003d46 <HAL_RCC_ClockConfig+0x10e>
    {
      if ((HAL_GetTick() - tickstart) > CLOCKSWITCH_TIMEOUT_VALUE)
 8003d30:	f7fd fa0c 	bl	800114c <HAL_GetTick>
 8003d34:	4602      	mov	r2, r0
 8003d36:	68fb      	ldr	r3, [r7, #12]
 8003d38:	1ad3      	subs	r3, r2, r3
 8003d3a:	f241 3288 	movw	r2, #5000	; 0x1388
 8003d3e:	4293      	cmp	r3, r2
 8003d40:	d901      	bls.n	8003d46 <HAL_RCC_ClockConfig+0x10e>
      {
        return HAL_TIMEOUT;
 8003d42:	2303      	movs	r3, #3
 8003d44:	e053      	b.n	8003dee <HAL_RCC_ClockConfig+0x1b6>
    while (__HAL_RCC_GET_SYSCLK_SOURCE() != (RCC_ClkInitStruct->SYSCLKSource << RCC_CFGR_SWS_Pos))
 8003d46:	4b2d      	ldr	r3, [pc, #180]	; (8003dfc <HAL_RCC_ClockConfig+0x1c4>)
 8003d48:	685b      	ldr	r3, [r3, #4]
 8003d4a:	f003 020c 	and.w	r2, r3, #12
 8003d4e:	687b      	ldr	r3, [r7, #4]
 8003d50:	685b      	ldr	r3, [r3, #4]
 8003d52:	009b      	lsls	r3, r3, #2
 8003d54:	429a      	cmp	r2, r3
 8003d56:	d1eb      	bne.n	8003d30 <HAL_RCC_ClockConfig+0xf8>
    }
  }

#if defined(FLASH_ACR_LATENCY)
  /* Decreasing the number of wait states because of lower CPU frequency */
  if (FLatency < __HAL_FLASH_GET_LATENCY())
 8003d58:	4b27      	ldr	r3, [pc, #156]	; (8003df8 <HAL_RCC_ClockConfig+0x1c0>)
 8003d5a:	681b      	ldr	r3, [r3, #0]
 8003d5c:	f003 0307 	and.w	r3, r3, #7
 8003d60:	683a      	ldr	r2, [r7, #0]
 8003d62:	429a      	cmp	r2, r3
 8003d64:	d210      	bcs.n	8003d88 <HAL_RCC_ClockConfig+0x150>
  {
    /* Program the new number of wait states to the LATENCY bits in the FLASH_ACR register */
    __HAL_FLASH_SET_LATENCY(FLatency);
 8003d66:	4b24      	ldr	r3, [pc, #144]	; (8003df8 <HAL_RCC_ClockConfig+0x1c0>)
 8003d68:	681b      	ldr	r3, [r3, #0]
 8003d6a:	f023 0207 	bic.w	r2, r3, #7
 8003d6e:	4922      	ldr	r1, [pc, #136]	; (8003df8 <HAL_RCC_ClockConfig+0x1c0>)
 8003d70:	683b      	ldr	r3, [r7, #0]
 8003d72:	4313      	orrs	r3, r2
 8003d74:	600b      	str	r3, [r1, #0]

    /* Check that the new number of wait states is taken into account to access the Flash
    memory by reading the FLASH_ACR register */
    if (__HAL_FLASH_GET_LATENCY() != FLatency)
 8003d76:	4b20      	ldr	r3, [pc, #128]	; (8003df8 <HAL_RCC_ClockConfig+0x1c0>)
 8003d78:	681b      	ldr	r3, [r3, #0]
 8003d7a:	f003 0307 	and.w	r3, r3, #7
 8003d7e:	683a      	ldr	r2, [r7, #0]
 8003d80:	429a      	cmp	r2, r3
 8003d82:	d001      	beq.n	8003d88 <HAL_RCC_ClockConfig+0x150>
  {
    return HAL_ERROR;
 8003d84:	2301      	movs	r3, #1
 8003d86:	e032      	b.n	8003dee <HAL_RCC_ClockConfig+0x1b6>
  }
}
#endif /* FLASH_ACR_LATENCY */

/*-------------------------- PCLK1 Configuration ---------------------------*/
if (((RCC_ClkInitStruct->ClockType) & RCC_CLOCKTYPE_PCLK1) == RCC_CLOCKTYPE_PCLK1)
 8003d88:	687b      	ldr	r3, [r7, #4]
 8003d8a:	681b      	ldr	r3, [r3, #0]
 8003d8c:	f003 0304 	and.w	r3, r3, #4
 8003d90:	2b00      	cmp	r3, #0
 8003d92:	d008      	beq.n	8003da6 <HAL_RCC_ClockConfig+0x16e>
  {
    assert_param(IS_RCC_PCLK(RCC_ClkInitStruct->APB1CLKDivider));
    MODIFY_REG(RCC->CFGR, RCC_CFGR_PPRE1, RCC_ClkInitStruct->APB1CLKDivider);
 8003d94:	4b19      	ldr	r3, [pc, #100]	; (8003dfc <HAL_RCC_ClockConfig+0x1c4>)
 8003d96:	685b      	ldr	r3, [r3, #4]
 8003d98:	f423 62e0 	bic.w	r2, r3, #1792	; 0x700
 8003d9c:	687b      	ldr	r3, [r7, #4]
 8003d9e:	68db      	ldr	r3, [r3, #12]
 8003da0:	4916      	ldr	r1, [pc, #88]	; (8003dfc <HAL_RCC_ClockConfig+0x1c4>)
 8003da2:	4313      	orrs	r3, r2
 8003da4:	604b      	str	r3, [r1, #4]
  }

  /*-------------------------- PCLK2 Configuration ---------------------------*/
  if (((RCC_ClkInitStruct->ClockType) & RCC_CLOCKTYPE_PCLK2) == RCC_CLOCKTYPE_PCLK2)
 8003da6:	687b      	ldr	r3, [r7, #4]
 8003da8:	681b      	ldr	r3, [r3, #0]
 8003daa:	f003 0308 	and.w	r3, r3, #8
 8003dae:	2b00      	cmp	r3, #0
 8003db0:	d009      	beq.n	8003dc6 <HAL_RCC_ClockConfig+0x18e>
  {
    assert_param(IS_RCC_PCLK(RCC_ClkInitStruct->APB2CLKDivider));
    MODIFY_REG(RCC->CFGR, RCC_CFGR_PPRE2, ((RCC_ClkInitStruct->APB2CLKDivider) << 3));
 8003db2:	4b12      	ldr	r3, [pc, #72]	; (8003dfc <HAL_RCC_ClockConfig+0x1c4>)
 8003db4:	685b      	ldr	r3, [r3, #4]
 8003db6:	f423 5260 	bic.w	r2, r3, #14336	; 0x3800
 8003dba:	687b      	ldr	r3, [r7, #4]
 8003dbc:	691b      	ldr	r3, [r3, #16]
 8003dbe:	00db      	lsls	r3, r3, #3
 8003dc0:	490e      	ldr	r1, [pc, #56]	; (8003dfc <HAL_RCC_ClockConfig+0x1c4>)
 8003dc2:	4313      	orrs	r3, r2
 8003dc4:	604b      	str	r3, [r1, #4]
  }

  /* Update the SystemCoreClock global variable */
  SystemCoreClock = HAL_RCC_GetSysClockFreq() >> AHBPrescTable[(RCC->CFGR & RCC_CFGR_HPRE) >> RCC_CFGR_HPRE_Pos];
 8003dc6:	f000 f821 	bl	8003e0c <HAL_RCC_GetSysClockFreq>
 8003dca:	4601      	mov	r1, r0
 8003dcc:	4b0b      	ldr	r3, [pc, #44]	; (8003dfc <HAL_RCC_ClockConfig+0x1c4>)
 8003dce:	685b      	ldr	r3, [r3, #4]
 8003dd0:	091b      	lsrs	r3, r3, #4
 8003dd2:	f003 030f 	and.w	r3, r3, #15
 8003dd6:	4a0a      	ldr	r2, [pc, #40]	; (8003e00 <HAL_RCC_ClockConfig+0x1c8>)
 8003dd8:	5cd3      	ldrb	r3, [r2, r3]
 8003dda:	fa21 f303 	lsr.w	r3, r1, r3
 8003dde:	4a09      	ldr	r2, [pc, #36]	; (8003e04 <HAL_RCC_ClockConfig+0x1cc>)
 8003de0:	6013      	str	r3, [r2, #0]

  /* Configure the source of time base considering new system clocks settings*/
  HAL_InitTick(uwTickPrio);
 8003de2:	4b09      	ldr	r3, [pc, #36]	; (8003e08 <HAL_RCC_ClockConfig+0x1d0>)
 8003de4:	681b      	ldr	r3, [r3, #0]
 8003de6:	4618      	mov	r0, r3
 8003de8:	f7fd f86e 	bl	8000ec8 <HAL_InitTick>

  return HAL_OK;
 8003dec:	2300      	movs	r3, #0
}
 8003dee:	4618      	mov	r0, r3
 8003df0:	3710      	adds	r7, #16
 8003df2:	46bd      	mov	sp, r7
 8003df4:	bd80      	pop	{r7, pc}
 8003df6:	bf00      	nop
 8003df8:	40022000 	.word	0x40022000
 8003dfc:	40021000 	.word	0x40021000
 8003e00:	08006474 	.word	0x08006474
 8003e04:	20000004 	.word	0x20000004
 8003e08:	20000008 	.word	0x20000008

08003e0c <HAL_RCC_GetSysClockFreq>:
  *         right SYSCLK value. Otherwise, any configuration based on this function will be incorrect.
  *
  * @retval SYSCLK frequency
  */
uint32_t HAL_RCC_GetSysClockFreq(void)
{
 8003e0c:	b490      	push	{r4, r7}
 8003e0e:	b08a      	sub	sp, #40	; 0x28
 8003e10:	af00      	add	r7, sp, #0
#if defined(RCC_CFGR2_PREDIV1SRC)
  const uint8_t aPLLMULFactorTable[14] = {0, 0, 4, 5, 6, 7, 8, 9, 0, 0, 0, 0, 0, 13};
  const uint8_t aPredivFactorTable[16] = {1, 2, 3, 4, 5, 6, 7, 8, 9, 10, 11, 12, 13, 14, 15, 16};
#else
  const uint8_t aPLLMULFactorTable[16] = {2, 3, 4, 5, 6, 7, 8, 9, 10, 11, 12, 13, 14, 15, 16, 16};
 8003e12:	4b2a      	ldr	r3, [pc, #168]	; (8003ebc <HAL_RCC_GetSysClockFreq+0xb0>)
 8003e14:	1d3c      	adds	r4, r7, #4
 8003e16:	cb0f      	ldmia	r3, {r0, r1, r2, r3}
 8003e18:	e884 000f 	stmia.w	r4, {r0, r1, r2, r3}
#if defined(RCC_CFGR2_PREDIV1)
  const uint8_t aPredivFactorTable[16] = {1, 2, 3, 4, 5, 6, 7, 8, 9, 10, 11, 12, 13, 14, 15, 16};
#else
  const uint8_t aPredivFactorTable[2] = {1, 2};
 8003e1c:	4b28      	ldr	r3, [pc, #160]	; (8003ec0 <HAL_RCC_GetSysClockFreq+0xb4>)
 8003e1e:	881b      	ldrh	r3, [r3, #0]
 8003e20:	803b      	strh	r3, [r7, #0]
#endif /*RCC_CFGR2_PREDIV1*/

#endif
  uint32_t tmpreg = 0U, prediv = 0U, pllclk = 0U, pllmul = 0U;
 8003e22:	2300      	movs	r3, #0
 8003e24:	61fb      	str	r3, [r7, #28]
 8003e26:	2300      	movs	r3, #0
 8003e28:	61bb      	str	r3, [r7, #24]
 8003e2a:	2300      	movs	r3, #0
 8003e2c:	627b      	str	r3, [r7, #36]	; 0x24
 8003e2e:	2300      	movs	r3, #0
 8003e30:	617b      	str	r3, [r7, #20]
  uint32_t sysclockfreq = 0U;
 8003e32:	2300      	movs	r3, #0
 8003e34:	623b      	str	r3, [r7, #32]
#if defined(RCC_CFGR2_PREDIV1SRC)
  uint32_t prediv2 = 0U, pll2mul = 0U;
#endif /*RCC_CFGR2_PREDIV1SRC*/

  tmpreg = RCC->CFGR;
 8003e36:	4b23      	ldr	r3, [pc, #140]	; (8003ec4 <HAL_RCC_GetSysClockFreq+0xb8>)
 8003e38:	685b      	ldr	r3, [r3, #4]
 8003e3a:	61fb      	str	r3, [r7, #28]

  /* Get SYSCLK source -------------------------------------------------------*/
  switch (tmpreg & RCC_CFGR_SWS)
 8003e3c:	69fb      	ldr	r3, [r7, #28]
 8003e3e:	f003 030c 	and.w	r3, r3, #12
 8003e42:	2b04      	cmp	r3, #4
 8003e44:	d002      	beq.n	8003e4c <HAL_RCC_GetSysClockFreq+0x40>
 8003e46:	2b08      	cmp	r3, #8
 8003e48:	d003      	beq.n	8003e52 <HAL_RCC_GetSysClockFreq+0x46>
 8003e4a:	e02d      	b.n	8003ea8 <HAL_RCC_GetSysClockFreq+0x9c>
  {
    case RCC_SYSCLKSOURCE_STATUS_HSE:  /* HSE used as system clock */
    {
      sysclockfreq = HSE_VALUE;
 8003e4c:	4b1e      	ldr	r3, [pc, #120]	; (8003ec8 <HAL_RCC_GetSysClockFreq+0xbc>)
 8003e4e:	623b      	str	r3, [r7, #32]
      break;
 8003e50:	e02d      	b.n	8003eae <HAL_RCC_GetSysClockFreq+0xa2>
    }
    case RCC_SYSCLKSOURCE_STATUS_PLLCLK:  /* PLL used as system clock */
    {
      pllmul = aPLLMULFactorTable[(uint32_t)(tmpreg & RCC_CFGR_PLLMULL) >> RCC_CFGR_PLLMULL_Pos];
 8003e52:	69fb      	ldr	r3, [r7, #28]
 8003e54:	0c9b      	lsrs	r3, r3, #18
 8003e56:	f003 030f 	and.w	r3, r3, #15
 8003e5a:	f107 0228 	add.w	r2, r7, #40	; 0x28
 8003e5e:	4413      	add	r3, r2
 8003e60:	f813 3c24 	ldrb.w	r3, [r3, #-36]
 8003e64:	617b      	str	r3, [r7, #20]
      if ((tmpreg & RCC_CFGR_PLLSRC) != RCC_PLLSOURCE_HSI_DIV2)
 8003e66:	69fb      	ldr	r3, [r7, #28]
 8003e68:	f403 3380 	and.w	r3, r3, #65536	; 0x10000
 8003e6c:	2b00      	cmp	r3, #0
 8003e6e:	d013      	beq.n	8003e98 <HAL_RCC_GetSysClockFreq+0x8c>
      {
#if defined(RCC_CFGR2_PREDIV1)
        prediv = aPredivFactorTable[(uint32_t)(RCC->CFGR2 & RCC_CFGR2_PREDIV1) >> RCC_CFGR2_PREDIV1_Pos];
#else
        prediv = aPredivFactorTable[(uint32_t)(RCC->CFGR & RCC_CFGR_PLLXTPRE) >> RCC_CFGR_PLLXTPRE_Pos];
 8003e70:	4b14      	ldr	r3, [pc, #80]	; (8003ec4 <HAL_RCC_GetSysClockFreq+0xb8>)
 8003e72:	685b      	ldr	r3, [r3, #4]
 8003e74:	0c5b      	lsrs	r3, r3, #17
 8003e76:	f003 0301 	and.w	r3, r3, #1
 8003e7a:	f107 0228 	add.w	r2, r7, #40	; 0x28
 8003e7e:	4413      	add	r3, r2
 8003e80:	f813 3c28 	ldrb.w	r3, [r3, #-40]
 8003e84:	61bb      	str	r3, [r7, #24]
        {
          pllclk = pllclk / 2;
        }
#else
        /* HSE used as PLL clock source : PLLCLK = HSE/PREDIV1 * PLLMUL */
        pllclk = (uint32_t)((HSE_VALUE  * pllmul) / prediv);
 8003e86:	697b      	ldr	r3, [r7, #20]
 8003e88:	4a0f      	ldr	r2, [pc, #60]	; (8003ec8 <HAL_RCC_GetSysClockFreq+0xbc>)
 8003e8a:	fb02 f203 	mul.w	r2, r2, r3
 8003e8e:	69bb      	ldr	r3, [r7, #24]
 8003e90:	fbb2 f3f3 	udiv	r3, r2, r3
 8003e94:	627b      	str	r3, [r7, #36]	; 0x24
 8003e96:	e004      	b.n	8003ea2 <HAL_RCC_GetSysClockFreq+0x96>
#endif /*RCC_CFGR2_PREDIV1SRC*/
      }
      else
      {
        /* HSI used as PLL clock source : PLLCLK = HSI/2 * PLLMUL */
        pllclk = (uint32_t)((HSI_VALUE >> 1) * pllmul);
 8003e98:	697b      	ldr	r3, [r7, #20]
 8003e9a:	4a0c      	ldr	r2, [pc, #48]	; (8003ecc <HAL_RCC_GetSysClockFreq+0xc0>)
 8003e9c:	fb02 f303 	mul.w	r3, r2, r3
 8003ea0:	627b      	str	r3, [r7, #36]	; 0x24
      }
      sysclockfreq = pllclk;
 8003ea2:	6a7b      	ldr	r3, [r7, #36]	; 0x24
 8003ea4:	623b      	str	r3, [r7, #32]
      break;
 8003ea6:	e002      	b.n	8003eae <HAL_RCC_GetSysClockFreq+0xa2>
    }
    case RCC_SYSCLKSOURCE_STATUS_HSI:  /* HSI used as system clock source */
    default: /* HSI used as system clock */
    {
      sysclockfreq = HSI_VALUE;
 8003ea8:	4b07      	ldr	r3, [pc, #28]	; (8003ec8 <HAL_RCC_GetSysClockFreq+0xbc>)
 8003eaa:	623b      	str	r3, [r7, #32]
      break;
 8003eac:	bf00      	nop
    }
  }
  return sysclockfreq;
 8003eae:	6a3b      	ldr	r3, [r7, #32]
}
 8003eb0:	4618      	mov	r0, r3
 8003eb2:	3728      	adds	r7, #40	; 0x28
 8003eb4:	46bd      	mov	sp, r7
 8003eb6:	bc90      	pop	{r4, r7}
 8003eb8:	4770      	bx	lr
 8003eba:	bf00      	nop
 8003ebc:	08006458 	.word	0x08006458
 8003ec0:	08006468 	.word	0x08006468
 8003ec4:	40021000 	.word	0x40021000
 8003ec8:	007a1200 	.word	0x007a1200
 8003ecc:	003d0900 	.word	0x003d0900

08003ed0 <HAL_RCC_GetHCLKFreq>:
  * @note   The SystemCoreClock CMSIS variable is used to store System Clock Frequency
  *         and updated within this function
  * @retval HCLK frequency
  */
uint32_t HAL_RCC_GetHCLKFreq(void)
{
 8003ed0:	b480      	push	{r7}
 8003ed2:	af00      	add	r7, sp, #0
  return SystemCoreClock;
 8003ed4:	4b02      	ldr	r3, [pc, #8]	; (8003ee0 <HAL_RCC_GetHCLKFreq+0x10>)
 8003ed6:	681b      	ldr	r3, [r3, #0]
}
 8003ed8:	4618      	mov	r0, r3
 8003eda:	46bd      	mov	sp, r7
 8003edc:	bc80      	pop	{r7}
 8003ede:	4770      	bx	lr
 8003ee0:	20000004 	.word	0x20000004

08003ee4 <HAL_RCC_GetPCLK1Freq>:
  * @note   Each time PCLK1 changes, this function must be called to update the
  *         right PCLK1 value. Otherwise, any configuration based on this function will be incorrect.
  * @retval PCLK1 frequency
  */
uint32_t HAL_RCC_GetPCLK1Freq(void)
{
 8003ee4:	b580      	push	{r7, lr}
 8003ee6:	af00      	add	r7, sp, #0
  /* Get HCLK source and Compute PCLK1 frequency ---------------------------*/
  return (HAL_RCC_GetHCLKFreq() >> APBPrescTable[(RCC->CFGR & RCC_CFGR_PPRE1) >> RCC_CFGR_PPRE1_Pos]);
 8003ee8:	f7ff fff2 	bl	8003ed0 <HAL_RCC_GetHCLKFreq>
 8003eec:	4601      	mov	r1, r0
 8003eee:	4b05      	ldr	r3, [pc, #20]	; (8003f04 <HAL_RCC_GetPCLK1Freq+0x20>)
 8003ef0:	685b      	ldr	r3, [r3, #4]
 8003ef2:	0a1b      	lsrs	r3, r3, #8
 8003ef4:	f003 0307 	and.w	r3, r3, #7
 8003ef8:	4a03      	ldr	r2, [pc, #12]	; (8003f08 <HAL_RCC_GetPCLK1Freq+0x24>)
 8003efa:	5cd3      	ldrb	r3, [r2, r3]
 8003efc:	fa21 f303 	lsr.w	r3, r1, r3
}
 8003f00:	4618      	mov	r0, r3
 8003f02:	bd80      	pop	{r7, pc}
 8003f04:	40021000 	.word	0x40021000
 8003f08:	08006484 	.word	0x08006484

08003f0c <HAL_RCC_GetPCLK2Freq>:
  * @note   Each time PCLK2 changes, this function must be called to update the
  *         right PCLK2 value. Otherwise, any configuration based on this function will be incorrect.
  * @retval PCLK2 frequency
  */
uint32_t HAL_RCC_GetPCLK2Freq(void)
{
 8003f0c:	b580      	push	{r7, lr}
 8003f0e:	af00      	add	r7, sp, #0
  /* Get HCLK source and Compute PCLK2 frequency ---------------------------*/
  return (HAL_RCC_GetHCLKFreq() >> APBPrescTable[(RCC->CFGR & RCC_CFGR_PPRE2) >> RCC_CFGR_PPRE2_Pos]);
 8003f10:	f7ff ffde 	bl	8003ed0 <HAL_RCC_GetHCLKFreq>
 8003f14:	4601      	mov	r1, r0
 8003f16:	4b05      	ldr	r3, [pc, #20]	; (8003f2c <HAL_RCC_GetPCLK2Freq+0x20>)
 8003f18:	685b      	ldr	r3, [r3, #4]
 8003f1a:	0adb      	lsrs	r3, r3, #11
 8003f1c:	f003 0307 	and.w	r3, r3, #7
 8003f20:	4a03      	ldr	r2, [pc, #12]	; (8003f30 <HAL_RCC_GetPCLK2Freq+0x24>)
 8003f22:	5cd3      	ldrb	r3, [r2, r3]
 8003f24:	fa21 f303 	lsr.w	r3, r1, r3
}
 8003f28:	4618      	mov	r0, r3
 8003f2a:	bd80      	pop	{r7, pc}
 8003f2c:	40021000 	.word	0x40021000
 8003f30:	08006484 	.word	0x08006484

08003f34 <HAL_RCC_GetClockConfig>:
  * contains the current clock configuration.
  * @param  pFLatency Pointer on the Flash Latency.
  * @retval None
  */
void HAL_RCC_GetClockConfig(RCC_ClkInitTypeDef  *RCC_ClkInitStruct, uint32_t *pFLatency)
{
 8003f34:	b480      	push	{r7}
 8003f36:	b083      	sub	sp, #12
 8003f38:	af00      	add	r7, sp, #0
 8003f3a:	6078      	str	r0, [r7, #4]
 8003f3c:	6039      	str	r1, [r7, #0]
  /* Check the parameters */
  assert_param(RCC_ClkInitStruct != NULL);
  assert_param(pFLatency != NULL);

  /* Set all possible values for the Clock type parameter --------------------*/
  RCC_ClkInitStruct->ClockType = RCC_CLOCKTYPE_SYSCLK | RCC_CLOCKTYPE_HCLK | RCC_CLOCKTYPE_PCLK1 | RCC_CLOCKTYPE_PCLK2;
 8003f3e:	687b      	ldr	r3, [r7, #4]
 8003f40:	220f      	movs	r2, #15
 8003f42:	601a      	str	r2, [r3, #0]

  /* Get the SYSCLK configuration --------------------------------------------*/
  RCC_ClkInitStruct->SYSCLKSource = (uint32_t)(RCC->CFGR & RCC_CFGR_SW);
 8003f44:	4b11      	ldr	r3, [pc, #68]	; (8003f8c <HAL_RCC_GetClockConfig+0x58>)
 8003f46:	685b      	ldr	r3, [r3, #4]
 8003f48:	f003 0203 	and.w	r2, r3, #3
 8003f4c:	687b      	ldr	r3, [r7, #4]
 8003f4e:	605a      	str	r2, [r3, #4]

  /* Get the HCLK configuration ----------------------------------------------*/
  RCC_ClkInitStruct->AHBCLKDivider = (uint32_t)(RCC->CFGR & RCC_CFGR_HPRE);
 8003f50:	4b0e      	ldr	r3, [pc, #56]	; (8003f8c <HAL_RCC_GetClockConfig+0x58>)
 8003f52:	685b      	ldr	r3, [r3, #4]
 8003f54:	f003 02f0 	and.w	r2, r3, #240	; 0xf0
 8003f58:	687b      	ldr	r3, [r7, #4]
 8003f5a:	609a      	str	r2, [r3, #8]

  /* Get the APB1 configuration ----------------------------------------------*/
  RCC_ClkInitStruct->APB1CLKDivider = (uint32_t)(RCC->CFGR & RCC_CFGR_PPRE1);
 8003f5c:	4b0b      	ldr	r3, [pc, #44]	; (8003f8c <HAL_RCC_GetClockConfig+0x58>)
 8003f5e:	685b      	ldr	r3, [r3, #4]
 8003f60:	f403 62e0 	and.w	r2, r3, #1792	; 0x700
 8003f64:	687b      	ldr	r3, [r7, #4]
 8003f66:	60da      	str	r2, [r3, #12]

  /* Get the APB2 configuration ----------------------------------------------*/
  RCC_ClkInitStruct->APB2CLKDivider = (uint32_t)((RCC->CFGR & RCC_CFGR_PPRE2) >> 3);
 8003f68:	4b08      	ldr	r3, [pc, #32]	; (8003f8c <HAL_RCC_GetClockConfig+0x58>)
 8003f6a:	685b      	ldr	r3, [r3, #4]
 8003f6c:	08db      	lsrs	r3, r3, #3
 8003f6e:	f403 62e0 	and.w	r2, r3, #1792	; 0x700
 8003f72:	687b      	ldr	r3, [r7, #4]
 8003f74:	611a      	str	r2, [r3, #16]

#if   defined(FLASH_ACR_LATENCY)
  /* Get the Flash Wait State (Latency) configuration ------------------------*/
  *pFLatency = (uint32_t)(FLASH->ACR & FLASH_ACR_LATENCY);
 8003f76:	4b06      	ldr	r3, [pc, #24]	; (8003f90 <HAL_RCC_GetClockConfig+0x5c>)
 8003f78:	681b      	ldr	r3, [r3, #0]
 8003f7a:	f003 0207 	and.w	r2, r3, #7
 8003f7e:	683b      	ldr	r3, [r7, #0]
 8003f80:	601a      	str	r2, [r3, #0]
#else
  /* For VALUE lines devices, only LATENCY_0 can be set*/
  *pFLatency = (uint32_t)FLASH_LATENCY_0;
#endif
}
 8003f82:	bf00      	nop
 8003f84:	370c      	adds	r7, #12
 8003f86:	46bd      	mov	sp, r7
 8003f88:	bc80      	pop	{r7}
 8003f8a:	4770      	bx	lr
 8003f8c:	40021000 	.word	0x40021000
 8003f90:	40022000 	.word	0x40022000

08003f94 <RCC_Delay>:
  * @brief  This function provides delay (in milliseconds) based on CPU cycles method.
  * @param  mdelay: specifies the delay time length, in milliseconds.
  * @retval None
  */
static void RCC_Delay(uint32_t mdelay)
{
 8003f94:	b480      	push	{r7}
 8003f96:	b085      	sub	sp, #20
 8003f98:	af00      	add	r7, sp, #0
 8003f9a:	6078      	str	r0, [r7, #4]
  __IO uint32_t Delay = mdelay * (SystemCoreClock / 8U / 1000U);
 8003f9c:	4b0a      	ldr	r3, [pc, #40]	; (8003fc8 <RCC_Delay+0x34>)
 8003f9e:	681b      	ldr	r3, [r3, #0]
 8003fa0:	4a0a      	ldr	r2, [pc, #40]	; (8003fcc <RCC_Delay+0x38>)
 8003fa2:	fba2 2303 	umull	r2, r3, r2, r3
 8003fa6:	0a5b      	lsrs	r3, r3, #9
 8003fa8:	687a      	ldr	r2, [r7, #4]
 8003faa:	fb02 f303 	mul.w	r3, r2, r3
 8003fae:	60fb      	str	r3, [r7, #12]
  do
  {
    __NOP();
 8003fb0:	bf00      	nop
  }
  while (Delay --);
 8003fb2:	68fb      	ldr	r3, [r7, #12]
 8003fb4:	1e5a      	subs	r2, r3, #1
 8003fb6:	60fa      	str	r2, [r7, #12]
 8003fb8:	2b00      	cmp	r3, #0
 8003fba:	d1f9      	bne.n	8003fb0 <RCC_Delay+0x1c>
}
 8003fbc:	bf00      	nop
 8003fbe:	3714      	adds	r7, #20
 8003fc0:	46bd      	mov	sp, r7
 8003fc2:	bc80      	pop	{r7}
 8003fc4:	4770      	bx	lr
 8003fc6:	bf00      	nop
 8003fc8:	20000004 	.word	0x20000004
 8003fcc:	10624dd3 	.word	0x10624dd3

08003fd0 <HAL_RCCEx_PeriphCLKConfig>:
  *         manually disable it.
  *
  * @retval HAL status
  */
HAL_StatusTypeDef HAL_RCCEx_PeriphCLKConfig(RCC_PeriphCLKInitTypeDef  *PeriphClkInit)
{
 8003fd0:	b580      	push	{r7, lr}
 8003fd2:	b086      	sub	sp, #24
 8003fd4:	af00      	add	r7, sp, #0
 8003fd6:	6078      	str	r0, [r7, #4]
  uint32_t tickstart = 0U, temp_reg = 0U;
 8003fd8:	2300      	movs	r3, #0
 8003fda:	613b      	str	r3, [r7, #16]
 8003fdc:	2300      	movs	r3, #0
 8003fde:	60fb      	str	r3, [r7, #12]

  /* Check the parameters */
  assert_param(IS_RCC_PERIPHCLOCK(PeriphClkInit->PeriphClockSelection));

  /*------------------------------- RTC/LCD Configuration ------------------------*/
  if ((((PeriphClkInit->PeriphClockSelection) & RCC_PERIPHCLK_RTC) == RCC_PERIPHCLK_RTC))
 8003fe0:	687b      	ldr	r3, [r7, #4]
 8003fe2:	681b      	ldr	r3, [r3, #0]
 8003fe4:	f003 0301 	and.w	r3, r3, #1
 8003fe8:	2b00      	cmp	r3, #0
 8003fea:	d07d      	beq.n	80040e8 <HAL_RCCEx_PeriphCLKConfig+0x118>
  {
    /* check for RTC Parameters used to output RTCCLK */
    assert_param(IS_RCC_RTCCLKSOURCE(PeriphClkInit->RTCClockSelection));

    FlagStatus       pwrclkchanged = RESET;
 8003fec:	2300      	movs	r3, #0
 8003fee:	75fb      	strb	r3, [r7, #23]

    /* As soon as function is called to change RTC clock source, activation of the
       power domain is done. */
    /* Requires to enable write access to Backup Domain of necessary */
    if (__HAL_RCC_PWR_IS_CLK_DISABLED())
 8003ff0:	4b4f      	ldr	r3, [pc, #316]	; (8004130 <HAL_RCCEx_PeriphCLKConfig+0x160>)
 8003ff2:	69db      	ldr	r3, [r3, #28]
 8003ff4:	f003 5380 	and.w	r3, r3, #268435456	; 0x10000000
 8003ff8:	2b00      	cmp	r3, #0
 8003ffa:	d10d      	bne.n	8004018 <HAL_RCCEx_PeriphCLKConfig+0x48>
    {
      __HAL_RCC_PWR_CLK_ENABLE();
 8003ffc:	4b4c      	ldr	r3, [pc, #304]	; (8004130 <HAL_RCCEx_PeriphCLKConfig+0x160>)
 8003ffe:	69db      	ldr	r3, [r3, #28]
 8004000:	4a4b      	ldr	r2, [pc, #300]	; (8004130 <HAL_RCCEx_PeriphCLKConfig+0x160>)
 8004002:	f043 5380 	orr.w	r3, r3, #268435456	; 0x10000000
 8004006:	61d3      	str	r3, [r2, #28]
 8004008:	4b49      	ldr	r3, [pc, #292]	; (8004130 <HAL_RCCEx_PeriphCLKConfig+0x160>)
 800400a:	69db      	ldr	r3, [r3, #28]
 800400c:	f003 5380 	and.w	r3, r3, #268435456	; 0x10000000
 8004010:	60bb      	str	r3, [r7, #8]
 8004012:	68bb      	ldr	r3, [r7, #8]
      pwrclkchanged = SET;
 8004014:	2301      	movs	r3, #1
 8004016:	75fb      	strb	r3, [r7, #23]
    }

    if (HAL_IS_BIT_CLR(PWR->CR, PWR_CR_DBP))
 8004018:	4b46      	ldr	r3, [pc, #280]	; (8004134 <HAL_RCCEx_PeriphCLKConfig+0x164>)
 800401a:	681b      	ldr	r3, [r3, #0]
 800401c:	f403 7380 	and.w	r3, r3, #256	; 0x100
 8004020:	2b00      	cmp	r3, #0
 8004022:	d118      	bne.n	8004056 <HAL_RCCEx_PeriphCLKConfig+0x86>
    {
      /* Enable write access to Backup domain */
      SET_BIT(PWR->CR, PWR_CR_DBP);
 8004024:	4b43      	ldr	r3, [pc, #268]	; (8004134 <HAL_RCCEx_PeriphCLKConfig+0x164>)
 8004026:	681b      	ldr	r3, [r3, #0]
 8004028:	4a42      	ldr	r2, [pc, #264]	; (8004134 <HAL_RCCEx_PeriphCLKConfig+0x164>)
 800402a:	f443 7380 	orr.w	r3, r3, #256	; 0x100
 800402e:	6013      	str	r3, [r2, #0]

      /* Wait for Backup domain Write protection disable */
      tickstart = HAL_GetTick();
 8004030:	f7fd f88c 	bl	800114c <HAL_GetTick>
 8004034:	6138      	str	r0, [r7, #16]

      while (HAL_IS_BIT_CLR(PWR->CR, PWR_CR_DBP))
 8004036:	e008      	b.n	800404a <HAL_RCCEx_PeriphCLKConfig+0x7a>
      {
        if ((HAL_GetTick() - tickstart) > RCC_DBP_TIMEOUT_VALUE)
 8004038:	f7fd f888 	bl	800114c <HAL_GetTick>
 800403c:	4602      	mov	r2, r0
 800403e:	693b      	ldr	r3, [r7, #16]
 8004040:	1ad3      	subs	r3, r2, r3
 8004042:	2b64      	cmp	r3, #100	; 0x64
 8004044:	d901      	bls.n	800404a <HAL_RCCEx_PeriphCLKConfig+0x7a>
        {
          return HAL_TIMEOUT;
 8004046:	2303      	movs	r3, #3
 8004048:	e06d      	b.n	8004126 <HAL_RCCEx_PeriphCLKConfig+0x156>
      while (HAL_IS_BIT_CLR(PWR->CR, PWR_CR_DBP))
 800404a:	4b3a      	ldr	r3, [pc, #232]	; (8004134 <HAL_RCCEx_PeriphCLKConfig+0x164>)
 800404c:	681b      	ldr	r3, [r3, #0]
 800404e:	f403 7380 	and.w	r3, r3, #256	; 0x100
 8004052:	2b00      	cmp	r3, #0
 8004054:	d0f0      	beq.n	8004038 <HAL_RCCEx_PeriphCLKConfig+0x68>
        }
      }
    }

    /* Reset the Backup domain only if the RTC Clock source selection is modified from reset value */
    temp_reg = (RCC->BDCR & RCC_BDCR_RTCSEL);
 8004056:	4b36      	ldr	r3, [pc, #216]	; (8004130 <HAL_RCCEx_PeriphCLKConfig+0x160>)
 8004058:	6a1b      	ldr	r3, [r3, #32]
 800405a:	f403 7340 	and.w	r3, r3, #768	; 0x300
 800405e:	60fb      	str	r3, [r7, #12]
    if ((temp_reg != 0x00000000U) && (temp_reg != (PeriphClkInit->RTCClockSelection & RCC_BDCR_RTCSEL)))
 8004060:	68fb      	ldr	r3, [r7, #12]
 8004062:	2b00      	cmp	r3, #0
 8004064:	d02e      	beq.n	80040c4 <HAL_RCCEx_PeriphCLKConfig+0xf4>
 8004066:	687b      	ldr	r3, [r7, #4]
 8004068:	685b      	ldr	r3, [r3, #4]
 800406a:	f403 7340 	and.w	r3, r3, #768	; 0x300
 800406e:	68fa      	ldr	r2, [r7, #12]
 8004070:	429a      	cmp	r2, r3
 8004072:	d027      	beq.n	80040c4 <HAL_RCCEx_PeriphCLKConfig+0xf4>
    {
      /* Store the content of BDCR register before the reset of Backup Domain */
      temp_reg = (RCC->BDCR & ~(RCC_BDCR_RTCSEL));
 8004074:	4b2e      	ldr	r3, [pc, #184]	; (8004130 <HAL_RCCEx_PeriphCLKConfig+0x160>)
 8004076:	6a1b      	ldr	r3, [r3, #32]
 8004078:	f423 7340 	bic.w	r3, r3, #768	; 0x300
 800407c:	60fb      	str	r3, [r7, #12]
      /* RTC Clock selection can be changed only if the Backup Domain is reset */
      __HAL_RCC_BACKUPRESET_FORCE();
 800407e:	4b2e      	ldr	r3, [pc, #184]	; (8004138 <HAL_RCCEx_PeriphCLKConfig+0x168>)
 8004080:	2201      	movs	r2, #1
 8004082:	601a      	str	r2, [r3, #0]
      __HAL_RCC_BACKUPRESET_RELEASE();
 8004084:	4b2c      	ldr	r3, [pc, #176]	; (8004138 <HAL_RCCEx_PeriphCLKConfig+0x168>)
 8004086:	2200      	movs	r2, #0
 8004088:	601a      	str	r2, [r3, #0]
      /* Restore the Content of BDCR register */
      RCC->BDCR = temp_reg;
 800408a:	4a29      	ldr	r2, [pc, #164]	; (8004130 <HAL_RCCEx_PeriphCLKConfig+0x160>)
 800408c:	68fb      	ldr	r3, [r7, #12]
 800408e:	6213      	str	r3, [r2, #32]

      /* Wait for LSERDY if LSE was enabled */
      if (HAL_IS_BIT_SET(temp_reg, RCC_BDCR_LSEON))
 8004090:	68fb      	ldr	r3, [r7, #12]
 8004092:	f003 0301 	and.w	r3, r3, #1
 8004096:	2b00      	cmp	r3, #0
 8004098:	d014      	beq.n	80040c4 <HAL_RCCEx_PeriphCLKConfig+0xf4>
      {
        /* Get Start Tick */
        tickstart = HAL_GetTick();
 800409a:	f7fd f857 	bl	800114c <HAL_GetTick>
 800409e:	6138      	str	r0, [r7, #16]

        /* Wait till LSE is ready */
        while (__HAL_RCC_GET_FLAG(RCC_FLAG_LSERDY) == RESET)
 80040a0:	e00a      	b.n	80040b8 <HAL_RCCEx_PeriphCLKConfig+0xe8>
        {
          if ((HAL_GetTick() - tickstart) > RCC_LSE_TIMEOUT_VALUE)
 80040a2:	f7fd f853 	bl	800114c <HAL_GetTick>
 80040a6:	4602      	mov	r2, r0
 80040a8:	693b      	ldr	r3, [r7, #16]
 80040aa:	1ad3      	subs	r3, r2, r3
 80040ac:	f241 3288 	movw	r2, #5000	; 0x1388
 80040b0:	4293      	cmp	r3, r2
 80040b2:	d901      	bls.n	80040b8 <HAL_RCCEx_PeriphCLKConfig+0xe8>
          {
            return HAL_TIMEOUT;
 80040b4:	2303      	movs	r3, #3
 80040b6:	e036      	b.n	8004126 <HAL_RCCEx_PeriphCLKConfig+0x156>
        while (__HAL_RCC_GET_FLAG(RCC_FLAG_LSERDY) == RESET)
 80040b8:	4b1d      	ldr	r3, [pc, #116]	; (8004130 <HAL_RCCEx_PeriphCLKConfig+0x160>)
 80040ba:	6a1b      	ldr	r3, [r3, #32]
 80040bc:	f003 0302 	and.w	r3, r3, #2
 80040c0:	2b00      	cmp	r3, #0
 80040c2:	d0ee      	beq.n	80040a2 <HAL_RCCEx_PeriphCLKConfig+0xd2>
          }
        }
      }
    }
    __HAL_RCC_RTC_CONFIG(PeriphClkInit->RTCClockSelection);
 80040c4:	4b1a      	ldr	r3, [pc, #104]	; (8004130 <HAL_RCCEx_PeriphCLKConfig+0x160>)
 80040c6:	6a1b      	ldr	r3, [r3, #32]
 80040c8:	f423 7240 	bic.w	r2, r3, #768	; 0x300
 80040cc:	687b      	ldr	r3, [r7, #4]
 80040ce:	685b      	ldr	r3, [r3, #4]
 80040d0:	4917      	ldr	r1, [pc, #92]	; (8004130 <HAL_RCCEx_PeriphCLKConfig+0x160>)
 80040d2:	4313      	orrs	r3, r2
 80040d4:	620b      	str	r3, [r1, #32]

    /* Require to disable power clock if necessary */
    if (pwrclkchanged == SET)
 80040d6:	7dfb      	ldrb	r3, [r7, #23]
 80040d8:	2b01      	cmp	r3, #1
 80040da:	d105      	bne.n	80040e8 <HAL_RCCEx_PeriphCLKConfig+0x118>
    {
      __HAL_RCC_PWR_CLK_DISABLE();
 80040dc:	4b14      	ldr	r3, [pc, #80]	; (8004130 <HAL_RCCEx_PeriphCLKConfig+0x160>)
 80040de:	69db      	ldr	r3, [r3, #28]
 80040e0:	4a13      	ldr	r2, [pc, #76]	; (8004130 <HAL_RCCEx_PeriphCLKConfig+0x160>)
 80040e2:	f023 5380 	bic.w	r3, r3, #268435456	; 0x10000000
 80040e6:	61d3      	str	r3, [r2, #28]
    }
  }

  /*------------------------------ ADC clock Configuration ------------------*/
  if (((PeriphClkInit->PeriphClockSelection) & RCC_PERIPHCLK_ADC) == RCC_PERIPHCLK_ADC)
 80040e8:	687b      	ldr	r3, [r7, #4]
 80040ea:	681b      	ldr	r3, [r3, #0]
 80040ec:	f003 0302 	and.w	r3, r3, #2
 80040f0:	2b00      	cmp	r3, #0
 80040f2:	d008      	beq.n	8004106 <HAL_RCCEx_PeriphCLKConfig+0x136>
  {
    /* Check the parameters */
    assert_param(IS_RCC_ADCPLLCLK_DIV(PeriphClkInit->AdcClockSelection));

    /* Configure the ADC clock source */
    __HAL_RCC_ADC_CONFIG(PeriphClkInit->AdcClockSelection);
 80040f4:	4b0e      	ldr	r3, [pc, #56]	; (8004130 <HAL_RCCEx_PeriphCLKConfig+0x160>)
 80040f6:	685b      	ldr	r3, [r3, #4]
 80040f8:	f423 4240 	bic.w	r2, r3, #49152	; 0xc000
 80040fc:	687b      	ldr	r3, [r7, #4]
 80040fe:	689b      	ldr	r3, [r3, #8]
 8004100:	490b      	ldr	r1, [pc, #44]	; (8004130 <HAL_RCCEx_PeriphCLKConfig+0x160>)
 8004102:	4313      	orrs	r3, r2
 8004104:	604b      	str	r3, [r1, #4]

#if defined(STM32F102x6) || defined(STM32F102xB) || defined(STM32F103x6)\
 || defined(STM32F103xB) || defined(STM32F103xE) || defined(STM32F103xG)\
 || defined(STM32F105xC) || defined(STM32F107xC)
  /*------------------------------ USB clock Configuration ------------------*/
  if (((PeriphClkInit->PeriphClockSelection) & RCC_PERIPHCLK_USB) == RCC_PERIPHCLK_USB)
 8004106:	687b      	ldr	r3, [r7, #4]
 8004108:	681b      	ldr	r3, [r3, #0]
 800410a:	f003 0310 	and.w	r3, r3, #16
 800410e:	2b00      	cmp	r3, #0
 8004110:	d008      	beq.n	8004124 <HAL_RCCEx_PeriphCLKConfig+0x154>
  {
    /* Check the parameters */
    assert_param(IS_RCC_USBPLLCLK_DIV(PeriphClkInit->UsbClockSelection));

    /* Configure the USB clock source */
    __HAL_RCC_USB_CONFIG(PeriphClkInit->UsbClockSelection);
 8004112:	4b07      	ldr	r3, [pc, #28]	; (8004130 <HAL_RCCEx_PeriphCLKConfig+0x160>)
 8004114:	685b      	ldr	r3, [r3, #4]
 8004116:	f423 0280 	bic.w	r2, r3, #4194304	; 0x400000
 800411a:	687b      	ldr	r3, [r7, #4]
 800411c:	68db      	ldr	r3, [r3, #12]
 800411e:	4904      	ldr	r1, [pc, #16]	; (8004130 <HAL_RCCEx_PeriphCLKConfig+0x160>)
 8004120:	4313      	orrs	r3, r2
 8004122:	604b      	str	r3, [r1, #4]
  }
#endif /* STM32F102x6 || STM32F102xB || STM32F103x6 || STM32F103xB || STM32F103xE || STM32F103xG || STM32F105xC || STM32F107xC */

  return HAL_OK;
 8004124:	2300      	movs	r3, #0
}
 8004126:	4618      	mov	r0, r3
 8004128:	3718      	adds	r7, #24
 800412a:	46bd      	mov	sp, r7
 800412c:	bd80      	pop	{r7, pc}
 800412e:	bf00      	nop
 8004130:	40021000 	.word	0x40021000
 8004134:	40007000 	.word	0x40007000
 8004138:	42420440 	.word	0x42420440

0800413c <HAL_TIM_Base_Init>:
  *         Ex: call @ref HAL_TIM_Base_DeInit() before HAL_TIM_Base_Init()
  * @param  htim TIM Base handle
  * @retval HAL status
  */
HAL_StatusTypeDef HAL_TIM_Base_Init(TIM_HandleTypeDef *htim)
{
 800413c:	b580      	push	{r7, lr}
 800413e:	b082      	sub	sp, #8
 8004140:	af00      	add	r7, sp, #0
 8004142:	6078      	str	r0, [r7, #4]
  /* Check the TIM handle allocation */
  if (htim == NULL)
 8004144:	687b      	ldr	r3, [r7, #4]
 8004146:	2b00      	cmp	r3, #0
 8004148:	d101      	bne.n	800414e <HAL_TIM_Base_Init+0x12>
  {
    return HAL_ERROR;
 800414a:	2301      	movs	r3, #1
 800414c:	e01d      	b.n	800418a <HAL_TIM_Base_Init+0x4e>
  assert_param(IS_TIM_INSTANCE(htim->Instance));
  assert_param(IS_TIM_COUNTER_MODE(htim->Init.CounterMode));
  assert_param(IS_TIM_CLOCKDIVISION_DIV(htim->Init.ClockDivision));
  assert_param(IS_TIM_AUTORELOAD_PRELOAD(htim->Init.AutoReloadPreload));

  if (htim->State == HAL_TIM_STATE_RESET)
 800414e:	687b      	ldr	r3, [r7, #4]
 8004150:	f893 303d 	ldrb.w	r3, [r3, #61]	; 0x3d
 8004154:	b2db      	uxtb	r3, r3
 8004156:	2b00      	cmp	r3, #0
 8004158:	d106      	bne.n	8004168 <HAL_TIM_Base_Init+0x2c>
  {
    /* Allocate lock resource and initialize it */
    htim->Lock = HAL_UNLOCKED;
 800415a:	687b      	ldr	r3, [r7, #4]
 800415c:	2200      	movs	r2, #0
 800415e:	f883 203c 	strb.w	r2, [r3, #60]	; 0x3c
    }
    /* Init the low level hardware : GPIO, CLOCK, NVIC */
    htim->Base_MspInitCallback(htim);
#else
    /* Init the low level hardware : GPIO, CLOCK, NVIC */
    HAL_TIM_Base_MspInit(htim);
 8004162:	6878      	ldr	r0, [r7, #4]
 8004164:	f000 f815 	bl	8004192 <HAL_TIM_Base_MspInit>
#endif /* USE_HAL_TIM_REGISTER_CALLBACKS */
  }

  /* Set the TIM state */
  htim->State = HAL_TIM_STATE_BUSY;
 8004168:	687b      	ldr	r3, [r7, #4]
 800416a:	2202      	movs	r2, #2
 800416c:	f883 203d 	strb.w	r2, [r3, #61]	; 0x3d

  /* Set the Time Base configuration */
  TIM_Base_SetConfig(htim->Instance, &htim->Init);
 8004170:	687b      	ldr	r3, [r7, #4]
 8004172:	681a      	ldr	r2, [r3, #0]
 8004174:	687b      	ldr	r3, [r7, #4]
 8004176:	3304      	adds	r3, #4
 8004178:	4619      	mov	r1, r3
 800417a:	4610      	mov	r0, r2
 800417c:	f000 f962 	bl	8004444 <TIM_Base_SetConfig>

  /* Initialize the TIM state*/
  htim->State = HAL_TIM_STATE_READY;
 8004180:	687b      	ldr	r3, [r7, #4]
 8004182:	2201      	movs	r2, #1
 8004184:	f883 203d 	strb.w	r2, [r3, #61]	; 0x3d

  return HAL_OK;
 8004188:	2300      	movs	r3, #0
}
 800418a:	4618      	mov	r0, r3
 800418c:	3708      	adds	r7, #8
 800418e:	46bd      	mov	sp, r7
 8004190:	bd80      	pop	{r7, pc}

08004192 <HAL_TIM_Base_MspInit>:
  * @brief  Initializes the TIM Base MSP.
  * @param  htim TIM Base handle
  * @retval None
  */
__weak void HAL_TIM_Base_MspInit(TIM_HandleTypeDef *htim)
{
 8004192:	b480      	push	{r7}
 8004194:	b083      	sub	sp, #12
 8004196:	af00      	add	r7, sp, #0
 8004198:	6078      	str	r0, [r7, #4]
  UNUSED(htim);

  /* NOTE : This function should not be modified, when the callback is needed,
            the HAL_TIM_Base_MspInit could be implemented in the user file
   */
}
 800419a:	bf00      	nop
 800419c:	370c      	adds	r7, #12
 800419e:	46bd      	mov	sp, r7
 80041a0:	bc80      	pop	{r7}
 80041a2:	4770      	bx	lr

080041a4 <HAL_TIM_Base_Start_IT>:
  * @brief  Starts the TIM Base generation in interrupt mode.
  * @param  htim TIM Base handle
  * @retval HAL status
  */
HAL_StatusTypeDef HAL_TIM_Base_Start_IT(TIM_HandleTypeDef *htim)
{
 80041a4:	b480      	push	{r7}
 80041a6:	b085      	sub	sp, #20
 80041a8:	af00      	add	r7, sp, #0
 80041aa:	6078      	str	r0, [r7, #4]

  /* Check the parameters */
  assert_param(IS_TIM_INSTANCE(htim->Instance));

  /* Enable the TIM Update interrupt */
  __HAL_TIM_ENABLE_IT(htim, TIM_IT_UPDATE);
 80041ac:	687b      	ldr	r3, [r7, #4]
 80041ae:	681b      	ldr	r3, [r3, #0]
 80041b0:	68da      	ldr	r2, [r3, #12]
 80041b2:	687b      	ldr	r3, [r7, #4]
 80041b4:	681b      	ldr	r3, [r3, #0]
 80041b6:	f042 0201 	orr.w	r2, r2, #1
 80041ba:	60da      	str	r2, [r3, #12]

  /* Enable the Peripheral, except in trigger mode where enable is automatically done with trigger */
  tmpsmcr = htim->Instance->SMCR & TIM_SMCR_SMS;
 80041bc:	687b      	ldr	r3, [r7, #4]
 80041be:	681b      	ldr	r3, [r3, #0]
 80041c0:	689b      	ldr	r3, [r3, #8]
 80041c2:	f003 0307 	and.w	r3, r3, #7
 80041c6:	60fb      	str	r3, [r7, #12]
  if (!IS_TIM_SLAVEMODE_TRIGGER_ENABLED(tmpsmcr))
 80041c8:	68fb      	ldr	r3, [r7, #12]
 80041ca:	2b06      	cmp	r3, #6
 80041cc:	d007      	beq.n	80041de <HAL_TIM_Base_Start_IT+0x3a>
  {
    __HAL_TIM_ENABLE(htim);
 80041ce:	687b      	ldr	r3, [r7, #4]
 80041d0:	681b      	ldr	r3, [r3, #0]
 80041d2:	681a      	ldr	r2, [r3, #0]
 80041d4:	687b      	ldr	r3, [r7, #4]
 80041d6:	681b      	ldr	r3, [r3, #0]
 80041d8:	f042 0201 	orr.w	r2, r2, #1
 80041dc:	601a      	str	r2, [r3, #0]
  }

  /* Return function status */
  return HAL_OK;
 80041de:	2300      	movs	r3, #0
}
 80041e0:	4618      	mov	r0, r3
 80041e2:	3714      	adds	r7, #20
 80041e4:	46bd      	mov	sp, r7
 80041e6:	bc80      	pop	{r7}
 80041e8:	4770      	bx	lr

080041ea <HAL_TIM_IRQHandler>:
  * @brief  This function handles TIM interrupts requests.
  * @param  htim TIM  handle
  * @retval None
  */
void HAL_TIM_IRQHandler(TIM_HandleTypeDef *htim)
{
 80041ea:	b580      	push	{r7, lr}
 80041ec:	b082      	sub	sp, #8
 80041ee:	af00      	add	r7, sp, #0
 80041f0:	6078      	str	r0, [r7, #4]
  /* Capture compare 1 event */
  if (__HAL_TIM_GET_FLAG(htim, TIM_FLAG_CC1) != RESET)
 80041f2:	687b      	ldr	r3, [r7, #4]
 80041f4:	681b      	ldr	r3, [r3, #0]
 80041f6:	691b      	ldr	r3, [r3, #16]
 80041f8:	f003 0302 	and.w	r3, r3, #2
 80041fc:	2b02      	cmp	r3, #2
 80041fe:	d122      	bne.n	8004246 <HAL_TIM_IRQHandler+0x5c>
  {
    if (__HAL_TIM_GET_IT_SOURCE(htim, TIM_IT_CC1) != RESET)
 8004200:	687b      	ldr	r3, [r7, #4]
 8004202:	681b      	ldr	r3, [r3, #0]
 8004204:	68db      	ldr	r3, [r3, #12]
 8004206:	f003 0302 	and.w	r3, r3, #2
 800420a:	2b02      	cmp	r3, #2
 800420c:	d11b      	bne.n	8004246 <HAL_TIM_IRQHandler+0x5c>
    {
      {
        __HAL_TIM_CLEAR_IT(htim, TIM_IT_CC1);
 800420e:	687b      	ldr	r3, [r7, #4]
 8004210:	681b      	ldr	r3, [r3, #0]
 8004212:	f06f 0202 	mvn.w	r2, #2
 8004216:	611a      	str	r2, [r3, #16]
        htim->Channel = HAL_TIM_ACTIVE_CHANNEL_1;
 8004218:	687b      	ldr	r3, [r7, #4]
 800421a:	2201      	movs	r2, #1
 800421c:	771a      	strb	r2, [r3, #28]

        /* Input capture event */
        if ((htim->Instance->CCMR1 & TIM_CCMR1_CC1S) != 0x00U)
 800421e:	687b      	ldr	r3, [r7, #4]
 8004220:	681b      	ldr	r3, [r3, #0]
 8004222:	699b      	ldr	r3, [r3, #24]
 8004224:	f003 0303 	and.w	r3, r3, #3
 8004228:	2b00      	cmp	r3, #0
 800422a:	d003      	beq.n	8004234 <HAL_TIM_IRQHandler+0x4a>
        {
#if (USE_HAL_TIM_REGISTER_CALLBACKS == 1)
          htim->IC_CaptureCallback(htim);
#else
          HAL_TIM_IC_CaptureCallback(htim);
 800422c:	6878      	ldr	r0, [r7, #4]
 800422e:	f000 f8ed 	bl	800440c <HAL_TIM_IC_CaptureCallback>
 8004232:	e005      	b.n	8004240 <HAL_TIM_IRQHandler+0x56>
        {
#if (USE_HAL_TIM_REGISTER_CALLBACKS == 1)
          htim->OC_DelayElapsedCallback(htim);
          htim->PWM_PulseFinishedCallback(htim);
#else
          HAL_TIM_OC_DelayElapsedCallback(htim);
 8004234:	6878      	ldr	r0, [r7, #4]
 8004236:	f000 f8e0 	bl	80043fa <HAL_TIM_OC_DelayElapsedCallback>
          HAL_TIM_PWM_PulseFinishedCallback(htim);
 800423a:	6878      	ldr	r0, [r7, #4]
 800423c:	f000 f8ef 	bl	800441e <HAL_TIM_PWM_PulseFinishedCallback>
#endif /* USE_HAL_TIM_REGISTER_CALLBACKS */
        }
        htim->Channel = HAL_TIM_ACTIVE_CHANNEL_CLEARED;
 8004240:	687b      	ldr	r3, [r7, #4]
 8004242:	2200      	movs	r2, #0
 8004244:	771a      	strb	r2, [r3, #28]
      }
    }
  }
  /* Capture compare 2 event */
  if (__HAL_TIM_GET_FLAG(htim, TIM_FLAG_CC2) != RESET)
 8004246:	687b      	ldr	r3, [r7, #4]
 8004248:	681b      	ldr	r3, [r3, #0]
 800424a:	691b      	ldr	r3, [r3, #16]
 800424c:	f003 0304 	and.w	r3, r3, #4
 8004250:	2b04      	cmp	r3, #4
 8004252:	d122      	bne.n	800429a <HAL_TIM_IRQHandler+0xb0>
  {
    if (__HAL_TIM_GET_IT_SOURCE(htim, TIM_IT_CC2) != RESET)
 8004254:	687b      	ldr	r3, [r7, #4]
 8004256:	681b      	ldr	r3, [r3, #0]
 8004258:	68db      	ldr	r3, [r3, #12]
 800425a:	f003 0304 	and.w	r3, r3, #4
 800425e:	2b04      	cmp	r3, #4
 8004260:	d11b      	bne.n	800429a <HAL_TIM_IRQHandler+0xb0>
    {
      __HAL_TIM_CLEAR_IT(htim, TIM_IT_CC2);
 8004262:	687b      	ldr	r3, [r7, #4]
 8004264:	681b      	ldr	r3, [r3, #0]
 8004266:	f06f 0204 	mvn.w	r2, #4
 800426a:	611a      	str	r2, [r3, #16]
      htim->Channel = HAL_TIM_ACTIVE_CHANNEL_2;
 800426c:	687b      	ldr	r3, [r7, #4]
 800426e:	2202      	movs	r2, #2
 8004270:	771a      	strb	r2, [r3, #28]
      /* Input capture event */
      if ((htim->Instance->CCMR1 & TIM_CCMR1_CC2S) != 0x00U)
 8004272:	687b      	ldr	r3, [r7, #4]
 8004274:	681b      	ldr	r3, [r3, #0]
 8004276:	699b      	ldr	r3, [r3, #24]
 8004278:	f403 7340 	and.w	r3, r3, #768	; 0x300
 800427c:	2b00      	cmp	r3, #0
 800427e:	d003      	beq.n	8004288 <HAL_TIM_IRQHandler+0x9e>
      {
#if (USE_HAL_TIM_REGISTER_CALLBACKS == 1)
        htim->IC_CaptureCallback(htim);
#else
        HAL_TIM_IC_CaptureCallback(htim);
 8004280:	6878      	ldr	r0, [r7, #4]
 8004282:	f000 f8c3 	bl	800440c <HAL_TIM_IC_CaptureCallback>
 8004286:	e005      	b.n	8004294 <HAL_TIM_IRQHandler+0xaa>
      {
#if (USE_HAL_TIM_REGISTER_CALLBACKS == 1)
        htim->OC_DelayElapsedCallback(htim);
        htim->PWM_PulseFinishedCallback(htim);
#else
        HAL_TIM_OC_DelayElapsedCallback(htim);
 8004288:	6878      	ldr	r0, [r7, #4]
 800428a:	f000 f8b6 	bl	80043fa <HAL_TIM_OC_DelayElapsedCallback>
        HAL_TIM_PWM_PulseFinishedCallback(htim);
 800428e:	6878      	ldr	r0, [r7, #4]
 8004290:	f000 f8c5 	bl	800441e <HAL_TIM_PWM_PulseFinishedCallback>
#endif /* USE_HAL_TIM_REGISTER_CALLBACKS */
      }
      htim->Channel = HAL_TIM_ACTIVE_CHANNEL_CLEARED;
 8004294:	687b      	ldr	r3, [r7, #4]
 8004296:	2200      	movs	r2, #0
 8004298:	771a      	strb	r2, [r3, #28]
    }
  }
  /* Capture compare 3 event */
  if (__HAL_TIM_GET_FLAG(htim, TIM_FLAG_CC3) != RESET)
 800429a:	687b      	ldr	r3, [r7, #4]
 800429c:	681b      	ldr	r3, [r3, #0]
 800429e:	691b      	ldr	r3, [r3, #16]
 80042a0:	f003 0308 	and.w	r3, r3, #8
 80042a4:	2b08      	cmp	r3, #8
 80042a6:	d122      	bne.n	80042ee <HAL_TIM_IRQHandler+0x104>
  {
    if (__HAL_TIM_GET_IT_SOURCE(htim, TIM_IT_CC3) != RESET)
 80042a8:	687b      	ldr	r3, [r7, #4]
 80042aa:	681b      	ldr	r3, [r3, #0]
 80042ac:	68db      	ldr	r3, [r3, #12]
 80042ae:	f003 0308 	and.w	r3, r3, #8
 80042b2:	2b08      	cmp	r3, #8
 80042b4:	d11b      	bne.n	80042ee <HAL_TIM_IRQHandler+0x104>
    {
      __HAL_TIM_CLEAR_IT(htim, TIM_IT_CC3);
 80042b6:	687b      	ldr	r3, [r7, #4]
 80042b8:	681b      	ldr	r3, [r3, #0]
 80042ba:	f06f 0208 	mvn.w	r2, #8
 80042be:	611a      	str	r2, [r3, #16]
      htim->Channel = HAL_TIM_ACTIVE_CHANNEL_3;
 80042c0:	687b      	ldr	r3, [r7, #4]
 80042c2:	2204      	movs	r2, #4
 80042c4:	771a      	strb	r2, [r3, #28]
      /* Input capture event */
      if ((htim->Instance->CCMR2 & TIM_CCMR2_CC3S) != 0x00U)
 80042c6:	687b      	ldr	r3, [r7, #4]
 80042c8:	681b      	ldr	r3, [r3, #0]
 80042ca:	69db      	ldr	r3, [r3, #28]
 80042cc:	f003 0303 	and.w	r3, r3, #3
 80042d0:	2b00      	cmp	r3, #0
 80042d2:	d003      	beq.n	80042dc <HAL_TIM_IRQHandler+0xf2>
      {
#if (USE_HAL_TIM_REGISTER_CALLBACKS == 1)
        htim->IC_CaptureCallback(htim);
#else
        HAL_TIM_IC_CaptureCallback(htim);
 80042d4:	6878      	ldr	r0, [r7, #4]
 80042d6:	f000 f899 	bl	800440c <HAL_TIM_IC_CaptureCallback>
 80042da:	e005      	b.n	80042e8 <HAL_TIM_IRQHandler+0xfe>
      {
#if (USE_HAL_TIM_REGISTER_CALLBACKS == 1)
        htim->OC_DelayElapsedCallback(htim);
        htim->PWM_PulseFinishedCallback(htim);
#else
        HAL_TIM_OC_DelayElapsedCallback(htim);
 80042dc:	6878      	ldr	r0, [r7, #4]
 80042de:	f000 f88c 	bl	80043fa <HAL_TIM_OC_DelayElapsedCallback>
        HAL_TIM_PWM_PulseFinishedCallback(htim);
 80042e2:	6878      	ldr	r0, [r7, #4]
 80042e4:	f000 f89b 	bl	800441e <HAL_TIM_PWM_PulseFinishedCallback>
#endif /* USE_HAL_TIM_REGISTER_CALLBACKS */
      }
      htim->Channel = HAL_TIM_ACTIVE_CHANNEL_CLEARED;
 80042e8:	687b      	ldr	r3, [r7, #4]
 80042ea:	2200      	movs	r2, #0
 80042ec:	771a      	strb	r2, [r3, #28]
    }
  }
  /* Capture compare 4 event */
  if (__HAL_TIM_GET_FLAG(htim, TIM_FLAG_CC4) != RESET)
 80042ee:	687b      	ldr	r3, [r7, #4]
 80042f0:	681b      	ldr	r3, [r3, #0]
 80042f2:	691b      	ldr	r3, [r3, #16]
 80042f4:	f003 0310 	and.w	r3, r3, #16
 80042f8:	2b10      	cmp	r3, #16
 80042fa:	d122      	bne.n	8004342 <HAL_TIM_IRQHandler+0x158>
  {
    if (__HAL_TIM_GET_IT_SOURCE(htim, TIM_IT_CC4) != RESET)
 80042fc:	687b      	ldr	r3, [r7, #4]
 80042fe:	681b      	ldr	r3, [r3, #0]
 8004300:	68db      	ldr	r3, [r3, #12]
 8004302:	f003 0310 	and.w	r3, r3, #16
 8004306:	2b10      	cmp	r3, #16
 8004308:	d11b      	bne.n	8004342 <HAL_TIM_IRQHandler+0x158>
    {
      __HAL_TIM_CLEAR_IT(htim, TIM_IT_CC4);
 800430a:	687b      	ldr	r3, [r7, #4]
 800430c:	681b      	ldr	r3, [r3, #0]
 800430e:	f06f 0210 	mvn.w	r2, #16
 8004312:	611a      	str	r2, [r3, #16]
      htim->Channel = HAL_TIM_ACTIVE_CHANNEL_4;
 8004314:	687b      	ldr	r3, [r7, #4]
 8004316:	2208      	movs	r2, #8
 8004318:	771a      	strb	r2, [r3, #28]
      /* Input capture event */
      if ((htim->Instance->CCMR2 & TIM_CCMR2_CC4S) != 0x00U)
 800431a:	687b      	ldr	r3, [r7, #4]
 800431c:	681b      	ldr	r3, [r3, #0]
 800431e:	69db      	ldr	r3, [r3, #28]
 8004320:	f403 7340 	and.w	r3, r3, #768	; 0x300
 8004324:	2b00      	cmp	r3, #0
 8004326:	d003      	beq.n	8004330 <HAL_TIM_IRQHandler+0x146>
      {
#if (USE_HAL_TIM_REGISTER_CALLBACKS == 1)
        htim->IC_CaptureCallback(htim);
#else
        HAL_TIM_IC_CaptureCallback(htim);
 8004328:	6878      	ldr	r0, [r7, #4]
 800432a:	f000 f86f 	bl	800440c <HAL_TIM_IC_CaptureCallback>
 800432e:	e005      	b.n	800433c <HAL_TIM_IRQHandler+0x152>
      {
#if (USE_HAL_TIM_REGISTER_CALLBACKS == 1)
        htim->OC_DelayElapsedCallback(htim);
        htim->PWM_PulseFinishedCallback(htim);
#else
        HAL_TIM_OC_DelayElapsedCallback(htim);
 8004330:	6878      	ldr	r0, [r7, #4]
 8004332:	f000 f862 	bl	80043fa <HAL_TIM_OC_DelayElapsedCallback>
        HAL_TIM_PWM_PulseFinishedCallback(htim);
 8004336:	6878      	ldr	r0, [r7, #4]
 8004338:	f000 f871 	bl	800441e <HAL_TIM_PWM_PulseFinishedCallback>
#endif /* USE_HAL_TIM_REGISTER_CALLBACKS */
      }
      htim->Channel = HAL_TIM_ACTIVE_CHANNEL_CLEARED;
 800433c:	687b      	ldr	r3, [r7, #4]
 800433e:	2200      	movs	r2, #0
 8004340:	771a      	strb	r2, [r3, #28]
    }
  }
  /* TIM Update event */
  if (__HAL_TIM_GET_FLAG(htim, TIM_FLAG_UPDATE) != RESET)
 8004342:	687b      	ldr	r3, [r7, #4]
 8004344:	681b      	ldr	r3, [r3, #0]
 8004346:	691b      	ldr	r3, [r3, #16]
 8004348:	f003 0301 	and.w	r3, r3, #1
 800434c:	2b01      	cmp	r3, #1
 800434e:	d10e      	bne.n	800436e <HAL_TIM_IRQHandler+0x184>
  {
    if (__HAL_TIM_GET_IT_SOURCE(htim, TIM_IT_UPDATE) != RESET)
 8004350:	687b      	ldr	r3, [r7, #4]
 8004352:	681b      	ldr	r3, [r3, #0]
 8004354:	68db      	ldr	r3, [r3, #12]
 8004356:	f003 0301 	and.w	r3, r3, #1
 800435a:	2b01      	cmp	r3, #1
 800435c:	d107      	bne.n	800436e <HAL_TIM_IRQHandler+0x184>
    {
      __HAL_TIM_CLEAR_IT(htim, TIM_IT_UPDATE);
 800435e:	687b      	ldr	r3, [r7, #4]
 8004360:	681b      	ldr	r3, [r3, #0]
 8004362:	f06f 0201 	mvn.w	r2, #1
 8004366:	611a      	str	r2, [r3, #16]
#if (USE_HAL_TIM_REGISTER_CALLBACKS == 1)
      htim->PeriodElapsedCallback(htim);
#else
      HAL_TIM_PeriodElapsedCallback(htim);
 8004368:	6878      	ldr	r0, [r7, #4]
 800436a:	f7fc fb81 	bl	8000a70 <HAL_TIM_PeriodElapsedCallback>
#endif /* USE_HAL_TIM_REGISTER_CALLBACKS */
    }
  }
  /* TIM Break input event */
  if (__HAL_TIM_GET_FLAG(htim, TIM_FLAG_BREAK) != RESET)
 800436e:	687b      	ldr	r3, [r7, #4]
 8004370:	681b      	ldr	r3, [r3, #0]
 8004372:	691b      	ldr	r3, [r3, #16]
 8004374:	f003 0380 	and.w	r3, r3, #128	; 0x80
 8004378:	2b80      	cmp	r3, #128	; 0x80
 800437a:	d10e      	bne.n	800439a <HAL_TIM_IRQHandler+0x1b0>
  {
    if (__HAL_TIM_GET_IT_SOURCE(htim, TIM_IT_BREAK) != RESET)
 800437c:	687b      	ldr	r3, [r7, #4]
 800437e:	681b      	ldr	r3, [r3, #0]
 8004380:	68db      	ldr	r3, [r3, #12]
 8004382:	f003 0380 	and.w	r3, r3, #128	; 0x80
 8004386:	2b80      	cmp	r3, #128	; 0x80
 8004388:	d107      	bne.n	800439a <HAL_TIM_IRQHandler+0x1b0>
    {
      __HAL_TIM_CLEAR_IT(htim, TIM_IT_BREAK);
 800438a:	687b      	ldr	r3, [r7, #4]
 800438c:	681b      	ldr	r3, [r3, #0]
 800438e:	f06f 0280 	mvn.w	r2, #128	; 0x80
 8004392:	611a      	str	r2, [r3, #16]
#if (USE_HAL_TIM_REGISTER_CALLBACKS == 1)
      htim->BreakCallback(htim);
#else
      HAL_TIMEx_BreakCallback(htim);
 8004394:	6878      	ldr	r0, [r7, #4]
 8004396:	f000 f8c0 	bl	800451a <HAL_TIMEx_BreakCallback>
#endif /* USE_HAL_TIM_REGISTER_CALLBACKS */
    }
  }
  /* TIM Trigger detection event */
  if (__HAL_TIM_GET_FLAG(htim, TIM_FLAG_TRIGGER) != RESET)
 800439a:	687b      	ldr	r3, [r7, #4]
 800439c:	681b      	ldr	r3, [r3, #0]
 800439e:	691b      	ldr	r3, [r3, #16]
 80043a0:	f003 0340 	and.w	r3, r3, #64	; 0x40
 80043a4:	2b40      	cmp	r3, #64	; 0x40
 80043a6:	d10e      	bne.n	80043c6 <HAL_TIM_IRQHandler+0x1dc>
  {
    if (__HAL_TIM_GET_IT_SOURCE(htim, TIM_IT_TRIGGER) != RESET)
 80043a8:	687b      	ldr	r3, [r7, #4]
 80043aa:	681b      	ldr	r3, [r3, #0]
 80043ac:	68db      	ldr	r3, [r3, #12]
 80043ae:	f003 0340 	and.w	r3, r3, #64	; 0x40
 80043b2:	2b40      	cmp	r3, #64	; 0x40
 80043b4:	d107      	bne.n	80043c6 <HAL_TIM_IRQHandler+0x1dc>
    {
      __HAL_TIM_CLEAR_IT(htim, TIM_IT_TRIGGER);
 80043b6:	687b      	ldr	r3, [r7, #4]
 80043b8:	681b      	ldr	r3, [r3, #0]
 80043ba:	f06f 0240 	mvn.w	r2, #64	; 0x40
 80043be:	611a      	str	r2, [r3, #16]
#if (USE_HAL_TIM_REGISTER_CALLBACKS == 1)
      htim->TriggerCallback(htim);
#else
      HAL_TIM_TriggerCallback(htim);
 80043c0:	6878      	ldr	r0, [r7, #4]
 80043c2:	f000 f835 	bl	8004430 <HAL_TIM_TriggerCallback>
#endif /* USE_HAL_TIM_REGISTER_CALLBACKS */
    }
  }
  /* TIM commutation event */
  if (__HAL_TIM_GET_FLAG(htim, TIM_FLAG_COM) != RESET)
 80043c6:	687b      	ldr	r3, [r7, #4]
 80043c8:	681b      	ldr	r3, [r3, #0]
 80043ca:	691b      	ldr	r3, [r3, #16]
 80043cc:	f003 0320 	and.w	r3, r3, #32
 80043d0:	2b20      	cmp	r3, #32
 80043d2:	d10e      	bne.n	80043f2 <HAL_TIM_IRQHandler+0x208>
  {
    if (__HAL_TIM_GET_IT_SOURCE(htim, TIM_IT_COM) != RESET)
 80043d4:	687b      	ldr	r3, [r7, #4]
 80043d6:	681b      	ldr	r3, [r3, #0]
 80043d8:	68db      	ldr	r3, [r3, #12]
 80043da:	f003 0320 	and.w	r3, r3, #32
 80043de:	2b20      	cmp	r3, #32
 80043e0:	d107      	bne.n	80043f2 <HAL_TIM_IRQHandler+0x208>
    {
      __HAL_TIM_CLEAR_IT(htim, TIM_FLAG_COM);
 80043e2:	687b      	ldr	r3, [r7, #4]
 80043e4:	681b      	ldr	r3, [r3, #0]
 80043e6:	f06f 0220 	mvn.w	r2, #32
 80043ea:	611a      	str	r2, [r3, #16]
#if (USE_HAL_TIM_REGISTER_CALLBACKS == 1)
      htim->CommutationCallback(htim);
#else
      HAL_TIMEx_CommutCallback(htim);
 80043ec:	6878      	ldr	r0, [r7, #4]
 80043ee:	f000 f88b 	bl	8004508 <HAL_TIMEx_CommutCallback>
#endif /* USE_HAL_TIM_REGISTER_CALLBACKS */
    }
  }
}
 80043f2:	bf00      	nop
 80043f4:	3708      	adds	r7, #8
 80043f6:	46bd      	mov	sp, r7
 80043f8:	bd80      	pop	{r7, pc}

080043fa <HAL_TIM_OC_DelayElapsedCallback>:
  * @brief  Output Compare callback in non-blocking mode
  * @param  htim TIM OC handle
  * @retval None
  */
__weak void HAL_TIM_OC_DelayElapsedCallback(TIM_HandleTypeDef *htim)
{
 80043fa:	b480      	push	{r7}
 80043fc:	b083      	sub	sp, #12
 80043fe:	af00      	add	r7, sp, #0
 8004400:	6078      	str	r0, [r7, #4]
  UNUSED(htim);

  /* NOTE : This function should not be modified, when the callback is needed,
            the HAL_TIM_OC_DelayElapsedCallback could be implemented in the user file
   */
}
 8004402:	bf00      	nop
 8004404:	370c      	adds	r7, #12
 8004406:	46bd      	mov	sp, r7
 8004408:	bc80      	pop	{r7}
 800440a:	4770      	bx	lr

0800440c <HAL_TIM_IC_CaptureCallback>:
  * @brief  Input Capture callback in non-blocking mode
  * @param  htim TIM IC handle
  * @retval None
  */
__weak void HAL_TIM_IC_CaptureCallback(TIM_HandleTypeDef *htim)
{
 800440c:	b480      	push	{r7}
 800440e:	b083      	sub	sp, #12
 8004410:	af00      	add	r7, sp, #0
 8004412:	6078      	str	r0, [r7, #4]
  UNUSED(htim);

  /* NOTE : This function should not be modified, when the callback is needed,
            the HAL_TIM_IC_CaptureCallback could be implemented in the user file
   */
}
 8004414:	bf00      	nop
 8004416:	370c      	adds	r7, #12
 8004418:	46bd      	mov	sp, r7
 800441a:	bc80      	pop	{r7}
 800441c:	4770      	bx	lr

0800441e <HAL_TIM_PWM_PulseFinishedCallback>:
  * @brief  PWM Pulse finished callback in non-blocking mode
  * @param  htim TIM handle
  * @retval None
  */
__weak void HAL_TIM_PWM_PulseFinishedCallback(TIM_HandleTypeDef *htim)
{
 800441e:	b480      	push	{r7}
 8004420:	b083      	sub	sp, #12
 8004422:	af00      	add	r7, sp, #0
 8004424:	6078      	str	r0, [r7, #4]
  UNUSED(htim);

  /* NOTE : This function should not be modified, when the callback is needed,
            the HAL_TIM_PWM_PulseFinishedCallback could be implemented in the user file
   */
}
 8004426:	bf00      	nop
 8004428:	370c      	adds	r7, #12
 800442a:	46bd      	mov	sp, r7
 800442c:	bc80      	pop	{r7}
 800442e:	4770      	bx	lr

08004430 <HAL_TIM_TriggerCallback>:
  * @brief  Hall Trigger detection callback in non-blocking mode
  * @param  htim TIM handle
  * @retval None
  */
__weak void HAL_TIM_TriggerCallback(TIM_HandleTypeDef *htim)
{
 8004430:	b480      	push	{r7}
 8004432:	b083      	sub	sp, #12
 8004434:	af00      	add	r7, sp, #0
 8004436:	6078      	str	r0, [r7, #4]
  UNUSED(htim);

  /* NOTE : This function should not be modified, when the callback is needed,
            the HAL_TIM_TriggerCallback could be implemented in the user file
   */
}
 8004438:	bf00      	nop
 800443a:	370c      	adds	r7, #12
 800443c:	46bd      	mov	sp, r7
 800443e:	bc80      	pop	{r7}
 8004440:	4770      	bx	lr
	...

08004444 <TIM_Base_SetConfig>:
  * @param  TIMx TIM peripheral
  * @param  Structure TIM Base configuration structure
  * @retval None
  */
void TIM_Base_SetConfig(TIM_TypeDef *TIMx, TIM_Base_InitTypeDef *Structure)
{
 8004444:	b480      	push	{r7}
 8004446:	b085      	sub	sp, #20
 8004448:	af00      	add	r7, sp, #0
 800444a:	6078      	str	r0, [r7, #4]
 800444c:	6039      	str	r1, [r7, #0]
  uint32_t tmpcr1;
  tmpcr1 = TIMx->CR1;
 800444e:	687b      	ldr	r3, [r7, #4]
 8004450:	681b      	ldr	r3, [r3, #0]
 8004452:	60fb      	str	r3, [r7, #12]

  /* Set TIM Time Base Unit parameters ---------------------------------------*/
  if (IS_TIM_COUNTER_MODE_SELECT_INSTANCE(TIMx))
 8004454:	687b      	ldr	r3, [r7, #4]
 8004456:	4a29      	ldr	r2, [pc, #164]	; (80044fc <TIM_Base_SetConfig+0xb8>)
 8004458:	4293      	cmp	r3, r2
 800445a:	d00b      	beq.n	8004474 <TIM_Base_SetConfig+0x30>
 800445c:	687b      	ldr	r3, [r7, #4]
 800445e:	f1b3 4f80 	cmp.w	r3, #1073741824	; 0x40000000
 8004462:	d007      	beq.n	8004474 <TIM_Base_SetConfig+0x30>
 8004464:	687b      	ldr	r3, [r7, #4]
 8004466:	4a26      	ldr	r2, [pc, #152]	; (8004500 <TIM_Base_SetConfig+0xbc>)
 8004468:	4293      	cmp	r3, r2
 800446a:	d003      	beq.n	8004474 <TIM_Base_SetConfig+0x30>
 800446c:	687b      	ldr	r3, [r7, #4]
 800446e:	4a25      	ldr	r2, [pc, #148]	; (8004504 <TIM_Base_SetConfig+0xc0>)
 8004470:	4293      	cmp	r3, r2
 8004472:	d108      	bne.n	8004486 <TIM_Base_SetConfig+0x42>
  {
    /* Select the Counter Mode */
    tmpcr1 &= ~(TIM_CR1_DIR | TIM_CR1_CMS);
 8004474:	68fb      	ldr	r3, [r7, #12]
 8004476:	f023 0370 	bic.w	r3, r3, #112	; 0x70
 800447a:	60fb      	str	r3, [r7, #12]
    tmpcr1 |= Structure->CounterMode;
 800447c:	683b      	ldr	r3, [r7, #0]
 800447e:	685b      	ldr	r3, [r3, #4]
 8004480:	68fa      	ldr	r2, [r7, #12]
 8004482:	4313      	orrs	r3, r2
 8004484:	60fb      	str	r3, [r7, #12]
  }

  if (IS_TIM_CLOCK_DIVISION_INSTANCE(TIMx))
 8004486:	687b      	ldr	r3, [r7, #4]
 8004488:	4a1c      	ldr	r2, [pc, #112]	; (80044fc <TIM_Base_SetConfig+0xb8>)
 800448a:	4293      	cmp	r3, r2
 800448c:	d00b      	beq.n	80044a6 <TIM_Base_SetConfig+0x62>
 800448e:	687b      	ldr	r3, [r7, #4]
 8004490:	f1b3 4f80 	cmp.w	r3, #1073741824	; 0x40000000
 8004494:	d007      	beq.n	80044a6 <TIM_Base_SetConfig+0x62>
 8004496:	687b      	ldr	r3, [r7, #4]
 8004498:	4a19      	ldr	r2, [pc, #100]	; (8004500 <TIM_Base_SetConfig+0xbc>)
 800449a:	4293      	cmp	r3, r2
 800449c:	d003      	beq.n	80044a6 <TIM_Base_SetConfig+0x62>
 800449e:	687b      	ldr	r3, [r7, #4]
 80044a0:	4a18      	ldr	r2, [pc, #96]	; (8004504 <TIM_Base_SetConfig+0xc0>)
 80044a2:	4293      	cmp	r3, r2
 80044a4:	d108      	bne.n	80044b8 <TIM_Base_SetConfig+0x74>
  {
    /* Set the clock division */
    tmpcr1 &= ~TIM_CR1_CKD;
 80044a6:	68fb      	ldr	r3, [r7, #12]
 80044a8:	f423 7340 	bic.w	r3, r3, #768	; 0x300
 80044ac:	60fb      	str	r3, [r7, #12]
    tmpcr1 |= (uint32_t)Structure->ClockDivision;
 80044ae:	683b      	ldr	r3, [r7, #0]
 80044b0:	68db      	ldr	r3, [r3, #12]
 80044b2:	68fa      	ldr	r2, [r7, #12]
 80044b4:	4313      	orrs	r3, r2
 80044b6:	60fb      	str	r3, [r7, #12]
  }

  /* Set the auto-reload preload */
  MODIFY_REG(tmpcr1, TIM_CR1_ARPE, Structure->AutoReloadPreload);
 80044b8:	68fb      	ldr	r3, [r7, #12]
 80044ba:	f023 0280 	bic.w	r2, r3, #128	; 0x80
 80044be:	683b      	ldr	r3, [r7, #0]
 80044c0:	695b      	ldr	r3, [r3, #20]
 80044c2:	4313      	orrs	r3, r2
 80044c4:	60fb      	str	r3, [r7, #12]

  TIMx->CR1 = tmpcr1;
 80044c6:	687b      	ldr	r3, [r7, #4]
 80044c8:	68fa      	ldr	r2, [r7, #12]
 80044ca:	601a      	str	r2, [r3, #0]

  /* Set the Autoreload value */
  TIMx->ARR = (uint32_t)Structure->Period ;
 80044cc:	683b      	ldr	r3, [r7, #0]
 80044ce:	689a      	ldr	r2, [r3, #8]
 80044d0:	687b      	ldr	r3, [r7, #4]
 80044d2:	62da      	str	r2, [r3, #44]	; 0x2c

  /* Set the Prescaler value */
  TIMx->PSC = Structure->Prescaler;
 80044d4:	683b      	ldr	r3, [r7, #0]
 80044d6:	681a      	ldr	r2, [r3, #0]
 80044d8:	687b      	ldr	r3, [r7, #4]
 80044da:	629a      	str	r2, [r3, #40]	; 0x28

  if (IS_TIM_REPETITION_COUNTER_INSTANCE(TIMx))
 80044dc:	687b      	ldr	r3, [r7, #4]
 80044de:	4a07      	ldr	r2, [pc, #28]	; (80044fc <TIM_Base_SetConfig+0xb8>)
 80044e0:	4293      	cmp	r3, r2
 80044e2:	d103      	bne.n	80044ec <TIM_Base_SetConfig+0xa8>
  {
    /* Set the Repetition Counter value */
    TIMx->RCR = Structure->RepetitionCounter;
 80044e4:	683b      	ldr	r3, [r7, #0]
 80044e6:	691a      	ldr	r2, [r3, #16]
 80044e8:	687b      	ldr	r3, [r7, #4]
 80044ea:	631a      	str	r2, [r3, #48]	; 0x30
  }

  /* Generate an update event to reload the Prescaler
     and the repetition counter (only for advanced timer) value immediately */
  TIMx->EGR = TIM_EGR_UG;
 80044ec:	687b      	ldr	r3, [r7, #4]
 80044ee:	2201      	movs	r2, #1
 80044f0:	615a      	str	r2, [r3, #20]
}
 80044f2:	bf00      	nop
 80044f4:	3714      	adds	r7, #20
 80044f6:	46bd      	mov	sp, r7
 80044f8:	bc80      	pop	{r7}
 80044fa:	4770      	bx	lr
 80044fc:	40012c00 	.word	0x40012c00
 8004500:	40000400 	.word	0x40000400
 8004504:	40000800 	.word	0x40000800

08004508 <HAL_TIMEx_CommutCallback>:
  * @brief  Hall commutation changed callback in non-blocking mode
  * @param  htim TIM handle
  * @retval None
  */
__weak void HAL_TIMEx_CommutCallback(TIM_HandleTypeDef *htim)
{
 8004508:	b480      	push	{r7}
 800450a:	b083      	sub	sp, #12
 800450c:	af00      	add	r7, sp, #0
 800450e:	6078      	str	r0, [r7, #4]
  UNUSED(htim);

  /* NOTE : This function should not be modified, when the callback is needed,
            the HAL_TIMEx_CommutCallback could be implemented in the user file
   */
}
 8004510:	bf00      	nop
 8004512:	370c      	adds	r7, #12
 8004514:	46bd      	mov	sp, r7
 8004516:	bc80      	pop	{r7}
 8004518:	4770      	bx	lr

0800451a <HAL_TIMEx_BreakCallback>:
  * @brief  Hall Break detection callback in non-blocking mode
  * @param  htim TIM handle
  * @retval None
  */
__weak void HAL_TIMEx_BreakCallback(TIM_HandleTypeDef *htim)
{
 800451a:	b480      	push	{r7}
 800451c:	b083      	sub	sp, #12
 800451e:	af00      	add	r7, sp, #0
 8004520:	6078      	str	r0, [r7, #4]
  UNUSED(htim);

  /* NOTE : This function should not be modified, when the callback is needed,
            the HAL_TIMEx_BreakCallback could be implemented in the user file
   */
}
 8004522:	bf00      	nop
 8004524:	370c      	adds	r7, #12
 8004526:	46bd      	mov	sp, r7
 8004528:	bc80      	pop	{r7}
 800452a:	4770      	bx	lr

0800452c <HAL_UART_Init>:
  * @param  huart  Pointer to a UART_HandleTypeDef structure that contains
  *                the configuration information for the specified UART module.
  * @retval HAL status
  */
HAL_StatusTypeDef HAL_UART_Init(UART_HandleTypeDef *huart)
{
 800452c:	b580      	push	{r7, lr}
 800452e:	b082      	sub	sp, #8
 8004530:	af00      	add	r7, sp, #0
 8004532:	6078      	str	r0, [r7, #4]
  /* Check the UART handle allocation */
  if (huart == NULL)
 8004534:	687b      	ldr	r3, [r7, #4]
 8004536:	2b00      	cmp	r3, #0
 8004538:	d101      	bne.n	800453e <HAL_UART_Init+0x12>
  {
    return HAL_ERROR;
 800453a:	2301      	movs	r3, #1
 800453c:	e03f      	b.n	80045be <HAL_UART_Init+0x92>
  assert_param(IS_UART_WORD_LENGTH(huart->Init.WordLength));
#if defined(USART_CR1_OVER8)
  assert_param(IS_UART_OVERSAMPLING(huart->Init.OverSampling));
#endif /* USART_CR1_OVER8 */

  if (huart->gState == HAL_UART_STATE_RESET)
 800453e:	687b      	ldr	r3, [r7, #4]
 8004540:	f893 3039 	ldrb.w	r3, [r3, #57]	; 0x39
 8004544:	b2db      	uxtb	r3, r3
 8004546:	2b00      	cmp	r3, #0
 8004548:	d106      	bne.n	8004558 <HAL_UART_Init+0x2c>
  {
    /* Allocate lock resource and initialize it */
    huart->Lock = HAL_UNLOCKED;
 800454a:	687b      	ldr	r3, [r7, #4]
 800454c:	2200      	movs	r2, #0
 800454e:	f883 2038 	strb.w	r2, [r3, #56]	; 0x38

    /* Init the low level hardware */
    huart->MspInitCallback(huart);
#else
    /* Init the low level hardware : GPIO, CLOCK */
    HAL_UART_MspInit(huart);
 8004552:	6878      	ldr	r0, [r7, #4]
 8004554:	f7fc fc02 	bl	8000d5c <HAL_UART_MspInit>
#endif /* (USE_HAL_UART_REGISTER_CALLBACKS) */
  }

  huart->gState = HAL_UART_STATE_BUSY;
 8004558:	687b      	ldr	r3, [r7, #4]
 800455a:	2224      	movs	r2, #36	; 0x24
 800455c:	f883 2039 	strb.w	r2, [r3, #57]	; 0x39

  /* Disable the peripheral */
  __HAL_UART_DISABLE(huart);
 8004560:	687b      	ldr	r3, [r7, #4]
 8004562:	681b      	ldr	r3, [r3, #0]
 8004564:	68da      	ldr	r2, [r3, #12]
 8004566:	687b      	ldr	r3, [r7, #4]
 8004568:	681b      	ldr	r3, [r3, #0]
 800456a:	f422 5200 	bic.w	r2, r2, #8192	; 0x2000
 800456e:	60da      	str	r2, [r3, #12]

  /* Set the UART Communication parameters */
  UART_SetConfig(huart);
 8004570:	6878      	ldr	r0, [r7, #4]
 8004572:	f000 fb8d 	bl	8004c90 <UART_SetConfig>

  /* In asynchronous mode, the following bits must be kept cleared:
     - LINEN and CLKEN bits in the USART_CR2 register,
     - SCEN, HDSEL and IREN  bits in the USART_CR3 register.*/
  CLEAR_BIT(huart->Instance->CR2, (USART_CR2_LINEN | USART_CR2_CLKEN));
 8004576:	687b      	ldr	r3, [r7, #4]
 8004578:	681b      	ldr	r3, [r3, #0]
 800457a:	691a      	ldr	r2, [r3, #16]
 800457c:	687b      	ldr	r3, [r7, #4]
 800457e:	681b      	ldr	r3, [r3, #0]
 8004580:	f422 4290 	bic.w	r2, r2, #18432	; 0x4800
 8004584:	611a      	str	r2, [r3, #16]
  CLEAR_BIT(huart->Instance->CR3, (USART_CR3_SCEN | USART_CR3_HDSEL | USART_CR3_IREN));
 8004586:	687b      	ldr	r3, [r7, #4]
 8004588:	681b      	ldr	r3, [r3, #0]
 800458a:	695a      	ldr	r2, [r3, #20]
 800458c:	687b      	ldr	r3, [r7, #4]
 800458e:	681b      	ldr	r3, [r3, #0]
 8004590:	f022 022a 	bic.w	r2, r2, #42	; 0x2a
 8004594:	615a      	str	r2, [r3, #20]

  /* Enable the peripheral */
  __HAL_UART_ENABLE(huart);
 8004596:	687b      	ldr	r3, [r7, #4]
 8004598:	681b      	ldr	r3, [r3, #0]
 800459a:	68da      	ldr	r2, [r3, #12]
 800459c:	687b      	ldr	r3, [r7, #4]
 800459e:	681b      	ldr	r3, [r3, #0]
 80045a0:	f442 5200 	orr.w	r2, r2, #8192	; 0x2000
 80045a4:	60da      	str	r2, [r3, #12]

  /* Initialize the UART state */
  huart->ErrorCode = HAL_UART_ERROR_NONE;
 80045a6:	687b      	ldr	r3, [r7, #4]
 80045a8:	2200      	movs	r2, #0
 80045aa:	63da      	str	r2, [r3, #60]	; 0x3c
  huart->gState = HAL_UART_STATE_READY;
 80045ac:	687b      	ldr	r3, [r7, #4]
 80045ae:	2220      	movs	r2, #32
 80045b0:	f883 2039 	strb.w	r2, [r3, #57]	; 0x39
  huart->RxState = HAL_UART_STATE_READY;
 80045b4:	687b      	ldr	r3, [r7, #4]
 80045b6:	2220      	movs	r2, #32
 80045b8:	f883 203a 	strb.w	r2, [r3, #58]	; 0x3a

  return HAL_OK;
 80045bc:	2300      	movs	r3, #0
}
 80045be:	4618      	mov	r0, r3
 80045c0:	3708      	adds	r7, #8
 80045c2:	46bd      	mov	sp, r7
 80045c4:	bd80      	pop	{r7, pc}

080045c6 <HAL_UART_Transmit>:
  * @param  Size  Amount of data elements (u8 or u16) to be sent
  * @param  Timeout Timeout duration
  * @retval HAL status
  */
HAL_StatusTypeDef HAL_UART_Transmit(UART_HandleTypeDef *huart, uint8_t *pData, uint16_t Size, uint32_t Timeout)
{
 80045c6:	b580      	push	{r7, lr}
 80045c8:	b088      	sub	sp, #32
 80045ca:	af02      	add	r7, sp, #8
 80045cc:	60f8      	str	r0, [r7, #12]
 80045ce:	60b9      	str	r1, [r7, #8]
 80045d0:	603b      	str	r3, [r7, #0]
 80045d2:	4613      	mov	r3, r2
 80045d4:	80fb      	strh	r3, [r7, #6]
  uint16_t *tmp;
  uint32_t tickstart = 0U;
 80045d6:	2300      	movs	r3, #0
 80045d8:	617b      	str	r3, [r7, #20]

  /* Check that a Tx process is not already ongoing */
  if (huart->gState == HAL_UART_STATE_READY)
 80045da:	68fb      	ldr	r3, [r7, #12]
 80045dc:	f893 3039 	ldrb.w	r3, [r3, #57]	; 0x39
 80045e0:	b2db      	uxtb	r3, r3
 80045e2:	2b20      	cmp	r3, #32
 80045e4:	f040 8083 	bne.w	80046ee <HAL_UART_Transmit+0x128>
  {
    if ((pData == NULL) || (Size == 0U))
 80045e8:	68bb      	ldr	r3, [r7, #8]
 80045ea:	2b00      	cmp	r3, #0
 80045ec:	d002      	beq.n	80045f4 <HAL_UART_Transmit+0x2e>
 80045ee:	88fb      	ldrh	r3, [r7, #6]
 80045f0:	2b00      	cmp	r3, #0
 80045f2:	d101      	bne.n	80045f8 <HAL_UART_Transmit+0x32>
    {
      return  HAL_ERROR;
 80045f4:	2301      	movs	r3, #1
 80045f6:	e07b      	b.n	80046f0 <HAL_UART_Transmit+0x12a>
    }

    /* Process Locked */
    __HAL_LOCK(huart);
 80045f8:	68fb      	ldr	r3, [r7, #12]
 80045fa:	f893 3038 	ldrb.w	r3, [r3, #56]	; 0x38
 80045fe:	2b01      	cmp	r3, #1
 8004600:	d101      	bne.n	8004606 <HAL_UART_Transmit+0x40>
 8004602:	2302      	movs	r3, #2
 8004604:	e074      	b.n	80046f0 <HAL_UART_Transmit+0x12a>
 8004606:	68fb      	ldr	r3, [r7, #12]
 8004608:	2201      	movs	r2, #1
 800460a:	f883 2038 	strb.w	r2, [r3, #56]	; 0x38

    huart->ErrorCode = HAL_UART_ERROR_NONE;
 800460e:	68fb      	ldr	r3, [r7, #12]
 8004610:	2200      	movs	r2, #0
 8004612:	63da      	str	r2, [r3, #60]	; 0x3c
    huart->gState = HAL_UART_STATE_BUSY_TX;
 8004614:	68fb      	ldr	r3, [r7, #12]
 8004616:	2221      	movs	r2, #33	; 0x21
 8004618:	f883 2039 	strb.w	r2, [r3, #57]	; 0x39

    /* Init tickstart for timeout managment */
    tickstart = HAL_GetTick();
 800461c:	f7fc fd96 	bl	800114c <HAL_GetTick>
 8004620:	6178      	str	r0, [r7, #20]

    huart->TxXferSize = Size;
 8004622:	68fb      	ldr	r3, [r7, #12]
 8004624:	88fa      	ldrh	r2, [r7, #6]
 8004626:	849a      	strh	r2, [r3, #36]	; 0x24
    huart->TxXferCount = Size;
 8004628:	68fb      	ldr	r3, [r7, #12]
 800462a:	88fa      	ldrh	r2, [r7, #6]
 800462c:	84da      	strh	r2, [r3, #38]	; 0x26
    while (huart->TxXferCount > 0U)
 800462e:	e042      	b.n	80046b6 <HAL_UART_Transmit+0xf0>
    {
      huart->TxXferCount--;
 8004630:	68fb      	ldr	r3, [r7, #12]
 8004632:	8cdb      	ldrh	r3, [r3, #38]	; 0x26
 8004634:	b29b      	uxth	r3, r3
 8004636:	3b01      	subs	r3, #1
 8004638:	b29a      	uxth	r2, r3
 800463a:	68fb      	ldr	r3, [r7, #12]
 800463c:	84da      	strh	r2, [r3, #38]	; 0x26
      if (huart->Init.WordLength == UART_WORDLENGTH_9B)
 800463e:	68fb      	ldr	r3, [r7, #12]
 8004640:	689b      	ldr	r3, [r3, #8]
 8004642:	f5b3 5f80 	cmp.w	r3, #4096	; 0x1000
 8004646:	d122      	bne.n	800468e <HAL_UART_Transmit+0xc8>
      {
        if (UART_WaitOnFlagUntilTimeout(huart, UART_FLAG_TXE, RESET, tickstart, Timeout) != HAL_OK)
 8004648:	683b      	ldr	r3, [r7, #0]
 800464a:	9300      	str	r3, [sp, #0]
 800464c:	697b      	ldr	r3, [r7, #20]
 800464e:	2200      	movs	r2, #0
 8004650:	2180      	movs	r1, #128	; 0x80
 8004652:	68f8      	ldr	r0, [r7, #12]
 8004654:	f000 f9b2 	bl	80049bc <UART_WaitOnFlagUntilTimeout>
 8004658:	4603      	mov	r3, r0
 800465a:	2b00      	cmp	r3, #0
 800465c:	d001      	beq.n	8004662 <HAL_UART_Transmit+0x9c>
        {
          return HAL_TIMEOUT;
 800465e:	2303      	movs	r3, #3
 8004660:	e046      	b.n	80046f0 <HAL_UART_Transmit+0x12a>
        }
        tmp = (uint16_t *) pData;
 8004662:	68bb      	ldr	r3, [r7, #8]
 8004664:	613b      	str	r3, [r7, #16]
        huart->Instance->DR = (*tmp & (uint16_t)0x01FF);
 8004666:	693b      	ldr	r3, [r7, #16]
 8004668:	881b      	ldrh	r3, [r3, #0]
 800466a:	461a      	mov	r2, r3
 800466c:	68fb      	ldr	r3, [r7, #12]
 800466e:	681b      	ldr	r3, [r3, #0]
 8004670:	f3c2 0208 	ubfx	r2, r2, #0, #9
 8004674:	605a      	str	r2, [r3, #4]
        if (huart->Init.Parity == UART_PARITY_NONE)
 8004676:	68fb      	ldr	r3, [r7, #12]
 8004678:	691b      	ldr	r3, [r3, #16]
 800467a:	2b00      	cmp	r3, #0
 800467c:	d103      	bne.n	8004686 <HAL_UART_Transmit+0xc0>
        {
          pData += 2U;
 800467e:	68bb      	ldr	r3, [r7, #8]
 8004680:	3302      	adds	r3, #2
 8004682:	60bb      	str	r3, [r7, #8]
 8004684:	e017      	b.n	80046b6 <HAL_UART_Transmit+0xf0>
        }
        else
        {
          pData += 1U;
 8004686:	68bb      	ldr	r3, [r7, #8]
 8004688:	3301      	adds	r3, #1
 800468a:	60bb      	str	r3, [r7, #8]
 800468c:	e013      	b.n	80046b6 <HAL_UART_Transmit+0xf0>
        }
      }
      else
      {
        if (UART_WaitOnFlagUntilTimeout(huart, UART_FLAG_TXE, RESET, tickstart, Timeout) != HAL_OK)
 800468e:	683b      	ldr	r3, [r7, #0]
 8004690:	9300      	str	r3, [sp, #0]
 8004692:	697b      	ldr	r3, [r7, #20]
 8004694:	2200      	movs	r2, #0
 8004696:	2180      	movs	r1, #128	; 0x80
 8004698:	68f8      	ldr	r0, [r7, #12]
 800469a:	f000 f98f 	bl	80049bc <UART_WaitOnFlagUntilTimeout>
 800469e:	4603      	mov	r3, r0
 80046a0:	2b00      	cmp	r3, #0
 80046a2:	d001      	beq.n	80046a8 <HAL_UART_Transmit+0xe2>
        {
          return HAL_TIMEOUT;
 80046a4:	2303      	movs	r3, #3
 80046a6:	e023      	b.n	80046f0 <HAL_UART_Transmit+0x12a>
        }
        huart->Instance->DR = (*pData++ & (uint8_t)0xFF);
 80046a8:	68bb      	ldr	r3, [r7, #8]
 80046aa:	1c5a      	adds	r2, r3, #1
 80046ac:	60ba      	str	r2, [r7, #8]
 80046ae:	781a      	ldrb	r2, [r3, #0]
 80046b0:	68fb      	ldr	r3, [r7, #12]
 80046b2:	681b      	ldr	r3, [r3, #0]
 80046b4:	605a      	str	r2, [r3, #4]
    while (huart->TxXferCount > 0U)
 80046b6:	68fb      	ldr	r3, [r7, #12]
 80046b8:	8cdb      	ldrh	r3, [r3, #38]	; 0x26
 80046ba:	b29b      	uxth	r3, r3
 80046bc:	2b00      	cmp	r3, #0
 80046be:	d1b7      	bne.n	8004630 <HAL_UART_Transmit+0x6a>
      }
    }

    if (UART_WaitOnFlagUntilTimeout(huart, UART_FLAG_TC, RESET, tickstart, Timeout) != HAL_OK)
 80046c0:	683b      	ldr	r3, [r7, #0]
 80046c2:	9300      	str	r3, [sp, #0]
 80046c4:	697b      	ldr	r3, [r7, #20]
 80046c6:	2200      	movs	r2, #0
 80046c8:	2140      	movs	r1, #64	; 0x40
 80046ca:	68f8      	ldr	r0, [r7, #12]
 80046cc:	f000 f976 	bl	80049bc <UART_WaitOnFlagUntilTimeout>
 80046d0:	4603      	mov	r3, r0
 80046d2:	2b00      	cmp	r3, #0
 80046d4:	d001      	beq.n	80046da <HAL_UART_Transmit+0x114>
    {
      return HAL_TIMEOUT;
 80046d6:	2303      	movs	r3, #3
 80046d8:	e00a      	b.n	80046f0 <HAL_UART_Transmit+0x12a>
    }

    /* At end of Tx process, restore huart->gState to Ready */
    huart->gState = HAL_UART_STATE_READY;
 80046da:	68fb      	ldr	r3, [r7, #12]
 80046dc:	2220      	movs	r2, #32
 80046de:	f883 2039 	strb.w	r2, [r3, #57]	; 0x39

    /* Process Unlocked */
    __HAL_UNLOCK(huart);
 80046e2:	68fb      	ldr	r3, [r7, #12]
 80046e4:	2200      	movs	r2, #0
 80046e6:	f883 2038 	strb.w	r2, [r3, #56]	; 0x38

    return HAL_OK;
 80046ea:	2300      	movs	r3, #0
 80046ec:	e000      	b.n	80046f0 <HAL_UART_Transmit+0x12a>
  }
  else
  {
    return HAL_BUSY;
 80046ee:	2302      	movs	r3, #2
  }
}
 80046f0:	4618      	mov	r0, r3
 80046f2:	3718      	adds	r7, #24
 80046f4:	46bd      	mov	sp, r7
 80046f6:	bd80      	pop	{r7, pc}

080046f8 <HAL_UART_Receive_IT>:
  * @param  pData Pointer to data buffer (u8 or u16 data elements).
  * @param  Size  Amount of data elements (u8 or u16) to be received.
  * @retval HAL status
  */
HAL_StatusTypeDef HAL_UART_Receive_IT(UART_HandleTypeDef *huart, uint8_t *pData, uint16_t Size)
{
 80046f8:	b480      	push	{r7}
 80046fa:	b085      	sub	sp, #20
 80046fc:	af00      	add	r7, sp, #0
 80046fe:	60f8      	str	r0, [r7, #12]
 8004700:	60b9      	str	r1, [r7, #8]
 8004702:	4613      	mov	r3, r2
 8004704:	80fb      	strh	r3, [r7, #6]
  /* Check that a Rx process is not already ongoing */
  if (huart->RxState == HAL_UART_STATE_READY)
 8004706:	68fb      	ldr	r3, [r7, #12]
 8004708:	f893 303a 	ldrb.w	r3, [r3, #58]	; 0x3a
 800470c:	b2db      	uxtb	r3, r3
 800470e:	2b20      	cmp	r3, #32
 8004710:	d140      	bne.n	8004794 <HAL_UART_Receive_IT+0x9c>
  {
    if ((pData == NULL) || (Size == 0U))
 8004712:	68bb      	ldr	r3, [r7, #8]
 8004714:	2b00      	cmp	r3, #0
 8004716:	d002      	beq.n	800471e <HAL_UART_Receive_IT+0x26>
 8004718:	88fb      	ldrh	r3, [r7, #6]
 800471a:	2b00      	cmp	r3, #0
 800471c:	d101      	bne.n	8004722 <HAL_UART_Receive_IT+0x2a>
    {
      return HAL_ERROR;
 800471e:	2301      	movs	r3, #1
 8004720:	e039      	b.n	8004796 <HAL_UART_Receive_IT+0x9e>
    }

    /* Process Locked */
    __HAL_LOCK(huart);
 8004722:	68fb      	ldr	r3, [r7, #12]
 8004724:	f893 3038 	ldrb.w	r3, [r3, #56]	; 0x38
 8004728:	2b01      	cmp	r3, #1
 800472a:	d101      	bne.n	8004730 <HAL_UART_Receive_IT+0x38>
 800472c:	2302      	movs	r3, #2
 800472e:	e032      	b.n	8004796 <HAL_UART_Receive_IT+0x9e>
 8004730:	68fb      	ldr	r3, [r7, #12]
 8004732:	2201      	movs	r2, #1
 8004734:	f883 2038 	strb.w	r2, [r3, #56]	; 0x38

    huart->pRxBuffPtr = pData;
 8004738:	68fb      	ldr	r3, [r7, #12]
 800473a:	68ba      	ldr	r2, [r7, #8]
 800473c:	629a      	str	r2, [r3, #40]	; 0x28
    huart->RxXferSize = Size;
 800473e:	68fb      	ldr	r3, [r7, #12]
 8004740:	88fa      	ldrh	r2, [r7, #6]
 8004742:	859a      	strh	r2, [r3, #44]	; 0x2c
    huart->RxXferCount = Size;
 8004744:	68fb      	ldr	r3, [r7, #12]
 8004746:	88fa      	ldrh	r2, [r7, #6]
 8004748:	85da      	strh	r2, [r3, #46]	; 0x2e

    huart->ErrorCode = HAL_UART_ERROR_NONE;
 800474a:	68fb      	ldr	r3, [r7, #12]
 800474c:	2200      	movs	r2, #0
 800474e:	63da      	str	r2, [r3, #60]	; 0x3c
    huart->RxState = HAL_UART_STATE_BUSY_RX;
 8004750:	68fb      	ldr	r3, [r7, #12]
 8004752:	2222      	movs	r2, #34	; 0x22
 8004754:	f883 203a 	strb.w	r2, [r3, #58]	; 0x3a

    /* Process Unlocked */
    __HAL_UNLOCK(huart);
 8004758:	68fb      	ldr	r3, [r7, #12]
 800475a:	2200      	movs	r2, #0
 800475c:	f883 2038 	strb.w	r2, [r3, #56]	; 0x38

    /* Enable the UART Parity Error Interrupt */
    __HAL_UART_ENABLE_IT(huart, UART_IT_PE);
 8004760:	68fb      	ldr	r3, [r7, #12]
 8004762:	681b      	ldr	r3, [r3, #0]
 8004764:	68da      	ldr	r2, [r3, #12]
 8004766:	68fb      	ldr	r3, [r7, #12]
 8004768:	681b      	ldr	r3, [r3, #0]
 800476a:	f442 7280 	orr.w	r2, r2, #256	; 0x100
 800476e:	60da      	str	r2, [r3, #12]

    /* Enable the UART Error Interrupt: (Frame error, noise error, overrun error) */
    __HAL_UART_ENABLE_IT(huart, UART_IT_ERR);
 8004770:	68fb      	ldr	r3, [r7, #12]
 8004772:	681b      	ldr	r3, [r3, #0]
 8004774:	695a      	ldr	r2, [r3, #20]
 8004776:	68fb      	ldr	r3, [r7, #12]
 8004778:	681b      	ldr	r3, [r3, #0]
 800477a:	f042 0201 	orr.w	r2, r2, #1
 800477e:	615a      	str	r2, [r3, #20]

    /* Enable the UART Data Register not empty Interrupt */
    __HAL_UART_ENABLE_IT(huart, UART_IT_RXNE);
 8004780:	68fb      	ldr	r3, [r7, #12]
 8004782:	681b      	ldr	r3, [r3, #0]
 8004784:	68da      	ldr	r2, [r3, #12]
 8004786:	68fb      	ldr	r3, [r7, #12]
 8004788:	681b      	ldr	r3, [r3, #0]
 800478a:	f042 0220 	orr.w	r2, r2, #32
 800478e:	60da      	str	r2, [r3, #12]

    return HAL_OK;
 8004790:	2300      	movs	r3, #0
 8004792:	e000      	b.n	8004796 <HAL_UART_Receive_IT+0x9e>
  }
  else
  {
    return HAL_BUSY;
 8004794:	2302      	movs	r3, #2
  }
}
 8004796:	4618      	mov	r0, r3
 8004798:	3714      	adds	r7, #20
 800479a:	46bd      	mov	sp, r7
 800479c:	bc80      	pop	{r7}
 800479e:	4770      	bx	lr

080047a0 <HAL_UART_IRQHandler>:
  * @param  huart  Pointer to a UART_HandleTypeDef structure that contains
  *                the configuration information for the specified UART module.
  * @retval None
  */
void HAL_UART_IRQHandler(UART_HandleTypeDef *huart)
{
 80047a0:	b580      	push	{r7, lr}
 80047a2:	b088      	sub	sp, #32
 80047a4:	af00      	add	r7, sp, #0
 80047a6:	6078      	str	r0, [r7, #4]
  uint32_t isrflags   = READ_REG(huart->Instance->SR);
 80047a8:	687b      	ldr	r3, [r7, #4]
 80047aa:	681b      	ldr	r3, [r3, #0]
 80047ac:	681b      	ldr	r3, [r3, #0]
 80047ae:	61fb      	str	r3, [r7, #28]
  uint32_t cr1its     = READ_REG(huart->Instance->CR1);
 80047b0:	687b      	ldr	r3, [r7, #4]
 80047b2:	681b      	ldr	r3, [r3, #0]
 80047b4:	68db      	ldr	r3, [r3, #12]
 80047b6:	61bb      	str	r3, [r7, #24]
  uint32_t cr3its     = READ_REG(huart->Instance->CR3);
 80047b8:	687b      	ldr	r3, [r7, #4]
 80047ba:	681b      	ldr	r3, [r3, #0]
 80047bc:	695b      	ldr	r3, [r3, #20]
 80047be:	617b      	str	r3, [r7, #20]
  uint32_t errorflags = 0x00U;
 80047c0:	2300      	movs	r3, #0
 80047c2:	613b      	str	r3, [r7, #16]
  uint32_t dmarequest = 0x00U;
 80047c4:	2300      	movs	r3, #0
 80047c6:	60fb      	str	r3, [r7, #12]

  /* If no error occurs */
  errorflags = (isrflags & (uint32_t)(USART_SR_PE | USART_SR_FE | USART_SR_ORE | USART_SR_NE));
 80047c8:	69fb      	ldr	r3, [r7, #28]
 80047ca:	f003 030f 	and.w	r3, r3, #15
 80047ce:	613b      	str	r3, [r7, #16]
  if (errorflags == RESET)
 80047d0:	693b      	ldr	r3, [r7, #16]
 80047d2:	2b00      	cmp	r3, #0
 80047d4:	d10d      	bne.n	80047f2 <HAL_UART_IRQHandler+0x52>
  {
    /* UART in mode Receiver -------------------------------------------------*/
    if (((isrflags & USART_SR_RXNE) != RESET) && ((cr1its & USART_CR1_RXNEIE) != RESET))
 80047d6:	69fb      	ldr	r3, [r7, #28]
 80047d8:	f003 0320 	and.w	r3, r3, #32
 80047dc:	2b00      	cmp	r3, #0
 80047de:	d008      	beq.n	80047f2 <HAL_UART_IRQHandler+0x52>
 80047e0:	69bb      	ldr	r3, [r7, #24]
 80047e2:	f003 0320 	and.w	r3, r3, #32
 80047e6:	2b00      	cmp	r3, #0
 80047e8:	d003      	beq.n	80047f2 <HAL_UART_IRQHandler+0x52>
    {
      UART_Receive_IT(huart);
 80047ea:	6878      	ldr	r0, [r7, #4]
 80047ec:	f000 f9ce 	bl	8004b8c <UART_Receive_IT>
      return;
 80047f0:	e0cc      	b.n	800498c <HAL_UART_IRQHandler+0x1ec>
    }
  }

  /* If some errors occur */
  if ((errorflags != RESET) && (((cr3its & USART_CR3_EIE) != RESET) || ((cr1its & (USART_CR1_RXNEIE | USART_CR1_PEIE)) != RESET)))
 80047f2:	693b      	ldr	r3, [r7, #16]
 80047f4:	2b00      	cmp	r3, #0
 80047f6:	f000 80ab 	beq.w	8004950 <HAL_UART_IRQHandler+0x1b0>
 80047fa:	697b      	ldr	r3, [r7, #20]
 80047fc:	f003 0301 	and.w	r3, r3, #1
 8004800:	2b00      	cmp	r3, #0
 8004802:	d105      	bne.n	8004810 <HAL_UART_IRQHandler+0x70>
 8004804:	69bb      	ldr	r3, [r7, #24]
 8004806:	f403 7390 	and.w	r3, r3, #288	; 0x120
 800480a:	2b00      	cmp	r3, #0
 800480c:	f000 80a0 	beq.w	8004950 <HAL_UART_IRQHandler+0x1b0>
  {
    /* UART parity error interrupt occurred ----------------------------------*/
    if (((isrflags & USART_SR_PE) != RESET) && ((cr1its & USART_CR1_PEIE) != RESET))
 8004810:	69fb      	ldr	r3, [r7, #28]
 8004812:	f003 0301 	and.w	r3, r3, #1
 8004816:	2b00      	cmp	r3, #0
 8004818:	d00a      	beq.n	8004830 <HAL_UART_IRQHandler+0x90>
 800481a:	69bb      	ldr	r3, [r7, #24]
 800481c:	f403 7380 	and.w	r3, r3, #256	; 0x100
 8004820:	2b00      	cmp	r3, #0
 8004822:	d005      	beq.n	8004830 <HAL_UART_IRQHandler+0x90>
    {
      huart->ErrorCode |= HAL_UART_ERROR_PE;
 8004824:	687b      	ldr	r3, [r7, #4]
 8004826:	6bdb      	ldr	r3, [r3, #60]	; 0x3c
 8004828:	f043 0201 	orr.w	r2, r3, #1
 800482c:	687b      	ldr	r3, [r7, #4]
 800482e:	63da      	str	r2, [r3, #60]	; 0x3c
    }

    /* UART noise error interrupt occurred -----------------------------------*/
    if (((isrflags & USART_SR_NE) != RESET) && ((cr3its & USART_CR3_EIE) != RESET))
 8004830:	69fb      	ldr	r3, [r7, #28]
 8004832:	f003 0304 	and.w	r3, r3, #4
 8004836:	2b00      	cmp	r3, #0
 8004838:	d00a      	beq.n	8004850 <HAL_UART_IRQHandler+0xb0>
 800483a:	697b      	ldr	r3, [r7, #20]
 800483c:	f003 0301 	and.w	r3, r3, #1
 8004840:	2b00      	cmp	r3, #0
 8004842:	d005      	beq.n	8004850 <HAL_UART_IRQHandler+0xb0>
    {
      huart->ErrorCode |= HAL_UART_ERROR_NE;
 8004844:	687b      	ldr	r3, [r7, #4]
 8004846:	6bdb      	ldr	r3, [r3, #60]	; 0x3c
 8004848:	f043 0202 	orr.w	r2, r3, #2
 800484c:	687b      	ldr	r3, [r7, #4]
 800484e:	63da      	str	r2, [r3, #60]	; 0x3c
    }

    /* UART frame error interrupt occurred -----------------------------------*/
    if (((isrflags & USART_SR_FE) != RESET) && ((cr3its & USART_CR3_EIE) != RESET))
 8004850:	69fb      	ldr	r3, [r7, #28]
 8004852:	f003 0302 	and.w	r3, r3, #2
 8004856:	2b00      	cmp	r3, #0
 8004858:	d00a      	beq.n	8004870 <HAL_UART_IRQHandler+0xd0>
 800485a:	697b      	ldr	r3, [r7, #20]
 800485c:	f003 0301 	and.w	r3, r3, #1
 8004860:	2b00      	cmp	r3, #0
 8004862:	d005      	beq.n	8004870 <HAL_UART_IRQHandler+0xd0>
    {
      huart->ErrorCode |= HAL_UART_ERROR_FE;
 8004864:	687b      	ldr	r3, [r7, #4]
 8004866:	6bdb      	ldr	r3, [r3, #60]	; 0x3c
 8004868:	f043 0204 	orr.w	r2, r3, #4
 800486c:	687b      	ldr	r3, [r7, #4]
 800486e:	63da      	str	r2, [r3, #60]	; 0x3c
    }

    /* UART Over-Run interrupt occurred --------------------------------------*/
    if (((isrflags & USART_SR_ORE) != RESET) && ((cr3its & USART_CR3_EIE) != RESET))
 8004870:	69fb      	ldr	r3, [r7, #28]
 8004872:	f003 0308 	and.w	r3, r3, #8
 8004876:	2b00      	cmp	r3, #0
 8004878:	d00a      	beq.n	8004890 <HAL_UART_IRQHandler+0xf0>
 800487a:	697b      	ldr	r3, [r7, #20]
 800487c:	f003 0301 	and.w	r3, r3, #1
 8004880:	2b00      	cmp	r3, #0
 8004882:	d005      	beq.n	8004890 <HAL_UART_IRQHandler+0xf0>
    {
      huart->ErrorCode |= HAL_UART_ERROR_ORE;
 8004884:	687b      	ldr	r3, [r7, #4]
 8004886:	6bdb      	ldr	r3, [r3, #60]	; 0x3c
 8004888:	f043 0208 	orr.w	r2, r3, #8
 800488c:	687b      	ldr	r3, [r7, #4]
 800488e:	63da      	str	r2, [r3, #60]	; 0x3c
    }

    /* Call UART Error Call back function if need be --------------------------*/
    if (huart->ErrorCode != HAL_UART_ERROR_NONE)
 8004890:	687b      	ldr	r3, [r7, #4]
 8004892:	6bdb      	ldr	r3, [r3, #60]	; 0x3c
 8004894:	2b00      	cmp	r3, #0
 8004896:	d078      	beq.n	800498a <HAL_UART_IRQHandler+0x1ea>
    {
      /* UART in mode Receiver -----------------------------------------------*/
      if (((isrflags & USART_SR_RXNE) != RESET) && ((cr1its & USART_CR1_RXNEIE) != RESET))
 8004898:	69fb      	ldr	r3, [r7, #28]
 800489a:	f003 0320 	and.w	r3, r3, #32
 800489e:	2b00      	cmp	r3, #0
 80048a0:	d007      	beq.n	80048b2 <HAL_UART_IRQHandler+0x112>
 80048a2:	69bb      	ldr	r3, [r7, #24]
 80048a4:	f003 0320 	and.w	r3, r3, #32
 80048a8:	2b00      	cmp	r3, #0
 80048aa:	d002      	beq.n	80048b2 <HAL_UART_IRQHandler+0x112>
      {
        UART_Receive_IT(huart);
 80048ac:	6878      	ldr	r0, [r7, #4]
 80048ae:	f000 f96d 	bl	8004b8c <UART_Receive_IT>
      }

      /* If Overrun error occurs, or if any error occurs in DMA mode reception,
         consider error as blocking */
      dmarequest = HAL_IS_BIT_SET(huart->Instance->CR3, USART_CR3_DMAR);
 80048b2:	687b      	ldr	r3, [r7, #4]
 80048b4:	681b      	ldr	r3, [r3, #0]
 80048b6:	695b      	ldr	r3, [r3, #20]
 80048b8:	f003 0340 	and.w	r3, r3, #64	; 0x40
 80048bc:	2b00      	cmp	r3, #0
 80048be:	bf14      	ite	ne
 80048c0:	2301      	movne	r3, #1
 80048c2:	2300      	moveq	r3, #0
 80048c4:	b2db      	uxtb	r3, r3
 80048c6:	60fb      	str	r3, [r7, #12]
      if (((huart->ErrorCode & HAL_UART_ERROR_ORE) != RESET) || dmarequest)
 80048c8:	687b      	ldr	r3, [r7, #4]
 80048ca:	6bdb      	ldr	r3, [r3, #60]	; 0x3c
 80048cc:	f003 0308 	and.w	r3, r3, #8
 80048d0:	2b00      	cmp	r3, #0
 80048d2:	d102      	bne.n	80048da <HAL_UART_IRQHandler+0x13a>
 80048d4:	68fb      	ldr	r3, [r7, #12]
 80048d6:	2b00      	cmp	r3, #0
 80048d8:	d031      	beq.n	800493e <HAL_UART_IRQHandler+0x19e>
      {
        /* Blocking error : transfer is aborted
           Set the UART state ready to be able to start again the process,
           Disable Rx Interrupts, and disable Rx DMA request, if ongoing */
        UART_EndRxTransfer(huart);
 80048da:	6878      	ldr	r0, [r7, #4]
 80048dc:	f000 f8b8 	bl	8004a50 <UART_EndRxTransfer>

        /* Disable the UART DMA Rx request if enabled */
        if (HAL_IS_BIT_SET(huart->Instance->CR3, USART_CR3_DMAR))
 80048e0:	687b      	ldr	r3, [r7, #4]
 80048e2:	681b      	ldr	r3, [r3, #0]
 80048e4:	695b      	ldr	r3, [r3, #20]
 80048e6:	f003 0340 	and.w	r3, r3, #64	; 0x40
 80048ea:	2b00      	cmp	r3, #0
 80048ec:	d023      	beq.n	8004936 <HAL_UART_IRQHandler+0x196>
        {
          CLEAR_BIT(huart->Instance->CR3, USART_CR3_DMAR);
 80048ee:	687b      	ldr	r3, [r7, #4]
 80048f0:	681b      	ldr	r3, [r3, #0]
 80048f2:	695a      	ldr	r2, [r3, #20]
 80048f4:	687b      	ldr	r3, [r7, #4]
 80048f6:	681b      	ldr	r3, [r3, #0]
 80048f8:	f022 0240 	bic.w	r2, r2, #64	; 0x40
 80048fc:	615a      	str	r2, [r3, #20]

          /* Abort the UART DMA Rx channel */
          if (huart->hdmarx != NULL)
 80048fe:	687b      	ldr	r3, [r7, #4]
 8004900:	6b5b      	ldr	r3, [r3, #52]	; 0x34
 8004902:	2b00      	cmp	r3, #0
 8004904:	d013      	beq.n	800492e <HAL_UART_IRQHandler+0x18e>
          {
            /* Set the UART DMA Abort callback :
               will lead to call HAL_UART_ErrorCallback() at end of DMA abort procedure */
            huart->hdmarx->XferAbortCallback = UART_DMAAbortOnError;
 8004906:	687b      	ldr	r3, [r7, #4]
 8004908:	6b5b      	ldr	r3, [r3, #52]	; 0x34
 800490a:	4a22      	ldr	r2, [pc, #136]	; (8004994 <HAL_UART_IRQHandler+0x1f4>)
 800490c:	635a      	str	r2, [r3, #52]	; 0x34
            if (HAL_DMA_Abort_IT(huart->hdmarx) != HAL_OK)
 800490e:	687b      	ldr	r3, [r7, #4]
 8004910:	6b5b      	ldr	r3, [r3, #52]	; 0x34
 8004912:	4618      	mov	r0, r3
 8004914:	f7fd ffd2 	bl	80028bc <HAL_DMA_Abort_IT>
 8004918:	4603      	mov	r3, r0
 800491a:	2b00      	cmp	r3, #0
 800491c:	d016      	beq.n	800494c <HAL_UART_IRQHandler+0x1ac>
            {
              /* Call Directly XferAbortCallback function in case of error */
              huart->hdmarx->XferAbortCallback(huart->hdmarx);
 800491e:	687b      	ldr	r3, [r7, #4]
 8004920:	6b5b      	ldr	r3, [r3, #52]	; 0x34
 8004922:	6b5b      	ldr	r3, [r3, #52]	; 0x34
 8004924:	687a      	ldr	r2, [r7, #4]
 8004926:	6b52      	ldr	r2, [r2, #52]	; 0x34
 8004928:	4610      	mov	r0, r2
 800492a:	4798      	blx	r3
        if (HAL_IS_BIT_SET(huart->Instance->CR3, USART_CR3_DMAR))
 800492c:	e00e      	b.n	800494c <HAL_UART_IRQHandler+0x1ac>
#if (USE_HAL_UART_REGISTER_CALLBACKS == 1)
            /*Call registered error callback*/
            huart->ErrorCallback(huart);
#else
            /*Call legacy weak error callback*/
            HAL_UART_ErrorCallback(huart);
 800492e:	6878      	ldr	r0, [r7, #4]
 8004930:	f000 f83b 	bl	80049aa <HAL_UART_ErrorCallback>
        if (HAL_IS_BIT_SET(huart->Instance->CR3, USART_CR3_DMAR))
 8004934:	e00a      	b.n	800494c <HAL_UART_IRQHandler+0x1ac>
#if (USE_HAL_UART_REGISTER_CALLBACKS == 1)
          /*Call registered error callback*/
          huart->ErrorCallback(huart);
#else
          /*Call legacy weak error callback*/
          HAL_UART_ErrorCallback(huart);
 8004936:	6878      	ldr	r0, [r7, #4]
 8004938:	f000 f837 	bl	80049aa <HAL_UART_ErrorCallback>
        if (HAL_IS_BIT_SET(huart->Instance->CR3, USART_CR3_DMAR))
 800493c:	e006      	b.n	800494c <HAL_UART_IRQHandler+0x1ac>
#if (USE_HAL_UART_REGISTER_CALLBACKS == 1)
        /*Call registered error callback*/
        huart->ErrorCallback(huart);
#else
        /*Call legacy weak error callback*/
        HAL_UART_ErrorCallback(huart);
 800493e:	6878      	ldr	r0, [r7, #4]
 8004940:	f000 f833 	bl	80049aa <HAL_UART_ErrorCallback>
#endif /* USE_HAL_UART_REGISTER_CALLBACKS */

        huart->ErrorCode = HAL_UART_ERROR_NONE;
 8004944:	687b      	ldr	r3, [r7, #4]
 8004946:	2200      	movs	r2, #0
 8004948:	63da      	str	r2, [r3, #60]	; 0x3c
      }
    }
    return;
 800494a:	e01e      	b.n	800498a <HAL_UART_IRQHandler+0x1ea>
        if (HAL_IS_BIT_SET(huart->Instance->CR3, USART_CR3_DMAR))
 800494c:	bf00      	nop
    return;
 800494e:	e01c      	b.n	800498a <HAL_UART_IRQHandler+0x1ea>
  } /* End if some error occurs */

  /* UART in mode Transmitter ------------------------------------------------*/
  if (((isrflags & USART_SR_TXE) != RESET) && ((cr1its & USART_CR1_TXEIE) != RESET))
 8004950:	69fb      	ldr	r3, [r7, #28]
 8004952:	f003 0380 	and.w	r3, r3, #128	; 0x80
 8004956:	2b00      	cmp	r3, #0
 8004958:	d008      	beq.n	800496c <HAL_UART_IRQHandler+0x1cc>
 800495a:	69bb      	ldr	r3, [r7, #24]
 800495c:	f003 0380 	and.w	r3, r3, #128	; 0x80
 8004960:	2b00      	cmp	r3, #0
 8004962:	d003      	beq.n	800496c <HAL_UART_IRQHandler+0x1cc>
  {
    UART_Transmit_IT(huart);
 8004964:	6878      	ldr	r0, [r7, #4]
 8004966:	f000 f8a4 	bl	8004ab2 <UART_Transmit_IT>
    return;
 800496a:	e00f      	b.n	800498c <HAL_UART_IRQHandler+0x1ec>
  }

  /* UART in mode Transmitter end --------------------------------------------*/
  if (((isrflags & USART_SR_TC) != RESET) && ((cr1its & USART_CR1_TCIE) != RESET))
 800496c:	69fb      	ldr	r3, [r7, #28]
 800496e:	f003 0340 	and.w	r3, r3, #64	; 0x40
 8004972:	2b00      	cmp	r3, #0
 8004974:	d00a      	beq.n	800498c <HAL_UART_IRQHandler+0x1ec>
 8004976:	69bb      	ldr	r3, [r7, #24]
 8004978:	f003 0340 	and.w	r3, r3, #64	; 0x40
 800497c:	2b00      	cmp	r3, #0
 800497e:	d005      	beq.n	800498c <HAL_UART_IRQHandler+0x1ec>
  {
    UART_EndTransmit_IT(huart);
 8004980:	6878      	ldr	r0, [r7, #4]
 8004982:	f000 f8eb 	bl	8004b5c <UART_EndTransmit_IT>
    return;
 8004986:	bf00      	nop
 8004988:	e000      	b.n	800498c <HAL_UART_IRQHandler+0x1ec>
    return;
 800498a:	bf00      	nop
  }
}
 800498c:	3720      	adds	r7, #32
 800498e:	46bd      	mov	sp, r7
 8004990:	bd80      	pop	{r7, pc}
 8004992:	bf00      	nop
 8004994:	08004a8b 	.word	0x08004a8b

08004998 <HAL_UART_TxCpltCallback>:
  * @param  huart  Pointer to a UART_HandleTypeDef structure that contains
  *                the configuration information for the specified UART module.
  * @retval None
  */
__weak void HAL_UART_TxCpltCallback(UART_HandleTypeDef *huart)
{
 8004998:	b480      	push	{r7}
 800499a:	b083      	sub	sp, #12
 800499c:	af00      	add	r7, sp, #0
 800499e:	6078      	str	r0, [r7, #4]
  /* Prevent unused argument(s) compilation warning */
  UNUSED(huart);
  /* NOTE: This function should not be modified, when the callback is needed,
           the HAL_UART_TxCpltCallback could be implemented in the user file
   */
}
 80049a0:	bf00      	nop
 80049a2:	370c      	adds	r7, #12
 80049a4:	46bd      	mov	sp, r7
 80049a6:	bc80      	pop	{r7}
 80049a8:	4770      	bx	lr

080049aa <HAL_UART_ErrorCallback>:
  * @param  huart  Pointer to a UART_HandleTypeDef structure that contains
  *                the configuration information for the specified UART module.
  * @retval None
  */
__weak void HAL_UART_ErrorCallback(UART_HandleTypeDef *huart)
{
 80049aa:	b480      	push	{r7}
 80049ac:	b083      	sub	sp, #12
 80049ae:	af00      	add	r7, sp, #0
 80049b0:	6078      	str	r0, [r7, #4]
  /* Prevent unused argument(s) compilation warning */
  UNUSED(huart);
  /* NOTE: This function should not be modified, when the callback is needed,
           the HAL_UART_ErrorCallback could be implemented in the user file
   */
}
 80049b2:	bf00      	nop
 80049b4:	370c      	adds	r7, #12
 80049b6:	46bd      	mov	sp, r7
 80049b8:	bc80      	pop	{r7}
 80049ba:	4770      	bx	lr

080049bc <UART_WaitOnFlagUntilTimeout>:
  * @param  Tickstart Tick start value
  * @param  Timeout Timeout duration
  * @retval HAL status
  */
static HAL_StatusTypeDef UART_WaitOnFlagUntilTimeout(UART_HandleTypeDef *huart, uint32_t Flag, FlagStatus Status, uint32_t Tickstart, uint32_t Timeout)
{
 80049bc:	b580      	push	{r7, lr}
 80049be:	b084      	sub	sp, #16
 80049c0:	af00      	add	r7, sp, #0
 80049c2:	60f8      	str	r0, [r7, #12]
 80049c4:	60b9      	str	r1, [r7, #8]
 80049c6:	603b      	str	r3, [r7, #0]
 80049c8:	4613      	mov	r3, r2
 80049ca:	71fb      	strb	r3, [r7, #7]
  /* Wait until flag is set */
  while ((__HAL_UART_GET_FLAG(huart, Flag) ? SET : RESET) == Status)
 80049cc:	e02c      	b.n	8004a28 <UART_WaitOnFlagUntilTimeout+0x6c>
  {
    /* Check for the Timeout */
    if (Timeout != HAL_MAX_DELAY)
 80049ce:	69bb      	ldr	r3, [r7, #24]
 80049d0:	f1b3 3fff 	cmp.w	r3, #4294967295
 80049d4:	d028      	beq.n	8004a28 <UART_WaitOnFlagUntilTimeout+0x6c>
    {
      if ((Timeout == 0U) || ((HAL_GetTick() - Tickstart) > Timeout))
 80049d6:	69bb      	ldr	r3, [r7, #24]
 80049d8:	2b00      	cmp	r3, #0
 80049da:	d007      	beq.n	80049ec <UART_WaitOnFlagUntilTimeout+0x30>
 80049dc:	f7fc fbb6 	bl	800114c <HAL_GetTick>
 80049e0:	4602      	mov	r2, r0
 80049e2:	683b      	ldr	r3, [r7, #0]
 80049e4:	1ad3      	subs	r3, r2, r3
 80049e6:	69ba      	ldr	r2, [r7, #24]
 80049e8:	429a      	cmp	r2, r3
 80049ea:	d21d      	bcs.n	8004a28 <UART_WaitOnFlagUntilTimeout+0x6c>
      {
        /* Disable TXE, RXNE, PE and ERR (Frame error, noise error, overrun error) interrupts for the interrupt process */
        CLEAR_BIT(huart->Instance->CR1, (USART_CR1_RXNEIE | USART_CR1_PEIE | USART_CR1_TXEIE));
 80049ec:	68fb      	ldr	r3, [r7, #12]
 80049ee:	681b      	ldr	r3, [r3, #0]
 80049f0:	68da      	ldr	r2, [r3, #12]
 80049f2:	68fb      	ldr	r3, [r7, #12]
 80049f4:	681b      	ldr	r3, [r3, #0]
 80049f6:	f422 72d0 	bic.w	r2, r2, #416	; 0x1a0
 80049fa:	60da      	str	r2, [r3, #12]
        CLEAR_BIT(huart->Instance->CR3, USART_CR3_EIE);
 80049fc:	68fb      	ldr	r3, [r7, #12]
 80049fe:	681b      	ldr	r3, [r3, #0]
 8004a00:	695a      	ldr	r2, [r3, #20]
 8004a02:	68fb      	ldr	r3, [r7, #12]
 8004a04:	681b      	ldr	r3, [r3, #0]
 8004a06:	f022 0201 	bic.w	r2, r2, #1
 8004a0a:	615a      	str	r2, [r3, #20]

        huart->gState  = HAL_UART_STATE_READY;
 8004a0c:	68fb      	ldr	r3, [r7, #12]
 8004a0e:	2220      	movs	r2, #32
 8004a10:	f883 2039 	strb.w	r2, [r3, #57]	; 0x39
        huart->RxState = HAL_UART_STATE_READY;
 8004a14:	68fb      	ldr	r3, [r7, #12]
 8004a16:	2220      	movs	r2, #32
 8004a18:	f883 203a 	strb.w	r2, [r3, #58]	; 0x3a

        /* Process Unlocked */
        __HAL_UNLOCK(huart);
 8004a1c:	68fb      	ldr	r3, [r7, #12]
 8004a1e:	2200      	movs	r2, #0
 8004a20:	f883 2038 	strb.w	r2, [r3, #56]	; 0x38

        return HAL_TIMEOUT;
 8004a24:	2303      	movs	r3, #3
 8004a26:	e00f      	b.n	8004a48 <UART_WaitOnFlagUntilTimeout+0x8c>
  while ((__HAL_UART_GET_FLAG(huart, Flag) ? SET : RESET) == Status)
 8004a28:	68fb      	ldr	r3, [r7, #12]
 8004a2a:	681b      	ldr	r3, [r3, #0]
 8004a2c:	681a      	ldr	r2, [r3, #0]
 8004a2e:	68bb      	ldr	r3, [r7, #8]
 8004a30:	4013      	ands	r3, r2
 8004a32:	68ba      	ldr	r2, [r7, #8]
 8004a34:	429a      	cmp	r2, r3
 8004a36:	bf0c      	ite	eq
 8004a38:	2301      	moveq	r3, #1
 8004a3a:	2300      	movne	r3, #0
 8004a3c:	b2db      	uxtb	r3, r3
 8004a3e:	461a      	mov	r2, r3
 8004a40:	79fb      	ldrb	r3, [r7, #7]
 8004a42:	429a      	cmp	r2, r3
 8004a44:	d0c3      	beq.n	80049ce <UART_WaitOnFlagUntilTimeout+0x12>
      }
    }
  }
  return HAL_OK;
 8004a46:	2300      	movs	r3, #0
}
 8004a48:	4618      	mov	r0, r3
 8004a4a:	3710      	adds	r7, #16
 8004a4c:	46bd      	mov	sp, r7
 8004a4e:	bd80      	pop	{r7, pc}

08004a50 <UART_EndRxTransfer>:
  * @brief  End ongoing Rx transfer on UART peripheral (following error detection or Reception completion).
  * @param  huart UART handle.
  * @retval None
  */
static void UART_EndRxTransfer(UART_HandleTypeDef *huart)
{
 8004a50:	b480      	push	{r7}
 8004a52:	b083      	sub	sp, #12
 8004a54:	af00      	add	r7, sp, #0
 8004a56:	6078      	str	r0, [r7, #4]
  /* Disable RXNE, PE and ERR (Frame error, noise error, overrun error) interrupts */
  CLEAR_BIT(huart->Instance->CR1, (USART_CR1_RXNEIE | USART_CR1_PEIE));
 8004a58:	687b      	ldr	r3, [r7, #4]
 8004a5a:	681b      	ldr	r3, [r3, #0]
 8004a5c:	68da      	ldr	r2, [r3, #12]
 8004a5e:	687b      	ldr	r3, [r7, #4]
 8004a60:	681b      	ldr	r3, [r3, #0]
 8004a62:	f422 7290 	bic.w	r2, r2, #288	; 0x120
 8004a66:	60da      	str	r2, [r3, #12]
  CLEAR_BIT(huart->Instance->CR3, USART_CR3_EIE);
 8004a68:	687b      	ldr	r3, [r7, #4]
 8004a6a:	681b      	ldr	r3, [r3, #0]
 8004a6c:	695a      	ldr	r2, [r3, #20]
 8004a6e:	687b      	ldr	r3, [r7, #4]
 8004a70:	681b      	ldr	r3, [r3, #0]
 8004a72:	f022 0201 	bic.w	r2, r2, #1
 8004a76:	615a      	str	r2, [r3, #20]

  /* At end of Rx process, restore huart->RxState to Ready */
  huart->RxState = HAL_UART_STATE_READY;
 8004a78:	687b      	ldr	r3, [r7, #4]
 8004a7a:	2220      	movs	r2, #32
 8004a7c:	f883 203a 	strb.w	r2, [r3, #58]	; 0x3a
}
 8004a80:	bf00      	nop
 8004a82:	370c      	adds	r7, #12
 8004a84:	46bd      	mov	sp, r7
 8004a86:	bc80      	pop	{r7}
 8004a88:	4770      	bx	lr

08004a8a <UART_DMAAbortOnError>:
  * @param  hdma  Pointer to a DMA_HandleTypeDef structure that contains
  *               the configuration information for the specified DMA module.
  * @retval None
  */
static void UART_DMAAbortOnError(DMA_HandleTypeDef *hdma)
{
 8004a8a:	b580      	push	{r7, lr}
 8004a8c:	b084      	sub	sp, #16
 8004a8e:	af00      	add	r7, sp, #0
 8004a90:	6078      	str	r0, [r7, #4]
  UART_HandleTypeDef *huart = (UART_HandleTypeDef *)((DMA_HandleTypeDef *)hdma)->Parent;
 8004a92:	687b      	ldr	r3, [r7, #4]
 8004a94:	6a5b      	ldr	r3, [r3, #36]	; 0x24
 8004a96:	60fb      	str	r3, [r7, #12]
  huart->RxXferCount = 0x00U;
 8004a98:	68fb      	ldr	r3, [r7, #12]
 8004a9a:	2200      	movs	r2, #0
 8004a9c:	85da      	strh	r2, [r3, #46]	; 0x2e
  huart->TxXferCount = 0x00U;
 8004a9e:	68fb      	ldr	r3, [r7, #12]
 8004aa0:	2200      	movs	r2, #0
 8004aa2:	84da      	strh	r2, [r3, #38]	; 0x26
#if (USE_HAL_UART_REGISTER_CALLBACKS == 1)
  /*Call registered error callback*/
  huart->ErrorCallback(huart);
#else
  /*Call legacy weak error callback*/
  HAL_UART_ErrorCallback(huart);
 8004aa4:	68f8      	ldr	r0, [r7, #12]
 8004aa6:	f7ff ff80 	bl	80049aa <HAL_UART_ErrorCallback>
#endif /* USE_HAL_UART_REGISTER_CALLBACKS */
}
 8004aaa:	bf00      	nop
 8004aac:	3710      	adds	r7, #16
 8004aae:	46bd      	mov	sp, r7
 8004ab0:	bd80      	pop	{r7, pc}

08004ab2 <UART_Transmit_IT>:
  * @param  huart  Pointer to a UART_HandleTypeDef structure that contains
  *                the configuration information for the specified UART module.
  * @retval HAL status
  */
static HAL_StatusTypeDef UART_Transmit_IT(UART_HandleTypeDef *huart)
{
 8004ab2:	b480      	push	{r7}
 8004ab4:	b085      	sub	sp, #20
 8004ab6:	af00      	add	r7, sp, #0
 8004ab8:	6078      	str	r0, [r7, #4]
  uint16_t *tmp;

  /* Check that a Tx process is ongoing */
  if (huart->gState == HAL_UART_STATE_BUSY_TX)
 8004aba:	687b      	ldr	r3, [r7, #4]
 8004abc:	f893 3039 	ldrb.w	r3, [r3, #57]	; 0x39
 8004ac0:	b2db      	uxtb	r3, r3
 8004ac2:	2b21      	cmp	r3, #33	; 0x21
 8004ac4:	d144      	bne.n	8004b50 <UART_Transmit_IT+0x9e>
  {
    if (huart->Init.WordLength == UART_WORDLENGTH_9B)
 8004ac6:	687b      	ldr	r3, [r7, #4]
 8004ac8:	689b      	ldr	r3, [r3, #8]
 8004aca:	f5b3 5f80 	cmp.w	r3, #4096	; 0x1000
 8004ace:	d11a      	bne.n	8004b06 <UART_Transmit_IT+0x54>
    {
      tmp = (uint16_t *) huart->pTxBuffPtr;
 8004ad0:	687b      	ldr	r3, [r7, #4]
 8004ad2:	6a1b      	ldr	r3, [r3, #32]
 8004ad4:	60fb      	str	r3, [r7, #12]
      huart->Instance->DR = (uint16_t)(*tmp & (uint16_t)0x01FF);
 8004ad6:	68fb      	ldr	r3, [r7, #12]
 8004ad8:	881b      	ldrh	r3, [r3, #0]
 8004ada:	461a      	mov	r2, r3
 8004adc:	687b      	ldr	r3, [r7, #4]
 8004ade:	681b      	ldr	r3, [r3, #0]
 8004ae0:	f3c2 0208 	ubfx	r2, r2, #0, #9
 8004ae4:	605a      	str	r2, [r3, #4]
      if (huart->Init.Parity == UART_PARITY_NONE)
 8004ae6:	687b      	ldr	r3, [r7, #4]
 8004ae8:	691b      	ldr	r3, [r3, #16]
 8004aea:	2b00      	cmp	r3, #0
 8004aec:	d105      	bne.n	8004afa <UART_Transmit_IT+0x48>
      {
        huart->pTxBuffPtr += 2U;
 8004aee:	687b      	ldr	r3, [r7, #4]
 8004af0:	6a1b      	ldr	r3, [r3, #32]
 8004af2:	1c9a      	adds	r2, r3, #2
 8004af4:	687b      	ldr	r3, [r7, #4]
 8004af6:	621a      	str	r2, [r3, #32]
 8004af8:	e00e      	b.n	8004b18 <UART_Transmit_IT+0x66>
      }
      else
      {
        huart->pTxBuffPtr += 1U;
 8004afa:	687b      	ldr	r3, [r7, #4]
 8004afc:	6a1b      	ldr	r3, [r3, #32]
 8004afe:	1c5a      	adds	r2, r3, #1
 8004b00:	687b      	ldr	r3, [r7, #4]
 8004b02:	621a      	str	r2, [r3, #32]
 8004b04:	e008      	b.n	8004b18 <UART_Transmit_IT+0x66>
      }
    }
    else
    {
      huart->Instance->DR = (uint8_t)(*huart->pTxBuffPtr++ & (uint8_t)0x00FF);
 8004b06:	687b      	ldr	r3, [r7, #4]
 8004b08:	6a1b      	ldr	r3, [r3, #32]
 8004b0a:	1c59      	adds	r1, r3, #1
 8004b0c:	687a      	ldr	r2, [r7, #4]
 8004b0e:	6211      	str	r1, [r2, #32]
 8004b10:	781a      	ldrb	r2, [r3, #0]
 8004b12:	687b      	ldr	r3, [r7, #4]
 8004b14:	681b      	ldr	r3, [r3, #0]
 8004b16:	605a      	str	r2, [r3, #4]
    }

    if (--huart->TxXferCount == 0U)
 8004b18:	687b      	ldr	r3, [r7, #4]
 8004b1a:	8cdb      	ldrh	r3, [r3, #38]	; 0x26
 8004b1c:	b29b      	uxth	r3, r3
 8004b1e:	3b01      	subs	r3, #1
 8004b20:	b29b      	uxth	r3, r3
 8004b22:	687a      	ldr	r2, [r7, #4]
 8004b24:	4619      	mov	r1, r3
 8004b26:	84d1      	strh	r1, [r2, #38]	; 0x26
 8004b28:	2b00      	cmp	r3, #0
 8004b2a:	d10f      	bne.n	8004b4c <UART_Transmit_IT+0x9a>
    {
      /* Disable the UART Transmit Complete Interrupt */
      __HAL_UART_DISABLE_IT(huart, UART_IT_TXE);
 8004b2c:	687b      	ldr	r3, [r7, #4]
 8004b2e:	681b      	ldr	r3, [r3, #0]
 8004b30:	68da      	ldr	r2, [r3, #12]
 8004b32:	687b      	ldr	r3, [r7, #4]
 8004b34:	681b      	ldr	r3, [r3, #0]
 8004b36:	f022 0280 	bic.w	r2, r2, #128	; 0x80
 8004b3a:	60da      	str	r2, [r3, #12]

      /* Enable the UART Transmit Complete Interrupt */
      __HAL_UART_ENABLE_IT(huart, UART_IT_TC);
 8004b3c:	687b      	ldr	r3, [r7, #4]
 8004b3e:	681b      	ldr	r3, [r3, #0]
 8004b40:	68da      	ldr	r2, [r3, #12]
 8004b42:	687b      	ldr	r3, [r7, #4]
 8004b44:	681b      	ldr	r3, [r3, #0]
 8004b46:	f042 0240 	orr.w	r2, r2, #64	; 0x40
 8004b4a:	60da      	str	r2, [r3, #12]
    }
    return HAL_OK;
 8004b4c:	2300      	movs	r3, #0
 8004b4e:	e000      	b.n	8004b52 <UART_Transmit_IT+0xa0>
  }
  else
  {
    return HAL_BUSY;
 8004b50:	2302      	movs	r3, #2
  }
}
 8004b52:	4618      	mov	r0, r3
 8004b54:	3714      	adds	r7, #20
 8004b56:	46bd      	mov	sp, r7
 8004b58:	bc80      	pop	{r7}
 8004b5a:	4770      	bx	lr

08004b5c <UART_EndTransmit_IT>:
  * @param  huart  Pointer to a UART_HandleTypeDef structure that contains
  *                the configuration information for the specified UART module.
  * @retval HAL status
  */
static HAL_StatusTypeDef UART_EndTransmit_IT(UART_HandleTypeDef *huart)
{
 8004b5c:	b580      	push	{r7, lr}
 8004b5e:	b082      	sub	sp, #8
 8004b60:	af00      	add	r7, sp, #0
 8004b62:	6078      	str	r0, [r7, #4]
  /* Disable the UART Transmit Complete Interrupt */
  __HAL_UART_DISABLE_IT(huart, UART_IT_TC);
 8004b64:	687b      	ldr	r3, [r7, #4]
 8004b66:	681b      	ldr	r3, [r3, #0]
 8004b68:	68da      	ldr	r2, [r3, #12]
 8004b6a:	687b      	ldr	r3, [r7, #4]
 8004b6c:	681b      	ldr	r3, [r3, #0]
 8004b6e:	f022 0240 	bic.w	r2, r2, #64	; 0x40
 8004b72:	60da      	str	r2, [r3, #12]

  /* Tx process is ended, restore huart->gState to Ready */
  huart->gState = HAL_UART_STATE_READY;
 8004b74:	687b      	ldr	r3, [r7, #4]
 8004b76:	2220      	movs	r2, #32
 8004b78:	f883 2039 	strb.w	r2, [r3, #57]	; 0x39
#if (USE_HAL_UART_REGISTER_CALLBACKS == 1)
  /*Call registered Tx complete callback*/
  huart->TxCpltCallback(huart);
#else
  /*Call legacy weak Tx complete callback*/
  HAL_UART_TxCpltCallback(huart);
 8004b7c:	6878      	ldr	r0, [r7, #4]
 8004b7e:	f7ff ff0b 	bl	8004998 <HAL_UART_TxCpltCallback>
#endif /* USE_HAL_UART_REGISTER_CALLBACKS */

  return HAL_OK;
 8004b82:	2300      	movs	r3, #0
}
 8004b84:	4618      	mov	r0, r3
 8004b86:	3708      	adds	r7, #8
 8004b88:	46bd      	mov	sp, r7
 8004b8a:	bd80      	pop	{r7, pc}

08004b8c <UART_Receive_IT>:
  * @param  huart  Pointer to a UART_HandleTypeDef structure that contains
  *                the configuration information for the specified UART module.
  * @retval HAL status
  */
static HAL_StatusTypeDef UART_Receive_IT(UART_HandleTypeDef *huart)
{
 8004b8c:	b580      	push	{r7, lr}
 8004b8e:	b084      	sub	sp, #16
 8004b90:	af00      	add	r7, sp, #0
 8004b92:	6078      	str	r0, [r7, #4]
  uint16_t *tmp;

  /* Check that a Rx process is ongoing */
  if (huart->RxState == HAL_UART_STATE_BUSY_RX)
 8004b94:	687b      	ldr	r3, [r7, #4]
 8004b96:	f893 303a 	ldrb.w	r3, [r3, #58]	; 0x3a
 8004b9a:	b2db      	uxtb	r3, r3
 8004b9c:	2b22      	cmp	r3, #34	; 0x22
 8004b9e:	d171      	bne.n	8004c84 <UART_Receive_IT+0xf8>
  {
    if (huart->Init.WordLength == UART_WORDLENGTH_9B)
 8004ba0:	687b      	ldr	r3, [r7, #4]
 8004ba2:	689b      	ldr	r3, [r3, #8]
 8004ba4:	f5b3 5f80 	cmp.w	r3, #4096	; 0x1000
 8004ba8:	d123      	bne.n	8004bf2 <UART_Receive_IT+0x66>
    {
      tmp = (uint16_t *) huart->pRxBuffPtr;
 8004baa:	687b      	ldr	r3, [r7, #4]
 8004bac:	6a9b      	ldr	r3, [r3, #40]	; 0x28
 8004bae:	60fb      	str	r3, [r7, #12]
      if (huart->Init.Parity == UART_PARITY_NONE)
 8004bb0:	687b      	ldr	r3, [r7, #4]
 8004bb2:	691b      	ldr	r3, [r3, #16]
 8004bb4:	2b00      	cmp	r3, #0
 8004bb6:	d10e      	bne.n	8004bd6 <UART_Receive_IT+0x4a>
      {
        *tmp = (uint16_t)(huart->Instance->DR & (uint16_t)0x01FF);
 8004bb8:	687b      	ldr	r3, [r7, #4]
 8004bba:	681b      	ldr	r3, [r3, #0]
 8004bbc:	685b      	ldr	r3, [r3, #4]
 8004bbe:	b29b      	uxth	r3, r3
 8004bc0:	f3c3 0308 	ubfx	r3, r3, #0, #9
 8004bc4:	b29a      	uxth	r2, r3
 8004bc6:	68fb      	ldr	r3, [r7, #12]
 8004bc8:	801a      	strh	r2, [r3, #0]
        huart->pRxBuffPtr += 2U;
 8004bca:	687b      	ldr	r3, [r7, #4]
 8004bcc:	6a9b      	ldr	r3, [r3, #40]	; 0x28
 8004bce:	1c9a      	adds	r2, r3, #2
 8004bd0:	687b      	ldr	r3, [r7, #4]
 8004bd2:	629a      	str	r2, [r3, #40]	; 0x28
 8004bd4:	e029      	b.n	8004c2a <UART_Receive_IT+0x9e>
      }
      else
      {
        *tmp = (uint16_t)(huart->Instance->DR & (uint16_t)0x00FF);
 8004bd6:	687b      	ldr	r3, [r7, #4]
 8004bd8:	681b      	ldr	r3, [r3, #0]
 8004bda:	685b      	ldr	r3, [r3, #4]
 8004bdc:	b29b      	uxth	r3, r3
 8004bde:	b2db      	uxtb	r3, r3
 8004be0:	b29a      	uxth	r2, r3
 8004be2:	68fb      	ldr	r3, [r7, #12]
 8004be4:	801a      	strh	r2, [r3, #0]
        huart->pRxBuffPtr += 1U;
 8004be6:	687b      	ldr	r3, [r7, #4]
 8004be8:	6a9b      	ldr	r3, [r3, #40]	; 0x28
 8004bea:	1c5a      	adds	r2, r3, #1
 8004bec:	687b      	ldr	r3, [r7, #4]
 8004bee:	629a      	str	r2, [r3, #40]	; 0x28
 8004bf0:	e01b      	b.n	8004c2a <UART_Receive_IT+0x9e>
      }
    }
    else
    {
      if (huart->Init.Parity == UART_PARITY_NONE)
 8004bf2:	687b      	ldr	r3, [r7, #4]
 8004bf4:	691b      	ldr	r3, [r3, #16]
 8004bf6:	2b00      	cmp	r3, #0
 8004bf8:	d10a      	bne.n	8004c10 <UART_Receive_IT+0x84>
      {
        *huart->pRxBuffPtr++ = (uint8_t)(huart->Instance->DR & (uint8_t)0x00FF);
 8004bfa:	687b      	ldr	r3, [r7, #4]
 8004bfc:	681b      	ldr	r3, [r3, #0]
 8004bfe:	6858      	ldr	r0, [r3, #4]
 8004c00:	687b      	ldr	r3, [r7, #4]
 8004c02:	6a9b      	ldr	r3, [r3, #40]	; 0x28
 8004c04:	1c59      	adds	r1, r3, #1
 8004c06:	687a      	ldr	r2, [r7, #4]
 8004c08:	6291      	str	r1, [r2, #40]	; 0x28
 8004c0a:	b2c2      	uxtb	r2, r0
 8004c0c:	701a      	strb	r2, [r3, #0]
 8004c0e:	e00c      	b.n	8004c2a <UART_Receive_IT+0x9e>
      }
      else
      {
        *huart->pRxBuffPtr++ = (uint8_t)(huart->Instance->DR & (uint8_t)0x007F);
 8004c10:	687b      	ldr	r3, [r7, #4]
 8004c12:	681b      	ldr	r3, [r3, #0]
 8004c14:	685b      	ldr	r3, [r3, #4]
 8004c16:	b2da      	uxtb	r2, r3
 8004c18:	687b      	ldr	r3, [r7, #4]
 8004c1a:	6a9b      	ldr	r3, [r3, #40]	; 0x28
 8004c1c:	1c58      	adds	r0, r3, #1
 8004c1e:	6879      	ldr	r1, [r7, #4]
 8004c20:	6288      	str	r0, [r1, #40]	; 0x28
 8004c22:	f002 027f 	and.w	r2, r2, #127	; 0x7f
 8004c26:	b2d2      	uxtb	r2, r2
 8004c28:	701a      	strb	r2, [r3, #0]
      }
    }

    if (--huart->RxXferCount == 0U)
 8004c2a:	687b      	ldr	r3, [r7, #4]
 8004c2c:	8ddb      	ldrh	r3, [r3, #46]	; 0x2e
 8004c2e:	b29b      	uxth	r3, r3
 8004c30:	3b01      	subs	r3, #1
 8004c32:	b29b      	uxth	r3, r3
 8004c34:	687a      	ldr	r2, [r7, #4]
 8004c36:	4619      	mov	r1, r3
 8004c38:	85d1      	strh	r1, [r2, #46]	; 0x2e
 8004c3a:	2b00      	cmp	r3, #0
 8004c3c:	d120      	bne.n	8004c80 <UART_Receive_IT+0xf4>
    {
      /* Disable the UART Data Register not empty Interrupt */
      __HAL_UART_DISABLE_IT(huart, UART_IT_RXNE);
 8004c3e:	687b      	ldr	r3, [r7, #4]
 8004c40:	681b      	ldr	r3, [r3, #0]
 8004c42:	68da      	ldr	r2, [r3, #12]
 8004c44:	687b      	ldr	r3, [r7, #4]
 8004c46:	681b      	ldr	r3, [r3, #0]
 8004c48:	f022 0220 	bic.w	r2, r2, #32
 8004c4c:	60da      	str	r2, [r3, #12]

      /* Disable the UART Parity Error Interrupt */
      __HAL_UART_DISABLE_IT(huart, UART_IT_PE);
 8004c4e:	687b      	ldr	r3, [r7, #4]
 8004c50:	681b      	ldr	r3, [r3, #0]
 8004c52:	68da      	ldr	r2, [r3, #12]
 8004c54:	687b      	ldr	r3, [r7, #4]
 8004c56:	681b      	ldr	r3, [r3, #0]
 8004c58:	f422 7280 	bic.w	r2, r2, #256	; 0x100
 8004c5c:	60da      	str	r2, [r3, #12]

      /* Disable the UART Error Interrupt: (Frame error, noise error, overrun error) */
      __HAL_UART_DISABLE_IT(huart, UART_IT_ERR);
 8004c5e:	687b      	ldr	r3, [r7, #4]
 8004c60:	681b      	ldr	r3, [r3, #0]
 8004c62:	695a      	ldr	r2, [r3, #20]
 8004c64:	687b      	ldr	r3, [r7, #4]
 8004c66:	681b      	ldr	r3, [r3, #0]
 8004c68:	f022 0201 	bic.w	r2, r2, #1
 8004c6c:	615a      	str	r2, [r3, #20]

      /* Rx process is completed, restore huart->RxState to Ready */
      huart->RxState = HAL_UART_STATE_READY;
 8004c6e:	687b      	ldr	r3, [r7, #4]
 8004c70:	2220      	movs	r2, #32
 8004c72:	f883 203a 	strb.w	r2, [r3, #58]	; 0x3a
#if (USE_HAL_UART_REGISTER_CALLBACKS == 1)
      /*Call registered Rx complete callback*/
      huart->RxCpltCallback(huart);
#else
      /*Call legacy weak Rx complete callback*/
      HAL_UART_RxCpltCallback(huart);
 8004c76:	6878      	ldr	r0, [r7, #4]
 8004c78:	f7fb fa82 	bl	8000180 <HAL_UART_RxCpltCallback>
#endif /* USE_HAL_UART_REGISTER_CALLBACKS */

      return HAL_OK;
 8004c7c:	2300      	movs	r3, #0
 8004c7e:	e002      	b.n	8004c86 <UART_Receive_IT+0xfa>
    }
    return HAL_OK;
 8004c80:	2300      	movs	r3, #0
 8004c82:	e000      	b.n	8004c86 <UART_Receive_IT+0xfa>
  }
  else
  {
    return HAL_BUSY;
 8004c84:	2302      	movs	r3, #2
  }
}
 8004c86:	4618      	mov	r0, r3
 8004c88:	3710      	adds	r7, #16
 8004c8a:	46bd      	mov	sp, r7
 8004c8c:	bd80      	pop	{r7, pc}
	...

08004c90 <UART_SetConfig>:
  * @param  huart  Pointer to a UART_HandleTypeDef structure that contains
  *                the configuration information for the specified UART module.
  * @retval None
  */
static void UART_SetConfig(UART_HandleTypeDef *huart)
{
 8004c90:	b580      	push	{r7, lr}
 8004c92:	b084      	sub	sp, #16
 8004c94:	af00      	add	r7, sp, #0
 8004c96:	6078      	str	r0, [r7, #4]
  assert_param(IS_UART_MODE(huart->Init.Mode));

  /*-------------------------- USART CR2 Configuration -----------------------*/
  /* Configure the UART Stop Bits: Set STOP[13:12] bits
     according to huart->Init.StopBits value */
  MODIFY_REG(huart->Instance->CR2, USART_CR2_STOP, huart->Init.StopBits);
 8004c98:	687b      	ldr	r3, [r7, #4]
 8004c9a:	681b      	ldr	r3, [r3, #0]
 8004c9c:	691b      	ldr	r3, [r3, #16]
 8004c9e:	f423 5140 	bic.w	r1, r3, #12288	; 0x3000
 8004ca2:	687b      	ldr	r3, [r7, #4]
 8004ca4:	68da      	ldr	r2, [r3, #12]
 8004ca6:	687b      	ldr	r3, [r7, #4]
 8004ca8:	681b      	ldr	r3, [r3, #0]
 8004caa:	430a      	orrs	r2, r1
 8004cac:	611a      	str	r2, [r3, #16]
  tmpreg = (uint32_t)huart->Init.WordLength | huart->Init.Parity | huart->Init.Mode | huart->Init.OverSampling;
  MODIFY_REG(huart->Instance->CR1,
             (uint32_t)(USART_CR1_M | USART_CR1_PCE | USART_CR1_PS | USART_CR1_TE | USART_CR1_RE | USART_CR1_OVER8),
             tmpreg);
#else
  tmpreg = (uint32_t)huart->Init.WordLength | huart->Init.Parity | huart->Init.Mode;
 8004cae:	687b      	ldr	r3, [r7, #4]
 8004cb0:	689a      	ldr	r2, [r3, #8]
 8004cb2:	687b      	ldr	r3, [r7, #4]
 8004cb4:	691b      	ldr	r3, [r3, #16]
 8004cb6:	431a      	orrs	r2, r3
 8004cb8:	687b      	ldr	r3, [r7, #4]
 8004cba:	695b      	ldr	r3, [r3, #20]
 8004cbc:	4313      	orrs	r3, r2
 8004cbe:	60fb      	str	r3, [r7, #12]
  MODIFY_REG(huart->Instance->CR1,
 8004cc0:	687b      	ldr	r3, [r7, #4]
 8004cc2:	681b      	ldr	r3, [r3, #0]
 8004cc4:	68db      	ldr	r3, [r3, #12]
 8004cc6:	f423 53b0 	bic.w	r3, r3, #5632	; 0x1600
 8004cca:	f023 030c 	bic.w	r3, r3, #12
 8004cce:	687a      	ldr	r2, [r7, #4]
 8004cd0:	6812      	ldr	r2, [r2, #0]
 8004cd2:	68f9      	ldr	r1, [r7, #12]
 8004cd4:	430b      	orrs	r3, r1
 8004cd6:	60d3      	str	r3, [r2, #12]
             tmpreg);
#endif /* USART_CR1_OVER8 */

  /*-------------------------- USART CR3 Configuration -----------------------*/
  /* Configure the UART HFC: Set CTSE and RTSE bits according to huart->Init.HwFlowCtl value */
  MODIFY_REG(huart->Instance->CR3, (USART_CR3_RTSE | USART_CR3_CTSE), huart->Init.HwFlowCtl);
 8004cd8:	687b      	ldr	r3, [r7, #4]
 8004cda:	681b      	ldr	r3, [r3, #0]
 8004cdc:	695b      	ldr	r3, [r3, #20]
 8004cde:	f423 7140 	bic.w	r1, r3, #768	; 0x300
 8004ce2:	687b      	ldr	r3, [r7, #4]
 8004ce4:	699a      	ldr	r2, [r3, #24]
 8004ce6:	687b      	ldr	r3, [r7, #4]
 8004ce8:	681b      	ldr	r3, [r3, #0]
 8004cea:	430a      	orrs	r2, r1
 8004cec:	615a      	str	r2, [r3, #20]
      huart->Instance->BRR = UART_BRR_SAMPLING16(pclk, huart->Init.BaudRate);
    }
  }
#else
  /*-------------------------- USART BRR Configuration ---------------------*/
  if(huart->Instance == USART1)
 8004cee:	687b      	ldr	r3, [r7, #4]
 8004cf0:	681b      	ldr	r3, [r3, #0]
 8004cf2:	4a52      	ldr	r2, [pc, #328]	; (8004e3c <UART_SetConfig+0x1ac>)
 8004cf4:	4293      	cmp	r3, r2
 8004cf6:	d14e      	bne.n	8004d96 <UART_SetConfig+0x106>
  {
    pclk = HAL_RCC_GetPCLK2Freq();
 8004cf8:	f7ff f908 	bl	8003f0c <HAL_RCC_GetPCLK2Freq>
 8004cfc:	60b8      	str	r0, [r7, #8]
    huart->Instance->BRR = UART_BRR_SAMPLING16(pclk, huart->Init.BaudRate);
 8004cfe:	68ba      	ldr	r2, [r7, #8]
 8004d00:	4613      	mov	r3, r2
 8004d02:	009b      	lsls	r3, r3, #2
 8004d04:	4413      	add	r3, r2
 8004d06:	009a      	lsls	r2, r3, #2
 8004d08:	441a      	add	r2, r3
 8004d0a:	687b      	ldr	r3, [r7, #4]
 8004d0c:	685b      	ldr	r3, [r3, #4]
 8004d0e:	009b      	lsls	r3, r3, #2
 8004d10:	fbb2 f3f3 	udiv	r3, r2, r3
 8004d14:	4a4a      	ldr	r2, [pc, #296]	; (8004e40 <UART_SetConfig+0x1b0>)
 8004d16:	fba2 2303 	umull	r2, r3, r2, r3
 8004d1a:	095b      	lsrs	r3, r3, #5
 8004d1c:	0119      	lsls	r1, r3, #4
 8004d1e:	68ba      	ldr	r2, [r7, #8]
 8004d20:	4613      	mov	r3, r2
 8004d22:	009b      	lsls	r3, r3, #2
 8004d24:	4413      	add	r3, r2
 8004d26:	009a      	lsls	r2, r3, #2
 8004d28:	441a      	add	r2, r3
 8004d2a:	687b      	ldr	r3, [r7, #4]
 8004d2c:	685b      	ldr	r3, [r3, #4]
 8004d2e:	009b      	lsls	r3, r3, #2
 8004d30:	fbb2 f2f3 	udiv	r2, r2, r3
 8004d34:	4b42      	ldr	r3, [pc, #264]	; (8004e40 <UART_SetConfig+0x1b0>)
 8004d36:	fba3 0302 	umull	r0, r3, r3, r2
 8004d3a:	095b      	lsrs	r3, r3, #5
 8004d3c:	2064      	movs	r0, #100	; 0x64
 8004d3e:	fb00 f303 	mul.w	r3, r0, r3
 8004d42:	1ad3      	subs	r3, r2, r3
 8004d44:	011b      	lsls	r3, r3, #4
 8004d46:	3332      	adds	r3, #50	; 0x32
 8004d48:	4a3d      	ldr	r2, [pc, #244]	; (8004e40 <UART_SetConfig+0x1b0>)
 8004d4a:	fba2 2303 	umull	r2, r3, r2, r3
 8004d4e:	095b      	lsrs	r3, r3, #5
 8004d50:	f003 03f0 	and.w	r3, r3, #240	; 0xf0
 8004d54:	4419      	add	r1, r3
 8004d56:	68ba      	ldr	r2, [r7, #8]
 8004d58:	4613      	mov	r3, r2
 8004d5a:	009b      	lsls	r3, r3, #2
 8004d5c:	4413      	add	r3, r2
 8004d5e:	009a      	lsls	r2, r3, #2
 8004d60:	441a      	add	r2, r3
 8004d62:	687b      	ldr	r3, [r7, #4]
 8004d64:	685b      	ldr	r3, [r3, #4]
 8004d66:	009b      	lsls	r3, r3, #2
 8004d68:	fbb2 f2f3 	udiv	r2, r2, r3
 8004d6c:	4b34      	ldr	r3, [pc, #208]	; (8004e40 <UART_SetConfig+0x1b0>)
 8004d6e:	fba3 0302 	umull	r0, r3, r3, r2
 8004d72:	095b      	lsrs	r3, r3, #5
 8004d74:	2064      	movs	r0, #100	; 0x64
 8004d76:	fb00 f303 	mul.w	r3, r0, r3
 8004d7a:	1ad3      	subs	r3, r2, r3
 8004d7c:	011b      	lsls	r3, r3, #4
 8004d7e:	3332      	adds	r3, #50	; 0x32
 8004d80:	4a2f      	ldr	r2, [pc, #188]	; (8004e40 <UART_SetConfig+0x1b0>)
 8004d82:	fba2 2303 	umull	r2, r3, r2, r3
 8004d86:	095b      	lsrs	r3, r3, #5
 8004d88:	f003 020f 	and.w	r2, r3, #15
 8004d8c:	687b      	ldr	r3, [r7, #4]
 8004d8e:	681b      	ldr	r3, [r3, #0]
 8004d90:	440a      	add	r2, r1
 8004d92:	609a      	str	r2, [r3, #8]
  {
    pclk = HAL_RCC_GetPCLK1Freq();
    huart->Instance->BRR = UART_BRR_SAMPLING16(pclk, huart->Init.BaudRate);
  }
#endif /* USART_CR1_OVER8 */
}
 8004d94:	e04d      	b.n	8004e32 <UART_SetConfig+0x1a2>
    pclk = HAL_RCC_GetPCLK1Freq();
 8004d96:	f7ff f8a5 	bl	8003ee4 <HAL_RCC_GetPCLK1Freq>
 8004d9a:	60b8      	str	r0, [r7, #8]
    huart->Instance->BRR = UART_BRR_SAMPLING16(pclk, huart->Init.BaudRate);
 8004d9c:	68ba      	ldr	r2, [r7, #8]
 8004d9e:	4613      	mov	r3, r2
 8004da0:	009b      	lsls	r3, r3, #2
 8004da2:	4413      	add	r3, r2
 8004da4:	009a      	lsls	r2, r3, #2
 8004da6:	441a      	add	r2, r3
 8004da8:	687b      	ldr	r3, [r7, #4]
 8004daa:	685b      	ldr	r3, [r3, #4]
 8004dac:	009b      	lsls	r3, r3, #2
 8004dae:	fbb2 f3f3 	udiv	r3, r2, r3
 8004db2:	4a23      	ldr	r2, [pc, #140]	; (8004e40 <UART_SetConfig+0x1b0>)
 8004db4:	fba2 2303 	umull	r2, r3, r2, r3
 8004db8:	095b      	lsrs	r3, r3, #5
 8004dba:	0119      	lsls	r1, r3, #4
 8004dbc:	68ba      	ldr	r2, [r7, #8]
 8004dbe:	4613      	mov	r3, r2
 8004dc0:	009b      	lsls	r3, r3, #2
 8004dc2:	4413      	add	r3, r2
 8004dc4:	009a      	lsls	r2, r3, #2
 8004dc6:	441a      	add	r2, r3
 8004dc8:	687b      	ldr	r3, [r7, #4]
 8004dca:	685b      	ldr	r3, [r3, #4]
 8004dcc:	009b      	lsls	r3, r3, #2
 8004dce:	fbb2 f2f3 	udiv	r2, r2, r3
 8004dd2:	4b1b      	ldr	r3, [pc, #108]	; (8004e40 <UART_SetConfig+0x1b0>)
 8004dd4:	fba3 0302 	umull	r0, r3, r3, r2
 8004dd8:	095b      	lsrs	r3, r3, #5
 8004dda:	2064      	movs	r0, #100	; 0x64
 8004ddc:	fb00 f303 	mul.w	r3, r0, r3
 8004de0:	1ad3      	subs	r3, r2, r3
 8004de2:	011b      	lsls	r3, r3, #4
 8004de4:	3332      	adds	r3, #50	; 0x32
 8004de6:	4a16      	ldr	r2, [pc, #88]	; (8004e40 <UART_SetConfig+0x1b0>)
 8004de8:	fba2 2303 	umull	r2, r3, r2, r3
 8004dec:	095b      	lsrs	r3, r3, #5
 8004dee:	f003 03f0 	and.w	r3, r3, #240	; 0xf0
 8004df2:	4419      	add	r1, r3
 8004df4:	68ba      	ldr	r2, [r7, #8]
 8004df6:	4613      	mov	r3, r2
 8004df8:	009b      	lsls	r3, r3, #2
 8004dfa:	4413      	add	r3, r2
 8004dfc:	009a      	lsls	r2, r3, #2
 8004dfe:	441a      	add	r2, r3
 8004e00:	687b      	ldr	r3, [r7, #4]
 8004e02:	685b      	ldr	r3, [r3, #4]
 8004e04:	009b      	lsls	r3, r3, #2
 8004e06:	fbb2 f2f3 	udiv	r2, r2, r3
 8004e0a:	4b0d      	ldr	r3, [pc, #52]	; (8004e40 <UART_SetConfig+0x1b0>)
 8004e0c:	fba3 0302 	umull	r0, r3, r3, r2
 8004e10:	095b      	lsrs	r3, r3, #5
 8004e12:	2064      	movs	r0, #100	; 0x64
 8004e14:	fb00 f303 	mul.w	r3, r0, r3
 8004e18:	1ad3      	subs	r3, r2, r3
 8004e1a:	011b      	lsls	r3, r3, #4
 8004e1c:	3332      	adds	r3, #50	; 0x32
 8004e1e:	4a08      	ldr	r2, [pc, #32]	; (8004e40 <UART_SetConfig+0x1b0>)
 8004e20:	fba2 2303 	umull	r2, r3, r2, r3
 8004e24:	095b      	lsrs	r3, r3, #5
 8004e26:	f003 020f 	and.w	r2, r3, #15
 8004e2a:	687b      	ldr	r3, [r7, #4]
 8004e2c:	681b      	ldr	r3, [r3, #0]
 8004e2e:	440a      	add	r2, r1
 8004e30:	609a      	str	r2, [r3, #8]
}
 8004e32:	bf00      	nop
 8004e34:	3710      	adds	r7, #16
 8004e36:	46bd      	mov	sp, r7
 8004e38:	bd80      	pop	{r7, pc}
 8004e3a:	bf00      	nop
 8004e3c:	40013800 	.word	0x40013800
 8004e40:	51eb851f 	.word	0x51eb851f

08004e44 <vListInitialise>:
/*-----------------------------------------------------------
 * PUBLIC LIST API documented in list.h
 *----------------------------------------------------------*/

void vListInitialise( List_t * const pxList )
{
 8004e44:	b480      	push	{r7}
 8004e46:	b083      	sub	sp, #12
 8004e48:	af00      	add	r7, sp, #0
 8004e4a:	6078      	str	r0, [r7, #4]
	/* The list structure contains a list item which is used to mark the
	end of the list.  To initialise the list the list end is inserted
	as the only list entry. */
	pxList->pxIndex = ( ListItem_t * ) &( pxList->xListEnd );			/*lint !e826 !e740 The mini list structure is used as the list end to save RAM.  This is checked and valid. */
 8004e4c:	687b      	ldr	r3, [r7, #4]
 8004e4e:	f103 0208 	add.w	r2, r3, #8
 8004e52:	687b      	ldr	r3, [r7, #4]
 8004e54:	605a      	str	r2, [r3, #4]

	/* The list end value is the highest possible value in the list to
	ensure it remains at the end of the list. */
	pxList->xListEnd.xItemValue = portMAX_DELAY;
 8004e56:	687b      	ldr	r3, [r7, #4]
 8004e58:	f04f 32ff 	mov.w	r2, #4294967295
 8004e5c:	609a      	str	r2, [r3, #8]

	/* The list end next and previous pointers point to itself so we know
	when the list is empty. */
	pxList->xListEnd.pxNext = ( ListItem_t * ) &( pxList->xListEnd );	/*lint !e826 !e740 The mini list structure is used as the list end to save RAM.  This is checked and valid. */
 8004e5e:	687b      	ldr	r3, [r7, #4]
 8004e60:	f103 0208 	add.w	r2, r3, #8
 8004e64:	687b      	ldr	r3, [r7, #4]
 8004e66:	60da      	str	r2, [r3, #12]
	pxList->xListEnd.pxPrevious = ( ListItem_t * ) &( pxList->xListEnd );/*lint !e826 !e740 The mini list structure is used as the list end to save RAM.  This is checked and valid. */
 8004e68:	687b      	ldr	r3, [r7, #4]
 8004e6a:	f103 0208 	add.w	r2, r3, #8
 8004e6e:	687b      	ldr	r3, [r7, #4]
 8004e70:	611a      	str	r2, [r3, #16]

	pxList->uxNumberOfItems = ( UBaseType_t ) 0U;
 8004e72:	687b      	ldr	r3, [r7, #4]
 8004e74:	2200      	movs	r2, #0
 8004e76:	601a      	str	r2, [r3, #0]

	/* Write known values into the list if
	configUSE_LIST_DATA_INTEGRITY_CHECK_BYTES is set to 1. */
	listSET_LIST_INTEGRITY_CHECK_1_VALUE( pxList );
	listSET_LIST_INTEGRITY_CHECK_2_VALUE( pxList );
}
 8004e78:	bf00      	nop
 8004e7a:	370c      	adds	r7, #12
 8004e7c:	46bd      	mov	sp, r7
 8004e7e:	bc80      	pop	{r7}
 8004e80:	4770      	bx	lr

08004e82 <vListInitialiseItem>:
/*-----------------------------------------------------------*/

void vListInitialiseItem( ListItem_t * const pxItem )
{
 8004e82:	b480      	push	{r7}
 8004e84:	b083      	sub	sp, #12
 8004e86:	af00      	add	r7, sp, #0
 8004e88:	6078      	str	r0, [r7, #4]
	/* Make sure the list item is not recorded as being on a list. */
	pxItem->pvContainer = NULL;
 8004e8a:	687b      	ldr	r3, [r7, #4]
 8004e8c:	2200      	movs	r2, #0
 8004e8e:	611a      	str	r2, [r3, #16]

	/* Write known values into the list item if
	configUSE_LIST_DATA_INTEGRITY_CHECK_BYTES is set to 1. */
	listSET_FIRST_LIST_ITEM_INTEGRITY_CHECK_VALUE( pxItem );
	listSET_SECOND_LIST_ITEM_INTEGRITY_CHECK_VALUE( pxItem );
}
 8004e90:	bf00      	nop
 8004e92:	370c      	adds	r7, #12
 8004e94:	46bd      	mov	sp, r7
 8004e96:	bc80      	pop	{r7}
 8004e98:	4770      	bx	lr

08004e9a <vListInsertEnd>:
/*-----------------------------------------------------------*/

void vListInsertEnd( List_t * const pxList, ListItem_t * const pxNewListItem )
{
 8004e9a:	b480      	push	{r7}
 8004e9c:	b085      	sub	sp, #20
 8004e9e:	af00      	add	r7, sp, #0
 8004ea0:	6078      	str	r0, [r7, #4]
 8004ea2:	6039      	str	r1, [r7, #0]
ListItem_t * const pxIndex = pxList->pxIndex;
 8004ea4:	687b      	ldr	r3, [r7, #4]
 8004ea6:	685b      	ldr	r3, [r3, #4]
 8004ea8:	60fb      	str	r3, [r7, #12]
	listTEST_LIST_ITEM_INTEGRITY( pxNewListItem );

	/* Insert a new list item into pxList, but rather than sort the list,
	makes the new list item the last item to be removed by a call to
	listGET_OWNER_OF_NEXT_ENTRY(). */
	pxNewListItem->pxNext = pxIndex;
 8004eaa:	683b      	ldr	r3, [r7, #0]
 8004eac:	68fa      	ldr	r2, [r7, #12]
 8004eae:	605a      	str	r2, [r3, #4]
	pxNewListItem->pxPrevious = pxIndex->pxPrevious;
 8004eb0:	68fb      	ldr	r3, [r7, #12]
 8004eb2:	689a      	ldr	r2, [r3, #8]
 8004eb4:	683b      	ldr	r3, [r7, #0]
 8004eb6:	609a      	str	r2, [r3, #8]

	/* Only used during decision coverage testing. */
	mtCOVERAGE_TEST_DELAY();

	pxIndex->pxPrevious->pxNext = pxNewListItem;
 8004eb8:	68fb      	ldr	r3, [r7, #12]
 8004eba:	689b      	ldr	r3, [r3, #8]
 8004ebc:	683a      	ldr	r2, [r7, #0]
 8004ebe:	605a      	str	r2, [r3, #4]
	pxIndex->pxPrevious = pxNewListItem;
 8004ec0:	68fb      	ldr	r3, [r7, #12]
 8004ec2:	683a      	ldr	r2, [r7, #0]
 8004ec4:	609a      	str	r2, [r3, #8]

	/* Remember which list the item is in. */
	pxNewListItem->pvContainer = ( void * ) pxList;
 8004ec6:	683b      	ldr	r3, [r7, #0]
 8004ec8:	687a      	ldr	r2, [r7, #4]
 8004eca:	611a      	str	r2, [r3, #16]

	( pxList->uxNumberOfItems )++;
 8004ecc:	687b      	ldr	r3, [r7, #4]
 8004ece:	681b      	ldr	r3, [r3, #0]
 8004ed0:	1c5a      	adds	r2, r3, #1
 8004ed2:	687b      	ldr	r3, [r7, #4]
 8004ed4:	601a      	str	r2, [r3, #0]
}
 8004ed6:	bf00      	nop
 8004ed8:	3714      	adds	r7, #20
 8004eda:	46bd      	mov	sp, r7
 8004edc:	bc80      	pop	{r7}
 8004ede:	4770      	bx	lr

08004ee0 <vListInsert>:
/*-----------------------------------------------------------*/

void vListInsert( List_t * const pxList, ListItem_t * const pxNewListItem )
{
 8004ee0:	b480      	push	{r7}
 8004ee2:	b085      	sub	sp, #20
 8004ee4:	af00      	add	r7, sp, #0
 8004ee6:	6078      	str	r0, [r7, #4]
 8004ee8:	6039      	str	r1, [r7, #0]
ListItem_t *pxIterator;
const TickType_t xValueOfInsertion = pxNewListItem->xItemValue;
 8004eea:	683b      	ldr	r3, [r7, #0]
 8004eec:	681b      	ldr	r3, [r3, #0]
 8004eee:	60bb      	str	r3, [r7, #8]
	new list item should be placed after it.  This ensures that TCB's which are
	stored in ready lists (all of which have the same xItemValue value) get a
	share of the CPU.  However, if the xItemValue is the same as the back marker
	the iteration loop below will not end.  Therefore the value is checked
	first, and the algorithm slightly modified if necessary. */
	if( xValueOfInsertion == portMAX_DELAY )
 8004ef0:	68bb      	ldr	r3, [r7, #8]
 8004ef2:	f1b3 3fff 	cmp.w	r3, #4294967295
 8004ef6:	d103      	bne.n	8004f00 <vListInsert+0x20>
	{
		pxIterator = pxList->xListEnd.pxPrevious;
 8004ef8:	687b      	ldr	r3, [r7, #4]
 8004efa:	691b      	ldr	r3, [r3, #16]
 8004efc:	60fb      	str	r3, [r7, #12]
 8004efe:	e00c      	b.n	8004f1a <vListInsert+0x3a>
			4) Using a queue or semaphore before it has been initialised or
			   before the scheduler has been started (are interrupts firing
			   before vTaskStartScheduler() has been called?).
		**********************************************************************/

		for( pxIterator = ( ListItem_t * ) &( pxList->xListEnd ); pxIterator->pxNext->xItemValue <= xValueOfInsertion; pxIterator = pxIterator->pxNext ) /*lint !e826 !e740 The mini list structure is used as the list end to save RAM.  This is checked and valid. */
 8004f00:	687b      	ldr	r3, [r7, #4]
 8004f02:	3308      	adds	r3, #8
 8004f04:	60fb      	str	r3, [r7, #12]
 8004f06:	e002      	b.n	8004f0e <vListInsert+0x2e>
 8004f08:	68fb      	ldr	r3, [r7, #12]
 8004f0a:	685b      	ldr	r3, [r3, #4]
 8004f0c:	60fb      	str	r3, [r7, #12]
 8004f0e:	68fb      	ldr	r3, [r7, #12]
 8004f10:	685b      	ldr	r3, [r3, #4]
 8004f12:	681b      	ldr	r3, [r3, #0]
 8004f14:	68ba      	ldr	r2, [r7, #8]
 8004f16:	429a      	cmp	r2, r3
 8004f18:	d2f6      	bcs.n	8004f08 <vListInsert+0x28>
			/* There is nothing to do here, just iterating to the wanted
			insertion position. */
		}
	}

	pxNewListItem->pxNext = pxIterator->pxNext;
 8004f1a:	68fb      	ldr	r3, [r7, #12]
 8004f1c:	685a      	ldr	r2, [r3, #4]
 8004f1e:	683b      	ldr	r3, [r7, #0]
 8004f20:	605a      	str	r2, [r3, #4]
	pxNewListItem->pxNext->pxPrevious = pxNewListItem;
 8004f22:	683b      	ldr	r3, [r7, #0]
 8004f24:	685b      	ldr	r3, [r3, #4]
 8004f26:	683a      	ldr	r2, [r7, #0]
 8004f28:	609a      	str	r2, [r3, #8]
	pxNewListItem->pxPrevious = pxIterator;
 8004f2a:	683b      	ldr	r3, [r7, #0]
 8004f2c:	68fa      	ldr	r2, [r7, #12]
 8004f2e:	609a      	str	r2, [r3, #8]
	pxIterator->pxNext = pxNewListItem;
 8004f30:	68fb      	ldr	r3, [r7, #12]
 8004f32:	683a      	ldr	r2, [r7, #0]
 8004f34:	605a      	str	r2, [r3, #4]

	/* Remember which list the item is in.  This allows fast removal of the
	item later. */
	pxNewListItem->pvContainer = ( void * ) pxList;
 8004f36:	683b      	ldr	r3, [r7, #0]
 8004f38:	687a      	ldr	r2, [r7, #4]
 8004f3a:	611a      	str	r2, [r3, #16]

	( pxList->uxNumberOfItems )++;
 8004f3c:	687b      	ldr	r3, [r7, #4]
 8004f3e:	681b      	ldr	r3, [r3, #0]
 8004f40:	1c5a      	adds	r2, r3, #1
 8004f42:	687b      	ldr	r3, [r7, #4]
 8004f44:	601a      	str	r2, [r3, #0]
}
 8004f46:	bf00      	nop
 8004f48:	3714      	adds	r7, #20
 8004f4a:	46bd      	mov	sp, r7
 8004f4c:	bc80      	pop	{r7}
 8004f4e:	4770      	bx	lr

08004f50 <uxListRemove>:
/*-----------------------------------------------------------*/

UBaseType_t uxListRemove( ListItem_t * const pxItemToRemove )
{
 8004f50:	b480      	push	{r7}
 8004f52:	b085      	sub	sp, #20
 8004f54:	af00      	add	r7, sp, #0
 8004f56:	6078      	str	r0, [r7, #4]
/* The list item knows which list it is in.  Obtain the list from the list
item. */
List_t * const pxList = ( List_t * ) pxItemToRemove->pvContainer;
 8004f58:	687b      	ldr	r3, [r7, #4]
 8004f5a:	691b      	ldr	r3, [r3, #16]
 8004f5c:	60fb      	str	r3, [r7, #12]

	pxItemToRemove->pxNext->pxPrevious = pxItemToRemove->pxPrevious;
 8004f5e:	687b      	ldr	r3, [r7, #4]
 8004f60:	685b      	ldr	r3, [r3, #4]
 8004f62:	687a      	ldr	r2, [r7, #4]
 8004f64:	6892      	ldr	r2, [r2, #8]
 8004f66:	609a      	str	r2, [r3, #8]
	pxItemToRemove->pxPrevious->pxNext = pxItemToRemove->pxNext;
 8004f68:	687b      	ldr	r3, [r7, #4]
 8004f6a:	689b      	ldr	r3, [r3, #8]
 8004f6c:	687a      	ldr	r2, [r7, #4]
 8004f6e:	6852      	ldr	r2, [r2, #4]
 8004f70:	605a      	str	r2, [r3, #4]

	/* Only used during decision coverage testing. */
	mtCOVERAGE_TEST_DELAY();

	/* Make sure the index is left pointing to a valid item. */
	if( pxList->pxIndex == pxItemToRemove )
 8004f72:	68fb      	ldr	r3, [r7, #12]
 8004f74:	685b      	ldr	r3, [r3, #4]
 8004f76:	687a      	ldr	r2, [r7, #4]
 8004f78:	429a      	cmp	r2, r3
 8004f7a:	d103      	bne.n	8004f84 <uxListRemove+0x34>
	{
		pxList->pxIndex = pxItemToRemove->pxPrevious;
 8004f7c:	687b      	ldr	r3, [r7, #4]
 8004f7e:	689a      	ldr	r2, [r3, #8]
 8004f80:	68fb      	ldr	r3, [r7, #12]
 8004f82:	605a      	str	r2, [r3, #4]
	else
	{
		mtCOVERAGE_TEST_MARKER();
	}

	pxItemToRemove->pvContainer = NULL;
 8004f84:	687b      	ldr	r3, [r7, #4]
 8004f86:	2200      	movs	r2, #0
 8004f88:	611a      	str	r2, [r3, #16]
	( pxList->uxNumberOfItems )--;
 8004f8a:	68fb      	ldr	r3, [r7, #12]
 8004f8c:	681b      	ldr	r3, [r3, #0]
 8004f8e:	1e5a      	subs	r2, r3, #1
 8004f90:	68fb      	ldr	r3, [r7, #12]
 8004f92:	601a      	str	r2, [r3, #0]

	return pxList->uxNumberOfItems;
 8004f94:	68fb      	ldr	r3, [r7, #12]
 8004f96:	681b      	ldr	r3, [r3, #0]
}
 8004f98:	4618      	mov	r0, r3
 8004f9a:	3714      	adds	r7, #20
 8004f9c:	46bd      	mov	sp, r7
 8004f9e:	bc80      	pop	{r7}
 8004fa0:	4770      	bx	lr

08004fa2 <xTaskCreateStatic>:
									const uint32_t ulStackDepth,
									void * const pvParameters,
									UBaseType_t uxPriority,
									StackType_t * const puxStackBuffer,
									StaticTask_t * const pxTaskBuffer )
	{
 8004fa2:	b580      	push	{r7, lr}
 8004fa4:	b08e      	sub	sp, #56	; 0x38
 8004fa6:	af04      	add	r7, sp, #16
 8004fa8:	60f8      	str	r0, [r7, #12]
 8004faa:	60b9      	str	r1, [r7, #8]
 8004fac:	607a      	str	r2, [r7, #4]
 8004fae:	603b      	str	r3, [r7, #0]
	TCB_t *pxNewTCB;
	TaskHandle_t xReturn;

		configASSERT( puxStackBuffer != NULL );
 8004fb0:	6b7b      	ldr	r3, [r7, #52]	; 0x34
 8004fb2:	2b00      	cmp	r3, #0
 8004fb4:	d109      	bne.n	8004fca <xTaskCreateStatic+0x28>

portFORCE_INLINE static void vPortRaiseBASEPRI( void )
{
uint32_t ulNewBASEPRI;

	__asm volatile
 8004fb6:	f04f 0350 	mov.w	r3, #80	; 0x50
 8004fba:	f383 8811 	msr	BASEPRI, r3
 8004fbe:	f3bf 8f6f 	isb	sy
 8004fc2:	f3bf 8f4f 	dsb	sy
 8004fc6:	623b      	str	r3, [r7, #32]
 8004fc8:	e7fe      	b.n	8004fc8 <xTaskCreateStatic+0x26>
		configASSERT( pxTaskBuffer != NULL );
 8004fca:	6bbb      	ldr	r3, [r7, #56]	; 0x38
 8004fcc:	2b00      	cmp	r3, #0
 8004fce:	d109      	bne.n	8004fe4 <xTaskCreateStatic+0x42>
 8004fd0:	f04f 0350 	mov.w	r3, #80	; 0x50
 8004fd4:	f383 8811 	msr	BASEPRI, r3
 8004fd8:	f3bf 8f6f 	isb	sy
 8004fdc:	f3bf 8f4f 	dsb	sy
 8004fe0:	61fb      	str	r3, [r7, #28]
 8004fe2:	e7fe      	b.n	8004fe2 <xTaskCreateStatic+0x40>
		#if( configASSERT_DEFINED == 1 )
		{
			/* Sanity check that the size of the structure used to declare a
			variable of type StaticTask_t equals the size of the real task
			structure. */
			volatile size_t xSize = sizeof( StaticTask_t );
 8004fe4:	2354      	movs	r3, #84	; 0x54
 8004fe6:	613b      	str	r3, [r7, #16]
			configASSERT( xSize == sizeof( TCB_t ) );
 8004fe8:	693b      	ldr	r3, [r7, #16]
 8004fea:	2b54      	cmp	r3, #84	; 0x54
 8004fec:	d009      	beq.n	8005002 <xTaskCreateStatic+0x60>
 8004fee:	f04f 0350 	mov.w	r3, #80	; 0x50
 8004ff2:	f383 8811 	msr	BASEPRI, r3
 8004ff6:	f3bf 8f6f 	isb	sy
 8004ffa:	f3bf 8f4f 	dsb	sy
 8004ffe:	61bb      	str	r3, [r7, #24]
 8005000:	e7fe      	b.n	8005000 <xTaskCreateStatic+0x5e>
		}
		#endif /* configASSERT_DEFINED */


		if( ( pxTaskBuffer != NULL ) && ( puxStackBuffer != NULL ) )
 8005002:	6bbb      	ldr	r3, [r7, #56]	; 0x38
 8005004:	2b00      	cmp	r3, #0
 8005006:	d01e      	beq.n	8005046 <xTaskCreateStatic+0xa4>
 8005008:	6b7b      	ldr	r3, [r7, #52]	; 0x34
 800500a:	2b00      	cmp	r3, #0
 800500c:	d01b      	beq.n	8005046 <xTaskCreateStatic+0xa4>
		{
			/* The memory used for the task's TCB and stack are passed into this
			function - use them. */
			pxNewTCB = ( TCB_t * ) pxTaskBuffer; /*lint !e740 Unusual cast is ok as the structures are designed to have the same alignment, and the size is checked by an assert. */
 800500e:	6bbb      	ldr	r3, [r7, #56]	; 0x38
 8005010:	627b      	str	r3, [r7, #36]	; 0x24
			pxNewTCB->pxStack = ( StackType_t * ) puxStackBuffer;
 8005012:	6a7b      	ldr	r3, [r7, #36]	; 0x24
 8005014:	6b7a      	ldr	r2, [r7, #52]	; 0x34
 8005016:	631a      	str	r2, [r3, #48]	; 0x30

			#if( tskSTATIC_AND_DYNAMIC_ALLOCATION_POSSIBLE != 0 ) /*lint !e731 Macro has been consolidated for readability reasons. */
			{
				/* Tasks can be created statically or dynamically, so note this
				task was created statically in case the task is later deleted. */
				pxNewTCB->ucStaticallyAllocated = tskSTATICALLY_ALLOCATED_STACK_AND_TCB;
 8005018:	6a7b      	ldr	r3, [r7, #36]	; 0x24
 800501a:	2202      	movs	r2, #2
 800501c:	f883 2051 	strb.w	r2, [r3, #81]	; 0x51
			}
			#endif /* configSUPPORT_DYNAMIC_ALLOCATION */

			prvInitialiseNewTask( pxTaskCode, pcName, ulStackDepth, pvParameters, uxPriority, &xReturn, pxNewTCB, NULL );
 8005020:	2300      	movs	r3, #0
 8005022:	9303      	str	r3, [sp, #12]
 8005024:	6a7b      	ldr	r3, [r7, #36]	; 0x24
 8005026:	9302      	str	r3, [sp, #8]
 8005028:	f107 0314 	add.w	r3, r7, #20
 800502c:	9301      	str	r3, [sp, #4]
 800502e:	6b3b      	ldr	r3, [r7, #48]	; 0x30
 8005030:	9300      	str	r3, [sp, #0]
 8005032:	683b      	ldr	r3, [r7, #0]
 8005034:	687a      	ldr	r2, [r7, #4]
 8005036:	68b9      	ldr	r1, [r7, #8]
 8005038:	68f8      	ldr	r0, [r7, #12]
 800503a:	f000 f850 	bl	80050de <prvInitialiseNewTask>
			prvAddNewTaskToReadyList( pxNewTCB );
 800503e:	6a78      	ldr	r0, [r7, #36]	; 0x24
 8005040:	f000 f8cc 	bl	80051dc <prvAddNewTaskToReadyList>
 8005044:	e001      	b.n	800504a <xTaskCreateStatic+0xa8>
		}
		else
		{
			xReturn = NULL;
 8005046:	2300      	movs	r3, #0
 8005048:	617b      	str	r3, [r7, #20]
		}

		return xReturn;
 800504a:	697b      	ldr	r3, [r7, #20]
	}
 800504c:	4618      	mov	r0, r3
 800504e:	3728      	adds	r7, #40	; 0x28
 8005050:	46bd      	mov	sp, r7
 8005052:	bd80      	pop	{r7, pc}

08005054 <xTaskCreate>:
							const char * const pcName,		/*lint !e971 Unqualified char types are allowed for strings and single characters only. */
							const configSTACK_DEPTH_TYPE usStackDepth,
							void * const pvParameters,
							UBaseType_t uxPriority,
							TaskHandle_t * const pxCreatedTask )
	{
 8005054:	b580      	push	{r7, lr}
 8005056:	b08c      	sub	sp, #48	; 0x30
 8005058:	af04      	add	r7, sp, #16
 800505a:	60f8      	str	r0, [r7, #12]
 800505c:	60b9      	str	r1, [r7, #8]
 800505e:	603b      	str	r3, [r7, #0]
 8005060:	4613      	mov	r3, r2
 8005062:	80fb      	strh	r3, [r7, #6]
		#else /* portSTACK_GROWTH */
		{
		StackType_t *pxStack;

			/* Allocate space for the stack used by the task being created. */
			pxStack = ( StackType_t * ) pvPortMalloc( ( ( ( size_t ) usStackDepth ) * sizeof( StackType_t ) ) ); /*lint !e961 MISRA exception as the casts are only redundant for some ports. */
 8005064:	88fb      	ldrh	r3, [r7, #6]
 8005066:	009b      	lsls	r3, r3, #2
 8005068:	4618      	mov	r0, r3
 800506a:	f000 ffcb 	bl	8006004 <pvPortMalloc>
 800506e:	6178      	str	r0, [r7, #20]

			if( pxStack != NULL )
 8005070:	697b      	ldr	r3, [r7, #20]
 8005072:	2b00      	cmp	r3, #0
 8005074:	d00e      	beq.n	8005094 <xTaskCreate+0x40>
			{
				/* Allocate space for the TCB. */
				pxNewTCB = ( TCB_t * ) pvPortMalloc( sizeof( TCB_t ) ); /*lint !e961 MISRA exception as the casts are only redundant for some paths. */
 8005076:	2054      	movs	r0, #84	; 0x54
 8005078:	f000 ffc4 	bl	8006004 <pvPortMalloc>
 800507c:	61f8      	str	r0, [r7, #28]

				if( pxNewTCB != NULL )
 800507e:	69fb      	ldr	r3, [r7, #28]
 8005080:	2b00      	cmp	r3, #0
 8005082:	d003      	beq.n	800508c <xTaskCreate+0x38>
				{
					/* Store the stack location in the TCB. */
					pxNewTCB->pxStack = pxStack;
 8005084:	69fb      	ldr	r3, [r7, #28]
 8005086:	697a      	ldr	r2, [r7, #20]
 8005088:	631a      	str	r2, [r3, #48]	; 0x30
 800508a:	e005      	b.n	8005098 <xTaskCreate+0x44>
				}
				else
				{
					/* The stack cannot be used as the TCB was not created.  Free
					it again. */
					vPortFree( pxStack );
 800508c:	6978      	ldr	r0, [r7, #20]
 800508e:	f001 f87b 	bl	8006188 <vPortFree>
 8005092:	e001      	b.n	8005098 <xTaskCreate+0x44>
				}
			}
			else
			{
				pxNewTCB = NULL;
 8005094:	2300      	movs	r3, #0
 8005096:	61fb      	str	r3, [r7, #28]
			}
		}
		#endif /* portSTACK_GROWTH */

		if( pxNewTCB != NULL )
 8005098:	69fb      	ldr	r3, [r7, #28]
 800509a:	2b00      	cmp	r3, #0
 800509c:	d017      	beq.n	80050ce <xTaskCreate+0x7a>
		{
			#if( tskSTATIC_AND_DYNAMIC_ALLOCATION_POSSIBLE != 0 ) /*lint !e731 Macro has been consolidated for readability reasons. */
			{
				/* Tasks can be created statically or dynamically, so note this
				task was created dynamically in case it is later deleted. */
				pxNewTCB->ucStaticallyAllocated = tskDYNAMICALLY_ALLOCATED_STACK_AND_TCB;
 800509e:	69fb      	ldr	r3, [r7, #28]
 80050a0:	2200      	movs	r2, #0
 80050a2:	f883 2051 	strb.w	r2, [r3, #81]	; 0x51
			}
			#endif /* configSUPPORT_STATIC_ALLOCATION */

			prvInitialiseNewTask( pxTaskCode, pcName, ( uint32_t ) usStackDepth, pvParameters, uxPriority, pxCreatedTask, pxNewTCB, NULL );
 80050a6:	88fa      	ldrh	r2, [r7, #6]
 80050a8:	2300      	movs	r3, #0
 80050aa:	9303      	str	r3, [sp, #12]
 80050ac:	69fb      	ldr	r3, [r7, #28]
 80050ae:	9302      	str	r3, [sp, #8]
 80050b0:	6afb      	ldr	r3, [r7, #44]	; 0x2c
 80050b2:	9301      	str	r3, [sp, #4]
 80050b4:	6abb      	ldr	r3, [r7, #40]	; 0x28
 80050b6:	9300      	str	r3, [sp, #0]
 80050b8:	683b      	ldr	r3, [r7, #0]
 80050ba:	68b9      	ldr	r1, [r7, #8]
 80050bc:	68f8      	ldr	r0, [r7, #12]
 80050be:	f000 f80e 	bl	80050de <prvInitialiseNewTask>
			prvAddNewTaskToReadyList( pxNewTCB );
 80050c2:	69f8      	ldr	r0, [r7, #28]
 80050c4:	f000 f88a 	bl	80051dc <prvAddNewTaskToReadyList>
			xReturn = pdPASS;
 80050c8:	2301      	movs	r3, #1
 80050ca:	61bb      	str	r3, [r7, #24]
 80050cc:	e002      	b.n	80050d4 <xTaskCreate+0x80>
		}
		else
		{
			xReturn = errCOULD_NOT_ALLOCATE_REQUIRED_MEMORY;
 80050ce:	f04f 33ff 	mov.w	r3, #4294967295
 80050d2:	61bb      	str	r3, [r7, #24]
		}

		return xReturn;
 80050d4:	69bb      	ldr	r3, [r7, #24]
	}
 80050d6:	4618      	mov	r0, r3
 80050d8:	3720      	adds	r7, #32
 80050da:	46bd      	mov	sp, r7
 80050dc:	bd80      	pop	{r7, pc}

080050de <prvInitialiseNewTask>:
									void * const pvParameters,
									UBaseType_t uxPriority,
									TaskHandle_t * const pxCreatedTask,
									TCB_t *pxNewTCB,
									const MemoryRegion_t * const xRegions )
{
 80050de:	b580      	push	{r7, lr}
 80050e0:	b088      	sub	sp, #32
 80050e2:	af00      	add	r7, sp, #0
 80050e4:	60f8      	str	r0, [r7, #12]
 80050e6:	60b9      	str	r1, [r7, #8]
 80050e8:	607a      	str	r2, [r7, #4]
 80050ea:	603b      	str	r3, [r7, #0]
	grows from high memory to low (as per the 80x86) or vice versa.
	portSTACK_GROWTH is used to make the result positive or negative as required
	by the port. */
	#if( portSTACK_GROWTH < 0 )
	{
		pxTopOfStack = pxNewTCB->pxStack + ( ulStackDepth - ( uint32_t ) 1 );
 80050ec:	6b3b      	ldr	r3, [r7, #48]	; 0x30
 80050ee:	6b1a      	ldr	r2, [r3, #48]	; 0x30
 80050f0:	687b      	ldr	r3, [r7, #4]
 80050f2:	f103 4380 	add.w	r3, r3, #1073741824	; 0x40000000
 80050f6:	3b01      	subs	r3, #1
 80050f8:	009b      	lsls	r3, r3, #2
 80050fa:	4413      	add	r3, r2
 80050fc:	61bb      	str	r3, [r7, #24]
		pxTopOfStack = ( StackType_t * ) ( ( ( portPOINTER_SIZE_TYPE ) pxTopOfStack ) & ( ~( ( portPOINTER_SIZE_TYPE ) portBYTE_ALIGNMENT_MASK ) ) ); /*lint !e923 MISRA exception.  Avoiding casts between pointers and integers is not practical.  Size differences accounted for using portPOINTER_SIZE_TYPE type. */
 80050fe:	69bb      	ldr	r3, [r7, #24]
 8005100:	f023 0307 	bic.w	r3, r3, #7
 8005104:	61bb      	str	r3, [r7, #24]

		/* Check the alignment of the calculated top of stack is correct. */
		configASSERT( ( ( ( portPOINTER_SIZE_TYPE ) pxTopOfStack & ( portPOINTER_SIZE_TYPE ) portBYTE_ALIGNMENT_MASK ) == 0UL ) );
 8005106:	69bb      	ldr	r3, [r7, #24]
 8005108:	f003 0307 	and.w	r3, r3, #7
 800510c:	2b00      	cmp	r3, #0
 800510e:	d009      	beq.n	8005124 <prvInitialiseNewTask+0x46>
 8005110:	f04f 0350 	mov.w	r3, #80	; 0x50
 8005114:	f383 8811 	msr	BASEPRI, r3
 8005118:	f3bf 8f6f 	isb	sy
 800511c:	f3bf 8f4f 	dsb	sy
 8005120:	617b      	str	r3, [r7, #20]
 8005122:	e7fe      	b.n	8005122 <prvInitialiseNewTask+0x44>
		pxNewTCB->pxEndOfStack = pxNewTCB->pxStack + ( ulStackDepth - ( uint32_t ) 1 );
	}
	#endif /* portSTACK_GROWTH */

	/* Store the task name in the TCB. */
	for( x = ( UBaseType_t ) 0; x < ( UBaseType_t ) configMAX_TASK_NAME_LEN; x++ )
 8005124:	2300      	movs	r3, #0
 8005126:	61fb      	str	r3, [r7, #28]
 8005128:	e012      	b.n	8005150 <prvInitialiseNewTask+0x72>
	{
		pxNewTCB->pcTaskName[ x ] = pcName[ x ];
 800512a:	68ba      	ldr	r2, [r7, #8]
 800512c:	69fb      	ldr	r3, [r7, #28]
 800512e:	4413      	add	r3, r2
 8005130:	7819      	ldrb	r1, [r3, #0]
 8005132:	6b3a      	ldr	r2, [r7, #48]	; 0x30
 8005134:	69fb      	ldr	r3, [r7, #28]
 8005136:	4413      	add	r3, r2
 8005138:	3334      	adds	r3, #52	; 0x34
 800513a:	460a      	mov	r2, r1
 800513c:	701a      	strb	r2, [r3, #0]

		/* Don't copy all configMAX_TASK_NAME_LEN if the string is shorter than
		configMAX_TASK_NAME_LEN characters just in case the memory after the
		string is not accessible (extremely unlikely). */
		if( pcName[ x ] == 0x00 )
 800513e:	68ba      	ldr	r2, [r7, #8]
 8005140:	69fb      	ldr	r3, [r7, #28]
 8005142:	4413      	add	r3, r2
 8005144:	781b      	ldrb	r3, [r3, #0]
 8005146:	2b00      	cmp	r3, #0
 8005148:	d006      	beq.n	8005158 <prvInitialiseNewTask+0x7a>
	for( x = ( UBaseType_t ) 0; x < ( UBaseType_t ) configMAX_TASK_NAME_LEN; x++ )
 800514a:	69fb      	ldr	r3, [r7, #28]
 800514c:	3301      	adds	r3, #1
 800514e:	61fb      	str	r3, [r7, #28]
 8005150:	69fb      	ldr	r3, [r7, #28]
 8005152:	2b0f      	cmp	r3, #15
 8005154:	d9e9      	bls.n	800512a <prvInitialiseNewTask+0x4c>
 8005156:	e000      	b.n	800515a <prvInitialiseNewTask+0x7c>
		{
			break;
 8005158:	bf00      	nop
		}
	}

	/* Ensure the name string is terminated in the case that the string length
	was greater or equal to configMAX_TASK_NAME_LEN. */
	pxNewTCB->pcTaskName[ configMAX_TASK_NAME_LEN - 1 ] = '\0';
 800515a:	6b3b      	ldr	r3, [r7, #48]	; 0x30
 800515c:	2200      	movs	r2, #0
 800515e:	f883 2043 	strb.w	r2, [r3, #67]	; 0x43

	/* This is used as an array index so must ensure it's not too large.  First
	remove the privilege bit if one is present. */
	if( uxPriority >= ( UBaseType_t ) configMAX_PRIORITIES )
 8005162:	6abb      	ldr	r3, [r7, #40]	; 0x28
 8005164:	2b06      	cmp	r3, #6
 8005166:	d901      	bls.n	800516c <prvInitialiseNewTask+0x8e>
	{
		uxPriority = ( UBaseType_t ) configMAX_PRIORITIES - ( UBaseType_t ) 1U;
 8005168:	2306      	movs	r3, #6
 800516a:	62bb      	str	r3, [r7, #40]	; 0x28
	else
	{
		mtCOVERAGE_TEST_MARKER();
	}

	pxNewTCB->uxPriority = uxPriority;
 800516c:	6b3b      	ldr	r3, [r7, #48]	; 0x30
 800516e:	6aba      	ldr	r2, [r7, #40]	; 0x28
 8005170:	62da      	str	r2, [r3, #44]	; 0x2c
	#if ( configUSE_MUTEXES == 1 )
	{
		pxNewTCB->uxBasePriority = uxPriority;
 8005172:	6b3b      	ldr	r3, [r7, #48]	; 0x30
 8005174:	6aba      	ldr	r2, [r7, #40]	; 0x28
 8005176:	645a      	str	r2, [r3, #68]	; 0x44
		pxNewTCB->uxMutexesHeld = 0;
 8005178:	6b3b      	ldr	r3, [r7, #48]	; 0x30
 800517a:	2200      	movs	r2, #0
 800517c:	649a      	str	r2, [r3, #72]	; 0x48
	}
	#endif /* configUSE_MUTEXES */

	vListInitialiseItem( &( pxNewTCB->xStateListItem ) );
 800517e:	6b3b      	ldr	r3, [r7, #48]	; 0x30
 8005180:	3304      	adds	r3, #4
 8005182:	4618      	mov	r0, r3
 8005184:	f7ff fe7d 	bl	8004e82 <vListInitialiseItem>
	vListInitialiseItem( &( pxNewTCB->xEventListItem ) );
 8005188:	6b3b      	ldr	r3, [r7, #48]	; 0x30
 800518a:	3318      	adds	r3, #24
 800518c:	4618      	mov	r0, r3
 800518e:	f7ff fe78 	bl	8004e82 <vListInitialiseItem>

	/* Set the pxNewTCB as a link back from the ListItem_t.  This is so we can get
	back to	the containing TCB from a generic item in a list. */
	listSET_LIST_ITEM_OWNER( &( pxNewTCB->xStateListItem ), pxNewTCB );
 8005192:	6b3b      	ldr	r3, [r7, #48]	; 0x30
 8005194:	6b3a      	ldr	r2, [r7, #48]	; 0x30
 8005196:	611a      	str	r2, [r3, #16]

	/* Event lists are always in priority order. */
	listSET_LIST_ITEM_VALUE( &( pxNewTCB->xEventListItem ), ( TickType_t ) configMAX_PRIORITIES - ( TickType_t ) uxPriority ); /*lint !e961 MISRA exception as the casts are only redundant for some ports. */
 8005198:	6abb      	ldr	r3, [r7, #40]	; 0x28
 800519a:	f1c3 0207 	rsb	r2, r3, #7
 800519e:	6b3b      	ldr	r3, [r7, #48]	; 0x30
 80051a0:	619a      	str	r2, [r3, #24]
	listSET_LIST_ITEM_OWNER( &( pxNewTCB->xEventListItem ), pxNewTCB );
 80051a2:	6b3b      	ldr	r3, [r7, #48]	; 0x30
 80051a4:	6b3a      	ldr	r2, [r7, #48]	; 0x30
 80051a6:	625a      	str	r2, [r3, #36]	; 0x24
	}
	#endif

	#if ( configUSE_TASK_NOTIFICATIONS == 1 )
	{
		pxNewTCB->ulNotifiedValue = 0;
 80051a8:	6b3b      	ldr	r3, [r7, #48]	; 0x30
 80051aa:	2200      	movs	r2, #0
 80051ac:	64da      	str	r2, [r3, #76]	; 0x4c
		pxNewTCB->ucNotifyState = taskNOT_WAITING_NOTIFICATION;
 80051ae:	6b3b      	ldr	r3, [r7, #48]	; 0x30
 80051b0:	2200      	movs	r2, #0
 80051b2:	f883 2050 	strb.w	r2, [r3, #80]	; 0x50
	{
		pxNewTCB->pxTopOfStack = pxPortInitialiseStack( pxTopOfStack, pxTaskCode, pvParameters, xRunPrivileged );
	}
	#else /* portUSING_MPU_WRAPPERS */
	{
		pxNewTCB->pxTopOfStack = pxPortInitialiseStack( pxTopOfStack, pxTaskCode, pvParameters );
 80051b6:	683a      	ldr	r2, [r7, #0]
 80051b8:	68f9      	ldr	r1, [r7, #12]
 80051ba:	69b8      	ldr	r0, [r7, #24]
 80051bc:	f000 fd42 	bl	8005c44 <pxPortInitialiseStack>
 80051c0:	4602      	mov	r2, r0
 80051c2:	6b3b      	ldr	r3, [r7, #48]	; 0x30
 80051c4:	601a      	str	r2, [r3, #0]
	}
	#endif /* portUSING_MPU_WRAPPERS */

	if( ( void * ) pxCreatedTask != NULL )
 80051c6:	6afb      	ldr	r3, [r7, #44]	; 0x2c
 80051c8:	2b00      	cmp	r3, #0
 80051ca:	d002      	beq.n	80051d2 <prvInitialiseNewTask+0xf4>
	{
		/* Pass the handle out in an anonymous way.  The handle can be used to
		change the created task's priority, delete the created task, etc.*/
		*pxCreatedTask = ( TaskHandle_t ) pxNewTCB;
 80051cc:	6afb      	ldr	r3, [r7, #44]	; 0x2c
 80051ce:	6b3a      	ldr	r2, [r7, #48]	; 0x30
 80051d0:	601a      	str	r2, [r3, #0]
	}
	else
	{
		mtCOVERAGE_TEST_MARKER();
	}
}
 80051d2:	bf00      	nop
 80051d4:	3720      	adds	r7, #32
 80051d6:	46bd      	mov	sp, r7
 80051d8:	bd80      	pop	{r7, pc}
	...

080051dc <prvAddNewTaskToReadyList>:
/*-----------------------------------------------------------*/

static void prvAddNewTaskToReadyList( TCB_t *pxNewTCB )
{
 80051dc:	b580      	push	{r7, lr}
 80051de:	b082      	sub	sp, #8
 80051e0:	af00      	add	r7, sp, #0
 80051e2:	6078      	str	r0, [r7, #4]
	/* Ensure interrupts don't access the task lists while the lists are being
	updated. */
	taskENTER_CRITICAL();
 80051e4:	f000 fe18 	bl	8005e18 <vPortEnterCritical>
	{
		uxCurrentNumberOfTasks++;
 80051e8:	4b2a      	ldr	r3, [pc, #168]	; (8005294 <prvAddNewTaskToReadyList+0xb8>)
 80051ea:	681b      	ldr	r3, [r3, #0]
 80051ec:	3301      	adds	r3, #1
 80051ee:	4a29      	ldr	r2, [pc, #164]	; (8005294 <prvAddNewTaskToReadyList+0xb8>)
 80051f0:	6013      	str	r3, [r2, #0]
		if( pxCurrentTCB == NULL )
 80051f2:	4b29      	ldr	r3, [pc, #164]	; (8005298 <prvAddNewTaskToReadyList+0xbc>)
 80051f4:	681b      	ldr	r3, [r3, #0]
 80051f6:	2b00      	cmp	r3, #0
 80051f8:	d109      	bne.n	800520e <prvAddNewTaskToReadyList+0x32>
		{
			/* There are no other tasks, or all the other tasks are in
			the suspended state - make this the current task. */
			pxCurrentTCB = pxNewTCB;
 80051fa:	4a27      	ldr	r2, [pc, #156]	; (8005298 <prvAddNewTaskToReadyList+0xbc>)
 80051fc:	687b      	ldr	r3, [r7, #4]
 80051fe:	6013      	str	r3, [r2, #0]

			if( uxCurrentNumberOfTasks == ( UBaseType_t ) 1 )
 8005200:	4b24      	ldr	r3, [pc, #144]	; (8005294 <prvAddNewTaskToReadyList+0xb8>)
 8005202:	681b      	ldr	r3, [r3, #0]
 8005204:	2b01      	cmp	r3, #1
 8005206:	d110      	bne.n	800522a <prvAddNewTaskToReadyList+0x4e>
			{
				/* This is the first task to be created so do the preliminary
				initialisation required.  We will not recover if this call
				fails, but we will report the failure. */
				prvInitialiseTaskLists();
 8005208:	f000 fbf8 	bl	80059fc <prvInitialiseTaskLists>
 800520c:	e00d      	b.n	800522a <prvAddNewTaskToReadyList+0x4e>
		else
		{
			/* If the scheduler is not already running, make this task the
			current task if it is the highest priority task to be created
			so far. */
			if( xSchedulerRunning == pdFALSE )
 800520e:	4b23      	ldr	r3, [pc, #140]	; (800529c <prvAddNewTaskToReadyList+0xc0>)
 8005210:	681b      	ldr	r3, [r3, #0]
 8005212:	2b00      	cmp	r3, #0
 8005214:	d109      	bne.n	800522a <prvAddNewTaskToReadyList+0x4e>
			{
				if( pxCurrentTCB->uxPriority <= pxNewTCB->uxPriority )
 8005216:	4b20      	ldr	r3, [pc, #128]	; (8005298 <prvAddNewTaskToReadyList+0xbc>)
 8005218:	681b      	ldr	r3, [r3, #0]
 800521a:	6ada      	ldr	r2, [r3, #44]	; 0x2c
 800521c:	687b      	ldr	r3, [r7, #4]
 800521e:	6adb      	ldr	r3, [r3, #44]	; 0x2c
 8005220:	429a      	cmp	r2, r3
 8005222:	d802      	bhi.n	800522a <prvAddNewTaskToReadyList+0x4e>
				{
					pxCurrentTCB = pxNewTCB;
 8005224:	4a1c      	ldr	r2, [pc, #112]	; (8005298 <prvAddNewTaskToReadyList+0xbc>)
 8005226:	687b      	ldr	r3, [r7, #4]
 8005228:	6013      	str	r3, [r2, #0]
			{
				mtCOVERAGE_TEST_MARKER();
			}
		}

		uxTaskNumber++;
 800522a:	4b1d      	ldr	r3, [pc, #116]	; (80052a0 <prvAddNewTaskToReadyList+0xc4>)
 800522c:	681b      	ldr	r3, [r3, #0]
 800522e:	3301      	adds	r3, #1
 8005230:	4a1b      	ldr	r2, [pc, #108]	; (80052a0 <prvAddNewTaskToReadyList+0xc4>)
 8005232:	6013      	str	r3, [r2, #0]
			pxNewTCB->uxTCBNumber = uxTaskNumber;
		}
		#endif /* configUSE_TRACE_FACILITY */
		traceTASK_CREATE( pxNewTCB );

		prvAddTaskToReadyList( pxNewTCB );
 8005234:	687b      	ldr	r3, [r7, #4]
 8005236:	6adb      	ldr	r3, [r3, #44]	; 0x2c
 8005238:	2201      	movs	r2, #1
 800523a:	409a      	lsls	r2, r3
 800523c:	4b19      	ldr	r3, [pc, #100]	; (80052a4 <prvAddNewTaskToReadyList+0xc8>)
 800523e:	681b      	ldr	r3, [r3, #0]
 8005240:	4313      	orrs	r3, r2
 8005242:	4a18      	ldr	r2, [pc, #96]	; (80052a4 <prvAddNewTaskToReadyList+0xc8>)
 8005244:	6013      	str	r3, [r2, #0]
 8005246:	687b      	ldr	r3, [r7, #4]
 8005248:	6ada      	ldr	r2, [r3, #44]	; 0x2c
 800524a:	4613      	mov	r3, r2
 800524c:	009b      	lsls	r3, r3, #2
 800524e:	4413      	add	r3, r2
 8005250:	009b      	lsls	r3, r3, #2
 8005252:	4a15      	ldr	r2, [pc, #84]	; (80052a8 <prvAddNewTaskToReadyList+0xcc>)
 8005254:	441a      	add	r2, r3
 8005256:	687b      	ldr	r3, [r7, #4]
 8005258:	3304      	adds	r3, #4
 800525a:	4619      	mov	r1, r3
 800525c:	4610      	mov	r0, r2
 800525e:	f7ff fe1c 	bl	8004e9a <vListInsertEnd>

		portSETUP_TCB( pxNewTCB );
	}
	taskEXIT_CRITICAL();
 8005262:	f000 fe07 	bl	8005e74 <vPortExitCritical>

	if( xSchedulerRunning != pdFALSE )
 8005266:	4b0d      	ldr	r3, [pc, #52]	; (800529c <prvAddNewTaskToReadyList+0xc0>)
 8005268:	681b      	ldr	r3, [r3, #0]
 800526a:	2b00      	cmp	r3, #0
 800526c:	d00e      	beq.n	800528c <prvAddNewTaskToReadyList+0xb0>
	{
		/* If the created task is of a higher priority than the current task
		then it should run now. */
		if( pxCurrentTCB->uxPriority < pxNewTCB->uxPriority )
 800526e:	4b0a      	ldr	r3, [pc, #40]	; (8005298 <prvAddNewTaskToReadyList+0xbc>)
 8005270:	681b      	ldr	r3, [r3, #0]
 8005272:	6ada      	ldr	r2, [r3, #44]	; 0x2c
 8005274:	687b      	ldr	r3, [r7, #4]
 8005276:	6adb      	ldr	r3, [r3, #44]	; 0x2c
 8005278:	429a      	cmp	r2, r3
 800527a:	d207      	bcs.n	800528c <prvAddNewTaskToReadyList+0xb0>
		{
			taskYIELD_IF_USING_PREEMPTION();
 800527c:	4b0b      	ldr	r3, [pc, #44]	; (80052ac <prvAddNewTaskToReadyList+0xd0>)
 800527e:	f04f 5280 	mov.w	r2, #268435456	; 0x10000000
 8005282:	601a      	str	r2, [r3, #0]
 8005284:	f3bf 8f4f 	dsb	sy
 8005288:	f3bf 8f6f 	isb	sy
	}
	else
	{
		mtCOVERAGE_TEST_MARKER();
	}
}
 800528c:	bf00      	nop
 800528e:	3708      	adds	r7, #8
 8005290:	46bd      	mov	sp, r7
 8005292:	bd80      	pop	{r7, pc}
 8005294:	20000388 	.word	0x20000388
 8005298:	20000288 	.word	0x20000288
 800529c:	20000394 	.word	0x20000394
 80052a0:	200003a4 	.word	0x200003a4
 80052a4:	20000390 	.word	0x20000390
 80052a8:	2000028c 	.word	0x2000028c
 80052ac:	e000ed04 	.word	0xe000ed04

080052b0 <vTaskDelay>:
/*-----------------------------------------------------------*/

#if ( INCLUDE_vTaskDelay == 1 )

	void vTaskDelay( const TickType_t xTicksToDelay )
	{
 80052b0:	b580      	push	{r7, lr}
 80052b2:	b084      	sub	sp, #16
 80052b4:	af00      	add	r7, sp, #0
 80052b6:	6078      	str	r0, [r7, #4]
	BaseType_t xAlreadyYielded = pdFALSE;
 80052b8:	2300      	movs	r3, #0
 80052ba:	60fb      	str	r3, [r7, #12]

		/* A delay time of zero just forces a reschedule. */
		if( xTicksToDelay > ( TickType_t ) 0U )
 80052bc:	687b      	ldr	r3, [r7, #4]
 80052be:	2b00      	cmp	r3, #0
 80052c0:	d016      	beq.n	80052f0 <vTaskDelay+0x40>
		{
			configASSERT( uxSchedulerSuspended == 0 );
 80052c2:	4b13      	ldr	r3, [pc, #76]	; (8005310 <vTaskDelay+0x60>)
 80052c4:	681b      	ldr	r3, [r3, #0]
 80052c6:	2b00      	cmp	r3, #0
 80052c8:	d009      	beq.n	80052de <vTaskDelay+0x2e>
 80052ca:	f04f 0350 	mov.w	r3, #80	; 0x50
 80052ce:	f383 8811 	msr	BASEPRI, r3
 80052d2:	f3bf 8f6f 	isb	sy
 80052d6:	f3bf 8f4f 	dsb	sy
 80052da:	60bb      	str	r3, [r7, #8]
 80052dc:	e7fe      	b.n	80052dc <vTaskDelay+0x2c>
			vTaskSuspendAll();
 80052de:	f000 f9b5 	bl	800564c <vTaskSuspendAll>
				list or removed from the blocked list until the scheduler
				is resumed.

				This task cannot be in an event list as it is the currently
				executing task. */
				prvAddCurrentTaskToDelayedList( xTicksToDelay, pdFALSE );
 80052e2:	2100      	movs	r1, #0
 80052e4:	6878      	ldr	r0, [r7, #4]
 80052e6:	f000 fc47 	bl	8005b78 <prvAddCurrentTaskToDelayedList>
			}
			xAlreadyYielded = xTaskResumeAll();
 80052ea:	f000 f9bd 	bl	8005668 <xTaskResumeAll>
 80052ee:	60f8      	str	r0, [r7, #12]
			mtCOVERAGE_TEST_MARKER();
		}

		/* Force a reschedule if xTaskResumeAll has not already done so, we may
		have put ourselves to sleep. */
		if( xAlreadyYielded == pdFALSE )
 80052f0:	68fb      	ldr	r3, [r7, #12]
 80052f2:	2b00      	cmp	r3, #0
 80052f4:	d107      	bne.n	8005306 <vTaskDelay+0x56>
		{
			portYIELD_WITHIN_API();
 80052f6:	4b07      	ldr	r3, [pc, #28]	; (8005314 <vTaskDelay+0x64>)
 80052f8:	f04f 5280 	mov.w	r2, #268435456	; 0x10000000
 80052fc:	601a      	str	r2, [r3, #0]
 80052fe:	f3bf 8f4f 	dsb	sy
 8005302:	f3bf 8f6f 	isb	sy
		}
		else
		{
			mtCOVERAGE_TEST_MARKER();
		}
	}
 8005306:	bf00      	nop
 8005308:	3710      	adds	r7, #16
 800530a:	46bd      	mov	sp, r7
 800530c:	bd80      	pop	{r7, pc}
 800530e:	bf00      	nop
 8005310:	200003b0 	.word	0x200003b0
 8005314:	e000ed04 	.word	0xe000ed04

08005318 <vTaskSuspend>:
/*-----------------------------------------------------------*/

#if ( INCLUDE_vTaskSuspend == 1 )

	void vTaskSuspend( TaskHandle_t xTaskToSuspend )
	{
 8005318:	b580      	push	{r7, lr}
 800531a:	b084      	sub	sp, #16
 800531c:	af00      	add	r7, sp, #0
 800531e:	6078      	str	r0, [r7, #4]
	TCB_t *pxTCB;

		taskENTER_CRITICAL();
 8005320:	f000 fd7a 	bl	8005e18 <vPortEnterCritical>
		{
			/* If null is passed in here then it is the running task that is
			being suspended. */
			pxTCB = prvGetTCBFromHandle( xTaskToSuspend );
 8005324:	687b      	ldr	r3, [r7, #4]
 8005326:	2b00      	cmp	r3, #0
 8005328:	d102      	bne.n	8005330 <vTaskSuspend+0x18>
 800532a:	4b3c      	ldr	r3, [pc, #240]	; (800541c <vTaskSuspend+0x104>)
 800532c:	681b      	ldr	r3, [r3, #0]
 800532e:	e000      	b.n	8005332 <vTaskSuspend+0x1a>
 8005330:	687b      	ldr	r3, [r7, #4]
 8005332:	60fb      	str	r3, [r7, #12]

			traceTASK_SUSPEND( pxTCB );

			/* Remove task from the ready/delayed list and place in the
			suspended list. */
			if( uxListRemove( &( pxTCB->xStateListItem ) ) == ( UBaseType_t ) 0 )
 8005334:	68fb      	ldr	r3, [r7, #12]
 8005336:	3304      	adds	r3, #4
 8005338:	4618      	mov	r0, r3
 800533a:	f7ff fe09 	bl	8004f50 <uxListRemove>
 800533e:	4603      	mov	r3, r0
 8005340:	2b00      	cmp	r3, #0
 8005342:	d115      	bne.n	8005370 <vTaskSuspend+0x58>
			{
				taskRESET_READY_PRIORITY( pxTCB->uxPriority );
 8005344:	68fb      	ldr	r3, [r7, #12]
 8005346:	6ada      	ldr	r2, [r3, #44]	; 0x2c
 8005348:	4935      	ldr	r1, [pc, #212]	; (8005420 <vTaskSuspend+0x108>)
 800534a:	4613      	mov	r3, r2
 800534c:	009b      	lsls	r3, r3, #2
 800534e:	4413      	add	r3, r2
 8005350:	009b      	lsls	r3, r3, #2
 8005352:	440b      	add	r3, r1
 8005354:	681b      	ldr	r3, [r3, #0]
 8005356:	2b00      	cmp	r3, #0
 8005358:	d10a      	bne.n	8005370 <vTaskSuspend+0x58>
 800535a:	68fb      	ldr	r3, [r7, #12]
 800535c:	6adb      	ldr	r3, [r3, #44]	; 0x2c
 800535e:	2201      	movs	r2, #1
 8005360:	fa02 f303 	lsl.w	r3, r2, r3
 8005364:	43da      	mvns	r2, r3
 8005366:	4b2f      	ldr	r3, [pc, #188]	; (8005424 <vTaskSuspend+0x10c>)
 8005368:	681b      	ldr	r3, [r3, #0]
 800536a:	4013      	ands	r3, r2
 800536c:	4a2d      	ldr	r2, [pc, #180]	; (8005424 <vTaskSuspend+0x10c>)
 800536e:	6013      	str	r3, [r2, #0]
			{
				mtCOVERAGE_TEST_MARKER();
			}

			/* Is the task waiting on an event also? */
			if( listLIST_ITEM_CONTAINER( &( pxTCB->xEventListItem ) ) != NULL )
 8005370:	68fb      	ldr	r3, [r7, #12]
 8005372:	6a9b      	ldr	r3, [r3, #40]	; 0x28
 8005374:	2b00      	cmp	r3, #0
 8005376:	d004      	beq.n	8005382 <vTaskSuspend+0x6a>
			{
				( void ) uxListRemove( &( pxTCB->xEventListItem ) );
 8005378:	68fb      	ldr	r3, [r7, #12]
 800537a:	3318      	adds	r3, #24
 800537c:	4618      	mov	r0, r3
 800537e:	f7ff fde7 	bl	8004f50 <uxListRemove>
			else
			{
				mtCOVERAGE_TEST_MARKER();
			}

			vListInsertEnd( &xSuspendedTaskList, &( pxTCB->xStateListItem ) );
 8005382:	68fb      	ldr	r3, [r7, #12]
 8005384:	3304      	adds	r3, #4
 8005386:	4619      	mov	r1, r3
 8005388:	4827      	ldr	r0, [pc, #156]	; (8005428 <vTaskSuspend+0x110>)
 800538a:	f7ff fd86 	bl	8004e9a <vListInsertEnd>

			#if( configUSE_TASK_NOTIFICATIONS == 1 )
			{
				if( pxTCB->ucNotifyState == taskWAITING_NOTIFICATION )
 800538e:	68fb      	ldr	r3, [r7, #12]
 8005390:	f893 3050 	ldrb.w	r3, [r3, #80]	; 0x50
 8005394:	b2db      	uxtb	r3, r3
 8005396:	2b01      	cmp	r3, #1
 8005398:	d103      	bne.n	80053a2 <vTaskSuspend+0x8a>
				{
					/* The task was blocked to wait for a notification, but is
					now suspended, so no notification was received. */
					pxTCB->ucNotifyState = taskNOT_WAITING_NOTIFICATION;
 800539a:	68fb      	ldr	r3, [r7, #12]
 800539c:	2200      	movs	r2, #0
 800539e:	f883 2050 	strb.w	r2, [r3, #80]	; 0x50
				}
			}
			#endif
		}
		taskEXIT_CRITICAL();
 80053a2:	f000 fd67 	bl	8005e74 <vPortExitCritical>

		if( xSchedulerRunning != pdFALSE )
 80053a6:	4b21      	ldr	r3, [pc, #132]	; (800542c <vTaskSuspend+0x114>)
 80053a8:	681b      	ldr	r3, [r3, #0]
 80053aa:	2b00      	cmp	r3, #0
 80053ac:	d005      	beq.n	80053ba <vTaskSuspend+0xa2>
		{
			/* Reset the next expected unblock time in case it referred to the
			task that is now in the Suspended state. */
			taskENTER_CRITICAL();
 80053ae:	f000 fd33 	bl	8005e18 <vPortEnterCritical>
			{
				prvResetNextTaskUnblockTime();
 80053b2:	f000 fbbd 	bl	8005b30 <prvResetNextTaskUnblockTime>
			}
			taskEXIT_CRITICAL();
 80053b6:	f000 fd5d 	bl	8005e74 <vPortExitCritical>
		else
		{
			mtCOVERAGE_TEST_MARKER();
		}

		if( pxTCB == pxCurrentTCB )
 80053ba:	4b18      	ldr	r3, [pc, #96]	; (800541c <vTaskSuspend+0x104>)
 80053bc:	681b      	ldr	r3, [r3, #0]
 80053be:	68fa      	ldr	r2, [r7, #12]
 80053c0:	429a      	cmp	r2, r3
 80053c2:	d126      	bne.n	8005412 <vTaskSuspend+0xfa>
		{
			if( xSchedulerRunning != pdFALSE )
 80053c4:	4b19      	ldr	r3, [pc, #100]	; (800542c <vTaskSuspend+0x114>)
 80053c6:	681b      	ldr	r3, [r3, #0]
 80053c8:	2b00      	cmp	r3, #0
 80053ca:	d016      	beq.n	80053fa <vTaskSuspend+0xe2>
			{
				/* The current task has just been suspended. */
				configASSERT( uxSchedulerSuspended == 0 );
 80053cc:	4b18      	ldr	r3, [pc, #96]	; (8005430 <vTaskSuspend+0x118>)
 80053ce:	681b      	ldr	r3, [r3, #0]
 80053d0:	2b00      	cmp	r3, #0
 80053d2:	d009      	beq.n	80053e8 <vTaskSuspend+0xd0>
 80053d4:	f04f 0350 	mov.w	r3, #80	; 0x50
 80053d8:	f383 8811 	msr	BASEPRI, r3
 80053dc:	f3bf 8f6f 	isb	sy
 80053e0:	f3bf 8f4f 	dsb	sy
 80053e4:	60bb      	str	r3, [r7, #8]
 80053e6:	e7fe      	b.n	80053e6 <vTaskSuspend+0xce>
				portYIELD_WITHIN_API();
 80053e8:	4b12      	ldr	r3, [pc, #72]	; (8005434 <vTaskSuspend+0x11c>)
 80053ea:	f04f 5280 	mov.w	r2, #268435456	; 0x10000000
 80053ee:	601a      	str	r2, [r3, #0]
 80053f0:	f3bf 8f4f 	dsb	sy
 80053f4:	f3bf 8f6f 	isb	sy
		}
		else
		{
			mtCOVERAGE_TEST_MARKER();
		}
	}
 80053f8:	e00b      	b.n	8005412 <vTaskSuspend+0xfa>
				if( listCURRENT_LIST_LENGTH( &xSuspendedTaskList ) == uxCurrentNumberOfTasks )
 80053fa:	4b0b      	ldr	r3, [pc, #44]	; (8005428 <vTaskSuspend+0x110>)
 80053fc:	681a      	ldr	r2, [r3, #0]
 80053fe:	4b0e      	ldr	r3, [pc, #56]	; (8005438 <vTaskSuspend+0x120>)
 8005400:	681b      	ldr	r3, [r3, #0]
 8005402:	429a      	cmp	r2, r3
 8005404:	d103      	bne.n	800540e <vTaskSuspend+0xf6>
					pxCurrentTCB = NULL;
 8005406:	4b05      	ldr	r3, [pc, #20]	; (800541c <vTaskSuspend+0x104>)
 8005408:	2200      	movs	r2, #0
 800540a:	601a      	str	r2, [r3, #0]
	}
 800540c:	e001      	b.n	8005412 <vTaskSuspend+0xfa>
					vTaskSwitchContext();
 800540e:	f000 fa83 	bl	8005918 <vTaskSwitchContext>
	}
 8005412:	bf00      	nop
 8005414:	3710      	adds	r7, #16
 8005416:	46bd      	mov	sp, r7
 8005418:	bd80      	pop	{r7, pc}
 800541a:	bf00      	nop
 800541c:	20000288 	.word	0x20000288
 8005420:	2000028c 	.word	0x2000028c
 8005424:	20000390 	.word	0x20000390
 8005428:	20000374 	.word	0x20000374
 800542c:	20000394 	.word	0x20000394
 8005430:	200003b0 	.word	0x200003b0
 8005434:	e000ed04 	.word	0xe000ed04
 8005438:	20000388 	.word	0x20000388

0800543c <prvTaskIsTaskSuspended>:
/*-----------------------------------------------------------*/

#if ( INCLUDE_vTaskSuspend == 1 )

	static BaseType_t prvTaskIsTaskSuspended( const TaskHandle_t xTask )
	{
 800543c:	b480      	push	{r7}
 800543e:	b087      	sub	sp, #28
 8005440:	af00      	add	r7, sp, #0
 8005442:	6078      	str	r0, [r7, #4]
	BaseType_t xReturn = pdFALSE;
 8005444:	2300      	movs	r3, #0
 8005446:	617b      	str	r3, [r7, #20]
	const TCB_t * const pxTCB = ( TCB_t * ) xTask;
 8005448:	687b      	ldr	r3, [r7, #4]
 800544a:	613b      	str	r3, [r7, #16]

		/* Accesses xPendingReadyList so must be called from a critical
		section. */

		/* It does not make sense to check if the calling task is suspended. */
		configASSERT( xTask );
 800544c:	687b      	ldr	r3, [r7, #4]
 800544e:	2b00      	cmp	r3, #0
 8005450:	d109      	bne.n	8005466 <prvTaskIsTaskSuspended+0x2a>
 8005452:	f04f 0350 	mov.w	r3, #80	; 0x50
 8005456:	f383 8811 	msr	BASEPRI, r3
 800545a:	f3bf 8f6f 	isb	sy
 800545e:	f3bf 8f4f 	dsb	sy
 8005462:	60fb      	str	r3, [r7, #12]
 8005464:	e7fe      	b.n	8005464 <prvTaskIsTaskSuspended+0x28>

		/* Is the task being resumed actually in the suspended list? */
		if( listIS_CONTAINED_WITHIN( &xSuspendedTaskList, &( pxTCB->xStateListItem ) ) != pdFALSE )
 8005466:	693b      	ldr	r3, [r7, #16]
 8005468:	695b      	ldr	r3, [r3, #20]
 800546a:	4a0f      	ldr	r2, [pc, #60]	; (80054a8 <prvTaskIsTaskSuspended+0x6c>)
 800546c:	4293      	cmp	r3, r2
 800546e:	d101      	bne.n	8005474 <prvTaskIsTaskSuspended+0x38>
 8005470:	2301      	movs	r3, #1
 8005472:	e000      	b.n	8005476 <prvTaskIsTaskSuspended+0x3a>
 8005474:	2300      	movs	r3, #0
 8005476:	2b00      	cmp	r3, #0
 8005478:	d00f      	beq.n	800549a <prvTaskIsTaskSuspended+0x5e>
		{
			/* Has the task already been resumed from within an ISR? */
			if( listIS_CONTAINED_WITHIN( &xPendingReadyList, &( pxTCB->xEventListItem ) ) == pdFALSE )
 800547a:	693b      	ldr	r3, [r7, #16]
 800547c:	6a9b      	ldr	r3, [r3, #40]	; 0x28
 800547e:	4a0b      	ldr	r2, [pc, #44]	; (80054ac <prvTaskIsTaskSuspended+0x70>)
 8005480:	4293      	cmp	r3, r2
 8005482:	d00a      	beq.n	800549a <prvTaskIsTaskSuspended+0x5e>
			{
				/* Is it in the suspended list because it is in the	Suspended
				state, or because is is blocked with no timeout? */
				if( listIS_CONTAINED_WITHIN( NULL, &( pxTCB->xEventListItem ) ) != pdFALSE ) /*lint !e961.  The cast is only redundant when NULL is used. */
 8005484:	693b      	ldr	r3, [r7, #16]
 8005486:	6a9b      	ldr	r3, [r3, #40]	; 0x28
 8005488:	2b00      	cmp	r3, #0
 800548a:	d101      	bne.n	8005490 <prvTaskIsTaskSuspended+0x54>
 800548c:	2301      	movs	r3, #1
 800548e:	e000      	b.n	8005492 <prvTaskIsTaskSuspended+0x56>
 8005490:	2300      	movs	r3, #0
 8005492:	2b00      	cmp	r3, #0
 8005494:	d001      	beq.n	800549a <prvTaskIsTaskSuspended+0x5e>
				{
					xReturn = pdTRUE;
 8005496:	2301      	movs	r3, #1
 8005498:	617b      	str	r3, [r7, #20]
		else
		{
			mtCOVERAGE_TEST_MARKER();
		}

		return xReturn;
 800549a:	697b      	ldr	r3, [r7, #20]
	} /*lint !e818 xTask cannot be a pointer to const because it is a typedef. */
 800549c:	4618      	mov	r0, r3
 800549e:	371c      	adds	r7, #28
 80054a0:	46bd      	mov	sp, r7
 80054a2:	bc80      	pop	{r7}
 80054a4:	4770      	bx	lr
 80054a6:	bf00      	nop
 80054a8:	20000374 	.word	0x20000374
 80054ac:	20000348 	.word	0x20000348

080054b0 <xTaskResumeFromISR>:
/*-----------------------------------------------------------*/

#if ( ( INCLUDE_xTaskResumeFromISR == 1 ) && ( INCLUDE_vTaskSuspend == 1 ) )

	BaseType_t xTaskResumeFromISR( TaskHandle_t xTaskToResume )
	{
 80054b0:	b580      	push	{r7, lr}
 80054b2:	b08a      	sub	sp, #40	; 0x28
 80054b4:	af00      	add	r7, sp, #0
 80054b6:	6078      	str	r0, [r7, #4]
	BaseType_t xYieldRequired = pdFALSE;
 80054b8:	2300      	movs	r3, #0
 80054ba:	627b      	str	r3, [r7, #36]	; 0x24
	TCB_t * const pxTCB = ( TCB_t * ) xTaskToResume;
 80054bc:	687b      	ldr	r3, [r7, #4]
 80054be:	623b      	str	r3, [r7, #32]
	UBaseType_t uxSavedInterruptStatus;

		configASSERT( xTaskToResume );
 80054c0:	687b      	ldr	r3, [r7, #4]
 80054c2:	2b00      	cmp	r3, #0
 80054c4:	d109      	bne.n	80054da <xTaskResumeFromISR+0x2a>
 80054c6:	f04f 0350 	mov.w	r3, #80	; 0x50
 80054ca:	f383 8811 	msr	BASEPRI, r3
 80054ce:	f3bf 8f6f 	isb	sy
 80054d2:	f3bf 8f4f 	dsb	sy
 80054d6:	61bb      	str	r3, [r7, #24]
 80054d8:	e7fe      	b.n	80054d8 <xTaskResumeFromISR+0x28>
		below the maximum system call interrupt priority.  FreeRTOS maintains a
		separate interrupt safe API to ensure interrupt entry is as fast and as
		simple as possible.  More information (albeit Cortex-M specific) is
		provided on the following link:
		http://www.freertos.org/RTOS-Cortex-M3-M4.html */
		portASSERT_IF_INTERRUPT_PRIORITY_INVALID();
 80054da:	f000 fd57 	bl	8005f8c <vPortValidateInterruptPriority>

portFORCE_INLINE static uint32_t ulPortRaiseBASEPRI( void )
{
uint32_t ulOriginalBASEPRI, ulNewBASEPRI;

	__asm volatile
 80054de:	f3ef 8211 	mrs	r2, BASEPRI
 80054e2:	f04f 0350 	mov.w	r3, #80	; 0x50
 80054e6:	f383 8811 	msr	BASEPRI, r3
 80054ea:	f3bf 8f6f 	isb	sy
 80054ee:	f3bf 8f4f 	dsb	sy
 80054f2:	617a      	str	r2, [r7, #20]
 80054f4:	613b      	str	r3, [r7, #16]
		:"=r" (ulOriginalBASEPRI), "=r" (ulNewBASEPRI) : "i" ( configMAX_SYSCALL_INTERRUPT_PRIORITY ) : "memory"
	);

	/* This return will not be reached but is necessary to prevent compiler
	warnings. */
	return ulOriginalBASEPRI;
 80054f6:	697b      	ldr	r3, [r7, #20]

		uxSavedInterruptStatus = portSET_INTERRUPT_MASK_FROM_ISR();
 80054f8:	61fb      	str	r3, [r7, #28]
		{
			if( prvTaskIsTaskSuspended( pxTCB ) != pdFALSE )
 80054fa:	6a38      	ldr	r0, [r7, #32]
 80054fc:	f7ff ff9e 	bl	800543c <prvTaskIsTaskSuspended>
 8005500:	4603      	mov	r3, r0
 8005502:	2b00      	cmp	r3, #0
 8005504:	d02f      	beq.n	8005566 <xTaskResumeFromISR+0xb6>
			{
				traceTASK_RESUME_FROM_ISR( pxTCB );

				/* Check the ready lists can be accessed. */
				if( uxSchedulerSuspended == ( UBaseType_t ) pdFALSE )
 8005506:	4b1d      	ldr	r3, [pc, #116]	; (800557c <xTaskResumeFromISR+0xcc>)
 8005508:	681b      	ldr	r3, [r3, #0]
 800550a:	2b00      	cmp	r3, #0
 800550c:	d125      	bne.n	800555a <xTaskResumeFromISR+0xaa>
				{
					/* Ready lists can be accessed so move the task from the
					suspended list to the ready list directly. */
					if( pxTCB->uxPriority >= pxCurrentTCB->uxPriority )
 800550e:	6a3b      	ldr	r3, [r7, #32]
 8005510:	6ada      	ldr	r2, [r3, #44]	; 0x2c
 8005512:	4b1b      	ldr	r3, [pc, #108]	; (8005580 <xTaskResumeFromISR+0xd0>)
 8005514:	681b      	ldr	r3, [r3, #0]
 8005516:	6adb      	ldr	r3, [r3, #44]	; 0x2c
 8005518:	429a      	cmp	r2, r3
 800551a:	d301      	bcc.n	8005520 <xTaskResumeFromISR+0x70>
					{
						xYieldRequired = pdTRUE;
 800551c:	2301      	movs	r3, #1
 800551e:	627b      	str	r3, [r7, #36]	; 0x24
					else
					{
						mtCOVERAGE_TEST_MARKER();
					}

					( void ) uxListRemove( &( pxTCB->xStateListItem ) );
 8005520:	6a3b      	ldr	r3, [r7, #32]
 8005522:	3304      	adds	r3, #4
 8005524:	4618      	mov	r0, r3
 8005526:	f7ff fd13 	bl	8004f50 <uxListRemove>
					prvAddTaskToReadyList( pxTCB );
 800552a:	6a3b      	ldr	r3, [r7, #32]
 800552c:	6adb      	ldr	r3, [r3, #44]	; 0x2c
 800552e:	2201      	movs	r2, #1
 8005530:	409a      	lsls	r2, r3
 8005532:	4b14      	ldr	r3, [pc, #80]	; (8005584 <xTaskResumeFromISR+0xd4>)
 8005534:	681b      	ldr	r3, [r3, #0]
 8005536:	4313      	orrs	r3, r2
 8005538:	4a12      	ldr	r2, [pc, #72]	; (8005584 <xTaskResumeFromISR+0xd4>)
 800553a:	6013      	str	r3, [r2, #0]
 800553c:	6a3b      	ldr	r3, [r7, #32]
 800553e:	6ada      	ldr	r2, [r3, #44]	; 0x2c
 8005540:	4613      	mov	r3, r2
 8005542:	009b      	lsls	r3, r3, #2
 8005544:	4413      	add	r3, r2
 8005546:	009b      	lsls	r3, r3, #2
 8005548:	4a0f      	ldr	r2, [pc, #60]	; (8005588 <xTaskResumeFromISR+0xd8>)
 800554a:	441a      	add	r2, r3
 800554c:	6a3b      	ldr	r3, [r7, #32]
 800554e:	3304      	adds	r3, #4
 8005550:	4619      	mov	r1, r3
 8005552:	4610      	mov	r0, r2
 8005554:	f7ff fca1 	bl	8004e9a <vListInsertEnd>
 8005558:	e005      	b.n	8005566 <xTaskResumeFromISR+0xb6>
				else
				{
					/* The delayed or ready lists cannot be accessed so the task
					is held in the pending ready list until the scheduler is
					unsuspended. */
					vListInsertEnd( &( xPendingReadyList ), &( pxTCB->xEventListItem ) );
 800555a:	6a3b      	ldr	r3, [r7, #32]
 800555c:	3318      	adds	r3, #24
 800555e:	4619      	mov	r1, r3
 8005560:	480a      	ldr	r0, [pc, #40]	; (800558c <xTaskResumeFromISR+0xdc>)
 8005562:	f7ff fc9a 	bl	8004e9a <vListInsertEnd>
 8005566:	69fb      	ldr	r3, [r7, #28]
 8005568:	60fb      	str	r3, [r7, #12]
}
/*-----------------------------------------------------------*/

portFORCE_INLINE static void vPortSetBASEPRI( uint32_t ulNewMaskValue )
{
	__asm volatile
 800556a:	68fb      	ldr	r3, [r7, #12]
 800556c:	f383 8811 	msr	BASEPRI, r3
				mtCOVERAGE_TEST_MARKER();
			}
		}
		portCLEAR_INTERRUPT_MASK_FROM_ISR( uxSavedInterruptStatus );

		return xYieldRequired;
 8005570:	6a7b      	ldr	r3, [r7, #36]	; 0x24
	}
 8005572:	4618      	mov	r0, r3
 8005574:	3728      	adds	r7, #40	; 0x28
 8005576:	46bd      	mov	sp, r7
 8005578:	bd80      	pop	{r7, pc}
 800557a:	bf00      	nop
 800557c:	200003b0 	.word	0x200003b0
 8005580:	20000288 	.word	0x20000288
 8005584:	20000390 	.word	0x20000390
 8005588:	2000028c 	.word	0x2000028c
 800558c:	20000348 	.word	0x20000348

08005590 <vTaskStartScheduler>:

#endif /* ( ( INCLUDE_xTaskResumeFromISR == 1 ) && ( INCLUDE_vTaskSuspend == 1 ) ) */
/*-----------------------------------------------------------*/

void vTaskStartScheduler( void )
{
 8005590:	b580      	push	{r7, lr}
 8005592:	b08a      	sub	sp, #40	; 0x28
 8005594:	af04      	add	r7, sp, #16
BaseType_t xReturn;

	/* Add the idle task at the lowest priority. */
	#if( configSUPPORT_STATIC_ALLOCATION == 1 )
	{
		StaticTask_t *pxIdleTaskTCBBuffer = NULL;
 8005596:	2300      	movs	r3, #0
 8005598:	60bb      	str	r3, [r7, #8]
		StackType_t *pxIdleTaskStackBuffer = NULL;
 800559a:	2300      	movs	r3, #0
 800559c:	607b      	str	r3, [r7, #4]
		uint32_t ulIdleTaskStackSize;

		/* The Idle task is created using user provided RAM - obtain the
		address of the RAM then create the idle task. */
		vApplicationGetIdleTaskMemory( &pxIdleTaskTCBBuffer, &pxIdleTaskStackBuffer, &ulIdleTaskStackSize );
 800559e:	463a      	mov	r2, r7
 80055a0:	1d39      	adds	r1, r7, #4
 80055a2:	f107 0308 	add.w	r3, r7, #8
 80055a6:	4618      	mov	r0, r3
 80055a8:	f7fa fdd2 	bl	8000150 <vApplicationGetIdleTaskMemory>
		xIdleTaskHandle = xTaskCreateStatic(	prvIdleTask,
 80055ac:	6839      	ldr	r1, [r7, #0]
 80055ae:	687b      	ldr	r3, [r7, #4]
 80055b0:	68ba      	ldr	r2, [r7, #8]
 80055b2:	9202      	str	r2, [sp, #8]
 80055b4:	9301      	str	r3, [sp, #4]
 80055b6:	2300      	movs	r3, #0
 80055b8:	9300      	str	r3, [sp, #0]
 80055ba:	2300      	movs	r3, #0
 80055bc:	460a      	mov	r2, r1
 80055be:	491d      	ldr	r1, [pc, #116]	; (8005634 <vTaskStartScheduler+0xa4>)
 80055c0:	481d      	ldr	r0, [pc, #116]	; (8005638 <vTaskStartScheduler+0xa8>)
 80055c2:	f7ff fcee 	bl	8004fa2 <xTaskCreateStatic>
 80055c6:	4602      	mov	r2, r0
 80055c8:	4b1c      	ldr	r3, [pc, #112]	; (800563c <vTaskStartScheduler+0xac>)
 80055ca:	601a      	str	r2, [r3, #0]
												( void * ) NULL, /*lint !e961.  The cast is not redundant for all compilers. */
												( tskIDLE_PRIORITY | portPRIVILEGE_BIT ),
												pxIdleTaskStackBuffer,
												pxIdleTaskTCBBuffer ); /*lint !e961 MISRA exception, justified as it is not a redundant explicit cast to all supported compilers. */

		if( xIdleTaskHandle != NULL )
 80055cc:	4b1b      	ldr	r3, [pc, #108]	; (800563c <vTaskStartScheduler+0xac>)
 80055ce:	681b      	ldr	r3, [r3, #0]
 80055d0:	2b00      	cmp	r3, #0
 80055d2:	d002      	beq.n	80055da <vTaskStartScheduler+0x4a>
		{
			xReturn = pdPASS;
 80055d4:	2301      	movs	r3, #1
 80055d6:	617b      	str	r3, [r7, #20]
 80055d8:	e001      	b.n	80055de <vTaskStartScheduler+0x4e>
		}
		else
		{
			xReturn = pdFAIL;
 80055da:	2300      	movs	r3, #0
 80055dc:	617b      	str	r3, [r7, #20]
			mtCOVERAGE_TEST_MARKER();
		}
	}
	#endif /* configUSE_TIMERS */

	if( xReturn == pdPASS )
 80055de:	697b      	ldr	r3, [r7, #20]
 80055e0:	2b01      	cmp	r3, #1
 80055e2:	d115      	bne.n	8005610 <vTaskStartScheduler+0x80>
	__asm volatile
 80055e4:	f04f 0350 	mov.w	r3, #80	; 0x50
 80055e8:	f383 8811 	msr	BASEPRI, r3
 80055ec:	f3bf 8f6f 	isb	sy
 80055f0:	f3bf 8f4f 	dsb	sy
 80055f4:	613b      	str	r3, [r7, #16]
			structure specific to the task that will run first. */
			_impure_ptr = &( pxCurrentTCB->xNewLib_reent );
		}
		#endif /* configUSE_NEWLIB_REENTRANT */

		xNextTaskUnblockTime = portMAX_DELAY;
 80055f6:	4b12      	ldr	r3, [pc, #72]	; (8005640 <vTaskStartScheduler+0xb0>)
 80055f8:	f04f 32ff 	mov.w	r2, #4294967295
 80055fc:	601a      	str	r2, [r3, #0]
		xSchedulerRunning = pdTRUE;
 80055fe:	4b11      	ldr	r3, [pc, #68]	; (8005644 <vTaskStartScheduler+0xb4>)
 8005600:	2201      	movs	r2, #1
 8005602:	601a      	str	r2, [r3, #0]
		xTickCount = ( TickType_t ) 0U;
 8005604:	4b10      	ldr	r3, [pc, #64]	; (8005648 <vTaskStartScheduler+0xb8>)
 8005606:	2200      	movs	r2, #0
 8005608:	601a      	str	r2, [r3, #0]
		FreeRTOSConfig.h file. */
		portCONFIGURE_TIMER_FOR_RUN_TIME_STATS();

		/* Setting up the timer tick is hardware specific and thus in the
		portable interface. */
		if( xPortStartScheduler() != pdFALSE )
 800560a:	f000 fb95 	bl	8005d38 <xPortStartScheduler>
	}

	/* Prevent compiler warnings if INCLUDE_xTaskGetIdleTaskHandle is set to 0,
	meaning xIdleTaskHandle is not used anywhere else. */
	( void ) xIdleTaskHandle;
}
 800560e:	e00d      	b.n	800562c <vTaskStartScheduler+0x9c>
		configASSERT( xReturn != errCOULD_NOT_ALLOCATE_REQUIRED_MEMORY );
 8005610:	697b      	ldr	r3, [r7, #20]
 8005612:	f1b3 3fff 	cmp.w	r3, #4294967295
 8005616:	d109      	bne.n	800562c <vTaskStartScheduler+0x9c>
 8005618:	f04f 0350 	mov.w	r3, #80	; 0x50
 800561c:	f383 8811 	msr	BASEPRI, r3
 8005620:	f3bf 8f6f 	isb	sy
 8005624:	f3bf 8f4f 	dsb	sy
 8005628:	60fb      	str	r3, [r7, #12]
 800562a:	e7fe      	b.n	800562a <vTaskStartScheduler+0x9a>
}
 800562c:	bf00      	nop
 800562e:	3718      	adds	r7, #24
 8005630:	46bd      	mov	sp, r7
 8005632:	bd80      	pop	{r7, pc}
 8005634:	0800646c 	.word	0x0800646c
 8005638:	080059cd 	.word	0x080059cd
 800563c:	200003ac 	.word	0x200003ac
 8005640:	200003a8 	.word	0x200003a8
 8005644:	20000394 	.word	0x20000394
 8005648:	2000038c 	.word	0x2000038c

0800564c <vTaskSuspendAll>:
	vPortEndScheduler();
}
/*----------------------------------------------------------*/

void vTaskSuspendAll( void )
{
 800564c:	b480      	push	{r7}
 800564e:	af00      	add	r7, sp, #0
	/* A critical section is not required as the variable is of type
	BaseType_t.  Please read Richard Barry's reply in the following link to a
	post in the FreeRTOS support forum before reporting this as a bug! -
	http://goo.gl/wu4acr */
	++uxSchedulerSuspended;
 8005650:	4b04      	ldr	r3, [pc, #16]	; (8005664 <vTaskSuspendAll+0x18>)
 8005652:	681b      	ldr	r3, [r3, #0]
 8005654:	3301      	adds	r3, #1
 8005656:	4a03      	ldr	r2, [pc, #12]	; (8005664 <vTaskSuspendAll+0x18>)
 8005658:	6013      	str	r3, [r2, #0]
}
 800565a:	bf00      	nop
 800565c:	46bd      	mov	sp, r7
 800565e:	bc80      	pop	{r7}
 8005660:	4770      	bx	lr
 8005662:	bf00      	nop
 8005664:	200003b0 	.word	0x200003b0

08005668 <xTaskResumeAll>:

#endif /* configUSE_TICKLESS_IDLE */
/*----------------------------------------------------------*/

BaseType_t xTaskResumeAll( void )
{
 8005668:	b580      	push	{r7, lr}
 800566a:	b084      	sub	sp, #16
 800566c:	af00      	add	r7, sp, #0
TCB_t *pxTCB = NULL;
 800566e:	2300      	movs	r3, #0
 8005670:	60fb      	str	r3, [r7, #12]
BaseType_t xAlreadyYielded = pdFALSE;
 8005672:	2300      	movs	r3, #0
 8005674:	60bb      	str	r3, [r7, #8]

	/* If uxSchedulerSuspended is zero then this function does not match a
	previous call to vTaskSuspendAll(). */
	configASSERT( uxSchedulerSuspended );
 8005676:	4b41      	ldr	r3, [pc, #260]	; (800577c <xTaskResumeAll+0x114>)
 8005678:	681b      	ldr	r3, [r3, #0]
 800567a:	2b00      	cmp	r3, #0
 800567c:	d109      	bne.n	8005692 <xTaskResumeAll+0x2a>
 800567e:	f04f 0350 	mov.w	r3, #80	; 0x50
 8005682:	f383 8811 	msr	BASEPRI, r3
 8005686:	f3bf 8f6f 	isb	sy
 800568a:	f3bf 8f4f 	dsb	sy
 800568e:	603b      	str	r3, [r7, #0]
 8005690:	e7fe      	b.n	8005690 <xTaskResumeAll+0x28>
	/* It is possible that an ISR caused a task to be removed from an event
	list while the scheduler was suspended.  If this was the case then the
	removed task will have been added to the xPendingReadyList.  Once the
	scheduler has been resumed it is safe to move all the pending ready
	tasks from this list into their appropriate ready list. */
	taskENTER_CRITICAL();
 8005692:	f000 fbc1 	bl	8005e18 <vPortEnterCritical>
	{
		--uxSchedulerSuspended;
 8005696:	4b39      	ldr	r3, [pc, #228]	; (800577c <xTaskResumeAll+0x114>)
 8005698:	681b      	ldr	r3, [r3, #0]
 800569a:	3b01      	subs	r3, #1
 800569c:	4a37      	ldr	r2, [pc, #220]	; (800577c <xTaskResumeAll+0x114>)
 800569e:	6013      	str	r3, [r2, #0]

		if( uxSchedulerSuspended == ( UBaseType_t ) pdFALSE )
 80056a0:	4b36      	ldr	r3, [pc, #216]	; (800577c <xTaskResumeAll+0x114>)
 80056a2:	681b      	ldr	r3, [r3, #0]
 80056a4:	2b00      	cmp	r3, #0
 80056a6:	d161      	bne.n	800576c <xTaskResumeAll+0x104>
		{
			if( uxCurrentNumberOfTasks > ( UBaseType_t ) 0U )
 80056a8:	4b35      	ldr	r3, [pc, #212]	; (8005780 <xTaskResumeAll+0x118>)
 80056aa:	681b      	ldr	r3, [r3, #0]
 80056ac:	2b00      	cmp	r3, #0
 80056ae:	d05d      	beq.n	800576c <xTaskResumeAll+0x104>
			{
				/* Move any readied tasks from the pending list into the
				appropriate ready list. */
				while( listLIST_IS_EMPTY( &xPendingReadyList ) == pdFALSE )
 80056b0:	e02e      	b.n	8005710 <xTaskResumeAll+0xa8>
				{
					pxTCB = ( TCB_t * ) listGET_OWNER_OF_HEAD_ENTRY( ( &xPendingReadyList ) );
 80056b2:	4b34      	ldr	r3, [pc, #208]	; (8005784 <xTaskResumeAll+0x11c>)
 80056b4:	68db      	ldr	r3, [r3, #12]
 80056b6:	68db      	ldr	r3, [r3, #12]
 80056b8:	60fb      	str	r3, [r7, #12]
					( void ) uxListRemove( &( pxTCB->xEventListItem ) );
 80056ba:	68fb      	ldr	r3, [r7, #12]
 80056bc:	3318      	adds	r3, #24
 80056be:	4618      	mov	r0, r3
 80056c0:	f7ff fc46 	bl	8004f50 <uxListRemove>
					( void ) uxListRemove( &( pxTCB->xStateListItem ) );
 80056c4:	68fb      	ldr	r3, [r7, #12]
 80056c6:	3304      	adds	r3, #4
 80056c8:	4618      	mov	r0, r3
 80056ca:	f7ff fc41 	bl	8004f50 <uxListRemove>
					prvAddTaskToReadyList( pxTCB );
 80056ce:	68fb      	ldr	r3, [r7, #12]
 80056d0:	6adb      	ldr	r3, [r3, #44]	; 0x2c
 80056d2:	2201      	movs	r2, #1
 80056d4:	409a      	lsls	r2, r3
 80056d6:	4b2c      	ldr	r3, [pc, #176]	; (8005788 <xTaskResumeAll+0x120>)
 80056d8:	681b      	ldr	r3, [r3, #0]
 80056da:	4313      	orrs	r3, r2
 80056dc:	4a2a      	ldr	r2, [pc, #168]	; (8005788 <xTaskResumeAll+0x120>)
 80056de:	6013      	str	r3, [r2, #0]
 80056e0:	68fb      	ldr	r3, [r7, #12]
 80056e2:	6ada      	ldr	r2, [r3, #44]	; 0x2c
 80056e4:	4613      	mov	r3, r2
 80056e6:	009b      	lsls	r3, r3, #2
 80056e8:	4413      	add	r3, r2
 80056ea:	009b      	lsls	r3, r3, #2
 80056ec:	4a27      	ldr	r2, [pc, #156]	; (800578c <xTaskResumeAll+0x124>)
 80056ee:	441a      	add	r2, r3
 80056f0:	68fb      	ldr	r3, [r7, #12]
 80056f2:	3304      	adds	r3, #4
 80056f4:	4619      	mov	r1, r3
 80056f6:	4610      	mov	r0, r2
 80056f8:	f7ff fbcf 	bl	8004e9a <vListInsertEnd>

					/* If the moved task has a priority higher than the current
					task then a yield must be performed. */
					if( pxTCB->uxPriority >= pxCurrentTCB->uxPriority )
 80056fc:	68fb      	ldr	r3, [r7, #12]
 80056fe:	6ada      	ldr	r2, [r3, #44]	; 0x2c
 8005700:	4b23      	ldr	r3, [pc, #140]	; (8005790 <xTaskResumeAll+0x128>)
 8005702:	681b      	ldr	r3, [r3, #0]
 8005704:	6adb      	ldr	r3, [r3, #44]	; 0x2c
 8005706:	429a      	cmp	r2, r3
 8005708:	d302      	bcc.n	8005710 <xTaskResumeAll+0xa8>
					{
						xYieldPending = pdTRUE;
 800570a:	4b22      	ldr	r3, [pc, #136]	; (8005794 <xTaskResumeAll+0x12c>)
 800570c:	2201      	movs	r2, #1
 800570e:	601a      	str	r2, [r3, #0]
				while( listLIST_IS_EMPTY( &xPendingReadyList ) == pdFALSE )
 8005710:	4b1c      	ldr	r3, [pc, #112]	; (8005784 <xTaskResumeAll+0x11c>)
 8005712:	681b      	ldr	r3, [r3, #0]
 8005714:	2b00      	cmp	r3, #0
 8005716:	d1cc      	bne.n	80056b2 <xTaskResumeAll+0x4a>
					{
						mtCOVERAGE_TEST_MARKER();
					}
				}

				if( pxTCB != NULL )
 8005718:	68fb      	ldr	r3, [r7, #12]
 800571a:	2b00      	cmp	r3, #0
 800571c:	d001      	beq.n	8005722 <xTaskResumeAll+0xba>
					which may have prevented the next unblock time from being
					re-calculated, in which case re-calculate it now.  Mainly
					important for low power tickless implementations, where
					this can prevent an unnecessary exit from low power
					state. */
					prvResetNextTaskUnblockTime();
 800571e:	f000 fa07 	bl	8005b30 <prvResetNextTaskUnblockTime>
				/* If any ticks occurred while the scheduler was suspended then
				they should be processed now.  This ensures the tick count does
				not	slip, and that any delayed tasks are resumed at the correct
				time. */
				{
					UBaseType_t uxPendedCounts = uxPendedTicks; /* Non-volatile copy. */
 8005722:	4b1d      	ldr	r3, [pc, #116]	; (8005798 <xTaskResumeAll+0x130>)
 8005724:	681b      	ldr	r3, [r3, #0]
 8005726:	607b      	str	r3, [r7, #4]

					if( uxPendedCounts > ( UBaseType_t ) 0U )
 8005728:	687b      	ldr	r3, [r7, #4]
 800572a:	2b00      	cmp	r3, #0
 800572c:	d010      	beq.n	8005750 <xTaskResumeAll+0xe8>
					{
						do
						{
							if( xTaskIncrementTick() != pdFALSE )
 800572e:	f000 f837 	bl	80057a0 <xTaskIncrementTick>
 8005732:	4603      	mov	r3, r0
 8005734:	2b00      	cmp	r3, #0
 8005736:	d002      	beq.n	800573e <xTaskResumeAll+0xd6>
							{
								xYieldPending = pdTRUE;
 8005738:	4b16      	ldr	r3, [pc, #88]	; (8005794 <xTaskResumeAll+0x12c>)
 800573a:	2201      	movs	r2, #1
 800573c:	601a      	str	r2, [r3, #0]
							}
							else
							{
								mtCOVERAGE_TEST_MARKER();
							}
							--uxPendedCounts;
 800573e:	687b      	ldr	r3, [r7, #4]
 8005740:	3b01      	subs	r3, #1
 8005742:	607b      	str	r3, [r7, #4]
						} while( uxPendedCounts > ( UBaseType_t ) 0U );
 8005744:	687b      	ldr	r3, [r7, #4]
 8005746:	2b00      	cmp	r3, #0
 8005748:	d1f1      	bne.n	800572e <xTaskResumeAll+0xc6>

						uxPendedTicks = 0;
 800574a:	4b13      	ldr	r3, [pc, #76]	; (8005798 <xTaskResumeAll+0x130>)
 800574c:	2200      	movs	r2, #0
 800574e:	601a      	str	r2, [r3, #0]
					{
						mtCOVERAGE_TEST_MARKER();
					}
				}

				if( xYieldPending != pdFALSE )
 8005750:	4b10      	ldr	r3, [pc, #64]	; (8005794 <xTaskResumeAll+0x12c>)
 8005752:	681b      	ldr	r3, [r3, #0]
 8005754:	2b00      	cmp	r3, #0
 8005756:	d009      	beq.n	800576c <xTaskResumeAll+0x104>
				{
					#if( configUSE_PREEMPTION != 0 )
					{
						xAlreadyYielded = pdTRUE;
 8005758:	2301      	movs	r3, #1
 800575a:	60bb      	str	r3, [r7, #8]
					}
					#endif
					taskYIELD_IF_USING_PREEMPTION();
 800575c:	4b0f      	ldr	r3, [pc, #60]	; (800579c <xTaskResumeAll+0x134>)
 800575e:	f04f 5280 	mov.w	r2, #268435456	; 0x10000000
 8005762:	601a      	str	r2, [r3, #0]
 8005764:	f3bf 8f4f 	dsb	sy
 8005768:	f3bf 8f6f 	isb	sy
		else
		{
			mtCOVERAGE_TEST_MARKER();
		}
	}
	taskEXIT_CRITICAL();
 800576c:	f000 fb82 	bl	8005e74 <vPortExitCritical>

	return xAlreadyYielded;
 8005770:	68bb      	ldr	r3, [r7, #8]
}
 8005772:	4618      	mov	r0, r3
 8005774:	3710      	adds	r7, #16
 8005776:	46bd      	mov	sp, r7
 8005778:	bd80      	pop	{r7, pc}
 800577a:	bf00      	nop
 800577c:	200003b0 	.word	0x200003b0
 8005780:	20000388 	.word	0x20000388
 8005784:	20000348 	.word	0x20000348
 8005788:	20000390 	.word	0x20000390
 800578c:	2000028c 	.word	0x2000028c
 8005790:	20000288 	.word	0x20000288
 8005794:	2000039c 	.word	0x2000039c
 8005798:	20000398 	.word	0x20000398
 800579c:	e000ed04 	.word	0xe000ed04

080057a0 <xTaskIncrementTick>:

#endif /* INCLUDE_xTaskAbortDelay */
/*----------------------------------------------------------*/

BaseType_t xTaskIncrementTick( void )
{
 80057a0:	b580      	push	{r7, lr}
 80057a2:	b086      	sub	sp, #24
 80057a4:	af00      	add	r7, sp, #0
TCB_t * pxTCB;
TickType_t xItemValue;
BaseType_t xSwitchRequired = pdFALSE;
 80057a6:	2300      	movs	r3, #0
 80057a8:	617b      	str	r3, [r7, #20]

	/* Called by the portable layer each time a tick interrupt occurs.
	Increments the tick then checks to see if the new tick value will cause any
	tasks to be unblocked. */
	traceTASK_INCREMENT_TICK( xTickCount );
	if( uxSchedulerSuspended == ( UBaseType_t ) pdFALSE )
 80057aa:	4b50      	ldr	r3, [pc, #320]	; (80058ec <xTaskIncrementTick+0x14c>)
 80057ac:	681b      	ldr	r3, [r3, #0]
 80057ae:	2b00      	cmp	r3, #0
 80057b0:	f040 808c 	bne.w	80058cc <xTaskIncrementTick+0x12c>
	{
		/* Minor optimisation.  The tick count cannot change in this
		block. */
		const TickType_t xConstTickCount = xTickCount + ( TickType_t ) 1;
 80057b4:	4b4e      	ldr	r3, [pc, #312]	; (80058f0 <xTaskIncrementTick+0x150>)
 80057b6:	681b      	ldr	r3, [r3, #0]
 80057b8:	3301      	adds	r3, #1
 80057ba:	613b      	str	r3, [r7, #16]

		/* Increment the RTOS tick, switching the delayed and overflowed
		delayed lists if it wraps to 0. */
		xTickCount = xConstTickCount;
 80057bc:	4a4c      	ldr	r2, [pc, #304]	; (80058f0 <xTaskIncrementTick+0x150>)
 80057be:	693b      	ldr	r3, [r7, #16]
 80057c0:	6013      	str	r3, [r2, #0]

		if( xConstTickCount == ( TickType_t ) 0U ) /*lint !e774 'if' does not always evaluate to false as it is looking for an overflow. */
 80057c2:	693b      	ldr	r3, [r7, #16]
 80057c4:	2b00      	cmp	r3, #0
 80057c6:	d11f      	bne.n	8005808 <xTaskIncrementTick+0x68>
		{
			taskSWITCH_DELAYED_LISTS();
 80057c8:	4b4a      	ldr	r3, [pc, #296]	; (80058f4 <xTaskIncrementTick+0x154>)
 80057ca:	681b      	ldr	r3, [r3, #0]
 80057cc:	681b      	ldr	r3, [r3, #0]
 80057ce:	2b00      	cmp	r3, #0
 80057d0:	d009      	beq.n	80057e6 <xTaskIncrementTick+0x46>
 80057d2:	f04f 0350 	mov.w	r3, #80	; 0x50
 80057d6:	f383 8811 	msr	BASEPRI, r3
 80057da:	f3bf 8f6f 	isb	sy
 80057de:	f3bf 8f4f 	dsb	sy
 80057e2:	603b      	str	r3, [r7, #0]
 80057e4:	e7fe      	b.n	80057e4 <xTaskIncrementTick+0x44>
 80057e6:	4b43      	ldr	r3, [pc, #268]	; (80058f4 <xTaskIncrementTick+0x154>)
 80057e8:	681b      	ldr	r3, [r3, #0]
 80057ea:	60fb      	str	r3, [r7, #12]
 80057ec:	4b42      	ldr	r3, [pc, #264]	; (80058f8 <xTaskIncrementTick+0x158>)
 80057ee:	681b      	ldr	r3, [r3, #0]
 80057f0:	4a40      	ldr	r2, [pc, #256]	; (80058f4 <xTaskIncrementTick+0x154>)
 80057f2:	6013      	str	r3, [r2, #0]
 80057f4:	4a40      	ldr	r2, [pc, #256]	; (80058f8 <xTaskIncrementTick+0x158>)
 80057f6:	68fb      	ldr	r3, [r7, #12]
 80057f8:	6013      	str	r3, [r2, #0]
 80057fa:	4b40      	ldr	r3, [pc, #256]	; (80058fc <xTaskIncrementTick+0x15c>)
 80057fc:	681b      	ldr	r3, [r3, #0]
 80057fe:	3301      	adds	r3, #1
 8005800:	4a3e      	ldr	r2, [pc, #248]	; (80058fc <xTaskIncrementTick+0x15c>)
 8005802:	6013      	str	r3, [r2, #0]
 8005804:	f000 f994 	bl	8005b30 <prvResetNextTaskUnblockTime>

		/* See if this tick has made a timeout expire.  Tasks are stored in
		the	queue in the order of their wake time - meaning once one task
		has been found whose block time has not expired there is no need to
		look any further down the list. */
		if( xConstTickCount >= xNextTaskUnblockTime )
 8005808:	4b3d      	ldr	r3, [pc, #244]	; (8005900 <xTaskIncrementTick+0x160>)
 800580a:	681b      	ldr	r3, [r3, #0]
 800580c:	693a      	ldr	r2, [r7, #16]
 800580e:	429a      	cmp	r2, r3
 8005810:	d34d      	bcc.n	80058ae <xTaskIncrementTick+0x10e>
		{
			for( ;; )
			{
				if( listLIST_IS_EMPTY( pxDelayedTaskList ) != pdFALSE )
 8005812:	4b38      	ldr	r3, [pc, #224]	; (80058f4 <xTaskIncrementTick+0x154>)
 8005814:	681b      	ldr	r3, [r3, #0]
 8005816:	681b      	ldr	r3, [r3, #0]
 8005818:	2b00      	cmp	r3, #0
 800581a:	d101      	bne.n	8005820 <xTaskIncrementTick+0x80>
 800581c:	2301      	movs	r3, #1
 800581e:	e000      	b.n	8005822 <xTaskIncrementTick+0x82>
 8005820:	2300      	movs	r3, #0
 8005822:	2b00      	cmp	r3, #0
 8005824:	d004      	beq.n	8005830 <xTaskIncrementTick+0x90>
					/* The delayed list is empty.  Set xNextTaskUnblockTime
					to the maximum possible value so it is extremely
					unlikely that the
					if( xTickCount >= xNextTaskUnblockTime ) test will pass
					next time through. */
					xNextTaskUnblockTime = portMAX_DELAY; /*lint !e961 MISRA exception as the casts are only redundant for some ports. */
 8005826:	4b36      	ldr	r3, [pc, #216]	; (8005900 <xTaskIncrementTick+0x160>)
 8005828:	f04f 32ff 	mov.w	r2, #4294967295
 800582c:	601a      	str	r2, [r3, #0]
					break;
 800582e:	e03e      	b.n	80058ae <xTaskIncrementTick+0x10e>
				{
					/* The delayed list is not empty, get the value of the
					item at the head of the delayed list.  This is the time
					at which the task at the head of the delayed list must
					be removed from the Blocked state. */
					pxTCB = ( TCB_t * ) listGET_OWNER_OF_HEAD_ENTRY( pxDelayedTaskList );
 8005830:	4b30      	ldr	r3, [pc, #192]	; (80058f4 <xTaskIncrementTick+0x154>)
 8005832:	681b      	ldr	r3, [r3, #0]
 8005834:	68db      	ldr	r3, [r3, #12]
 8005836:	68db      	ldr	r3, [r3, #12]
 8005838:	60bb      	str	r3, [r7, #8]
					xItemValue = listGET_LIST_ITEM_VALUE( &( pxTCB->xStateListItem ) );
 800583a:	68bb      	ldr	r3, [r7, #8]
 800583c:	685b      	ldr	r3, [r3, #4]
 800583e:	607b      	str	r3, [r7, #4]

					if( xConstTickCount < xItemValue )
 8005840:	693a      	ldr	r2, [r7, #16]
 8005842:	687b      	ldr	r3, [r7, #4]
 8005844:	429a      	cmp	r2, r3
 8005846:	d203      	bcs.n	8005850 <xTaskIncrementTick+0xb0>
						/* It is not time to unblock this item yet, but the
						item value is the time at which the task at the head
						of the blocked list must be removed from the Blocked
						state -	so record the item value in
						xNextTaskUnblockTime. */
						xNextTaskUnblockTime = xItemValue;
 8005848:	4a2d      	ldr	r2, [pc, #180]	; (8005900 <xTaskIncrementTick+0x160>)
 800584a:	687b      	ldr	r3, [r7, #4]
 800584c:	6013      	str	r3, [r2, #0]
						break;
 800584e:	e02e      	b.n	80058ae <xTaskIncrementTick+0x10e>
					{
						mtCOVERAGE_TEST_MARKER();
					}

					/* It is time to remove the item from the Blocked state. */
					( void ) uxListRemove( &( pxTCB->xStateListItem ) );
 8005850:	68bb      	ldr	r3, [r7, #8]
 8005852:	3304      	adds	r3, #4
 8005854:	4618      	mov	r0, r3
 8005856:	f7ff fb7b 	bl	8004f50 <uxListRemove>

					/* Is the task waiting on an event also?  If so remove
					it from the event list. */
					if( listLIST_ITEM_CONTAINER( &( pxTCB->xEventListItem ) ) != NULL )
 800585a:	68bb      	ldr	r3, [r7, #8]
 800585c:	6a9b      	ldr	r3, [r3, #40]	; 0x28
 800585e:	2b00      	cmp	r3, #0
 8005860:	d004      	beq.n	800586c <xTaskIncrementTick+0xcc>
					{
						( void ) uxListRemove( &( pxTCB->xEventListItem ) );
 8005862:	68bb      	ldr	r3, [r7, #8]
 8005864:	3318      	adds	r3, #24
 8005866:	4618      	mov	r0, r3
 8005868:	f7ff fb72 	bl	8004f50 <uxListRemove>
						mtCOVERAGE_TEST_MARKER();
					}

					/* Place the unblocked task into the appropriate ready
					list. */
					prvAddTaskToReadyList( pxTCB );
 800586c:	68bb      	ldr	r3, [r7, #8]
 800586e:	6adb      	ldr	r3, [r3, #44]	; 0x2c
 8005870:	2201      	movs	r2, #1
 8005872:	409a      	lsls	r2, r3
 8005874:	4b23      	ldr	r3, [pc, #140]	; (8005904 <xTaskIncrementTick+0x164>)
 8005876:	681b      	ldr	r3, [r3, #0]
 8005878:	4313      	orrs	r3, r2
 800587a:	4a22      	ldr	r2, [pc, #136]	; (8005904 <xTaskIncrementTick+0x164>)
 800587c:	6013      	str	r3, [r2, #0]
 800587e:	68bb      	ldr	r3, [r7, #8]
 8005880:	6ada      	ldr	r2, [r3, #44]	; 0x2c
 8005882:	4613      	mov	r3, r2
 8005884:	009b      	lsls	r3, r3, #2
 8005886:	4413      	add	r3, r2
 8005888:	009b      	lsls	r3, r3, #2
 800588a:	4a1f      	ldr	r2, [pc, #124]	; (8005908 <xTaskIncrementTick+0x168>)
 800588c:	441a      	add	r2, r3
 800588e:	68bb      	ldr	r3, [r7, #8]
 8005890:	3304      	adds	r3, #4
 8005892:	4619      	mov	r1, r3
 8005894:	4610      	mov	r0, r2
 8005896:	f7ff fb00 	bl	8004e9a <vListInsertEnd>
					{
						/* Preemption is on, but a context switch should
						only be performed if the unblocked task has a
						priority that is equal to or higher than the
						currently executing task. */
						if( pxTCB->uxPriority >= pxCurrentTCB->uxPriority )
 800589a:	68bb      	ldr	r3, [r7, #8]
 800589c:	6ada      	ldr	r2, [r3, #44]	; 0x2c
 800589e:	4b1b      	ldr	r3, [pc, #108]	; (800590c <xTaskIncrementTick+0x16c>)
 80058a0:	681b      	ldr	r3, [r3, #0]
 80058a2:	6adb      	ldr	r3, [r3, #44]	; 0x2c
 80058a4:	429a      	cmp	r2, r3
 80058a6:	d3b4      	bcc.n	8005812 <xTaskIncrementTick+0x72>
						{
							xSwitchRequired = pdTRUE;
 80058a8:	2301      	movs	r3, #1
 80058aa:	617b      	str	r3, [r7, #20]
				if( listLIST_IS_EMPTY( pxDelayedTaskList ) != pdFALSE )
 80058ac:	e7b1      	b.n	8005812 <xTaskIncrementTick+0x72>
		/* Tasks of equal priority to the currently running task will share
		processing time (time slice) if preemption is on, and the application
		writer has not explicitly turned time slicing off. */
		#if ( ( configUSE_PREEMPTION == 1 ) && ( configUSE_TIME_SLICING == 1 ) )
		{
			if( listCURRENT_LIST_LENGTH( &( pxReadyTasksLists[ pxCurrentTCB->uxPriority ] ) ) > ( UBaseType_t ) 1 )
 80058ae:	4b17      	ldr	r3, [pc, #92]	; (800590c <xTaskIncrementTick+0x16c>)
 80058b0:	681b      	ldr	r3, [r3, #0]
 80058b2:	6ada      	ldr	r2, [r3, #44]	; 0x2c
 80058b4:	4914      	ldr	r1, [pc, #80]	; (8005908 <xTaskIncrementTick+0x168>)
 80058b6:	4613      	mov	r3, r2
 80058b8:	009b      	lsls	r3, r3, #2
 80058ba:	4413      	add	r3, r2
 80058bc:	009b      	lsls	r3, r3, #2
 80058be:	440b      	add	r3, r1
 80058c0:	681b      	ldr	r3, [r3, #0]
 80058c2:	2b01      	cmp	r3, #1
 80058c4:	d907      	bls.n	80058d6 <xTaskIncrementTick+0x136>
			{
				xSwitchRequired = pdTRUE;
 80058c6:	2301      	movs	r3, #1
 80058c8:	617b      	str	r3, [r7, #20]
 80058ca:	e004      	b.n	80058d6 <xTaskIncrementTick+0x136>
		}
		#endif /* configUSE_TICK_HOOK */
	}
	else
	{
		++uxPendedTicks;
 80058cc:	4b10      	ldr	r3, [pc, #64]	; (8005910 <xTaskIncrementTick+0x170>)
 80058ce:	681b      	ldr	r3, [r3, #0]
 80058d0:	3301      	adds	r3, #1
 80058d2:	4a0f      	ldr	r2, [pc, #60]	; (8005910 <xTaskIncrementTick+0x170>)
 80058d4:	6013      	str	r3, [r2, #0]
		#endif
	}

	#if ( configUSE_PREEMPTION == 1 )
	{
		if( xYieldPending != pdFALSE )
 80058d6:	4b0f      	ldr	r3, [pc, #60]	; (8005914 <xTaskIncrementTick+0x174>)
 80058d8:	681b      	ldr	r3, [r3, #0]
 80058da:	2b00      	cmp	r3, #0
 80058dc:	d001      	beq.n	80058e2 <xTaskIncrementTick+0x142>
		{
			xSwitchRequired = pdTRUE;
 80058de:	2301      	movs	r3, #1
 80058e0:	617b      	str	r3, [r7, #20]
			mtCOVERAGE_TEST_MARKER();
		}
	}
	#endif /* configUSE_PREEMPTION */

	return xSwitchRequired;
 80058e2:	697b      	ldr	r3, [r7, #20]
}
 80058e4:	4618      	mov	r0, r3
 80058e6:	3718      	adds	r7, #24
 80058e8:	46bd      	mov	sp, r7
 80058ea:	bd80      	pop	{r7, pc}
 80058ec:	200003b0 	.word	0x200003b0
 80058f0:	2000038c 	.word	0x2000038c
 80058f4:	20000340 	.word	0x20000340
 80058f8:	20000344 	.word	0x20000344
 80058fc:	200003a0 	.word	0x200003a0
 8005900:	200003a8 	.word	0x200003a8
 8005904:	20000390 	.word	0x20000390
 8005908:	2000028c 	.word	0x2000028c
 800590c:	20000288 	.word	0x20000288
 8005910:	20000398 	.word	0x20000398
 8005914:	2000039c 	.word	0x2000039c

08005918 <vTaskSwitchContext>:

#endif /* configUSE_APPLICATION_TASK_TAG */
/*-----------------------------------------------------------*/

void vTaskSwitchContext( void )
{
 8005918:	b480      	push	{r7}
 800591a:	b087      	sub	sp, #28
 800591c:	af00      	add	r7, sp, #0
	if( uxSchedulerSuspended != ( UBaseType_t ) pdFALSE )
 800591e:	4b26      	ldr	r3, [pc, #152]	; (80059b8 <vTaskSwitchContext+0xa0>)
 8005920:	681b      	ldr	r3, [r3, #0]
 8005922:	2b00      	cmp	r3, #0
 8005924:	d003      	beq.n	800592e <vTaskSwitchContext+0x16>
	{
		/* The scheduler is currently suspended - do not allow a context
		switch. */
		xYieldPending = pdTRUE;
 8005926:	4b25      	ldr	r3, [pc, #148]	; (80059bc <vTaskSwitchContext+0xa4>)
 8005928:	2201      	movs	r2, #1
 800592a:	601a      	str	r2, [r3, #0]
			structure specific to this task. */
			_impure_ptr = &( pxCurrentTCB->xNewLib_reent );
		}
		#endif /* configUSE_NEWLIB_REENTRANT */
	}
}
 800592c:	e03e      	b.n	80059ac <vTaskSwitchContext+0x94>
		xYieldPending = pdFALSE;
 800592e:	4b23      	ldr	r3, [pc, #140]	; (80059bc <vTaskSwitchContext+0xa4>)
 8005930:	2200      	movs	r2, #0
 8005932:	601a      	str	r2, [r3, #0]
		taskSELECT_HIGHEST_PRIORITY_TASK();
 8005934:	4b22      	ldr	r3, [pc, #136]	; (80059c0 <vTaskSwitchContext+0xa8>)
 8005936:	681b      	ldr	r3, [r3, #0]
 8005938:	60fb      	str	r3, [r7, #12]
		__asm volatile ( "clz %0, %1" : "=r" ( ucReturn ) : "r" ( ulBitmap ) : "memory" );
 800593a:	68fb      	ldr	r3, [r7, #12]
 800593c:	fab3 f383 	clz	r3, r3
 8005940:	72fb      	strb	r3, [r7, #11]
		return ucReturn;
 8005942:	7afb      	ldrb	r3, [r7, #11]
 8005944:	f1c3 031f 	rsb	r3, r3, #31
 8005948:	617b      	str	r3, [r7, #20]
 800594a:	491e      	ldr	r1, [pc, #120]	; (80059c4 <vTaskSwitchContext+0xac>)
 800594c:	697a      	ldr	r2, [r7, #20]
 800594e:	4613      	mov	r3, r2
 8005950:	009b      	lsls	r3, r3, #2
 8005952:	4413      	add	r3, r2
 8005954:	009b      	lsls	r3, r3, #2
 8005956:	440b      	add	r3, r1
 8005958:	681b      	ldr	r3, [r3, #0]
 800595a:	2b00      	cmp	r3, #0
 800595c:	d109      	bne.n	8005972 <vTaskSwitchContext+0x5a>
	__asm volatile
 800595e:	f04f 0350 	mov.w	r3, #80	; 0x50
 8005962:	f383 8811 	msr	BASEPRI, r3
 8005966:	f3bf 8f6f 	isb	sy
 800596a:	f3bf 8f4f 	dsb	sy
 800596e:	607b      	str	r3, [r7, #4]
 8005970:	e7fe      	b.n	8005970 <vTaskSwitchContext+0x58>
 8005972:	697a      	ldr	r2, [r7, #20]
 8005974:	4613      	mov	r3, r2
 8005976:	009b      	lsls	r3, r3, #2
 8005978:	4413      	add	r3, r2
 800597a:	009b      	lsls	r3, r3, #2
 800597c:	4a11      	ldr	r2, [pc, #68]	; (80059c4 <vTaskSwitchContext+0xac>)
 800597e:	4413      	add	r3, r2
 8005980:	613b      	str	r3, [r7, #16]
 8005982:	693b      	ldr	r3, [r7, #16]
 8005984:	685b      	ldr	r3, [r3, #4]
 8005986:	685a      	ldr	r2, [r3, #4]
 8005988:	693b      	ldr	r3, [r7, #16]
 800598a:	605a      	str	r2, [r3, #4]
 800598c:	693b      	ldr	r3, [r7, #16]
 800598e:	685a      	ldr	r2, [r3, #4]
 8005990:	693b      	ldr	r3, [r7, #16]
 8005992:	3308      	adds	r3, #8
 8005994:	429a      	cmp	r2, r3
 8005996:	d104      	bne.n	80059a2 <vTaskSwitchContext+0x8a>
 8005998:	693b      	ldr	r3, [r7, #16]
 800599a:	685b      	ldr	r3, [r3, #4]
 800599c:	685a      	ldr	r2, [r3, #4]
 800599e:	693b      	ldr	r3, [r7, #16]
 80059a0:	605a      	str	r2, [r3, #4]
 80059a2:	693b      	ldr	r3, [r7, #16]
 80059a4:	685b      	ldr	r3, [r3, #4]
 80059a6:	68db      	ldr	r3, [r3, #12]
 80059a8:	4a07      	ldr	r2, [pc, #28]	; (80059c8 <vTaskSwitchContext+0xb0>)
 80059aa:	6013      	str	r3, [r2, #0]
}
 80059ac:	bf00      	nop
 80059ae:	371c      	adds	r7, #28
 80059b0:	46bd      	mov	sp, r7
 80059b2:	bc80      	pop	{r7}
 80059b4:	4770      	bx	lr
 80059b6:	bf00      	nop
 80059b8:	200003b0 	.word	0x200003b0
 80059bc:	2000039c 	.word	0x2000039c
 80059c0:	20000390 	.word	0x20000390
 80059c4:	2000028c 	.word	0x2000028c
 80059c8:	20000288 	.word	0x20000288

080059cc <prvIdleTask>:
 *
 * void prvIdleTask( void *pvParameters );
 *
 */
static portTASK_FUNCTION( prvIdleTask, pvParameters )
{
 80059cc:	b580      	push	{r7, lr}
 80059ce:	b082      	sub	sp, #8
 80059d0:	af00      	add	r7, sp, #0
 80059d2:	6078      	str	r0, [r7, #4]

	for( ;; )
	{
		/* See if any tasks have deleted themselves - if so then the idle task
		is responsible for freeing the deleted task's TCB and stack. */
		prvCheckTasksWaitingTermination();
 80059d4:	f000 f852 	bl	8005a7c <prvCheckTasksWaitingTermination>

			A critical region is not required here as we are just reading from
			the list, and an occasional incorrect value will not matter.  If
			the ready list at the idle priority contains more than one task
			then a task other than the idle task is ready to execute. */
			if( listCURRENT_LIST_LENGTH( &( pxReadyTasksLists[ tskIDLE_PRIORITY ] ) ) > ( UBaseType_t ) 1 )
 80059d8:	4b06      	ldr	r3, [pc, #24]	; (80059f4 <prvIdleTask+0x28>)
 80059da:	681b      	ldr	r3, [r3, #0]
 80059dc:	2b01      	cmp	r3, #1
 80059de:	d9f9      	bls.n	80059d4 <prvIdleTask+0x8>
			{
				taskYIELD();
 80059e0:	4b05      	ldr	r3, [pc, #20]	; (80059f8 <prvIdleTask+0x2c>)
 80059e2:	f04f 5280 	mov.w	r2, #268435456	; 0x10000000
 80059e6:	601a      	str	r2, [r3, #0]
 80059e8:	f3bf 8f4f 	dsb	sy
 80059ec:	f3bf 8f6f 	isb	sy
		prvCheckTasksWaitingTermination();
 80059f0:	e7f0      	b.n	80059d4 <prvIdleTask+0x8>
 80059f2:	bf00      	nop
 80059f4:	2000028c 	.word	0x2000028c
 80059f8:	e000ed04 	.word	0xe000ed04

080059fc <prvInitialiseTaskLists>:

#endif /* portUSING_MPU_WRAPPERS */
/*-----------------------------------------------------------*/

static void prvInitialiseTaskLists( void )
{
 80059fc:	b580      	push	{r7, lr}
 80059fe:	b082      	sub	sp, #8
 8005a00:	af00      	add	r7, sp, #0
UBaseType_t uxPriority;

	for( uxPriority = ( UBaseType_t ) 0U; uxPriority < ( UBaseType_t ) configMAX_PRIORITIES; uxPriority++ )
 8005a02:	2300      	movs	r3, #0
 8005a04:	607b      	str	r3, [r7, #4]
 8005a06:	e00c      	b.n	8005a22 <prvInitialiseTaskLists+0x26>
	{
		vListInitialise( &( pxReadyTasksLists[ uxPriority ] ) );
 8005a08:	687a      	ldr	r2, [r7, #4]
 8005a0a:	4613      	mov	r3, r2
 8005a0c:	009b      	lsls	r3, r3, #2
 8005a0e:	4413      	add	r3, r2
 8005a10:	009b      	lsls	r3, r3, #2
 8005a12:	4a12      	ldr	r2, [pc, #72]	; (8005a5c <prvInitialiseTaskLists+0x60>)
 8005a14:	4413      	add	r3, r2
 8005a16:	4618      	mov	r0, r3
 8005a18:	f7ff fa14 	bl	8004e44 <vListInitialise>
	for( uxPriority = ( UBaseType_t ) 0U; uxPriority < ( UBaseType_t ) configMAX_PRIORITIES; uxPriority++ )
 8005a1c:	687b      	ldr	r3, [r7, #4]
 8005a1e:	3301      	adds	r3, #1
 8005a20:	607b      	str	r3, [r7, #4]
 8005a22:	687b      	ldr	r3, [r7, #4]
 8005a24:	2b06      	cmp	r3, #6
 8005a26:	d9ef      	bls.n	8005a08 <prvInitialiseTaskLists+0xc>
	}

	vListInitialise( &xDelayedTaskList1 );
 8005a28:	480d      	ldr	r0, [pc, #52]	; (8005a60 <prvInitialiseTaskLists+0x64>)
 8005a2a:	f7ff fa0b 	bl	8004e44 <vListInitialise>
	vListInitialise( &xDelayedTaskList2 );
 8005a2e:	480d      	ldr	r0, [pc, #52]	; (8005a64 <prvInitialiseTaskLists+0x68>)
 8005a30:	f7ff fa08 	bl	8004e44 <vListInitialise>
	vListInitialise( &xPendingReadyList );
 8005a34:	480c      	ldr	r0, [pc, #48]	; (8005a68 <prvInitialiseTaskLists+0x6c>)
 8005a36:	f7ff fa05 	bl	8004e44 <vListInitialise>

	#if ( INCLUDE_vTaskDelete == 1 )
	{
		vListInitialise( &xTasksWaitingTermination );
 8005a3a:	480c      	ldr	r0, [pc, #48]	; (8005a6c <prvInitialiseTaskLists+0x70>)
 8005a3c:	f7ff fa02 	bl	8004e44 <vListInitialise>
	}
	#endif /* INCLUDE_vTaskDelete */

	#if ( INCLUDE_vTaskSuspend == 1 )
	{
		vListInitialise( &xSuspendedTaskList );
 8005a40:	480b      	ldr	r0, [pc, #44]	; (8005a70 <prvInitialiseTaskLists+0x74>)
 8005a42:	f7ff f9ff 	bl	8004e44 <vListInitialise>
	}
	#endif /* INCLUDE_vTaskSuspend */

	/* Start with pxDelayedTaskList using list1 and the pxOverflowDelayedTaskList
	using list2. */
	pxDelayedTaskList = &xDelayedTaskList1;
 8005a46:	4b0b      	ldr	r3, [pc, #44]	; (8005a74 <prvInitialiseTaskLists+0x78>)
 8005a48:	4a05      	ldr	r2, [pc, #20]	; (8005a60 <prvInitialiseTaskLists+0x64>)
 8005a4a:	601a      	str	r2, [r3, #0]
	pxOverflowDelayedTaskList = &xDelayedTaskList2;
 8005a4c:	4b0a      	ldr	r3, [pc, #40]	; (8005a78 <prvInitialiseTaskLists+0x7c>)
 8005a4e:	4a05      	ldr	r2, [pc, #20]	; (8005a64 <prvInitialiseTaskLists+0x68>)
 8005a50:	601a      	str	r2, [r3, #0]
}
 8005a52:	bf00      	nop
 8005a54:	3708      	adds	r7, #8
 8005a56:	46bd      	mov	sp, r7
 8005a58:	bd80      	pop	{r7, pc}
 8005a5a:	bf00      	nop
 8005a5c:	2000028c 	.word	0x2000028c
 8005a60:	20000318 	.word	0x20000318
 8005a64:	2000032c 	.word	0x2000032c
 8005a68:	20000348 	.word	0x20000348
 8005a6c:	2000035c 	.word	0x2000035c
 8005a70:	20000374 	.word	0x20000374
 8005a74:	20000340 	.word	0x20000340
 8005a78:	20000344 	.word	0x20000344

08005a7c <prvCheckTasksWaitingTermination>:
/*-----------------------------------------------------------*/

static void prvCheckTasksWaitingTermination( void )
{
 8005a7c:	b580      	push	{r7, lr}
 8005a7e:	b082      	sub	sp, #8
 8005a80:	af00      	add	r7, sp, #0
	{
		TCB_t *pxTCB;

		/* uxDeletedTasksWaitingCleanUp is used to prevent vTaskSuspendAll()
		being called too often in the idle task. */
		while( uxDeletedTasksWaitingCleanUp > ( UBaseType_t ) 0U )
 8005a82:	e019      	b.n	8005ab8 <prvCheckTasksWaitingTermination+0x3c>
		{
			taskENTER_CRITICAL();
 8005a84:	f000 f9c8 	bl	8005e18 <vPortEnterCritical>
			{
				pxTCB = ( TCB_t * ) listGET_OWNER_OF_HEAD_ENTRY( ( &xTasksWaitingTermination ) );
 8005a88:	4b0f      	ldr	r3, [pc, #60]	; (8005ac8 <prvCheckTasksWaitingTermination+0x4c>)
 8005a8a:	68db      	ldr	r3, [r3, #12]
 8005a8c:	68db      	ldr	r3, [r3, #12]
 8005a8e:	607b      	str	r3, [r7, #4]
				( void ) uxListRemove( &( pxTCB->xStateListItem ) );
 8005a90:	687b      	ldr	r3, [r7, #4]
 8005a92:	3304      	adds	r3, #4
 8005a94:	4618      	mov	r0, r3
 8005a96:	f7ff fa5b 	bl	8004f50 <uxListRemove>
				--uxCurrentNumberOfTasks;
 8005a9a:	4b0c      	ldr	r3, [pc, #48]	; (8005acc <prvCheckTasksWaitingTermination+0x50>)
 8005a9c:	681b      	ldr	r3, [r3, #0]
 8005a9e:	3b01      	subs	r3, #1
 8005aa0:	4a0a      	ldr	r2, [pc, #40]	; (8005acc <prvCheckTasksWaitingTermination+0x50>)
 8005aa2:	6013      	str	r3, [r2, #0]
				--uxDeletedTasksWaitingCleanUp;
 8005aa4:	4b0a      	ldr	r3, [pc, #40]	; (8005ad0 <prvCheckTasksWaitingTermination+0x54>)
 8005aa6:	681b      	ldr	r3, [r3, #0]
 8005aa8:	3b01      	subs	r3, #1
 8005aaa:	4a09      	ldr	r2, [pc, #36]	; (8005ad0 <prvCheckTasksWaitingTermination+0x54>)
 8005aac:	6013      	str	r3, [r2, #0]
			}
			taskEXIT_CRITICAL();
 8005aae:	f000 f9e1 	bl	8005e74 <vPortExitCritical>

			prvDeleteTCB( pxTCB );
 8005ab2:	6878      	ldr	r0, [r7, #4]
 8005ab4:	f000 f80e 	bl	8005ad4 <prvDeleteTCB>
		while( uxDeletedTasksWaitingCleanUp > ( UBaseType_t ) 0U )
 8005ab8:	4b05      	ldr	r3, [pc, #20]	; (8005ad0 <prvCheckTasksWaitingTermination+0x54>)
 8005aba:	681b      	ldr	r3, [r3, #0]
 8005abc:	2b00      	cmp	r3, #0
 8005abe:	d1e1      	bne.n	8005a84 <prvCheckTasksWaitingTermination+0x8>
		}
	}
	#endif /* INCLUDE_vTaskDelete */
}
 8005ac0:	bf00      	nop
 8005ac2:	3708      	adds	r7, #8
 8005ac4:	46bd      	mov	sp, r7
 8005ac6:	bd80      	pop	{r7, pc}
 8005ac8:	2000035c 	.word	0x2000035c
 8005acc:	20000388 	.word	0x20000388
 8005ad0:	20000370 	.word	0x20000370

08005ad4 <prvDeleteTCB>:
/*-----------------------------------------------------------*/

#if ( INCLUDE_vTaskDelete == 1 )

	static void prvDeleteTCB( TCB_t *pxTCB )
	{
 8005ad4:	b580      	push	{r7, lr}
 8005ad6:	b084      	sub	sp, #16
 8005ad8:	af00      	add	r7, sp, #0
 8005ada:	6078      	str	r0, [r7, #4]
		#elif( tskSTATIC_AND_DYNAMIC_ALLOCATION_POSSIBLE != 0 ) /*lint !e731 Macro has been consolidated for readability reasons. */
		{
			/* The task could have been allocated statically or dynamically, so
			check what was statically allocated before trying to free the
			memory. */
			if( pxTCB->ucStaticallyAllocated == tskDYNAMICALLY_ALLOCATED_STACK_AND_TCB )
 8005adc:	687b      	ldr	r3, [r7, #4]
 8005ade:	f893 3051 	ldrb.w	r3, [r3, #81]	; 0x51
 8005ae2:	2b00      	cmp	r3, #0
 8005ae4:	d108      	bne.n	8005af8 <prvDeleteTCB+0x24>
			{
				/* Both the stack and TCB were allocated dynamically, so both
				must be freed. */
				vPortFree( pxTCB->pxStack );
 8005ae6:	687b      	ldr	r3, [r7, #4]
 8005ae8:	6b1b      	ldr	r3, [r3, #48]	; 0x30
 8005aea:	4618      	mov	r0, r3
 8005aec:	f000 fb4c 	bl	8006188 <vPortFree>
				vPortFree( pxTCB );
 8005af0:	6878      	ldr	r0, [r7, #4]
 8005af2:	f000 fb49 	bl	8006188 <vPortFree>
				configASSERT( pxTCB->ucStaticallyAllocated == tskSTATICALLY_ALLOCATED_STACK_AND_TCB	);
				mtCOVERAGE_TEST_MARKER();
			}
		}
		#endif /* configSUPPORT_DYNAMIC_ALLOCATION */
	}
 8005af6:	e017      	b.n	8005b28 <prvDeleteTCB+0x54>
			else if( pxTCB->ucStaticallyAllocated == tskSTATICALLY_ALLOCATED_STACK_ONLY )
 8005af8:	687b      	ldr	r3, [r7, #4]
 8005afa:	f893 3051 	ldrb.w	r3, [r3, #81]	; 0x51
 8005afe:	2b01      	cmp	r3, #1
 8005b00:	d103      	bne.n	8005b0a <prvDeleteTCB+0x36>
				vPortFree( pxTCB );
 8005b02:	6878      	ldr	r0, [r7, #4]
 8005b04:	f000 fb40 	bl	8006188 <vPortFree>
	}
 8005b08:	e00e      	b.n	8005b28 <prvDeleteTCB+0x54>
				configASSERT( pxTCB->ucStaticallyAllocated == tskSTATICALLY_ALLOCATED_STACK_AND_TCB	);
 8005b0a:	687b      	ldr	r3, [r7, #4]
 8005b0c:	f893 3051 	ldrb.w	r3, [r3, #81]	; 0x51
 8005b10:	2b02      	cmp	r3, #2
 8005b12:	d009      	beq.n	8005b28 <prvDeleteTCB+0x54>
 8005b14:	f04f 0350 	mov.w	r3, #80	; 0x50
 8005b18:	f383 8811 	msr	BASEPRI, r3
 8005b1c:	f3bf 8f6f 	isb	sy
 8005b20:	f3bf 8f4f 	dsb	sy
 8005b24:	60fb      	str	r3, [r7, #12]
 8005b26:	e7fe      	b.n	8005b26 <prvDeleteTCB+0x52>
	}
 8005b28:	bf00      	nop
 8005b2a:	3710      	adds	r7, #16
 8005b2c:	46bd      	mov	sp, r7
 8005b2e:	bd80      	pop	{r7, pc}

08005b30 <prvResetNextTaskUnblockTime>:

#endif /* INCLUDE_vTaskDelete */
/*-----------------------------------------------------------*/

static void prvResetNextTaskUnblockTime( void )
{
 8005b30:	b480      	push	{r7}
 8005b32:	b083      	sub	sp, #12
 8005b34:	af00      	add	r7, sp, #0
TCB_t *pxTCB;

	if( listLIST_IS_EMPTY( pxDelayedTaskList ) != pdFALSE )
 8005b36:	4b0e      	ldr	r3, [pc, #56]	; (8005b70 <prvResetNextTaskUnblockTime+0x40>)
 8005b38:	681b      	ldr	r3, [r3, #0]
 8005b3a:	681b      	ldr	r3, [r3, #0]
 8005b3c:	2b00      	cmp	r3, #0
 8005b3e:	d101      	bne.n	8005b44 <prvResetNextTaskUnblockTime+0x14>
 8005b40:	2301      	movs	r3, #1
 8005b42:	e000      	b.n	8005b46 <prvResetNextTaskUnblockTime+0x16>
 8005b44:	2300      	movs	r3, #0
 8005b46:	2b00      	cmp	r3, #0
 8005b48:	d004      	beq.n	8005b54 <prvResetNextTaskUnblockTime+0x24>
	{
		/* The new current delayed list is empty.  Set xNextTaskUnblockTime to
		the maximum possible value so it is	extremely unlikely that the
		if( xTickCount >= xNextTaskUnblockTime ) test will pass until
		there is an item in the delayed list. */
		xNextTaskUnblockTime = portMAX_DELAY;
 8005b4a:	4b0a      	ldr	r3, [pc, #40]	; (8005b74 <prvResetNextTaskUnblockTime+0x44>)
 8005b4c:	f04f 32ff 	mov.w	r2, #4294967295
 8005b50:	601a      	str	r2, [r3, #0]
		which the task at the head of the delayed list should be removed
		from the Blocked state. */
		( pxTCB ) = ( TCB_t * ) listGET_OWNER_OF_HEAD_ENTRY( pxDelayedTaskList );
		xNextTaskUnblockTime = listGET_LIST_ITEM_VALUE( &( ( pxTCB )->xStateListItem ) );
	}
}
 8005b52:	e008      	b.n	8005b66 <prvResetNextTaskUnblockTime+0x36>
		( pxTCB ) = ( TCB_t * ) listGET_OWNER_OF_HEAD_ENTRY( pxDelayedTaskList );
 8005b54:	4b06      	ldr	r3, [pc, #24]	; (8005b70 <prvResetNextTaskUnblockTime+0x40>)
 8005b56:	681b      	ldr	r3, [r3, #0]
 8005b58:	68db      	ldr	r3, [r3, #12]
 8005b5a:	68db      	ldr	r3, [r3, #12]
 8005b5c:	607b      	str	r3, [r7, #4]
		xNextTaskUnblockTime = listGET_LIST_ITEM_VALUE( &( ( pxTCB )->xStateListItem ) );
 8005b5e:	687b      	ldr	r3, [r7, #4]
 8005b60:	685b      	ldr	r3, [r3, #4]
 8005b62:	4a04      	ldr	r2, [pc, #16]	; (8005b74 <prvResetNextTaskUnblockTime+0x44>)
 8005b64:	6013      	str	r3, [r2, #0]
}
 8005b66:	bf00      	nop
 8005b68:	370c      	adds	r7, #12
 8005b6a:	46bd      	mov	sp, r7
 8005b6c:	bc80      	pop	{r7}
 8005b6e:	4770      	bx	lr
 8005b70:	20000340 	.word	0x20000340
 8005b74:	200003a8 	.word	0x200003a8

08005b78 <prvAddCurrentTaskToDelayedList>:
#endif /* configUSE_TASK_NOTIFICATIONS */
/*-----------------------------------------------------------*/


static void prvAddCurrentTaskToDelayedList( TickType_t xTicksToWait, const BaseType_t xCanBlockIndefinitely )
{
 8005b78:	b580      	push	{r7, lr}
 8005b7a:	b084      	sub	sp, #16
 8005b7c:	af00      	add	r7, sp, #0
 8005b7e:	6078      	str	r0, [r7, #4]
 8005b80:	6039      	str	r1, [r7, #0]
TickType_t xTimeToWake;
const TickType_t xConstTickCount = xTickCount;
 8005b82:	4b29      	ldr	r3, [pc, #164]	; (8005c28 <prvAddCurrentTaskToDelayedList+0xb0>)
 8005b84:	681b      	ldr	r3, [r3, #0]
 8005b86:	60fb      	str	r3, [r7, #12]
	}
	#endif

	/* Remove the task from the ready list before adding it to the blocked list
	as the same list item is used for both lists. */
	if( uxListRemove( &( pxCurrentTCB->xStateListItem ) ) == ( UBaseType_t ) 0 )
 8005b88:	4b28      	ldr	r3, [pc, #160]	; (8005c2c <prvAddCurrentTaskToDelayedList+0xb4>)
 8005b8a:	681b      	ldr	r3, [r3, #0]
 8005b8c:	3304      	adds	r3, #4
 8005b8e:	4618      	mov	r0, r3
 8005b90:	f7ff f9de 	bl	8004f50 <uxListRemove>
 8005b94:	4603      	mov	r3, r0
 8005b96:	2b00      	cmp	r3, #0
 8005b98:	d10b      	bne.n	8005bb2 <prvAddCurrentTaskToDelayedList+0x3a>
	{
		/* The current task must be in a ready list, so there is no need to
		check, and the port reset macro can be called directly. */
		portRESET_READY_PRIORITY( pxCurrentTCB->uxPriority, uxTopReadyPriority );
 8005b9a:	4b24      	ldr	r3, [pc, #144]	; (8005c2c <prvAddCurrentTaskToDelayedList+0xb4>)
 8005b9c:	681b      	ldr	r3, [r3, #0]
 8005b9e:	6adb      	ldr	r3, [r3, #44]	; 0x2c
 8005ba0:	2201      	movs	r2, #1
 8005ba2:	fa02 f303 	lsl.w	r3, r2, r3
 8005ba6:	43da      	mvns	r2, r3
 8005ba8:	4b21      	ldr	r3, [pc, #132]	; (8005c30 <prvAddCurrentTaskToDelayedList+0xb8>)
 8005baa:	681b      	ldr	r3, [r3, #0]
 8005bac:	4013      	ands	r3, r2
 8005bae:	4a20      	ldr	r2, [pc, #128]	; (8005c30 <prvAddCurrentTaskToDelayedList+0xb8>)
 8005bb0:	6013      	str	r3, [r2, #0]
		mtCOVERAGE_TEST_MARKER();
	}

	#if ( INCLUDE_vTaskSuspend == 1 )
	{
		if( ( xTicksToWait == portMAX_DELAY ) && ( xCanBlockIndefinitely != pdFALSE ) )
 8005bb2:	687b      	ldr	r3, [r7, #4]
 8005bb4:	f1b3 3fff 	cmp.w	r3, #4294967295
 8005bb8:	d10a      	bne.n	8005bd0 <prvAddCurrentTaskToDelayedList+0x58>
 8005bba:	683b      	ldr	r3, [r7, #0]
 8005bbc:	2b00      	cmp	r3, #0
 8005bbe:	d007      	beq.n	8005bd0 <prvAddCurrentTaskToDelayedList+0x58>
		{
			/* Add the task to the suspended task list instead of a delayed task
			list to ensure it is not woken by a timing event.  It will block
			indefinitely. */
			vListInsertEnd( &xSuspendedTaskList, &( pxCurrentTCB->xStateListItem ) );
 8005bc0:	4b1a      	ldr	r3, [pc, #104]	; (8005c2c <prvAddCurrentTaskToDelayedList+0xb4>)
 8005bc2:	681b      	ldr	r3, [r3, #0]
 8005bc4:	3304      	adds	r3, #4
 8005bc6:	4619      	mov	r1, r3
 8005bc8:	481a      	ldr	r0, [pc, #104]	; (8005c34 <prvAddCurrentTaskToDelayedList+0xbc>)
 8005bca:	f7ff f966 	bl	8004e9a <vListInsertEnd>

		/* Avoid compiler warning when INCLUDE_vTaskSuspend is not 1. */
		( void ) xCanBlockIndefinitely;
	}
	#endif /* INCLUDE_vTaskSuspend */
}
 8005bce:	e026      	b.n	8005c1e <prvAddCurrentTaskToDelayedList+0xa6>
			xTimeToWake = xConstTickCount + xTicksToWait;
 8005bd0:	68fa      	ldr	r2, [r7, #12]
 8005bd2:	687b      	ldr	r3, [r7, #4]
 8005bd4:	4413      	add	r3, r2
 8005bd6:	60bb      	str	r3, [r7, #8]
			listSET_LIST_ITEM_VALUE( &( pxCurrentTCB->xStateListItem ), xTimeToWake );
 8005bd8:	4b14      	ldr	r3, [pc, #80]	; (8005c2c <prvAddCurrentTaskToDelayedList+0xb4>)
 8005bda:	681b      	ldr	r3, [r3, #0]
 8005bdc:	68ba      	ldr	r2, [r7, #8]
 8005bde:	605a      	str	r2, [r3, #4]
			if( xTimeToWake < xConstTickCount )
 8005be0:	68ba      	ldr	r2, [r7, #8]
 8005be2:	68fb      	ldr	r3, [r7, #12]
 8005be4:	429a      	cmp	r2, r3
 8005be6:	d209      	bcs.n	8005bfc <prvAddCurrentTaskToDelayedList+0x84>
				vListInsert( pxOverflowDelayedTaskList, &( pxCurrentTCB->xStateListItem ) );
 8005be8:	4b13      	ldr	r3, [pc, #76]	; (8005c38 <prvAddCurrentTaskToDelayedList+0xc0>)
 8005bea:	681a      	ldr	r2, [r3, #0]
 8005bec:	4b0f      	ldr	r3, [pc, #60]	; (8005c2c <prvAddCurrentTaskToDelayedList+0xb4>)
 8005bee:	681b      	ldr	r3, [r3, #0]
 8005bf0:	3304      	adds	r3, #4
 8005bf2:	4619      	mov	r1, r3
 8005bf4:	4610      	mov	r0, r2
 8005bf6:	f7ff f973 	bl	8004ee0 <vListInsert>
}
 8005bfa:	e010      	b.n	8005c1e <prvAddCurrentTaskToDelayedList+0xa6>
				vListInsert( pxDelayedTaskList, &( pxCurrentTCB->xStateListItem ) );
 8005bfc:	4b0f      	ldr	r3, [pc, #60]	; (8005c3c <prvAddCurrentTaskToDelayedList+0xc4>)
 8005bfe:	681a      	ldr	r2, [r3, #0]
 8005c00:	4b0a      	ldr	r3, [pc, #40]	; (8005c2c <prvAddCurrentTaskToDelayedList+0xb4>)
 8005c02:	681b      	ldr	r3, [r3, #0]
 8005c04:	3304      	adds	r3, #4
 8005c06:	4619      	mov	r1, r3
 8005c08:	4610      	mov	r0, r2
 8005c0a:	f7ff f969 	bl	8004ee0 <vListInsert>
				if( xTimeToWake < xNextTaskUnblockTime )
 8005c0e:	4b0c      	ldr	r3, [pc, #48]	; (8005c40 <prvAddCurrentTaskToDelayedList+0xc8>)
 8005c10:	681b      	ldr	r3, [r3, #0]
 8005c12:	68ba      	ldr	r2, [r7, #8]
 8005c14:	429a      	cmp	r2, r3
 8005c16:	d202      	bcs.n	8005c1e <prvAddCurrentTaskToDelayedList+0xa6>
					xNextTaskUnblockTime = xTimeToWake;
 8005c18:	4a09      	ldr	r2, [pc, #36]	; (8005c40 <prvAddCurrentTaskToDelayedList+0xc8>)
 8005c1a:	68bb      	ldr	r3, [r7, #8]
 8005c1c:	6013      	str	r3, [r2, #0]
}
 8005c1e:	bf00      	nop
 8005c20:	3710      	adds	r7, #16
 8005c22:	46bd      	mov	sp, r7
 8005c24:	bd80      	pop	{r7, pc}
 8005c26:	bf00      	nop
 8005c28:	2000038c 	.word	0x2000038c
 8005c2c:	20000288 	.word	0x20000288
 8005c30:	20000390 	.word	0x20000390
 8005c34:	20000374 	.word	0x20000374
 8005c38:	20000344 	.word	0x20000344
 8005c3c:	20000340 	.word	0x20000340
 8005c40:	200003a8 	.word	0x200003a8

08005c44 <pxPortInitialiseStack>:

/*
 * See header file for description.
 */
StackType_t *pxPortInitialiseStack( StackType_t *pxTopOfStack, TaskFunction_t pxCode, void *pvParameters )
{
 8005c44:	b480      	push	{r7}
 8005c46:	b085      	sub	sp, #20
 8005c48:	af00      	add	r7, sp, #0
 8005c4a:	60f8      	str	r0, [r7, #12]
 8005c4c:	60b9      	str	r1, [r7, #8]
 8005c4e:	607a      	str	r2, [r7, #4]
	/* Simulate the stack frame as it would be created by a context switch
	interrupt. */
	pxTopOfStack--; /* Offset added to account for the way the MCU uses the stack on entry/exit of interrupts. */
 8005c50:	68fb      	ldr	r3, [r7, #12]
 8005c52:	3b04      	subs	r3, #4
 8005c54:	60fb      	str	r3, [r7, #12]
	*pxTopOfStack = portINITIAL_XPSR;	/* xPSR */
 8005c56:	68fb      	ldr	r3, [r7, #12]
 8005c58:	f04f 7280 	mov.w	r2, #16777216	; 0x1000000
 8005c5c:	601a      	str	r2, [r3, #0]
	pxTopOfStack--;
 8005c5e:	68fb      	ldr	r3, [r7, #12]
 8005c60:	3b04      	subs	r3, #4
 8005c62:	60fb      	str	r3, [r7, #12]
	*pxTopOfStack = ( ( StackType_t ) pxCode ) & portSTART_ADDRESS_MASK;	/* PC */
 8005c64:	68bb      	ldr	r3, [r7, #8]
 8005c66:	f023 0201 	bic.w	r2, r3, #1
 8005c6a:	68fb      	ldr	r3, [r7, #12]
 8005c6c:	601a      	str	r2, [r3, #0]
	pxTopOfStack--;
 8005c6e:	68fb      	ldr	r3, [r7, #12]
 8005c70:	3b04      	subs	r3, #4
 8005c72:	60fb      	str	r3, [r7, #12]
	*pxTopOfStack = ( StackType_t ) portTASK_RETURN_ADDRESS;	/* LR */
 8005c74:	4a08      	ldr	r2, [pc, #32]	; (8005c98 <pxPortInitialiseStack+0x54>)
 8005c76:	68fb      	ldr	r3, [r7, #12]
 8005c78:	601a      	str	r2, [r3, #0]
	pxTopOfStack -= 5;	/* R12, R3, R2 and R1. */
 8005c7a:	68fb      	ldr	r3, [r7, #12]
 8005c7c:	3b14      	subs	r3, #20
 8005c7e:	60fb      	str	r3, [r7, #12]
	*pxTopOfStack = ( StackType_t ) pvParameters;	/* R0 */
 8005c80:	687a      	ldr	r2, [r7, #4]
 8005c82:	68fb      	ldr	r3, [r7, #12]
 8005c84:	601a      	str	r2, [r3, #0]
	pxTopOfStack -= 8;	/* R11, R10, R9, R8, R7, R6, R5 and R4. */
 8005c86:	68fb      	ldr	r3, [r7, #12]
 8005c88:	3b20      	subs	r3, #32
 8005c8a:	60fb      	str	r3, [r7, #12]

	return pxTopOfStack;
 8005c8c:	68fb      	ldr	r3, [r7, #12]
}
 8005c8e:	4618      	mov	r0, r3
 8005c90:	3714      	adds	r7, #20
 8005c92:	46bd      	mov	sp, r7
 8005c94:	bc80      	pop	{r7}
 8005c96:	4770      	bx	lr
 8005c98:	08005c9d 	.word	0x08005c9d

08005c9c <prvTaskExitError>:
/*-----------------------------------------------------------*/

static void prvTaskExitError( void )
{
 8005c9c:	b480      	push	{r7}
 8005c9e:	b085      	sub	sp, #20
 8005ca0:	af00      	add	r7, sp, #0
volatile uint32_t ulDummy = 0UL;
 8005ca2:	2300      	movs	r3, #0
 8005ca4:	607b      	str	r3, [r7, #4]
	its caller as there is nothing to return to.  If a task wants to exit it
	should instead call vTaskDelete( NULL ).

	Artificially force an assert() to be triggered if configASSERT() is
	defined, then stop here so application writers can catch the error. */
	configASSERT( uxCriticalNesting == ~0UL );
 8005ca6:	4b10      	ldr	r3, [pc, #64]	; (8005ce8 <prvTaskExitError+0x4c>)
 8005ca8:	681b      	ldr	r3, [r3, #0]
 8005caa:	f1b3 3fff 	cmp.w	r3, #4294967295
 8005cae:	d009      	beq.n	8005cc4 <prvTaskExitError+0x28>
 8005cb0:	f04f 0350 	mov.w	r3, #80	; 0x50
 8005cb4:	f383 8811 	msr	BASEPRI, r3
 8005cb8:	f3bf 8f6f 	isb	sy
 8005cbc:	f3bf 8f4f 	dsb	sy
 8005cc0:	60fb      	str	r3, [r7, #12]
 8005cc2:	e7fe      	b.n	8005cc2 <prvTaskExitError+0x26>
 8005cc4:	f04f 0350 	mov.w	r3, #80	; 0x50
 8005cc8:	f383 8811 	msr	BASEPRI, r3
 8005ccc:	f3bf 8f6f 	isb	sy
 8005cd0:	f3bf 8f4f 	dsb	sy
 8005cd4:	60bb      	str	r3, [r7, #8]
	portDISABLE_INTERRUPTS();
	while( ulDummy == 0 )
 8005cd6:	bf00      	nop
 8005cd8:	687b      	ldr	r3, [r7, #4]
 8005cda:	2b00      	cmp	r3, #0
 8005cdc:	d0fc      	beq.n	8005cd8 <prvTaskExitError+0x3c>
		about code appearing after this function is called - making ulDummy
		volatile makes the compiler think the function could return and
		therefore not output an 'unreachable code' warning for code that appears
		after it. */
	}
}
 8005cde:	bf00      	nop
 8005ce0:	3714      	adds	r7, #20
 8005ce2:	46bd      	mov	sp, r7
 8005ce4:	bc80      	pop	{r7}
 8005ce6:	4770      	bx	lr
 8005ce8:	20000010 	.word	0x20000010
 8005cec:	00000000 	.word	0x00000000

08005cf0 <SVC_Handler>:
/*-----------------------------------------------------------*/

void vPortSVCHandler( void )
{
	__asm volatile (
 8005cf0:	4b07      	ldr	r3, [pc, #28]	; (8005d10 <pxCurrentTCBConst2>)
 8005cf2:	6819      	ldr	r1, [r3, #0]
 8005cf4:	6808      	ldr	r0, [r1, #0]
 8005cf6:	e8b0 0ff0 	ldmia.w	r0!, {r4, r5, r6, r7, r8, r9, sl, fp}
 8005cfa:	f380 8809 	msr	PSP, r0
 8005cfe:	f3bf 8f6f 	isb	sy
 8005d02:	f04f 0000 	mov.w	r0, #0
 8005d06:	f380 8811 	msr	BASEPRI, r0
 8005d0a:	f04e 0e0d 	orr.w	lr, lr, #13
 8005d0e:	4770      	bx	lr

08005d10 <pxCurrentTCBConst2>:
 8005d10:	20000288 	.word	0x20000288
					"	bx r14							\n"
					"									\n"
					"	.align 4						\n"
					"pxCurrentTCBConst2: .word pxCurrentTCB				\n"
				);
}
 8005d14:	bf00      	nop
 8005d16:	bf00      	nop

08005d18 <prvPortStartFirstTask>:
/*-----------------------------------------------------------*/

static void prvPortStartFirstTask( void )
{
	__asm volatile(
 8005d18:	4806      	ldr	r0, [pc, #24]	; (8005d34 <prvPortStartFirstTask+0x1c>)
 8005d1a:	6800      	ldr	r0, [r0, #0]
 8005d1c:	6800      	ldr	r0, [r0, #0]
 8005d1e:	f380 8808 	msr	MSP, r0
 8005d22:	b662      	cpsie	i
 8005d24:	b661      	cpsie	f
 8005d26:	f3bf 8f4f 	dsb	sy
 8005d2a:	f3bf 8f6f 	isb	sy
 8005d2e:	df00      	svc	0
 8005d30:	bf00      	nop
					" dsb					\n"
					" isb					\n"
					" svc 0					\n" /* System call to start first task. */
					" nop					\n"
				);
}
 8005d32:	bf00      	nop
 8005d34:	e000ed08 	.word	0xe000ed08

08005d38 <xPortStartScheduler>:

/*
 * See header file for description.
 */
BaseType_t xPortStartScheduler( void )
{
 8005d38:	b580      	push	{r7, lr}
 8005d3a:	b084      	sub	sp, #16
 8005d3c:	af00      	add	r7, sp, #0
	configASSERT( configMAX_SYSCALL_INTERRUPT_PRIORITY );

	#if( configASSERT_DEFINED == 1 )
	{
		volatile uint32_t ulOriginalPriority;
		volatile uint8_t * const pucFirstUserPriorityRegister = ( volatile uint8_t * const ) ( portNVIC_IP_REGISTERS_OFFSET_16 + portFIRST_USER_INTERRUPT_NUMBER );
 8005d3e:	4b31      	ldr	r3, [pc, #196]	; (8005e04 <xPortStartScheduler+0xcc>)
 8005d40:	60fb      	str	r3, [r7, #12]
		functions can be called.  ISR safe functions are those that end in
		"FromISR".  FreeRTOS maintains separate thread and ISR API functions to
		ensure interrupt entry is as fast and simple as possible.

		Save the interrupt priority value that is about to be clobbered. */
		ulOriginalPriority = *pucFirstUserPriorityRegister;
 8005d42:	68fb      	ldr	r3, [r7, #12]
 8005d44:	781b      	ldrb	r3, [r3, #0]
 8005d46:	b2db      	uxtb	r3, r3
 8005d48:	607b      	str	r3, [r7, #4]

		/* Determine the number of priority bits available.  First write to all
		possible bits. */
		*pucFirstUserPriorityRegister = portMAX_8_BIT_VALUE;
 8005d4a:	68fb      	ldr	r3, [r7, #12]
 8005d4c:	22ff      	movs	r2, #255	; 0xff
 8005d4e:	701a      	strb	r2, [r3, #0]

		/* Read the value back to see how many bits stuck. */
		ucMaxPriorityValue = *pucFirstUserPriorityRegister;
 8005d50:	68fb      	ldr	r3, [r7, #12]
 8005d52:	781b      	ldrb	r3, [r3, #0]
 8005d54:	b2db      	uxtb	r3, r3
 8005d56:	70fb      	strb	r3, [r7, #3]

		/* Use the same mask on the maximum system call priority. */
		ucMaxSysCallPriority = configMAX_SYSCALL_INTERRUPT_PRIORITY & ucMaxPriorityValue;
 8005d58:	78fb      	ldrb	r3, [r7, #3]
 8005d5a:	b2db      	uxtb	r3, r3
 8005d5c:	f003 0350 	and.w	r3, r3, #80	; 0x50
 8005d60:	b2da      	uxtb	r2, r3
 8005d62:	4b29      	ldr	r3, [pc, #164]	; (8005e08 <xPortStartScheduler+0xd0>)
 8005d64:	701a      	strb	r2, [r3, #0]

		/* Calculate the maximum acceptable priority group value for the number
		of bits read back. */
		ulMaxPRIGROUPValue = portMAX_PRIGROUP_BITS;
 8005d66:	4b29      	ldr	r3, [pc, #164]	; (8005e0c <xPortStartScheduler+0xd4>)
 8005d68:	2207      	movs	r2, #7
 8005d6a:	601a      	str	r2, [r3, #0]
		while( ( ucMaxPriorityValue & portTOP_BIT_OF_BYTE ) == portTOP_BIT_OF_BYTE )
 8005d6c:	e009      	b.n	8005d82 <xPortStartScheduler+0x4a>
		{
			ulMaxPRIGROUPValue--;
 8005d6e:	4b27      	ldr	r3, [pc, #156]	; (8005e0c <xPortStartScheduler+0xd4>)
 8005d70:	681b      	ldr	r3, [r3, #0]
 8005d72:	3b01      	subs	r3, #1
 8005d74:	4a25      	ldr	r2, [pc, #148]	; (8005e0c <xPortStartScheduler+0xd4>)
 8005d76:	6013      	str	r3, [r2, #0]
			ucMaxPriorityValue <<= ( uint8_t ) 0x01;
 8005d78:	78fb      	ldrb	r3, [r7, #3]
 8005d7a:	b2db      	uxtb	r3, r3
 8005d7c:	005b      	lsls	r3, r3, #1
 8005d7e:	b2db      	uxtb	r3, r3
 8005d80:	70fb      	strb	r3, [r7, #3]
		while( ( ucMaxPriorityValue & portTOP_BIT_OF_BYTE ) == portTOP_BIT_OF_BYTE )
 8005d82:	78fb      	ldrb	r3, [r7, #3]
 8005d84:	b2db      	uxtb	r3, r3
 8005d86:	f003 0380 	and.w	r3, r3, #128	; 0x80
 8005d8a:	2b80      	cmp	r3, #128	; 0x80
 8005d8c:	d0ef      	beq.n	8005d6e <xPortStartScheduler+0x36>
		#ifdef configPRIO_BITS
		{
			/* Check the FreeRTOS configuration that defines the number of
			priority bits matches the number of priority bits actually queried
			from the hardware. */
			configASSERT( ( portMAX_PRIGROUP_BITS - ulMaxPRIGROUPValue ) == configPRIO_BITS );
 8005d8e:	4b1f      	ldr	r3, [pc, #124]	; (8005e0c <xPortStartScheduler+0xd4>)
 8005d90:	681b      	ldr	r3, [r3, #0]
 8005d92:	f1c3 0307 	rsb	r3, r3, #7
 8005d96:	2b04      	cmp	r3, #4
 8005d98:	d009      	beq.n	8005dae <xPortStartScheduler+0x76>
 8005d9a:	f04f 0350 	mov.w	r3, #80	; 0x50
 8005d9e:	f383 8811 	msr	BASEPRI, r3
 8005da2:	f3bf 8f6f 	isb	sy
 8005da6:	f3bf 8f4f 	dsb	sy
 8005daa:	60bb      	str	r3, [r7, #8]
 8005dac:	e7fe      	b.n	8005dac <xPortStartScheduler+0x74>
		}
		#endif

		/* Shift the priority group value back to its position within the AIRCR
		register. */
		ulMaxPRIGROUPValue <<= portPRIGROUP_SHIFT;
 8005dae:	4b17      	ldr	r3, [pc, #92]	; (8005e0c <xPortStartScheduler+0xd4>)
 8005db0:	681b      	ldr	r3, [r3, #0]
 8005db2:	021b      	lsls	r3, r3, #8
 8005db4:	4a15      	ldr	r2, [pc, #84]	; (8005e0c <xPortStartScheduler+0xd4>)
 8005db6:	6013      	str	r3, [r2, #0]
		ulMaxPRIGROUPValue &= portPRIORITY_GROUP_MASK;
 8005db8:	4b14      	ldr	r3, [pc, #80]	; (8005e0c <xPortStartScheduler+0xd4>)
 8005dba:	681b      	ldr	r3, [r3, #0]
 8005dbc:	f403 63e0 	and.w	r3, r3, #1792	; 0x700
 8005dc0:	4a12      	ldr	r2, [pc, #72]	; (8005e0c <xPortStartScheduler+0xd4>)
 8005dc2:	6013      	str	r3, [r2, #0]

		/* Restore the clobbered interrupt priority register to its original
		value. */
		*pucFirstUserPriorityRegister = ulOriginalPriority;
 8005dc4:	687b      	ldr	r3, [r7, #4]
 8005dc6:	b2da      	uxtb	r2, r3
 8005dc8:	68fb      	ldr	r3, [r7, #12]
 8005dca:	701a      	strb	r2, [r3, #0]
	}
	#endif /* conifgASSERT_DEFINED */

	/* Make PendSV and SysTick the lowest priority interrupts. */
	portNVIC_SYSPRI2_REG |= portNVIC_PENDSV_PRI;
 8005dcc:	4b10      	ldr	r3, [pc, #64]	; (8005e10 <xPortStartScheduler+0xd8>)
 8005dce:	681b      	ldr	r3, [r3, #0]
 8005dd0:	4a0f      	ldr	r2, [pc, #60]	; (8005e10 <xPortStartScheduler+0xd8>)
 8005dd2:	f443 0370 	orr.w	r3, r3, #15728640	; 0xf00000
 8005dd6:	6013      	str	r3, [r2, #0]
	portNVIC_SYSPRI2_REG |= portNVIC_SYSTICK_PRI;
 8005dd8:	4b0d      	ldr	r3, [pc, #52]	; (8005e10 <xPortStartScheduler+0xd8>)
 8005dda:	681b      	ldr	r3, [r3, #0]
 8005ddc:	4a0c      	ldr	r2, [pc, #48]	; (8005e10 <xPortStartScheduler+0xd8>)
 8005dde:	f043 4370 	orr.w	r3, r3, #4026531840	; 0xf0000000
 8005de2:	6013      	str	r3, [r2, #0]

	/* Start the timer that generates the tick ISR.  Interrupts are disabled
	here already. */
	vPortSetupTimerInterrupt();
 8005de4:	f000 f8b0 	bl	8005f48 <vPortSetupTimerInterrupt>

	/* Initialise the critical nesting count ready for the first task. */
	uxCriticalNesting = 0;
 8005de8:	4b0a      	ldr	r3, [pc, #40]	; (8005e14 <xPortStartScheduler+0xdc>)
 8005dea:	2200      	movs	r2, #0
 8005dec:	601a      	str	r2, [r3, #0]

	/* Start the first task. */
	prvPortStartFirstTask();
 8005dee:	f7ff ff93 	bl	8005d18 <prvPortStartFirstTask>
	exit error function to prevent compiler warnings about a static function
	not being called in the case that the application writer overrides this
	functionality by defining configTASK_RETURN_ADDRESS.  Call
	vTaskSwitchContext() so link time optimisation does not remove the
	symbol. */
	vTaskSwitchContext();
 8005df2:	f7ff fd91 	bl	8005918 <vTaskSwitchContext>
	prvTaskExitError();
 8005df6:	f7ff ff51 	bl	8005c9c <prvTaskExitError>

	/* Should not get here! */
	return 0;
 8005dfa:	2300      	movs	r3, #0
}
 8005dfc:	4618      	mov	r0, r3
 8005dfe:	3710      	adds	r7, #16
 8005e00:	46bd      	mov	sp, r7
 8005e02:	bd80      	pop	{r7, pc}
 8005e04:	e000e400 	.word	0xe000e400
 8005e08:	200003b4 	.word	0x200003b4
 8005e0c:	200003b8 	.word	0x200003b8
 8005e10:	e000ed20 	.word	0xe000ed20
 8005e14:	20000010 	.word	0x20000010

08005e18 <vPortEnterCritical>:
	configASSERT( uxCriticalNesting == 1000UL );
}
/*-----------------------------------------------------------*/

void vPortEnterCritical( void )
{
 8005e18:	b480      	push	{r7}
 8005e1a:	b083      	sub	sp, #12
 8005e1c:	af00      	add	r7, sp, #0
 8005e1e:	f04f 0350 	mov.w	r3, #80	; 0x50
 8005e22:	f383 8811 	msr	BASEPRI, r3
 8005e26:	f3bf 8f6f 	isb	sy
 8005e2a:	f3bf 8f4f 	dsb	sy
 8005e2e:	607b      	str	r3, [r7, #4]
	portDISABLE_INTERRUPTS();
	uxCriticalNesting++;
 8005e30:	4b0e      	ldr	r3, [pc, #56]	; (8005e6c <vPortEnterCritical+0x54>)
 8005e32:	681b      	ldr	r3, [r3, #0]
 8005e34:	3301      	adds	r3, #1
 8005e36:	4a0d      	ldr	r2, [pc, #52]	; (8005e6c <vPortEnterCritical+0x54>)
 8005e38:	6013      	str	r3, [r2, #0]
	/* This is not the interrupt safe version of the enter critical function so
	assert() if it is being called from an interrupt context.  Only API
	functions that end in "FromISR" can be used in an interrupt.  Only assert if
	the critical nesting count is 1 to protect against recursive calls if the
	assert function also uses a critical section. */
	if( uxCriticalNesting == 1 )
 8005e3a:	4b0c      	ldr	r3, [pc, #48]	; (8005e6c <vPortEnterCritical+0x54>)
 8005e3c:	681b      	ldr	r3, [r3, #0]
 8005e3e:	2b01      	cmp	r3, #1
 8005e40:	d10e      	bne.n	8005e60 <vPortEnterCritical+0x48>
	{
		configASSERT( ( portNVIC_INT_CTRL_REG & portVECTACTIVE_MASK ) == 0 );
 8005e42:	4b0b      	ldr	r3, [pc, #44]	; (8005e70 <vPortEnterCritical+0x58>)
 8005e44:	681b      	ldr	r3, [r3, #0]
 8005e46:	b2db      	uxtb	r3, r3
 8005e48:	2b00      	cmp	r3, #0
 8005e4a:	d009      	beq.n	8005e60 <vPortEnterCritical+0x48>
 8005e4c:	f04f 0350 	mov.w	r3, #80	; 0x50
 8005e50:	f383 8811 	msr	BASEPRI, r3
 8005e54:	f3bf 8f6f 	isb	sy
 8005e58:	f3bf 8f4f 	dsb	sy
 8005e5c:	603b      	str	r3, [r7, #0]
 8005e5e:	e7fe      	b.n	8005e5e <vPortEnterCritical+0x46>
	}
}
 8005e60:	bf00      	nop
 8005e62:	370c      	adds	r7, #12
 8005e64:	46bd      	mov	sp, r7
 8005e66:	bc80      	pop	{r7}
 8005e68:	4770      	bx	lr
 8005e6a:	bf00      	nop
 8005e6c:	20000010 	.word	0x20000010
 8005e70:	e000ed04 	.word	0xe000ed04

08005e74 <vPortExitCritical>:
/*-----------------------------------------------------------*/

void vPortExitCritical( void )
{
 8005e74:	b480      	push	{r7}
 8005e76:	b083      	sub	sp, #12
 8005e78:	af00      	add	r7, sp, #0
	configASSERT( uxCriticalNesting );
 8005e7a:	4b10      	ldr	r3, [pc, #64]	; (8005ebc <vPortExitCritical+0x48>)
 8005e7c:	681b      	ldr	r3, [r3, #0]
 8005e7e:	2b00      	cmp	r3, #0
 8005e80:	d109      	bne.n	8005e96 <vPortExitCritical+0x22>
 8005e82:	f04f 0350 	mov.w	r3, #80	; 0x50
 8005e86:	f383 8811 	msr	BASEPRI, r3
 8005e8a:	f3bf 8f6f 	isb	sy
 8005e8e:	f3bf 8f4f 	dsb	sy
 8005e92:	607b      	str	r3, [r7, #4]
 8005e94:	e7fe      	b.n	8005e94 <vPortExitCritical+0x20>
	uxCriticalNesting--;
 8005e96:	4b09      	ldr	r3, [pc, #36]	; (8005ebc <vPortExitCritical+0x48>)
 8005e98:	681b      	ldr	r3, [r3, #0]
 8005e9a:	3b01      	subs	r3, #1
 8005e9c:	4a07      	ldr	r2, [pc, #28]	; (8005ebc <vPortExitCritical+0x48>)
 8005e9e:	6013      	str	r3, [r2, #0]
	if( uxCriticalNesting == 0 )
 8005ea0:	4b06      	ldr	r3, [pc, #24]	; (8005ebc <vPortExitCritical+0x48>)
 8005ea2:	681b      	ldr	r3, [r3, #0]
 8005ea4:	2b00      	cmp	r3, #0
 8005ea6:	d104      	bne.n	8005eb2 <vPortExitCritical+0x3e>
 8005ea8:	2300      	movs	r3, #0
 8005eaa:	603b      	str	r3, [r7, #0]
	__asm volatile
 8005eac:	683b      	ldr	r3, [r7, #0]
 8005eae:	f383 8811 	msr	BASEPRI, r3
	{
		portENABLE_INTERRUPTS();
	}
}
 8005eb2:	bf00      	nop
 8005eb4:	370c      	adds	r7, #12
 8005eb6:	46bd      	mov	sp, r7
 8005eb8:	bc80      	pop	{r7}
 8005eba:	4770      	bx	lr
 8005ebc:	20000010 	.word	0x20000010

08005ec0 <PendSV_Handler>:

void xPortPendSVHandler( void )
{
	/* This is a naked function. */

	__asm volatile
 8005ec0:	f3ef 8009 	mrs	r0, PSP
 8005ec4:	f3bf 8f6f 	isb	sy
 8005ec8:	4b0d      	ldr	r3, [pc, #52]	; (8005f00 <pxCurrentTCBConst>)
 8005eca:	681a      	ldr	r2, [r3, #0]
 8005ecc:	e920 0ff0 	stmdb	r0!, {r4, r5, r6, r7, r8, r9, sl, fp}
 8005ed0:	6010      	str	r0, [r2, #0]
 8005ed2:	e92d 4008 	stmdb	sp!, {r3, lr}
 8005ed6:	f04f 0050 	mov.w	r0, #80	; 0x50
 8005eda:	f380 8811 	msr	BASEPRI, r0
 8005ede:	f7ff fd1b 	bl	8005918 <vTaskSwitchContext>
 8005ee2:	f04f 0000 	mov.w	r0, #0
 8005ee6:	f380 8811 	msr	BASEPRI, r0
 8005eea:	e8bd 4008 	ldmia.w	sp!, {r3, lr}
 8005eee:	6819      	ldr	r1, [r3, #0]
 8005ef0:	6808      	ldr	r0, [r1, #0]
 8005ef2:	e8b0 0ff0 	ldmia.w	r0!, {r4, r5, r6, r7, r8, r9, sl, fp}
 8005ef6:	f380 8809 	msr	PSP, r0
 8005efa:	f3bf 8f6f 	isb	sy
 8005efe:	4770      	bx	lr

08005f00 <pxCurrentTCBConst>:
 8005f00:	20000288 	.word	0x20000288
	"										\n"
	"	.align 4							\n"
	"pxCurrentTCBConst: .word pxCurrentTCB	\n"
	::"i"(configMAX_SYSCALL_INTERRUPT_PRIORITY)
	);
}
 8005f04:	bf00      	nop
 8005f06:	bf00      	nop

08005f08 <SysTick_Handler>:
/*-----------------------------------------------------------*/

void xPortSysTickHandler( void )
{
 8005f08:	b580      	push	{r7, lr}
 8005f0a:	b082      	sub	sp, #8
 8005f0c:	af00      	add	r7, sp, #0
	__asm volatile
 8005f0e:	f04f 0350 	mov.w	r3, #80	; 0x50
 8005f12:	f383 8811 	msr	BASEPRI, r3
 8005f16:	f3bf 8f6f 	isb	sy
 8005f1a:	f3bf 8f4f 	dsb	sy
 8005f1e:	607b      	str	r3, [r7, #4]
	save and then restore the interrupt mask value as its value is already
	known. */
	portDISABLE_INTERRUPTS();
	{
		/* Increment the RTOS tick. */
		if( xTaskIncrementTick() != pdFALSE )
 8005f20:	f7ff fc3e 	bl	80057a0 <xTaskIncrementTick>
 8005f24:	4603      	mov	r3, r0
 8005f26:	2b00      	cmp	r3, #0
 8005f28:	d003      	beq.n	8005f32 <SysTick_Handler+0x2a>
		{
			/* A context switch is required.  Context switching is performed in
			the PendSV interrupt.  Pend the PendSV interrupt. */
			portNVIC_INT_CTRL_REG = portNVIC_PENDSVSET_BIT;
 8005f2a:	4b06      	ldr	r3, [pc, #24]	; (8005f44 <SysTick_Handler+0x3c>)
 8005f2c:	f04f 5280 	mov.w	r2, #268435456	; 0x10000000
 8005f30:	601a      	str	r2, [r3, #0]
 8005f32:	2300      	movs	r3, #0
 8005f34:	603b      	str	r3, [r7, #0]
	__asm volatile
 8005f36:	683b      	ldr	r3, [r7, #0]
 8005f38:	f383 8811 	msr	BASEPRI, r3
		}
	}
	portENABLE_INTERRUPTS();
}
 8005f3c:	bf00      	nop
 8005f3e:	3708      	adds	r7, #8
 8005f40:	46bd      	mov	sp, r7
 8005f42:	bd80      	pop	{r7, pc}
 8005f44:	e000ed04 	.word	0xe000ed04

08005f48 <vPortSetupTimerInterrupt>:
/*
 * Setup the systick timer to generate the tick interrupts at the required
 * frequency.
 */
__attribute__(( weak )) void vPortSetupTimerInterrupt( void )
{
 8005f48:	b480      	push	{r7}
 8005f4a:	af00      	add	r7, sp, #0
		ulStoppedTimerCompensation = portMISSED_COUNTS_FACTOR / ( configCPU_CLOCK_HZ / configSYSTICK_CLOCK_HZ );
	}
	#endif /* configUSE_TICKLESS_IDLE */

	/* Stop and clear the SysTick. */
	portNVIC_SYSTICK_CTRL_REG = 0UL;
 8005f4c:	4b0a      	ldr	r3, [pc, #40]	; (8005f78 <vPortSetupTimerInterrupt+0x30>)
 8005f4e:	2200      	movs	r2, #0
 8005f50:	601a      	str	r2, [r3, #0]
	portNVIC_SYSTICK_CURRENT_VALUE_REG = 0UL;
 8005f52:	4b0a      	ldr	r3, [pc, #40]	; (8005f7c <vPortSetupTimerInterrupt+0x34>)
 8005f54:	2200      	movs	r2, #0
 8005f56:	601a      	str	r2, [r3, #0]

	/* Configure SysTick to interrupt at the requested rate. */
	portNVIC_SYSTICK_LOAD_REG = ( configSYSTICK_CLOCK_HZ / configTICK_RATE_HZ ) - 1UL;
 8005f58:	4b09      	ldr	r3, [pc, #36]	; (8005f80 <vPortSetupTimerInterrupt+0x38>)
 8005f5a:	681b      	ldr	r3, [r3, #0]
 8005f5c:	4a09      	ldr	r2, [pc, #36]	; (8005f84 <vPortSetupTimerInterrupt+0x3c>)
 8005f5e:	fba2 2303 	umull	r2, r3, r2, r3
 8005f62:	099b      	lsrs	r3, r3, #6
 8005f64:	4a08      	ldr	r2, [pc, #32]	; (8005f88 <vPortSetupTimerInterrupt+0x40>)
 8005f66:	3b01      	subs	r3, #1
 8005f68:	6013      	str	r3, [r2, #0]
	portNVIC_SYSTICK_CTRL_REG = ( portNVIC_SYSTICK_CLK_BIT | portNVIC_SYSTICK_INT_BIT | portNVIC_SYSTICK_ENABLE_BIT );
 8005f6a:	4b03      	ldr	r3, [pc, #12]	; (8005f78 <vPortSetupTimerInterrupt+0x30>)
 8005f6c:	2207      	movs	r2, #7
 8005f6e:	601a      	str	r2, [r3, #0]
}
 8005f70:	bf00      	nop
 8005f72:	46bd      	mov	sp, r7
 8005f74:	bc80      	pop	{r7}
 8005f76:	4770      	bx	lr
 8005f78:	e000e010 	.word	0xe000e010
 8005f7c:	e000e018 	.word	0xe000e018
 8005f80:	20000004 	.word	0x20000004
 8005f84:	10624dd3 	.word	0x10624dd3
 8005f88:	e000e014 	.word	0xe000e014

08005f8c <vPortValidateInterruptPriority>:
/*-----------------------------------------------------------*/

#if( configASSERT_DEFINED == 1 )

	void vPortValidateInterruptPriority( void )
	{
 8005f8c:	b480      	push	{r7}
 8005f8e:	b085      	sub	sp, #20
 8005f90:	af00      	add	r7, sp, #0
	uint32_t ulCurrentInterrupt;
	uint8_t ucCurrentPriority;

		/* Obtain the number of the currently executing interrupt. */
		__asm volatile( "mrs %0, ipsr" : "=r"( ulCurrentInterrupt ) :: "memory" );
 8005f92:	f3ef 8305 	mrs	r3, IPSR
 8005f96:	60fb      	str	r3, [r7, #12]

		/* Is the interrupt number a user defined interrupt? */
		if( ulCurrentInterrupt >= portFIRST_USER_INTERRUPT_NUMBER )
 8005f98:	68fb      	ldr	r3, [r7, #12]
 8005f9a:	2b0f      	cmp	r3, #15
 8005f9c:	d913      	bls.n	8005fc6 <vPortValidateInterruptPriority+0x3a>
		{
			/* Look up the interrupt's priority. */
			ucCurrentPriority = pcInterruptPriorityRegisters[ ulCurrentInterrupt ];
 8005f9e:	4a15      	ldr	r2, [pc, #84]	; (8005ff4 <vPortValidateInterruptPriority+0x68>)
 8005fa0:	68fb      	ldr	r3, [r7, #12]
 8005fa2:	4413      	add	r3, r2
 8005fa4:	781b      	ldrb	r3, [r3, #0]
 8005fa6:	72fb      	strb	r3, [r7, #11]
			interrupt entry is as fast and simple as possible.

			The following links provide detailed information:
			http://www.freertos.org/RTOS-Cortex-M3-M4.html
			http://www.freertos.org/FAQHelp.html */
			configASSERT( ucCurrentPriority >= ucMaxSysCallPriority );
 8005fa8:	4b13      	ldr	r3, [pc, #76]	; (8005ff8 <vPortValidateInterruptPriority+0x6c>)
 8005faa:	781b      	ldrb	r3, [r3, #0]
 8005fac:	7afa      	ldrb	r2, [r7, #11]
 8005fae:	429a      	cmp	r2, r3
 8005fb0:	d209      	bcs.n	8005fc6 <vPortValidateInterruptPriority+0x3a>
	__asm volatile
 8005fb2:	f04f 0350 	mov.w	r3, #80	; 0x50
 8005fb6:	f383 8811 	msr	BASEPRI, r3
 8005fba:	f3bf 8f6f 	isb	sy
 8005fbe:	f3bf 8f4f 	dsb	sy
 8005fc2:	607b      	str	r3, [r7, #4]
 8005fc4:	e7fe      	b.n	8005fc4 <vPortValidateInterruptPriority+0x38>
		configuration then the correct setting can be achieved on all Cortex-M
		devices by calling NVIC_SetPriorityGrouping( 0 ); before starting the
		scheduler.  Note however that some vendor specific peripheral libraries
		assume a non-zero priority group setting, in which cases using a value
		of zero will result in unpredictable behaviour. */
		configASSERT( ( portAIRCR_REG & portPRIORITY_GROUP_MASK ) <= ulMaxPRIGROUPValue );
 8005fc6:	4b0d      	ldr	r3, [pc, #52]	; (8005ffc <vPortValidateInterruptPriority+0x70>)
 8005fc8:	681b      	ldr	r3, [r3, #0]
 8005fca:	f403 62e0 	and.w	r2, r3, #1792	; 0x700
 8005fce:	4b0c      	ldr	r3, [pc, #48]	; (8006000 <vPortValidateInterruptPriority+0x74>)
 8005fd0:	681b      	ldr	r3, [r3, #0]
 8005fd2:	429a      	cmp	r2, r3
 8005fd4:	d909      	bls.n	8005fea <vPortValidateInterruptPriority+0x5e>
 8005fd6:	f04f 0350 	mov.w	r3, #80	; 0x50
 8005fda:	f383 8811 	msr	BASEPRI, r3
 8005fde:	f3bf 8f6f 	isb	sy
 8005fe2:	f3bf 8f4f 	dsb	sy
 8005fe6:	603b      	str	r3, [r7, #0]
 8005fe8:	e7fe      	b.n	8005fe8 <vPortValidateInterruptPriority+0x5c>
	}
 8005fea:	bf00      	nop
 8005fec:	3714      	adds	r7, #20
 8005fee:	46bd      	mov	sp, r7
 8005ff0:	bc80      	pop	{r7}
 8005ff2:	4770      	bx	lr
 8005ff4:	e000e3f0 	.word	0xe000e3f0
 8005ff8:	200003b4 	.word	0x200003b4
 8005ffc:	e000ed0c 	.word	0xe000ed0c
 8006000:	200003b8 	.word	0x200003b8

08006004 <pvPortMalloc>:
static size_t xBlockAllocatedBit = 0;

/*-----------------------------------------------------------*/

void *pvPortMalloc( size_t xWantedSize )
{
 8006004:	b580      	push	{r7, lr}
 8006006:	b08a      	sub	sp, #40	; 0x28
 8006008:	af00      	add	r7, sp, #0
 800600a:	6078      	str	r0, [r7, #4]
BlockLink_t *pxBlock, *pxPreviousBlock, *pxNewBlockLink;
void *pvReturn = NULL;
 800600c:	2300      	movs	r3, #0
 800600e:	61fb      	str	r3, [r7, #28]

	vTaskSuspendAll();
 8006010:	f7ff fb1c 	bl	800564c <vTaskSuspendAll>
	{
		/* If this is the first call to malloc then the heap will require
		initialisation to setup the list of free blocks. */
		if( pxEnd == NULL )
 8006014:	4b57      	ldr	r3, [pc, #348]	; (8006174 <pvPortMalloc+0x170>)
 8006016:	681b      	ldr	r3, [r3, #0]
 8006018:	2b00      	cmp	r3, #0
 800601a:	d101      	bne.n	8006020 <pvPortMalloc+0x1c>
		{
			prvHeapInit();
 800601c:	f000 f90c 	bl	8006238 <prvHeapInit>

		/* Check the requested block size is not so large that the top bit is
		set.  The top bit of the block size member of the BlockLink_t structure
		is used to determine who owns the block - the application or the
		kernel, so it must be free. */
		if( ( xWantedSize & xBlockAllocatedBit ) == 0 )
 8006020:	4b55      	ldr	r3, [pc, #340]	; (8006178 <pvPortMalloc+0x174>)
 8006022:	681a      	ldr	r2, [r3, #0]
 8006024:	687b      	ldr	r3, [r7, #4]
 8006026:	4013      	ands	r3, r2
 8006028:	2b00      	cmp	r3, #0
 800602a:	f040 808c 	bne.w	8006146 <pvPortMalloc+0x142>
		{
			/* The wanted size is increased so it can contain a BlockLink_t
			structure in addition to the requested amount of bytes. */
			if( xWantedSize > 0 )
 800602e:	687b      	ldr	r3, [r7, #4]
 8006030:	2b00      	cmp	r3, #0
 8006032:	d01c      	beq.n	800606e <pvPortMalloc+0x6a>
			{
				xWantedSize += xHeapStructSize;
 8006034:	2208      	movs	r2, #8
 8006036:	687b      	ldr	r3, [r7, #4]
 8006038:	4413      	add	r3, r2
 800603a:	607b      	str	r3, [r7, #4]

				/* Ensure that blocks are always aligned to the required number
				of bytes. */
				if( ( xWantedSize & portBYTE_ALIGNMENT_MASK ) != 0x00 )
 800603c:	687b      	ldr	r3, [r7, #4]
 800603e:	f003 0307 	and.w	r3, r3, #7
 8006042:	2b00      	cmp	r3, #0
 8006044:	d013      	beq.n	800606e <pvPortMalloc+0x6a>
				{
					/* Byte alignment required. */
					xWantedSize += ( portBYTE_ALIGNMENT - ( xWantedSize & portBYTE_ALIGNMENT_MASK ) );
 8006046:	687b      	ldr	r3, [r7, #4]
 8006048:	f023 0307 	bic.w	r3, r3, #7
 800604c:	3308      	adds	r3, #8
 800604e:	607b      	str	r3, [r7, #4]
					configASSERT( ( xWantedSize & portBYTE_ALIGNMENT_MASK ) == 0 );
 8006050:	687b      	ldr	r3, [r7, #4]
 8006052:	f003 0307 	and.w	r3, r3, #7
 8006056:	2b00      	cmp	r3, #0
 8006058:	d009      	beq.n	800606e <pvPortMalloc+0x6a>
 800605a:	f04f 0350 	mov.w	r3, #80	; 0x50
 800605e:	f383 8811 	msr	BASEPRI, r3
 8006062:	f3bf 8f6f 	isb	sy
 8006066:	f3bf 8f4f 	dsb	sy
 800606a:	617b      	str	r3, [r7, #20]
 800606c:	e7fe      	b.n	800606c <pvPortMalloc+0x68>
			else
			{
				mtCOVERAGE_TEST_MARKER();
			}

			if( ( xWantedSize > 0 ) && ( xWantedSize <= xFreeBytesRemaining ) )
 800606e:	687b      	ldr	r3, [r7, #4]
 8006070:	2b00      	cmp	r3, #0
 8006072:	d068      	beq.n	8006146 <pvPortMalloc+0x142>
 8006074:	4b41      	ldr	r3, [pc, #260]	; (800617c <pvPortMalloc+0x178>)
 8006076:	681b      	ldr	r3, [r3, #0]
 8006078:	687a      	ldr	r2, [r7, #4]
 800607a:	429a      	cmp	r2, r3
 800607c:	d863      	bhi.n	8006146 <pvPortMalloc+0x142>
			{
				/* Traverse the list from the start	(lowest address) block until
				one	of adequate size is found. */
				pxPreviousBlock = &xStart;
 800607e:	4b40      	ldr	r3, [pc, #256]	; (8006180 <pvPortMalloc+0x17c>)
 8006080:	623b      	str	r3, [r7, #32]
				pxBlock = xStart.pxNextFreeBlock;
 8006082:	4b3f      	ldr	r3, [pc, #252]	; (8006180 <pvPortMalloc+0x17c>)
 8006084:	681b      	ldr	r3, [r3, #0]
 8006086:	627b      	str	r3, [r7, #36]	; 0x24
				while( ( pxBlock->xBlockSize < xWantedSize ) && ( pxBlock->pxNextFreeBlock != NULL ) )
 8006088:	e004      	b.n	8006094 <pvPortMalloc+0x90>
				{
					pxPreviousBlock = pxBlock;
 800608a:	6a7b      	ldr	r3, [r7, #36]	; 0x24
 800608c:	623b      	str	r3, [r7, #32]
					pxBlock = pxBlock->pxNextFreeBlock;
 800608e:	6a7b      	ldr	r3, [r7, #36]	; 0x24
 8006090:	681b      	ldr	r3, [r3, #0]
 8006092:	627b      	str	r3, [r7, #36]	; 0x24
				while( ( pxBlock->xBlockSize < xWantedSize ) && ( pxBlock->pxNextFreeBlock != NULL ) )
 8006094:	6a7b      	ldr	r3, [r7, #36]	; 0x24
 8006096:	685b      	ldr	r3, [r3, #4]
 8006098:	687a      	ldr	r2, [r7, #4]
 800609a:	429a      	cmp	r2, r3
 800609c:	d903      	bls.n	80060a6 <pvPortMalloc+0xa2>
 800609e:	6a7b      	ldr	r3, [r7, #36]	; 0x24
 80060a0:	681b      	ldr	r3, [r3, #0]
 80060a2:	2b00      	cmp	r3, #0
 80060a4:	d1f1      	bne.n	800608a <pvPortMalloc+0x86>
				}

				/* If the end marker was reached then a block of adequate size
				was	not found. */
				if( pxBlock != pxEnd )
 80060a6:	4b33      	ldr	r3, [pc, #204]	; (8006174 <pvPortMalloc+0x170>)
 80060a8:	681b      	ldr	r3, [r3, #0]
 80060aa:	6a7a      	ldr	r2, [r7, #36]	; 0x24
 80060ac:	429a      	cmp	r2, r3
 80060ae:	d04a      	beq.n	8006146 <pvPortMalloc+0x142>
				{
					/* Return the memory space pointed to - jumping over the
					BlockLink_t structure at its start. */
					pvReturn = ( void * ) ( ( ( uint8_t * ) pxPreviousBlock->pxNextFreeBlock ) + xHeapStructSize );
 80060b0:	6a3b      	ldr	r3, [r7, #32]
 80060b2:	681b      	ldr	r3, [r3, #0]
 80060b4:	2208      	movs	r2, #8
 80060b6:	4413      	add	r3, r2
 80060b8:	61fb      	str	r3, [r7, #28]

					/* This block is being returned for use so must be taken out
					of the list of free blocks. */
					pxPreviousBlock->pxNextFreeBlock = pxBlock->pxNextFreeBlock;
 80060ba:	6a7b      	ldr	r3, [r7, #36]	; 0x24
 80060bc:	681a      	ldr	r2, [r3, #0]
 80060be:	6a3b      	ldr	r3, [r7, #32]
 80060c0:	601a      	str	r2, [r3, #0]

					/* If the block is larger than required it can be split into
					two. */
					if( ( pxBlock->xBlockSize - xWantedSize ) > heapMINIMUM_BLOCK_SIZE )
 80060c2:	6a7b      	ldr	r3, [r7, #36]	; 0x24
 80060c4:	685a      	ldr	r2, [r3, #4]
 80060c6:	687b      	ldr	r3, [r7, #4]
 80060c8:	1ad2      	subs	r2, r2, r3
 80060ca:	2308      	movs	r3, #8
 80060cc:	005b      	lsls	r3, r3, #1
 80060ce:	429a      	cmp	r2, r3
 80060d0:	d91e      	bls.n	8006110 <pvPortMalloc+0x10c>
					{
						/* This block is to be split into two.  Create a new
						block following the number of bytes requested. The void
						cast is used to prevent byte alignment warnings from the
						compiler. */
						pxNewBlockLink = ( void * ) ( ( ( uint8_t * ) pxBlock ) + xWantedSize );
 80060d2:	6a7a      	ldr	r2, [r7, #36]	; 0x24
 80060d4:	687b      	ldr	r3, [r7, #4]
 80060d6:	4413      	add	r3, r2
 80060d8:	61bb      	str	r3, [r7, #24]
						configASSERT( ( ( ( size_t ) pxNewBlockLink ) & portBYTE_ALIGNMENT_MASK ) == 0 );
 80060da:	69bb      	ldr	r3, [r7, #24]
 80060dc:	f003 0307 	and.w	r3, r3, #7
 80060e0:	2b00      	cmp	r3, #0
 80060e2:	d009      	beq.n	80060f8 <pvPortMalloc+0xf4>
 80060e4:	f04f 0350 	mov.w	r3, #80	; 0x50
 80060e8:	f383 8811 	msr	BASEPRI, r3
 80060ec:	f3bf 8f6f 	isb	sy
 80060f0:	f3bf 8f4f 	dsb	sy
 80060f4:	613b      	str	r3, [r7, #16]
 80060f6:	e7fe      	b.n	80060f6 <pvPortMalloc+0xf2>

						/* Calculate the sizes of two blocks split from the
						single block. */
						pxNewBlockLink->xBlockSize = pxBlock->xBlockSize - xWantedSize;
 80060f8:	6a7b      	ldr	r3, [r7, #36]	; 0x24
 80060fa:	685a      	ldr	r2, [r3, #4]
 80060fc:	687b      	ldr	r3, [r7, #4]
 80060fe:	1ad2      	subs	r2, r2, r3
 8006100:	69bb      	ldr	r3, [r7, #24]
 8006102:	605a      	str	r2, [r3, #4]
						pxBlock->xBlockSize = xWantedSize;
 8006104:	6a7b      	ldr	r3, [r7, #36]	; 0x24
 8006106:	687a      	ldr	r2, [r7, #4]
 8006108:	605a      	str	r2, [r3, #4]

						/* Insert the new block into the list of free blocks. */
						prvInsertBlockIntoFreeList( pxNewBlockLink );
 800610a:	69b8      	ldr	r0, [r7, #24]
 800610c:	f000 f8f6 	bl	80062fc <prvInsertBlockIntoFreeList>
					else
					{
						mtCOVERAGE_TEST_MARKER();
					}

					xFreeBytesRemaining -= pxBlock->xBlockSize;
 8006110:	4b1a      	ldr	r3, [pc, #104]	; (800617c <pvPortMalloc+0x178>)
 8006112:	681a      	ldr	r2, [r3, #0]
 8006114:	6a7b      	ldr	r3, [r7, #36]	; 0x24
 8006116:	685b      	ldr	r3, [r3, #4]
 8006118:	1ad3      	subs	r3, r2, r3
 800611a:	4a18      	ldr	r2, [pc, #96]	; (800617c <pvPortMalloc+0x178>)
 800611c:	6013      	str	r3, [r2, #0]

					if( xFreeBytesRemaining < xMinimumEverFreeBytesRemaining )
 800611e:	4b17      	ldr	r3, [pc, #92]	; (800617c <pvPortMalloc+0x178>)
 8006120:	681a      	ldr	r2, [r3, #0]
 8006122:	4b18      	ldr	r3, [pc, #96]	; (8006184 <pvPortMalloc+0x180>)
 8006124:	681b      	ldr	r3, [r3, #0]
 8006126:	429a      	cmp	r2, r3
 8006128:	d203      	bcs.n	8006132 <pvPortMalloc+0x12e>
					{
						xMinimumEverFreeBytesRemaining = xFreeBytesRemaining;
 800612a:	4b14      	ldr	r3, [pc, #80]	; (800617c <pvPortMalloc+0x178>)
 800612c:	681b      	ldr	r3, [r3, #0]
 800612e:	4a15      	ldr	r2, [pc, #84]	; (8006184 <pvPortMalloc+0x180>)
 8006130:	6013      	str	r3, [r2, #0]
						mtCOVERAGE_TEST_MARKER();
					}

					/* The block is being returned - it is allocated and owned
					by the application and has no "next" block. */
					pxBlock->xBlockSize |= xBlockAllocatedBit;
 8006132:	6a7b      	ldr	r3, [r7, #36]	; 0x24
 8006134:	685a      	ldr	r2, [r3, #4]
 8006136:	4b10      	ldr	r3, [pc, #64]	; (8006178 <pvPortMalloc+0x174>)
 8006138:	681b      	ldr	r3, [r3, #0]
 800613a:	431a      	orrs	r2, r3
 800613c:	6a7b      	ldr	r3, [r7, #36]	; 0x24
 800613e:	605a      	str	r2, [r3, #4]
					pxBlock->pxNextFreeBlock = NULL;
 8006140:	6a7b      	ldr	r3, [r7, #36]	; 0x24
 8006142:	2200      	movs	r2, #0
 8006144:	601a      	str	r2, [r3, #0]
			mtCOVERAGE_TEST_MARKER();
		}

		traceMALLOC( pvReturn, xWantedSize );
	}
	( void ) xTaskResumeAll();
 8006146:	f7ff fa8f 	bl	8005668 <xTaskResumeAll>
			mtCOVERAGE_TEST_MARKER();
		}
	}
	#endif

	configASSERT( ( ( ( size_t ) pvReturn ) & ( size_t ) portBYTE_ALIGNMENT_MASK ) == 0 );
 800614a:	69fb      	ldr	r3, [r7, #28]
 800614c:	f003 0307 	and.w	r3, r3, #7
 8006150:	2b00      	cmp	r3, #0
 8006152:	d009      	beq.n	8006168 <pvPortMalloc+0x164>
 8006154:	f04f 0350 	mov.w	r3, #80	; 0x50
 8006158:	f383 8811 	msr	BASEPRI, r3
 800615c:	f3bf 8f6f 	isb	sy
 8006160:	f3bf 8f4f 	dsb	sy
 8006164:	60fb      	str	r3, [r7, #12]
 8006166:	e7fe      	b.n	8006166 <pvPortMalloc+0x162>
	return pvReturn;
 8006168:	69fb      	ldr	r3, [r7, #28]
}
 800616a:	4618      	mov	r0, r3
 800616c:	3728      	adds	r7, #40	; 0x28
 800616e:	46bd      	mov	sp, r7
 8006170:	bd80      	pop	{r7, pc}
 8006172:	bf00      	nop
 8006174:	20002bc4 	.word	0x20002bc4
 8006178:	20002bd0 	.word	0x20002bd0
 800617c:	20002bc8 	.word	0x20002bc8
 8006180:	20002bbc 	.word	0x20002bbc
 8006184:	20002bcc 	.word	0x20002bcc

08006188 <vPortFree>:
/*-----------------------------------------------------------*/

void vPortFree( void *pv )
{
 8006188:	b580      	push	{r7, lr}
 800618a:	b086      	sub	sp, #24
 800618c:	af00      	add	r7, sp, #0
 800618e:	6078      	str	r0, [r7, #4]
uint8_t *puc = ( uint8_t * ) pv;
 8006190:	687b      	ldr	r3, [r7, #4]
 8006192:	617b      	str	r3, [r7, #20]
BlockLink_t *pxLink;

	if( pv != NULL )
 8006194:	687b      	ldr	r3, [r7, #4]
 8006196:	2b00      	cmp	r3, #0
 8006198:	d046      	beq.n	8006228 <vPortFree+0xa0>
	{
		/* The memory being freed will have an BlockLink_t structure immediately
		before it. */
		puc -= xHeapStructSize;
 800619a:	2308      	movs	r3, #8
 800619c:	425b      	negs	r3, r3
 800619e:	697a      	ldr	r2, [r7, #20]
 80061a0:	4413      	add	r3, r2
 80061a2:	617b      	str	r3, [r7, #20]

		/* This casting is to keep the compiler from issuing warnings. */
		pxLink = ( void * ) puc;
 80061a4:	697b      	ldr	r3, [r7, #20]
 80061a6:	613b      	str	r3, [r7, #16]

		/* Check the block is actually allocated. */
		configASSERT( ( pxLink->xBlockSize & xBlockAllocatedBit ) != 0 );
 80061a8:	693b      	ldr	r3, [r7, #16]
 80061aa:	685a      	ldr	r2, [r3, #4]
 80061ac:	4b20      	ldr	r3, [pc, #128]	; (8006230 <vPortFree+0xa8>)
 80061ae:	681b      	ldr	r3, [r3, #0]
 80061b0:	4013      	ands	r3, r2
 80061b2:	2b00      	cmp	r3, #0
 80061b4:	d109      	bne.n	80061ca <vPortFree+0x42>
 80061b6:	f04f 0350 	mov.w	r3, #80	; 0x50
 80061ba:	f383 8811 	msr	BASEPRI, r3
 80061be:	f3bf 8f6f 	isb	sy
 80061c2:	f3bf 8f4f 	dsb	sy
 80061c6:	60fb      	str	r3, [r7, #12]
 80061c8:	e7fe      	b.n	80061c8 <vPortFree+0x40>
		configASSERT( pxLink->pxNextFreeBlock == NULL );
 80061ca:	693b      	ldr	r3, [r7, #16]
 80061cc:	681b      	ldr	r3, [r3, #0]
 80061ce:	2b00      	cmp	r3, #0
 80061d0:	d009      	beq.n	80061e6 <vPortFree+0x5e>
 80061d2:	f04f 0350 	mov.w	r3, #80	; 0x50
 80061d6:	f383 8811 	msr	BASEPRI, r3
 80061da:	f3bf 8f6f 	isb	sy
 80061de:	f3bf 8f4f 	dsb	sy
 80061e2:	60bb      	str	r3, [r7, #8]
 80061e4:	e7fe      	b.n	80061e4 <vPortFree+0x5c>

		if( ( pxLink->xBlockSize & xBlockAllocatedBit ) != 0 )
 80061e6:	693b      	ldr	r3, [r7, #16]
 80061e8:	685a      	ldr	r2, [r3, #4]
 80061ea:	4b11      	ldr	r3, [pc, #68]	; (8006230 <vPortFree+0xa8>)
 80061ec:	681b      	ldr	r3, [r3, #0]
 80061ee:	4013      	ands	r3, r2
 80061f0:	2b00      	cmp	r3, #0
 80061f2:	d019      	beq.n	8006228 <vPortFree+0xa0>
		{
			if( pxLink->pxNextFreeBlock == NULL )
 80061f4:	693b      	ldr	r3, [r7, #16]
 80061f6:	681b      	ldr	r3, [r3, #0]
 80061f8:	2b00      	cmp	r3, #0
 80061fa:	d115      	bne.n	8006228 <vPortFree+0xa0>
			{
				/* The block is being returned to the heap - it is no longer
				allocated. */
				pxLink->xBlockSize &= ~xBlockAllocatedBit;
 80061fc:	693b      	ldr	r3, [r7, #16]
 80061fe:	685a      	ldr	r2, [r3, #4]
 8006200:	4b0b      	ldr	r3, [pc, #44]	; (8006230 <vPortFree+0xa8>)
 8006202:	681b      	ldr	r3, [r3, #0]
 8006204:	43db      	mvns	r3, r3
 8006206:	401a      	ands	r2, r3
 8006208:	693b      	ldr	r3, [r7, #16]
 800620a:	605a      	str	r2, [r3, #4]

				vTaskSuspendAll();
 800620c:	f7ff fa1e 	bl	800564c <vTaskSuspendAll>
				{
					/* Add this block to the list of free blocks. */
					xFreeBytesRemaining += pxLink->xBlockSize;
 8006210:	693b      	ldr	r3, [r7, #16]
 8006212:	685a      	ldr	r2, [r3, #4]
 8006214:	4b07      	ldr	r3, [pc, #28]	; (8006234 <vPortFree+0xac>)
 8006216:	681b      	ldr	r3, [r3, #0]
 8006218:	4413      	add	r3, r2
 800621a:	4a06      	ldr	r2, [pc, #24]	; (8006234 <vPortFree+0xac>)
 800621c:	6013      	str	r3, [r2, #0]
					traceFREE( pv, pxLink->xBlockSize );
					prvInsertBlockIntoFreeList( ( ( BlockLink_t * ) pxLink ) );
 800621e:	6938      	ldr	r0, [r7, #16]
 8006220:	f000 f86c 	bl	80062fc <prvInsertBlockIntoFreeList>
				}
				( void ) xTaskResumeAll();
 8006224:	f7ff fa20 	bl	8005668 <xTaskResumeAll>
		else
		{
			mtCOVERAGE_TEST_MARKER();
		}
	}
}
 8006228:	bf00      	nop
 800622a:	3718      	adds	r7, #24
 800622c:	46bd      	mov	sp, r7
 800622e:	bd80      	pop	{r7, pc}
 8006230:	20002bd0 	.word	0x20002bd0
 8006234:	20002bc8 	.word	0x20002bc8

08006238 <prvHeapInit>:
	/* This just exists to keep the linker quiet. */
}
/*-----------------------------------------------------------*/

static void prvHeapInit( void )
{
 8006238:	b480      	push	{r7}
 800623a:	b085      	sub	sp, #20
 800623c:	af00      	add	r7, sp, #0
BlockLink_t *pxFirstFreeBlock;
uint8_t *pucAlignedHeap;
size_t uxAddress;
size_t xTotalHeapSize = configTOTAL_HEAP_SIZE;
 800623e:	f44f 5320 	mov.w	r3, #10240	; 0x2800
 8006242:	60bb      	str	r3, [r7, #8]

	/* Ensure the heap starts on a correctly aligned boundary. */
	uxAddress = ( size_t ) ucHeap;
 8006244:	4b27      	ldr	r3, [pc, #156]	; (80062e4 <prvHeapInit+0xac>)
 8006246:	60fb      	str	r3, [r7, #12]

	if( ( uxAddress & portBYTE_ALIGNMENT_MASK ) != 0 )
 8006248:	68fb      	ldr	r3, [r7, #12]
 800624a:	f003 0307 	and.w	r3, r3, #7
 800624e:	2b00      	cmp	r3, #0
 8006250:	d00c      	beq.n	800626c <prvHeapInit+0x34>
	{
		uxAddress += ( portBYTE_ALIGNMENT - 1 );
 8006252:	68fb      	ldr	r3, [r7, #12]
 8006254:	3307      	adds	r3, #7
 8006256:	60fb      	str	r3, [r7, #12]
		uxAddress &= ~( ( size_t ) portBYTE_ALIGNMENT_MASK );
 8006258:	68fb      	ldr	r3, [r7, #12]
 800625a:	f023 0307 	bic.w	r3, r3, #7
 800625e:	60fb      	str	r3, [r7, #12]
		xTotalHeapSize -= uxAddress - ( size_t ) ucHeap;
 8006260:	68ba      	ldr	r2, [r7, #8]
 8006262:	68fb      	ldr	r3, [r7, #12]
 8006264:	1ad3      	subs	r3, r2, r3
 8006266:	4a1f      	ldr	r2, [pc, #124]	; (80062e4 <prvHeapInit+0xac>)
 8006268:	4413      	add	r3, r2
 800626a:	60bb      	str	r3, [r7, #8]
	}

	pucAlignedHeap = ( uint8_t * ) uxAddress;
 800626c:	68fb      	ldr	r3, [r7, #12]
 800626e:	607b      	str	r3, [r7, #4]

	/* xStart is used to hold a pointer to the first item in the list of free
	blocks.  The void cast is used to prevent compiler warnings. */
	xStart.pxNextFreeBlock = ( void * ) pucAlignedHeap;
 8006270:	4a1d      	ldr	r2, [pc, #116]	; (80062e8 <prvHeapInit+0xb0>)
 8006272:	687b      	ldr	r3, [r7, #4]
 8006274:	6013      	str	r3, [r2, #0]
	xStart.xBlockSize = ( size_t ) 0;
 8006276:	4b1c      	ldr	r3, [pc, #112]	; (80062e8 <prvHeapInit+0xb0>)
 8006278:	2200      	movs	r2, #0
 800627a:	605a      	str	r2, [r3, #4]

	/* pxEnd is used to mark the end of the list of free blocks and is inserted
	at the end of the heap space. */
	uxAddress = ( ( size_t ) pucAlignedHeap ) + xTotalHeapSize;
 800627c:	687b      	ldr	r3, [r7, #4]
 800627e:	68ba      	ldr	r2, [r7, #8]
 8006280:	4413      	add	r3, r2
 8006282:	60fb      	str	r3, [r7, #12]
	uxAddress -= xHeapStructSize;
 8006284:	2208      	movs	r2, #8
 8006286:	68fb      	ldr	r3, [r7, #12]
 8006288:	1a9b      	subs	r3, r3, r2
 800628a:	60fb      	str	r3, [r7, #12]
	uxAddress &= ~( ( size_t ) portBYTE_ALIGNMENT_MASK );
 800628c:	68fb      	ldr	r3, [r7, #12]
 800628e:	f023 0307 	bic.w	r3, r3, #7
 8006292:	60fb      	str	r3, [r7, #12]
	pxEnd = ( void * ) uxAddress;
 8006294:	68fb      	ldr	r3, [r7, #12]
 8006296:	4a15      	ldr	r2, [pc, #84]	; (80062ec <prvHeapInit+0xb4>)
 8006298:	6013      	str	r3, [r2, #0]
	pxEnd->xBlockSize = 0;
 800629a:	4b14      	ldr	r3, [pc, #80]	; (80062ec <prvHeapInit+0xb4>)
 800629c:	681b      	ldr	r3, [r3, #0]
 800629e:	2200      	movs	r2, #0
 80062a0:	605a      	str	r2, [r3, #4]
	pxEnd->pxNextFreeBlock = NULL;
 80062a2:	4b12      	ldr	r3, [pc, #72]	; (80062ec <prvHeapInit+0xb4>)
 80062a4:	681b      	ldr	r3, [r3, #0]
 80062a6:	2200      	movs	r2, #0
 80062a8:	601a      	str	r2, [r3, #0]

	/* To start with there is a single free block that is sized to take up the
	entire heap space, minus the space taken by pxEnd. */
	pxFirstFreeBlock = ( void * ) pucAlignedHeap;
 80062aa:	687b      	ldr	r3, [r7, #4]
 80062ac:	603b      	str	r3, [r7, #0]
	pxFirstFreeBlock->xBlockSize = uxAddress - ( size_t ) pxFirstFreeBlock;
 80062ae:	683b      	ldr	r3, [r7, #0]
 80062b0:	68fa      	ldr	r2, [r7, #12]
 80062b2:	1ad2      	subs	r2, r2, r3
 80062b4:	683b      	ldr	r3, [r7, #0]
 80062b6:	605a      	str	r2, [r3, #4]
	pxFirstFreeBlock->pxNextFreeBlock = pxEnd;
 80062b8:	4b0c      	ldr	r3, [pc, #48]	; (80062ec <prvHeapInit+0xb4>)
 80062ba:	681a      	ldr	r2, [r3, #0]
 80062bc:	683b      	ldr	r3, [r7, #0]
 80062be:	601a      	str	r2, [r3, #0]

	/* Only one block exists - and it covers the entire usable heap space. */
	xMinimumEverFreeBytesRemaining = pxFirstFreeBlock->xBlockSize;
 80062c0:	683b      	ldr	r3, [r7, #0]
 80062c2:	685b      	ldr	r3, [r3, #4]
 80062c4:	4a0a      	ldr	r2, [pc, #40]	; (80062f0 <prvHeapInit+0xb8>)
 80062c6:	6013      	str	r3, [r2, #0]
	xFreeBytesRemaining = pxFirstFreeBlock->xBlockSize;
 80062c8:	683b      	ldr	r3, [r7, #0]
 80062ca:	685b      	ldr	r3, [r3, #4]
 80062cc:	4a09      	ldr	r2, [pc, #36]	; (80062f4 <prvHeapInit+0xbc>)
 80062ce:	6013      	str	r3, [r2, #0]

	/* Work out the position of the top bit in a size_t variable. */
	xBlockAllocatedBit = ( ( size_t ) 1 ) << ( ( sizeof( size_t ) * heapBITS_PER_BYTE ) - 1 );
 80062d0:	4b09      	ldr	r3, [pc, #36]	; (80062f8 <prvHeapInit+0xc0>)
 80062d2:	f04f 4200 	mov.w	r2, #2147483648	; 0x80000000
 80062d6:	601a      	str	r2, [r3, #0]
}
 80062d8:	bf00      	nop
 80062da:	3714      	adds	r7, #20
 80062dc:	46bd      	mov	sp, r7
 80062de:	bc80      	pop	{r7}
 80062e0:	4770      	bx	lr
 80062e2:	bf00      	nop
 80062e4:	200003bc 	.word	0x200003bc
 80062e8:	20002bbc 	.word	0x20002bbc
 80062ec:	20002bc4 	.word	0x20002bc4
 80062f0:	20002bcc 	.word	0x20002bcc
 80062f4:	20002bc8 	.word	0x20002bc8
 80062f8:	20002bd0 	.word	0x20002bd0

080062fc <prvInsertBlockIntoFreeList>:
/*-----------------------------------------------------------*/

static void prvInsertBlockIntoFreeList( BlockLink_t *pxBlockToInsert )
{
 80062fc:	b480      	push	{r7}
 80062fe:	b085      	sub	sp, #20
 8006300:	af00      	add	r7, sp, #0
 8006302:	6078      	str	r0, [r7, #4]
BlockLink_t *pxIterator;
uint8_t *puc;

	/* Iterate through the list until a block is found that has a higher address
	than the block being inserted. */
	for( pxIterator = &xStart; pxIterator->pxNextFreeBlock < pxBlockToInsert; pxIterator = pxIterator->pxNextFreeBlock )
 8006304:	4b27      	ldr	r3, [pc, #156]	; (80063a4 <prvInsertBlockIntoFreeList+0xa8>)
 8006306:	60fb      	str	r3, [r7, #12]
 8006308:	e002      	b.n	8006310 <prvInsertBlockIntoFreeList+0x14>
 800630a:	68fb      	ldr	r3, [r7, #12]
 800630c:	681b      	ldr	r3, [r3, #0]
 800630e:	60fb      	str	r3, [r7, #12]
 8006310:	68fb      	ldr	r3, [r7, #12]
 8006312:	681b      	ldr	r3, [r3, #0]
 8006314:	687a      	ldr	r2, [r7, #4]
 8006316:	429a      	cmp	r2, r3
 8006318:	d8f7      	bhi.n	800630a <prvInsertBlockIntoFreeList+0xe>
		/* Nothing to do here, just iterate to the right position. */
	}

	/* Do the block being inserted, and the block it is being inserted after
	make a contiguous block of memory? */
	puc = ( uint8_t * ) pxIterator;
 800631a:	68fb      	ldr	r3, [r7, #12]
 800631c:	60bb      	str	r3, [r7, #8]
	if( ( puc + pxIterator->xBlockSize ) == ( uint8_t * ) pxBlockToInsert )
 800631e:	68fb      	ldr	r3, [r7, #12]
 8006320:	685b      	ldr	r3, [r3, #4]
 8006322:	68ba      	ldr	r2, [r7, #8]
 8006324:	4413      	add	r3, r2
 8006326:	687a      	ldr	r2, [r7, #4]
 8006328:	429a      	cmp	r2, r3
 800632a:	d108      	bne.n	800633e <prvInsertBlockIntoFreeList+0x42>
	{
		pxIterator->xBlockSize += pxBlockToInsert->xBlockSize;
 800632c:	68fb      	ldr	r3, [r7, #12]
 800632e:	685a      	ldr	r2, [r3, #4]
 8006330:	687b      	ldr	r3, [r7, #4]
 8006332:	685b      	ldr	r3, [r3, #4]
 8006334:	441a      	add	r2, r3
 8006336:	68fb      	ldr	r3, [r7, #12]
 8006338:	605a      	str	r2, [r3, #4]
		pxBlockToInsert = pxIterator;
 800633a:	68fb      	ldr	r3, [r7, #12]
 800633c:	607b      	str	r3, [r7, #4]
		mtCOVERAGE_TEST_MARKER();
	}

	/* Do the block being inserted, and the block it is being inserted before
	make a contiguous block of memory? */
	puc = ( uint8_t * ) pxBlockToInsert;
 800633e:	687b      	ldr	r3, [r7, #4]
 8006340:	60bb      	str	r3, [r7, #8]
	if( ( puc + pxBlockToInsert->xBlockSize ) == ( uint8_t * ) pxIterator->pxNextFreeBlock )
 8006342:	687b      	ldr	r3, [r7, #4]
 8006344:	685b      	ldr	r3, [r3, #4]
 8006346:	68ba      	ldr	r2, [r7, #8]
 8006348:	441a      	add	r2, r3
 800634a:	68fb      	ldr	r3, [r7, #12]
 800634c:	681b      	ldr	r3, [r3, #0]
 800634e:	429a      	cmp	r2, r3
 8006350:	d118      	bne.n	8006384 <prvInsertBlockIntoFreeList+0x88>
	{
		if( pxIterator->pxNextFreeBlock != pxEnd )
 8006352:	68fb      	ldr	r3, [r7, #12]
 8006354:	681a      	ldr	r2, [r3, #0]
 8006356:	4b14      	ldr	r3, [pc, #80]	; (80063a8 <prvInsertBlockIntoFreeList+0xac>)
 8006358:	681b      	ldr	r3, [r3, #0]
 800635a:	429a      	cmp	r2, r3
 800635c:	d00d      	beq.n	800637a <prvInsertBlockIntoFreeList+0x7e>
		{
			/* Form one big block from the two blocks. */
			pxBlockToInsert->xBlockSize += pxIterator->pxNextFreeBlock->xBlockSize;
 800635e:	687b      	ldr	r3, [r7, #4]
 8006360:	685a      	ldr	r2, [r3, #4]
 8006362:	68fb      	ldr	r3, [r7, #12]
 8006364:	681b      	ldr	r3, [r3, #0]
 8006366:	685b      	ldr	r3, [r3, #4]
 8006368:	441a      	add	r2, r3
 800636a:	687b      	ldr	r3, [r7, #4]
 800636c:	605a      	str	r2, [r3, #4]
			pxBlockToInsert->pxNextFreeBlock = pxIterator->pxNextFreeBlock->pxNextFreeBlock;
 800636e:	68fb      	ldr	r3, [r7, #12]
 8006370:	681b      	ldr	r3, [r3, #0]
 8006372:	681a      	ldr	r2, [r3, #0]
 8006374:	687b      	ldr	r3, [r7, #4]
 8006376:	601a      	str	r2, [r3, #0]
 8006378:	e008      	b.n	800638c <prvInsertBlockIntoFreeList+0x90>
		}
		else
		{
			pxBlockToInsert->pxNextFreeBlock = pxEnd;
 800637a:	4b0b      	ldr	r3, [pc, #44]	; (80063a8 <prvInsertBlockIntoFreeList+0xac>)
 800637c:	681a      	ldr	r2, [r3, #0]
 800637e:	687b      	ldr	r3, [r7, #4]
 8006380:	601a      	str	r2, [r3, #0]
 8006382:	e003      	b.n	800638c <prvInsertBlockIntoFreeList+0x90>
		}
	}
	else
	{
		pxBlockToInsert->pxNextFreeBlock = pxIterator->pxNextFreeBlock;
 8006384:	68fb      	ldr	r3, [r7, #12]
 8006386:	681a      	ldr	r2, [r3, #0]
 8006388:	687b      	ldr	r3, [r7, #4]
 800638a:	601a      	str	r2, [r3, #0]

	/* If the block being inserted plugged a gab, so was merged with the block
	before and the block after, then it's pxNextFreeBlock pointer will have
	already been set, and should not be set here as that would make it point
	to itself. */
	if( pxIterator != pxBlockToInsert )
 800638c:	68fa      	ldr	r2, [r7, #12]
 800638e:	687b      	ldr	r3, [r7, #4]
 8006390:	429a      	cmp	r2, r3
 8006392:	d002      	beq.n	800639a <prvInsertBlockIntoFreeList+0x9e>
	{
		pxIterator->pxNextFreeBlock = pxBlockToInsert;
 8006394:	68fb      	ldr	r3, [r7, #12]
 8006396:	687a      	ldr	r2, [r7, #4]
 8006398:	601a      	str	r2, [r3, #0]
	}
	else
	{
		mtCOVERAGE_TEST_MARKER();
	}
}
 800639a:	bf00      	nop
 800639c:	3714      	adds	r7, #20
 800639e:	46bd      	mov	sp, r7
 80063a0:	bc80      	pop	{r7}
 80063a2:	4770      	bx	lr
 80063a4:	20002bbc 	.word	0x20002bbc
 80063a8:	20002bc4 	.word	0x20002bc4

080063ac <__libc_init_array>:
 80063ac:	b570      	push	{r4, r5, r6, lr}
 80063ae:	2500      	movs	r5, #0
 80063b0:	4e0c      	ldr	r6, [pc, #48]	; (80063e4 <__libc_init_array+0x38>)
 80063b2:	4c0d      	ldr	r4, [pc, #52]	; (80063e8 <__libc_init_array+0x3c>)
 80063b4:	1ba4      	subs	r4, r4, r6
 80063b6:	10a4      	asrs	r4, r4, #2
 80063b8:	42a5      	cmp	r5, r4
 80063ba:	d109      	bne.n	80063d0 <__libc_init_array+0x24>
 80063bc:	f000 f822 	bl	8006404 <_init>
 80063c0:	2500      	movs	r5, #0
 80063c2:	4e0a      	ldr	r6, [pc, #40]	; (80063ec <__libc_init_array+0x40>)
 80063c4:	4c0a      	ldr	r4, [pc, #40]	; (80063f0 <__libc_init_array+0x44>)
 80063c6:	1ba4      	subs	r4, r4, r6
 80063c8:	10a4      	asrs	r4, r4, #2
 80063ca:	42a5      	cmp	r5, r4
 80063cc:	d105      	bne.n	80063da <__libc_init_array+0x2e>
 80063ce:	bd70      	pop	{r4, r5, r6, pc}
 80063d0:	f856 3025 	ldr.w	r3, [r6, r5, lsl #2]
 80063d4:	4798      	blx	r3
 80063d6:	3501      	adds	r5, #1
 80063d8:	e7ee      	b.n	80063b8 <__libc_init_array+0xc>
 80063da:	f856 3025 	ldr.w	r3, [r6, r5, lsl #2]
 80063de:	4798      	blx	r3
 80063e0:	3501      	adds	r5, #1
 80063e2:	e7f2      	b.n	80063ca <__libc_init_array+0x1e>
 80063e4:	0800648c 	.word	0x0800648c
 80063e8:	0800648c 	.word	0x0800648c
 80063ec:	0800648c 	.word	0x0800648c
 80063f0:	08006490 	.word	0x08006490

080063f4 <memset>:
 80063f4:	4603      	mov	r3, r0
 80063f6:	4402      	add	r2, r0
 80063f8:	4293      	cmp	r3, r2
 80063fa:	d100      	bne.n	80063fe <memset+0xa>
 80063fc:	4770      	bx	lr
 80063fe:	f803 1b01 	strb.w	r1, [r3], #1
 8006402:	e7f9      	b.n	80063f8 <memset+0x4>

08006404 <_init>:
 8006404:	b5f8      	push	{r3, r4, r5, r6, r7, lr}
 8006406:	bf00      	nop
 8006408:	bcf8      	pop	{r3, r4, r5, r6, r7}
 800640a:	bc08      	pop	{r3}
 800640c:	469e      	mov	lr, r3
 800640e:	4770      	bx	lr

08006410 <_fini>:
 8006410:	b5f8      	push	{r3, r4, r5, r6, r7, lr}
 8006412:	bf00      	nop
 8006414:	bcf8      	pop	{r3, r4, r5, r6, r7}
 8006416:	bc08      	pop	{r3}
 8006418:	469e      	mov	lr, r3
 800641a:	4770      	bx	lr
