
Front_ECU.elf:     file format elf32-littlearm

Sections:
Idx Name          Size      VMA       LMA       File off  Algn
  0 .isr_vector   0000010c  08000000  08000000  00010000  2**0
                  CONTENTS, ALLOC, LOAD, READONLY, DATA
  1 .text         000085d0  08000110  08000110  00010110  2**4
                  CONTENTS, ALLOC, LOAD, READONLY, CODE
  2 .rodata       00000148  080086e0  080086e0  000186e0  2**2
                  CONTENTS, ALLOC, LOAD, READONLY, DATA
  3 .ARM.extab    00000000  08008828  08008828  00020014  2**0
                  CONTENTS
  4 .ARM          00000000  08008828  08008828  00020014  2**0
                  CONTENTS
  5 .preinit_array 00000000  08008828  08008828  00020014  2**0
                  CONTENTS, ALLOC, LOAD, DATA
  6 .init_array   00000004  08008828  08008828  00018828  2**2
                  CONTENTS, ALLOC, LOAD, DATA
  7 .fini_array   00000004  0800882c  0800882c  0001882c  2**2
                  CONTENTS, ALLOC, LOAD, DATA
  8 .data         00000014  20000000  08008830  00020000  2**2
                  CONTENTS, ALLOC, LOAD, DATA
  9 .bss          00004770  20000014  08008844  00020014  2**2
                  ALLOC
 10 ._user_heap_stack 00000604  20004784  08008844  00024784  2**0
                  ALLOC
 11 .ARM.attributes 00000029  00000000  00000000  00020014  2**0
                  CONTENTS, READONLY
 12 .debug_info   0001d106  00000000  00000000  0002003d  2**0
                  CONTENTS, READONLY, DEBUGGING
 13 .debug_abbrev 00003926  00000000  00000000  0003d143  2**0
                  CONTENTS, READONLY, DEBUGGING
 14 .debug_aranges 00001958  00000000  00000000  00040a70  2**3
                  CONTENTS, READONLY, DEBUGGING
 15 .debug_ranges 000017a0  00000000  00000000  000423c8  2**3
                  CONTENTS, READONLY, DEBUGGING
 16 .debug_macro  000183f9  00000000  00000000  00043b68  2**0
                  CONTENTS, READONLY, DEBUGGING
 17 .debug_line   00014203  00000000  00000000  0005bf61  2**0
                  CONTENTS, READONLY, DEBUGGING
 18 .debug_str    0008876c  00000000  00000000  00070164  2**0
                  CONTENTS, READONLY, DEBUGGING
 19 .comment      0000007b  00000000  00000000  000f88d0  2**0
                  CONTENTS, READONLY
 20 .debug_frame  00006b24  00000000  00000000  000f894c  2**2
                  CONTENTS, READONLY, DEBUGGING

Disassembly of section .text:

08000110 <__do_global_dtors_aux>:
 8000110:	b510      	push	{r4, lr}
 8000112:	4c05      	ldr	r4, [pc, #20]	; (8000128 <__do_global_dtors_aux+0x18>)
 8000114:	7823      	ldrb	r3, [r4, #0]
 8000116:	b933      	cbnz	r3, 8000126 <__do_global_dtors_aux+0x16>
 8000118:	4b04      	ldr	r3, [pc, #16]	; (800012c <__do_global_dtors_aux+0x1c>)
 800011a:	b113      	cbz	r3, 8000122 <__do_global_dtors_aux+0x12>
 800011c:	4804      	ldr	r0, [pc, #16]	; (8000130 <__do_global_dtors_aux+0x20>)
 800011e:	f3af 8000 	nop.w
 8000122:	2301      	movs	r3, #1
 8000124:	7023      	strb	r3, [r4, #0]
 8000126:	bd10      	pop	{r4, pc}
 8000128:	20000014 	.word	0x20000014
 800012c:	00000000 	.word	0x00000000
 8000130:	080086c8 	.word	0x080086c8

08000134 <frame_dummy>:
 8000134:	b508      	push	{r3, lr}
 8000136:	4b03      	ldr	r3, [pc, #12]	; (8000144 <frame_dummy+0x10>)
 8000138:	b11b      	cbz	r3, 8000142 <frame_dummy+0xe>
 800013a:	4903      	ldr	r1, [pc, #12]	; (8000148 <frame_dummy+0x14>)
 800013c:	4803      	ldr	r0, [pc, #12]	; (800014c <frame_dummy+0x18>)
 800013e:	f3af 8000 	nop.w
 8000142:	bd08      	pop	{r3, pc}
 8000144:	00000000 	.word	0x00000000
 8000148:	20000018 	.word	0x20000018
 800014c:	080086c8 	.word	0x080086c8

08000150 <SEGGER_RTT_ASM_WriteSkipNoLock>:
        //   R4 <Rem>
        //   R5 pRing->pBuffer
        //   R6 pRing (Points to active struct SEGGER_RTT_BUFFER_DOWN)
        //   R7 WrOff
        //
        PUSH     {R4-R7}
 8000150:	b4f0      	push	{r4, r5, r6, r7}
        ADD      R3,R0,R0, LSL #+1
 8000152:	eb00 0340 	add.w	r3, r0, r0, lsl #1
        LDR.W    R0,=_SEGGER_RTT                 // pRing = &_SEGGER_RTT.aUp[BufferIndex];
 8000156:	f8df 0080 	ldr.w	r0, [pc, #128]	; 80001d8 <_Case3+0x6>
        ADD      R0,R0,R3, LSL #+3
 800015a:	eb00 00c3 	add.w	r0, r0, r3, lsl #3
        ADD      R6,R0,#+24
 800015e:	f100 0618 	add.w	r6, r0, #24
        LDR      R0,[R6, #+16]                   // RdOff = pRing->RdOff;
 8000162:	6930      	ldr	r0, [r6, #16]
        LDR      R7,[R6, #+12]                   // WrOff = pRing->WrOff;
 8000164:	68f7      	ldr	r7, [r6, #12]
        LDR      R5,[R6, #+4]                    // pRing->pBuffer
 8000166:	6875      	ldr	r5, [r6, #4]
        CMP      R7,R0
 8000168:	4287      	cmp	r7, r0
        BCC.N    _CheckCase4                     // if (RdOff <= WrOff) {                           => Case 1), 2) or 3)
 800016a:	d32e      	bcc.n	80001ca <_CheckCase4>
        //
        // Handling for case 1, later on identical to case 4
        //
        LDR      R3,[R6, #+8]                    //  Avail = pRing->SizeOfBuffer - WrOff - 1u;      => Space until wrap-around (assume 1 byte not usable for case that RdOff == 0)
 800016c:	68b3      	ldr	r3, [r6, #8]
        SUBS     R4,R3,R7                        // <Rem> (Used in case we jump into case 2 afterwards)
 800016e:	1bdc      	subs	r4, r3, r7
        SUBS     R3,R4,#+1                       // <Avail>
 8000170:	1e63      	subs	r3, r4, #1
        CMP      R3,R2
 8000172:	4293      	cmp	r3, r2
        BCC.N    _CheckCase2                     // if (Avail >= NumBytes) {  => Case 1)?
 8000174:	d312      	bcc.n	800019c <_CheckCase2>

08000176 <_Case4>:
_Case4:
        ADDS     R5,R7,R5                        // pBuffer += WrOff
 8000176:	197d      	adds	r5, r7, r5
        ADDS     R0,R2,R7                        // v = WrOff + NumBytes
 8000178:	19d0      	adds	r0, r2, r7
 800017a:	bf00      	nop

0800017c <_LoopCopyStraight>:
        // 2x unrolling for the copy loop that is used most of the time
        // This is a special optimization for small SystemView packets and makes them even faster
        //
        _ALIGN(2)
_LoopCopyStraight:                               // memcpy(pRing->pBuffer + WrOff, pData, NumBytes);
        LDRB     R3,[R1], #+1
 800017c:	f811 3b01 	ldrb.w	r3, [r1], #1
        STRB     R3,[R5], #+1                    // *pDest++ = *pSrc++
 8000180:	f805 3b01 	strb.w	r3, [r5], #1
        SUBS     R2,R2,#+1
 8000184:	3a01      	subs	r2, #1
        BEQ      _CSDone
 8000186:	d005      	beq.n	8000194 <_CSDone>
        LDRB     R3,[R1], #+1
 8000188:	f811 3b01 	ldrb.w	r3, [r1], #1
        STRB     R3,[R5], #+1                    // *pDest++ = *pSrc++
 800018c:	f805 3b01 	strb.w	r3, [r5], #1
        SUBS     R2,R2,#+1
 8000190:	3a01      	subs	r2, #1
        BNE      _LoopCopyStraight
 8000192:	d1f3      	bne.n	800017c <_LoopCopyStraight>

08000194 <_CSDone>:
_CSDone:
#if _CORE_NEEDS_DMB                              // Do not slow down cores that do not need a DMB instruction here
        DMB                                      // Cortex-M7 may delay memory writes and also change the order in which the writes happen. Therefore, make sure that all buffer writes are finished, before updating the <WrOff> in the struct
#endif
        STR      R0,[R6, #+12]                   // pRing->WrOff = WrOff + NumBytes;
 8000194:	60f0      	str	r0, [r6, #12]
        MOVS     R0,#+1
 8000196:	2001      	movs	r0, #1
        POP      {R4-R7}
 8000198:	bcf0      	pop	{r4, r5, r6, r7}
        BX       LR                              // Return 1
 800019a:	4770      	bx	lr

0800019c <_CheckCase2>:
_CheckCase2:
        ADDS     R0,R0,R3                        // Avail += RdOff; => Space incl. wrap-around
 800019c:	18c0      	adds	r0, r0, r3
        CMP      R0,R2
 800019e:	4290      	cmp	r0, r2
        BCC.N    _Case3                          // if (Avail >= NumBytes) {           => Case 2? => If not, we have case 3) (does not fit)
 80001a0:	d317      	bcc.n	80001d2 <_Case3>
        //
        // Handling for case 2
        //
        ADDS     R0,R7,R5                        // v = pRing->pBuffer + WrOff => Do not change pRing->pBuffer here because 2nd chunk needs org. value
 80001a2:	1978      	adds	r0, r7, r5
        SUBS     R2,R2,R4                        // NumBytes -= Rem;  (Rem = pRing->SizeOfBuffer - WrOff; => Space until end of buffer)
 80001a4:	1b12      	subs	r2, r2, r4

080001a6 <_LoopCopyBeforeWrapAround>:
_LoopCopyBeforeWrapAround:                       // memcpy(pRing->pBuffer + WrOff, pData, Rem); => Copy 1st chunk
        LDRB     R3,[R1], #+1
 80001a6:	f811 3b01 	ldrb.w	r3, [r1], #1
        STRB     R3,[R0], #+1                    // *pDest++ = *pSrc++
 80001aa:	f800 3b01 	strb.w	r3, [r0], #1
        SUBS     R4,R4,#+1
 80001ae:	3c01      	subs	r4, #1
        BNE      _LoopCopyBeforeWrapAround
 80001b0:	d1f9      	bne.n	80001a6 <_LoopCopyBeforeWrapAround>
        // Special case: First check that assumed RdOff == 0 calculated that last element before wrap-around could not be used
        // But 2nd check (considering space until wrap-around and until RdOff) revealed that RdOff is not 0, so we can use the last element
        // In this case, we may use a copy straight until buffer end anyway without needing to copy 2 chunks
        // Therefore, check if 2nd memcpy is necessary at all
        //
        ADDS     R4,R2,#+0                       // Save <NumBytes> (needed as counter in loop but must be written to <WrOff> after the loop). Also use this inst to update the flags to skip 2nd loop if possible
 80001b2:	1c14      	adds	r4, r2, #0
        BEQ.N    _No2ChunkNeeded                 // if (NumBytes) {
 80001b4:	d005      	beq.n	80001c2 <_No2ChunkNeeded>

080001b6 <_LoopCopyAfterWrapAround>:
_LoopCopyAfterWrapAround:                        // memcpy(pRing->pBuffer, pData + Rem, NumBytes);
        LDRB     R3,[R1], #+1                    // pData already points to the next src byte due to copy loop increment before this loop
 80001b6:	f811 3b01 	ldrb.w	r3, [r1], #1
        STRB     R3,[R5], #+1                    // *pDest++ = *pSrc++
 80001ba:	f805 3b01 	strb.w	r3, [r5], #1
        SUBS     R2,R2,#+1
 80001be:	3a01      	subs	r2, #1
        BNE      _LoopCopyAfterWrapAround
 80001c0:	d1f9      	bne.n	80001b6 <_LoopCopyAfterWrapAround>

080001c2 <_No2ChunkNeeded>:
_No2ChunkNeeded:
#if _CORE_NEEDS_DMB                              // Do not slow down cores that do not need a DMB instruction here
        DMB                                      // Cortex-M7 may delay memory writes and also change the order in which the writes happen. Therefore, make sure that all buffer writes are finished, before updating the <WrOff> in the struct
#endif
        STR      R4,[R6, #+12]                   // pRing->WrOff = NumBytes; => Must be written after copying data because J-Link may read control block asynchronously while writing into buffer
 80001c2:	60f4      	str	r4, [r6, #12]
        MOVS     R0,#+1
 80001c4:	2001      	movs	r0, #1
        POP      {R4-R7}
 80001c6:	bcf0      	pop	{r4, r5, r6, r7}
        BX       LR                              // Return 1
 80001c8:	4770      	bx	lr

080001ca <_CheckCase4>:
_CheckCase4:
        SUBS     R0,R0,R7
 80001ca:	1bc0      	subs	r0, r0, r7
        SUBS     R0,R0,#+1                       // Avail = RdOff - WrOff - 1u;
 80001cc:	3801      	subs	r0, #1
        CMP      R0,R2
 80001ce:	4290      	cmp	r0, r2
        BCS.N    _Case4                          // if (Avail >= NumBytes) {      => Case 4) == 1) ? => If not, we have case 5) == 3) (does not fit)
 80001d0:	d2d1      	bcs.n	8000176 <_Case4>

080001d2 <_Case3>:
_Case3:
        MOVS     R0,#+0
 80001d2:	2000      	movs	r0, #0
        POP      {R4-R7}
 80001d4:	bcf0      	pop	{r4, r5, r6, r7}
        BX       LR                              // Return 0
 80001d6:	4770      	bx	lr
        LDR.W    R0,=_SEGGER_RTT                 // pRing = &_SEGGER_RTT.aUp[BufferIndex];
 80001d8:	200046dc 	.word	0x200046dc

080001dc <vApplicationGetIdleTaskMemory>:
/* USER CODE BEGIN GET_IDLE_TASK_MEMORY */
static StaticTask_t xIdleTaskTCBBuffer;
static StackType_t xIdleStack[configMINIMAL_STACK_SIZE];
  
void vApplicationGetIdleTaskMemory( StaticTask_t **ppxIdleTaskTCBBuffer, StackType_t **ppxIdleTaskStackBuffer, uint32_t *pulIdleTaskStackSize )
{
 80001dc:	b480      	push	{r7}
 80001de:	b085      	sub	sp, #20
 80001e0:	af00      	add	r7, sp, #0
 80001e2:	60f8      	str	r0, [r7, #12]
 80001e4:	60b9      	str	r1, [r7, #8]
 80001e6:	607a      	str	r2, [r7, #4]
  *ppxIdleTaskTCBBuffer = &xIdleTaskTCBBuffer;
 80001e8:	68fb      	ldr	r3, [r7, #12]
 80001ea:	4a07      	ldr	r2, [pc, #28]	; (8000208 <vApplicationGetIdleTaskMemory+0x2c>)
 80001ec:	601a      	str	r2, [r3, #0]
  *ppxIdleTaskStackBuffer = &xIdleStack[0];
 80001ee:	68bb      	ldr	r3, [r7, #8]
 80001f0:	4a06      	ldr	r2, [pc, #24]	; (800020c <vApplicationGetIdleTaskMemory+0x30>)
 80001f2:	601a      	str	r2, [r3, #0]
  *pulIdleTaskStackSize = configMINIMAL_STACK_SIZE;
 80001f4:	687b      	ldr	r3, [r7, #4]
 80001f6:	f44f 7280 	mov.w	r2, #256	; 0x100
 80001fa:	601a      	str	r2, [r3, #0]
  /* place for user code */
}                   
 80001fc:	bf00      	nop
 80001fe:	3714      	adds	r7, #20
 8000200:	46bd      	mov	sp, r7
 8000202:	bc80      	pop	{r7}
 8000204:	4770      	bx	lr
 8000206:	bf00      	nop
 8000208:	20000030 	.word	0x20000030
 800020c:	20000084 	.word	0x20000084

08000210 <HAL_UART_RxCpltCallback>:
void CAN_Filter_Config(void);
/* USER CODE END PFP */

/* Private user code ---------------------------------------------------------*/
/* USER CODE BEGIN 0 */
void HAL_UART_RxCpltCallback(UART_HandleTypeDef *huart) {
 8000210:	b580      	push	{r7, lr}
 8000212:	b084      	sub	sp, #16
 8000214:	af00      	add	r7, sp, #0
 8000216:	6078      	str	r0, [r7, #4]
	if (GPS_in[0] == UBX_HEADER[0] && GPS_in[1] == UBX_HEADER[1]) {
 8000218:	4b16      	ldr	r3, [pc, #88]	; (8000274 <HAL_UART_RxCpltCallback+0x64>)
 800021a:	781b      	ldrb	r3, [r3, #0]
 800021c:	22b5      	movs	r2, #181	; 0xb5
 800021e:	4293      	cmp	r3, r2
 8000220:	d11b      	bne.n	800025a <HAL_UART_RxCpltCallback+0x4a>
 8000222:	4b14      	ldr	r3, [pc, #80]	; (8000274 <HAL_UART_RxCpltCallback+0x64>)
 8000224:	785b      	ldrb	r3, [r3, #1]
 8000226:	2262      	movs	r2, #98	; 0x62
 8000228:	4293      	cmp	r3, r2
 800022a:	d116      	bne.n	800025a <HAL_UART_RxCpltCallback+0x4a>
		for (int k = 0; k < 32; k++) {
 800022c:	2300      	movs	r3, #0
 800022e:	60fb      	str	r3, [r7, #12]
 8000230:	e00a      	b.n	8000248 <HAL_UART_RxCpltCallback+0x38>
			((unsigned char*) (&posllh))[k] = GPS_in[k + 2];
 8000232:	68fb      	ldr	r3, [r7, #12]
 8000234:	1c9a      	adds	r2, r3, #2
 8000236:	68fb      	ldr	r3, [r7, #12]
 8000238:	490f      	ldr	r1, [pc, #60]	; (8000278 <HAL_UART_RxCpltCallback+0x68>)
 800023a:	440b      	add	r3, r1
 800023c:	490d      	ldr	r1, [pc, #52]	; (8000274 <HAL_UART_RxCpltCallback+0x64>)
 800023e:	5c8a      	ldrb	r2, [r1, r2]
 8000240:	701a      	strb	r2, [r3, #0]
		for (int k = 0; k < 32; k++) {
 8000242:	68fb      	ldr	r3, [r7, #12]
 8000244:	3301      	adds	r3, #1
 8000246:	60fb      	str	r3, [r7, #12]
 8000248:	68fb      	ldr	r3, [r7, #12]
 800024a:	2b1f      	cmp	r3, #31
 800024c:	ddf1      	ble.n	8000232 <HAL_UART_RxCpltCallback+0x22>
		}
		HAL_UART_Receive_IT(&huart2, GPS_in, GPS_in_SIZE);
 800024e:	2224      	movs	r2, #36	; 0x24
 8000250:	4908      	ldr	r1, [pc, #32]	; (8000274 <HAL_UART_RxCpltCallback+0x64>)
 8000252:	480a      	ldr	r0, [pc, #40]	; (800027c <HAL_UART_RxCpltCallback+0x6c>)
 8000254:	f004 fc28 	bl	8004aa8 <HAL_UART_Receive_IT>
 8000258:	e007      	b.n	800026a <HAL_UART_RxCpltCallback+0x5a>
	}else{

		HAL_UART_Abort(&huart2);
 800025a:	4808      	ldr	r0, [pc, #32]	; (800027c <HAL_UART_RxCpltCallback+0x6c>)
 800025c:	f004 fc78 	bl	8004b50 <HAL_UART_Abort>
		HAL_UART_Receive_IT(&huart2, GPS_in, GPS_in_SIZE);
 8000260:	2224      	movs	r2, #36	; 0x24
 8000262:	4904      	ldr	r1, [pc, #16]	; (8000274 <HAL_UART_RxCpltCallback+0x64>)
 8000264:	4805      	ldr	r0, [pc, #20]	; (800027c <HAL_UART_RxCpltCallback+0x6c>)
 8000266:	f004 fc1f 	bl	8004aa8 <HAL_UART_Receive_IT>
	}
}
 800026a:	bf00      	nop
 800026c:	3710      	adds	r7, #16
 800026e:	46bd      	mov	sp, r7
 8000270:	bd80      	pop	{r7, pc}
 8000272:	bf00      	nop
 8000274:	20004624 	.word	0x20004624
 8000278:	20004584 	.word	0x20004584
 800027c:	2000464c 	.word	0x2000464c

08000280 <main>:

/**
 * @brief  The application entry point.
 * @retval int
 */
int main(void) {
 8000280:	b580      	push	{r7, lr}
 8000282:	b082      	sub	sp, #8
 8000284:	af02      	add	r7, sp, #8
	/* MCU Configuration--------------------------------------------------------*/

	/* Reset of all peripherals, Initializes the Flash interface and the Systick. */
	HAL_Init();
 8000286:	f001 f8b5 	bl	80013f4 <HAL_Init>
	HAL_Delay(2000);
 800028a:	f44f 60fa 	mov.w	r0, #2000	; 0x7d0
 800028e:	f001 f8e3 	bl	8001458 <HAL_Delay>

	/* Configure the system clock */
	SystemClock_Config();
 8000292:	f000 f8a1 	bl	80003d8 <SystemClock_Config>

	/* Initialize all configured peripherals */
	/* USER CODE BEGIN 1 */
	MX_GPIO_Init();
 8000296:	f000 f9e9 	bl	800066c <MX_GPIO_Init>
	MX_DMA_Init();
 800029a:	f000 f9c1 	bl	8000620 <MX_DMA_Init>
	MX_ADC1_Init();
 800029e:	f000 f8f7 	bl	8000490 <MX_ADC1_Init>
	MX_CAN_Init();
 80002a2:	f000 f933 	bl	800050c <MX_CAN_Init>
	MX_I2C1_Init();
 80002a6:	f000 fa4f 	bl	8000748 <MX_I2C1_Init>
	MX_USART2_UART_Init();
 80002aa:	f000 f98f 	bl	80005cc <MX_USART2_UART_Init>
	MX_USART1_UART_Init();
 80002ae:	f000 f963 	bl	8000578 <MX_USART1_UART_Init>

	DWT_CTRL |= (1 << 0);
 80002b2:	4b3d      	ldr	r3, [pc, #244]	; (80003a8 <main+0x128>)
 80002b4:	681b      	ldr	r3, [r3, #0]
 80002b6:	4a3c      	ldr	r2, [pc, #240]	; (80003a8 <main+0x128>)
 80002b8:	f043 0301 	orr.w	r3, r3, #1
 80002bc:	6013      	str	r3, [r2, #0]

	CAN_Filter_Config();
 80002be:	f000 fa71 	bl	80007a4 <CAN_Filter_Config>

	if (HAL_CAN_ActivateNotification(&hcan,
 80002c2:	f240 4103 	movw	r1, #1027	; 0x403
 80002c6:	4839      	ldr	r0, [pc, #228]	; (80003ac <main+0x12c>)
 80002c8:	f002 f897 	bl	80023fa <HAL_CAN_ActivateNotification>
 80002cc:	4603      	mov	r3, r0
 80002ce:	2b00      	cmp	r3, #0
 80002d0:	d001      	beq.n	80002d6 <main+0x56>
	CAN_IT_TX_MAILBOX_EMPTY | CAN_IT_RX_FIFO0_MSG_PENDING | CAN_IT_BUSOFF)
			!= HAL_OK) {
		Error_Handler();
 80002d2:	f000 fd59 	bl	8000d88 <Error_Handler>
	}

	if (HAL_CAN_Start(&hcan)) {
 80002d6:	4835      	ldr	r0, [pc, #212]	; (80003ac <main+0x12c>)
 80002d8:	f001 fe60 	bl	8001f9c <HAL_CAN_Start>
 80002dc:	4603      	mov	r3, r0
 80002de:	2b00      	cmp	r3, #0
 80002e0:	d001      	beq.n	80002e6 <main+0x66>
		Error_Handler();
 80002e2:	f000 fd51 	bl	8000d88 <Error_Handler>
	}

	HAL_ADC_Start_DMA(&hadc1, (uint32_t*) gas, 1);
 80002e6:	2201      	movs	r2, #1
 80002e8:	4931      	ldr	r1, [pc, #196]	; (80003b0 <main+0x130>)
 80002ea:	4832      	ldr	r0, [pc, #200]	; (80003b4 <main+0x134>)
 80002ec:	f001 f9ae 	bl	800164c <HAL_ADC_Start_DMA>

	HAL_UART_Receive_IT(&huart2, GPS_in, GPS_in_SIZE);
 80002f0:	2224      	movs	r2, #36	; 0x24
 80002f2:	4931      	ldr	r1, [pc, #196]	; (80003b8 <main+0x138>)
 80002f4:	4831      	ldr	r0, [pc, #196]	; (80003bc <main+0x13c>)
 80002f6:	f004 fbd7 	bl	8004aa8 <HAL_UART_Receive_IT>

	SEGGER_SYSVIEW_Conf();
 80002fa:	f006 fc95 	bl	8006c28 <SEGGER_SYSVIEW_Conf>
	SEGGER_SYSVIEW_Start();
 80002fe:	f007 fbd3 	bl	8007aa8 <SEGGER_SYSVIEW_Start>

	/* Start scheduler */
	xTaskCreate(Start_taskF, "StartTask", 128, NULL, 7, &Start_Task);
 8000302:	4b2f      	ldr	r3, [pc, #188]	; (80003c0 <main+0x140>)
 8000304:	9301      	str	r3, [sp, #4]
 8000306:	2307      	movs	r3, #7
 8000308:	9300      	str	r3, [sp, #0]
 800030a:	2300      	movs	r3, #0
 800030c:	2280      	movs	r2, #128	; 0x80
 800030e:	492d      	ldr	r1, [pc, #180]	; (80003c4 <main+0x144>)
 8000310:	482d      	ldr	r0, [pc, #180]	; (80003c8 <main+0x148>)
 8000312:	f005 f9c4 	bl	800569e <xTaskCreate>

	vTaskStartScheduler();
 8000316:	f005 fc5f 	bl	8005bd8 <vTaskStartScheduler>

	/* Infinite loop */
	while (1) {

		//if(!DATAFLAG){
		HAL_Delay(5000); /*JUST IN CASE*/
 800031a:	f241 3088 	movw	r0, #5000	; 0x1388
 800031e:	f001 f89b 	bl	8001458 <HAL_Delay>
		bsl[1] = 0xAA;
 8000322:	4b2a      	ldr	r3, [pc, #168]	; (80003cc <main+0x14c>)
 8000324:	22aa      	movs	r2, #170	; 0xaa
 8000326:	705a      	strb	r2, [r3, #1]
		bsl[11] = 0xBB;
 8000328:	4b28      	ldr	r3, [pc, #160]	; (80003cc <main+0x14c>)
 800032a:	22bb      	movs	r2, #187	; 0xbb
 800032c:	72da      	strb	r2, [r3, #11]
		bsl[21] = 0xCC;
 800032e:	4b27      	ldr	r3, [pc, #156]	; (80003cc <main+0x14c>)
 8000330:	22cc      	movs	r2, #204	; 0xcc
 8000332:	755a      	strb	r2, [r3, #21]
		bsl[0] = 0x00;
 8000334:	4b25      	ldr	r3, [pc, #148]	; (80003cc <main+0x14c>)
 8000336:	2200      	movs	r2, #0
 8000338:	701a      	strb	r2, [r3, #0]
		bsl[10] = 0x00;
 800033a:	4b24      	ldr	r3, [pc, #144]	; (80003cc <main+0x14c>)
 800033c:	2200      	movs	r2, #0
 800033e:	729a      	strb	r2, [r3, #10]
		bsl[20] = 0x00;
 8000340:	4b22      	ldr	r3, [pc, #136]	; (80003cc <main+0x14c>)
 8000342:	2200      	movs	r2, #0
 8000344:	751a      	strb	r2, [r3, #20]
		HAL_I2C_Master_Transmit(&hi2c1, (0x08 << 1), bsl, 26, 10);
 8000346:	230a      	movs	r3, #10
 8000348:	9300      	str	r3, [sp, #0]
 800034a:	231a      	movs	r3, #26
 800034c:	4a1f      	ldr	r2, [pc, #124]	; (80003cc <main+0x14c>)
 800034e:	2110      	movs	r1, #16
 8000350:	481f      	ldr	r0, [pc, #124]	; (80003d0 <main+0x150>)
 8000352:	f003 f8cf 	bl	80034f4 <HAL_I2C_Master_Transmit>
		HAL_GPIO_TogglePin(GPIOC, GPIO_PIN_13);
 8000356:	f44f 5100 	mov.w	r1, #8192	; 0x2000
 800035a:	481e      	ldr	r0, [pc, #120]	; (80003d4 <main+0x154>)
 800035c:	f002 ff89 	bl	8003272 <HAL_GPIO_TogglePin>
		HAL_Delay(5000); /*JUST IN CASE*/
 8000360:	f241 3088 	movw	r0, #5000	; 0x1388
 8000364:	f001 f878 	bl	8001458 <HAL_Delay>
		bsl[0] = 0xDD;
 8000368:	4b18      	ldr	r3, [pc, #96]	; (80003cc <main+0x14c>)
 800036a:	22dd      	movs	r2, #221	; 0xdd
 800036c:	701a      	strb	r2, [r3, #0]
		bsl[10] = 0xEE;
 800036e:	4b17      	ldr	r3, [pc, #92]	; (80003cc <main+0x14c>)
 8000370:	22ee      	movs	r2, #238	; 0xee
 8000372:	729a      	strb	r2, [r3, #10]
		bsl[20] = 0xFF;
 8000374:	4b15      	ldr	r3, [pc, #84]	; (80003cc <main+0x14c>)
 8000376:	22ff      	movs	r2, #255	; 0xff
 8000378:	751a      	strb	r2, [r3, #20]
		bsl[1] = 0x00;
 800037a:	4b14      	ldr	r3, [pc, #80]	; (80003cc <main+0x14c>)
 800037c:	2200      	movs	r2, #0
 800037e:	705a      	strb	r2, [r3, #1]
		bsl[11] = 0x00;
 8000380:	4b12      	ldr	r3, [pc, #72]	; (80003cc <main+0x14c>)
 8000382:	2200      	movs	r2, #0
 8000384:	72da      	strb	r2, [r3, #11]
		bsl[21] = 0x00;
 8000386:	4b11      	ldr	r3, [pc, #68]	; (80003cc <main+0x14c>)
 8000388:	2200      	movs	r2, #0
 800038a:	755a      	strb	r2, [r3, #21]
		HAL_I2C_Master_Transmit(&hi2c1, (0x08 << 1), bsl, 26, 10);
 800038c:	230a      	movs	r3, #10
 800038e:	9300      	str	r3, [sp, #0]
 8000390:	231a      	movs	r3, #26
 8000392:	4a0e      	ldr	r2, [pc, #56]	; (80003cc <main+0x14c>)
 8000394:	2110      	movs	r1, #16
 8000396:	480e      	ldr	r0, [pc, #56]	; (80003d0 <main+0x150>)
 8000398:	f003 f8ac 	bl	80034f4 <HAL_I2C_Master_Transmit>
		HAL_GPIO_TogglePin(GPIOC, GPIO_PIN_13);
 800039c:	f44f 5100 	mov.w	r1, #8192	; 0x2000
 80003a0:	480c      	ldr	r0, [pc, #48]	; (80003d4 <main+0x154>)
 80003a2:	f002 ff66 	bl	8003272 <HAL_GPIO_TogglePin>
		HAL_Delay(5000); /*JUST IN CASE*/
 80003a6:	e7b8      	b.n	800031a <main+0x9a>
 80003a8:	e0001000 	.word	0xe0001000
 80003ac:	200044d0 	.word	0x200044d0
 80003b0:	20004620 	.word	0x20004620
 80003b4:	20004514 	.word	0x20004514
 80003b8:	20004624 	.word	0x20004624
 80003bc:	2000464c 	.word	0x2000464c
 80003c0:	20004648 	.word	0x20004648
 80003c4:	080086e0 	.word	0x080086e0
 80003c8:	080007f1 	.word	0x080007f1
 80003cc:	200044f8 	.word	0x200044f8
 80003d0:	20004478 	.word	0x20004478
 80003d4:	40011000 	.word	0x40011000

080003d8 <SystemClock_Config>:

/**
 * @brief System Clock Configuration
 * @retval None
 */
void SystemClock_Config(void) {
 80003d8:	b580      	push	{r7, lr}
 80003da:	b094      	sub	sp, #80	; 0x50
 80003dc:	af00      	add	r7, sp, #0
	RCC_OscInitTypeDef RCC_OscInitStruct = { 0 };
 80003de:	f107 0328 	add.w	r3, r7, #40	; 0x28
 80003e2:	2228      	movs	r2, #40	; 0x28
 80003e4:	2100      	movs	r1, #0
 80003e6:	4618      	mov	r0, r3
 80003e8:	f008 f966 	bl	80086b8 <memset>
	RCC_ClkInitTypeDef RCC_ClkInitStruct = { 0 };
 80003ec:	f107 0314 	add.w	r3, r7, #20
 80003f0:	2200      	movs	r2, #0
 80003f2:	601a      	str	r2, [r3, #0]
 80003f4:	605a      	str	r2, [r3, #4]
 80003f6:	609a      	str	r2, [r3, #8]
 80003f8:	60da      	str	r2, [r3, #12]
 80003fa:	611a      	str	r2, [r3, #16]
	RCC_PeriphCLKInitTypeDef PeriphClkInit = { 0 };
 80003fc:	1d3b      	adds	r3, r7, #4
 80003fe:	2200      	movs	r2, #0
 8000400:	601a      	str	r2, [r3, #0]
 8000402:	605a      	str	r2, [r3, #4]
 8000404:	609a      	str	r2, [r3, #8]
 8000406:	60da      	str	r2, [r3, #12]

	/** Initializes the CPU, AHB and APB busses clocks
	 */
	RCC_OscInitStruct.OscillatorType = RCC_OSCILLATORTYPE_HSE;
 8000408:	2301      	movs	r3, #1
 800040a:	62bb      	str	r3, [r7, #40]	; 0x28
	RCC_OscInitStruct.HSEState = RCC_HSE_ON;
 800040c:	f44f 3380 	mov.w	r3, #65536	; 0x10000
 8000410:	62fb      	str	r3, [r7, #44]	; 0x2c
	RCC_OscInitStruct.HSEPredivValue = RCC_HSE_PREDIV_DIV1;
 8000412:	2300      	movs	r3, #0
 8000414:	633b      	str	r3, [r7, #48]	; 0x30
	RCC_OscInitStruct.HSIState = RCC_HSI_ON;
 8000416:	2301      	movs	r3, #1
 8000418:	63bb      	str	r3, [r7, #56]	; 0x38
	RCC_OscInitStruct.PLL.PLLState = RCC_PLL_ON;
 800041a:	2302      	movs	r3, #2
 800041c:	647b      	str	r3, [r7, #68]	; 0x44
	RCC_OscInitStruct.PLL.PLLSource = RCC_PLLSOURCE_HSE;
 800041e:	f44f 3380 	mov.w	r3, #65536	; 0x10000
 8000422:	64bb      	str	r3, [r7, #72]	; 0x48
	RCC_OscInitStruct.PLL.PLLMUL = RCC_PLL_MUL9;
 8000424:	f44f 13e0 	mov.w	r3, #1835008	; 0x1c0000
 8000428:	64fb      	str	r3, [r7, #76]	; 0x4c
	if (HAL_RCC_OscConfig(&RCC_OscInitStruct) != HAL_OK) {
 800042a:	f107 0328 	add.w	r3, r7, #40	; 0x28
 800042e:	4618      	mov	r0, r3
 8000430:	f003 fb5a 	bl	8003ae8 <HAL_RCC_OscConfig>
 8000434:	4603      	mov	r3, r0
 8000436:	2b00      	cmp	r3, #0
 8000438:	d001      	beq.n	800043e <SystemClock_Config+0x66>
		Error_Handler();
 800043a:	f000 fca5 	bl	8000d88 <Error_Handler>
	}
	/** Initializes the CPU, AHB and APB busses clocks
	 */
	RCC_ClkInitStruct.ClockType = RCC_CLOCKTYPE_HCLK | RCC_CLOCKTYPE_SYSCLK
 800043e:	230f      	movs	r3, #15
 8000440:	617b      	str	r3, [r7, #20]
			| RCC_CLOCKTYPE_PCLK1 | RCC_CLOCKTYPE_PCLK2;
	RCC_ClkInitStruct.SYSCLKSource = RCC_SYSCLKSOURCE_PLLCLK;
 8000442:	2302      	movs	r3, #2
 8000444:	61bb      	str	r3, [r7, #24]
	RCC_ClkInitStruct.AHBCLKDivider = RCC_SYSCLK_DIV1;
 8000446:	2300      	movs	r3, #0
 8000448:	61fb      	str	r3, [r7, #28]
	RCC_ClkInitStruct.APB1CLKDivider = RCC_HCLK_DIV2;
 800044a:	f44f 6380 	mov.w	r3, #1024	; 0x400
 800044e:	623b      	str	r3, [r7, #32]
	RCC_ClkInitStruct.APB2CLKDivider = RCC_HCLK_DIV1;
 8000450:	2300      	movs	r3, #0
 8000452:	627b      	str	r3, [r7, #36]	; 0x24

	if (HAL_RCC_ClockConfig(&RCC_ClkInitStruct, FLASH_LATENCY_2) != HAL_OK) {
 8000454:	f107 0314 	add.w	r3, r7, #20
 8000458:	2102      	movs	r1, #2
 800045a:	4618      	mov	r0, r3
 800045c:	f003 fdc4 	bl	8003fe8 <HAL_RCC_ClockConfig>
 8000460:	4603      	mov	r3, r0
 8000462:	2b00      	cmp	r3, #0
 8000464:	d001      	beq.n	800046a <SystemClock_Config+0x92>
		Error_Handler();
 8000466:	f000 fc8f 	bl	8000d88 <Error_Handler>
	}
	PeriphClkInit.PeriphClockSelection = RCC_PERIPHCLK_ADC;
 800046a:	2302      	movs	r3, #2
 800046c:	607b      	str	r3, [r7, #4]
	PeriphClkInit.AdcClockSelection = RCC_ADCPCLK2_DIV8;
 800046e:	f44f 4340 	mov.w	r3, #49152	; 0xc000
 8000472:	60fb      	str	r3, [r7, #12]
	if (HAL_RCCEx_PeriphCLKConfig(&PeriphClkInit) != HAL_OK) {
 8000474:	1d3b      	adds	r3, r7, #4
 8000476:	4618      	mov	r0, r3
 8000478:	f003 ff82 	bl	8004380 <HAL_RCCEx_PeriphCLKConfig>
 800047c:	4603      	mov	r3, r0
 800047e:	2b00      	cmp	r3, #0
 8000480:	d001      	beq.n	8000486 <SystemClock_Config+0xae>
		Error_Handler();
 8000482:	f000 fc81 	bl	8000d88 <Error_Handler>
	}
}
 8000486:	bf00      	nop
 8000488:	3750      	adds	r7, #80	; 0x50
 800048a:	46bd      	mov	sp, r7
 800048c:	bd80      	pop	{r7, pc}
	...

08000490 <MX_ADC1_Init>:
/**
 * @brief ADC1 Initialization Function
 * @param None
 * @retval None
 */
static void MX_ADC1_Init(void) {
 8000490:	b580      	push	{r7, lr}
 8000492:	b084      	sub	sp, #16
 8000494:	af00      	add	r7, sp, #0
	ADC_ChannelConfTypeDef sConfig = { 0 };
 8000496:	1d3b      	adds	r3, r7, #4
 8000498:	2200      	movs	r2, #0
 800049a:	601a      	str	r2, [r3, #0]
 800049c:	605a      	str	r2, [r3, #4]
 800049e:	609a      	str	r2, [r3, #8]

	/** Common config
	 */
	hadc1.Instance = ADC1;
 80004a0:	4b18      	ldr	r3, [pc, #96]	; (8000504 <MX_ADC1_Init+0x74>)
 80004a2:	4a19      	ldr	r2, [pc, #100]	; (8000508 <MX_ADC1_Init+0x78>)
 80004a4:	601a      	str	r2, [r3, #0]
	hadc1.Init.ScanConvMode = ADC_SCAN_DISABLE;
 80004a6:	4b17      	ldr	r3, [pc, #92]	; (8000504 <MX_ADC1_Init+0x74>)
 80004a8:	2200      	movs	r2, #0
 80004aa:	609a      	str	r2, [r3, #8]
	hadc1.Init.ContinuousConvMode = ENABLE;
 80004ac:	4b15      	ldr	r3, [pc, #84]	; (8000504 <MX_ADC1_Init+0x74>)
 80004ae:	2201      	movs	r2, #1
 80004b0:	731a      	strb	r2, [r3, #12]
	hadc1.Init.DiscontinuousConvMode = DISABLE;
 80004b2:	4b14      	ldr	r3, [pc, #80]	; (8000504 <MX_ADC1_Init+0x74>)
 80004b4:	2200      	movs	r2, #0
 80004b6:	751a      	strb	r2, [r3, #20]
	hadc1.Init.ExternalTrigConv = ADC_SOFTWARE_START;
 80004b8:	4b12      	ldr	r3, [pc, #72]	; (8000504 <MX_ADC1_Init+0x74>)
 80004ba:	f44f 2260 	mov.w	r2, #917504	; 0xe0000
 80004be:	61da      	str	r2, [r3, #28]
	hadc1.Init.DataAlign = ADC_DATAALIGN_RIGHT;
 80004c0:	4b10      	ldr	r3, [pc, #64]	; (8000504 <MX_ADC1_Init+0x74>)
 80004c2:	2200      	movs	r2, #0
 80004c4:	605a      	str	r2, [r3, #4]
	hadc1.Init.NbrOfConversion = 1;
 80004c6:	4b0f      	ldr	r3, [pc, #60]	; (8000504 <MX_ADC1_Init+0x74>)
 80004c8:	2201      	movs	r2, #1
 80004ca:	611a      	str	r2, [r3, #16]
	if (HAL_ADC_Init(&hadc1) != HAL_OK) {
 80004cc:	480d      	ldr	r0, [pc, #52]	; (8000504 <MX_ADC1_Init+0x74>)
 80004ce:	f000 ffe5 	bl	800149c <HAL_ADC_Init>
 80004d2:	4603      	mov	r3, r0
 80004d4:	2b00      	cmp	r3, #0
 80004d6:	d001      	beq.n	80004dc <MX_ADC1_Init+0x4c>
		Error_Handler();
 80004d8:	f000 fc56 	bl	8000d88 <Error_Handler>
	}
	/** Configure Regular Channel
	 */
	sConfig.Channel = ADC_CHANNEL_1;
 80004dc:	2301      	movs	r3, #1
 80004de:	607b      	str	r3, [r7, #4]
	sConfig.Rank = ADC_REGULAR_RANK_1;
 80004e0:	2301      	movs	r3, #1
 80004e2:	60bb      	str	r3, [r7, #8]
	sConfig.SamplingTime = ADC_SAMPLETIME_239CYCLES_5;
 80004e4:	2307      	movs	r3, #7
 80004e6:	60fb      	str	r3, [r7, #12]
	if (HAL_ADC_ConfigChannel(&hadc1, &sConfig) != HAL_OK) {
 80004e8:	1d3b      	adds	r3, r7, #4
 80004ea:	4619      	mov	r1, r3
 80004ec:	4805      	ldr	r0, [pc, #20]	; (8000504 <MX_ADC1_Init+0x74>)
 80004ee:	f001 f9a7 	bl	8001840 <HAL_ADC_ConfigChannel>
 80004f2:	4603      	mov	r3, r0
 80004f4:	2b00      	cmp	r3, #0
 80004f6:	d001      	beq.n	80004fc <MX_ADC1_Init+0x6c>
		Error_Handler();
 80004f8:	f000 fc46 	bl	8000d88 <Error_Handler>
	}
}
 80004fc:	bf00      	nop
 80004fe:	3710      	adds	r7, #16
 8000500:	46bd      	mov	sp, r7
 8000502:	bd80      	pop	{r7, pc}
 8000504:	20004514 	.word	0x20004514
 8000508:	40012400 	.word	0x40012400

0800050c <MX_CAN_Init>:
/**
 * @brief CAN Initialization Function
 * @param None
 * @retval None
 */
static void MX_CAN_Init(void) {
 800050c:	b580      	push	{r7, lr}
 800050e:	af00      	add	r7, sp, #0
	hcan.Instance = CAN1;
 8000510:	4b17      	ldr	r3, [pc, #92]	; (8000570 <MX_CAN_Init+0x64>)
 8000512:	4a18      	ldr	r2, [pc, #96]	; (8000574 <MX_CAN_Init+0x68>)
 8000514:	601a      	str	r2, [r3, #0]
	hcan.Init.Prescaler = 9;
 8000516:	4b16      	ldr	r3, [pc, #88]	; (8000570 <MX_CAN_Init+0x64>)
 8000518:	2209      	movs	r2, #9
 800051a:	605a      	str	r2, [r3, #4]
	hcan.Init.Mode = CAN_MODE_NORMAL;
 800051c:	4b14      	ldr	r3, [pc, #80]	; (8000570 <MX_CAN_Init+0x64>)
 800051e:	2200      	movs	r2, #0
 8000520:	609a      	str	r2, [r3, #8]
	hcan.Init.SyncJumpWidth = CAN_SJW_1TQ;
 8000522:	4b13      	ldr	r3, [pc, #76]	; (8000570 <MX_CAN_Init+0x64>)
 8000524:	2200      	movs	r2, #0
 8000526:	60da      	str	r2, [r3, #12]
	hcan.Init.TimeSeg1 = CAN_BS1_12TQ;
 8000528:	4b11      	ldr	r3, [pc, #68]	; (8000570 <MX_CAN_Init+0x64>)
 800052a:	f44f 2230 	mov.w	r2, #720896	; 0xb0000
 800052e:	611a      	str	r2, [r3, #16]
	hcan.Init.TimeSeg2 = CAN_BS2_3TQ;
 8000530:	4b0f      	ldr	r3, [pc, #60]	; (8000570 <MX_CAN_Init+0x64>)
 8000532:	f44f 1200 	mov.w	r2, #2097152	; 0x200000
 8000536:	615a      	str	r2, [r3, #20]
	hcan.Init.TimeTriggeredMode = DISABLE;
 8000538:	4b0d      	ldr	r3, [pc, #52]	; (8000570 <MX_CAN_Init+0x64>)
 800053a:	2200      	movs	r2, #0
 800053c:	761a      	strb	r2, [r3, #24]
	hcan.Init.AutoBusOff = ENABLE;
 800053e:	4b0c      	ldr	r3, [pc, #48]	; (8000570 <MX_CAN_Init+0x64>)
 8000540:	2201      	movs	r2, #1
 8000542:	765a      	strb	r2, [r3, #25]
	hcan.Init.AutoWakeUp = DISABLE;
 8000544:	4b0a      	ldr	r3, [pc, #40]	; (8000570 <MX_CAN_Init+0x64>)
 8000546:	2200      	movs	r2, #0
 8000548:	769a      	strb	r2, [r3, #26]
	hcan.Init.AutoRetransmission = ENABLE;
 800054a:	4b09      	ldr	r3, [pc, #36]	; (8000570 <MX_CAN_Init+0x64>)
 800054c:	2201      	movs	r2, #1
 800054e:	76da      	strb	r2, [r3, #27]
	hcan.Init.ReceiveFifoLocked = DISABLE;
 8000550:	4b07      	ldr	r3, [pc, #28]	; (8000570 <MX_CAN_Init+0x64>)
 8000552:	2200      	movs	r2, #0
 8000554:	771a      	strb	r2, [r3, #28]
	hcan.Init.TransmitFifoPriority = DISABLE;
 8000556:	4b06      	ldr	r3, [pc, #24]	; (8000570 <MX_CAN_Init+0x64>)
 8000558:	2200      	movs	r2, #0
 800055a:	775a      	strb	r2, [r3, #29]
	if (HAL_CAN_Init(&hcan) != HAL_OK) {
 800055c:	4804      	ldr	r0, [pc, #16]	; (8000570 <MX_CAN_Init+0x64>)
 800055e:	f001 fb59 	bl	8001c14 <HAL_CAN_Init>
 8000562:	4603      	mov	r3, r0
 8000564:	2b00      	cmp	r3, #0
 8000566:	d001      	beq.n	800056c <MX_CAN_Init+0x60>
		Error_Handler();
 8000568:	f000 fc0e 	bl	8000d88 <Error_Handler>
	}
}
 800056c:	bf00      	nop
 800056e:	bd80      	pop	{r7, pc}
 8000570:	200044d0 	.word	0x200044d0
 8000574:	40006400 	.word	0x40006400

08000578 <MX_USART1_UART_Init>:
/**
 * @brief USART1 Initialization Function
 * @param None
 * @retval None
 */
static void MX_USART1_UART_Init(void) {
 8000578:	b580      	push	{r7, lr}
 800057a:	af00      	add	r7, sp, #0
	huart1.Instance = USART1;
 800057c:	4b11      	ldr	r3, [pc, #68]	; (80005c4 <MX_USART1_UART_Init+0x4c>)
 800057e:	4a12      	ldr	r2, [pc, #72]	; (80005c8 <MX_USART1_UART_Init+0x50>)
 8000580:	601a      	str	r2, [r3, #0]
	huart1.Init.BaudRate = 115200;
 8000582:	4b10      	ldr	r3, [pc, #64]	; (80005c4 <MX_USART1_UART_Init+0x4c>)
 8000584:	f44f 32e1 	mov.w	r2, #115200	; 0x1c200
 8000588:	605a      	str	r2, [r3, #4]
	huart1.Init.WordLength = UART_WORDLENGTH_8B;
 800058a:	4b0e      	ldr	r3, [pc, #56]	; (80005c4 <MX_USART1_UART_Init+0x4c>)
 800058c:	2200      	movs	r2, #0
 800058e:	609a      	str	r2, [r3, #8]
	huart1.Init.StopBits = UART_STOPBITS_1;
 8000590:	4b0c      	ldr	r3, [pc, #48]	; (80005c4 <MX_USART1_UART_Init+0x4c>)
 8000592:	2200      	movs	r2, #0
 8000594:	60da      	str	r2, [r3, #12]
	huart1.Init.Parity = UART_PARITY_NONE;
 8000596:	4b0b      	ldr	r3, [pc, #44]	; (80005c4 <MX_USART1_UART_Init+0x4c>)
 8000598:	2200      	movs	r2, #0
 800059a:	611a      	str	r2, [r3, #16]
	huart1.Init.Mode = UART_MODE_TX;
 800059c:	4b09      	ldr	r3, [pc, #36]	; (80005c4 <MX_USART1_UART_Init+0x4c>)
 800059e:	2208      	movs	r2, #8
 80005a0:	615a      	str	r2, [r3, #20]
	huart1.Init.HwFlowCtl = UART_HWCONTROL_NONE;
 80005a2:	4b08      	ldr	r3, [pc, #32]	; (80005c4 <MX_USART1_UART_Init+0x4c>)
 80005a4:	2200      	movs	r2, #0
 80005a6:	619a      	str	r2, [r3, #24]
	huart1.Init.OverSampling = UART_OVERSAMPLING_16;
 80005a8:	4b06      	ldr	r3, [pc, #24]	; (80005c4 <MX_USART1_UART_Init+0x4c>)
 80005aa:	2200      	movs	r2, #0
 80005ac:	61da      	str	r2, [r3, #28]
	if (HAL_UART_Init(&huart1) != HAL_OK) {
 80005ae:	4805      	ldr	r0, [pc, #20]	; (80005c4 <MX_USART1_UART_Init+0x4c>)
 80005b0:	f004 f994 	bl	80048dc <HAL_UART_Init>
 80005b4:	4603      	mov	r3, r0
 80005b6:	2b00      	cmp	r3, #0
 80005b8:	d001      	beq.n	80005be <MX_USART1_UART_Init+0x46>
		Error_Handler();
 80005ba:	f000 fbe5 	bl	8000d88 <Error_Handler>
	}
}
 80005be:	bf00      	nop
 80005c0:	bd80      	pop	{r7, pc}
 80005c2:	bf00      	nop
 80005c4:	20004544 	.word	0x20004544
 80005c8:	40013800 	.word	0x40013800

080005cc <MX_USART2_UART_Init>:
/**
 * @brief USART2 Initialization Function
 * @param None
 * @retval None
 */
static void MX_USART2_UART_Init(void) {
 80005cc:	b580      	push	{r7, lr}
 80005ce:	af00      	add	r7, sp, #0
	huart2.Instance = USART2;
 80005d0:	4b11      	ldr	r3, [pc, #68]	; (8000618 <MX_USART2_UART_Init+0x4c>)
 80005d2:	4a12      	ldr	r2, [pc, #72]	; (800061c <MX_USART2_UART_Init+0x50>)
 80005d4:	601a      	str	r2, [r3, #0]
	huart2.Init.BaudRate = 115200;
 80005d6:	4b10      	ldr	r3, [pc, #64]	; (8000618 <MX_USART2_UART_Init+0x4c>)
 80005d8:	f44f 32e1 	mov.w	r2, #115200	; 0x1c200
 80005dc:	605a      	str	r2, [r3, #4]
	huart2.Init.WordLength = UART_WORDLENGTH_8B;
 80005de:	4b0e      	ldr	r3, [pc, #56]	; (8000618 <MX_USART2_UART_Init+0x4c>)
 80005e0:	2200      	movs	r2, #0
 80005e2:	609a      	str	r2, [r3, #8]
	huart2.Init.StopBits = UART_STOPBITS_1;
 80005e4:	4b0c      	ldr	r3, [pc, #48]	; (8000618 <MX_USART2_UART_Init+0x4c>)
 80005e6:	2200      	movs	r2, #0
 80005e8:	60da      	str	r2, [r3, #12]
	huart2.Init.Parity = UART_PARITY_NONE;
 80005ea:	4b0b      	ldr	r3, [pc, #44]	; (8000618 <MX_USART2_UART_Init+0x4c>)
 80005ec:	2200      	movs	r2, #0
 80005ee:	611a      	str	r2, [r3, #16]
	huart2.Init.Mode = UART_MODE_RX;
 80005f0:	4b09      	ldr	r3, [pc, #36]	; (8000618 <MX_USART2_UART_Init+0x4c>)
 80005f2:	2204      	movs	r2, #4
 80005f4:	615a      	str	r2, [r3, #20]
	huart2.Init.HwFlowCtl = UART_HWCONTROL_NONE;
 80005f6:	4b08      	ldr	r3, [pc, #32]	; (8000618 <MX_USART2_UART_Init+0x4c>)
 80005f8:	2200      	movs	r2, #0
 80005fa:	619a      	str	r2, [r3, #24]
	huart2.Init.OverSampling = UART_OVERSAMPLING_16;
 80005fc:	4b06      	ldr	r3, [pc, #24]	; (8000618 <MX_USART2_UART_Init+0x4c>)
 80005fe:	2200      	movs	r2, #0
 8000600:	61da      	str	r2, [r3, #28]
	if (HAL_UART_Init(&huart2) != HAL_OK) {
 8000602:	4805      	ldr	r0, [pc, #20]	; (8000618 <MX_USART2_UART_Init+0x4c>)
 8000604:	f004 f96a 	bl	80048dc <HAL_UART_Init>
 8000608:	4603      	mov	r3, r0
 800060a:	2b00      	cmp	r3, #0
 800060c:	d001      	beq.n	8000612 <MX_USART2_UART_Init+0x46>
		Error_Handler();
 800060e:	f000 fbbb 	bl	8000d88 <Error_Handler>
	}
}
 8000612:	bf00      	nop
 8000614:	bd80      	pop	{r7, pc}
 8000616:	bf00      	nop
 8000618:	2000464c 	.word	0x2000464c
 800061c:	40004400 	.word	0x40004400

08000620 <MX_DMA_Init>:

/**
 * Enable DMA controller clock
 */
static void MX_DMA_Init(void) {
 8000620:	b580      	push	{r7, lr}
 8000622:	b082      	sub	sp, #8
 8000624:	af00      	add	r7, sp, #0
	/* DMA controller clock enable */
	__HAL_RCC_DMA1_CLK_ENABLE();
 8000626:	4b10      	ldr	r3, [pc, #64]	; (8000668 <MX_DMA_Init+0x48>)
 8000628:	695b      	ldr	r3, [r3, #20]
 800062a:	4a0f      	ldr	r2, [pc, #60]	; (8000668 <MX_DMA_Init+0x48>)
 800062c:	f043 0301 	orr.w	r3, r3, #1
 8000630:	6153      	str	r3, [r2, #20]
 8000632:	4b0d      	ldr	r3, [pc, #52]	; (8000668 <MX_DMA_Init+0x48>)
 8000634:	695b      	ldr	r3, [r3, #20]
 8000636:	f003 0301 	and.w	r3, r3, #1
 800063a:	607b      	str	r3, [r7, #4]
 800063c:	687b      	ldr	r3, [r7, #4]

	/* DMA interrupt init */
	/* DMA1_Channel1_IRQn interrupt configuration */
	HAL_NVIC_SetPriority(DMA1_Channel1_IRQn, 5, 0);
 800063e:	2200      	movs	r2, #0
 8000640:	2105      	movs	r1, #5
 8000642:	200b      	movs	r0, #11
 8000644:	f002 f9d1 	bl	80029ea <HAL_NVIC_SetPriority>
	HAL_NVIC_EnableIRQ(DMA1_Channel1_IRQn);
 8000648:	200b      	movs	r0, #11
 800064a:	f002 f9ea 	bl	8002a22 <HAL_NVIC_EnableIRQ>
	/* DMA1_Channel6_IRQn interrupt configuration */
	HAL_NVIC_SetPriority(DMA1_Channel6_IRQn, 5, 0);
 800064e:	2200      	movs	r2, #0
 8000650:	2105      	movs	r1, #5
 8000652:	2010      	movs	r0, #16
 8000654:	f002 f9c9 	bl	80029ea <HAL_NVIC_SetPriority>
	HAL_NVIC_EnableIRQ(DMA1_Channel6_IRQn);
 8000658:	2010      	movs	r0, #16
 800065a:	f002 f9e2 	bl	8002a22 <HAL_NVIC_EnableIRQ>
}
 800065e:	bf00      	nop
 8000660:	3708      	adds	r7, #8
 8000662:	46bd      	mov	sp, r7
 8000664:	bd80      	pop	{r7, pc}
 8000666:	bf00      	nop
 8000668:	40021000 	.word	0x40021000

0800066c <MX_GPIO_Init>:
/**
 * @brief GPIO Initialization Function
 * @param None
 * @retval None
 */
static void MX_GPIO_Init(void) {
 800066c:	b580      	push	{r7, lr}
 800066e:	b088      	sub	sp, #32
 8000670:	af00      	add	r7, sp, #0
	GPIO_InitTypeDef GPIO_InitStruct = { 0 };
 8000672:	f107 0310 	add.w	r3, r7, #16
 8000676:	2200      	movs	r2, #0
 8000678:	601a      	str	r2, [r3, #0]
 800067a:	605a      	str	r2, [r3, #4]
 800067c:	609a      	str	r2, [r3, #8]
 800067e:	60da      	str	r2, [r3, #12]

	/* GPIO Ports Clock Enable */
	__HAL_RCC_GPIOC_CLK_ENABLE();
 8000680:	4b2e      	ldr	r3, [pc, #184]	; (800073c <MX_GPIO_Init+0xd0>)
 8000682:	699b      	ldr	r3, [r3, #24]
 8000684:	4a2d      	ldr	r2, [pc, #180]	; (800073c <MX_GPIO_Init+0xd0>)
 8000686:	f043 0310 	orr.w	r3, r3, #16
 800068a:	6193      	str	r3, [r2, #24]
 800068c:	4b2b      	ldr	r3, [pc, #172]	; (800073c <MX_GPIO_Init+0xd0>)
 800068e:	699b      	ldr	r3, [r3, #24]
 8000690:	f003 0310 	and.w	r3, r3, #16
 8000694:	60fb      	str	r3, [r7, #12]
 8000696:	68fb      	ldr	r3, [r7, #12]
	__HAL_RCC_GPIOD_CLK_ENABLE();
 8000698:	4b28      	ldr	r3, [pc, #160]	; (800073c <MX_GPIO_Init+0xd0>)
 800069a:	699b      	ldr	r3, [r3, #24]
 800069c:	4a27      	ldr	r2, [pc, #156]	; (800073c <MX_GPIO_Init+0xd0>)
 800069e:	f043 0320 	orr.w	r3, r3, #32
 80006a2:	6193      	str	r3, [r2, #24]
 80006a4:	4b25      	ldr	r3, [pc, #148]	; (800073c <MX_GPIO_Init+0xd0>)
 80006a6:	699b      	ldr	r3, [r3, #24]
 80006a8:	f003 0320 	and.w	r3, r3, #32
 80006ac:	60bb      	str	r3, [r7, #8]
 80006ae:	68bb      	ldr	r3, [r7, #8]
	__HAL_RCC_GPIOA_CLK_ENABLE();
 80006b0:	4b22      	ldr	r3, [pc, #136]	; (800073c <MX_GPIO_Init+0xd0>)
 80006b2:	699b      	ldr	r3, [r3, #24]
 80006b4:	4a21      	ldr	r2, [pc, #132]	; (800073c <MX_GPIO_Init+0xd0>)
 80006b6:	f043 0304 	orr.w	r3, r3, #4
 80006ba:	6193      	str	r3, [r2, #24]
 80006bc:	4b1f      	ldr	r3, [pc, #124]	; (800073c <MX_GPIO_Init+0xd0>)
 80006be:	699b      	ldr	r3, [r3, #24]
 80006c0:	f003 0304 	and.w	r3, r3, #4
 80006c4:	607b      	str	r3, [r7, #4]
 80006c6:	687b      	ldr	r3, [r7, #4]
	__HAL_RCC_GPIOB_CLK_ENABLE();
 80006c8:	4b1c      	ldr	r3, [pc, #112]	; (800073c <MX_GPIO_Init+0xd0>)
 80006ca:	699b      	ldr	r3, [r3, #24]
 80006cc:	4a1b      	ldr	r2, [pc, #108]	; (800073c <MX_GPIO_Init+0xd0>)
 80006ce:	f043 0308 	orr.w	r3, r3, #8
 80006d2:	6193      	str	r3, [r2, #24]
 80006d4:	4b19      	ldr	r3, [pc, #100]	; (800073c <MX_GPIO_Init+0xd0>)
 80006d6:	699b      	ldr	r3, [r3, #24]
 80006d8:	f003 0308 	and.w	r3, r3, #8
 80006dc:	603b      	str	r3, [r7, #0]
 80006de:	683b      	ldr	r3, [r7, #0]

	/*Configure GPIO pins : Gear_Pin Brake_Pin */
	GPIO_InitStruct.Pin = Gear_Pin | Brake_Pin;
 80006e0:	f44f 4340 	mov.w	r3, #49152	; 0xc000
 80006e4:	613b      	str	r3, [r7, #16]
	GPIO_InitStruct.Mode = GPIO_MODE_INPUT;
 80006e6:	2300      	movs	r3, #0
 80006e8:	617b      	str	r3, [r7, #20]
	GPIO_InitStruct.Pull = GPIO_NOPULL;
 80006ea:	2300      	movs	r3, #0
 80006ec:	61bb      	str	r3, [r7, #24]
	HAL_GPIO_Init(GPIOB, &GPIO_InitStruct);
 80006ee:	f107 0310 	add.w	r3, r7, #16
 80006f2:	4619      	mov	r1, r3
 80006f4:	4812      	ldr	r0, [pc, #72]	; (8000740 <MX_GPIO_Init+0xd4>)
 80006f6:	f002 fc4b 	bl	8002f90 <HAL_GPIO_Init>

	GPIO_InitStruct.Pin = GPIO_PIN_13;
 80006fa:	f44f 5300 	mov.w	r3, #8192	; 0x2000
 80006fe:	613b      	str	r3, [r7, #16]
	GPIO_InitStruct.Mode = GPIO_MODE_OUTPUT_PP;
 8000700:	2301      	movs	r3, #1
 8000702:	617b      	str	r3, [r7, #20]
	GPIO_InitStruct.Pull = GPIO_NOPULL;
 8000704:	2300      	movs	r3, #0
 8000706:	61bb      	str	r3, [r7, #24]
	GPIO_InitStruct.Speed = GPIO_SPEED_FREQ_LOW;
 8000708:	2302      	movs	r3, #2
 800070a:	61fb      	str	r3, [r7, #28]
	HAL_GPIO_Init(GPIOC, &GPIO_InitStruct);
 800070c:	f107 0310 	add.w	r3, r7, #16
 8000710:	4619      	mov	r1, r3
 8000712:	480c      	ldr	r0, [pc, #48]	; (8000744 <MX_GPIO_Init+0xd8>)
 8000714:	f002 fc3c 	bl	8002f90 <HAL_GPIO_Init>

	GPIO_InitStruct.Pin = GPIO_PIN_5;
 8000718:	2320      	movs	r3, #32
 800071a:	613b      	str	r3, [r7, #16]
	GPIO_InitStruct.Mode = GPIO_MODE_OUTPUT_PP;
 800071c:	2301      	movs	r3, #1
 800071e:	617b      	str	r3, [r7, #20]
	GPIO_InitStruct.Pull = GPIO_NOPULL;
 8000720:	2300      	movs	r3, #0
 8000722:	61bb      	str	r3, [r7, #24]
	GPIO_InitStruct.Speed = GPIO_SPEED_FREQ_LOW;
 8000724:	2302      	movs	r3, #2
 8000726:	61fb      	str	r3, [r7, #28]
	HAL_GPIO_Init(GPIOB, &GPIO_InitStruct);
 8000728:	f107 0310 	add.w	r3, r7, #16
 800072c:	4619      	mov	r1, r3
 800072e:	4804      	ldr	r0, [pc, #16]	; (8000740 <MX_GPIO_Init+0xd4>)
 8000730:	f002 fc2e 	bl	8002f90 <HAL_GPIO_Init>
}
 8000734:	bf00      	nop
 8000736:	3720      	adds	r7, #32
 8000738:	46bd      	mov	sp, r7
 800073a:	bd80      	pop	{r7, pc}
 800073c:	40021000 	.word	0x40021000
 8000740:	40010c00 	.word	0x40010c00
 8000744:	40011000 	.word	0x40011000

08000748 <MX_I2C1_Init>:
/**
 * @brief I2C1 Initialization Function
 * @param None
 * @retval None
 */
static void MX_I2C1_Init(void) {
 8000748:	b580      	push	{r7, lr}
 800074a:	af00      	add	r7, sp, #0
	/* USER CODE END I2C1_Init 0 */

	/* USER CODE BEGIN I2C1_Init 1 */

	/* USER CODE END I2C1_Init 1 */
	hi2c1.Instance = I2C1;
 800074c:	4b12      	ldr	r3, [pc, #72]	; (8000798 <MX_I2C1_Init+0x50>)
 800074e:	4a13      	ldr	r2, [pc, #76]	; (800079c <MX_I2C1_Init+0x54>)
 8000750:	601a      	str	r2, [r3, #0]
	hi2c1.Init.ClockSpeed = 400000;
 8000752:	4b11      	ldr	r3, [pc, #68]	; (8000798 <MX_I2C1_Init+0x50>)
 8000754:	4a12      	ldr	r2, [pc, #72]	; (80007a0 <MX_I2C1_Init+0x58>)
 8000756:	605a      	str	r2, [r3, #4]
	hi2c1.Init.DutyCycle = I2C_DUTYCYCLE_2;
 8000758:	4b0f      	ldr	r3, [pc, #60]	; (8000798 <MX_I2C1_Init+0x50>)
 800075a:	2200      	movs	r2, #0
 800075c:	609a      	str	r2, [r3, #8]
	hi2c1.Init.OwnAddress1 = 0;
 800075e:	4b0e      	ldr	r3, [pc, #56]	; (8000798 <MX_I2C1_Init+0x50>)
 8000760:	2200      	movs	r2, #0
 8000762:	60da      	str	r2, [r3, #12]
	hi2c1.Init.AddressingMode = I2C_ADDRESSINGMODE_7BIT;
 8000764:	4b0c      	ldr	r3, [pc, #48]	; (8000798 <MX_I2C1_Init+0x50>)
 8000766:	f44f 4280 	mov.w	r2, #16384	; 0x4000
 800076a:	611a      	str	r2, [r3, #16]
	hi2c1.Init.DualAddressMode = I2C_DUALADDRESS_DISABLE;
 800076c:	4b0a      	ldr	r3, [pc, #40]	; (8000798 <MX_I2C1_Init+0x50>)
 800076e:	2200      	movs	r2, #0
 8000770:	615a      	str	r2, [r3, #20]
	hi2c1.Init.OwnAddress2 = 0;
 8000772:	4b09      	ldr	r3, [pc, #36]	; (8000798 <MX_I2C1_Init+0x50>)
 8000774:	2200      	movs	r2, #0
 8000776:	619a      	str	r2, [r3, #24]
	hi2c1.Init.GeneralCallMode = I2C_GENERALCALL_DISABLE;
 8000778:	4b07      	ldr	r3, [pc, #28]	; (8000798 <MX_I2C1_Init+0x50>)
 800077a:	2200      	movs	r2, #0
 800077c:	61da      	str	r2, [r3, #28]
	hi2c1.Init.NoStretchMode = I2C_NOSTRETCH_ENABLE;
 800077e:	4b06      	ldr	r3, [pc, #24]	; (8000798 <MX_I2C1_Init+0x50>)
 8000780:	2280      	movs	r2, #128	; 0x80
 8000782:	621a      	str	r2, [r3, #32]
	if (HAL_I2C_Init(&hi2c1) != HAL_OK) {
 8000784:	4804      	ldr	r0, [pc, #16]	; (8000798 <MX_I2C1_Init+0x50>)
 8000786:	f002 fd8d 	bl	80032a4 <HAL_I2C_Init>
 800078a:	4603      	mov	r3, r0
 800078c:	2b00      	cmp	r3, #0
 800078e:	d001      	beq.n	8000794 <MX_I2C1_Init+0x4c>
		Error_Handler();
 8000790:	f000 fafa 	bl	8000d88 <Error_Handler>
	}
	/* USER CODE BEGIN I2C1_Init 2 */

	/* USER CODE END I2C1_Init 2 */

}
 8000794:	bf00      	nop
 8000796:	bd80      	pop	{r7, pc}
 8000798:	20004478 	.word	0x20004478
 800079c:	40005400 	.word	0x40005400
 80007a0:	00061a80 	.word	0x00061a80

080007a4 <CAN_Filter_Config>:

/*Configure CAN Filter */
void CAN_Filter_Config(void) {
 80007a4:	b580      	push	{r7, lr}
 80007a6:	b08a      	sub	sp, #40	; 0x28
 80007a8:	af00      	add	r7, sp, #0
	CAN_FilterTypeDef can_filt;
	can_filt.FilterActivation = ENABLE;
 80007aa:	2301      	movs	r3, #1
 80007ac:	623b      	str	r3, [r7, #32]
	can_filt.FilterBank = 0;
 80007ae:	2300      	movs	r3, #0
 80007b0:	617b      	str	r3, [r7, #20]
	can_filt.FilterFIFOAssignment = CAN_RX_FIFO0;
 80007b2:	2300      	movs	r3, #0
 80007b4:	613b      	str	r3, [r7, #16]
	can_filt.FilterIdHigh = 0x0000;
 80007b6:	2300      	movs	r3, #0
 80007b8:	603b      	str	r3, [r7, #0]
	can_filt.FilterIdLow = 0x0000;
 80007ba:	2300      	movs	r3, #0
 80007bc:	607b      	str	r3, [r7, #4]
	can_filt.FilterMaskIdHigh = 0x0000;
 80007be:	2300      	movs	r3, #0
 80007c0:	60bb      	str	r3, [r7, #8]
	can_filt.FilterMaskIdLow = 0x0000;
 80007c2:	2300      	movs	r3, #0
 80007c4:	60fb      	str	r3, [r7, #12]
	can_filt.FilterMode = CAN_FILTERMODE_IDMASK;
 80007c6:	2300      	movs	r3, #0
 80007c8:	61bb      	str	r3, [r7, #24]
	can_filt.FilterScale = CAN_FILTERSCALE_32BIT;
 80007ca:	2301      	movs	r3, #1
 80007cc:	61fb      	str	r3, [r7, #28]

	if (HAL_CAN_ConfigFilter(&hcan, &can_filt) != HAL_OK) {
 80007ce:	463b      	mov	r3, r7
 80007d0:	4619      	mov	r1, r3
 80007d2:	4806      	ldr	r0, [pc, #24]	; (80007ec <CAN_Filter_Config+0x48>)
 80007d4:	f001 fb19 	bl	8001e0a <HAL_CAN_ConfigFilter>
 80007d8:	4603      	mov	r3, r0
 80007da:	2b00      	cmp	r3, #0
 80007dc:	d001      	beq.n	80007e2 <CAN_Filter_Config+0x3e>
		Error_Handler();
 80007de:	f000 fad3 	bl	8000d88 <Error_Handler>
	}
}
 80007e2:	bf00      	nop
 80007e4:	3728      	adds	r7, #40	; 0x28
 80007e6:	46bd      	mov	sp, r7
 80007e8:	bd80      	pop	{r7, pc}
 80007ea:	bf00      	nop
 80007ec:	200044d0 	.word	0x200044d0

080007f0 <Start_taskF>:

/*Start Task */
void Start_taskF(void *pvParameters) {
 80007f0:	b580      	push	{r7, lr}
 80007f2:	b084      	sub	sp, #16
 80007f4:	af02      	add	r7, sp, #8
 80007f6:	6078      	str	r0, [r7, #4]

	xSemaphore = xSemaphoreCreateBinary();
 80007f8:	2203      	movs	r2, #3
 80007fa:	2100      	movs	r1, #0
 80007fc:	2001      	movs	r0, #1
 80007fe:	f004 fe93 	bl	8005528 <xQueueGenericCreate>
 8000802:	4602      	mov	r2, r0
 8000804:	4b2a      	ldr	r3, [pc, #168]	; (80008b0 <Start_taskF+0xc0>)
 8000806:	601a      	str	r2, [r3, #0]
	vTaskDelay(1);
 8000808:	2001      	movs	r0, #1
 800080a:	f005 f9ad 	bl	8005b68 <vTaskDelay>
	xTaskCreate(GPS_taskF, "GPSTask", 256, NULL, 3, &GPS_Task);
 800080e:	4b29      	ldr	r3, [pc, #164]	; (80008b4 <Start_taskF+0xc4>)
 8000810:	9301      	str	r3, [sp, #4]
 8000812:	2303      	movs	r3, #3
 8000814:	9300      	str	r3, [sp, #0]
 8000816:	2300      	movs	r3, #0
 8000818:	f44f 7280 	mov.w	r2, #256	; 0x100
 800081c:	4926      	ldr	r1, [pc, #152]	; (80008b8 <Start_taskF+0xc8>)
 800081e:	4827      	ldr	r0, [pc, #156]	; (80008bc <Start_taskF+0xcc>)
 8000820:	f004 ff3d 	bl	800569e <xTaskCreate>
	vTaskDelay(1);
 8000824:	2001      	movs	r0, #1
 8000826:	f005 f99f 	bl	8005b68 <vTaskDelay>
	xTaskCreate(Gear_Brake_taskF, "Gear_BrakeTask", 256, NULL, 2,
 800082a:	4b25      	ldr	r3, [pc, #148]	; (80008c0 <Start_taskF+0xd0>)
 800082c:	9301      	str	r3, [sp, #4]
 800082e:	2302      	movs	r3, #2
 8000830:	9300      	str	r3, [sp, #0]
 8000832:	2300      	movs	r3, #0
 8000834:	f44f 7280 	mov.w	r2, #256	; 0x100
 8000838:	4922      	ldr	r1, [pc, #136]	; (80008c4 <Start_taskF+0xd4>)
 800083a:	4823      	ldr	r0, [pc, #140]	; (80008c8 <Start_taskF+0xd8>)
 800083c:	f004 ff2f 	bl	800569e <xTaskCreate>
			&Gear_Brake_Task);
	vTaskDelay(1);
 8000840:	2001      	movs	r0, #1
 8000842:	f005 f991 	bl	8005b68 <vTaskDelay>
	xTaskCreate(Gas_taskF, "GasTask", 256, NULL, 2, &Gas_Task);
 8000846:	4b21      	ldr	r3, [pc, #132]	; (80008cc <Start_taskF+0xdc>)
 8000848:	9301      	str	r3, [sp, #4]
 800084a:	2302      	movs	r3, #2
 800084c:	9300      	str	r3, [sp, #0]
 800084e:	2300      	movs	r3, #0
 8000850:	f44f 7280 	mov.w	r2, #256	; 0x100
 8000854:	491e      	ldr	r1, [pc, #120]	; (80008d0 <Start_taskF+0xe0>)
 8000856:	481f      	ldr	r0, [pc, #124]	; (80008d4 <Start_taskF+0xe4>)
 8000858:	f004 ff21 	bl	800569e <xTaskCreate>
	vTaskDelay(1);
 800085c:	2001      	movs	r0, #1
 800085e:	f005 f983 	bl	8005b68 <vTaskDelay>
	xTaskCreate(Logger_taskF, "LoggerTask", 256, NULL, 1, &Logger_Task);
 8000862:	4b1d      	ldr	r3, [pc, #116]	; (80008d8 <Start_taskF+0xe8>)
 8000864:	9301      	str	r3, [sp, #4]
 8000866:	2301      	movs	r3, #1
 8000868:	9300      	str	r3, [sp, #0]
 800086a:	2300      	movs	r3, #0
 800086c:	f44f 7280 	mov.w	r2, #256	; 0x100
 8000870:	491a      	ldr	r1, [pc, #104]	; (80008dc <Start_taskF+0xec>)
 8000872:	481b      	ldr	r0, [pc, #108]	; (80008e0 <Start_taskF+0xf0>)
 8000874:	f004 ff13 	bl	800569e <xTaskCreate>
	vTaskDelay(1);
 8000878:	2001      	movs	r0, #1
 800087a:	f005 f975 	bl	8005b68 <vTaskDelay>
	xTaskCreate(Telemetry_taskF, "TelemetryTask",256, NULL, 6,
 800087e:	4b19      	ldr	r3, [pc, #100]	; (80008e4 <Start_taskF+0xf4>)
 8000880:	9301      	str	r3, [sp, #4]
 8000882:	2306      	movs	r3, #6
 8000884:	9300      	str	r3, [sp, #0]
 8000886:	2300      	movs	r3, #0
 8000888:	f44f 7280 	mov.w	r2, #256	; 0x100
 800088c:	4916      	ldr	r1, [pc, #88]	; (80008e8 <Start_taskF+0xf8>)
 800088e:	4817      	ldr	r0, [pc, #92]	; (80008ec <Start_taskF+0xfc>)
 8000890:	f004 ff05 	bl	800569e <xTaskCreate>
			&Telemetry_Task);

	if (Start_Task != NULL) {
 8000894:	4b16      	ldr	r3, [pc, #88]	; (80008f0 <Start_taskF+0x100>)
 8000896:	681b      	ldr	r3, [r3, #0]
 8000898:	2b00      	cmp	r3, #0
 800089a:	d004      	beq.n	80008a6 <Start_taskF+0xb6>
		vTaskDelete(Start_Task);
 800089c:	4b14      	ldr	r3, [pc, #80]	; (80008f0 <Start_taskF+0x100>)
 800089e:	681b      	ldr	r3, [r3, #0]
 80008a0:	4618      	mov	r0, r3
 80008a2:	f005 f847 	bl	8005934 <vTaskDelete>
	}

}
 80008a6:	bf00      	nop
 80008a8:	3708      	adds	r7, #8
 80008aa:	46bd      	mov	sp, r7
 80008ac:	bd80      	pop	{r7, pc}
 80008ae:	bf00      	nop
 80008b0:	200044cc 	.word	0x200044cc
 80008b4:	20004470 	.word	0x20004470
 80008b8:	080086ec 	.word	0x080086ec
 80008bc:	080008f5 	.word	0x080008f5
 80008c0:	20004424 	.word	0x20004424
 80008c4:	080086f4 	.word	0x080086f4
 80008c8:	08000a1d 	.word	0x08000a1d
 80008cc:	20004694 	.word	0x20004694
 80008d0:	08008704 	.word	0x08008704
 80008d4:	08000ac5 	.word	0x08000ac5
 80008d8:	2000468c 	.word	0x2000468c
 80008dc:	0800870c 	.word	0x0800870c
 80008e0:	08000b49 	.word	0x08000b49
 80008e4:	2000446c 	.word	0x2000446c
 80008e8:	08008718 	.word	0x08008718
 80008ec:	08000c15 	.word	0x08000c15
 80008f0:	20004648 	.word	0x20004648

080008f4 <GPS_taskF>:

/*GPS Read Task --- THIS TASK NEEDS TEST WITH HARDWARE */
void GPS_taskF(void *pvParameters) {
 80008f4:	b580      	push	{r7, lr}
 80008f6:	b094      	sub	sp, #80	; 0x50
 80008f8:	af00      	add	r7, sp, #0
 80008fa:	6078      	str	r0, [r7, #4]
	TickType_t xLastWakeTime;
	const TickType_t xFrequency = 200;  //Ticks to wait since routine starts
 80008fc:	23c8      	movs	r3, #200	; 0xc8
 80008fe:	64fb      	str	r3, [r7, #76]	; 0x4c
	xLastWakeTime = xTaskGetTickCount();
 8000900:	f005 fa76 	bl	8005df0 <xTaskGetTickCount>
 8000904:	4603      	mov	r3, r0
 8000906:	64bb      	str	r3, [r7, #72]	; 0x48
	while (1) {
		uint8_t LAT[4];
		LAT[0] = buffer[18] = posllh.lat >> 24;
 8000908:	4b41      	ldr	r3, [pc, #260]	; (8000a10 <GPS_taskF+0x11c>)
 800090a:	68db      	ldr	r3, [r3, #12]
 800090c:	161b      	asrs	r3, r3, #24
 800090e:	b2da      	uxtb	r2, r3
 8000910:	4b40      	ldr	r3, [pc, #256]	; (8000a14 <GPS_taskF+0x120>)
 8000912:	749a      	strb	r2, [r3, #18]
 8000914:	4b3f      	ldr	r3, [pc, #252]	; (8000a14 <GPS_taskF+0x120>)
 8000916:	7c9b      	ldrb	r3, [r3, #18]
 8000918:	f887 3044 	strb.w	r3, [r7, #68]	; 0x44
		LAT[1] = buffer[19] = posllh.lat >> 16;
 800091c:	4b3c      	ldr	r3, [pc, #240]	; (8000a10 <GPS_taskF+0x11c>)
 800091e:	68db      	ldr	r3, [r3, #12]
 8000920:	141b      	asrs	r3, r3, #16
 8000922:	b2da      	uxtb	r2, r3
 8000924:	4b3b      	ldr	r3, [pc, #236]	; (8000a14 <GPS_taskF+0x120>)
 8000926:	74da      	strb	r2, [r3, #19]
 8000928:	4b3a      	ldr	r3, [pc, #232]	; (8000a14 <GPS_taskF+0x120>)
 800092a:	7cdb      	ldrb	r3, [r3, #19]
 800092c:	f887 3045 	strb.w	r3, [r7, #69]	; 0x45
		LAT[2] = buffer[20] = posllh.lat >> 8;
 8000930:	4b37      	ldr	r3, [pc, #220]	; (8000a10 <GPS_taskF+0x11c>)
 8000932:	68db      	ldr	r3, [r3, #12]
 8000934:	121b      	asrs	r3, r3, #8
 8000936:	b2da      	uxtb	r2, r3
 8000938:	4b36      	ldr	r3, [pc, #216]	; (8000a14 <GPS_taskF+0x120>)
 800093a:	751a      	strb	r2, [r3, #20]
 800093c:	4b35      	ldr	r3, [pc, #212]	; (8000a14 <GPS_taskF+0x120>)
 800093e:	7d1b      	ldrb	r3, [r3, #20]
 8000940:	f887 3046 	strb.w	r3, [r7, #70]	; 0x46
		LAT[3] = buffer[21] = posllh.lat;
 8000944:	4b32      	ldr	r3, [pc, #200]	; (8000a10 <GPS_taskF+0x11c>)
 8000946:	68db      	ldr	r3, [r3, #12]
 8000948:	b2da      	uxtb	r2, r3
 800094a:	4b32      	ldr	r3, [pc, #200]	; (8000a14 <GPS_taskF+0x120>)
 800094c:	755a      	strb	r2, [r3, #21]
 800094e:	4b31      	ldr	r3, [pc, #196]	; (8000a14 <GPS_taskF+0x120>)
 8000950:	7d5b      	ldrb	r3, [r3, #21]
 8000952:	f887 3047 	strb.w	r3, [r7, #71]	; 0x47

		uint32_t TxMailbox;

		CAN_TxHeaderTypeDef LATHeader;

		LATHeader.DLC = 4;
 8000956:	2304      	movs	r3, #4
 8000958:	63bb      	str	r3, [r7, #56]	; 0x38
		LATHeader.StdId = 0x664;
 800095a:	f240 6364 	movw	r3, #1636	; 0x664
 800095e:	62bb      	str	r3, [r7, #40]	; 0x28
		LATHeader.IDE = CAN_ID_STD;
 8000960:	2300      	movs	r3, #0
 8000962:	633b      	str	r3, [r7, #48]	; 0x30
		LATHeader.RTR = CAN_RTR_DATA;
 8000964:	2300      	movs	r3, #0
 8000966:	637b      	str	r3, [r7, #52]	; 0x34

		if (HAL_CAN_AddTxMessage(&hcan, &LATHeader, LAT, &TxMailbox)
 8000968:	f107 0340 	add.w	r3, r7, #64	; 0x40
 800096c:	f107 0244 	add.w	r2, r7, #68	; 0x44
 8000970:	f107 0128 	add.w	r1, r7, #40	; 0x28
 8000974:	4828      	ldr	r0, [pc, #160]	; (8000a18 <GPS_taskF+0x124>)
 8000976:	f001 fb55 	bl	8002024 <HAL_CAN_AddTxMessage>
 800097a:	4603      	mov	r3, r0
 800097c:	2b00      	cmp	r3, #0
 800097e:	d001      	beq.n	8000984 <GPS_taskF+0x90>
				!= HAL_OK) {
			Error_Handler();
 8000980:	f000 fa02 	bl	8000d88 <Error_Handler>
		}
		uint8_t LON[4];
		LON[0] = buffer[22] = posllh.lon >> 24;
 8000984:	4b22      	ldr	r3, [pc, #136]	; (8000a10 <GPS_taskF+0x11c>)
 8000986:	689b      	ldr	r3, [r3, #8]
 8000988:	161b      	asrs	r3, r3, #24
 800098a:	b2da      	uxtb	r2, r3
 800098c:	4b21      	ldr	r3, [pc, #132]	; (8000a14 <GPS_taskF+0x120>)
 800098e:	759a      	strb	r2, [r3, #22]
 8000990:	4b20      	ldr	r3, [pc, #128]	; (8000a14 <GPS_taskF+0x120>)
 8000992:	7d9b      	ldrb	r3, [r3, #22]
 8000994:	f887 3024 	strb.w	r3, [r7, #36]	; 0x24
		LON[1] = buffer[23] = posllh.lon >> 16;
 8000998:	4b1d      	ldr	r3, [pc, #116]	; (8000a10 <GPS_taskF+0x11c>)
 800099a:	689b      	ldr	r3, [r3, #8]
 800099c:	141b      	asrs	r3, r3, #16
 800099e:	b2da      	uxtb	r2, r3
 80009a0:	4b1c      	ldr	r3, [pc, #112]	; (8000a14 <GPS_taskF+0x120>)
 80009a2:	75da      	strb	r2, [r3, #23]
 80009a4:	4b1b      	ldr	r3, [pc, #108]	; (8000a14 <GPS_taskF+0x120>)
 80009a6:	7ddb      	ldrb	r3, [r3, #23]
 80009a8:	f887 3025 	strb.w	r3, [r7, #37]	; 0x25
		LON[2] = buffer[24] = posllh.lon >> 8;
 80009ac:	4b18      	ldr	r3, [pc, #96]	; (8000a10 <GPS_taskF+0x11c>)
 80009ae:	689b      	ldr	r3, [r3, #8]
 80009b0:	121b      	asrs	r3, r3, #8
 80009b2:	b2da      	uxtb	r2, r3
 80009b4:	4b17      	ldr	r3, [pc, #92]	; (8000a14 <GPS_taskF+0x120>)
 80009b6:	761a      	strb	r2, [r3, #24]
 80009b8:	4b16      	ldr	r3, [pc, #88]	; (8000a14 <GPS_taskF+0x120>)
 80009ba:	7e1b      	ldrb	r3, [r3, #24]
 80009bc:	f887 3026 	strb.w	r3, [r7, #38]	; 0x26
		LON[3] = buffer[25] = posllh.lon;
 80009c0:	4b13      	ldr	r3, [pc, #76]	; (8000a10 <GPS_taskF+0x11c>)
 80009c2:	689b      	ldr	r3, [r3, #8]
 80009c4:	b2da      	uxtb	r2, r3
 80009c6:	4b13      	ldr	r3, [pc, #76]	; (8000a14 <GPS_taskF+0x120>)
 80009c8:	765a      	strb	r2, [r3, #25]
 80009ca:	4b12      	ldr	r3, [pc, #72]	; (8000a14 <GPS_taskF+0x120>)
 80009cc:	7e5b      	ldrb	r3, [r3, #25]
 80009ce:	f887 3027 	strb.w	r3, [r7, #39]	; 0x27

		CAN_TxHeaderTypeDef LONHeader;

		LONHeader.DLC = 4;
 80009d2:	2304      	movs	r3, #4
 80009d4:	61fb      	str	r3, [r7, #28]
		LONHeader.StdId = 0x665;
 80009d6:	f240 6365 	movw	r3, #1637	; 0x665
 80009da:	60fb      	str	r3, [r7, #12]
		LONHeader.IDE = CAN_ID_STD;
 80009dc:	2300      	movs	r3, #0
 80009de:	617b      	str	r3, [r7, #20]
		LONHeader.RTR = CAN_RTR_DATA;
 80009e0:	2300      	movs	r3, #0
 80009e2:	61bb      	str	r3, [r7, #24]

		if (HAL_CAN_AddTxMessage(&hcan, &LONHeader, LON, &TxMailbox)
 80009e4:	f107 0340 	add.w	r3, r7, #64	; 0x40
 80009e8:	f107 0224 	add.w	r2, r7, #36	; 0x24
 80009ec:	f107 010c 	add.w	r1, r7, #12
 80009f0:	4809      	ldr	r0, [pc, #36]	; (8000a18 <GPS_taskF+0x124>)
 80009f2:	f001 fb17 	bl	8002024 <HAL_CAN_AddTxMessage>
 80009f6:	4603      	mov	r3, r0
 80009f8:	2b00      	cmp	r3, #0
 80009fa:	d001      	beq.n	8000a00 <GPS_taskF+0x10c>
				!= HAL_OK) {
			Error_Handler();
 80009fc:	f000 f9c4 	bl	8000d88 <Error_Handler>
		}
		vTaskDelayUntil(&xLastWakeTime, xFrequency); /*5Hz frequency*/
 8000a00:	f107 0348 	add.w	r3, r7, #72	; 0x48
 8000a04:	6cf9      	ldr	r1, [r7, #76]	; 0x4c
 8000a06:	4618      	mov	r0, r3
 8000a08:	f005 f830 	bl	8005a6c <vTaskDelayUntil>
	while (1) {
 8000a0c:	e77c      	b.n	8000908 <GPS_taskF+0x14>
 8000a0e:	bf00      	nop
 8000a10:	20004584 	.word	0x20004584
 8000a14:	200045a4 	.word	0x200045a4
 8000a18:	200044d0 	.word	0x200044d0

08000a1c <Gear_Brake_taskF>:
	}
}

/*Gear an Brake Read Task */
void Gear_Brake_taskF(void *pvParameters) {
 8000a1c:	b580      	push	{r7, lr}
 8000a1e:	b08c      	sub	sp, #48	; 0x30
 8000a20:	af00      	add	r7, sp, #0
 8000a22:	6078      	str	r0, [r7, #4]
	TickType_t xLastWakeTime;
	const TickType_t xFrequency = 10;  //Ticks to wait since routine starts
 8000a24:	230a      	movs	r3, #10
 8000a26:	62fb      	str	r3, [r7, #44]	; 0x2c
	xLastWakeTime = xTaskGetTickCount();
 8000a28:	f005 f9e2 	bl	8005df0 <xTaskGetTickCount>
 8000a2c:	4603      	mov	r3, r0
 8000a2e:	62bb      	str	r3, [r7, #40]	; 0x28
	while (1) {
		gear = HAL_GPIO_ReadPin(GPIOB, Gear_Pin);
 8000a30:	f44f 4180 	mov.w	r1, #16384	; 0x4000
 8000a34:	481e      	ldr	r0, [pc, #120]	; (8000ab0 <Gear_Brake_taskF+0x94>)
 8000a36:	f002 fc05 	bl	8003244 <HAL_GPIO_ReadPin>
 8000a3a:	4603      	mov	r3, r0
 8000a3c:	461a      	mov	r2, r3
 8000a3e:	4b1d      	ldr	r3, [pc, #116]	; (8000ab4 <Gear_Brake_taskF+0x98>)
 8000a40:	701a      	strb	r2, [r3, #0]
		brake = HAL_GPIO_ReadPin(GPIOB, Brake_Pin);
 8000a42:	f44f 4100 	mov.w	r1, #32768	; 0x8000
 8000a46:	481a      	ldr	r0, [pc, #104]	; (8000ab0 <Gear_Brake_taskF+0x94>)
 8000a48:	f002 fbfc 	bl	8003244 <HAL_GPIO_ReadPin>
 8000a4c:	4603      	mov	r3, r0
 8000a4e:	461a      	mov	r2, r3
 8000a50:	4b19      	ldr	r3, [pc, #100]	; (8000ab8 <Gear_Brake_taskF+0x9c>)
 8000a52:	701a      	strb	r2, [r3, #0]
		uint8_t GBbuff[2];
		GBbuff[0] = buffer[0] = gear;
 8000a54:	4b17      	ldr	r3, [pc, #92]	; (8000ab4 <Gear_Brake_taskF+0x98>)
 8000a56:	781a      	ldrb	r2, [r3, #0]
 8000a58:	4b18      	ldr	r3, [pc, #96]	; (8000abc <Gear_Brake_taskF+0xa0>)
 8000a5a:	701a      	strb	r2, [r3, #0]
 8000a5c:	4b17      	ldr	r3, [pc, #92]	; (8000abc <Gear_Brake_taskF+0xa0>)
 8000a5e:	781b      	ldrb	r3, [r3, #0]
 8000a60:	f887 3024 	strb.w	r3, [r7, #36]	; 0x24
		GBbuff[1] = buffer[1] = brake;
 8000a64:	4b14      	ldr	r3, [pc, #80]	; (8000ab8 <Gear_Brake_taskF+0x9c>)
 8000a66:	781a      	ldrb	r2, [r3, #0]
 8000a68:	4b14      	ldr	r3, [pc, #80]	; (8000abc <Gear_Brake_taskF+0xa0>)
 8000a6a:	705a      	strb	r2, [r3, #1]
 8000a6c:	4b13      	ldr	r3, [pc, #76]	; (8000abc <Gear_Brake_taskF+0xa0>)
 8000a6e:	785b      	ldrb	r3, [r3, #1]
 8000a70:	f887 3025 	strb.w	r3, [r7, #37]	; 0x25

		uint32_t TxMailbox;

		CAN_TxHeaderTypeDef GBHeader;

		GBHeader.DLC = 2;
 8000a74:	2302      	movs	r3, #2
 8000a76:	61bb      	str	r3, [r7, #24]
		GBHeader.StdId = 0x657;
 8000a78:	f240 6357 	movw	r3, #1623	; 0x657
 8000a7c:	60bb      	str	r3, [r7, #8]
		GBHeader.IDE = CAN_ID_STD;
 8000a7e:	2300      	movs	r3, #0
 8000a80:	613b      	str	r3, [r7, #16]
		GBHeader.RTR = CAN_RTR_DATA;
 8000a82:	2300      	movs	r3, #0
 8000a84:	617b      	str	r3, [r7, #20]

		if (HAL_CAN_AddTxMessage(&hcan, &GBHeader, GBbuff, &TxMailbox)
 8000a86:	f107 0320 	add.w	r3, r7, #32
 8000a8a:	f107 0224 	add.w	r2, r7, #36	; 0x24
 8000a8e:	f107 0108 	add.w	r1, r7, #8
 8000a92:	480b      	ldr	r0, [pc, #44]	; (8000ac0 <Gear_Brake_taskF+0xa4>)
 8000a94:	f001 fac6 	bl	8002024 <HAL_CAN_AddTxMessage>
 8000a98:	4603      	mov	r3, r0
 8000a9a:	2b00      	cmp	r3, #0
 8000a9c:	d001      	beq.n	8000aa2 <Gear_Brake_taskF+0x86>
				!= HAL_OK) {
			Error_Handler();
 8000a9e:	f000 f973 	bl	8000d88 <Error_Handler>
		}
		vTaskDelayUntil(&xLastWakeTime, xFrequency); /*100Hz frequency*/
 8000aa2:	f107 0328 	add.w	r3, r7, #40	; 0x28
 8000aa6:	6af9      	ldr	r1, [r7, #44]	; 0x2c
 8000aa8:	4618      	mov	r0, r3
 8000aaa:	f004 ffdf 	bl	8005a6c <vTaskDelayUntil>
	while (1) {
 8000aae:	e7bf      	b.n	8000a30 <Gear_Brake_taskF+0x14>
 8000ab0:	40010c00 	.word	0x40010c00
 8000ab4:	20004474 	.word	0x20004474
 8000ab8:	20004690 	.word	0x20004690
 8000abc:	200045a4 	.word	0x200045a4
 8000ac0:	200044d0 	.word	0x200044d0

08000ac4 <Gas_taskF>:
	}
}

/*Gas pedal Read Task */
void Gas_taskF(void *pvParameters) {
 8000ac4:	b580      	push	{r7, lr}
 8000ac6:	b08c      	sub	sp, #48	; 0x30
 8000ac8:	af00      	add	r7, sp, #0
 8000aca:	6078      	str	r0, [r7, #4]
	TickType_t xLastWakeTime;
	const TickType_t xFrequency = 10;  //Ticks to wait since routine starts
 8000acc:	230a      	movs	r3, #10
 8000ace:	62fb      	str	r3, [r7, #44]	; 0x2c
	xLastWakeTime = xTaskGetTickCount();
 8000ad0:	f005 f98e 	bl	8005df0 <xTaskGetTickCount>
 8000ad4:	4603      	mov	r3, r0
 8000ad6:	62bb      	str	r3, [r7, #40]	; 0x28
	while (1) {
		uint8_t gasbuff[2];
		gasbuff[0] = buffer[2] = (uint8_t) (gas[0] >> 8) & 0xFF;
 8000ad8:	4b18      	ldr	r3, [pc, #96]	; (8000b3c <Gas_taskF+0x78>)
 8000ada:	881b      	ldrh	r3, [r3, #0]
 8000adc:	0a1b      	lsrs	r3, r3, #8
 8000ade:	b29b      	uxth	r3, r3
 8000ae0:	b2da      	uxtb	r2, r3
 8000ae2:	4b17      	ldr	r3, [pc, #92]	; (8000b40 <Gas_taskF+0x7c>)
 8000ae4:	709a      	strb	r2, [r3, #2]
 8000ae6:	4b16      	ldr	r3, [pc, #88]	; (8000b40 <Gas_taskF+0x7c>)
 8000ae8:	789b      	ldrb	r3, [r3, #2]
 8000aea:	f887 3024 	strb.w	r3, [r7, #36]	; 0x24
		gasbuff[1] = buffer[3] = (uint8_t) gas[0] & 0xFF;
 8000aee:	4b13      	ldr	r3, [pc, #76]	; (8000b3c <Gas_taskF+0x78>)
 8000af0:	881b      	ldrh	r3, [r3, #0]
 8000af2:	b2da      	uxtb	r2, r3
 8000af4:	4b12      	ldr	r3, [pc, #72]	; (8000b40 <Gas_taskF+0x7c>)
 8000af6:	70da      	strb	r2, [r3, #3]
 8000af8:	4b11      	ldr	r3, [pc, #68]	; (8000b40 <Gas_taskF+0x7c>)
 8000afa:	78db      	ldrb	r3, [r3, #3]
 8000afc:	f887 3025 	strb.w	r3, [r7, #37]	; 0x25

		uint32_t TxMailbox;

		CAN_TxHeaderTypeDef GasHeader;

		GasHeader.DLC = 2;
 8000b00:	2302      	movs	r3, #2
 8000b02:	61bb      	str	r3, [r7, #24]
		GasHeader.StdId = 0x656;
 8000b04:	f240 6356 	movw	r3, #1622	; 0x656
 8000b08:	60bb      	str	r3, [r7, #8]
		GasHeader.IDE = CAN_ID_STD;
 8000b0a:	2300      	movs	r3, #0
 8000b0c:	613b      	str	r3, [r7, #16]
		GasHeader.RTR = CAN_RTR_DATA;
 8000b0e:	2300      	movs	r3, #0
 8000b10:	617b      	str	r3, [r7, #20]

		if (HAL_CAN_AddTxMessage(&hcan, &GasHeader, gasbuff, &TxMailbox)
 8000b12:	f107 0320 	add.w	r3, r7, #32
 8000b16:	f107 0224 	add.w	r2, r7, #36	; 0x24
 8000b1a:	f107 0108 	add.w	r1, r7, #8
 8000b1e:	4809      	ldr	r0, [pc, #36]	; (8000b44 <Gas_taskF+0x80>)
 8000b20:	f001 fa80 	bl	8002024 <HAL_CAN_AddTxMessage>
 8000b24:	4603      	mov	r3, r0
 8000b26:	2b00      	cmp	r3, #0
 8000b28:	d001      	beq.n	8000b2e <Gas_taskF+0x6a>
				!= HAL_OK) {
			Error_Handler();
 8000b2a:	f000 f92d 	bl	8000d88 <Error_Handler>
		}
		vTaskDelayUntil(&xLastWakeTime, xFrequency); /*100Hz frequency*/
 8000b2e:	f107 0328 	add.w	r3, r7, #40	; 0x28
 8000b32:	6af9      	ldr	r1, [r7, #44]	; 0x2c
 8000b34:	4618      	mov	r0, r3
 8000b36:	f004 ff99 	bl	8005a6c <vTaskDelayUntil>
	while (1) {
 8000b3a:	e7cd      	b.n	8000ad8 <Gas_taskF+0x14>
 8000b3c:	20004620 	.word	0x20004620
 8000b40:	200045a4 	.word	0x200045a4
 8000b44:	200044d0 	.word	0x200044d0

08000b48 <Logger_taskF>:
	}
}

/*Logger Write Task  --- THIS TASK NEEDS TO IMPLEMENT START AND STOP LOG FUNCTIONS*/
void Logger_taskF(void *pvParameters) {
 8000b48:	b580      	push	{r7, lr}
 8000b4a:	b086      	sub	sp, #24
 8000b4c:	af02      	add	r7, sp, #8
 8000b4e:	6078      	str	r0, [r7, #4]
	TickType_t xLastWakeTime;
	const TickType_t xFrequency = 10;  //Ticks to wait since routine starts
 8000b50:	230a      	movs	r3, #10
 8000b52:	60fb      	str	r3, [r7, #12]
	xLastWakeTime = xTaskGetTickCount();
 8000b54:	f005 f94c 	bl	8005df0 <xTaskGetTickCount>
 8000b58:	4603      	mov	r3, r0
 8000b5a:	60bb      	str	r3, [r7, #8]
	while (1) {
		if (startLOG == 1) {
 8000b5c:	4b28      	ldr	r3, [pc, #160]	; (8000c00 <Logger_taskF+0xb8>)
 8000b5e:	781b      	ldrb	r3, [r3, #0]
 8000b60:	2b01      	cmp	r3, #1
 8000b62:	d11c      	bne.n	8000b9e <Logger_taskF+0x56>
			startLOG = 0;
 8000b64:	4b26      	ldr	r3, [pc, #152]	; (8000c00 <Logger_taskF+0xb8>)
 8000b66:	2200      	movs	r2, #0
 8000b68:	701a      	strb	r2, [r3, #0]
			bsl[1] = 0xAA;
 8000b6a:	4b26      	ldr	r3, [pc, #152]	; (8000c04 <Logger_taskF+0xbc>)
 8000b6c:	22aa      	movs	r2, #170	; 0xaa
 8000b6e:	705a      	strb	r2, [r3, #1]
			bsl[11] = 0xBB;
 8000b70:	4b24      	ldr	r3, [pc, #144]	; (8000c04 <Logger_taskF+0xbc>)
 8000b72:	22bb      	movs	r2, #187	; 0xbb
 8000b74:	72da      	strb	r2, [r3, #11]
			bsl[21] = 0xCC;
 8000b76:	4b23      	ldr	r3, [pc, #140]	; (8000c04 <Logger_taskF+0xbc>)
 8000b78:	22cc      	movs	r2, #204	; 0xcc
 8000b7a:	755a      	strb	r2, [r3, #21]
			bsl[0] = 0x00;
 8000b7c:	4b21      	ldr	r3, [pc, #132]	; (8000c04 <Logger_taskF+0xbc>)
 8000b7e:	2200      	movs	r2, #0
 8000b80:	701a      	strb	r2, [r3, #0]
			bsl[10] = 0x00;
 8000b82:	4b20      	ldr	r3, [pc, #128]	; (8000c04 <Logger_taskF+0xbc>)
 8000b84:	2200      	movs	r2, #0
 8000b86:	729a      	strb	r2, [r3, #10]
			bsl[20] = 0x00;
 8000b88:	4b1e      	ldr	r3, [pc, #120]	; (8000c04 <Logger_taskF+0xbc>)
 8000b8a:	2200      	movs	r2, #0
 8000b8c:	751a      	strb	r2, [r3, #20]
			HAL_I2C_Master_Transmit(&hi2c1, (0x08 << 1), bsl, 26, 10);
 8000b8e:	230a      	movs	r3, #10
 8000b90:	9300      	str	r3, [sp, #0]
 8000b92:	231a      	movs	r3, #26
 8000b94:	4a1b      	ldr	r2, [pc, #108]	; (8000c04 <Logger_taskF+0xbc>)
 8000b96:	2110      	movs	r1, #16
 8000b98:	481b      	ldr	r0, [pc, #108]	; (8000c08 <Logger_taskF+0xc0>)
 8000b9a:	f002 fcab 	bl	80034f4 <HAL_I2C_Master_Transmit>
		}
		if (stopLOG == 1) {
 8000b9e:	4b1b      	ldr	r3, [pc, #108]	; (8000c0c <Logger_taskF+0xc4>)
 8000ba0:	781b      	ldrb	r3, [r3, #0]
 8000ba2:	2b01      	cmp	r3, #1
 8000ba4:	d11c      	bne.n	8000be0 <Logger_taskF+0x98>
			stopLOG = 0;
 8000ba6:	4b19      	ldr	r3, [pc, #100]	; (8000c0c <Logger_taskF+0xc4>)
 8000ba8:	2200      	movs	r2, #0
 8000baa:	701a      	strb	r2, [r3, #0]
			bsl[0] = 0xDD;
 8000bac:	4b15      	ldr	r3, [pc, #84]	; (8000c04 <Logger_taskF+0xbc>)
 8000bae:	22dd      	movs	r2, #221	; 0xdd
 8000bb0:	701a      	strb	r2, [r3, #0]
			bsl[10] = 0xEE;
 8000bb2:	4b14      	ldr	r3, [pc, #80]	; (8000c04 <Logger_taskF+0xbc>)
 8000bb4:	22ee      	movs	r2, #238	; 0xee
 8000bb6:	729a      	strb	r2, [r3, #10]
			bsl[20] = 0xFF;
 8000bb8:	4b12      	ldr	r3, [pc, #72]	; (8000c04 <Logger_taskF+0xbc>)
 8000bba:	22ff      	movs	r2, #255	; 0xff
 8000bbc:	751a      	strb	r2, [r3, #20]
			bsl[1] = 0x00;
 8000bbe:	4b11      	ldr	r3, [pc, #68]	; (8000c04 <Logger_taskF+0xbc>)
 8000bc0:	2200      	movs	r2, #0
 8000bc2:	705a      	strb	r2, [r3, #1]
			bsl[11] = 0x00;
 8000bc4:	4b0f      	ldr	r3, [pc, #60]	; (8000c04 <Logger_taskF+0xbc>)
 8000bc6:	2200      	movs	r2, #0
 8000bc8:	72da      	strb	r2, [r3, #11]
			bsl[21] = 0x00;
 8000bca:	4b0e      	ldr	r3, [pc, #56]	; (8000c04 <Logger_taskF+0xbc>)
 8000bcc:	2200      	movs	r2, #0
 8000bce:	755a      	strb	r2, [r3, #21]
			HAL_I2C_Master_Transmit(&hi2c1, (0x08 << 1), bsl, 26, 10);
 8000bd0:	230a      	movs	r3, #10
 8000bd2:	9300      	str	r3, [sp, #0]
 8000bd4:	231a      	movs	r3, #26
 8000bd6:	4a0b      	ldr	r2, [pc, #44]	; (8000c04 <Logger_taskF+0xbc>)
 8000bd8:	2110      	movs	r1, #16
 8000bda:	480b      	ldr	r0, [pc, #44]	; (8000c08 <Logger_taskF+0xc0>)
 8000bdc:	f002 fc8a 	bl	80034f4 <HAL_I2C_Master_Transmit>
		}
		HAL_I2C_Master_Transmit(&hi2c1, (0x08 << 1), buffer, 26, 10);
 8000be0:	230a      	movs	r3, #10
 8000be2:	9300      	str	r3, [sp, #0]
 8000be4:	231a      	movs	r3, #26
 8000be6:	4a0a      	ldr	r2, [pc, #40]	; (8000c10 <Logger_taskF+0xc8>)
 8000be8:	2110      	movs	r1, #16
 8000bea:	4807      	ldr	r0, [pc, #28]	; (8000c08 <Logger_taskF+0xc0>)
 8000bec:	f002 fc82 	bl	80034f4 <HAL_I2C_Master_Transmit>
		vTaskDelayUntil(&xLastWakeTime, xFrequency); /*100Hz frequency*/
 8000bf0:	f107 0308 	add.w	r3, r7, #8
 8000bf4:	68f9      	ldr	r1, [r7, #12]
 8000bf6:	4618      	mov	r0, r3
 8000bf8:	f004 ff38 	bl	8005a6c <vTaskDelayUntil>
		if (startLOG == 1) {
 8000bfc:	e7ae      	b.n	8000b5c <Logger_taskF+0x14>
 8000bfe:	bf00      	nop
 8000c00:	20000484 	.word	0x20000484
 8000c04:	200044f8 	.word	0x200044f8
 8000c08:	20004478 	.word	0x20004478
 8000c0c:	20000485 	.word	0x20000485
 8000c10:	200045a4 	.word	0x200045a4

08000c14 <Telemetry_taskF>:
	}
}

/*LoRa Transceiver Write Task*/
void Telemetry_taskF(void *pvParameters) {
 8000c14:	b580      	push	{r7, lr}
 8000c16:	b086      	sub	sp, #24
 8000c18:	af00      	add	r7, sp, #0
 8000c1a:	6078      	str	r0, [r7, #4]
	TickType_t xLastWakeTime;
	const TickType_t xFrequency = 100;
 8000c1c:	2364      	movs	r3, #100	; 0x64
 8000c1e:	613b      	str	r3, [r7, #16]
	xLastWakeTime = xTaskGetTickCount();
 8000c20:	f005 f8e6 	bl	8005df0 <xTaskGetTickCount>
 8000c24:	4603      	mov	r3, r0
 8000c26:	60fb      	str	r3, [r7, #12]
	while (1) {
		LoRa[0] = sync;
 8000c28:	4b11      	ldr	r3, [pc, #68]	; (8000c70 <Telemetry_taskF+0x5c>)
 8000c2a:	781a      	ldrb	r2, [r3, #0]
 8000c2c:	4b11      	ldr	r3, [pc, #68]	; (8000c74 <Telemetry_taskF+0x60>)
 8000c2e:	701a      	strb	r2, [r3, #0]
		for (int y = 1; y < 27; y++) {
 8000c30:	2301      	movs	r3, #1
 8000c32:	617b      	str	r3, [r7, #20]
 8000c34:	e00b      	b.n	8000c4e <Telemetry_taskF+0x3a>
			LoRa[y] = buffer[y - 1];
 8000c36:	697b      	ldr	r3, [r7, #20]
 8000c38:	3b01      	subs	r3, #1
 8000c3a:	4a0f      	ldr	r2, [pc, #60]	; (8000c78 <Telemetry_taskF+0x64>)
 8000c3c:	5cd1      	ldrb	r1, [r2, r3]
 8000c3e:	4a0d      	ldr	r2, [pc, #52]	; (8000c74 <Telemetry_taskF+0x60>)
 8000c40:	697b      	ldr	r3, [r7, #20]
 8000c42:	4413      	add	r3, r2
 8000c44:	460a      	mov	r2, r1
 8000c46:	701a      	strb	r2, [r3, #0]
		for (int y = 1; y < 27; y++) {
 8000c48:	697b      	ldr	r3, [r7, #20]
 8000c4a:	3301      	adds	r3, #1
 8000c4c:	617b      	str	r3, [r7, #20]
 8000c4e:	697b      	ldr	r3, [r7, #20]
 8000c50:	2b1a      	cmp	r3, #26
 8000c52:	ddf0      	ble.n	8000c36 <Telemetry_taskF+0x22>
		}
		HAL_UART_Transmit(&huart1, LoRa, 27, 10);
 8000c54:	230a      	movs	r3, #10
 8000c56:	221b      	movs	r2, #27
 8000c58:	4906      	ldr	r1, [pc, #24]	; (8000c74 <Telemetry_taskF+0x60>)
 8000c5a:	4808      	ldr	r0, [pc, #32]	; (8000c7c <Telemetry_taskF+0x68>)
 8000c5c:	f003 fe8b 	bl	8004976 <HAL_UART_Transmit>
		//HAL_GPIO_TogglePin(GPIOC, GPIO_PIN_13);
		vTaskDelayUntil(&xLastWakeTime, xFrequency); /*10Hz frequency*/
 8000c60:	f107 030c 	add.w	r3, r7, #12
 8000c64:	6939      	ldr	r1, [r7, #16]
 8000c66:	4618      	mov	r0, r3
 8000c68:	f004 ff00 	bl	8005a6c <vTaskDelayUntil>
		LoRa[0] = sync;
 8000c6c:	e7dc      	b.n	8000c28 <Telemetry_taskF+0x14>
 8000c6e:	bf00      	nop
 8000c70:	20000000 	.word	0x20000000
 8000c74:	200045c0 	.word	0x200045c0
 8000c78:	200045a4 	.word	0x200045a4
 8000c7c:	20004544 	.word	0x20004544

08000c80 <HAL_CAN_RxFifo0MsgPendingCallback>:
	}
}

/*CAN Read Callback -- THIS FUNCTION NEEDS TO IMPLEMENT START AND STOP LOG MESSAGES  */
void HAL_CAN_RxFifo0MsgPendingCallback(CAN_HandleTypeDef *hcan) {
 8000c80:	b580      	push	{r7, lr}
 8000c82:	b08c      	sub	sp, #48	; 0x30
 8000c84:	af00      	add	r7, sp, #0
 8000c86:	6078      	str	r0, [r7, #4]
	CAN_RxHeaderTypeDef RxHeader;
	uint8_t rcv_msg[8];
	if (HAL_CAN_GetRxMessage(hcan, CAN_RX_FIFO0, &RxHeader, rcv_msg)
 8000c88:	f107 030c 	add.w	r3, r7, #12
 8000c8c:	f107 0214 	add.w	r2, r7, #20
 8000c90:	2100      	movs	r1, #0
 8000c92:	6878      	ldr	r0, [r7, #4]
 8000c94:	f001 faa0 	bl	80021d8 <HAL_CAN_GetRxMessage>
 8000c98:	4603      	mov	r3, r0
 8000c9a:	2b00      	cmp	r3, #0
 8000c9c:	d001      	beq.n	8000ca2 <HAL_CAN_RxFifo0MsgPendingCallback+0x22>
			!= HAL_OK) {
		Error_Handler();
 8000c9e:	f000 f873 	bl	8000d88 <Error_Handler>
	}

	if (RxHeader.StdId == 0x64E) {
 8000ca2:	697b      	ldr	r3, [r7, #20]
 8000ca4:	f240 624e 	movw	r2, #1614	; 0x64e
 8000ca8:	4293      	cmp	r3, r2
 8000caa:	d102      	bne.n	8000cb2 <HAL_CAN_RxFifo0MsgPendingCallback+0x32>
		//if (rcv_msg[0] == 0x55) {
		startLOG = 1;
 8000cac:	4b2a      	ldr	r3, [pc, #168]	; (8000d58 <HAL_CAN_RxFifo0MsgPendingCallback+0xd8>)
 8000cae:	2201      	movs	r2, #1
 8000cb0:	701a      	strb	r2, [r3, #0]
		//}
	}

	if (RxHeader.StdId == 0x64F) {
 8000cb2:	697b      	ldr	r3, [r7, #20]
 8000cb4:	f240 624f 	movw	r2, #1615	; 0x64f
 8000cb8:	4293      	cmp	r3, r2
 8000cba:	d102      	bne.n	8000cc2 <HAL_CAN_RxFifo0MsgPendingCallback+0x42>
		//if (rcv_msg[0] == 0x66) {
		stopLOG = 1;
 8000cbc:	4b27      	ldr	r3, [pc, #156]	; (8000d5c <HAL_CAN_RxFifo0MsgPendingCallback+0xdc>)
 8000cbe:	2201      	movs	r2, #1
 8000cc0:	701a      	strb	r2, [r3, #0]
		//}
	}

	if (RxHeader.StdId == 0x650) {
 8000cc2:	697b      	ldr	r3, [r7, #20]
 8000cc4:	f5b3 6fca 	cmp.w	r3, #1616	; 0x650
 8000cc8:	d105      	bne.n	8000cd6 <HAL_CAN_RxFifo0MsgPendingCallback+0x56>
		buffer[4] = rcv_msg[0];
 8000cca:	7b3a      	ldrb	r2, [r7, #12]
 8000ccc:	4b24      	ldr	r3, [pc, #144]	; (8000d60 <HAL_CAN_RxFifo0MsgPendingCallback+0xe0>)
 8000cce:	711a      	strb	r2, [r3, #4]
		buffer[5] = rcv_msg[1];
 8000cd0:	7b7a      	ldrb	r2, [r7, #13]
 8000cd2:	4b23      	ldr	r3, [pc, #140]	; (8000d60 <HAL_CAN_RxFifo0MsgPendingCallback+0xe0>)
 8000cd4:	715a      	strb	r2, [r3, #5]
	}

	if (RxHeader.StdId == 0x651) {
 8000cd6:	697b      	ldr	r3, [r7, #20]
 8000cd8:	f240 6251 	movw	r2, #1617	; 0x651
 8000cdc:	4293      	cmp	r3, r2
 8000cde:	d105      	bne.n	8000cec <HAL_CAN_RxFifo0MsgPendingCallback+0x6c>
		buffer[6] = rcv_msg[0];
 8000ce0:	7b3a      	ldrb	r2, [r7, #12]
 8000ce2:	4b1f      	ldr	r3, [pc, #124]	; (8000d60 <HAL_CAN_RxFifo0MsgPendingCallback+0xe0>)
 8000ce4:	719a      	strb	r2, [r3, #6]
		buffer[7] = rcv_msg[1];
 8000ce6:	7b7a      	ldrb	r2, [r7, #13]
 8000ce8:	4b1d      	ldr	r3, [pc, #116]	; (8000d60 <HAL_CAN_RxFifo0MsgPendingCallback+0xe0>)
 8000cea:	71da      	strb	r2, [r3, #7]
	}

	if (RxHeader.StdId == 0x652) {
 8000cec:	697b      	ldr	r3, [r7, #20]
 8000cee:	f240 6252 	movw	r2, #1618	; 0x652
 8000cf2:	4293      	cmp	r3, r2
 8000cf4:	d105      	bne.n	8000d02 <HAL_CAN_RxFifo0MsgPendingCallback+0x82>
		buffer[8] = rcv_msg[0];
 8000cf6:	7b3a      	ldrb	r2, [r7, #12]
 8000cf8:	4b19      	ldr	r3, [pc, #100]	; (8000d60 <HAL_CAN_RxFifo0MsgPendingCallback+0xe0>)
 8000cfa:	721a      	strb	r2, [r3, #8]
		buffer[9] = rcv_msg[1];
 8000cfc:	7b7a      	ldrb	r2, [r7, #13]
 8000cfe:	4b18      	ldr	r3, [pc, #96]	; (8000d60 <HAL_CAN_RxFifo0MsgPendingCallback+0xe0>)
 8000d00:	725a      	strb	r2, [r3, #9]
	}

	if (RxHeader.StdId == 0x653) {
 8000d02:	697b      	ldr	r3, [r7, #20]
 8000d04:	f240 6253 	movw	r2, #1619	; 0x653
 8000d08:	4293      	cmp	r3, r2
 8000d0a:	d105      	bne.n	8000d18 <HAL_CAN_RxFifo0MsgPendingCallback+0x98>
		buffer[10] = rcv_msg[0];
 8000d0c:	7b3a      	ldrb	r2, [r7, #12]
 8000d0e:	4b14      	ldr	r3, [pc, #80]	; (8000d60 <HAL_CAN_RxFifo0MsgPendingCallback+0xe0>)
 8000d10:	729a      	strb	r2, [r3, #10]
		buffer[11] = rcv_msg[1];
 8000d12:	7b7a      	ldrb	r2, [r7, #13]
 8000d14:	4b12      	ldr	r3, [pc, #72]	; (8000d60 <HAL_CAN_RxFifo0MsgPendingCallback+0xe0>)
 8000d16:	72da      	strb	r2, [r3, #11]
	}

	if (RxHeader.StdId == 0x654) {
 8000d18:	697b      	ldr	r3, [r7, #20]
 8000d1a:	f240 6254 	movw	r2, #1620	; 0x654
 8000d1e:	4293      	cmp	r3, r2
 8000d20:	d105      	bne.n	8000d2e <HAL_CAN_RxFifo0MsgPendingCallback+0xae>
		buffer[12] = rcv_msg[0];
 8000d22:	7b3a      	ldrb	r2, [r7, #12]
 8000d24:	4b0e      	ldr	r3, [pc, #56]	; (8000d60 <HAL_CAN_RxFifo0MsgPendingCallback+0xe0>)
 8000d26:	731a      	strb	r2, [r3, #12]
		buffer[13] = rcv_msg[1];
 8000d28:	7b7a      	ldrb	r2, [r7, #13]
 8000d2a:	4b0d      	ldr	r3, [pc, #52]	; (8000d60 <HAL_CAN_RxFifo0MsgPendingCallback+0xe0>)
 8000d2c:	735a      	strb	r2, [r3, #13]
	}

	if (RxHeader.StdId == 0x655) {
 8000d2e:	697b      	ldr	r3, [r7, #20]
 8000d30:	f240 6255 	movw	r2, #1621	; 0x655
 8000d34:	4293      	cmp	r3, r2
 8000d36:	d10b      	bne.n	8000d50 <HAL_CAN_RxFifo0MsgPendingCallback+0xd0>
		buffer[14] = rcv_msg[0];
 8000d38:	7b3a      	ldrb	r2, [r7, #12]
 8000d3a:	4b09      	ldr	r3, [pc, #36]	; (8000d60 <HAL_CAN_RxFifo0MsgPendingCallback+0xe0>)
 8000d3c:	739a      	strb	r2, [r3, #14]
		buffer[15] = rcv_msg[1];
 8000d3e:	7b7a      	ldrb	r2, [r7, #13]
 8000d40:	4b07      	ldr	r3, [pc, #28]	; (8000d60 <HAL_CAN_RxFifo0MsgPendingCallback+0xe0>)
 8000d42:	73da      	strb	r2, [r3, #15]
		buffer[16] = rcv_msg[2];
 8000d44:	7bba      	ldrb	r2, [r7, #14]
 8000d46:	4b06      	ldr	r3, [pc, #24]	; (8000d60 <HAL_CAN_RxFifo0MsgPendingCallback+0xe0>)
 8000d48:	741a      	strb	r2, [r3, #16]
		buffer[17] = rcv_msg[3];
 8000d4a:	7bfa      	ldrb	r2, [r7, #15]
 8000d4c:	4b04      	ldr	r3, [pc, #16]	; (8000d60 <HAL_CAN_RxFifo0MsgPendingCallback+0xe0>)
 8000d4e:	745a      	strb	r2, [r3, #17]
	}

}
 8000d50:	bf00      	nop
 8000d52:	3730      	adds	r7, #48	; 0x30
 8000d54:	46bd      	mov	sp, r7
 8000d56:	bd80      	pop	{r7, pc}
 8000d58:	20000484 	.word	0x20000484
 8000d5c:	20000485 	.word	0x20000485
 8000d60:	200045a4 	.word	0x200045a4

08000d64 <HAL_TIM_PeriodElapsedCallback>:
 * HAL_TIM_IRQHandler(). It makes a direct call to HAL_IncTick() to increment
 * a global variable "uwTick" used as application time base.
 * @param  htim : TIM handle
 * @retval None
 */
void HAL_TIM_PeriodElapsedCallback(TIM_HandleTypeDef *htim) {
 8000d64:	b580      	push	{r7, lr}
 8000d66:	b082      	sub	sp, #8
 8000d68:	af00      	add	r7, sp, #0
 8000d6a:	6078      	str	r0, [r7, #4]
	/* USER CODE BEGIN Callback 0 */

	/* USER CODE END Callback 0 */
	if (htim->Instance == TIM4) {
 8000d6c:	687b      	ldr	r3, [r7, #4]
 8000d6e:	681b      	ldr	r3, [r3, #0]
 8000d70:	4a04      	ldr	r2, [pc, #16]	; (8000d84 <HAL_TIM_PeriodElapsedCallback+0x20>)
 8000d72:	4293      	cmp	r3, r2
 8000d74:	d101      	bne.n	8000d7a <HAL_TIM_PeriodElapsedCallback+0x16>
		HAL_IncTick();
 8000d76:	f000 fb53 	bl	8001420 <HAL_IncTick>
	}
	/* USER CODE BEGIN Callback 1 */

	/* USER CODE END Callback 1 */
}
 8000d7a:	bf00      	nop
 8000d7c:	3708      	adds	r7, #8
 8000d7e:	46bd      	mov	sp, r7
 8000d80:	bd80      	pop	{r7, pc}
 8000d82:	bf00      	nop
 8000d84:	40000800 	.word	0x40000800

08000d88 <Error_Handler>:

/**
 * @brief  This function is executed in case of error occurrence.
 * @retval None
 */
void Error_Handler(void) {
 8000d88:	b480      	push	{r7}
 8000d8a:	af00      	add	r7, sp, #0
	/* USER CODE BEGIN Error_Handler_Debug */
	/* User can add his own implementation to report the HAL error return state */
	/* USER CODE END Error_Handler_Debug */
}
 8000d8c:	bf00      	nop
 8000d8e:	46bd      	mov	sp, r7
 8000d90:	bc80      	pop	{r7}
 8000d92:	4770      	bx	lr

08000d94 <HAL_MspInit>:
/* USER CODE END 0 */
/**
  * Initializes the Global MSP.
  */
void HAL_MspInit(void)
{
 8000d94:	b580      	push	{r7, lr}
 8000d96:	b084      	sub	sp, #16
 8000d98:	af00      	add	r7, sp, #0
  /* USER CODE BEGIN MspInit 0 */

  /* USER CODE END MspInit 0 */

  __HAL_RCC_AFIO_CLK_ENABLE();
 8000d9a:	4b19      	ldr	r3, [pc, #100]	; (8000e00 <HAL_MspInit+0x6c>)
 8000d9c:	699b      	ldr	r3, [r3, #24]
 8000d9e:	4a18      	ldr	r2, [pc, #96]	; (8000e00 <HAL_MspInit+0x6c>)
 8000da0:	f043 0301 	orr.w	r3, r3, #1
 8000da4:	6193      	str	r3, [r2, #24]
 8000da6:	4b16      	ldr	r3, [pc, #88]	; (8000e00 <HAL_MspInit+0x6c>)
 8000da8:	699b      	ldr	r3, [r3, #24]
 8000daa:	f003 0301 	and.w	r3, r3, #1
 8000dae:	60bb      	str	r3, [r7, #8]
 8000db0:	68bb      	ldr	r3, [r7, #8]
  __HAL_RCC_PWR_CLK_ENABLE();
 8000db2:	4b13      	ldr	r3, [pc, #76]	; (8000e00 <HAL_MspInit+0x6c>)
 8000db4:	69db      	ldr	r3, [r3, #28]
 8000db6:	4a12      	ldr	r2, [pc, #72]	; (8000e00 <HAL_MspInit+0x6c>)
 8000db8:	f043 5380 	orr.w	r3, r3, #268435456	; 0x10000000
 8000dbc:	61d3      	str	r3, [r2, #28]
 8000dbe:	4b10      	ldr	r3, [pc, #64]	; (8000e00 <HAL_MspInit+0x6c>)
 8000dc0:	69db      	ldr	r3, [r3, #28]
 8000dc2:	f003 5380 	and.w	r3, r3, #268435456	; 0x10000000
 8000dc6:	607b      	str	r3, [r7, #4]
 8000dc8:	687b      	ldr	r3, [r7, #4]

  /* System interrupt init*/
  /* PendSV_IRQn interrupt configuration */
  HAL_NVIC_SetPriority(PendSV_IRQn, 15, 0);
 8000dca:	2200      	movs	r2, #0
 8000dcc:	210f      	movs	r1, #15
 8000dce:	f06f 0001 	mvn.w	r0, #1
 8000dd2:	f001 fe0a 	bl	80029ea <HAL_NVIC_SetPriority>

  /** NOJTAG: JTAG-DP Disabled and SW-DP Enabled
  */
  __HAL_AFIO_REMAP_SWJ_NOJTAG();
 8000dd6:	4b0b      	ldr	r3, [pc, #44]	; (8000e04 <HAL_MspInit+0x70>)
 8000dd8:	685b      	ldr	r3, [r3, #4]
 8000dda:	60fb      	str	r3, [r7, #12]
 8000ddc:	68fb      	ldr	r3, [r7, #12]
 8000dde:	f023 63e0 	bic.w	r3, r3, #117440512	; 0x7000000
 8000de2:	60fb      	str	r3, [r7, #12]
 8000de4:	68fb      	ldr	r3, [r7, #12]
 8000de6:	f043 7300 	orr.w	r3, r3, #33554432	; 0x2000000
 8000dea:	60fb      	str	r3, [r7, #12]
 8000dec:	4a05      	ldr	r2, [pc, #20]	; (8000e04 <HAL_MspInit+0x70>)
 8000dee:	68fb      	ldr	r3, [r7, #12]
 8000df0:	6053      	str	r3, [r2, #4]

  /* USER CODE BEGIN MspInit 1 */
 vInitPrioGroupValue();
 8000df2:	f005 fbe1 	bl	80065b8 <vInitPrioGroupValue>
  /* USER CODE END MspInit 1 */
}
 8000df6:	bf00      	nop
 8000df8:	3710      	adds	r7, #16
 8000dfa:	46bd      	mov	sp, r7
 8000dfc:	bd80      	pop	{r7, pc}
 8000dfe:	bf00      	nop
 8000e00:	40021000 	.word	0x40021000
 8000e04:	40010000 	.word	0x40010000

08000e08 <HAL_ADC_MspInit>:
* This function configures the hardware resources used in this example
* @param hadc: ADC handle pointer
* @retval None
*/
void HAL_ADC_MspInit(ADC_HandleTypeDef* hadc)
{
 8000e08:	b580      	push	{r7, lr}
 8000e0a:	b088      	sub	sp, #32
 8000e0c:	af00      	add	r7, sp, #0
 8000e0e:	6078      	str	r0, [r7, #4]
  GPIO_InitTypeDef GPIO_InitStruct = {0};
 8000e10:	f107 0310 	add.w	r3, r7, #16
 8000e14:	2200      	movs	r2, #0
 8000e16:	601a      	str	r2, [r3, #0]
 8000e18:	605a      	str	r2, [r3, #4]
 8000e1a:	609a      	str	r2, [r3, #8]
 8000e1c:	60da      	str	r2, [r3, #12]
  if(hadc->Instance==ADC1)
 8000e1e:	687b      	ldr	r3, [r7, #4]
 8000e20:	681b      	ldr	r3, [r3, #0]
 8000e22:	4a28      	ldr	r2, [pc, #160]	; (8000ec4 <HAL_ADC_MspInit+0xbc>)
 8000e24:	4293      	cmp	r3, r2
 8000e26:	d149      	bne.n	8000ebc <HAL_ADC_MspInit+0xb4>
  {
  /* USER CODE BEGIN ADC1_MspInit 0 */

  /* USER CODE END ADC1_MspInit 0 */
    /* Peripheral clock enable */
    __HAL_RCC_ADC1_CLK_ENABLE();
 8000e28:	4b27      	ldr	r3, [pc, #156]	; (8000ec8 <HAL_ADC_MspInit+0xc0>)
 8000e2a:	699b      	ldr	r3, [r3, #24]
 8000e2c:	4a26      	ldr	r2, [pc, #152]	; (8000ec8 <HAL_ADC_MspInit+0xc0>)
 8000e2e:	f443 7300 	orr.w	r3, r3, #512	; 0x200
 8000e32:	6193      	str	r3, [r2, #24]
 8000e34:	4b24      	ldr	r3, [pc, #144]	; (8000ec8 <HAL_ADC_MspInit+0xc0>)
 8000e36:	699b      	ldr	r3, [r3, #24]
 8000e38:	f403 7300 	and.w	r3, r3, #512	; 0x200
 8000e3c:	60fb      	str	r3, [r7, #12]
 8000e3e:	68fb      	ldr	r3, [r7, #12]

    __HAL_RCC_GPIOA_CLK_ENABLE();
 8000e40:	4b21      	ldr	r3, [pc, #132]	; (8000ec8 <HAL_ADC_MspInit+0xc0>)
 8000e42:	699b      	ldr	r3, [r3, #24]
 8000e44:	4a20      	ldr	r2, [pc, #128]	; (8000ec8 <HAL_ADC_MspInit+0xc0>)
 8000e46:	f043 0304 	orr.w	r3, r3, #4
 8000e4a:	6193      	str	r3, [r2, #24]
 8000e4c:	4b1e      	ldr	r3, [pc, #120]	; (8000ec8 <HAL_ADC_MspInit+0xc0>)
 8000e4e:	699b      	ldr	r3, [r3, #24]
 8000e50:	f003 0304 	and.w	r3, r3, #4
 8000e54:	60bb      	str	r3, [r7, #8]
 8000e56:	68bb      	ldr	r3, [r7, #8]
    /**ADC1 GPIO Configuration
    PA4     ------> ADC1_IN4
    */
    GPIO_InitStruct.Pin = Gas_Pin;
 8000e58:	2302      	movs	r3, #2
 8000e5a:	613b      	str	r3, [r7, #16]
    GPIO_InitStruct.Mode = GPIO_MODE_ANALOG;
 8000e5c:	2303      	movs	r3, #3
 8000e5e:	617b      	str	r3, [r7, #20]
    HAL_GPIO_Init(Gas_GPIO_Port, &GPIO_InitStruct);
 8000e60:	f107 0310 	add.w	r3, r7, #16
 8000e64:	4619      	mov	r1, r3
 8000e66:	4819      	ldr	r0, [pc, #100]	; (8000ecc <HAL_ADC_MspInit+0xc4>)
 8000e68:	f002 f892 	bl	8002f90 <HAL_GPIO_Init>

    /* ADC1 DMA Init */
    /* ADC1 Init */
    hdma_adc1.Instance = DMA1_Channel1;
 8000e6c:	4b18      	ldr	r3, [pc, #96]	; (8000ed0 <HAL_ADC_MspInit+0xc8>)
 8000e6e:	4a19      	ldr	r2, [pc, #100]	; (8000ed4 <HAL_ADC_MspInit+0xcc>)
 8000e70:	601a      	str	r2, [r3, #0]
    hdma_adc1.Init.Direction = DMA_PERIPH_TO_MEMORY;
 8000e72:	4b17      	ldr	r3, [pc, #92]	; (8000ed0 <HAL_ADC_MspInit+0xc8>)
 8000e74:	2200      	movs	r2, #0
 8000e76:	605a      	str	r2, [r3, #4]
    hdma_adc1.Init.PeriphInc = DMA_PINC_DISABLE;
 8000e78:	4b15      	ldr	r3, [pc, #84]	; (8000ed0 <HAL_ADC_MspInit+0xc8>)
 8000e7a:	2200      	movs	r2, #0
 8000e7c:	609a      	str	r2, [r3, #8]
    hdma_adc1.Init.MemInc = DMA_MINC_ENABLE;
 8000e7e:	4b14      	ldr	r3, [pc, #80]	; (8000ed0 <HAL_ADC_MspInit+0xc8>)
 8000e80:	2280      	movs	r2, #128	; 0x80
 8000e82:	60da      	str	r2, [r3, #12]
    hdma_adc1.Init.PeriphDataAlignment = DMA_PDATAALIGN_HALFWORD;
 8000e84:	4b12      	ldr	r3, [pc, #72]	; (8000ed0 <HAL_ADC_MspInit+0xc8>)
 8000e86:	f44f 7280 	mov.w	r2, #256	; 0x100
 8000e8a:	611a      	str	r2, [r3, #16]
    hdma_adc1.Init.MemDataAlignment = DMA_MDATAALIGN_HALFWORD;
 8000e8c:	4b10      	ldr	r3, [pc, #64]	; (8000ed0 <HAL_ADC_MspInit+0xc8>)
 8000e8e:	f44f 6280 	mov.w	r2, #1024	; 0x400
 8000e92:	615a      	str	r2, [r3, #20]
    hdma_adc1.Init.Mode = DMA_CIRCULAR;
 8000e94:	4b0e      	ldr	r3, [pc, #56]	; (8000ed0 <HAL_ADC_MspInit+0xc8>)
 8000e96:	2220      	movs	r2, #32
 8000e98:	619a      	str	r2, [r3, #24]
    hdma_adc1.Init.Priority = DMA_PRIORITY_LOW;
 8000e9a:	4b0d      	ldr	r3, [pc, #52]	; (8000ed0 <HAL_ADC_MspInit+0xc8>)
 8000e9c:	2200      	movs	r2, #0
 8000e9e:	61da      	str	r2, [r3, #28]
    if (HAL_DMA_Init(&hdma_adc1) != HAL_OK)
 8000ea0:	480b      	ldr	r0, [pc, #44]	; (8000ed0 <HAL_ADC_MspInit+0xc8>)
 8000ea2:	f001 fdcd 	bl	8002a40 <HAL_DMA_Init>
 8000ea6:	4603      	mov	r3, r0
 8000ea8:	2b00      	cmp	r3, #0
 8000eaa:	d001      	beq.n	8000eb0 <HAL_ADC_MspInit+0xa8>
    {
      Error_Handler();
 8000eac:	f7ff ff6c 	bl	8000d88 <Error_Handler>
    }

    __HAL_LINKDMA(hadc,DMA_Handle,hdma_adc1);
 8000eb0:	687b      	ldr	r3, [r7, #4]
 8000eb2:	4a07      	ldr	r2, [pc, #28]	; (8000ed0 <HAL_ADC_MspInit+0xc8>)
 8000eb4:	621a      	str	r2, [r3, #32]
 8000eb6:	4a06      	ldr	r2, [pc, #24]	; (8000ed0 <HAL_ADC_MspInit+0xc8>)
 8000eb8:	687b      	ldr	r3, [r7, #4]
 8000eba:	6253      	str	r3, [r2, #36]	; 0x24
  /* USER CODE BEGIN ADC1_MspInit 1 */

  /* USER CODE END ADC1_MspInit 1 */
  }

}
 8000ebc:	bf00      	nop
 8000ebe:	3720      	adds	r7, #32
 8000ec0:	46bd      	mov	sp, r7
 8000ec2:	bd80      	pop	{r7, pc}
 8000ec4:	40012400 	.word	0x40012400
 8000ec8:	40021000 	.word	0x40021000
 8000ecc:	40010800 	.word	0x40010800
 8000ed0:	200045dc 	.word	0x200045dc
 8000ed4:	40020008 	.word	0x40020008

08000ed8 <HAL_CAN_MspInit>:
* This function configures the hardware resources used in this example
* @param hcan: CAN handle pointer
* @retval None
*/
void HAL_CAN_MspInit(CAN_HandleTypeDef* hcan)
{
 8000ed8:	b580      	push	{r7, lr}
 8000eda:	b08a      	sub	sp, #40	; 0x28
 8000edc:	af00      	add	r7, sp, #0
 8000ede:	6078      	str	r0, [r7, #4]
  GPIO_InitTypeDef GPIO_InitStruct = {0};
 8000ee0:	f107 0314 	add.w	r3, r7, #20
 8000ee4:	2200      	movs	r2, #0
 8000ee6:	601a      	str	r2, [r3, #0]
 8000ee8:	605a      	str	r2, [r3, #4]
 8000eea:	609a      	str	r2, [r3, #8]
 8000eec:	60da      	str	r2, [r3, #12]
  if(hcan->Instance==CAN1)
 8000eee:	687b      	ldr	r3, [r7, #4]
 8000ef0:	681b      	ldr	r3, [r3, #0]
 8000ef2:	4a35      	ldr	r2, [pc, #212]	; (8000fc8 <HAL_CAN_MspInit+0xf0>)
 8000ef4:	4293      	cmp	r3, r2
 8000ef6:	d163      	bne.n	8000fc0 <HAL_CAN_MspInit+0xe8>
  {
  /* USER CODE BEGIN CAN1_MspInit 0 */

  /* USER CODE END CAN1_MspInit 0 */
    /* Peripheral clock enable */
    __HAL_RCC_CAN1_CLK_ENABLE();
 8000ef8:	4b34      	ldr	r3, [pc, #208]	; (8000fcc <HAL_CAN_MspInit+0xf4>)
 8000efa:	69db      	ldr	r3, [r3, #28]
 8000efc:	4a33      	ldr	r2, [pc, #204]	; (8000fcc <HAL_CAN_MspInit+0xf4>)
 8000efe:	f043 7300 	orr.w	r3, r3, #33554432	; 0x2000000
 8000f02:	61d3      	str	r3, [r2, #28]
 8000f04:	4b31      	ldr	r3, [pc, #196]	; (8000fcc <HAL_CAN_MspInit+0xf4>)
 8000f06:	69db      	ldr	r3, [r3, #28]
 8000f08:	f003 7300 	and.w	r3, r3, #33554432	; 0x2000000
 8000f0c:	613b      	str	r3, [r7, #16]
 8000f0e:	693b      	ldr	r3, [r7, #16]

    __HAL_RCC_GPIOB_CLK_ENABLE();
 8000f10:	4b2e      	ldr	r3, [pc, #184]	; (8000fcc <HAL_CAN_MspInit+0xf4>)
 8000f12:	699b      	ldr	r3, [r3, #24]
 8000f14:	4a2d      	ldr	r2, [pc, #180]	; (8000fcc <HAL_CAN_MspInit+0xf4>)
 8000f16:	f043 0308 	orr.w	r3, r3, #8
 8000f1a:	6193      	str	r3, [r2, #24]
 8000f1c:	4b2b      	ldr	r3, [pc, #172]	; (8000fcc <HAL_CAN_MspInit+0xf4>)
 8000f1e:	699b      	ldr	r3, [r3, #24]
 8000f20:	f003 0308 	and.w	r3, r3, #8
 8000f24:	60fb      	str	r3, [r7, #12]
 8000f26:	68fb      	ldr	r3, [r7, #12]
    /**CAN GPIO Configuration
    PB8     ------> CAN_RX
    PB9     ------> CAN_TX
    */
    GPIO_InitStruct.Pin = GPIO_PIN_8;
 8000f28:	f44f 7380 	mov.w	r3, #256	; 0x100
 8000f2c:	617b      	str	r3, [r7, #20]
    GPIO_InitStruct.Mode = GPIO_MODE_INPUT;
 8000f2e:	2300      	movs	r3, #0
 8000f30:	61bb      	str	r3, [r7, #24]
    GPIO_InitStruct.Pull = GPIO_NOPULL;
 8000f32:	2300      	movs	r3, #0
 8000f34:	61fb      	str	r3, [r7, #28]
    HAL_GPIO_Init(GPIOB, &GPIO_InitStruct);
 8000f36:	f107 0314 	add.w	r3, r7, #20
 8000f3a:	4619      	mov	r1, r3
 8000f3c:	4824      	ldr	r0, [pc, #144]	; (8000fd0 <HAL_CAN_MspInit+0xf8>)
 8000f3e:	f002 f827 	bl	8002f90 <HAL_GPIO_Init>

    GPIO_InitStruct.Pin = GPIO_PIN_9;
 8000f42:	f44f 7300 	mov.w	r3, #512	; 0x200
 8000f46:	617b      	str	r3, [r7, #20]
    GPIO_InitStruct.Mode = GPIO_MODE_AF_PP;
 8000f48:	2302      	movs	r3, #2
 8000f4a:	61bb      	str	r3, [r7, #24]
    GPIO_InitStruct.Speed = GPIO_SPEED_FREQ_HIGH;
 8000f4c:	2303      	movs	r3, #3
 8000f4e:	623b      	str	r3, [r7, #32]
    HAL_GPIO_Init(GPIOB, &GPIO_InitStruct);
 8000f50:	f107 0314 	add.w	r3, r7, #20
 8000f54:	4619      	mov	r1, r3
 8000f56:	481e      	ldr	r0, [pc, #120]	; (8000fd0 <HAL_CAN_MspInit+0xf8>)
 8000f58:	f002 f81a 	bl	8002f90 <HAL_GPIO_Init>

    __HAL_AFIO_REMAP_CAN1_2();
 8000f5c:	4b1d      	ldr	r3, [pc, #116]	; (8000fd4 <HAL_CAN_MspInit+0xfc>)
 8000f5e:	685b      	ldr	r3, [r3, #4]
 8000f60:	627b      	str	r3, [r7, #36]	; 0x24
 8000f62:	6a7b      	ldr	r3, [r7, #36]	; 0x24
 8000f64:	f423 43c0 	bic.w	r3, r3, #24576	; 0x6000
 8000f68:	627b      	str	r3, [r7, #36]	; 0x24
 8000f6a:	6a7b      	ldr	r3, [r7, #36]	; 0x24
 8000f6c:	f043 63e0 	orr.w	r3, r3, #117440512	; 0x7000000
 8000f70:	627b      	str	r3, [r7, #36]	; 0x24
 8000f72:	6a7b      	ldr	r3, [r7, #36]	; 0x24
 8000f74:	f443 4380 	orr.w	r3, r3, #16384	; 0x4000
 8000f78:	627b      	str	r3, [r7, #36]	; 0x24
 8000f7a:	4a16      	ldr	r2, [pc, #88]	; (8000fd4 <HAL_CAN_MspInit+0xfc>)
 8000f7c:	6a7b      	ldr	r3, [r7, #36]	; 0x24
 8000f7e:	6053      	str	r3, [r2, #4]

  /* USER CODE BEGIN CAN1_MspInit 1 */
    HAL_NVIC_SetPriority(USB_HP_CAN1_TX_IRQn, 5, 0);
 8000f80:	2200      	movs	r2, #0
 8000f82:	2105      	movs	r1, #5
 8000f84:	2013      	movs	r0, #19
 8000f86:	f001 fd30 	bl	80029ea <HAL_NVIC_SetPriority>
    HAL_NVIC_EnableIRQ(USB_HP_CAN1_TX_IRQn);
 8000f8a:	2013      	movs	r0, #19
 8000f8c:	f001 fd49 	bl	8002a22 <HAL_NVIC_EnableIRQ>
    HAL_NVIC_SetPriority(USB_LP_CAN1_RX0_IRQn, 5, 0);
 8000f90:	2200      	movs	r2, #0
 8000f92:	2105      	movs	r1, #5
 8000f94:	2014      	movs	r0, #20
 8000f96:	f001 fd28 	bl	80029ea <HAL_NVIC_SetPriority>
    HAL_NVIC_EnableIRQ(USB_LP_CAN1_RX0_IRQn);
 8000f9a:	2014      	movs	r0, #20
 8000f9c:	f001 fd41 	bl	8002a22 <HAL_NVIC_EnableIRQ>
    HAL_NVIC_SetPriority(CAN1_RX1_IRQn, 5, 0);
 8000fa0:	2200      	movs	r2, #0
 8000fa2:	2105      	movs	r1, #5
 8000fa4:	2015      	movs	r0, #21
 8000fa6:	f001 fd20 	bl	80029ea <HAL_NVIC_SetPriority>
    HAL_NVIC_EnableIRQ(CAN1_RX1_IRQn);
 8000faa:	2015      	movs	r0, #21
 8000fac:	f001 fd39 	bl	8002a22 <HAL_NVIC_EnableIRQ>
    HAL_NVIC_SetPriority(CAN1_SCE_IRQn, 5, 0);
 8000fb0:	2200      	movs	r2, #0
 8000fb2:	2105      	movs	r1, #5
 8000fb4:	2016      	movs	r0, #22
 8000fb6:	f001 fd18 	bl	80029ea <HAL_NVIC_SetPriority>
    HAL_NVIC_EnableIRQ(CAN1_SCE_IRQn);
 8000fba:	2016      	movs	r0, #22
 8000fbc:	f001 fd31 	bl	8002a22 <HAL_NVIC_EnableIRQ>
  /* USER CODE END CAN1_MspInit 1 */
  }

}
 8000fc0:	bf00      	nop
 8000fc2:	3728      	adds	r7, #40	; 0x28
 8000fc4:	46bd      	mov	sp, r7
 8000fc6:	bd80      	pop	{r7, pc}
 8000fc8:	40006400 	.word	0x40006400
 8000fcc:	40021000 	.word	0x40021000
 8000fd0:	40010c00 	.word	0x40010c00
 8000fd4:	40010000 	.word	0x40010000

08000fd8 <HAL_I2C_MspInit>:
* This function configures the hardware resources used in this example
* @param hi2c: I2C handle pointer
* @retval None
*/
void HAL_I2C_MspInit(I2C_HandleTypeDef* hi2c)
{
 8000fd8:	b580      	push	{r7, lr}
 8000fda:	b088      	sub	sp, #32
 8000fdc:	af00      	add	r7, sp, #0
 8000fde:	6078      	str	r0, [r7, #4]
  GPIO_InitTypeDef GPIO_InitStruct = {0};
 8000fe0:	f107 0310 	add.w	r3, r7, #16
 8000fe4:	2200      	movs	r2, #0
 8000fe6:	601a      	str	r2, [r3, #0]
 8000fe8:	605a      	str	r2, [r3, #4]
 8000fea:	609a      	str	r2, [r3, #8]
 8000fec:	60da      	str	r2, [r3, #12]
  if(hi2c->Instance==I2C1)
 8000fee:	687b      	ldr	r3, [r7, #4]
 8000ff0:	681b      	ldr	r3, [r3, #0]
 8000ff2:	4a15      	ldr	r2, [pc, #84]	; (8001048 <HAL_I2C_MspInit+0x70>)
 8000ff4:	4293      	cmp	r3, r2
 8000ff6:	d123      	bne.n	8001040 <HAL_I2C_MspInit+0x68>
  {
  /* USER CODE BEGIN I2C1_MspInit 0 */
	    /* Peripheral clock enable */
    __HAL_RCC_I2C1_CLK_ENABLE();
 8000ff8:	4b14      	ldr	r3, [pc, #80]	; (800104c <HAL_I2C_MspInit+0x74>)
 8000ffa:	69db      	ldr	r3, [r3, #28]
 8000ffc:	4a13      	ldr	r2, [pc, #76]	; (800104c <HAL_I2C_MspInit+0x74>)
 8000ffe:	f443 1300 	orr.w	r3, r3, #2097152	; 0x200000
 8001002:	61d3      	str	r3, [r2, #28]
 8001004:	4b11      	ldr	r3, [pc, #68]	; (800104c <HAL_I2C_MspInit+0x74>)
 8001006:	69db      	ldr	r3, [r3, #28]
 8001008:	f403 1300 	and.w	r3, r3, #2097152	; 0x200000
 800100c:	60fb      	str	r3, [r7, #12]
 800100e:	68fb      	ldr	r3, [r7, #12]
  /* USER CODE END I2C1_MspInit 0 */

    __HAL_RCC_GPIOB_CLK_ENABLE();
 8001010:	4b0e      	ldr	r3, [pc, #56]	; (800104c <HAL_I2C_MspInit+0x74>)
 8001012:	699b      	ldr	r3, [r3, #24]
 8001014:	4a0d      	ldr	r2, [pc, #52]	; (800104c <HAL_I2C_MspInit+0x74>)
 8001016:	f043 0308 	orr.w	r3, r3, #8
 800101a:	6193      	str	r3, [r2, #24]
 800101c:	4b0b      	ldr	r3, [pc, #44]	; (800104c <HAL_I2C_MspInit+0x74>)
 800101e:	699b      	ldr	r3, [r3, #24]
 8001020:	f003 0308 	and.w	r3, r3, #8
 8001024:	60bb      	str	r3, [r7, #8]
 8001026:	68bb      	ldr	r3, [r7, #8]
    /**I2C1 GPIO Configuration
    PB6     ------> I2C1_SCL
    PB7     ------> I2C1_SDA
    */
    GPIO_InitStruct.Pin = GPIO_PIN_6|GPIO_PIN_7;
 8001028:	23c0      	movs	r3, #192	; 0xc0
 800102a:	613b      	str	r3, [r7, #16]
    GPIO_InitStruct.Mode = GPIO_MODE_AF_OD;
 800102c:	2312      	movs	r3, #18
 800102e:	617b      	str	r3, [r7, #20]
    GPIO_InitStruct.Speed = GPIO_SPEED_FREQ_HIGH;
 8001030:	2303      	movs	r3, #3
 8001032:	61fb      	str	r3, [r7, #28]
    HAL_GPIO_Init(GPIOB, &GPIO_InitStruct);
 8001034:	f107 0310 	add.w	r3, r7, #16
 8001038:	4619      	mov	r1, r3
 800103a:	4805      	ldr	r0, [pc, #20]	; (8001050 <HAL_I2C_MspInit+0x78>)
 800103c:	f001 ffa8 	bl	8002f90 <HAL_GPIO_Init>
  /* USER CODE BEGIN I2C1_MspInit 1 */

  /* USER CODE END I2C1_MspInit 1 */
  }

}
 8001040:	bf00      	nop
 8001042:	3720      	adds	r7, #32
 8001044:	46bd      	mov	sp, r7
 8001046:	bd80      	pop	{r7, pc}
 8001048:	40005400 	.word	0x40005400
 800104c:	40021000 	.word	0x40021000
 8001050:	40010c00 	.word	0x40010c00

08001054 <HAL_UART_MspInit>:
* This function configures the hardware resources used in this example
* @param huart: UART handle pointer
* @retval None
*/
void HAL_UART_MspInit(UART_HandleTypeDef* huart)
{
 8001054:	b580      	push	{r7, lr}
 8001056:	b08a      	sub	sp, #40	; 0x28
 8001058:	af00      	add	r7, sp, #0
 800105a:	6078      	str	r0, [r7, #4]
  GPIO_InitTypeDef GPIO_InitStruct = {0};
 800105c:	f107 0318 	add.w	r3, r7, #24
 8001060:	2200      	movs	r2, #0
 8001062:	601a      	str	r2, [r3, #0]
 8001064:	605a      	str	r2, [r3, #4]
 8001066:	609a      	str	r2, [r3, #8]
 8001068:	60da      	str	r2, [r3, #12]
  if(huart->Instance==USART1)
 800106a:	687b      	ldr	r3, [r7, #4]
 800106c:	681b      	ldr	r3, [r3, #0]
 800106e:	4a4e      	ldr	r2, [pc, #312]	; (80011a8 <HAL_UART_MspInit+0x154>)
 8001070:	4293      	cmp	r3, r2
 8001072:	d132      	bne.n	80010da <HAL_UART_MspInit+0x86>
  {
  /* USER CODE BEGIN USART1_MspInit 0 */

  /* USER CODE END USART1_MspInit 0 */
    /* Peripheral clock enable */
    __HAL_RCC_USART1_CLK_ENABLE();
 8001074:	4b4d      	ldr	r3, [pc, #308]	; (80011ac <HAL_UART_MspInit+0x158>)
 8001076:	699b      	ldr	r3, [r3, #24]
 8001078:	4a4c      	ldr	r2, [pc, #304]	; (80011ac <HAL_UART_MspInit+0x158>)
 800107a:	f443 4380 	orr.w	r3, r3, #16384	; 0x4000
 800107e:	6193      	str	r3, [r2, #24]
 8001080:	4b4a      	ldr	r3, [pc, #296]	; (80011ac <HAL_UART_MspInit+0x158>)
 8001082:	699b      	ldr	r3, [r3, #24]
 8001084:	f403 4380 	and.w	r3, r3, #16384	; 0x4000
 8001088:	617b      	str	r3, [r7, #20]
 800108a:	697b      	ldr	r3, [r7, #20]

    __HAL_RCC_GPIOA_CLK_ENABLE();
 800108c:	4b47      	ldr	r3, [pc, #284]	; (80011ac <HAL_UART_MspInit+0x158>)
 800108e:	699b      	ldr	r3, [r3, #24]
 8001090:	4a46      	ldr	r2, [pc, #280]	; (80011ac <HAL_UART_MspInit+0x158>)
 8001092:	f043 0304 	orr.w	r3, r3, #4
 8001096:	6193      	str	r3, [r2, #24]
 8001098:	4b44      	ldr	r3, [pc, #272]	; (80011ac <HAL_UART_MspInit+0x158>)
 800109a:	699b      	ldr	r3, [r3, #24]
 800109c:	f003 0304 	and.w	r3, r3, #4
 80010a0:	613b      	str	r3, [r7, #16]
 80010a2:	693b      	ldr	r3, [r7, #16]
    /**USART1 GPIO Configuration
    PA9     ------> USART1_TX
    PA10     ------> USART1_RX
    */
    GPIO_InitStruct.Pin = GPIO_PIN_9;
 80010a4:	f44f 7300 	mov.w	r3, #512	; 0x200
 80010a8:	61bb      	str	r3, [r7, #24]
    GPIO_InitStruct.Mode = GPIO_MODE_AF_PP;
 80010aa:	2302      	movs	r3, #2
 80010ac:	61fb      	str	r3, [r7, #28]
    GPIO_InitStruct.Speed = GPIO_SPEED_FREQ_HIGH;
 80010ae:	2303      	movs	r3, #3
 80010b0:	627b      	str	r3, [r7, #36]	; 0x24
    HAL_GPIO_Init(GPIOA, &GPIO_InitStruct);
 80010b2:	f107 0318 	add.w	r3, r7, #24
 80010b6:	4619      	mov	r1, r3
 80010b8:	483d      	ldr	r0, [pc, #244]	; (80011b0 <HAL_UART_MspInit+0x15c>)
 80010ba:	f001 ff69 	bl	8002f90 <HAL_GPIO_Init>

    GPIO_InitStruct.Pin = GPIO_PIN_10;
 80010be:	f44f 6380 	mov.w	r3, #1024	; 0x400
 80010c2:	61bb      	str	r3, [r7, #24]
    GPIO_InitStruct.Mode = GPIO_MODE_INPUT;
 80010c4:	2300      	movs	r3, #0
 80010c6:	61fb      	str	r3, [r7, #28]
    GPIO_InitStruct.Pull = GPIO_NOPULL;
 80010c8:	2300      	movs	r3, #0
 80010ca:	623b      	str	r3, [r7, #32]
    HAL_GPIO_Init(GPIOA, &GPIO_InitStruct);
 80010cc:	f107 0318 	add.w	r3, r7, #24
 80010d0:	4619      	mov	r1, r3
 80010d2:	4837      	ldr	r0, [pc, #220]	; (80011b0 <HAL_UART_MspInit+0x15c>)
 80010d4:	f001 ff5c 	bl	8002f90 <HAL_GPIO_Init>
  /* USER CODE BEGIN USART2_MspInit 1 */

  /* USER CODE END USART2_MspInit 1 */
  }

}
 80010d8:	e062      	b.n	80011a0 <HAL_UART_MspInit+0x14c>
  else if(huart->Instance==USART2)
 80010da:	687b      	ldr	r3, [r7, #4]
 80010dc:	681b      	ldr	r3, [r3, #0]
 80010de:	4a35      	ldr	r2, [pc, #212]	; (80011b4 <HAL_UART_MspInit+0x160>)
 80010e0:	4293      	cmp	r3, r2
 80010e2:	d15d      	bne.n	80011a0 <HAL_UART_MspInit+0x14c>
    __HAL_RCC_USART2_CLK_ENABLE();
 80010e4:	4b31      	ldr	r3, [pc, #196]	; (80011ac <HAL_UART_MspInit+0x158>)
 80010e6:	69db      	ldr	r3, [r3, #28]
 80010e8:	4a30      	ldr	r2, [pc, #192]	; (80011ac <HAL_UART_MspInit+0x158>)
 80010ea:	f443 3300 	orr.w	r3, r3, #131072	; 0x20000
 80010ee:	61d3      	str	r3, [r2, #28]
 80010f0:	4b2e      	ldr	r3, [pc, #184]	; (80011ac <HAL_UART_MspInit+0x158>)
 80010f2:	69db      	ldr	r3, [r3, #28]
 80010f4:	f403 3300 	and.w	r3, r3, #131072	; 0x20000
 80010f8:	60fb      	str	r3, [r7, #12]
 80010fa:	68fb      	ldr	r3, [r7, #12]
    __HAL_RCC_GPIOA_CLK_ENABLE();
 80010fc:	4b2b      	ldr	r3, [pc, #172]	; (80011ac <HAL_UART_MspInit+0x158>)
 80010fe:	699b      	ldr	r3, [r3, #24]
 8001100:	4a2a      	ldr	r2, [pc, #168]	; (80011ac <HAL_UART_MspInit+0x158>)
 8001102:	f043 0304 	orr.w	r3, r3, #4
 8001106:	6193      	str	r3, [r2, #24]
 8001108:	4b28      	ldr	r3, [pc, #160]	; (80011ac <HAL_UART_MspInit+0x158>)
 800110a:	699b      	ldr	r3, [r3, #24]
 800110c:	f003 0304 	and.w	r3, r3, #4
 8001110:	60bb      	str	r3, [r7, #8]
 8001112:	68bb      	ldr	r3, [r7, #8]
    GPIO_InitStruct.Pin = GPIO_PIN_2;
 8001114:	2304      	movs	r3, #4
 8001116:	61bb      	str	r3, [r7, #24]
    GPIO_InitStruct.Mode = GPIO_MODE_AF_PP;
 8001118:	2302      	movs	r3, #2
 800111a:	61fb      	str	r3, [r7, #28]
    GPIO_InitStruct.Speed = GPIO_SPEED_FREQ_HIGH;
 800111c:	2303      	movs	r3, #3
 800111e:	627b      	str	r3, [r7, #36]	; 0x24
    HAL_GPIO_Init(GPIOA, &GPIO_InitStruct);
 8001120:	f107 0318 	add.w	r3, r7, #24
 8001124:	4619      	mov	r1, r3
 8001126:	4822      	ldr	r0, [pc, #136]	; (80011b0 <HAL_UART_MspInit+0x15c>)
 8001128:	f001 ff32 	bl	8002f90 <HAL_GPIO_Init>
    GPIO_InitStruct.Pin = GPIO_PIN_3;
 800112c:	2308      	movs	r3, #8
 800112e:	61bb      	str	r3, [r7, #24]
    GPIO_InitStruct.Mode = GPIO_MODE_INPUT;
 8001130:	2300      	movs	r3, #0
 8001132:	61fb      	str	r3, [r7, #28]
    GPIO_InitStruct.Pull = GPIO_NOPULL;
 8001134:	2300      	movs	r3, #0
 8001136:	623b      	str	r3, [r7, #32]
    HAL_GPIO_Init(GPIOA, &GPIO_InitStruct);
 8001138:	f107 0318 	add.w	r3, r7, #24
 800113c:	4619      	mov	r1, r3
 800113e:	481c      	ldr	r0, [pc, #112]	; (80011b0 <HAL_UART_MspInit+0x15c>)
 8001140:	f001 ff26 	bl	8002f90 <HAL_GPIO_Init>
    hdma_usart2_rx.Instance = DMA1_Channel6;
 8001144:	4b1c      	ldr	r3, [pc, #112]	; (80011b8 <HAL_UART_MspInit+0x164>)
 8001146:	4a1d      	ldr	r2, [pc, #116]	; (80011bc <HAL_UART_MspInit+0x168>)
 8001148:	601a      	str	r2, [r3, #0]
    hdma_usart2_rx.Init.Direction = DMA_PERIPH_TO_MEMORY;
 800114a:	4b1b      	ldr	r3, [pc, #108]	; (80011b8 <HAL_UART_MspInit+0x164>)
 800114c:	2200      	movs	r2, #0
 800114e:	605a      	str	r2, [r3, #4]
    hdma_usart2_rx.Init.PeriphInc = DMA_PINC_DISABLE;
 8001150:	4b19      	ldr	r3, [pc, #100]	; (80011b8 <HAL_UART_MspInit+0x164>)
 8001152:	2200      	movs	r2, #0
 8001154:	609a      	str	r2, [r3, #8]
    hdma_usart2_rx.Init.MemInc = DMA_MINC_ENABLE;
 8001156:	4b18      	ldr	r3, [pc, #96]	; (80011b8 <HAL_UART_MspInit+0x164>)
 8001158:	2280      	movs	r2, #128	; 0x80
 800115a:	60da      	str	r2, [r3, #12]
    hdma_usart2_rx.Init.PeriphDataAlignment = DMA_PDATAALIGN_BYTE;
 800115c:	4b16      	ldr	r3, [pc, #88]	; (80011b8 <HAL_UART_MspInit+0x164>)
 800115e:	2200      	movs	r2, #0
 8001160:	611a      	str	r2, [r3, #16]
    hdma_usart2_rx.Init.MemDataAlignment = DMA_MDATAALIGN_BYTE;
 8001162:	4b15      	ldr	r3, [pc, #84]	; (80011b8 <HAL_UART_MspInit+0x164>)
 8001164:	2200      	movs	r2, #0
 8001166:	615a      	str	r2, [r3, #20]
    hdma_usart2_rx.Init.Mode = DMA_NORMAL;
 8001168:	4b13      	ldr	r3, [pc, #76]	; (80011b8 <HAL_UART_MspInit+0x164>)
 800116a:	2200      	movs	r2, #0
 800116c:	619a      	str	r2, [r3, #24]
    hdma_usart2_rx.Init.Priority = DMA_PRIORITY_LOW;
 800116e:	4b12      	ldr	r3, [pc, #72]	; (80011b8 <HAL_UART_MspInit+0x164>)
 8001170:	2200      	movs	r2, #0
 8001172:	61da      	str	r2, [r3, #28]
    if (HAL_DMA_Init(&hdma_usart2_rx) != HAL_OK)
 8001174:	4810      	ldr	r0, [pc, #64]	; (80011b8 <HAL_UART_MspInit+0x164>)
 8001176:	f001 fc63 	bl	8002a40 <HAL_DMA_Init>
 800117a:	4603      	mov	r3, r0
 800117c:	2b00      	cmp	r3, #0
 800117e:	d001      	beq.n	8001184 <HAL_UART_MspInit+0x130>
      Error_Handler();
 8001180:	f7ff fe02 	bl	8000d88 <Error_Handler>
    __HAL_LINKDMA(huart,hdmarx,hdma_usart2_rx);
 8001184:	687b      	ldr	r3, [r7, #4]
 8001186:	4a0c      	ldr	r2, [pc, #48]	; (80011b8 <HAL_UART_MspInit+0x164>)
 8001188:	635a      	str	r2, [r3, #52]	; 0x34
 800118a:	4a0b      	ldr	r2, [pc, #44]	; (80011b8 <HAL_UART_MspInit+0x164>)
 800118c:	687b      	ldr	r3, [r7, #4]
 800118e:	6253      	str	r3, [r2, #36]	; 0x24
    HAL_NVIC_SetPriority(USART2_IRQn, 5, 0);
 8001190:	2200      	movs	r2, #0
 8001192:	2105      	movs	r1, #5
 8001194:	2026      	movs	r0, #38	; 0x26
 8001196:	f001 fc28 	bl	80029ea <HAL_NVIC_SetPriority>
    HAL_NVIC_EnableIRQ(USART2_IRQn);
 800119a:	2026      	movs	r0, #38	; 0x26
 800119c:	f001 fc41 	bl	8002a22 <HAL_NVIC_EnableIRQ>
}
 80011a0:	bf00      	nop
 80011a2:	3728      	adds	r7, #40	; 0x28
 80011a4:	46bd      	mov	sp, r7
 80011a6:	bd80      	pop	{r7, pc}
 80011a8:	40013800 	.word	0x40013800
 80011ac:	40021000 	.word	0x40021000
 80011b0:	40010800 	.word	0x40010800
 80011b4:	40004400 	.word	0x40004400
 80011b8:	20004428 	.word	0x20004428
 80011bc:	4002006c 	.word	0x4002006c

080011c0 <HAL_InitTick>:
  *         reset by HAL_Init() or at any time when clock is configured, by HAL_RCC_ClockConfig().
  * @param  TickPriority: Tick interrupt priority.
  * @retval HAL status
  */
HAL_StatusTypeDef HAL_InitTick(uint32_t TickPriority)
{
 80011c0:	b580      	push	{r7, lr}
 80011c2:	b08c      	sub	sp, #48	; 0x30
 80011c4:	af00      	add	r7, sp, #0
 80011c6:	6078      	str	r0, [r7, #4]
  RCC_ClkInitTypeDef    clkconfig;
  uint32_t              uwTimclock = 0;
 80011c8:	2300      	movs	r3, #0
 80011ca:	62fb      	str	r3, [r7, #44]	; 0x2c
  uint32_t              uwPrescalerValue = 0;
 80011cc:	2300      	movs	r3, #0
 80011ce:	62bb      	str	r3, [r7, #40]	; 0x28
  uint32_t              pFLatency;

  /*Configure the TIM4 IRQ priority */
  HAL_NVIC_SetPriority(TIM4_IRQn, TickPriority ,0);
 80011d0:	2200      	movs	r2, #0
 80011d2:	6879      	ldr	r1, [r7, #4]
 80011d4:	201e      	movs	r0, #30
 80011d6:	f001 fc08 	bl	80029ea <HAL_NVIC_SetPriority>

  /* Enable the TIM4 global Interrupt */
  HAL_NVIC_EnableIRQ(TIM4_IRQn);
 80011da:	201e      	movs	r0, #30
 80011dc:	f001 fc21 	bl	8002a22 <HAL_NVIC_EnableIRQ>

  /* Enable TIM4 clock */
  __HAL_RCC_TIM4_CLK_ENABLE();
 80011e0:	4b1f      	ldr	r3, [pc, #124]	; (8001260 <HAL_InitTick+0xa0>)
 80011e2:	69db      	ldr	r3, [r3, #28]
 80011e4:	4a1e      	ldr	r2, [pc, #120]	; (8001260 <HAL_InitTick+0xa0>)
 80011e6:	f043 0304 	orr.w	r3, r3, #4
 80011ea:	61d3      	str	r3, [r2, #28]
 80011ec:	4b1c      	ldr	r3, [pc, #112]	; (8001260 <HAL_InitTick+0xa0>)
 80011ee:	69db      	ldr	r3, [r3, #28]
 80011f0:	f003 0304 	and.w	r3, r3, #4
 80011f4:	60fb      	str	r3, [r7, #12]
 80011f6:	68fb      	ldr	r3, [r7, #12]

  /* Get clock configuration */
  HAL_RCC_GetClockConfig(&clkconfig, &pFLatency);
 80011f8:	f107 0210 	add.w	r2, r7, #16
 80011fc:	f107 0314 	add.w	r3, r7, #20
 8001200:	4611      	mov	r1, r2
 8001202:	4618      	mov	r0, r3
 8001204:	f003 f86e 	bl	80042e4 <HAL_RCC_GetClockConfig>

  /* Compute TIM4 clock */
  uwTimclock = 2*HAL_RCC_GetPCLK1Freq();
 8001208:	f003 f844 	bl	8004294 <HAL_RCC_GetPCLK1Freq>
 800120c:	4603      	mov	r3, r0
 800120e:	005b      	lsls	r3, r3, #1
 8001210:	62fb      	str	r3, [r7, #44]	; 0x2c

  /* Compute the prescaler value to have TIM4 counter clock equal to 1MHz */
  uwPrescalerValue = (uint32_t) ((uwTimclock / 1000000) - 1);
 8001212:	6afb      	ldr	r3, [r7, #44]	; 0x2c
 8001214:	4a13      	ldr	r2, [pc, #76]	; (8001264 <HAL_InitTick+0xa4>)
 8001216:	fba2 2303 	umull	r2, r3, r2, r3
 800121a:	0c9b      	lsrs	r3, r3, #18
 800121c:	3b01      	subs	r3, #1
 800121e:	62bb      	str	r3, [r7, #40]	; 0x28

  /* Initialize TIM4 */
  htim4.Instance = TIM4;
 8001220:	4b11      	ldr	r3, [pc, #68]	; (8001268 <HAL_InitTick+0xa8>)
 8001222:	4a12      	ldr	r2, [pc, #72]	; (800126c <HAL_InitTick+0xac>)
 8001224:	601a      	str	r2, [r3, #0]
  + Period = [(TIM4CLK/1000) - 1]. to have a (1/1000) s time base.
  + Prescaler = (uwTimclock/1000000 - 1) to have a 1MHz counter clock.
  + ClockDivision = 0
  + Counter direction = Up
  */
  htim4.Init.Period = (1000000 / 1000) - 1;
 8001226:	4b10      	ldr	r3, [pc, #64]	; (8001268 <HAL_InitTick+0xa8>)
 8001228:	f240 32e7 	movw	r2, #999	; 0x3e7
 800122c:	60da      	str	r2, [r3, #12]
  htim4.Init.Prescaler = uwPrescalerValue;
 800122e:	4a0e      	ldr	r2, [pc, #56]	; (8001268 <HAL_InitTick+0xa8>)
 8001230:	6abb      	ldr	r3, [r7, #40]	; 0x28
 8001232:	6053      	str	r3, [r2, #4]
  htim4.Init.ClockDivision = 0;
 8001234:	4b0c      	ldr	r3, [pc, #48]	; (8001268 <HAL_InitTick+0xa8>)
 8001236:	2200      	movs	r2, #0
 8001238:	611a      	str	r2, [r3, #16]
  htim4.Init.CounterMode = TIM_COUNTERMODE_UP;
 800123a:	4b0b      	ldr	r3, [pc, #44]	; (8001268 <HAL_InitTick+0xa8>)
 800123c:	2200      	movs	r2, #0
 800123e:	609a      	str	r2, [r3, #8]
  if(HAL_TIM_Base_Init(&htim4) == HAL_OK)
 8001240:	4809      	ldr	r0, [pc, #36]	; (8001268 <HAL_InitTick+0xa8>)
 8001242:	f003 f953 	bl	80044ec <HAL_TIM_Base_Init>
 8001246:	4603      	mov	r3, r0
 8001248:	2b00      	cmp	r3, #0
 800124a:	d104      	bne.n	8001256 <HAL_InitTick+0x96>
  {
    /* Start the TIM time Base generation in interrupt mode */
    return HAL_TIM_Base_Start_IT(&htim4);
 800124c:	4806      	ldr	r0, [pc, #24]	; (8001268 <HAL_InitTick+0xa8>)
 800124e:	f003 f981 	bl	8004554 <HAL_TIM_Base_Start_IT>
 8001252:	4603      	mov	r3, r0
 8001254:	e000      	b.n	8001258 <HAL_InitTick+0x98>
  }

  /* Return function status */
  return HAL_ERROR;
 8001256:	2301      	movs	r3, #1
}
 8001258:	4618      	mov	r0, r3
 800125a:	3730      	adds	r7, #48	; 0x30
 800125c:	46bd      	mov	sp, r7
 800125e:	bd80      	pop	{r7, pc}
 8001260:	40021000 	.word	0x40021000
 8001264:	431bde83 	.word	0x431bde83
 8001268:	20004698 	.word	0x20004698
 800126c:	40000800 	.word	0x40000800

08001270 <NMI_Handler>:
/******************************************************************************/
/**
  * @brief This function handles Non maskable interrupt.
  */
void NMI_Handler(void)
{
 8001270:	b480      	push	{r7}
 8001272:	af00      	add	r7, sp, #0

  /* USER CODE END NonMaskableInt_IRQn 0 */
  /* USER CODE BEGIN NonMaskableInt_IRQn 1 */

  /* USER CODE END NonMaskableInt_IRQn 1 */
}
 8001274:	bf00      	nop
 8001276:	46bd      	mov	sp, r7
 8001278:	bc80      	pop	{r7}
 800127a:	4770      	bx	lr

0800127c <HardFault_Handler>:

/**
  * @brief This function handles Hard fault interrupt.
  */
void HardFault_Handler(void)
{
 800127c:	b480      	push	{r7}
 800127e:	af00      	add	r7, sp, #0
  /* USER CODE BEGIN HardFault_IRQn 0 */

  /* USER CODE END HardFault_IRQn 0 */
  while (1)
 8001280:	e7fe      	b.n	8001280 <HardFault_Handler+0x4>

08001282 <MemManage_Handler>:

/**
  * @brief This function handles Memory management fault.
  */
void MemManage_Handler(void)
{
 8001282:	b480      	push	{r7}
 8001284:	af00      	add	r7, sp, #0
  /* USER CODE BEGIN MemoryManagement_IRQn 0 */

  /* USER CODE END MemoryManagement_IRQn 0 */
  while (1)
 8001286:	e7fe      	b.n	8001286 <MemManage_Handler+0x4>

08001288 <BusFault_Handler>:

/**
  * @brief This function handles Prefetch fault, memory access fault.
  */
void BusFault_Handler(void)
{
 8001288:	b480      	push	{r7}
 800128a:	af00      	add	r7, sp, #0
  /* USER CODE BEGIN BusFault_IRQn 0 */

  /* USER CODE END BusFault_IRQn 0 */
  while (1)
 800128c:	e7fe      	b.n	800128c <BusFault_Handler+0x4>

0800128e <UsageFault_Handler>:

/**
  * @brief This function handles Undefined instruction or illegal state.
  */
void UsageFault_Handler(void)
{
 800128e:	b480      	push	{r7}
 8001290:	af00      	add	r7, sp, #0
  /* USER CODE BEGIN UsageFault_IRQn 0 */

  /* USER CODE END UsageFault_IRQn 0 */
  while (1)
 8001292:	e7fe      	b.n	8001292 <UsageFault_Handler+0x4>

08001294 <DebugMon_Handler>:

/**
  * @brief This function handles Debug monitor.
  */
void DebugMon_Handler(void)
{
 8001294:	b480      	push	{r7}
 8001296:	af00      	add	r7, sp, #0

  /* USER CODE END DebugMonitor_IRQn 0 */
  /* USER CODE BEGIN DebugMonitor_IRQn 1 */

  /* USER CODE END DebugMonitor_IRQn 1 */
}
 8001298:	bf00      	nop
 800129a:	46bd      	mov	sp, r7
 800129c:	bc80      	pop	{r7}
 800129e:	4770      	bx	lr

080012a0 <DMA1_Channel1_IRQHandler>:

/**
  * @brief This function handles DMA1 channel1 global interrupt.
  */
void DMA1_Channel1_IRQHandler(void)
{
 80012a0:	b580      	push	{r7, lr}
 80012a2:	af00      	add	r7, sp, #0
  /* USER CODE BEGIN DMA1_Channel1_IRQn 0 */

  /* USER CODE END DMA1_Channel1_IRQn 0 */
  HAL_DMA_IRQHandler(&hdma_adc1);
 80012a4:	4802      	ldr	r0, [pc, #8]	; (80012b0 <DMA1_Channel1_IRQHandler+0x10>)
 80012a6:	f001 fd35 	bl	8002d14 <HAL_DMA_IRQHandler>
  /* USER CODE BEGIN DMA1_Channel1_IRQn 1 */

  /* USER CODE END DMA1_Channel1_IRQn 1 */
}
 80012aa:	bf00      	nop
 80012ac:	bd80      	pop	{r7, pc}
 80012ae:	bf00      	nop
 80012b0:	200045dc 	.word	0x200045dc

080012b4 <DMA1_Channel6_IRQHandler>:

/**
  * @brief This function handles DMA1 channel6 global interrupt.
  */
void DMA1_Channel6_IRQHandler(void)
{
 80012b4:	b580      	push	{r7, lr}
 80012b6:	af00      	add	r7, sp, #0
  /* USER CODE BEGIN DMA1_Channel6_IRQn 0 */

  /* USER CODE END DMA1_Channel6_IRQn 0 */
  HAL_DMA_IRQHandler(&hdma_usart2_rx);
 80012b8:	4802      	ldr	r0, [pc, #8]	; (80012c4 <DMA1_Channel6_IRQHandler+0x10>)
 80012ba:	f001 fd2b 	bl	8002d14 <HAL_DMA_IRQHandler>
  /* USER CODE BEGIN DMA1_Channel6_IRQn 1 */

  /* USER CODE END DMA1_Channel6_IRQn 1 */
}
 80012be:	bf00      	nop
 80012c0:	bd80      	pop	{r7, pc}
 80012c2:	bf00      	nop
 80012c4:	20004428 	.word	0x20004428

080012c8 <TIM4_IRQHandler>:

/**
  * @brief This function handles TIM4 global interrupt.
  */
void TIM4_IRQHandler(void)
{
 80012c8:	b580      	push	{r7, lr}
 80012ca:	af00      	add	r7, sp, #0
  /* USER CODE BEGIN TIM4_IRQn 0 */

  /* USER CODE END TIM4_IRQn 0 */
  HAL_TIM_IRQHandler(&htim4);
 80012cc:	4802      	ldr	r0, [pc, #8]	; (80012d8 <TIM4_IRQHandler+0x10>)
 80012ce:	f003 f964 	bl	800459a <HAL_TIM_IRQHandler>
  /* USER CODE BEGIN TIM4_IRQn 1 */

  /* USER CODE END TIM4_IRQn 1 */
}
 80012d2:	bf00      	nop
 80012d4:	bd80      	pop	{r7, pc}
 80012d6:	bf00      	nop
 80012d8:	20004698 	.word	0x20004698

080012dc <USART2_IRQHandler>:

/**
  * @brief This function handles USART2 global interrupt.
  */
void USART2_IRQHandler(void)
{
 80012dc:	b580      	push	{r7, lr}
 80012de:	af00      	add	r7, sp, #0
  /* USER CODE BEGIN USART2_IRQn 0 */

  /* USER CODE END USART2_IRQn 0 */
  HAL_UART_IRQHandler(&huart2);
 80012e0:	4802      	ldr	r0, [pc, #8]	; (80012ec <USART2_IRQHandler+0x10>)
 80012e2:	f003 fcb7 	bl	8004c54 <HAL_UART_IRQHandler>
  /* USER CODE BEGIN USART2_IRQn 1 */

  /* USER CODE END USART2_IRQn 1 */
}
 80012e6:	bf00      	nop
 80012e8:	bd80      	pop	{r7, pc}
 80012ea:	bf00      	nop
 80012ec:	2000464c 	.word	0x2000464c

080012f0 <USB_HP_CAN1_TX_IRQHandler>:

/* USER CODE BEGIN 1 */
void USB_HP_CAN1_TX_IRQHandler(void){
 80012f0:	b580      	push	{r7, lr}
 80012f2:	af00      	add	r7, sp, #0
	HAL_CAN_IRQHandler(&hcan);
 80012f4:	4802      	ldr	r0, [pc, #8]	; (8001300 <USB_HP_CAN1_TX_IRQHandler+0x10>)
 80012f6:	f001 f8a5 	bl	8002444 <HAL_CAN_IRQHandler>
}
 80012fa:	bf00      	nop
 80012fc:	bd80      	pop	{r7, pc}
 80012fe:	bf00      	nop
 8001300:	200044d0 	.word	0x200044d0

08001304 <USB_LP_CAN1_RX0_IRQHandler>:
void USB_LP_CAN1_RX0_IRQHandler(void){
 8001304:	b580      	push	{r7, lr}
 8001306:	af00      	add	r7, sp, #0
	HAL_CAN_IRQHandler(&hcan);
 8001308:	4802      	ldr	r0, [pc, #8]	; (8001314 <USB_LP_CAN1_RX0_IRQHandler+0x10>)
 800130a:	f001 f89b 	bl	8002444 <HAL_CAN_IRQHandler>
}
 800130e:	bf00      	nop
 8001310:	bd80      	pop	{r7, pc}
 8001312:	bf00      	nop
 8001314:	200044d0 	.word	0x200044d0

08001318 <CAN1_RX1_IRQHandler>:
void CAN1_RX1_IRQHandler(void){
 8001318:	b580      	push	{r7, lr}
 800131a:	af00      	add	r7, sp, #0
	HAL_CAN_IRQHandler(&hcan);
 800131c:	4802      	ldr	r0, [pc, #8]	; (8001328 <CAN1_RX1_IRQHandler+0x10>)
 800131e:	f001 f891 	bl	8002444 <HAL_CAN_IRQHandler>
}
 8001322:	bf00      	nop
 8001324:	bd80      	pop	{r7, pc}
 8001326:	bf00      	nop
 8001328:	200044d0 	.word	0x200044d0

0800132c <CAN1_SCE_IRQHandler>:
void CAN1_SCE_IRQHandler(void){
 800132c:	b580      	push	{r7, lr}
 800132e:	af00      	add	r7, sp, #0
	HAL_CAN_IRQHandler(&hcan);
 8001330:	4802      	ldr	r0, [pc, #8]	; (800133c <CAN1_SCE_IRQHandler+0x10>)
 8001332:	f001 f887 	bl	8002444 <HAL_CAN_IRQHandler>
}
 8001336:	bf00      	nop
 8001338:	bd80      	pop	{r7, pc}
 800133a:	bf00      	nop
 800133c:	200044d0 	.word	0x200044d0

08001340 <SystemInit>:
  * @note   This function should be used only after reset.
  * @param  None
  * @retval None
  */
void SystemInit (void)
{
 8001340:	b480      	push	{r7}
 8001342:	af00      	add	r7, sp, #0
  /* Reset the RCC clock configuration to the default reset state(for debug purpose) */
  /* Set HSION bit */
  RCC->CR |= 0x00000001U;
 8001344:	4b15      	ldr	r3, [pc, #84]	; (800139c <SystemInit+0x5c>)
 8001346:	681b      	ldr	r3, [r3, #0]
 8001348:	4a14      	ldr	r2, [pc, #80]	; (800139c <SystemInit+0x5c>)
 800134a:	f043 0301 	orr.w	r3, r3, #1
 800134e:	6013      	str	r3, [r2, #0]

  /* Reset SW, HPRE, PPRE1, PPRE2, ADCPRE and MCO bits */
#if !defined(STM32F105xC) && !defined(STM32F107xC)
  RCC->CFGR &= 0xF8FF0000U;
 8001350:	4b12      	ldr	r3, [pc, #72]	; (800139c <SystemInit+0x5c>)
 8001352:	685a      	ldr	r2, [r3, #4]
 8001354:	4911      	ldr	r1, [pc, #68]	; (800139c <SystemInit+0x5c>)
 8001356:	4b12      	ldr	r3, [pc, #72]	; (80013a0 <SystemInit+0x60>)
 8001358:	4013      	ands	r3, r2
 800135a:	604b      	str	r3, [r1, #4]
#else
  RCC->CFGR &= 0xF0FF0000U;
#endif /* STM32F105xC */   
  
  /* Reset HSEON, CSSON and PLLON bits */
  RCC->CR &= 0xFEF6FFFFU;
 800135c:	4b0f      	ldr	r3, [pc, #60]	; (800139c <SystemInit+0x5c>)
 800135e:	681b      	ldr	r3, [r3, #0]
 8001360:	4a0e      	ldr	r2, [pc, #56]	; (800139c <SystemInit+0x5c>)
 8001362:	f023 7384 	bic.w	r3, r3, #17301504	; 0x1080000
 8001366:	f423 3380 	bic.w	r3, r3, #65536	; 0x10000
 800136a:	6013      	str	r3, [r2, #0]

  /* Reset HSEBYP bit */
  RCC->CR &= 0xFFFBFFFFU;
 800136c:	4b0b      	ldr	r3, [pc, #44]	; (800139c <SystemInit+0x5c>)
 800136e:	681b      	ldr	r3, [r3, #0]
 8001370:	4a0a      	ldr	r2, [pc, #40]	; (800139c <SystemInit+0x5c>)
 8001372:	f423 2380 	bic.w	r3, r3, #262144	; 0x40000
 8001376:	6013      	str	r3, [r2, #0]

  /* Reset PLLSRC, PLLXTPRE, PLLMUL and USBPRE/OTGFSPRE bits */
  RCC->CFGR &= 0xFF80FFFFU;
 8001378:	4b08      	ldr	r3, [pc, #32]	; (800139c <SystemInit+0x5c>)
 800137a:	685b      	ldr	r3, [r3, #4]
 800137c:	4a07      	ldr	r2, [pc, #28]	; (800139c <SystemInit+0x5c>)
 800137e:	f423 03fe 	bic.w	r3, r3, #8323072	; 0x7f0000
 8001382:	6053      	str	r3, [r2, #4]

  /* Reset CFGR2 register */
  RCC->CFGR2 = 0x00000000U;      
#else
  /* Disable all interrupts and clear pending bits  */
  RCC->CIR = 0x009F0000U;
 8001384:	4b05      	ldr	r3, [pc, #20]	; (800139c <SystemInit+0x5c>)
 8001386:	f44f 021f 	mov.w	r2, #10420224	; 0x9f0000
 800138a:	609a      	str	r2, [r3, #8]
#endif 

#ifdef VECT_TAB_SRAM
  SCB->VTOR = SRAM_BASE | VECT_TAB_OFFSET; /* Vector Table Relocation in Internal SRAM. */
#else
  SCB->VTOR = FLASH_BASE | VECT_TAB_OFFSET; /* Vector Table Relocation in Internal FLASH. */
 800138c:	4b05      	ldr	r3, [pc, #20]	; (80013a4 <SystemInit+0x64>)
 800138e:	f04f 6200 	mov.w	r2, #134217728	; 0x8000000
 8001392:	609a      	str	r2, [r3, #8]
#endif 
}
 8001394:	bf00      	nop
 8001396:	46bd      	mov	sp, r7
 8001398:	bc80      	pop	{r7}
 800139a:	4770      	bx	lr
 800139c:	40021000 	.word	0x40021000
 80013a0:	f8ff0000 	.word	0xf8ff0000
 80013a4:	e000ed00 	.word	0xe000ed00

080013a8 <Reset_Handler>:
  .weak Reset_Handler
  .type Reset_Handler, %function
Reset_Handler:

/* Copy the data segment initializers from flash to SRAM */
  movs r1, #0
 80013a8:	2100      	movs	r1, #0
  b LoopCopyDataInit
 80013aa:	e003      	b.n	80013b4 <LoopCopyDataInit>

080013ac <CopyDataInit>:

CopyDataInit:
  ldr r3, =_sidata
 80013ac:	4b0b      	ldr	r3, [pc, #44]	; (80013dc <LoopFillZerobss+0x14>)
  ldr r3, [r3, r1]
 80013ae:	585b      	ldr	r3, [r3, r1]
  str r3, [r0, r1]
 80013b0:	5043      	str	r3, [r0, r1]
  adds r1, r1, #4
 80013b2:	3104      	adds	r1, #4

080013b4 <LoopCopyDataInit>:

LoopCopyDataInit:
  ldr r0, =_sdata
 80013b4:	480a      	ldr	r0, [pc, #40]	; (80013e0 <LoopFillZerobss+0x18>)
  ldr r3, =_edata
 80013b6:	4b0b      	ldr	r3, [pc, #44]	; (80013e4 <LoopFillZerobss+0x1c>)
  adds r2, r0, r1
 80013b8:	1842      	adds	r2, r0, r1
  cmp r2, r3
 80013ba:	429a      	cmp	r2, r3
  bcc CopyDataInit
 80013bc:	d3f6      	bcc.n	80013ac <CopyDataInit>
  ldr r2, =_sbss
 80013be:	4a0a      	ldr	r2, [pc, #40]	; (80013e8 <LoopFillZerobss+0x20>)
  b LoopFillZerobss
 80013c0:	e002      	b.n	80013c8 <LoopFillZerobss>

080013c2 <FillZerobss>:
/* Zero fill the bss segment. */
FillZerobss:
  movs r3, #0
 80013c2:	2300      	movs	r3, #0
  str r3, [r2], #4
 80013c4:	f842 3b04 	str.w	r3, [r2], #4

080013c8 <LoopFillZerobss>:

LoopFillZerobss:
  ldr r3, = _ebss
 80013c8:	4b08      	ldr	r3, [pc, #32]	; (80013ec <LoopFillZerobss+0x24>)
  cmp r2, r3
 80013ca:	429a      	cmp	r2, r3
  bcc FillZerobss
 80013cc:	d3f9      	bcc.n	80013c2 <FillZerobss>

/* Call the clock system intitialization function.*/
    bl  SystemInit
 80013ce:	f7ff ffb7 	bl	8001340 <SystemInit>
/* Call static constructors */
    bl __libc_init_array
 80013d2:	f007 f933 	bl	800863c <__libc_init_array>
/* Call the application's entry point.*/
  bl main
 80013d6:	f7fe ff53 	bl	8000280 <main>
  bx lr
 80013da:	4770      	bx	lr
  ldr r3, =_sidata
 80013dc:	08008830 	.word	0x08008830
  ldr r0, =_sdata
 80013e0:	20000000 	.word	0x20000000
  ldr r3, =_edata
 80013e4:	20000014 	.word	0x20000014
  ldr r2, =_sbss
 80013e8:	20000014 	.word	0x20000014
  ldr r3, = _ebss
 80013ec:	20004784 	.word	0x20004784

080013f0 <ADC1_2_IRQHandler>:
 * @retval : None
*/
    .section .text.Default_Handler,"ax",%progbits
Default_Handler:
Infinite_Loop:
  b Infinite_Loop
 80013f0:	e7fe      	b.n	80013f0 <ADC1_2_IRQHandler>
	...

080013f4 <HAL_Init>:
  *         need to ensure that the SysTick time base is always set to 1 millisecond
  *         to have correct HAL operation.
  * @retval HAL status
  */
HAL_StatusTypeDef HAL_Init(void)
{
 80013f4:	b580      	push	{r7, lr}
 80013f6:	af00      	add	r7, sp, #0
    defined(STM32F102x6) || defined(STM32F102xB) || \
    defined(STM32F103x6) || defined(STM32F103xB) || defined(STM32F103xE) || defined(STM32F103xG) || \
    defined(STM32F105xC) || defined(STM32F107xC)

  /* Prefetch buffer is not available on value line devices */
  __HAL_FLASH_PREFETCH_BUFFER_ENABLE();
 80013f8:	4b08      	ldr	r3, [pc, #32]	; (800141c <HAL_Init+0x28>)
 80013fa:	681b      	ldr	r3, [r3, #0]
 80013fc:	4a07      	ldr	r2, [pc, #28]	; (800141c <HAL_Init+0x28>)
 80013fe:	f043 0310 	orr.w	r3, r3, #16
 8001402:	6013      	str	r3, [r2, #0]
#endif
#endif /* PREFETCH_ENABLE */

  /* Set Interrupt Group Priority */
  HAL_NVIC_SetPriorityGrouping(NVIC_PRIORITYGROUP_4);
 8001404:	2003      	movs	r0, #3
 8001406:	f001 fae5 	bl	80029d4 <HAL_NVIC_SetPriorityGrouping>

  /* Use systick as time base source and configure 1ms tick (default clock after Reset is HSI) */
  HAL_InitTick(TICK_INT_PRIORITY);
 800140a:	2000      	movs	r0, #0
 800140c:	f7ff fed8 	bl	80011c0 <HAL_InitTick>

  /* Init the low level hardware */
  HAL_MspInit();
 8001410:	f7ff fcc0 	bl	8000d94 <HAL_MspInit>

  /* Return function status */
  return HAL_OK;
 8001414:	2300      	movs	r3, #0
}
 8001416:	4618      	mov	r0, r3
 8001418:	bd80      	pop	{r7, pc}
 800141a:	bf00      	nop
 800141c:	40022000 	.word	0x40022000

08001420 <HAL_IncTick>:
  * @note This function is declared as __weak to be overwritten in case of other
  *      implementations in user file.
  * @retval None
  */
__weak void HAL_IncTick(void)
{
 8001420:	b480      	push	{r7}
 8001422:	af00      	add	r7, sp, #0
  uwTick += uwTickFreq;
 8001424:	4b05      	ldr	r3, [pc, #20]	; (800143c <HAL_IncTick+0x1c>)
 8001426:	781b      	ldrb	r3, [r3, #0]
 8001428:	461a      	mov	r2, r3
 800142a:	4b05      	ldr	r3, [pc, #20]	; (8001440 <HAL_IncTick+0x20>)
 800142c:	681b      	ldr	r3, [r3, #0]
 800142e:	4413      	add	r3, r2
 8001430:	4a03      	ldr	r2, [pc, #12]	; (8001440 <HAL_IncTick+0x20>)
 8001432:	6013      	str	r3, [r2, #0]
}
 8001434:	bf00      	nop
 8001436:	46bd      	mov	sp, r7
 8001438:	bc80      	pop	{r7}
 800143a:	4770      	bx	lr
 800143c:	2000000c 	.word	0x2000000c
 8001440:	200046d8 	.word	0x200046d8

08001444 <HAL_GetTick>:
  * @note  This function is declared as __weak to be overwritten in case of other
  *       implementations in user file.
  * @retval tick value
  */
__weak uint32_t HAL_GetTick(void)
{
 8001444:	b480      	push	{r7}
 8001446:	af00      	add	r7, sp, #0
  return uwTick;
 8001448:	4b02      	ldr	r3, [pc, #8]	; (8001454 <HAL_GetTick+0x10>)
 800144a:	681b      	ldr	r3, [r3, #0]
}
 800144c:	4618      	mov	r0, r3
 800144e:	46bd      	mov	sp, r7
 8001450:	bc80      	pop	{r7}
 8001452:	4770      	bx	lr
 8001454:	200046d8 	.word	0x200046d8

08001458 <HAL_Delay>:
  *       implementations in user file.
  * @param Delay specifies the delay time length, in milliseconds.
  * @retval None
  */
__weak void HAL_Delay(uint32_t Delay)
{
 8001458:	b580      	push	{r7, lr}
 800145a:	b084      	sub	sp, #16
 800145c:	af00      	add	r7, sp, #0
 800145e:	6078      	str	r0, [r7, #4]
  uint32_t tickstart = HAL_GetTick();
 8001460:	f7ff fff0 	bl	8001444 <HAL_GetTick>
 8001464:	60b8      	str	r0, [r7, #8]
  uint32_t wait = Delay;
 8001466:	687b      	ldr	r3, [r7, #4]
 8001468:	60fb      	str	r3, [r7, #12]

  /* Add a freq to guarantee minimum wait */
  if (wait < HAL_MAX_DELAY)
 800146a:	68fb      	ldr	r3, [r7, #12]
 800146c:	f1b3 3fff 	cmp.w	r3, #4294967295
 8001470:	d005      	beq.n	800147e <HAL_Delay+0x26>
  {
    wait += (uint32_t)(uwTickFreq);
 8001472:	4b09      	ldr	r3, [pc, #36]	; (8001498 <HAL_Delay+0x40>)
 8001474:	781b      	ldrb	r3, [r3, #0]
 8001476:	461a      	mov	r2, r3
 8001478:	68fb      	ldr	r3, [r7, #12]
 800147a:	4413      	add	r3, r2
 800147c:	60fb      	str	r3, [r7, #12]
  }

  while ((HAL_GetTick() - tickstart) < wait)
 800147e:	bf00      	nop
 8001480:	f7ff ffe0 	bl	8001444 <HAL_GetTick>
 8001484:	4602      	mov	r2, r0
 8001486:	68bb      	ldr	r3, [r7, #8]
 8001488:	1ad3      	subs	r3, r2, r3
 800148a:	68fa      	ldr	r2, [r7, #12]
 800148c:	429a      	cmp	r2, r3
 800148e:	d8f7      	bhi.n	8001480 <HAL_Delay+0x28>
  {
  }
}
 8001490:	bf00      	nop
 8001492:	3710      	adds	r7, #16
 8001494:	46bd      	mov	sp, r7
 8001496:	bd80      	pop	{r7, pc}
 8001498:	2000000c 	.word	0x2000000c

0800149c <HAL_ADC_Init>:
  *         of structure "ADC_InitTypeDef".
  * @param  hadc: ADC handle
  * @retval HAL status
  */
HAL_StatusTypeDef HAL_ADC_Init(ADC_HandleTypeDef* hadc)
{
 800149c:	b580      	push	{r7, lr}
 800149e:	b086      	sub	sp, #24
 80014a0:	af00      	add	r7, sp, #0
 80014a2:	6078      	str	r0, [r7, #4]
  HAL_StatusTypeDef tmp_hal_status = HAL_OK;
 80014a4:	2300      	movs	r3, #0
 80014a6:	75fb      	strb	r3, [r7, #23]
  uint32_t tmp_cr1 = 0U;
 80014a8:	2300      	movs	r3, #0
 80014aa:	613b      	str	r3, [r7, #16]
  uint32_t tmp_cr2 = 0U;
 80014ac:	2300      	movs	r3, #0
 80014ae:	60bb      	str	r3, [r7, #8]
  uint32_t tmp_sqr1 = 0U;
 80014b0:	2300      	movs	r3, #0
 80014b2:	60fb      	str	r3, [r7, #12]
  
  /* Check ADC handle */
  if(hadc == NULL)
 80014b4:	687b      	ldr	r3, [r7, #4]
 80014b6:	2b00      	cmp	r3, #0
 80014b8:	d101      	bne.n	80014be <HAL_ADC_Init+0x22>
  {
    return HAL_ERROR;
 80014ba:	2301      	movs	r3, #1
 80014bc:	e0be      	b.n	800163c <HAL_ADC_Init+0x1a0>
  assert_param(IS_ADC_DATA_ALIGN(hadc->Init.DataAlign));
  assert_param(IS_ADC_SCAN_MODE(hadc->Init.ScanConvMode));
  assert_param(IS_FUNCTIONAL_STATE(hadc->Init.ContinuousConvMode));
  assert_param(IS_ADC_EXTTRIG(hadc->Init.ExternalTrigConv));
  
  if(hadc->Init.ScanConvMode != ADC_SCAN_DISABLE)
 80014be:	687b      	ldr	r3, [r7, #4]
 80014c0:	689b      	ldr	r3, [r3, #8]
 80014c2:	2b00      	cmp	r3, #0
  /* Refer to header of this file for more details on clock enabling          */
  /* procedure.                                                               */

  /* Actions performed only if ADC is coming from state reset:                */
  /* - Initialization of ADC MSP                                              */
  if (hadc->State == HAL_ADC_STATE_RESET)
 80014c4:	687b      	ldr	r3, [r7, #4]
 80014c6:	6a9b      	ldr	r3, [r3, #40]	; 0x28
 80014c8:	2b00      	cmp	r3, #0
 80014ca:	d109      	bne.n	80014e0 <HAL_ADC_Init+0x44>
  {
    /* Initialize ADC error code */
    ADC_CLEAR_ERRORCODE(hadc);
 80014cc:	687b      	ldr	r3, [r7, #4]
 80014ce:	2200      	movs	r2, #0
 80014d0:	62da      	str	r2, [r3, #44]	; 0x2c
    
    /* Allocate lock resource and initialize it */
    hadc->Lock = HAL_UNLOCKED;
 80014d2:	687b      	ldr	r3, [r7, #4]
 80014d4:	2200      	movs	r2, #0
 80014d6:	f883 2024 	strb.w	r2, [r3, #36]	; 0x24
    
    /* Init the low level hardware */
    hadc->MspInitCallback(hadc);
#else
    /* Init the low level hardware */
    HAL_ADC_MspInit(hadc);
 80014da:	6878      	ldr	r0, [r7, #4]
 80014dc:	f7ff fc94 	bl	8000e08 <HAL_ADC_MspInit>
  /* Stop potential conversion on going, on regular and injected groups */
  /* Disable ADC peripheral */
  /* Note: In case of ADC already enabled, precaution to not launch an        */
  /*       unwanted conversion while modifying register CR2 by writing 1 to   */
  /*       bit ADON.                                                          */
  tmp_hal_status = ADC_ConversionStop_Disable(hadc);
 80014e0:	6878      	ldr	r0, [r7, #4]
 80014e2:	f000 faf7 	bl	8001ad4 <ADC_ConversionStop_Disable>
 80014e6:	4603      	mov	r3, r0
 80014e8:	75fb      	strb	r3, [r7, #23]
  
  
  /* Configuration of ADC parameters if previous preliminary actions are      */ 
  /* correctly completed.                                                     */
  if (HAL_IS_BIT_CLR(hadc->State, HAL_ADC_STATE_ERROR_INTERNAL) &&
 80014ea:	687b      	ldr	r3, [r7, #4]
 80014ec:	6a9b      	ldr	r3, [r3, #40]	; 0x28
 80014ee:	f003 0310 	and.w	r3, r3, #16
 80014f2:	2b00      	cmp	r3, #0
 80014f4:	f040 8099 	bne.w	800162a <HAL_ADC_Init+0x18e>
 80014f8:	7dfb      	ldrb	r3, [r7, #23]
 80014fa:	2b00      	cmp	r3, #0
 80014fc:	f040 8095 	bne.w	800162a <HAL_ADC_Init+0x18e>
      (tmp_hal_status == HAL_OK)                                  )
  {
    /* Set ADC state */
    ADC_STATE_CLR_SET(hadc->State,
 8001500:	687b      	ldr	r3, [r7, #4]
 8001502:	6a9b      	ldr	r3, [r3, #40]	; 0x28
 8001504:	f423 5388 	bic.w	r3, r3, #4352	; 0x1100
 8001508:	f023 0302 	bic.w	r3, r3, #2
 800150c:	f043 0202 	orr.w	r2, r3, #2
 8001510:	687b      	ldr	r3, [r7, #4]
 8001512:	629a      	str	r2, [r3, #40]	; 0x28
    /*  - continuous conversion mode                                          */
    /* Note: External trigger polarity (ADC_CR2_EXTTRIG) is set into          */
    /*       HAL_ADC_Start_xxx functions because if set in this function,     */
    /*       a conversion on injected group would start a conversion also on  */
    /*       regular group after ADC enabling.                                */
    tmp_cr2 |= (hadc->Init.DataAlign                                          |
 8001514:	687b      	ldr	r3, [r7, #4]
 8001516:	685a      	ldr	r2, [r3, #4]
                ADC_CFGR_EXTSEL(hadc, hadc->Init.ExternalTrigConv)            |
 8001518:	687b      	ldr	r3, [r7, #4]
 800151a:	69db      	ldr	r3, [r3, #28]
    tmp_cr2 |= (hadc->Init.DataAlign                                          |
 800151c:	431a      	orrs	r2, r3
                ADC_CR2_CONTINUOUS((uint32_t)hadc->Init.ContinuousConvMode)   );
 800151e:	687b      	ldr	r3, [r7, #4]
 8001520:	7b1b      	ldrb	r3, [r3, #12]
 8001522:	005b      	lsls	r3, r3, #1
                ADC_CFGR_EXTSEL(hadc, hadc->Init.ExternalTrigConv)            |
 8001524:	4313      	orrs	r3, r2
    tmp_cr2 |= (hadc->Init.DataAlign                                          |
 8001526:	68ba      	ldr	r2, [r7, #8]
 8001528:	4313      	orrs	r3, r2
 800152a:	60bb      	str	r3, [r7, #8]

    /* Configuration of ADC:                                                  */
    /*  - scan mode                                                           */
    /*  - discontinuous mode disable/enable                                   */
    /*  - discontinuous mode number of conversions                            */
    tmp_cr1 |= (ADC_CR1_SCAN_SET(hadc->Init.ScanConvMode));
 800152c:	687b      	ldr	r3, [r7, #4]
 800152e:	689b      	ldr	r3, [r3, #8]
 8001530:	f5b3 7f80 	cmp.w	r3, #256	; 0x100
 8001534:	d003      	beq.n	800153e <HAL_ADC_Init+0xa2>
 8001536:	687b      	ldr	r3, [r7, #4]
 8001538:	689b      	ldr	r3, [r3, #8]
 800153a:	2b01      	cmp	r3, #1
 800153c:	d102      	bne.n	8001544 <HAL_ADC_Init+0xa8>
 800153e:	f44f 7380 	mov.w	r3, #256	; 0x100
 8001542:	e000      	b.n	8001546 <HAL_ADC_Init+0xaa>
 8001544:	2300      	movs	r3, #0
 8001546:	693a      	ldr	r2, [r7, #16]
 8001548:	4313      	orrs	r3, r2
 800154a:	613b      	str	r3, [r7, #16]
    
    /* Enable discontinuous mode only if continuous mode is disabled */
    /* Note: If parameter "Init.ScanConvMode" is set to disable, parameter    */
    /*       discontinuous is set anyway, but will have no effect on ADC HW.  */
    if (hadc->Init.DiscontinuousConvMode == ENABLE)
 800154c:	687b      	ldr	r3, [r7, #4]
 800154e:	7d1b      	ldrb	r3, [r3, #20]
 8001550:	2b01      	cmp	r3, #1
 8001552:	d119      	bne.n	8001588 <HAL_ADC_Init+0xec>
    {
      if (hadc->Init.ContinuousConvMode == DISABLE)
 8001554:	687b      	ldr	r3, [r7, #4]
 8001556:	7b1b      	ldrb	r3, [r3, #12]
 8001558:	2b00      	cmp	r3, #0
 800155a:	d109      	bne.n	8001570 <HAL_ADC_Init+0xd4>
      {
        /* Enable the selected ADC regular discontinuous mode */
        /* Set the number of channels to be converted in discontinuous mode */
        SET_BIT(tmp_cr1, ADC_CR1_DISCEN                                            |
 800155c:	687b      	ldr	r3, [r7, #4]
 800155e:	699b      	ldr	r3, [r3, #24]
 8001560:	3b01      	subs	r3, #1
 8001562:	035a      	lsls	r2, r3, #13
 8001564:	693b      	ldr	r3, [r7, #16]
 8001566:	4313      	orrs	r3, r2
 8001568:	f443 6300 	orr.w	r3, r3, #2048	; 0x800
 800156c:	613b      	str	r3, [r7, #16]
 800156e:	e00b      	b.n	8001588 <HAL_ADC_Init+0xec>
      {
        /* ADC regular group settings continuous and sequencer discontinuous*/
        /* cannot be enabled simultaneously.                                */
        
        /* Update ADC state machine to error */
        SET_BIT(hadc->State, HAL_ADC_STATE_ERROR_CONFIG);
 8001570:	687b      	ldr	r3, [r7, #4]
 8001572:	6a9b      	ldr	r3, [r3, #40]	; 0x28
 8001574:	f043 0220 	orr.w	r2, r3, #32
 8001578:	687b      	ldr	r3, [r7, #4]
 800157a:	629a      	str	r2, [r3, #40]	; 0x28
        
        /* Set ADC error code to ADC IP internal error */
        SET_BIT(hadc->ErrorCode, HAL_ADC_ERROR_INTERNAL);
 800157c:	687b      	ldr	r3, [r7, #4]
 800157e:	6adb      	ldr	r3, [r3, #44]	; 0x2c
 8001580:	f043 0201 	orr.w	r2, r3, #1
 8001584:	687b      	ldr	r3, [r7, #4]
 8001586:	62da      	str	r2, [r3, #44]	; 0x2c
      }
    }
    
    /* Update ADC configuration register CR1 with previous settings */
      MODIFY_REG(hadc->Instance->CR1,
 8001588:	687b      	ldr	r3, [r7, #4]
 800158a:	681b      	ldr	r3, [r3, #0]
 800158c:	685b      	ldr	r3, [r3, #4]
 800158e:	f423 4169 	bic.w	r1, r3, #59648	; 0xe900
 8001592:	687b      	ldr	r3, [r7, #4]
 8001594:	681b      	ldr	r3, [r3, #0]
 8001596:	693a      	ldr	r2, [r7, #16]
 8001598:	430a      	orrs	r2, r1
 800159a:	605a      	str	r2, [r3, #4]
                 ADC_CR1_DISCEN  |
                 ADC_CR1_DISCNUM    ,
                 tmp_cr1             );
    
    /* Update ADC configuration register CR2 with previous settings */
      MODIFY_REG(hadc->Instance->CR2,
 800159c:	687b      	ldr	r3, [r7, #4]
 800159e:	681b      	ldr	r3, [r3, #0]
 80015a0:	689a      	ldr	r2, [r3, #8]
 80015a2:	4b28      	ldr	r3, [pc, #160]	; (8001644 <HAL_ADC_Init+0x1a8>)
 80015a4:	4013      	ands	r3, r2
 80015a6:	687a      	ldr	r2, [r7, #4]
 80015a8:	6812      	ldr	r2, [r2, #0]
 80015aa:	68b9      	ldr	r1, [r7, #8]
 80015ac:	430b      	orrs	r3, r1
 80015ae:	6093      	str	r3, [r2, #8]
    /*   Note: Scan mode is present by hardware on this device and, if        */
    /*   disabled, discards automatically nb of conversions. Anyway, nb of    */
    /*   conversions is forced to 0x00 for alignment over all STM32 devices.  */
    /* - if scan mode is enabled, regular channels sequence length is set to  */
    /*   parameter "NbrOfConversion"                                          */
    if (ADC_CR1_SCAN_SET(hadc->Init.ScanConvMode) == ADC_SCAN_ENABLE)
 80015b0:	687b      	ldr	r3, [r7, #4]
 80015b2:	689b      	ldr	r3, [r3, #8]
 80015b4:	f5b3 7f80 	cmp.w	r3, #256	; 0x100
 80015b8:	d003      	beq.n	80015c2 <HAL_ADC_Init+0x126>
 80015ba:	687b      	ldr	r3, [r7, #4]
 80015bc:	689b      	ldr	r3, [r3, #8]
 80015be:	2b01      	cmp	r3, #1
 80015c0:	d104      	bne.n	80015cc <HAL_ADC_Init+0x130>
    {
      tmp_sqr1 = ADC_SQR1_L_SHIFT(hadc->Init.NbrOfConversion);
 80015c2:	687b      	ldr	r3, [r7, #4]
 80015c4:	691b      	ldr	r3, [r3, #16]
 80015c6:	3b01      	subs	r3, #1
 80015c8:	051b      	lsls	r3, r3, #20
 80015ca:	60fb      	str	r3, [r7, #12]
    }
      
    MODIFY_REG(hadc->Instance->SQR1,
 80015cc:	687b      	ldr	r3, [r7, #4]
 80015ce:	681b      	ldr	r3, [r3, #0]
 80015d0:	6adb      	ldr	r3, [r3, #44]	; 0x2c
 80015d2:	f423 0170 	bic.w	r1, r3, #15728640	; 0xf00000
 80015d6:	687b      	ldr	r3, [r7, #4]
 80015d8:	681b      	ldr	r3, [r3, #0]
 80015da:	68fa      	ldr	r2, [r7, #12]
 80015dc:	430a      	orrs	r2, r1
 80015de:	62da      	str	r2, [r3, #44]	; 0x2c
    /* ensure of no potential problem of ADC core IP clocking.                */
    /* Check through register CR2 (excluding bits set in other functions:     */
    /* execution control bits (ADON, JSWSTART, SWSTART), regular group bits   */
    /* (DMA), injected group bits (JEXTTRIG and JEXTSEL), channel internal    */
    /* measurement path bit (TSVREFE).                                        */
    if (READ_BIT(hadc->Instance->CR2, ~(ADC_CR2_ADON | ADC_CR2_DMA |
 80015e0:	687b      	ldr	r3, [r7, #4]
 80015e2:	681b      	ldr	r3, [r3, #0]
 80015e4:	689a      	ldr	r2, [r3, #8]
 80015e6:	4b18      	ldr	r3, [pc, #96]	; (8001648 <HAL_ADC_Init+0x1ac>)
 80015e8:	4013      	ands	r3, r2
 80015ea:	68ba      	ldr	r2, [r7, #8]
 80015ec:	429a      	cmp	r2, r3
 80015ee:	d10b      	bne.n	8001608 <HAL_ADC_Init+0x16c>
                                        ADC_CR2_JEXTTRIG | ADC_CR2_JEXTSEL |
                                        ADC_CR2_TSVREFE                     ))
         == tmp_cr2)
    {
      /* Set ADC error code to none */
      ADC_CLEAR_ERRORCODE(hadc);
 80015f0:	687b      	ldr	r3, [r7, #4]
 80015f2:	2200      	movs	r2, #0
 80015f4:	62da      	str	r2, [r3, #44]	; 0x2c
      
      /* Set the ADC state */
      ADC_STATE_CLR_SET(hadc->State,
 80015f6:	687b      	ldr	r3, [r7, #4]
 80015f8:	6a9b      	ldr	r3, [r3, #40]	; 0x28
 80015fa:	f023 0303 	bic.w	r3, r3, #3
 80015fe:	f043 0201 	orr.w	r2, r3, #1
 8001602:	687b      	ldr	r3, [r7, #4]
 8001604:	629a      	str	r2, [r3, #40]	; 0x28
    if (READ_BIT(hadc->Instance->CR2, ~(ADC_CR2_ADON | ADC_CR2_DMA |
 8001606:	e018      	b.n	800163a <HAL_ADC_Init+0x19e>
                        HAL_ADC_STATE_READY);
    }
    else
    {
      /* Update ADC state machine to error */
      ADC_STATE_CLR_SET(hadc->State,
 8001608:	687b      	ldr	r3, [r7, #4]
 800160a:	6a9b      	ldr	r3, [r3, #40]	; 0x28
 800160c:	f023 0312 	bic.w	r3, r3, #18
 8001610:	f043 0210 	orr.w	r2, r3, #16
 8001614:	687b      	ldr	r3, [r7, #4]
 8001616:	629a      	str	r2, [r3, #40]	; 0x28
                        HAL_ADC_STATE_BUSY_INTERNAL,
                        HAL_ADC_STATE_ERROR_INTERNAL);
      
      /* Set ADC error code to ADC IP internal error */
      SET_BIT(hadc->ErrorCode, HAL_ADC_ERROR_INTERNAL);
 8001618:	687b      	ldr	r3, [r7, #4]
 800161a:	6adb      	ldr	r3, [r3, #44]	; 0x2c
 800161c:	f043 0201 	orr.w	r2, r3, #1
 8001620:	687b      	ldr	r3, [r7, #4]
 8001622:	62da      	str	r2, [r3, #44]	; 0x2c
      
      tmp_hal_status = HAL_ERROR;
 8001624:	2301      	movs	r3, #1
 8001626:	75fb      	strb	r3, [r7, #23]
    if (READ_BIT(hadc->Instance->CR2, ~(ADC_CR2_ADON | ADC_CR2_DMA |
 8001628:	e007      	b.n	800163a <HAL_ADC_Init+0x19e>
  
  }
  else
  {
    /* Update ADC state machine to error */
    SET_BIT(hadc->State, HAL_ADC_STATE_ERROR_INTERNAL);
 800162a:	687b      	ldr	r3, [r7, #4]
 800162c:	6a9b      	ldr	r3, [r3, #40]	; 0x28
 800162e:	f043 0210 	orr.w	r2, r3, #16
 8001632:	687b      	ldr	r3, [r7, #4]
 8001634:	629a      	str	r2, [r3, #40]	; 0x28
        
    tmp_hal_status = HAL_ERROR;
 8001636:	2301      	movs	r3, #1
 8001638:	75fb      	strb	r3, [r7, #23]
  }
  
  /* Return function status */
  return tmp_hal_status;
 800163a:	7dfb      	ldrb	r3, [r7, #23]
}
 800163c:	4618      	mov	r0, r3
 800163e:	3718      	adds	r7, #24
 8001640:	46bd      	mov	sp, r7
 8001642:	bd80      	pop	{r7, pc}
 8001644:	ffe1f7fd 	.word	0xffe1f7fd
 8001648:	ff1f0efe 	.word	0xff1f0efe

0800164c <HAL_ADC_Start_DMA>:
  * @param  pData: The destination Buffer address.
  * @param  Length: The length of data to be transferred from ADC peripheral to memory.
  * @retval None
  */
HAL_StatusTypeDef HAL_ADC_Start_DMA(ADC_HandleTypeDef* hadc, uint32_t* pData, uint32_t Length)
{
 800164c:	b580      	push	{r7, lr}
 800164e:	b086      	sub	sp, #24
 8001650:	af00      	add	r7, sp, #0
 8001652:	60f8      	str	r0, [r7, #12]
 8001654:	60b9      	str	r1, [r7, #8]
 8001656:	607a      	str	r2, [r7, #4]
  HAL_StatusTypeDef tmp_hal_status = HAL_OK;
 8001658:	2300      	movs	r3, #0
 800165a:	75fb      	strb	r3, [r7, #23]
  assert_param(IS_ADC_DMA_CAPABILITY_INSTANCE(hadc->Instance));
    
  /* Verification if multimode is disabled (for devices with several ADC)     */
  /* If multimode is enabled, dedicated function multimode conversion         */
  /* start DMA must be used.                                                  */
  if(ADC_MULTIMODE_IS_ENABLE(hadc) == RESET)
 800165c:	68fb      	ldr	r3, [r7, #12]
 800165e:	681b      	ldr	r3, [r3, #0]
 8001660:	4a64      	ldr	r2, [pc, #400]	; (80017f4 <HAL_ADC_Start_DMA+0x1a8>)
 8001662:	4293      	cmp	r3, r2
 8001664:	d004      	beq.n	8001670 <HAL_ADC_Start_DMA+0x24>
 8001666:	68fb      	ldr	r3, [r7, #12]
 8001668:	681b      	ldr	r3, [r3, #0]
 800166a:	4a63      	ldr	r2, [pc, #396]	; (80017f8 <HAL_ADC_Start_DMA+0x1ac>)
 800166c:	4293      	cmp	r3, r2
 800166e:	d106      	bne.n	800167e <HAL_ADC_Start_DMA+0x32>
 8001670:	4b60      	ldr	r3, [pc, #384]	; (80017f4 <HAL_ADC_Start_DMA+0x1a8>)
 8001672:	685b      	ldr	r3, [r3, #4]
 8001674:	f403 2370 	and.w	r3, r3, #983040	; 0xf0000
 8001678:	2b00      	cmp	r3, #0
 800167a:	f040 80b3 	bne.w	80017e4 <HAL_ADC_Start_DMA+0x198>
  {
    /* Process locked */
    __HAL_LOCK(hadc);
 800167e:	68fb      	ldr	r3, [r7, #12]
 8001680:	f893 3024 	ldrb.w	r3, [r3, #36]	; 0x24
 8001684:	2b01      	cmp	r3, #1
 8001686:	d101      	bne.n	800168c <HAL_ADC_Start_DMA+0x40>
 8001688:	2302      	movs	r3, #2
 800168a:	e0ae      	b.n	80017ea <HAL_ADC_Start_DMA+0x19e>
 800168c:	68fb      	ldr	r3, [r7, #12]
 800168e:	2201      	movs	r2, #1
 8001690:	f883 2024 	strb.w	r2, [r3, #36]	; 0x24
    
    /* Enable the ADC peripheral */
    tmp_hal_status = ADC_Enable(hadc);
 8001694:	68f8      	ldr	r0, [r7, #12]
 8001696:	f000 f9cb 	bl	8001a30 <ADC_Enable>
 800169a:	4603      	mov	r3, r0
 800169c:	75fb      	strb	r3, [r7, #23]
    
    /* Start conversion if ADC is effectively enabled */
    if (tmp_hal_status == HAL_OK)
 800169e:	7dfb      	ldrb	r3, [r7, #23]
 80016a0:	2b00      	cmp	r3, #0
 80016a2:	f040 809a 	bne.w	80017da <HAL_ADC_Start_DMA+0x18e>
    {
      /* Set ADC state                                                        */
      /* - Clear state bitfield related to regular group conversion results   */
      /* - Set state bitfield related to regular operation                    */
      ADC_STATE_CLR_SET(hadc->State,
 80016a6:	68fb      	ldr	r3, [r7, #12]
 80016a8:	6a9b      	ldr	r3, [r3, #40]	; 0x28
 80016aa:	f423 6370 	bic.w	r3, r3, #3840	; 0xf00
 80016ae:	f023 0301 	bic.w	r3, r3, #1
 80016b2:	f443 7280 	orr.w	r2, r3, #256	; 0x100
 80016b6:	68fb      	ldr	r3, [r7, #12]
 80016b8:	629a      	str	r2, [r3, #40]	; 0x28
                        HAL_ADC_STATE_REG_BUSY);
    
    /* Set group injected state (from auto-injection) and multimode state     */
    /* for all cases of multimode: independent mode, multimode ADC master     */
    /* or multimode ADC slave (for devices with several ADCs):                */
    if (ADC_NONMULTIMODE_OR_MULTIMODEMASTER(hadc))
 80016ba:	68fb      	ldr	r3, [r7, #12]
 80016bc:	681b      	ldr	r3, [r3, #0]
 80016be:	4a4e      	ldr	r2, [pc, #312]	; (80017f8 <HAL_ADC_Start_DMA+0x1ac>)
 80016c0:	4293      	cmp	r3, r2
 80016c2:	d105      	bne.n	80016d0 <HAL_ADC_Start_DMA+0x84>
 80016c4:	4b4b      	ldr	r3, [pc, #300]	; (80017f4 <HAL_ADC_Start_DMA+0x1a8>)
 80016c6:	685b      	ldr	r3, [r3, #4]
 80016c8:	f403 2370 	and.w	r3, r3, #983040	; 0xf0000
 80016cc:	2b00      	cmp	r3, #0
 80016ce:	d115      	bne.n	80016fc <HAL_ADC_Start_DMA+0xb0>
    {
      /* Set ADC state (ADC independent or master) */
      CLEAR_BIT(hadc->State, HAL_ADC_STATE_MULTIMODE_SLAVE);
 80016d0:	68fb      	ldr	r3, [r7, #12]
 80016d2:	6a9b      	ldr	r3, [r3, #40]	; 0x28
 80016d4:	f423 1280 	bic.w	r2, r3, #1048576	; 0x100000
 80016d8:	68fb      	ldr	r3, [r7, #12]
 80016da:	629a      	str	r2, [r3, #40]	; 0x28
      
      /* If conversions on group regular are also triggering group injected,  */
      /* update ADC state.                                                    */
      if (READ_BIT(hadc->Instance->CR1, ADC_CR1_JAUTO) != RESET)
 80016dc:	68fb      	ldr	r3, [r7, #12]
 80016de:	681b      	ldr	r3, [r3, #0]
 80016e0:	685b      	ldr	r3, [r3, #4]
 80016e2:	f403 6380 	and.w	r3, r3, #1024	; 0x400
 80016e6:	2b00      	cmp	r3, #0
 80016e8:	d026      	beq.n	8001738 <HAL_ADC_Start_DMA+0xec>
      {
        ADC_STATE_CLR_SET(hadc->State, HAL_ADC_STATE_INJ_EOC, HAL_ADC_STATE_INJ_BUSY);  
 80016ea:	68fb      	ldr	r3, [r7, #12]
 80016ec:	6a9b      	ldr	r3, [r3, #40]	; 0x28
 80016ee:	f423 5340 	bic.w	r3, r3, #12288	; 0x3000
 80016f2:	f443 5280 	orr.w	r2, r3, #4096	; 0x1000
 80016f6:	68fb      	ldr	r3, [r7, #12]
 80016f8:	629a      	str	r2, [r3, #40]	; 0x28
      if (READ_BIT(hadc->Instance->CR1, ADC_CR1_JAUTO) != RESET)
 80016fa:	e01d      	b.n	8001738 <HAL_ADC_Start_DMA+0xec>
      }
    }
    else
    {
      /* Set ADC state (ADC slave) */
      SET_BIT(hadc->State, HAL_ADC_STATE_MULTIMODE_SLAVE);
 80016fc:	68fb      	ldr	r3, [r7, #12]
 80016fe:	6a9b      	ldr	r3, [r3, #40]	; 0x28
 8001700:	f443 1280 	orr.w	r2, r3, #1048576	; 0x100000
 8001704:	68fb      	ldr	r3, [r7, #12]
 8001706:	629a      	str	r2, [r3, #40]	; 0x28
      
      /* If conversions on group regular are also triggering group injected,  */
      /* update ADC state.                                                    */
      if (ADC_MULTIMODE_AUTO_INJECTED(hadc))
 8001708:	68fb      	ldr	r3, [r7, #12]
 800170a:	681b      	ldr	r3, [r3, #0]
 800170c:	4a39      	ldr	r2, [pc, #228]	; (80017f4 <HAL_ADC_Start_DMA+0x1a8>)
 800170e:	4293      	cmp	r3, r2
 8001710:	d004      	beq.n	800171c <HAL_ADC_Start_DMA+0xd0>
 8001712:	68fb      	ldr	r3, [r7, #12]
 8001714:	681b      	ldr	r3, [r3, #0]
 8001716:	4a38      	ldr	r2, [pc, #224]	; (80017f8 <HAL_ADC_Start_DMA+0x1ac>)
 8001718:	4293      	cmp	r3, r2
 800171a:	d10d      	bne.n	8001738 <HAL_ADC_Start_DMA+0xec>
 800171c:	4b35      	ldr	r3, [pc, #212]	; (80017f4 <HAL_ADC_Start_DMA+0x1a8>)
 800171e:	685b      	ldr	r3, [r3, #4]
 8001720:	f403 6380 	and.w	r3, r3, #1024	; 0x400
 8001724:	2b00      	cmp	r3, #0
 8001726:	d007      	beq.n	8001738 <HAL_ADC_Start_DMA+0xec>
      {
        ADC_STATE_CLR_SET(hadc->State, HAL_ADC_STATE_INJ_EOC, HAL_ADC_STATE_INJ_BUSY);
 8001728:	68fb      	ldr	r3, [r7, #12]
 800172a:	6a9b      	ldr	r3, [r3, #40]	; 0x28
 800172c:	f423 5340 	bic.w	r3, r3, #12288	; 0x3000
 8001730:	f443 5280 	orr.w	r2, r3, #4096	; 0x1000
 8001734:	68fb      	ldr	r3, [r7, #12]
 8001736:	629a      	str	r2, [r3, #40]	; 0x28
      }
    }
      
      /* State machine update: Check if an injected conversion is ongoing */
      if (HAL_IS_BIT_SET(hadc->State, HAL_ADC_STATE_INJ_BUSY))
 8001738:	68fb      	ldr	r3, [r7, #12]
 800173a:	6a9b      	ldr	r3, [r3, #40]	; 0x28
 800173c:	f403 5380 	and.w	r3, r3, #4096	; 0x1000
 8001740:	2b00      	cmp	r3, #0
 8001742:	d006      	beq.n	8001752 <HAL_ADC_Start_DMA+0x106>
      {
        /* Reset ADC error code fields related to conversions on group regular */
        CLEAR_BIT(hadc->ErrorCode, (HAL_ADC_ERROR_OVR | HAL_ADC_ERROR_DMA));         
 8001744:	68fb      	ldr	r3, [r7, #12]
 8001746:	6adb      	ldr	r3, [r3, #44]	; 0x2c
 8001748:	f023 0206 	bic.w	r2, r3, #6
 800174c:	68fb      	ldr	r3, [r7, #12]
 800174e:	62da      	str	r2, [r3, #44]	; 0x2c
 8001750:	e002      	b.n	8001758 <HAL_ADC_Start_DMA+0x10c>
      }
      else
      {
        /* Reset ADC all error code fields */
        ADC_CLEAR_ERRORCODE(hadc);
 8001752:	68fb      	ldr	r3, [r7, #12]
 8001754:	2200      	movs	r2, #0
 8001756:	62da      	str	r2, [r3, #44]	; 0x2c
      }
      
      /* Process unlocked */
      /* Unlock before starting ADC conversions: in case of potential         */
      /* interruption, to let the process to ADC IRQ Handler.                 */
      __HAL_UNLOCK(hadc);
 8001758:	68fb      	ldr	r3, [r7, #12]
 800175a:	2200      	movs	r2, #0
 800175c:	f883 2024 	strb.w	r2, [r3, #36]	; 0x24
      
      /* Set the DMA transfer complete callback */
      hadc->DMA_Handle->XferCpltCallback = ADC_DMAConvCplt;
 8001760:	68fb      	ldr	r3, [r7, #12]
 8001762:	6a1b      	ldr	r3, [r3, #32]
 8001764:	4a25      	ldr	r2, [pc, #148]	; (80017fc <HAL_ADC_Start_DMA+0x1b0>)
 8001766:	629a      	str	r2, [r3, #40]	; 0x28

      /* Set the DMA half transfer complete callback */
      hadc->DMA_Handle->XferHalfCpltCallback = ADC_DMAHalfConvCplt;
 8001768:	68fb      	ldr	r3, [r7, #12]
 800176a:	6a1b      	ldr	r3, [r3, #32]
 800176c:	4a24      	ldr	r2, [pc, #144]	; (8001800 <HAL_ADC_Start_DMA+0x1b4>)
 800176e:	62da      	str	r2, [r3, #44]	; 0x2c
      
      /* Set the DMA error callback */
      hadc->DMA_Handle->XferErrorCallback = ADC_DMAError;
 8001770:	68fb      	ldr	r3, [r7, #12]
 8001772:	6a1b      	ldr	r3, [r3, #32]
 8001774:	4a23      	ldr	r2, [pc, #140]	; (8001804 <HAL_ADC_Start_DMA+0x1b8>)
 8001776:	631a      	str	r2, [r3, #48]	; 0x30
      /* start (in case of SW start):                                         */
      
      /* Clear regular group conversion flag and overrun flag */
      /* (To ensure of no unknown state from potential previous ADC           */
      /* operations)                                                          */
      __HAL_ADC_CLEAR_FLAG(hadc, ADC_FLAG_EOC);
 8001778:	68fb      	ldr	r3, [r7, #12]
 800177a:	681b      	ldr	r3, [r3, #0]
 800177c:	f06f 0202 	mvn.w	r2, #2
 8001780:	601a      	str	r2, [r3, #0]
      
      /* Enable ADC DMA mode */
      SET_BIT(hadc->Instance->CR2, ADC_CR2_DMA);
 8001782:	68fb      	ldr	r3, [r7, #12]
 8001784:	681b      	ldr	r3, [r3, #0]
 8001786:	689a      	ldr	r2, [r3, #8]
 8001788:	68fb      	ldr	r3, [r7, #12]
 800178a:	681b      	ldr	r3, [r3, #0]
 800178c:	f442 7280 	orr.w	r2, r2, #256	; 0x100
 8001790:	609a      	str	r2, [r3, #8]
      
      /* Start the DMA channel */
      HAL_DMA_Start_IT(hadc->DMA_Handle, (uint32_t)&hadc->Instance->DR, (uint32_t)pData, Length);
 8001792:	68fb      	ldr	r3, [r7, #12]
 8001794:	6a18      	ldr	r0, [r3, #32]
 8001796:	68fb      	ldr	r3, [r7, #12]
 8001798:	681b      	ldr	r3, [r3, #0]
 800179a:	334c      	adds	r3, #76	; 0x4c
 800179c:	4619      	mov	r1, r3
 800179e:	68ba      	ldr	r2, [r7, #8]
 80017a0:	687b      	ldr	r3, [r7, #4]
 80017a2:	f001 f9a7 	bl	8002af4 <HAL_DMA_Start_IT>
      
      /* Enable conversion of regular group.                                  */
      /* If software start has been selected, conversion starts immediately.  */
      /* If external trigger has been selected, conversion will start at next */
      /* trigger event.                                                       */
      if (ADC_IS_SOFTWARE_START_REGULAR(hadc))
 80017a6:	68fb      	ldr	r3, [r7, #12]
 80017a8:	681b      	ldr	r3, [r3, #0]
 80017aa:	689b      	ldr	r3, [r3, #8]
 80017ac:	f403 2360 	and.w	r3, r3, #917504	; 0xe0000
 80017b0:	f5b3 2f60 	cmp.w	r3, #917504	; 0xe0000
 80017b4:	d108      	bne.n	80017c8 <HAL_ADC_Start_DMA+0x17c>
      {
        /* Start ADC conversion on regular group with SW start */
        SET_BIT(hadc->Instance->CR2, (ADC_CR2_SWSTART | ADC_CR2_EXTTRIG));
 80017b6:	68fb      	ldr	r3, [r7, #12]
 80017b8:	681b      	ldr	r3, [r3, #0]
 80017ba:	689a      	ldr	r2, [r3, #8]
 80017bc:	68fb      	ldr	r3, [r7, #12]
 80017be:	681b      	ldr	r3, [r3, #0]
 80017c0:	f442 02a0 	orr.w	r2, r2, #5242880	; 0x500000
 80017c4:	609a      	str	r2, [r3, #8]
    if (tmp_hal_status == HAL_OK)
 80017c6:	e00f      	b.n	80017e8 <HAL_ADC_Start_DMA+0x19c>
      }
      else
      {
        /* Start ADC conversion on regular group with external trigger */
        SET_BIT(hadc->Instance->CR2, ADC_CR2_EXTTRIG);
 80017c8:	68fb      	ldr	r3, [r7, #12]
 80017ca:	681b      	ldr	r3, [r3, #0]
 80017cc:	689a      	ldr	r2, [r3, #8]
 80017ce:	68fb      	ldr	r3, [r7, #12]
 80017d0:	681b      	ldr	r3, [r3, #0]
 80017d2:	f442 1280 	orr.w	r2, r2, #1048576	; 0x100000
 80017d6:	609a      	str	r2, [r3, #8]
    if (tmp_hal_status == HAL_OK)
 80017d8:	e006      	b.n	80017e8 <HAL_ADC_Start_DMA+0x19c>
      }
    }
    else
    {
      /* Process unlocked */
      __HAL_UNLOCK(hadc);
 80017da:	68fb      	ldr	r3, [r7, #12]
 80017dc:	2200      	movs	r2, #0
 80017de:	f883 2024 	strb.w	r2, [r3, #36]	; 0x24
    if (tmp_hal_status == HAL_OK)
 80017e2:	e001      	b.n	80017e8 <HAL_ADC_Start_DMA+0x19c>
    }
  }
  else
  {
    tmp_hal_status = HAL_ERROR;
 80017e4:	2301      	movs	r3, #1
 80017e6:	75fb      	strb	r3, [r7, #23]
  }
  
  /* Return function status */
  return tmp_hal_status;
 80017e8:	7dfb      	ldrb	r3, [r7, #23]
}
 80017ea:	4618      	mov	r0, r3
 80017ec:	3718      	adds	r7, #24
 80017ee:	46bd      	mov	sp, r7
 80017f0:	bd80      	pop	{r7, pc}
 80017f2:	bf00      	nop
 80017f4:	40012400 	.word	0x40012400
 80017f8:	40012800 	.word	0x40012800
 80017fc:	08001b49 	.word	0x08001b49
 8001800:	08001bc5 	.word	0x08001bc5
 8001804:	08001be1 	.word	0x08001be1

08001808 <HAL_ADC_ConvCpltCallback>:
  * @brief  Conversion complete callback in non blocking mode 
  * @param  hadc: ADC handle
  * @retval None
  */
__weak void HAL_ADC_ConvCpltCallback(ADC_HandleTypeDef* hadc)
{
 8001808:	b480      	push	{r7}
 800180a:	b083      	sub	sp, #12
 800180c:	af00      	add	r7, sp, #0
 800180e:	6078      	str	r0, [r7, #4]
  /* Prevent unused argument(s) compilation warning */
  UNUSED(hadc);
  /* NOTE : This function should not be modified. When the callback is needed,
            function HAL_ADC_ConvCpltCallback must be implemented in the user file.
   */
}
 8001810:	bf00      	nop
 8001812:	370c      	adds	r7, #12
 8001814:	46bd      	mov	sp, r7
 8001816:	bc80      	pop	{r7}
 8001818:	4770      	bx	lr

0800181a <HAL_ADC_ConvHalfCpltCallback>:
  * @brief  Conversion DMA half-transfer callback in non blocking mode 
  * @param  hadc: ADC handle
  * @retval None
  */
__weak void HAL_ADC_ConvHalfCpltCallback(ADC_HandleTypeDef* hadc)
{
 800181a:	b480      	push	{r7}
 800181c:	b083      	sub	sp, #12
 800181e:	af00      	add	r7, sp, #0
 8001820:	6078      	str	r0, [r7, #4]
  /* Prevent unused argument(s) compilation warning */
  UNUSED(hadc);
  /* NOTE : This function should not be modified. When the callback is needed,
            function HAL_ADC_ConvHalfCpltCallback must be implemented in the user file.
  */
}
 8001822:	bf00      	nop
 8001824:	370c      	adds	r7, #12
 8001826:	46bd      	mov	sp, r7
 8001828:	bc80      	pop	{r7}
 800182a:	4770      	bx	lr

0800182c <HAL_ADC_ErrorCallback>:
  *        (ADC conversion with interruption or transfer by DMA)
  * @param  hadc: ADC handle
  * @retval None
  */
__weak void HAL_ADC_ErrorCallback(ADC_HandleTypeDef *hadc)
{
 800182c:	b480      	push	{r7}
 800182e:	b083      	sub	sp, #12
 8001830:	af00      	add	r7, sp, #0
 8001832:	6078      	str	r0, [r7, #4]
  /* Prevent unused argument(s) compilation warning */
  UNUSED(hadc);
  /* NOTE : This function should not be modified. When the callback is needed,
            function HAL_ADC_ErrorCallback must be implemented in the user file.
  */
}
 8001834:	bf00      	nop
 8001836:	370c      	adds	r7, #12
 8001838:	46bd      	mov	sp, r7
 800183a:	bc80      	pop	{r7}
 800183c:	4770      	bx	lr
	...

08001840 <HAL_ADC_ConfigChannel>:
  * @param  hadc: ADC handle
  * @param  sConfig: Structure of ADC channel for regular group.
  * @retval HAL status
  */
HAL_StatusTypeDef HAL_ADC_ConfigChannel(ADC_HandleTypeDef* hadc, ADC_ChannelConfTypeDef* sConfig)
{ 
 8001840:	b480      	push	{r7}
 8001842:	b085      	sub	sp, #20
 8001844:	af00      	add	r7, sp, #0
 8001846:	6078      	str	r0, [r7, #4]
 8001848:	6039      	str	r1, [r7, #0]
  HAL_StatusTypeDef tmp_hal_status = HAL_OK;
 800184a:	2300      	movs	r3, #0
 800184c:	73fb      	strb	r3, [r7, #15]
  __IO uint32_t wait_loop_index = 0U;
 800184e:	2300      	movs	r3, #0
 8001850:	60bb      	str	r3, [r7, #8]
  assert_param(IS_ADC_CHANNEL(sConfig->Channel));
  assert_param(IS_ADC_REGULAR_RANK(sConfig->Rank));
  assert_param(IS_ADC_SAMPLE_TIME(sConfig->SamplingTime));
  
  /* Process locked */
  __HAL_LOCK(hadc);
 8001852:	687b      	ldr	r3, [r7, #4]
 8001854:	f893 3024 	ldrb.w	r3, [r3, #36]	; 0x24
 8001858:	2b01      	cmp	r3, #1
 800185a:	d101      	bne.n	8001860 <HAL_ADC_ConfigChannel+0x20>
 800185c:	2302      	movs	r3, #2
 800185e:	e0dc      	b.n	8001a1a <HAL_ADC_ConfigChannel+0x1da>
 8001860:	687b      	ldr	r3, [r7, #4]
 8001862:	2201      	movs	r2, #1
 8001864:	f883 2024 	strb.w	r2, [r3, #36]	; 0x24
  
  
  /* Regular sequence configuration */
  /* For Rank 1 to 6 */
  if (sConfig->Rank < 7U)
 8001868:	683b      	ldr	r3, [r7, #0]
 800186a:	685b      	ldr	r3, [r3, #4]
 800186c:	2b06      	cmp	r3, #6
 800186e:	d81c      	bhi.n	80018aa <HAL_ADC_ConfigChannel+0x6a>
  {
    MODIFY_REG(hadc->Instance->SQR3                        ,
 8001870:	687b      	ldr	r3, [r7, #4]
 8001872:	681b      	ldr	r3, [r3, #0]
 8001874:	6b59      	ldr	r1, [r3, #52]	; 0x34
 8001876:	683b      	ldr	r3, [r7, #0]
 8001878:	685a      	ldr	r2, [r3, #4]
 800187a:	4613      	mov	r3, r2
 800187c:	009b      	lsls	r3, r3, #2
 800187e:	4413      	add	r3, r2
 8001880:	3b05      	subs	r3, #5
 8001882:	221f      	movs	r2, #31
 8001884:	fa02 f303 	lsl.w	r3, r2, r3
 8001888:	43db      	mvns	r3, r3
 800188a:	4019      	ands	r1, r3
 800188c:	683b      	ldr	r3, [r7, #0]
 800188e:	6818      	ldr	r0, [r3, #0]
 8001890:	683b      	ldr	r3, [r7, #0]
 8001892:	685a      	ldr	r2, [r3, #4]
 8001894:	4613      	mov	r3, r2
 8001896:	009b      	lsls	r3, r3, #2
 8001898:	4413      	add	r3, r2
 800189a:	3b05      	subs	r3, #5
 800189c:	fa00 f203 	lsl.w	r2, r0, r3
 80018a0:	687b      	ldr	r3, [r7, #4]
 80018a2:	681b      	ldr	r3, [r3, #0]
 80018a4:	430a      	orrs	r2, r1
 80018a6:	635a      	str	r2, [r3, #52]	; 0x34
 80018a8:	e03c      	b.n	8001924 <HAL_ADC_ConfigChannel+0xe4>
               ADC_SQR3_RK(ADC_SQR3_SQ1, sConfig->Rank)    ,
               ADC_SQR3_RK(sConfig->Channel, sConfig->Rank) );
  }
  /* For Rank 7 to 12 */
  else if (sConfig->Rank < 13U)
 80018aa:	683b      	ldr	r3, [r7, #0]
 80018ac:	685b      	ldr	r3, [r3, #4]
 80018ae:	2b0c      	cmp	r3, #12
 80018b0:	d81c      	bhi.n	80018ec <HAL_ADC_ConfigChannel+0xac>
  {
    MODIFY_REG(hadc->Instance->SQR2                        ,
 80018b2:	687b      	ldr	r3, [r7, #4]
 80018b4:	681b      	ldr	r3, [r3, #0]
 80018b6:	6b19      	ldr	r1, [r3, #48]	; 0x30
 80018b8:	683b      	ldr	r3, [r7, #0]
 80018ba:	685a      	ldr	r2, [r3, #4]
 80018bc:	4613      	mov	r3, r2
 80018be:	009b      	lsls	r3, r3, #2
 80018c0:	4413      	add	r3, r2
 80018c2:	3b23      	subs	r3, #35	; 0x23
 80018c4:	221f      	movs	r2, #31
 80018c6:	fa02 f303 	lsl.w	r3, r2, r3
 80018ca:	43db      	mvns	r3, r3
 80018cc:	4019      	ands	r1, r3
 80018ce:	683b      	ldr	r3, [r7, #0]
 80018d0:	6818      	ldr	r0, [r3, #0]
 80018d2:	683b      	ldr	r3, [r7, #0]
 80018d4:	685a      	ldr	r2, [r3, #4]
 80018d6:	4613      	mov	r3, r2
 80018d8:	009b      	lsls	r3, r3, #2
 80018da:	4413      	add	r3, r2
 80018dc:	3b23      	subs	r3, #35	; 0x23
 80018de:	fa00 f203 	lsl.w	r2, r0, r3
 80018e2:	687b      	ldr	r3, [r7, #4]
 80018e4:	681b      	ldr	r3, [r3, #0]
 80018e6:	430a      	orrs	r2, r1
 80018e8:	631a      	str	r2, [r3, #48]	; 0x30
 80018ea:	e01b      	b.n	8001924 <HAL_ADC_ConfigChannel+0xe4>
               ADC_SQR2_RK(sConfig->Channel, sConfig->Rank) );
  }
  /* For Rank 13 to 16 */
  else
  {
    MODIFY_REG(hadc->Instance->SQR1                        ,
 80018ec:	687b      	ldr	r3, [r7, #4]
 80018ee:	681b      	ldr	r3, [r3, #0]
 80018f0:	6ad9      	ldr	r1, [r3, #44]	; 0x2c
 80018f2:	683b      	ldr	r3, [r7, #0]
 80018f4:	685a      	ldr	r2, [r3, #4]
 80018f6:	4613      	mov	r3, r2
 80018f8:	009b      	lsls	r3, r3, #2
 80018fa:	4413      	add	r3, r2
 80018fc:	3b41      	subs	r3, #65	; 0x41
 80018fe:	221f      	movs	r2, #31
 8001900:	fa02 f303 	lsl.w	r3, r2, r3
 8001904:	43db      	mvns	r3, r3
 8001906:	4019      	ands	r1, r3
 8001908:	683b      	ldr	r3, [r7, #0]
 800190a:	6818      	ldr	r0, [r3, #0]
 800190c:	683b      	ldr	r3, [r7, #0]
 800190e:	685a      	ldr	r2, [r3, #4]
 8001910:	4613      	mov	r3, r2
 8001912:	009b      	lsls	r3, r3, #2
 8001914:	4413      	add	r3, r2
 8001916:	3b41      	subs	r3, #65	; 0x41
 8001918:	fa00 f203 	lsl.w	r2, r0, r3
 800191c:	687b      	ldr	r3, [r7, #4]
 800191e:	681b      	ldr	r3, [r3, #0]
 8001920:	430a      	orrs	r2, r1
 8001922:	62da      	str	r2, [r3, #44]	; 0x2c
  }
  
  
  /* Channel sampling time configuration */
  /* For channels 10 to 17 */
  if (sConfig->Channel >= ADC_CHANNEL_10)
 8001924:	683b      	ldr	r3, [r7, #0]
 8001926:	681b      	ldr	r3, [r3, #0]
 8001928:	2b09      	cmp	r3, #9
 800192a:	d91c      	bls.n	8001966 <HAL_ADC_ConfigChannel+0x126>
  {
    MODIFY_REG(hadc->Instance->SMPR1                             ,
 800192c:	687b      	ldr	r3, [r7, #4]
 800192e:	681b      	ldr	r3, [r3, #0]
 8001930:	68d9      	ldr	r1, [r3, #12]
 8001932:	683b      	ldr	r3, [r7, #0]
 8001934:	681a      	ldr	r2, [r3, #0]
 8001936:	4613      	mov	r3, r2
 8001938:	005b      	lsls	r3, r3, #1
 800193a:	4413      	add	r3, r2
 800193c:	3b1e      	subs	r3, #30
 800193e:	2207      	movs	r2, #7
 8001940:	fa02 f303 	lsl.w	r3, r2, r3
 8001944:	43db      	mvns	r3, r3
 8001946:	4019      	ands	r1, r3
 8001948:	683b      	ldr	r3, [r7, #0]
 800194a:	6898      	ldr	r0, [r3, #8]
 800194c:	683b      	ldr	r3, [r7, #0]
 800194e:	681a      	ldr	r2, [r3, #0]
 8001950:	4613      	mov	r3, r2
 8001952:	005b      	lsls	r3, r3, #1
 8001954:	4413      	add	r3, r2
 8001956:	3b1e      	subs	r3, #30
 8001958:	fa00 f203 	lsl.w	r2, r0, r3
 800195c:	687b      	ldr	r3, [r7, #4]
 800195e:	681b      	ldr	r3, [r3, #0]
 8001960:	430a      	orrs	r2, r1
 8001962:	60da      	str	r2, [r3, #12]
 8001964:	e019      	b.n	800199a <HAL_ADC_ConfigChannel+0x15a>
               ADC_SMPR1(ADC_SMPR1_SMP10, sConfig->Channel)      ,
               ADC_SMPR1(sConfig->SamplingTime, sConfig->Channel) );
  }
  else /* For channels 0 to 9 */
  {
    MODIFY_REG(hadc->Instance->SMPR2                             ,
 8001966:	687b      	ldr	r3, [r7, #4]
 8001968:	681b      	ldr	r3, [r3, #0]
 800196a:	6919      	ldr	r1, [r3, #16]
 800196c:	683b      	ldr	r3, [r7, #0]
 800196e:	681a      	ldr	r2, [r3, #0]
 8001970:	4613      	mov	r3, r2
 8001972:	005b      	lsls	r3, r3, #1
 8001974:	4413      	add	r3, r2
 8001976:	2207      	movs	r2, #7
 8001978:	fa02 f303 	lsl.w	r3, r2, r3
 800197c:	43db      	mvns	r3, r3
 800197e:	4019      	ands	r1, r3
 8001980:	683b      	ldr	r3, [r7, #0]
 8001982:	6898      	ldr	r0, [r3, #8]
 8001984:	683b      	ldr	r3, [r7, #0]
 8001986:	681a      	ldr	r2, [r3, #0]
 8001988:	4613      	mov	r3, r2
 800198a:	005b      	lsls	r3, r3, #1
 800198c:	4413      	add	r3, r2
 800198e:	fa00 f203 	lsl.w	r2, r0, r3
 8001992:	687b      	ldr	r3, [r7, #4]
 8001994:	681b      	ldr	r3, [r3, #0]
 8001996:	430a      	orrs	r2, r1
 8001998:	611a      	str	r2, [r3, #16]
               ADC_SMPR2(sConfig->SamplingTime, sConfig->Channel) );
  }
  
  /* If ADC1 Channel_16 or Channel_17 is selected, enable Temperature sensor  */
  /* and VREFINT measurement path.                                            */
  if ((sConfig->Channel == ADC_CHANNEL_TEMPSENSOR) ||
 800199a:	683b      	ldr	r3, [r7, #0]
 800199c:	681b      	ldr	r3, [r3, #0]
 800199e:	2b10      	cmp	r3, #16
 80019a0:	d003      	beq.n	80019aa <HAL_ADC_ConfigChannel+0x16a>
      (sConfig->Channel == ADC_CHANNEL_VREFINT)      )
 80019a2:	683b      	ldr	r3, [r7, #0]
 80019a4:	681b      	ldr	r3, [r3, #0]
  if ((sConfig->Channel == ADC_CHANNEL_TEMPSENSOR) ||
 80019a6:	2b11      	cmp	r3, #17
 80019a8:	d132      	bne.n	8001a10 <HAL_ADC_ConfigChannel+0x1d0>
  {
    /* For STM32F1 devices with several ADC: Only ADC1 can access internal    */
    /* measurement channels (VrefInt/TempSensor). If these channels are       */
    /* intended to be set on other ADC instances, an error is reported.       */
    if (hadc->Instance == ADC1)
 80019aa:	687b      	ldr	r3, [r7, #4]
 80019ac:	681b      	ldr	r3, [r3, #0]
 80019ae:	4a1d      	ldr	r2, [pc, #116]	; (8001a24 <HAL_ADC_ConfigChannel+0x1e4>)
 80019b0:	4293      	cmp	r3, r2
 80019b2:	d125      	bne.n	8001a00 <HAL_ADC_ConfigChannel+0x1c0>
    {
      if (READ_BIT(hadc->Instance->CR2, ADC_CR2_TSVREFE) == RESET)
 80019b4:	687b      	ldr	r3, [r7, #4]
 80019b6:	681b      	ldr	r3, [r3, #0]
 80019b8:	689b      	ldr	r3, [r3, #8]
 80019ba:	f403 0300 	and.w	r3, r3, #8388608	; 0x800000
 80019be:	2b00      	cmp	r3, #0
 80019c0:	d126      	bne.n	8001a10 <HAL_ADC_ConfigChannel+0x1d0>
      {
        SET_BIT(hadc->Instance->CR2, ADC_CR2_TSVREFE);
 80019c2:	687b      	ldr	r3, [r7, #4]
 80019c4:	681b      	ldr	r3, [r3, #0]
 80019c6:	689a      	ldr	r2, [r3, #8]
 80019c8:	687b      	ldr	r3, [r7, #4]
 80019ca:	681b      	ldr	r3, [r3, #0]
 80019cc:	f442 0200 	orr.w	r2, r2, #8388608	; 0x800000
 80019d0:	609a      	str	r2, [r3, #8]
        
        if ((sConfig->Channel == ADC_CHANNEL_TEMPSENSOR))
 80019d2:	683b      	ldr	r3, [r7, #0]
 80019d4:	681b      	ldr	r3, [r3, #0]
 80019d6:	2b10      	cmp	r3, #16
 80019d8:	d11a      	bne.n	8001a10 <HAL_ADC_ConfigChannel+0x1d0>
        {
          /* Delay for temperature sensor stabilization time */
          /* Compute number of CPU cycles to wait for */
          wait_loop_index = (ADC_TEMPSENSOR_DELAY_US * (SystemCoreClock / 1000000U));
 80019da:	4b13      	ldr	r3, [pc, #76]	; (8001a28 <HAL_ADC_ConfigChannel+0x1e8>)
 80019dc:	681b      	ldr	r3, [r3, #0]
 80019de:	4a13      	ldr	r2, [pc, #76]	; (8001a2c <HAL_ADC_ConfigChannel+0x1ec>)
 80019e0:	fba2 2303 	umull	r2, r3, r2, r3
 80019e4:	0c9a      	lsrs	r2, r3, #18
 80019e6:	4613      	mov	r3, r2
 80019e8:	009b      	lsls	r3, r3, #2
 80019ea:	4413      	add	r3, r2
 80019ec:	005b      	lsls	r3, r3, #1
 80019ee:	60bb      	str	r3, [r7, #8]
          while(wait_loop_index != 0U)
 80019f0:	e002      	b.n	80019f8 <HAL_ADC_ConfigChannel+0x1b8>
          {
            wait_loop_index--;
 80019f2:	68bb      	ldr	r3, [r7, #8]
 80019f4:	3b01      	subs	r3, #1
 80019f6:	60bb      	str	r3, [r7, #8]
          while(wait_loop_index != 0U)
 80019f8:	68bb      	ldr	r3, [r7, #8]
 80019fa:	2b00      	cmp	r3, #0
 80019fc:	d1f9      	bne.n	80019f2 <HAL_ADC_ConfigChannel+0x1b2>
 80019fe:	e007      	b.n	8001a10 <HAL_ADC_ConfigChannel+0x1d0>
      }
    }
    else
    {
      /* Update ADC state machine to error */
      SET_BIT(hadc->State, HAL_ADC_STATE_ERROR_CONFIG);
 8001a00:	687b      	ldr	r3, [r7, #4]
 8001a02:	6a9b      	ldr	r3, [r3, #40]	; 0x28
 8001a04:	f043 0220 	orr.w	r2, r3, #32
 8001a08:	687b      	ldr	r3, [r7, #4]
 8001a0a:	629a      	str	r2, [r3, #40]	; 0x28
      
      tmp_hal_status = HAL_ERROR;
 8001a0c:	2301      	movs	r3, #1
 8001a0e:	73fb      	strb	r3, [r7, #15]
    }
  }
  
  /* Process unlocked */
  __HAL_UNLOCK(hadc);
 8001a10:	687b      	ldr	r3, [r7, #4]
 8001a12:	2200      	movs	r2, #0
 8001a14:	f883 2024 	strb.w	r2, [r3, #36]	; 0x24
  
  /* Return function status */
  return tmp_hal_status;
 8001a18:	7bfb      	ldrb	r3, [r7, #15]
}
 8001a1a:	4618      	mov	r0, r3
 8001a1c:	3714      	adds	r7, #20
 8001a1e:	46bd      	mov	sp, r7
 8001a20:	bc80      	pop	{r7}
 8001a22:	4770      	bx	lr
 8001a24:	40012400 	.word	0x40012400
 8001a28:	20000004 	.word	0x20000004
 8001a2c:	431bde83 	.word	0x431bde83

08001a30 <ADC_Enable>:
  *         and voltage regulator must be enabled (done into HAL_ADC_Init()).
  * @param  hadc: ADC handle
  * @retval HAL status.
  */
HAL_StatusTypeDef ADC_Enable(ADC_HandleTypeDef* hadc)
{
 8001a30:	b580      	push	{r7, lr}
 8001a32:	b084      	sub	sp, #16
 8001a34:	af00      	add	r7, sp, #0
 8001a36:	6078      	str	r0, [r7, #4]
  uint32_t tickstart = 0U;
 8001a38:	2300      	movs	r3, #0
 8001a3a:	60fb      	str	r3, [r7, #12]
  __IO uint32_t wait_loop_index = 0U;
 8001a3c:	2300      	movs	r3, #0
 8001a3e:	60bb      	str	r3, [r7, #8]
  
  /* ADC enable and wait for ADC ready (in case of ADC is disabled or         */
  /* enabling phase not yet completed: flag ADC ready not yet set).           */
  /* Timeout implemented to not be stuck if ADC cannot be enabled (possible   */
  /* causes: ADC clock not running, ...).                                     */
  if (ADC_IS_ENABLE(hadc) == RESET)
 8001a40:	687b      	ldr	r3, [r7, #4]
 8001a42:	681b      	ldr	r3, [r3, #0]
 8001a44:	689b      	ldr	r3, [r3, #8]
 8001a46:	f003 0301 	and.w	r3, r3, #1
 8001a4a:	2b01      	cmp	r3, #1
 8001a4c:	d039      	beq.n	8001ac2 <ADC_Enable+0x92>
  {
    /* Enable the Peripheral */
    __HAL_ADC_ENABLE(hadc);
 8001a4e:	687b      	ldr	r3, [r7, #4]
 8001a50:	681b      	ldr	r3, [r3, #0]
 8001a52:	689a      	ldr	r2, [r3, #8]
 8001a54:	687b      	ldr	r3, [r7, #4]
 8001a56:	681b      	ldr	r3, [r3, #0]
 8001a58:	f042 0201 	orr.w	r2, r2, #1
 8001a5c:	609a      	str	r2, [r3, #8]
    
    /* Delay for ADC stabilization time */
    /* Compute number of CPU cycles to wait for */
    wait_loop_index = (ADC_STAB_DELAY_US * (SystemCoreClock / 1000000U));
 8001a5e:	4b1b      	ldr	r3, [pc, #108]	; (8001acc <ADC_Enable+0x9c>)
 8001a60:	681b      	ldr	r3, [r3, #0]
 8001a62:	4a1b      	ldr	r2, [pc, #108]	; (8001ad0 <ADC_Enable+0xa0>)
 8001a64:	fba2 2303 	umull	r2, r3, r2, r3
 8001a68:	0c9b      	lsrs	r3, r3, #18
 8001a6a:	60bb      	str	r3, [r7, #8]
    while(wait_loop_index != 0U)
 8001a6c:	e002      	b.n	8001a74 <ADC_Enable+0x44>
    {
      wait_loop_index--;
 8001a6e:	68bb      	ldr	r3, [r7, #8]
 8001a70:	3b01      	subs	r3, #1
 8001a72:	60bb      	str	r3, [r7, #8]
    while(wait_loop_index != 0U)
 8001a74:	68bb      	ldr	r3, [r7, #8]
 8001a76:	2b00      	cmp	r3, #0
 8001a78:	d1f9      	bne.n	8001a6e <ADC_Enable+0x3e>
    }
    
    /* Get tick count */
    tickstart = HAL_GetTick();
 8001a7a:	f7ff fce3 	bl	8001444 <HAL_GetTick>
 8001a7e:	60f8      	str	r0, [r7, #12]

    /* Wait for ADC effectively enabled */
    while(ADC_IS_ENABLE(hadc) == RESET)
 8001a80:	e018      	b.n	8001ab4 <ADC_Enable+0x84>
    {
      if((HAL_GetTick() - tickstart) > ADC_ENABLE_TIMEOUT)
 8001a82:	f7ff fcdf 	bl	8001444 <HAL_GetTick>
 8001a86:	4602      	mov	r2, r0
 8001a88:	68fb      	ldr	r3, [r7, #12]
 8001a8a:	1ad3      	subs	r3, r2, r3
 8001a8c:	2b02      	cmp	r3, #2
 8001a8e:	d911      	bls.n	8001ab4 <ADC_Enable+0x84>
      {
        /* Update ADC state machine to error */
        SET_BIT(hadc->State, HAL_ADC_STATE_ERROR_INTERNAL);
 8001a90:	687b      	ldr	r3, [r7, #4]
 8001a92:	6a9b      	ldr	r3, [r3, #40]	; 0x28
 8001a94:	f043 0210 	orr.w	r2, r3, #16
 8001a98:	687b      	ldr	r3, [r7, #4]
 8001a9a:	629a      	str	r2, [r3, #40]	; 0x28
      
        /* Set ADC error code to ADC IP internal error */
        SET_BIT(hadc->ErrorCode, HAL_ADC_ERROR_INTERNAL);
 8001a9c:	687b      	ldr	r3, [r7, #4]
 8001a9e:	6adb      	ldr	r3, [r3, #44]	; 0x2c
 8001aa0:	f043 0201 	orr.w	r2, r3, #1
 8001aa4:	687b      	ldr	r3, [r7, #4]
 8001aa6:	62da      	str	r2, [r3, #44]	; 0x2c
        
        /* Process unlocked */
        __HAL_UNLOCK(hadc);
 8001aa8:	687b      	ldr	r3, [r7, #4]
 8001aaa:	2200      	movs	r2, #0
 8001aac:	f883 2024 	strb.w	r2, [r3, #36]	; 0x24
      
        return HAL_ERROR;
 8001ab0:	2301      	movs	r3, #1
 8001ab2:	e007      	b.n	8001ac4 <ADC_Enable+0x94>
    while(ADC_IS_ENABLE(hadc) == RESET)
 8001ab4:	687b      	ldr	r3, [r7, #4]
 8001ab6:	681b      	ldr	r3, [r3, #0]
 8001ab8:	689b      	ldr	r3, [r3, #8]
 8001aba:	f003 0301 	and.w	r3, r3, #1
 8001abe:	2b01      	cmp	r3, #1
 8001ac0:	d1df      	bne.n	8001a82 <ADC_Enable+0x52>
      }
    }
  }
   
  /* Return HAL status */
  return HAL_OK;
 8001ac2:	2300      	movs	r3, #0
}
 8001ac4:	4618      	mov	r0, r3
 8001ac6:	3710      	adds	r7, #16
 8001ac8:	46bd      	mov	sp, r7
 8001aca:	bd80      	pop	{r7, pc}
 8001acc:	20000004 	.word	0x20000004
 8001ad0:	431bde83 	.word	0x431bde83

08001ad4 <ADC_ConversionStop_Disable>:
  *         stopped to disable the ADC.
  * @param  hadc: ADC handle
  * @retval HAL status.
  */
HAL_StatusTypeDef ADC_ConversionStop_Disable(ADC_HandleTypeDef* hadc)
{
 8001ad4:	b580      	push	{r7, lr}
 8001ad6:	b084      	sub	sp, #16
 8001ad8:	af00      	add	r7, sp, #0
 8001ada:	6078      	str	r0, [r7, #4]
  uint32_t tickstart = 0U;
 8001adc:	2300      	movs	r3, #0
 8001ade:	60fb      	str	r3, [r7, #12]
  
  /* Verification if ADC is not already disabled */
  if (ADC_IS_ENABLE(hadc) != RESET)
 8001ae0:	687b      	ldr	r3, [r7, #4]
 8001ae2:	681b      	ldr	r3, [r3, #0]
 8001ae4:	689b      	ldr	r3, [r3, #8]
 8001ae6:	f003 0301 	and.w	r3, r3, #1
 8001aea:	2b01      	cmp	r3, #1
 8001aec:	d127      	bne.n	8001b3e <ADC_ConversionStop_Disable+0x6a>
  {
    /* Disable the ADC peripheral */
    __HAL_ADC_DISABLE(hadc);
 8001aee:	687b      	ldr	r3, [r7, #4]
 8001af0:	681b      	ldr	r3, [r3, #0]
 8001af2:	689a      	ldr	r2, [r3, #8]
 8001af4:	687b      	ldr	r3, [r7, #4]
 8001af6:	681b      	ldr	r3, [r3, #0]
 8001af8:	f022 0201 	bic.w	r2, r2, #1
 8001afc:	609a      	str	r2, [r3, #8]
     
    /* Get tick count */
    tickstart = HAL_GetTick();
 8001afe:	f7ff fca1 	bl	8001444 <HAL_GetTick>
 8001b02:	60f8      	str	r0, [r7, #12]
    
    /* Wait for ADC effectively disabled */
    while(ADC_IS_ENABLE(hadc) != RESET)
 8001b04:	e014      	b.n	8001b30 <ADC_ConversionStop_Disable+0x5c>
    {
      if((HAL_GetTick() - tickstart) > ADC_DISABLE_TIMEOUT)
 8001b06:	f7ff fc9d 	bl	8001444 <HAL_GetTick>
 8001b0a:	4602      	mov	r2, r0
 8001b0c:	68fb      	ldr	r3, [r7, #12]
 8001b0e:	1ad3      	subs	r3, r2, r3
 8001b10:	2b02      	cmp	r3, #2
 8001b12:	d90d      	bls.n	8001b30 <ADC_ConversionStop_Disable+0x5c>
      {
        /* Update ADC state machine to error */
        SET_BIT(hadc->State, HAL_ADC_STATE_ERROR_INTERNAL);
 8001b14:	687b      	ldr	r3, [r7, #4]
 8001b16:	6a9b      	ldr	r3, [r3, #40]	; 0x28
 8001b18:	f043 0210 	orr.w	r2, r3, #16
 8001b1c:	687b      	ldr	r3, [r7, #4]
 8001b1e:	629a      	str	r2, [r3, #40]	; 0x28
        
        /* Set ADC error code to ADC IP internal error */
        SET_BIT(hadc->ErrorCode, HAL_ADC_ERROR_INTERNAL);
 8001b20:	687b      	ldr	r3, [r7, #4]
 8001b22:	6adb      	ldr	r3, [r3, #44]	; 0x2c
 8001b24:	f043 0201 	orr.w	r2, r3, #1
 8001b28:	687b      	ldr	r3, [r7, #4]
 8001b2a:	62da      	str	r2, [r3, #44]	; 0x2c
        
        return HAL_ERROR;
 8001b2c:	2301      	movs	r3, #1
 8001b2e:	e007      	b.n	8001b40 <ADC_ConversionStop_Disable+0x6c>
    while(ADC_IS_ENABLE(hadc) != RESET)
 8001b30:	687b      	ldr	r3, [r7, #4]
 8001b32:	681b      	ldr	r3, [r3, #0]
 8001b34:	689b      	ldr	r3, [r3, #8]
 8001b36:	f003 0301 	and.w	r3, r3, #1
 8001b3a:	2b01      	cmp	r3, #1
 8001b3c:	d0e3      	beq.n	8001b06 <ADC_ConversionStop_Disable+0x32>
      }
    }
  }
  
  /* Return HAL status */
  return HAL_OK;
 8001b3e:	2300      	movs	r3, #0
}
 8001b40:	4618      	mov	r0, r3
 8001b42:	3710      	adds	r7, #16
 8001b44:	46bd      	mov	sp, r7
 8001b46:	bd80      	pop	{r7, pc}

08001b48 <ADC_DMAConvCplt>:
  * @brief  DMA transfer complete callback. 
  * @param  hdma: pointer to DMA handle.
  * @retval None
  */
void ADC_DMAConvCplt(DMA_HandleTypeDef *hdma)
{
 8001b48:	b580      	push	{r7, lr}
 8001b4a:	b084      	sub	sp, #16
 8001b4c:	af00      	add	r7, sp, #0
 8001b4e:	6078      	str	r0, [r7, #4]
  /* Retrieve ADC handle corresponding to current DMA handle */
  ADC_HandleTypeDef* hadc = ( ADC_HandleTypeDef* )((DMA_HandleTypeDef* )hdma)->Parent;
 8001b50:	687b      	ldr	r3, [r7, #4]
 8001b52:	6a5b      	ldr	r3, [r3, #36]	; 0x24
 8001b54:	60fb      	str	r3, [r7, #12]
 
  /* Update state machine on conversion status if not in error state */
  if (HAL_IS_BIT_CLR(hadc->State, HAL_ADC_STATE_ERROR_INTERNAL | HAL_ADC_STATE_ERROR_DMA))
 8001b56:	68fb      	ldr	r3, [r7, #12]
 8001b58:	6a9b      	ldr	r3, [r3, #40]	; 0x28
 8001b5a:	f003 0350 	and.w	r3, r3, #80	; 0x50
 8001b5e:	2b00      	cmp	r3, #0
 8001b60:	d127      	bne.n	8001bb2 <ADC_DMAConvCplt+0x6a>
  {
    /* Update ADC state machine */
    SET_BIT(hadc->State, HAL_ADC_STATE_REG_EOC);
 8001b62:	68fb      	ldr	r3, [r7, #12]
 8001b64:	6a9b      	ldr	r3, [r3, #40]	; 0x28
 8001b66:	f443 7200 	orr.w	r2, r3, #512	; 0x200
 8001b6a:	68fb      	ldr	r3, [r7, #12]
 8001b6c:	629a      	str	r2, [r3, #40]	; 0x28
    /* Determine whether any further conversion upcoming on group regular     */
    /* by external trigger, continuous mode or scan sequence on going.        */
    /* Note: On STM32F1 devices, in case of sequencer enabled                 */
    /*       (several ranks selected), end of conversion flag is raised       */
    /*       at the end of the sequence.                                      */
    if(ADC_IS_SOFTWARE_START_REGULAR(hadc)        && 
 8001b6e:	68fb      	ldr	r3, [r7, #12]
 8001b70:	681b      	ldr	r3, [r3, #0]
 8001b72:	689b      	ldr	r3, [r3, #8]
 8001b74:	f403 2360 	and.w	r3, r3, #917504	; 0xe0000
 8001b78:	f5b3 2f60 	cmp.w	r3, #917504	; 0xe0000
 8001b7c:	d115      	bne.n	8001baa <ADC_DMAConvCplt+0x62>
       (hadc->Init.ContinuousConvMode == DISABLE)   )
 8001b7e:	68fb      	ldr	r3, [r7, #12]
 8001b80:	7b1b      	ldrb	r3, [r3, #12]
    if(ADC_IS_SOFTWARE_START_REGULAR(hadc)        && 
 8001b82:	2b00      	cmp	r3, #0
 8001b84:	d111      	bne.n	8001baa <ADC_DMAConvCplt+0x62>
    {
      /* Set ADC state */
      CLEAR_BIT(hadc->State, HAL_ADC_STATE_REG_BUSY);   
 8001b86:	68fb      	ldr	r3, [r7, #12]
 8001b88:	6a9b      	ldr	r3, [r3, #40]	; 0x28
 8001b8a:	f423 7280 	bic.w	r2, r3, #256	; 0x100
 8001b8e:	68fb      	ldr	r3, [r7, #12]
 8001b90:	629a      	str	r2, [r3, #40]	; 0x28
      
      if (HAL_IS_BIT_CLR(hadc->State, HAL_ADC_STATE_INJ_BUSY))
 8001b92:	68fb      	ldr	r3, [r7, #12]
 8001b94:	6a9b      	ldr	r3, [r3, #40]	; 0x28
 8001b96:	f403 5380 	and.w	r3, r3, #4096	; 0x1000
 8001b9a:	2b00      	cmp	r3, #0
 8001b9c:	d105      	bne.n	8001baa <ADC_DMAConvCplt+0x62>
      {
        SET_BIT(hadc->State, HAL_ADC_STATE_READY);
 8001b9e:	68fb      	ldr	r3, [r7, #12]
 8001ba0:	6a9b      	ldr	r3, [r3, #40]	; 0x28
 8001ba2:	f043 0201 	orr.w	r2, r3, #1
 8001ba6:	68fb      	ldr	r3, [r7, #12]
 8001ba8:	629a      	str	r2, [r3, #40]	; 0x28
    
    /* Conversion complete callback */
#if (USE_HAL_ADC_REGISTER_CALLBACKS == 1)
    hadc->ConvCpltCallback(hadc);
#else
    HAL_ADC_ConvCpltCallback(hadc);
 8001baa:	68f8      	ldr	r0, [r7, #12]
 8001bac:	f7ff fe2c 	bl	8001808 <HAL_ADC_ConvCpltCallback>
  else
  {
    /* Call DMA error callback */
    hadc->DMA_Handle->XferErrorCallback(hdma);
  }
}
 8001bb0:	e004      	b.n	8001bbc <ADC_DMAConvCplt+0x74>
    hadc->DMA_Handle->XferErrorCallback(hdma);
 8001bb2:	68fb      	ldr	r3, [r7, #12]
 8001bb4:	6a1b      	ldr	r3, [r3, #32]
 8001bb6:	6b1b      	ldr	r3, [r3, #48]	; 0x30
 8001bb8:	6878      	ldr	r0, [r7, #4]
 8001bba:	4798      	blx	r3
}
 8001bbc:	bf00      	nop
 8001bbe:	3710      	adds	r7, #16
 8001bc0:	46bd      	mov	sp, r7
 8001bc2:	bd80      	pop	{r7, pc}

08001bc4 <ADC_DMAHalfConvCplt>:
  * @brief  DMA half transfer complete callback. 
  * @param  hdma: pointer to DMA handle.
  * @retval None
  */
void ADC_DMAHalfConvCplt(DMA_HandleTypeDef *hdma)   
{
 8001bc4:	b580      	push	{r7, lr}
 8001bc6:	b084      	sub	sp, #16
 8001bc8:	af00      	add	r7, sp, #0
 8001bca:	6078      	str	r0, [r7, #4]
  /* Retrieve ADC handle corresponding to current DMA handle */
  ADC_HandleTypeDef* hadc = ( ADC_HandleTypeDef* )((DMA_HandleTypeDef* )hdma)->Parent;
 8001bcc:	687b      	ldr	r3, [r7, #4]
 8001bce:	6a5b      	ldr	r3, [r3, #36]	; 0x24
 8001bd0:	60fb      	str	r3, [r7, #12]
  
  /* Half conversion callback */
#if (USE_HAL_ADC_REGISTER_CALLBACKS == 1)
    hadc->ConvHalfCpltCallback(hadc);
#else
  HAL_ADC_ConvHalfCpltCallback(hadc);
 8001bd2:	68f8      	ldr	r0, [r7, #12]
 8001bd4:	f7ff fe21 	bl	800181a <HAL_ADC_ConvHalfCpltCallback>
#endif /* USE_HAL_ADC_REGISTER_CALLBACKS */
}
 8001bd8:	bf00      	nop
 8001bda:	3710      	adds	r7, #16
 8001bdc:	46bd      	mov	sp, r7
 8001bde:	bd80      	pop	{r7, pc}

08001be0 <ADC_DMAError>:
  * @brief  DMA error callback 
  * @param  hdma: pointer to DMA handle.
  * @retval None
  */
void ADC_DMAError(DMA_HandleTypeDef *hdma)   
{
 8001be0:	b580      	push	{r7, lr}
 8001be2:	b084      	sub	sp, #16
 8001be4:	af00      	add	r7, sp, #0
 8001be6:	6078      	str	r0, [r7, #4]
  /* Retrieve ADC handle corresponding to current DMA handle */
  ADC_HandleTypeDef* hadc = ( ADC_HandleTypeDef* )((DMA_HandleTypeDef* )hdma)->Parent;
 8001be8:	687b      	ldr	r3, [r7, #4]
 8001bea:	6a5b      	ldr	r3, [r3, #36]	; 0x24
 8001bec:	60fb      	str	r3, [r7, #12]
  
  /* Set ADC state */
  SET_BIT(hadc->State, HAL_ADC_STATE_ERROR_DMA);
 8001bee:	68fb      	ldr	r3, [r7, #12]
 8001bf0:	6a9b      	ldr	r3, [r3, #40]	; 0x28
 8001bf2:	f043 0240 	orr.w	r2, r3, #64	; 0x40
 8001bf6:	68fb      	ldr	r3, [r7, #12]
 8001bf8:	629a      	str	r2, [r3, #40]	; 0x28
  
  /* Set ADC error code to DMA error */
  SET_BIT(hadc->ErrorCode, HAL_ADC_ERROR_DMA);
 8001bfa:	68fb      	ldr	r3, [r7, #12]
 8001bfc:	6adb      	ldr	r3, [r3, #44]	; 0x2c
 8001bfe:	f043 0204 	orr.w	r2, r3, #4
 8001c02:	68fb      	ldr	r3, [r7, #12]
 8001c04:	62da      	str	r2, [r3, #44]	; 0x2c
  
  /* Error callback */
#if (USE_HAL_ADC_REGISTER_CALLBACKS == 1)
  hadc->ErrorCallback(hadc);
#else
  HAL_ADC_ErrorCallback(hadc);
 8001c06:	68f8      	ldr	r0, [r7, #12]
 8001c08:	f7ff fe10 	bl	800182c <HAL_ADC_ErrorCallback>
#endif /* USE_HAL_ADC_REGISTER_CALLBACKS */
}
 8001c0c:	bf00      	nop
 8001c0e:	3710      	adds	r7, #16
 8001c10:	46bd      	mov	sp, r7
 8001c12:	bd80      	pop	{r7, pc}

08001c14 <HAL_CAN_Init>:
  * @param  hcan pointer to a CAN_HandleTypeDef structure that contains
  *         the configuration information for the specified CAN.
  * @retval HAL status
  */
HAL_StatusTypeDef HAL_CAN_Init(CAN_HandleTypeDef *hcan)
{
 8001c14:	b580      	push	{r7, lr}
 8001c16:	b084      	sub	sp, #16
 8001c18:	af00      	add	r7, sp, #0
 8001c1a:	6078      	str	r0, [r7, #4]
  uint32_t tickstart;

  /* Check CAN handle */
  if (hcan == NULL)
 8001c1c:	687b      	ldr	r3, [r7, #4]
 8001c1e:	2b00      	cmp	r3, #0
 8001c20:	d101      	bne.n	8001c26 <HAL_CAN_Init+0x12>
  {
    return HAL_ERROR;
 8001c22:	2301      	movs	r3, #1
 8001c24:	e0ed      	b.n	8001e02 <HAL_CAN_Init+0x1ee>
    /* Init the low level hardware: CLOCK, NVIC */
    hcan->MspInitCallback(hcan);
  }

#else
  if (hcan->State == HAL_CAN_STATE_RESET)
 8001c26:	687b      	ldr	r3, [r7, #4]
 8001c28:	f893 3020 	ldrb.w	r3, [r3, #32]
 8001c2c:	b2db      	uxtb	r3, r3
 8001c2e:	2b00      	cmp	r3, #0
 8001c30:	d102      	bne.n	8001c38 <HAL_CAN_Init+0x24>
  {
    /* Init the low level hardware: CLOCK, NVIC */
    HAL_CAN_MspInit(hcan);
 8001c32:	6878      	ldr	r0, [r7, #4]
 8001c34:	f7ff f950 	bl	8000ed8 <HAL_CAN_MspInit>
  }
#endif /* (USE_HAL_CAN_REGISTER_CALLBACKS) */

  /* Exit from sleep mode */
  CLEAR_BIT(hcan->Instance->MCR, CAN_MCR_SLEEP);
 8001c38:	687b      	ldr	r3, [r7, #4]
 8001c3a:	681b      	ldr	r3, [r3, #0]
 8001c3c:	681a      	ldr	r2, [r3, #0]
 8001c3e:	687b      	ldr	r3, [r7, #4]
 8001c40:	681b      	ldr	r3, [r3, #0]
 8001c42:	f022 0202 	bic.w	r2, r2, #2
 8001c46:	601a      	str	r2, [r3, #0]

  /* Get tick */
  tickstart = HAL_GetTick();
 8001c48:	f7ff fbfc 	bl	8001444 <HAL_GetTick>
 8001c4c:	60f8      	str	r0, [r7, #12]

  /* Check Sleep mode leave acknowledge */
  while ((hcan->Instance->MSR & CAN_MSR_SLAK) != 0U)
 8001c4e:	e012      	b.n	8001c76 <HAL_CAN_Init+0x62>
  {
    if ((HAL_GetTick() - tickstart) > CAN_TIMEOUT_VALUE)
 8001c50:	f7ff fbf8 	bl	8001444 <HAL_GetTick>
 8001c54:	4602      	mov	r2, r0
 8001c56:	68fb      	ldr	r3, [r7, #12]
 8001c58:	1ad3      	subs	r3, r2, r3
 8001c5a:	2b0a      	cmp	r3, #10
 8001c5c:	d90b      	bls.n	8001c76 <HAL_CAN_Init+0x62>
    {
      /* Update error code */
      hcan->ErrorCode |= HAL_CAN_ERROR_TIMEOUT;
 8001c5e:	687b      	ldr	r3, [r7, #4]
 8001c60:	6a5b      	ldr	r3, [r3, #36]	; 0x24
 8001c62:	f443 3200 	orr.w	r2, r3, #131072	; 0x20000
 8001c66:	687b      	ldr	r3, [r7, #4]
 8001c68:	625a      	str	r2, [r3, #36]	; 0x24

      /* Change CAN state */
      hcan->State = HAL_CAN_STATE_ERROR;
 8001c6a:	687b      	ldr	r3, [r7, #4]
 8001c6c:	2205      	movs	r2, #5
 8001c6e:	f883 2020 	strb.w	r2, [r3, #32]

      return HAL_ERROR;
 8001c72:	2301      	movs	r3, #1
 8001c74:	e0c5      	b.n	8001e02 <HAL_CAN_Init+0x1ee>
  while ((hcan->Instance->MSR & CAN_MSR_SLAK) != 0U)
 8001c76:	687b      	ldr	r3, [r7, #4]
 8001c78:	681b      	ldr	r3, [r3, #0]
 8001c7a:	685b      	ldr	r3, [r3, #4]
 8001c7c:	f003 0302 	and.w	r3, r3, #2
 8001c80:	2b00      	cmp	r3, #0
 8001c82:	d1e5      	bne.n	8001c50 <HAL_CAN_Init+0x3c>
    }
  }

  /* Request initialisation */
  SET_BIT(hcan->Instance->MCR, CAN_MCR_INRQ);
 8001c84:	687b      	ldr	r3, [r7, #4]
 8001c86:	681b      	ldr	r3, [r3, #0]
 8001c88:	681a      	ldr	r2, [r3, #0]
 8001c8a:	687b      	ldr	r3, [r7, #4]
 8001c8c:	681b      	ldr	r3, [r3, #0]
 8001c8e:	f042 0201 	orr.w	r2, r2, #1
 8001c92:	601a      	str	r2, [r3, #0]

  /* Get tick */
  tickstart = HAL_GetTick();
 8001c94:	f7ff fbd6 	bl	8001444 <HAL_GetTick>
 8001c98:	60f8      	str	r0, [r7, #12]

  /* Wait initialisation acknowledge */
  while ((hcan->Instance->MSR & CAN_MSR_INAK) == 0U)
 8001c9a:	e012      	b.n	8001cc2 <HAL_CAN_Init+0xae>
  {
    if ((HAL_GetTick() - tickstart) > CAN_TIMEOUT_VALUE)
 8001c9c:	f7ff fbd2 	bl	8001444 <HAL_GetTick>
 8001ca0:	4602      	mov	r2, r0
 8001ca2:	68fb      	ldr	r3, [r7, #12]
 8001ca4:	1ad3      	subs	r3, r2, r3
 8001ca6:	2b0a      	cmp	r3, #10
 8001ca8:	d90b      	bls.n	8001cc2 <HAL_CAN_Init+0xae>
    {
      /* Update error code */
      hcan->ErrorCode |= HAL_CAN_ERROR_TIMEOUT;
 8001caa:	687b      	ldr	r3, [r7, #4]
 8001cac:	6a5b      	ldr	r3, [r3, #36]	; 0x24
 8001cae:	f443 3200 	orr.w	r2, r3, #131072	; 0x20000
 8001cb2:	687b      	ldr	r3, [r7, #4]
 8001cb4:	625a      	str	r2, [r3, #36]	; 0x24

      /* Change CAN state */
      hcan->State = HAL_CAN_STATE_ERROR;
 8001cb6:	687b      	ldr	r3, [r7, #4]
 8001cb8:	2205      	movs	r2, #5
 8001cba:	f883 2020 	strb.w	r2, [r3, #32]

      return HAL_ERROR;
 8001cbe:	2301      	movs	r3, #1
 8001cc0:	e09f      	b.n	8001e02 <HAL_CAN_Init+0x1ee>
  while ((hcan->Instance->MSR & CAN_MSR_INAK) == 0U)
 8001cc2:	687b      	ldr	r3, [r7, #4]
 8001cc4:	681b      	ldr	r3, [r3, #0]
 8001cc6:	685b      	ldr	r3, [r3, #4]
 8001cc8:	f003 0301 	and.w	r3, r3, #1
 8001ccc:	2b00      	cmp	r3, #0
 8001cce:	d0e5      	beq.n	8001c9c <HAL_CAN_Init+0x88>
    }
  }

  /* Set the time triggered communication mode */
  if (hcan->Init.TimeTriggeredMode == ENABLE)
 8001cd0:	687b      	ldr	r3, [r7, #4]
 8001cd2:	7e1b      	ldrb	r3, [r3, #24]
 8001cd4:	2b01      	cmp	r3, #1
 8001cd6:	d108      	bne.n	8001cea <HAL_CAN_Init+0xd6>
  {
    SET_BIT(hcan->Instance->MCR, CAN_MCR_TTCM);
 8001cd8:	687b      	ldr	r3, [r7, #4]
 8001cda:	681b      	ldr	r3, [r3, #0]
 8001cdc:	681a      	ldr	r2, [r3, #0]
 8001cde:	687b      	ldr	r3, [r7, #4]
 8001ce0:	681b      	ldr	r3, [r3, #0]
 8001ce2:	f042 0280 	orr.w	r2, r2, #128	; 0x80
 8001ce6:	601a      	str	r2, [r3, #0]
 8001ce8:	e007      	b.n	8001cfa <HAL_CAN_Init+0xe6>
  }
  else
  {
    CLEAR_BIT(hcan->Instance->MCR, CAN_MCR_TTCM);
 8001cea:	687b      	ldr	r3, [r7, #4]
 8001cec:	681b      	ldr	r3, [r3, #0]
 8001cee:	681a      	ldr	r2, [r3, #0]
 8001cf0:	687b      	ldr	r3, [r7, #4]
 8001cf2:	681b      	ldr	r3, [r3, #0]
 8001cf4:	f022 0280 	bic.w	r2, r2, #128	; 0x80
 8001cf8:	601a      	str	r2, [r3, #0]
  }

  /* Set the automatic bus-off management */
  if (hcan->Init.AutoBusOff == ENABLE)
 8001cfa:	687b      	ldr	r3, [r7, #4]
 8001cfc:	7e5b      	ldrb	r3, [r3, #25]
 8001cfe:	2b01      	cmp	r3, #1
 8001d00:	d108      	bne.n	8001d14 <HAL_CAN_Init+0x100>
  {
    SET_BIT(hcan->Instance->MCR, CAN_MCR_ABOM);
 8001d02:	687b      	ldr	r3, [r7, #4]
 8001d04:	681b      	ldr	r3, [r3, #0]
 8001d06:	681a      	ldr	r2, [r3, #0]
 8001d08:	687b      	ldr	r3, [r7, #4]
 8001d0a:	681b      	ldr	r3, [r3, #0]
 8001d0c:	f042 0240 	orr.w	r2, r2, #64	; 0x40
 8001d10:	601a      	str	r2, [r3, #0]
 8001d12:	e007      	b.n	8001d24 <HAL_CAN_Init+0x110>
  }
  else
  {
    CLEAR_BIT(hcan->Instance->MCR, CAN_MCR_ABOM);
 8001d14:	687b      	ldr	r3, [r7, #4]
 8001d16:	681b      	ldr	r3, [r3, #0]
 8001d18:	681a      	ldr	r2, [r3, #0]
 8001d1a:	687b      	ldr	r3, [r7, #4]
 8001d1c:	681b      	ldr	r3, [r3, #0]
 8001d1e:	f022 0240 	bic.w	r2, r2, #64	; 0x40
 8001d22:	601a      	str	r2, [r3, #0]
  }

  /* Set the automatic wake-up mode */
  if (hcan->Init.AutoWakeUp == ENABLE)
 8001d24:	687b      	ldr	r3, [r7, #4]
 8001d26:	7e9b      	ldrb	r3, [r3, #26]
 8001d28:	2b01      	cmp	r3, #1
 8001d2a:	d108      	bne.n	8001d3e <HAL_CAN_Init+0x12a>
  {
    SET_BIT(hcan->Instance->MCR, CAN_MCR_AWUM);
 8001d2c:	687b      	ldr	r3, [r7, #4]
 8001d2e:	681b      	ldr	r3, [r3, #0]
 8001d30:	681a      	ldr	r2, [r3, #0]
 8001d32:	687b      	ldr	r3, [r7, #4]
 8001d34:	681b      	ldr	r3, [r3, #0]
 8001d36:	f042 0220 	orr.w	r2, r2, #32
 8001d3a:	601a      	str	r2, [r3, #0]
 8001d3c:	e007      	b.n	8001d4e <HAL_CAN_Init+0x13a>
  }
  else
  {
    CLEAR_BIT(hcan->Instance->MCR, CAN_MCR_AWUM);
 8001d3e:	687b      	ldr	r3, [r7, #4]
 8001d40:	681b      	ldr	r3, [r3, #0]
 8001d42:	681a      	ldr	r2, [r3, #0]
 8001d44:	687b      	ldr	r3, [r7, #4]
 8001d46:	681b      	ldr	r3, [r3, #0]
 8001d48:	f022 0220 	bic.w	r2, r2, #32
 8001d4c:	601a      	str	r2, [r3, #0]
  }

  /* Set the automatic retransmission */
  if (hcan->Init.AutoRetransmission == ENABLE)
 8001d4e:	687b      	ldr	r3, [r7, #4]
 8001d50:	7edb      	ldrb	r3, [r3, #27]
 8001d52:	2b01      	cmp	r3, #1
 8001d54:	d108      	bne.n	8001d68 <HAL_CAN_Init+0x154>
  {
    CLEAR_BIT(hcan->Instance->MCR, CAN_MCR_NART);
 8001d56:	687b      	ldr	r3, [r7, #4]
 8001d58:	681b      	ldr	r3, [r3, #0]
 8001d5a:	681a      	ldr	r2, [r3, #0]
 8001d5c:	687b      	ldr	r3, [r7, #4]
 8001d5e:	681b      	ldr	r3, [r3, #0]
 8001d60:	f022 0210 	bic.w	r2, r2, #16
 8001d64:	601a      	str	r2, [r3, #0]
 8001d66:	e007      	b.n	8001d78 <HAL_CAN_Init+0x164>
  }
  else
  {
    SET_BIT(hcan->Instance->MCR, CAN_MCR_NART);
 8001d68:	687b      	ldr	r3, [r7, #4]
 8001d6a:	681b      	ldr	r3, [r3, #0]
 8001d6c:	681a      	ldr	r2, [r3, #0]
 8001d6e:	687b      	ldr	r3, [r7, #4]
 8001d70:	681b      	ldr	r3, [r3, #0]
 8001d72:	f042 0210 	orr.w	r2, r2, #16
 8001d76:	601a      	str	r2, [r3, #0]
  }

  /* Set the receive FIFO locked mode */
  if (hcan->Init.ReceiveFifoLocked == ENABLE)
 8001d78:	687b      	ldr	r3, [r7, #4]
 8001d7a:	7f1b      	ldrb	r3, [r3, #28]
 8001d7c:	2b01      	cmp	r3, #1
 8001d7e:	d108      	bne.n	8001d92 <HAL_CAN_Init+0x17e>
  {
    SET_BIT(hcan->Instance->MCR, CAN_MCR_RFLM);
 8001d80:	687b      	ldr	r3, [r7, #4]
 8001d82:	681b      	ldr	r3, [r3, #0]
 8001d84:	681a      	ldr	r2, [r3, #0]
 8001d86:	687b      	ldr	r3, [r7, #4]
 8001d88:	681b      	ldr	r3, [r3, #0]
 8001d8a:	f042 0208 	orr.w	r2, r2, #8
 8001d8e:	601a      	str	r2, [r3, #0]
 8001d90:	e007      	b.n	8001da2 <HAL_CAN_Init+0x18e>
  }
  else
  {
    CLEAR_BIT(hcan->Instance->MCR, CAN_MCR_RFLM);
 8001d92:	687b      	ldr	r3, [r7, #4]
 8001d94:	681b      	ldr	r3, [r3, #0]
 8001d96:	681a      	ldr	r2, [r3, #0]
 8001d98:	687b      	ldr	r3, [r7, #4]
 8001d9a:	681b      	ldr	r3, [r3, #0]
 8001d9c:	f022 0208 	bic.w	r2, r2, #8
 8001da0:	601a      	str	r2, [r3, #0]
  }

  /* Set the transmit FIFO priority */
  if (hcan->Init.TransmitFifoPriority == ENABLE)
 8001da2:	687b      	ldr	r3, [r7, #4]
 8001da4:	7f5b      	ldrb	r3, [r3, #29]
 8001da6:	2b01      	cmp	r3, #1
 8001da8:	d108      	bne.n	8001dbc <HAL_CAN_Init+0x1a8>
  {
    SET_BIT(hcan->Instance->MCR, CAN_MCR_TXFP);
 8001daa:	687b      	ldr	r3, [r7, #4]
 8001dac:	681b      	ldr	r3, [r3, #0]
 8001dae:	681a      	ldr	r2, [r3, #0]
 8001db0:	687b      	ldr	r3, [r7, #4]
 8001db2:	681b      	ldr	r3, [r3, #0]
 8001db4:	f042 0204 	orr.w	r2, r2, #4
 8001db8:	601a      	str	r2, [r3, #0]
 8001dba:	e007      	b.n	8001dcc <HAL_CAN_Init+0x1b8>
  }
  else
  {
    CLEAR_BIT(hcan->Instance->MCR, CAN_MCR_TXFP);
 8001dbc:	687b      	ldr	r3, [r7, #4]
 8001dbe:	681b      	ldr	r3, [r3, #0]
 8001dc0:	681a      	ldr	r2, [r3, #0]
 8001dc2:	687b      	ldr	r3, [r7, #4]
 8001dc4:	681b      	ldr	r3, [r3, #0]
 8001dc6:	f022 0204 	bic.w	r2, r2, #4
 8001dca:	601a      	str	r2, [r3, #0]
  }

  /* Set the bit timing register */
  WRITE_REG(hcan->Instance->BTR, (uint32_t)(hcan->Init.Mode           |
 8001dcc:	687b      	ldr	r3, [r7, #4]
 8001dce:	689a      	ldr	r2, [r3, #8]
 8001dd0:	687b      	ldr	r3, [r7, #4]
 8001dd2:	68db      	ldr	r3, [r3, #12]
 8001dd4:	431a      	orrs	r2, r3
 8001dd6:	687b      	ldr	r3, [r7, #4]
 8001dd8:	691b      	ldr	r3, [r3, #16]
 8001dda:	431a      	orrs	r2, r3
 8001ddc:	687b      	ldr	r3, [r7, #4]
 8001dde:	695b      	ldr	r3, [r3, #20]
 8001de0:	ea42 0103 	orr.w	r1, r2, r3
 8001de4:	687b      	ldr	r3, [r7, #4]
 8001de6:	685b      	ldr	r3, [r3, #4]
 8001de8:	1e5a      	subs	r2, r3, #1
 8001dea:	687b      	ldr	r3, [r7, #4]
 8001dec:	681b      	ldr	r3, [r3, #0]
 8001dee:	430a      	orrs	r2, r1
 8001df0:	61da      	str	r2, [r3, #28]
                                            hcan->Init.TimeSeg1       |
                                            hcan->Init.TimeSeg2       |
                                            (hcan->Init.Prescaler - 1U)));

  /* Initialize the error code */
  hcan->ErrorCode = HAL_CAN_ERROR_NONE;
 8001df2:	687b      	ldr	r3, [r7, #4]
 8001df4:	2200      	movs	r2, #0
 8001df6:	625a      	str	r2, [r3, #36]	; 0x24

  /* Initialize the CAN state */
  hcan->State = HAL_CAN_STATE_READY;
 8001df8:	687b      	ldr	r3, [r7, #4]
 8001dfa:	2201      	movs	r2, #1
 8001dfc:	f883 2020 	strb.w	r2, [r3, #32]

  /* Return function status */
  return HAL_OK;
 8001e00:	2300      	movs	r3, #0
}
 8001e02:	4618      	mov	r0, r3
 8001e04:	3710      	adds	r7, #16
 8001e06:	46bd      	mov	sp, r7
 8001e08:	bd80      	pop	{r7, pc}

08001e0a <HAL_CAN_ConfigFilter>:
  * @param  sFilterConfig pointer to a CAN_FilterTypeDef structure that
  *         contains the filter configuration information.
  * @retval None
  */
HAL_StatusTypeDef HAL_CAN_ConfigFilter(CAN_HandleTypeDef *hcan, CAN_FilterTypeDef *sFilterConfig)
{
 8001e0a:	b480      	push	{r7}
 8001e0c:	b087      	sub	sp, #28
 8001e0e:	af00      	add	r7, sp, #0
 8001e10:	6078      	str	r0, [r7, #4]
 8001e12:	6039      	str	r1, [r7, #0]
  uint32_t filternbrbitpos;
  CAN_TypeDef *can_ip = hcan->Instance;
 8001e14:	687b      	ldr	r3, [r7, #4]
 8001e16:	681b      	ldr	r3, [r3, #0]
 8001e18:	617b      	str	r3, [r7, #20]
  HAL_CAN_StateTypeDef state = hcan->State;
 8001e1a:	687b      	ldr	r3, [r7, #4]
 8001e1c:	f893 3020 	ldrb.w	r3, [r3, #32]
 8001e20:	74fb      	strb	r3, [r7, #19]

  if ((state == HAL_CAN_STATE_READY) ||
 8001e22:	7cfb      	ldrb	r3, [r7, #19]
 8001e24:	2b01      	cmp	r3, #1
 8001e26:	d003      	beq.n	8001e30 <HAL_CAN_ConfigFilter+0x26>
 8001e28:	7cfb      	ldrb	r3, [r7, #19]
 8001e2a:	2b02      	cmp	r3, #2
 8001e2c:	f040 80aa 	bne.w	8001f84 <HAL_CAN_ConfigFilter+0x17a>
    /* Check the parameters */
    assert_param(IS_CAN_FILTER_BANK_SINGLE(sFilterConfig->FilterBank));
#endif

    /* Initialisation mode for the filter */
    SET_BIT(can_ip->FMR, CAN_FMR_FINIT);
 8001e30:	697b      	ldr	r3, [r7, #20]
 8001e32:	f8d3 3200 	ldr.w	r3, [r3, #512]	; 0x200
 8001e36:	f043 0201 	orr.w	r2, r3, #1
 8001e3a:	697b      	ldr	r3, [r7, #20]
 8001e3c:	f8c3 2200 	str.w	r2, [r3, #512]	; 0x200
    CLEAR_BIT(can_ip->FMR, CAN_FMR_CAN2SB);
    SET_BIT(can_ip->FMR, sFilterConfig->SlaveStartFilterBank << CAN_FMR_CAN2SB_Pos);

#endif
    /* Convert filter number into bit position */
    filternbrbitpos = (uint32_t)1 << (sFilterConfig->FilterBank & 0x1FU);
 8001e40:	683b      	ldr	r3, [r7, #0]
 8001e42:	695b      	ldr	r3, [r3, #20]
 8001e44:	f003 031f 	and.w	r3, r3, #31
 8001e48:	2201      	movs	r2, #1
 8001e4a:	fa02 f303 	lsl.w	r3, r2, r3
 8001e4e:	60fb      	str	r3, [r7, #12]

    /* Filter Deactivation */
    CLEAR_BIT(can_ip->FA1R, filternbrbitpos);
 8001e50:	697b      	ldr	r3, [r7, #20]
 8001e52:	f8d3 221c 	ldr.w	r2, [r3, #540]	; 0x21c
 8001e56:	68fb      	ldr	r3, [r7, #12]
 8001e58:	43db      	mvns	r3, r3
 8001e5a:	401a      	ands	r2, r3
 8001e5c:	697b      	ldr	r3, [r7, #20]
 8001e5e:	f8c3 221c 	str.w	r2, [r3, #540]	; 0x21c

    /* Filter Scale */
    if (sFilterConfig->FilterScale == CAN_FILTERSCALE_16BIT)
 8001e62:	683b      	ldr	r3, [r7, #0]
 8001e64:	69db      	ldr	r3, [r3, #28]
 8001e66:	2b00      	cmp	r3, #0
 8001e68:	d123      	bne.n	8001eb2 <HAL_CAN_ConfigFilter+0xa8>
    {
      /* 16-bit scale for the filter */
      CLEAR_BIT(can_ip->FS1R, filternbrbitpos);
 8001e6a:	697b      	ldr	r3, [r7, #20]
 8001e6c:	f8d3 220c 	ldr.w	r2, [r3, #524]	; 0x20c
 8001e70:	68fb      	ldr	r3, [r7, #12]
 8001e72:	43db      	mvns	r3, r3
 8001e74:	401a      	ands	r2, r3
 8001e76:	697b      	ldr	r3, [r7, #20]
 8001e78:	f8c3 220c 	str.w	r2, [r3, #524]	; 0x20c

      /* First 16-bit identifier and First 16-bit mask */
      /* Or First 16-bit identifier and Second 16-bit identifier */
      can_ip->sFilterRegister[sFilterConfig->FilterBank].FR1 =
        ((0x0000FFFFU & (uint32_t)sFilterConfig->FilterMaskIdLow) << 16U) |
 8001e7c:	683b      	ldr	r3, [r7, #0]
 8001e7e:	68db      	ldr	r3, [r3, #12]
 8001e80:	0419      	lsls	r1, r3, #16
        (0x0000FFFFU & (uint32_t)sFilterConfig->FilterIdLow);
 8001e82:	683b      	ldr	r3, [r7, #0]
 8001e84:	685b      	ldr	r3, [r3, #4]
 8001e86:	b29b      	uxth	r3, r3
      can_ip->sFilterRegister[sFilterConfig->FilterBank].FR1 =
 8001e88:	683a      	ldr	r2, [r7, #0]
 8001e8a:	6952      	ldr	r2, [r2, #20]
        ((0x0000FFFFU & (uint32_t)sFilterConfig->FilterMaskIdLow) << 16U) |
 8001e8c:	4319      	orrs	r1, r3
      can_ip->sFilterRegister[sFilterConfig->FilterBank].FR1 =
 8001e8e:	697b      	ldr	r3, [r7, #20]
 8001e90:	3248      	adds	r2, #72	; 0x48
 8001e92:	f843 1032 	str.w	r1, [r3, r2, lsl #3]

      /* Second 16-bit identifier and Second 16-bit mask */
      /* Or Third 16-bit identifier and Fourth 16-bit identifier */
      can_ip->sFilterRegister[sFilterConfig->FilterBank].FR2 =
        ((0x0000FFFFU & (uint32_t)sFilterConfig->FilterMaskIdHigh) << 16U) |
 8001e96:	683b      	ldr	r3, [r7, #0]
 8001e98:	689b      	ldr	r3, [r3, #8]
 8001e9a:	0419      	lsls	r1, r3, #16
        (0x0000FFFFU & (uint32_t)sFilterConfig->FilterIdHigh);
 8001e9c:	683b      	ldr	r3, [r7, #0]
 8001e9e:	681b      	ldr	r3, [r3, #0]
 8001ea0:	b29a      	uxth	r2, r3
      can_ip->sFilterRegister[sFilterConfig->FilterBank].FR2 =
 8001ea2:	683b      	ldr	r3, [r7, #0]
 8001ea4:	695b      	ldr	r3, [r3, #20]
        ((0x0000FFFFU & (uint32_t)sFilterConfig->FilterMaskIdHigh) << 16U) |
 8001ea6:	430a      	orrs	r2, r1
      can_ip->sFilterRegister[sFilterConfig->FilterBank].FR2 =
 8001ea8:	6979      	ldr	r1, [r7, #20]
 8001eaa:	3348      	adds	r3, #72	; 0x48
 8001eac:	00db      	lsls	r3, r3, #3
 8001eae:	440b      	add	r3, r1
 8001eb0:	605a      	str	r2, [r3, #4]
    }

    if (sFilterConfig->FilterScale == CAN_FILTERSCALE_32BIT)
 8001eb2:	683b      	ldr	r3, [r7, #0]
 8001eb4:	69db      	ldr	r3, [r3, #28]
 8001eb6:	2b01      	cmp	r3, #1
 8001eb8:	d122      	bne.n	8001f00 <HAL_CAN_ConfigFilter+0xf6>
    {
      /* 32-bit scale for the filter */
      SET_BIT(can_ip->FS1R, filternbrbitpos);
 8001eba:	697b      	ldr	r3, [r7, #20]
 8001ebc:	f8d3 220c 	ldr.w	r2, [r3, #524]	; 0x20c
 8001ec0:	68fb      	ldr	r3, [r7, #12]
 8001ec2:	431a      	orrs	r2, r3
 8001ec4:	697b      	ldr	r3, [r7, #20]
 8001ec6:	f8c3 220c 	str.w	r2, [r3, #524]	; 0x20c

      /* 32-bit identifier or First 32-bit identifier */
      can_ip->sFilterRegister[sFilterConfig->FilterBank].FR1 =
        ((0x0000FFFFU & (uint32_t)sFilterConfig->FilterIdHigh) << 16U) |
 8001eca:	683b      	ldr	r3, [r7, #0]
 8001ecc:	681b      	ldr	r3, [r3, #0]
 8001ece:	0419      	lsls	r1, r3, #16
        (0x0000FFFFU & (uint32_t)sFilterConfig->FilterIdLow);
 8001ed0:	683b      	ldr	r3, [r7, #0]
 8001ed2:	685b      	ldr	r3, [r3, #4]
 8001ed4:	b29b      	uxth	r3, r3
      can_ip->sFilterRegister[sFilterConfig->FilterBank].FR1 =
 8001ed6:	683a      	ldr	r2, [r7, #0]
 8001ed8:	6952      	ldr	r2, [r2, #20]
        ((0x0000FFFFU & (uint32_t)sFilterConfig->FilterIdHigh) << 16U) |
 8001eda:	4319      	orrs	r1, r3
      can_ip->sFilterRegister[sFilterConfig->FilterBank].FR1 =
 8001edc:	697b      	ldr	r3, [r7, #20]
 8001ede:	3248      	adds	r2, #72	; 0x48
 8001ee0:	f843 1032 	str.w	r1, [r3, r2, lsl #3]

      /* 32-bit mask or Second 32-bit identifier */
      can_ip->sFilterRegister[sFilterConfig->FilterBank].FR2 =
        ((0x0000FFFFU & (uint32_t)sFilterConfig->FilterMaskIdHigh) << 16U) |
 8001ee4:	683b      	ldr	r3, [r7, #0]
 8001ee6:	689b      	ldr	r3, [r3, #8]
 8001ee8:	0419      	lsls	r1, r3, #16
        (0x0000FFFFU & (uint32_t)sFilterConfig->FilterMaskIdLow);
 8001eea:	683b      	ldr	r3, [r7, #0]
 8001eec:	68db      	ldr	r3, [r3, #12]
 8001eee:	b29a      	uxth	r2, r3
      can_ip->sFilterRegister[sFilterConfig->FilterBank].FR2 =
 8001ef0:	683b      	ldr	r3, [r7, #0]
 8001ef2:	695b      	ldr	r3, [r3, #20]
        ((0x0000FFFFU & (uint32_t)sFilterConfig->FilterMaskIdHigh) << 16U) |
 8001ef4:	430a      	orrs	r2, r1
      can_ip->sFilterRegister[sFilterConfig->FilterBank].FR2 =
 8001ef6:	6979      	ldr	r1, [r7, #20]
 8001ef8:	3348      	adds	r3, #72	; 0x48
 8001efa:	00db      	lsls	r3, r3, #3
 8001efc:	440b      	add	r3, r1
 8001efe:	605a      	str	r2, [r3, #4]
    }

    /* Filter Mode */
    if (sFilterConfig->FilterMode == CAN_FILTERMODE_IDMASK)
 8001f00:	683b      	ldr	r3, [r7, #0]
 8001f02:	699b      	ldr	r3, [r3, #24]
 8001f04:	2b00      	cmp	r3, #0
 8001f06:	d109      	bne.n	8001f1c <HAL_CAN_ConfigFilter+0x112>
    {
      /* Id/Mask mode for the filter*/
      CLEAR_BIT(can_ip->FM1R, filternbrbitpos);
 8001f08:	697b      	ldr	r3, [r7, #20]
 8001f0a:	f8d3 2204 	ldr.w	r2, [r3, #516]	; 0x204
 8001f0e:	68fb      	ldr	r3, [r7, #12]
 8001f10:	43db      	mvns	r3, r3
 8001f12:	401a      	ands	r2, r3
 8001f14:	697b      	ldr	r3, [r7, #20]
 8001f16:	f8c3 2204 	str.w	r2, [r3, #516]	; 0x204
 8001f1a:	e007      	b.n	8001f2c <HAL_CAN_ConfigFilter+0x122>
    }
    else /* CAN_FilterInitStruct->CAN_FilterMode == CAN_FilterMode_IdList */
    {
      /* Identifier list mode for the filter*/
      SET_BIT(can_ip->FM1R, filternbrbitpos);
 8001f1c:	697b      	ldr	r3, [r7, #20]
 8001f1e:	f8d3 2204 	ldr.w	r2, [r3, #516]	; 0x204
 8001f22:	68fb      	ldr	r3, [r7, #12]
 8001f24:	431a      	orrs	r2, r3
 8001f26:	697b      	ldr	r3, [r7, #20]
 8001f28:	f8c3 2204 	str.w	r2, [r3, #516]	; 0x204
    }

    /* Filter FIFO assignment */
    if (sFilterConfig->FilterFIFOAssignment == CAN_FILTER_FIFO0)
 8001f2c:	683b      	ldr	r3, [r7, #0]
 8001f2e:	691b      	ldr	r3, [r3, #16]
 8001f30:	2b00      	cmp	r3, #0
 8001f32:	d109      	bne.n	8001f48 <HAL_CAN_ConfigFilter+0x13e>
    {
      /* FIFO 0 assignation for the filter */
      CLEAR_BIT(can_ip->FFA1R, filternbrbitpos);
 8001f34:	697b      	ldr	r3, [r7, #20]
 8001f36:	f8d3 2214 	ldr.w	r2, [r3, #532]	; 0x214
 8001f3a:	68fb      	ldr	r3, [r7, #12]
 8001f3c:	43db      	mvns	r3, r3
 8001f3e:	401a      	ands	r2, r3
 8001f40:	697b      	ldr	r3, [r7, #20]
 8001f42:	f8c3 2214 	str.w	r2, [r3, #532]	; 0x214
 8001f46:	e007      	b.n	8001f58 <HAL_CAN_ConfigFilter+0x14e>
    }
    else
    {
      /* FIFO 1 assignation for the filter */
      SET_BIT(can_ip->FFA1R, filternbrbitpos);
 8001f48:	697b      	ldr	r3, [r7, #20]
 8001f4a:	f8d3 2214 	ldr.w	r2, [r3, #532]	; 0x214
 8001f4e:	68fb      	ldr	r3, [r7, #12]
 8001f50:	431a      	orrs	r2, r3
 8001f52:	697b      	ldr	r3, [r7, #20]
 8001f54:	f8c3 2214 	str.w	r2, [r3, #532]	; 0x214
    }

    /* Filter activation */
    if (sFilterConfig->FilterActivation == CAN_FILTER_ENABLE)
 8001f58:	683b      	ldr	r3, [r7, #0]
 8001f5a:	6a1b      	ldr	r3, [r3, #32]
 8001f5c:	2b01      	cmp	r3, #1
 8001f5e:	d107      	bne.n	8001f70 <HAL_CAN_ConfigFilter+0x166>
    {
      SET_BIT(can_ip->FA1R, filternbrbitpos);
 8001f60:	697b      	ldr	r3, [r7, #20]
 8001f62:	f8d3 221c 	ldr.w	r2, [r3, #540]	; 0x21c
 8001f66:	68fb      	ldr	r3, [r7, #12]
 8001f68:	431a      	orrs	r2, r3
 8001f6a:	697b      	ldr	r3, [r7, #20]
 8001f6c:	f8c3 221c 	str.w	r2, [r3, #540]	; 0x21c
    }

    /* Leave the initialisation mode for the filter */
    CLEAR_BIT(can_ip->FMR, CAN_FMR_FINIT);
 8001f70:	697b      	ldr	r3, [r7, #20]
 8001f72:	f8d3 3200 	ldr.w	r3, [r3, #512]	; 0x200
 8001f76:	f023 0201 	bic.w	r2, r3, #1
 8001f7a:	697b      	ldr	r3, [r7, #20]
 8001f7c:	f8c3 2200 	str.w	r2, [r3, #512]	; 0x200

    /* Return function status */
    return HAL_OK;
 8001f80:	2300      	movs	r3, #0
 8001f82:	e006      	b.n	8001f92 <HAL_CAN_ConfigFilter+0x188>
  }
  else
  {
    /* Update error code */
    hcan->ErrorCode |= HAL_CAN_ERROR_NOT_INITIALIZED;
 8001f84:	687b      	ldr	r3, [r7, #4]
 8001f86:	6a5b      	ldr	r3, [r3, #36]	; 0x24
 8001f88:	f443 2280 	orr.w	r2, r3, #262144	; 0x40000
 8001f8c:	687b      	ldr	r3, [r7, #4]
 8001f8e:	625a      	str	r2, [r3, #36]	; 0x24

    return HAL_ERROR;
 8001f90:	2301      	movs	r3, #1
  }
}
 8001f92:	4618      	mov	r0, r3
 8001f94:	371c      	adds	r7, #28
 8001f96:	46bd      	mov	sp, r7
 8001f98:	bc80      	pop	{r7}
 8001f9a:	4770      	bx	lr

08001f9c <HAL_CAN_Start>:
  * @param  hcan pointer to an CAN_HandleTypeDef structure that contains
  *         the configuration information for the specified CAN.
  * @retval HAL status
  */
HAL_StatusTypeDef HAL_CAN_Start(CAN_HandleTypeDef *hcan)
{
 8001f9c:	b580      	push	{r7, lr}
 8001f9e:	b084      	sub	sp, #16
 8001fa0:	af00      	add	r7, sp, #0
 8001fa2:	6078      	str	r0, [r7, #4]
  uint32_t tickstart;

  if (hcan->State == HAL_CAN_STATE_READY)
 8001fa4:	687b      	ldr	r3, [r7, #4]
 8001fa6:	f893 3020 	ldrb.w	r3, [r3, #32]
 8001faa:	b2db      	uxtb	r3, r3
 8001fac:	2b01      	cmp	r3, #1
 8001fae:	d12e      	bne.n	800200e <HAL_CAN_Start+0x72>
  {
    /* Change CAN peripheral state */
    hcan->State = HAL_CAN_STATE_LISTENING;
 8001fb0:	687b      	ldr	r3, [r7, #4]
 8001fb2:	2202      	movs	r2, #2
 8001fb4:	f883 2020 	strb.w	r2, [r3, #32]

    /* Request leave initialisation */
    CLEAR_BIT(hcan->Instance->MCR, CAN_MCR_INRQ);
 8001fb8:	687b      	ldr	r3, [r7, #4]
 8001fba:	681b      	ldr	r3, [r3, #0]
 8001fbc:	681a      	ldr	r2, [r3, #0]
 8001fbe:	687b      	ldr	r3, [r7, #4]
 8001fc0:	681b      	ldr	r3, [r3, #0]
 8001fc2:	f022 0201 	bic.w	r2, r2, #1
 8001fc6:	601a      	str	r2, [r3, #0]

    /* Get tick */
    tickstart = HAL_GetTick();
 8001fc8:	f7ff fa3c 	bl	8001444 <HAL_GetTick>
 8001fcc:	60f8      	str	r0, [r7, #12]

    /* Wait the acknowledge */
    while ((hcan->Instance->MSR & CAN_MSR_INAK) != 0U)
 8001fce:	e012      	b.n	8001ff6 <HAL_CAN_Start+0x5a>
    {
      /* Check for the Timeout */
      if ((HAL_GetTick() - tickstart) > CAN_TIMEOUT_VALUE)
 8001fd0:	f7ff fa38 	bl	8001444 <HAL_GetTick>
 8001fd4:	4602      	mov	r2, r0
 8001fd6:	68fb      	ldr	r3, [r7, #12]
 8001fd8:	1ad3      	subs	r3, r2, r3
 8001fda:	2b0a      	cmp	r3, #10
 8001fdc:	d90b      	bls.n	8001ff6 <HAL_CAN_Start+0x5a>
      {
        /* Update error code */
        hcan->ErrorCode |= HAL_CAN_ERROR_TIMEOUT;
 8001fde:	687b      	ldr	r3, [r7, #4]
 8001fe0:	6a5b      	ldr	r3, [r3, #36]	; 0x24
 8001fe2:	f443 3200 	orr.w	r2, r3, #131072	; 0x20000
 8001fe6:	687b      	ldr	r3, [r7, #4]
 8001fe8:	625a      	str	r2, [r3, #36]	; 0x24

        /* Change CAN state */
        hcan->State = HAL_CAN_STATE_ERROR;
 8001fea:	687b      	ldr	r3, [r7, #4]
 8001fec:	2205      	movs	r2, #5
 8001fee:	f883 2020 	strb.w	r2, [r3, #32]

        return HAL_ERROR;
 8001ff2:	2301      	movs	r3, #1
 8001ff4:	e012      	b.n	800201c <HAL_CAN_Start+0x80>
    while ((hcan->Instance->MSR & CAN_MSR_INAK) != 0U)
 8001ff6:	687b      	ldr	r3, [r7, #4]
 8001ff8:	681b      	ldr	r3, [r3, #0]
 8001ffa:	685b      	ldr	r3, [r3, #4]
 8001ffc:	f003 0301 	and.w	r3, r3, #1
 8002000:	2b00      	cmp	r3, #0
 8002002:	d1e5      	bne.n	8001fd0 <HAL_CAN_Start+0x34>
      }
    }

    /* Reset the CAN ErrorCode */
    hcan->ErrorCode = HAL_CAN_ERROR_NONE;
 8002004:	687b      	ldr	r3, [r7, #4]
 8002006:	2200      	movs	r2, #0
 8002008:	625a      	str	r2, [r3, #36]	; 0x24

    /* Return function status */
    return HAL_OK;
 800200a:	2300      	movs	r3, #0
 800200c:	e006      	b.n	800201c <HAL_CAN_Start+0x80>
  }
  else
  {
    /* Update error code */
    hcan->ErrorCode |= HAL_CAN_ERROR_NOT_READY;
 800200e:	687b      	ldr	r3, [r7, #4]
 8002010:	6a5b      	ldr	r3, [r3, #36]	; 0x24
 8002012:	f443 2200 	orr.w	r2, r3, #524288	; 0x80000
 8002016:	687b      	ldr	r3, [r7, #4]
 8002018:	625a      	str	r2, [r3, #36]	; 0x24

    return HAL_ERROR;
 800201a:	2301      	movs	r3, #1
  }
}
 800201c:	4618      	mov	r0, r3
 800201e:	3710      	adds	r7, #16
 8002020:	46bd      	mov	sp, r7
 8002022:	bd80      	pop	{r7, pc}

08002024 <HAL_CAN_AddTxMessage>:
  *         the TxMailbox used to store the Tx message.
  *         This parameter can be a value of @arg CAN_Tx_Mailboxes.
  * @retval HAL status
  */
HAL_StatusTypeDef HAL_CAN_AddTxMessage(CAN_HandleTypeDef *hcan, CAN_TxHeaderTypeDef *pHeader, uint8_t aData[], uint32_t *pTxMailbox)
{
 8002024:	b480      	push	{r7}
 8002026:	b089      	sub	sp, #36	; 0x24
 8002028:	af00      	add	r7, sp, #0
 800202a:	60f8      	str	r0, [r7, #12]
 800202c:	60b9      	str	r1, [r7, #8]
 800202e:	607a      	str	r2, [r7, #4]
 8002030:	603b      	str	r3, [r7, #0]
  uint32_t transmitmailbox;
  HAL_CAN_StateTypeDef state = hcan->State;
 8002032:	68fb      	ldr	r3, [r7, #12]
 8002034:	f893 3020 	ldrb.w	r3, [r3, #32]
 8002038:	77fb      	strb	r3, [r7, #31]
  uint32_t tsr = READ_REG(hcan->Instance->TSR);
 800203a:	68fb      	ldr	r3, [r7, #12]
 800203c:	681b      	ldr	r3, [r3, #0]
 800203e:	689b      	ldr	r3, [r3, #8]
 8002040:	61bb      	str	r3, [r7, #24]
  {
    assert_param(IS_CAN_EXTID(pHeader->ExtId));
  }
  assert_param(IS_FUNCTIONAL_STATE(pHeader->TransmitGlobalTime));

  if ((state == HAL_CAN_STATE_READY) ||
 8002042:	7ffb      	ldrb	r3, [r7, #31]
 8002044:	2b01      	cmp	r3, #1
 8002046:	d003      	beq.n	8002050 <HAL_CAN_AddTxMessage+0x2c>
 8002048:	7ffb      	ldrb	r3, [r7, #31]
 800204a:	2b02      	cmp	r3, #2
 800204c:	f040 80b8 	bne.w	80021c0 <HAL_CAN_AddTxMessage+0x19c>
      (state == HAL_CAN_STATE_LISTENING))
  {
    /* Check that all the Tx mailboxes are not full */
    if (((tsr & CAN_TSR_TME0) != 0U) ||
 8002050:	69bb      	ldr	r3, [r7, #24]
 8002052:	f003 6380 	and.w	r3, r3, #67108864	; 0x4000000
 8002056:	2b00      	cmp	r3, #0
 8002058:	d10a      	bne.n	8002070 <HAL_CAN_AddTxMessage+0x4c>
        ((tsr & CAN_TSR_TME1) != 0U) ||
 800205a:	69bb      	ldr	r3, [r7, #24]
 800205c:	f003 6300 	and.w	r3, r3, #134217728	; 0x8000000
    if (((tsr & CAN_TSR_TME0) != 0U) ||
 8002060:	2b00      	cmp	r3, #0
 8002062:	d105      	bne.n	8002070 <HAL_CAN_AddTxMessage+0x4c>
        ((tsr & CAN_TSR_TME2) != 0U))
 8002064:	69bb      	ldr	r3, [r7, #24]
 8002066:	f003 5380 	and.w	r3, r3, #268435456	; 0x10000000
        ((tsr & CAN_TSR_TME1) != 0U) ||
 800206a:	2b00      	cmp	r3, #0
 800206c:	f000 80a0 	beq.w	80021b0 <HAL_CAN_AddTxMessage+0x18c>
    {
      /* Select an empty transmit mailbox */
      transmitmailbox = (tsr & CAN_TSR_CODE) >> CAN_TSR_CODE_Pos;
 8002070:	69bb      	ldr	r3, [r7, #24]
 8002072:	0e1b      	lsrs	r3, r3, #24
 8002074:	f003 0303 	and.w	r3, r3, #3
 8002078:	617b      	str	r3, [r7, #20]

      /* Check transmit mailbox value */
      if (transmitmailbox > 2U)
 800207a:	697b      	ldr	r3, [r7, #20]
 800207c:	2b02      	cmp	r3, #2
 800207e:	d907      	bls.n	8002090 <HAL_CAN_AddTxMessage+0x6c>
      {
        /* Update error code */
        hcan->ErrorCode |= HAL_CAN_ERROR_INTERNAL;
 8002080:	68fb      	ldr	r3, [r7, #12]
 8002082:	6a5b      	ldr	r3, [r3, #36]	; 0x24
 8002084:	f443 0200 	orr.w	r2, r3, #8388608	; 0x800000
 8002088:	68fb      	ldr	r3, [r7, #12]
 800208a:	625a      	str	r2, [r3, #36]	; 0x24

        return HAL_ERROR;
 800208c:	2301      	movs	r3, #1
 800208e:	e09e      	b.n	80021ce <HAL_CAN_AddTxMessage+0x1aa>
      }

      /* Store the Tx mailbox */
      *pTxMailbox = (uint32_t)1 << transmitmailbox;
 8002090:	2201      	movs	r2, #1
 8002092:	697b      	ldr	r3, [r7, #20]
 8002094:	409a      	lsls	r2, r3
 8002096:	683b      	ldr	r3, [r7, #0]
 8002098:	601a      	str	r2, [r3, #0]

      /* Set up the Id */
      if (pHeader->IDE == CAN_ID_STD)
 800209a:	68bb      	ldr	r3, [r7, #8]
 800209c:	689b      	ldr	r3, [r3, #8]
 800209e:	2b00      	cmp	r3, #0
 80020a0:	d10d      	bne.n	80020be <HAL_CAN_AddTxMessage+0x9a>
      {
        hcan->Instance->sTxMailBox[transmitmailbox].TIR = ((pHeader->StdId << CAN_TI0R_STID_Pos) |
 80020a2:	68bb      	ldr	r3, [r7, #8]
 80020a4:	681b      	ldr	r3, [r3, #0]
 80020a6:	055a      	lsls	r2, r3, #21
                                                           pHeader->RTR);
 80020a8:	68bb      	ldr	r3, [r7, #8]
 80020aa:	68db      	ldr	r3, [r3, #12]
        hcan->Instance->sTxMailBox[transmitmailbox].TIR = ((pHeader->StdId << CAN_TI0R_STID_Pos) |
 80020ac:	68f9      	ldr	r1, [r7, #12]
 80020ae:	6809      	ldr	r1, [r1, #0]
 80020b0:	431a      	orrs	r2, r3
 80020b2:	697b      	ldr	r3, [r7, #20]
 80020b4:	3318      	adds	r3, #24
 80020b6:	011b      	lsls	r3, r3, #4
 80020b8:	440b      	add	r3, r1
 80020ba:	601a      	str	r2, [r3, #0]
 80020bc:	e00f      	b.n	80020de <HAL_CAN_AddTxMessage+0xba>
      }
      else
      {
        hcan->Instance->sTxMailBox[transmitmailbox].TIR = ((pHeader->ExtId << CAN_TI0R_EXID_Pos) |
 80020be:	68bb      	ldr	r3, [r7, #8]
 80020c0:	685b      	ldr	r3, [r3, #4]
 80020c2:	00da      	lsls	r2, r3, #3
                                                           pHeader->IDE |
 80020c4:	68bb      	ldr	r3, [r7, #8]
 80020c6:	689b      	ldr	r3, [r3, #8]
        hcan->Instance->sTxMailBox[transmitmailbox].TIR = ((pHeader->ExtId << CAN_TI0R_EXID_Pos) |
 80020c8:	431a      	orrs	r2, r3
                                                           pHeader->RTR);
 80020ca:	68bb      	ldr	r3, [r7, #8]
 80020cc:	68db      	ldr	r3, [r3, #12]
        hcan->Instance->sTxMailBox[transmitmailbox].TIR = ((pHeader->ExtId << CAN_TI0R_EXID_Pos) |
 80020ce:	68f9      	ldr	r1, [r7, #12]
 80020d0:	6809      	ldr	r1, [r1, #0]
                                                           pHeader->IDE |
 80020d2:	431a      	orrs	r2, r3
        hcan->Instance->sTxMailBox[transmitmailbox].TIR = ((pHeader->ExtId << CAN_TI0R_EXID_Pos) |
 80020d4:	697b      	ldr	r3, [r7, #20]
 80020d6:	3318      	adds	r3, #24
 80020d8:	011b      	lsls	r3, r3, #4
 80020da:	440b      	add	r3, r1
 80020dc:	601a      	str	r2, [r3, #0]
      }

      /* Set up the DLC */
      hcan->Instance->sTxMailBox[transmitmailbox].TDTR = (pHeader->DLC);
 80020de:	68fb      	ldr	r3, [r7, #12]
 80020e0:	6819      	ldr	r1, [r3, #0]
 80020e2:	68bb      	ldr	r3, [r7, #8]
 80020e4:	691a      	ldr	r2, [r3, #16]
 80020e6:	697b      	ldr	r3, [r7, #20]
 80020e8:	3318      	adds	r3, #24
 80020ea:	011b      	lsls	r3, r3, #4
 80020ec:	440b      	add	r3, r1
 80020ee:	3304      	adds	r3, #4
 80020f0:	601a      	str	r2, [r3, #0]

      /* Set up the Transmit Global Time mode */
      if (pHeader->TransmitGlobalTime == ENABLE)
 80020f2:	68bb      	ldr	r3, [r7, #8]
 80020f4:	7d1b      	ldrb	r3, [r3, #20]
 80020f6:	2b01      	cmp	r3, #1
 80020f8:	d111      	bne.n	800211e <HAL_CAN_AddTxMessage+0xfa>
      {
        SET_BIT(hcan->Instance->sTxMailBox[transmitmailbox].TDTR, CAN_TDT0R_TGT);
 80020fa:	68fb      	ldr	r3, [r7, #12]
 80020fc:	681a      	ldr	r2, [r3, #0]
 80020fe:	697b      	ldr	r3, [r7, #20]
 8002100:	3318      	adds	r3, #24
 8002102:	011b      	lsls	r3, r3, #4
 8002104:	4413      	add	r3, r2
 8002106:	3304      	adds	r3, #4
 8002108:	681b      	ldr	r3, [r3, #0]
 800210a:	68fa      	ldr	r2, [r7, #12]
 800210c:	6811      	ldr	r1, [r2, #0]
 800210e:	f443 7280 	orr.w	r2, r3, #256	; 0x100
 8002112:	697b      	ldr	r3, [r7, #20]
 8002114:	3318      	adds	r3, #24
 8002116:	011b      	lsls	r3, r3, #4
 8002118:	440b      	add	r3, r1
 800211a:	3304      	adds	r3, #4
 800211c:	601a      	str	r2, [r3, #0]
      }

      /* Set up the data field */
      WRITE_REG(hcan->Instance->sTxMailBox[transmitmailbox].TDHR,
 800211e:	687b      	ldr	r3, [r7, #4]
 8002120:	3307      	adds	r3, #7
 8002122:	781b      	ldrb	r3, [r3, #0]
 8002124:	061a      	lsls	r2, r3, #24
 8002126:	687b      	ldr	r3, [r7, #4]
 8002128:	3306      	adds	r3, #6
 800212a:	781b      	ldrb	r3, [r3, #0]
 800212c:	041b      	lsls	r3, r3, #16
 800212e:	431a      	orrs	r2, r3
 8002130:	687b      	ldr	r3, [r7, #4]
 8002132:	3305      	adds	r3, #5
 8002134:	781b      	ldrb	r3, [r3, #0]
 8002136:	021b      	lsls	r3, r3, #8
 8002138:	4313      	orrs	r3, r2
 800213a:	687a      	ldr	r2, [r7, #4]
 800213c:	3204      	adds	r2, #4
 800213e:	7812      	ldrb	r2, [r2, #0]
 8002140:	4610      	mov	r0, r2
 8002142:	68fa      	ldr	r2, [r7, #12]
 8002144:	6811      	ldr	r1, [r2, #0]
 8002146:	ea43 0200 	orr.w	r2, r3, r0
 800214a:	697b      	ldr	r3, [r7, #20]
 800214c:	011b      	lsls	r3, r3, #4
 800214e:	440b      	add	r3, r1
 8002150:	f503 73c6 	add.w	r3, r3, #396	; 0x18c
 8002154:	601a      	str	r2, [r3, #0]
                ((uint32_t)aData[7] << CAN_TDH0R_DATA7_Pos) |
                ((uint32_t)aData[6] << CAN_TDH0R_DATA6_Pos) |
                ((uint32_t)aData[5] << CAN_TDH0R_DATA5_Pos) |
                ((uint32_t)aData[4] << CAN_TDH0R_DATA4_Pos));
      WRITE_REG(hcan->Instance->sTxMailBox[transmitmailbox].TDLR,
 8002156:	687b      	ldr	r3, [r7, #4]
 8002158:	3303      	adds	r3, #3
 800215a:	781b      	ldrb	r3, [r3, #0]
 800215c:	061a      	lsls	r2, r3, #24
 800215e:	687b      	ldr	r3, [r7, #4]
 8002160:	3302      	adds	r3, #2
 8002162:	781b      	ldrb	r3, [r3, #0]
 8002164:	041b      	lsls	r3, r3, #16
 8002166:	431a      	orrs	r2, r3
 8002168:	687b      	ldr	r3, [r7, #4]
 800216a:	3301      	adds	r3, #1
 800216c:	781b      	ldrb	r3, [r3, #0]
 800216e:	021b      	lsls	r3, r3, #8
 8002170:	4313      	orrs	r3, r2
 8002172:	687a      	ldr	r2, [r7, #4]
 8002174:	7812      	ldrb	r2, [r2, #0]
 8002176:	4610      	mov	r0, r2
 8002178:	68fa      	ldr	r2, [r7, #12]
 800217a:	6811      	ldr	r1, [r2, #0]
 800217c:	ea43 0200 	orr.w	r2, r3, r0
 8002180:	697b      	ldr	r3, [r7, #20]
 8002182:	011b      	lsls	r3, r3, #4
 8002184:	440b      	add	r3, r1
 8002186:	f503 73c4 	add.w	r3, r3, #392	; 0x188
 800218a:	601a      	str	r2, [r3, #0]
                ((uint32_t)aData[2] << CAN_TDL0R_DATA2_Pos) |
                ((uint32_t)aData[1] << CAN_TDL0R_DATA1_Pos) |
                ((uint32_t)aData[0] << CAN_TDL0R_DATA0_Pos));

      /* Request transmission */
      SET_BIT(hcan->Instance->sTxMailBox[transmitmailbox].TIR, CAN_TI0R_TXRQ);
 800218c:	68fb      	ldr	r3, [r7, #12]
 800218e:	681a      	ldr	r2, [r3, #0]
 8002190:	697b      	ldr	r3, [r7, #20]
 8002192:	3318      	adds	r3, #24
 8002194:	011b      	lsls	r3, r3, #4
 8002196:	4413      	add	r3, r2
 8002198:	681b      	ldr	r3, [r3, #0]
 800219a:	68fa      	ldr	r2, [r7, #12]
 800219c:	6811      	ldr	r1, [r2, #0]
 800219e:	f043 0201 	orr.w	r2, r3, #1
 80021a2:	697b      	ldr	r3, [r7, #20]
 80021a4:	3318      	adds	r3, #24
 80021a6:	011b      	lsls	r3, r3, #4
 80021a8:	440b      	add	r3, r1
 80021aa:	601a      	str	r2, [r3, #0]

      /* Return function status */
      return HAL_OK;
 80021ac:	2300      	movs	r3, #0
 80021ae:	e00e      	b.n	80021ce <HAL_CAN_AddTxMessage+0x1aa>
    }
    else
    {
      /* Update error code */
      hcan->ErrorCode |= HAL_CAN_ERROR_PARAM;
 80021b0:	68fb      	ldr	r3, [r7, #12]
 80021b2:	6a5b      	ldr	r3, [r3, #36]	; 0x24
 80021b4:	f443 1200 	orr.w	r2, r3, #2097152	; 0x200000
 80021b8:	68fb      	ldr	r3, [r7, #12]
 80021ba:	625a      	str	r2, [r3, #36]	; 0x24

      return HAL_ERROR;
 80021bc:	2301      	movs	r3, #1
 80021be:	e006      	b.n	80021ce <HAL_CAN_AddTxMessage+0x1aa>
    }
  }
  else
  {
    /* Update error code */
    hcan->ErrorCode |= HAL_CAN_ERROR_NOT_INITIALIZED;
 80021c0:	68fb      	ldr	r3, [r7, #12]
 80021c2:	6a5b      	ldr	r3, [r3, #36]	; 0x24
 80021c4:	f443 2280 	orr.w	r2, r3, #262144	; 0x40000
 80021c8:	68fb      	ldr	r3, [r7, #12]
 80021ca:	625a      	str	r2, [r3, #36]	; 0x24

    return HAL_ERROR;
 80021cc:	2301      	movs	r3, #1
  }
}
 80021ce:	4618      	mov	r0, r3
 80021d0:	3724      	adds	r7, #36	; 0x24
 80021d2:	46bd      	mov	sp, r7
 80021d4:	bc80      	pop	{r7}
 80021d6:	4770      	bx	lr

080021d8 <HAL_CAN_GetRxMessage>:
  *         of the Rx frame will be stored.
  * @param  aData array where the payload of the Rx frame will be stored.
  * @retval HAL status
  */
HAL_StatusTypeDef HAL_CAN_GetRxMessage(CAN_HandleTypeDef *hcan, uint32_t RxFifo, CAN_RxHeaderTypeDef *pHeader, uint8_t aData[])
{
 80021d8:	b480      	push	{r7}
 80021da:	b087      	sub	sp, #28
 80021dc:	af00      	add	r7, sp, #0
 80021de:	60f8      	str	r0, [r7, #12]
 80021e0:	60b9      	str	r1, [r7, #8]
 80021e2:	607a      	str	r2, [r7, #4]
 80021e4:	603b      	str	r3, [r7, #0]
  HAL_CAN_StateTypeDef state = hcan->State;
 80021e6:	68fb      	ldr	r3, [r7, #12]
 80021e8:	f893 3020 	ldrb.w	r3, [r3, #32]
 80021ec:	75fb      	strb	r3, [r7, #23]

  assert_param(IS_CAN_RX_FIFO(RxFifo));

  if ((state == HAL_CAN_STATE_READY) ||
 80021ee:	7dfb      	ldrb	r3, [r7, #23]
 80021f0:	2b01      	cmp	r3, #1
 80021f2:	d003      	beq.n	80021fc <HAL_CAN_GetRxMessage+0x24>
 80021f4:	7dfb      	ldrb	r3, [r7, #23]
 80021f6:	2b02      	cmp	r3, #2
 80021f8:	f040 80f3 	bne.w	80023e2 <HAL_CAN_GetRxMessage+0x20a>
      (state == HAL_CAN_STATE_LISTENING))
  {
    /* Check the Rx FIFO */
    if (RxFifo == CAN_RX_FIFO0) /* Rx element is assigned to Rx FIFO 0 */
 80021fc:	68bb      	ldr	r3, [r7, #8]
 80021fe:	2b00      	cmp	r3, #0
 8002200:	d10e      	bne.n	8002220 <HAL_CAN_GetRxMessage+0x48>
    {
      /* Check that the Rx FIFO 0 is not empty */
      if ((hcan->Instance->RF0R & CAN_RF0R_FMP0) == 0U)
 8002202:	68fb      	ldr	r3, [r7, #12]
 8002204:	681b      	ldr	r3, [r3, #0]
 8002206:	68db      	ldr	r3, [r3, #12]
 8002208:	f003 0303 	and.w	r3, r3, #3
 800220c:	2b00      	cmp	r3, #0
 800220e:	d116      	bne.n	800223e <HAL_CAN_GetRxMessage+0x66>
      {
        /* Update error code */
        hcan->ErrorCode |= HAL_CAN_ERROR_PARAM;
 8002210:	68fb      	ldr	r3, [r7, #12]
 8002212:	6a5b      	ldr	r3, [r3, #36]	; 0x24
 8002214:	f443 1200 	orr.w	r2, r3, #2097152	; 0x200000
 8002218:	68fb      	ldr	r3, [r7, #12]
 800221a:	625a      	str	r2, [r3, #36]	; 0x24

        return HAL_ERROR;
 800221c:	2301      	movs	r3, #1
 800221e:	e0e7      	b.n	80023f0 <HAL_CAN_GetRxMessage+0x218>
      }
    }
    else /* Rx element is assigned to Rx FIFO 1 */
    {
      /* Check that the Rx FIFO 1 is not empty */
      if ((hcan->Instance->RF1R & CAN_RF1R_FMP1) == 0U)
 8002220:	68fb      	ldr	r3, [r7, #12]
 8002222:	681b      	ldr	r3, [r3, #0]
 8002224:	691b      	ldr	r3, [r3, #16]
 8002226:	f003 0303 	and.w	r3, r3, #3
 800222a:	2b00      	cmp	r3, #0
 800222c:	d107      	bne.n	800223e <HAL_CAN_GetRxMessage+0x66>
      {
        /* Update error code */
        hcan->ErrorCode |= HAL_CAN_ERROR_PARAM;
 800222e:	68fb      	ldr	r3, [r7, #12]
 8002230:	6a5b      	ldr	r3, [r3, #36]	; 0x24
 8002232:	f443 1200 	orr.w	r2, r3, #2097152	; 0x200000
 8002236:	68fb      	ldr	r3, [r7, #12]
 8002238:	625a      	str	r2, [r3, #36]	; 0x24

        return HAL_ERROR;
 800223a:	2301      	movs	r3, #1
 800223c:	e0d8      	b.n	80023f0 <HAL_CAN_GetRxMessage+0x218>
      }
    }

    /* Get the header */
    pHeader->IDE = CAN_RI0R_IDE & hcan->Instance->sFIFOMailBox[RxFifo].RIR;
 800223e:	68fb      	ldr	r3, [r7, #12]
 8002240:	681a      	ldr	r2, [r3, #0]
 8002242:	68bb      	ldr	r3, [r7, #8]
 8002244:	331b      	adds	r3, #27
 8002246:	011b      	lsls	r3, r3, #4
 8002248:	4413      	add	r3, r2
 800224a:	681b      	ldr	r3, [r3, #0]
 800224c:	f003 0204 	and.w	r2, r3, #4
 8002250:	687b      	ldr	r3, [r7, #4]
 8002252:	609a      	str	r2, [r3, #8]
    if (pHeader->IDE == CAN_ID_STD)
 8002254:	687b      	ldr	r3, [r7, #4]
 8002256:	689b      	ldr	r3, [r3, #8]
 8002258:	2b00      	cmp	r3, #0
 800225a:	d10c      	bne.n	8002276 <HAL_CAN_GetRxMessage+0x9e>
    {
      pHeader->StdId = (CAN_RI0R_STID & hcan->Instance->sFIFOMailBox[RxFifo].RIR) >> CAN_TI0R_STID_Pos;
 800225c:	68fb      	ldr	r3, [r7, #12]
 800225e:	681a      	ldr	r2, [r3, #0]
 8002260:	68bb      	ldr	r3, [r7, #8]
 8002262:	331b      	adds	r3, #27
 8002264:	011b      	lsls	r3, r3, #4
 8002266:	4413      	add	r3, r2
 8002268:	681b      	ldr	r3, [r3, #0]
 800226a:	0d5b      	lsrs	r3, r3, #21
 800226c:	f3c3 020a 	ubfx	r2, r3, #0, #11
 8002270:	687b      	ldr	r3, [r7, #4]
 8002272:	601a      	str	r2, [r3, #0]
 8002274:	e00b      	b.n	800228e <HAL_CAN_GetRxMessage+0xb6>
    }
    else
    {
      pHeader->ExtId = ((CAN_RI0R_EXID | CAN_RI0R_STID) & hcan->Instance->sFIFOMailBox[RxFifo].RIR) >> CAN_RI0R_EXID_Pos;
 8002276:	68fb      	ldr	r3, [r7, #12]
 8002278:	681a      	ldr	r2, [r3, #0]
 800227a:	68bb      	ldr	r3, [r7, #8]
 800227c:	331b      	adds	r3, #27
 800227e:	011b      	lsls	r3, r3, #4
 8002280:	4413      	add	r3, r2
 8002282:	681b      	ldr	r3, [r3, #0]
 8002284:	08db      	lsrs	r3, r3, #3
 8002286:	f023 4260 	bic.w	r2, r3, #3758096384	; 0xe0000000
 800228a:	687b      	ldr	r3, [r7, #4]
 800228c:	605a      	str	r2, [r3, #4]
    }
    pHeader->RTR = (CAN_RI0R_RTR & hcan->Instance->sFIFOMailBox[RxFifo].RIR);
 800228e:	68fb      	ldr	r3, [r7, #12]
 8002290:	681a      	ldr	r2, [r3, #0]
 8002292:	68bb      	ldr	r3, [r7, #8]
 8002294:	331b      	adds	r3, #27
 8002296:	011b      	lsls	r3, r3, #4
 8002298:	4413      	add	r3, r2
 800229a:	681b      	ldr	r3, [r3, #0]
 800229c:	f003 0202 	and.w	r2, r3, #2
 80022a0:	687b      	ldr	r3, [r7, #4]
 80022a2:	60da      	str	r2, [r3, #12]
    pHeader->DLC = (CAN_RDT0R_DLC & hcan->Instance->sFIFOMailBox[RxFifo].RDTR) >> CAN_RDT0R_DLC_Pos;
 80022a4:	68fb      	ldr	r3, [r7, #12]
 80022a6:	681a      	ldr	r2, [r3, #0]
 80022a8:	68bb      	ldr	r3, [r7, #8]
 80022aa:	331b      	adds	r3, #27
 80022ac:	011b      	lsls	r3, r3, #4
 80022ae:	4413      	add	r3, r2
 80022b0:	3304      	adds	r3, #4
 80022b2:	681b      	ldr	r3, [r3, #0]
 80022b4:	f003 020f 	and.w	r2, r3, #15
 80022b8:	687b      	ldr	r3, [r7, #4]
 80022ba:	611a      	str	r2, [r3, #16]
    pHeader->FilterMatchIndex = (CAN_RDT0R_FMI & hcan->Instance->sFIFOMailBox[RxFifo].RDTR) >> CAN_RDT0R_FMI_Pos;
 80022bc:	68fb      	ldr	r3, [r7, #12]
 80022be:	681a      	ldr	r2, [r3, #0]
 80022c0:	68bb      	ldr	r3, [r7, #8]
 80022c2:	331b      	adds	r3, #27
 80022c4:	011b      	lsls	r3, r3, #4
 80022c6:	4413      	add	r3, r2
 80022c8:	3304      	adds	r3, #4
 80022ca:	681b      	ldr	r3, [r3, #0]
 80022cc:	0a1b      	lsrs	r3, r3, #8
 80022ce:	b2da      	uxtb	r2, r3
 80022d0:	687b      	ldr	r3, [r7, #4]
 80022d2:	619a      	str	r2, [r3, #24]
    pHeader->Timestamp = (CAN_RDT0R_TIME & hcan->Instance->sFIFOMailBox[RxFifo].RDTR) >> CAN_RDT0R_TIME_Pos;
 80022d4:	68fb      	ldr	r3, [r7, #12]
 80022d6:	681a      	ldr	r2, [r3, #0]
 80022d8:	68bb      	ldr	r3, [r7, #8]
 80022da:	331b      	adds	r3, #27
 80022dc:	011b      	lsls	r3, r3, #4
 80022de:	4413      	add	r3, r2
 80022e0:	3304      	adds	r3, #4
 80022e2:	681b      	ldr	r3, [r3, #0]
 80022e4:	0c1b      	lsrs	r3, r3, #16
 80022e6:	b29a      	uxth	r2, r3
 80022e8:	687b      	ldr	r3, [r7, #4]
 80022ea:	615a      	str	r2, [r3, #20]

    /* Get the data */
    aData[0] = (uint8_t)((CAN_RDL0R_DATA0 & hcan->Instance->sFIFOMailBox[RxFifo].RDLR) >> CAN_RDL0R_DATA0_Pos);
 80022ec:	68fb      	ldr	r3, [r7, #12]
 80022ee:	681a      	ldr	r2, [r3, #0]
 80022f0:	68bb      	ldr	r3, [r7, #8]
 80022f2:	011b      	lsls	r3, r3, #4
 80022f4:	4413      	add	r3, r2
 80022f6:	f503 73dc 	add.w	r3, r3, #440	; 0x1b8
 80022fa:	681b      	ldr	r3, [r3, #0]
 80022fc:	b2da      	uxtb	r2, r3
 80022fe:	683b      	ldr	r3, [r7, #0]
 8002300:	701a      	strb	r2, [r3, #0]
    aData[1] = (uint8_t)((CAN_RDL0R_DATA1 & hcan->Instance->sFIFOMailBox[RxFifo].RDLR) >> CAN_RDL0R_DATA1_Pos);
 8002302:	68fb      	ldr	r3, [r7, #12]
 8002304:	681a      	ldr	r2, [r3, #0]
 8002306:	68bb      	ldr	r3, [r7, #8]
 8002308:	011b      	lsls	r3, r3, #4
 800230a:	4413      	add	r3, r2
 800230c:	f503 73dc 	add.w	r3, r3, #440	; 0x1b8
 8002310:	681b      	ldr	r3, [r3, #0]
 8002312:	0a1a      	lsrs	r2, r3, #8
 8002314:	683b      	ldr	r3, [r7, #0]
 8002316:	3301      	adds	r3, #1
 8002318:	b2d2      	uxtb	r2, r2
 800231a:	701a      	strb	r2, [r3, #0]
    aData[2] = (uint8_t)((CAN_RDL0R_DATA2 & hcan->Instance->sFIFOMailBox[RxFifo].RDLR) >> CAN_RDL0R_DATA2_Pos);
 800231c:	68fb      	ldr	r3, [r7, #12]
 800231e:	681a      	ldr	r2, [r3, #0]
 8002320:	68bb      	ldr	r3, [r7, #8]
 8002322:	011b      	lsls	r3, r3, #4
 8002324:	4413      	add	r3, r2
 8002326:	f503 73dc 	add.w	r3, r3, #440	; 0x1b8
 800232a:	681b      	ldr	r3, [r3, #0]
 800232c:	0c1a      	lsrs	r2, r3, #16
 800232e:	683b      	ldr	r3, [r7, #0]
 8002330:	3302      	adds	r3, #2
 8002332:	b2d2      	uxtb	r2, r2
 8002334:	701a      	strb	r2, [r3, #0]
    aData[3] = (uint8_t)((CAN_RDL0R_DATA3 & hcan->Instance->sFIFOMailBox[RxFifo].RDLR) >> CAN_RDL0R_DATA3_Pos);
 8002336:	68fb      	ldr	r3, [r7, #12]
 8002338:	681a      	ldr	r2, [r3, #0]
 800233a:	68bb      	ldr	r3, [r7, #8]
 800233c:	011b      	lsls	r3, r3, #4
 800233e:	4413      	add	r3, r2
 8002340:	f503 73dc 	add.w	r3, r3, #440	; 0x1b8
 8002344:	681b      	ldr	r3, [r3, #0]
 8002346:	0e1a      	lsrs	r2, r3, #24
 8002348:	683b      	ldr	r3, [r7, #0]
 800234a:	3303      	adds	r3, #3
 800234c:	b2d2      	uxtb	r2, r2
 800234e:	701a      	strb	r2, [r3, #0]
    aData[4] = (uint8_t)((CAN_RDH0R_DATA4 & hcan->Instance->sFIFOMailBox[RxFifo].RDHR) >> CAN_RDH0R_DATA4_Pos);
 8002350:	68fb      	ldr	r3, [r7, #12]
 8002352:	681a      	ldr	r2, [r3, #0]
 8002354:	68bb      	ldr	r3, [r7, #8]
 8002356:	011b      	lsls	r3, r3, #4
 8002358:	4413      	add	r3, r2
 800235a:	f503 73de 	add.w	r3, r3, #444	; 0x1bc
 800235e:	681a      	ldr	r2, [r3, #0]
 8002360:	683b      	ldr	r3, [r7, #0]
 8002362:	3304      	adds	r3, #4
 8002364:	b2d2      	uxtb	r2, r2
 8002366:	701a      	strb	r2, [r3, #0]
    aData[5] = (uint8_t)((CAN_RDH0R_DATA5 & hcan->Instance->sFIFOMailBox[RxFifo].RDHR) >> CAN_RDH0R_DATA5_Pos);
 8002368:	68fb      	ldr	r3, [r7, #12]
 800236a:	681a      	ldr	r2, [r3, #0]
 800236c:	68bb      	ldr	r3, [r7, #8]
 800236e:	011b      	lsls	r3, r3, #4
 8002370:	4413      	add	r3, r2
 8002372:	f503 73de 	add.w	r3, r3, #444	; 0x1bc
 8002376:	681b      	ldr	r3, [r3, #0]
 8002378:	0a1a      	lsrs	r2, r3, #8
 800237a:	683b      	ldr	r3, [r7, #0]
 800237c:	3305      	adds	r3, #5
 800237e:	b2d2      	uxtb	r2, r2
 8002380:	701a      	strb	r2, [r3, #0]
    aData[6] = (uint8_t)((CAN_RDH0R_DATA6 & hcan->Instance->sFIFOMailBox[RxFifo].RDHR) >> CAN_RDH0R_DATA6_Pos);
 8002382:	68fb      	ldr	r3, [r7, #12]
 8002384:	681a      	ldr	r2, [r3, #0]
 8002386:	68bb      	ldr	r3, [r7, #8]
 8002388:	011b      	lsls	r3, r3, #4
 800238a:	4413      	add	r3, r2
 800238c:	f503 73de 	add.w	r3, r3, #444	; 0x1bc
 8002390:	681b      	ldr	r3, [r3, #0]
 8002392:	0c1a      	lsrs	r2, r3, #16
 8002394:	683b      	ldr	r3, [r7, #0]
 8002396:	3306      	adds	r3, #6
 8002398:	b2d2      	uxtb	r2, r2
 800239a:	701a      	strb	r2, [r3, #0]
    aData[7] = (uint8_t)((CAN_RDH0R_DATA7 & hcan->Instance->sFIFOMailBox[RxFifo].RDHR) >> CAN_RDH0R_DATA7_Pos);
 800239c:	68fb      	ldr	r3, [r7, #12]
 800239e:	681a      	ldr	r2, [r3, #0]
 80023a0:	68bb      	ldr	r3, [r7, #8]
 80023a2:	011b      	lsls	r3, r3, #4
 80023a4:	4413      	add	r3, r2
 80023a6:	f503 73de 	add.w	r3, r3, #444	; 0x1bc
 80023aa:	681b      	ldr	r3, [r3, #0]
 80023ac:	0e1a      	lsrs	r2, r3, #24
 80023ae:	683b      	ldr	r3, [r7, #0]
 80023b0:	3307      	adds	r3, #7
 80023b2:	b2d2      	uxtb	r2, r2
 80023b4:	701a      	strb	r2, [r3, #0]

    /* Release the FIFO */
    if (RxFifo == CAN_RX_FIFO0) /* Rx element is assigned to Rx FIFO 0 */
 80023b6:	68bb      	ldr	r3, [r7, #8]
 80023b8:	2b00      	cmp	r3, #0
 80023ba:	d108      	bne.n	80023ce <HAL_CAN_GetRxMessage+0x1f6>
    {
      /* Release RX FIFO 0 */
      SET_BIT(hcan->Instance->RF0R, CAN_RF0R_RFOM0);
 80023bc:	68fb      	ldr	r3, [r7, #12]
 80023be:	681b      	ldr	r3, [r3, #0]
 80023c0:	68da      	ldr	r2, [r3, #12]
 80023c2:	68fb      	ldr	r3, [r7, #12]
 80023c4:	681b      	ldr	r3, [r3, #0]
 80023c6:	f042 0220 	orr.w	r2, r2, #32
 80023ca:	60da      	str	r2, [r3, #12]
 80023cc:	e007      	b.n	80023de <HAL_CAN_GetRxMessage+0x206>
    }
    else /* Rx element is assigned to Rx FIFO 1 */
    {
      /* Release RX FIFO 1 */
      SET_BIT(hcan->Instance->RF1R, CAN_RF1R_RFOM1);
 80023ce:	68fb      	ldr	r3, [r7, #12]
 80023d0:	681b      	ldr	r3, [r3, #0]
 80023d2:	691a      	ldr	r2, [r3, #16]
 80023d4:	68fb      	ldr	r3, [r7, #12]
 80023d6:	681b      	ldr	r3, [r3, #0]
 80023d8:	f042 0220 	orr.w	r2, r2, #32
 80023dc:	611a      	str	r2, [r3, #16]
    }

    /* Return function status */
    return HAL_OK;
 80023de:	2300      	movs	r3, #0
 80023e0:	e006      	b.n	80023f0 <HAL_CAN_GetRxMessage+0x218>
  }
  else
  {
    /* Update error code */
    hcan->ErrorCode |= HAL_CAN_ERROR_NOT_INITIALIZED;
 80023e2:	68fb      	ldr	r3, [r7, #12]
 80023e4:	6a5b      	ldr	r3, [r3, #36]	; 0x24
 80023e6:	f443 2280 	orr.w	r2, r3, #262144	; 0x40000
 80023ea:	68fb      	ldr	r3, [r7, #12]
 80023ec:	625a      	str	r2, [r3, #36]	; 0x24

    return HAL_ERROR;
 80023ee:	2301      	movs	r3, #1
  }
}
 80023f0:	4618      	mov	r0, r3
 80023f2:	371c      	adds	r7, #28
 80023f4:	46bd      	mov	sp, r7
 80023f6:	bc80      	pop	{r7}
 80023f8:	4770      	bx	lr

080023fa <HAL_CAN_ActivateNotification>:
  * @param  ActiveITs indicates which interrupts will be enabled.
  *         This parameter can be any combination of @arg CAN_Interrupts.
  * @retval HAL status
  */
HAL_StatusTypeDef HAL_CAN_ActivateNotification(CAN_HandleTypeDef *hcan, uint32_t ActiveITs)
{
 80023fa:	b480      	push	{r7}
 80023fc:	b085      	sub	sp, #20
 80023fe:	af00      	add	r7, sp, #0
 8002400:	6078      	str	r0, [r7, #4]
 8002402:	6039      	str	r1, [r7, #0]
  HAL_CAN_StateTypeDef state = hcan->State;
 8002404:	687b      	ldr	r3, [r7, #4]
 8002406:	f893 3020 	ldrb.w	r3, [r3, #32]
 800240a:	73fb      	strb	r3, [r7, #15]

  /* Check function parameters */
  assert_param(IS_CAN_IT(ActiveITs));

  if ((state == HAL_CAN_STATE_READY) ||
 800240c:	7bfb      	ldrb	r3, [r7, #15]
 800240e:	2b01      	cmp	r3, #1
 8002410:	d002      	beq.n	8002418 <HAL_CAN_ActivateNotification+0x1e>
 8002412:	7bfb      	ldrb	r3, [r7, #15]
 8002414:	2b02      	cmp	r3, #2
 8002416:	d109      	bne.n	800242c <HAL_CAN_ActivateNotification+0x32>
      (state == HAL_CAN_STATE_LISTENING))
  {
    /* Enable the selected interrupts */
    __HAL_CAN_ENABLE_IT(hcan, ActiveITs);
 8002418:	687b      	ldr	r3, [r7, #4]
 800241a:	681b      	ldr	r3, [r3, #0]
 800241c:	6959      	ldr	r1, [r3, #20]
 800241e:	687b      	ldr	r3, [r7, #4]
 8002420:	681b      	ldr	r3, [r3, #0]
 8002422:	683a      	ldr	r2, [r7, #0]
 8002424:	430a      	orrs	r2, r1
 8002426:	615a      	str	r2, [r3, #20]

    /* Return function status */
    return HAL_OK;
 8002428:	2300      	movs	r3, #0
 800242a:	e006      	b.n	800243a <HAL_CAN_ActivateNotification+0x40>
  }
  else
  {
    /* Update error code */
    hcan->ErrorCode |= HAL_CAN_ERROR_NOT_INITIALIZED;
 800242c:	687b      	ldr	r3, [r7, #4]
 800242e:	6a5b      	ldr	r3, [r3, #36]	; 0x24
 8002430:	f443 2280 	orr.w	r2, r3, #262144	; 0x40000
 8002434:	687b      	ldr	r3, [r7, #4]
 8002436:	625a      	str	r2, [r3, #36]	; 0x24

    return HAL_ERROR;
 8002438:	2301      	movs	r3, #1
  }
}
 800243a:	4618      	mov	r0, r3
 800243c:	3714      	adds	r7, #20
 800243e:	46bd      	mov	sp, r7
 8002440:	bc80      	pop	{r7}
 8002442:	4770      	bx	lr

08002444 <HAL_CAN_IRQHandler>:
  * @param  hcan pointer to a CAN_HandleTypeDef structure that contains
  *         the configuration information for the specified CAN.
  * @retval None
  */
void HAL_CAN_IRQHandler(CAN_HandleTypeDef *hcan)
{
 8002444:	b580      	push	{r7, lr}
 8002446:	b08a      	sub	sp, #40	; 0x28
 8002448:	af00      	add	r7, sp, #0
 800244a:	6078      	str	r0, [r7, #4]
  uint32_t errorcode = HAL_CAN_ERROR_NONE;
 800244c:	2300      	movs	r3, #0
 800244e:	627b      	str	r3, [r7, #36]	; 0x24
  uint32_t interrupts = READ_REG(hcan->Instance->IER);
 8002450:	687b      	ldr	r3, [r7, #4]
 8002452:	681b      	ldr	r3, [r3, #0]
 8002454:	695b      	ldr	r3, [r3, #20]
 8002456:	623b      	str	r3, [r7, #32]
  uint32_t msrflags = READ_REG(hcan->Instance->MSR);
 8002458:	687b      	ldr	r3, [r7, #4]
 800245a:	681b      	ldr	r3, [r3, #0]
 800245c:	685b      	ldr	r3, [r3, #4]
 800245e:	61fb      	str	r3, [r7, #28]
  uint32_t tsrflags = READ_REG(hcan->Instance->TSR);
 8002460:	687b      	ldr	r3, [r7, #4]
 8002462:	681b      	ldr	r3, [r3, #0]
 8002464:	689b      	ldr	r3, [r3, #8]
 8002466:	61bb      	str	r3, [r7, #24]
  uint32_t rf0rflags = READ_REG(hcan->Instance->RF0R);
 8002468:	687b      	ldr	r3, [r7, #4]
 800246a:	681b      	ldr	r3, [r3, #0]
 800246c:	68db      	ldr	r3, [r3, #12]
 800246e:	617b      	str	r3, [r7, #20]
  uint32_t rf1rflags = READ_REG(hcan->Instance->RF1R);
 8002470:	687b      	ldr	r3, [r7, #4]
 8002472:	681b      	ldr	r3, [r3, #0]
 8002474:	691b      	ldr	r3, [r3, #16]
 8002476:	613b      	str	r3, [r7, #16]
  uint32_t esrflags = READ_REG(hcan->Instance->ESR);
 8002478:	687b      	ldr	r3, [r7, #4]
 800247a:	681b      	ldr	r3, [r3, #0]
 800247c:	699b      	ldr	r3, [r3, #24]
 800247e:	60fb      	str	r3, [r7, #12]

  /* Transmit Mailbox empty interrupt management *****************************/
  if ((interrupts & CAN_IT_TX_MAILBOX_EMPTY) != 0U)
 8002480:	6a3b      	ldr	r3, [r7, #32]
 8002482:	f003 0301 	and.w	r3, r3, #1
 8002486:	2b00      	cmp	r3, #0
 8002488:	d07c      	beq.n	8002584 <HAL_CAN_IRQHandler+0x140>
  {
    /* Transmit Mailbox 0 management *****************************************/
    if ((tsrflags & CAN_TSR_RQCP0) != 0U)
 800248a:	69bb      	ldr	r3, [r7, #24]
 800248c:	f003 0301 	and.w	r3, r3, #1
 8002490:	2b00      	cmp	r3, #0
 8002492:	d023      	beq.n	80024dc <HAL_CAN_IRQHandler+0x98>
    {
      /* Clear the Transmission Complete flag (and TXOK0,ALST0,TERR0 bits) */
      __HAL_CAN_CLEAR_FLAG(hcan, CAN_FLAG_RQCP0);
 8002494:	687b      	ldr	r3, [r7, #4]
 8002496:	681b      	ldr	r3, [r3, #0]
 8002498:	2201      	movs	r2, #1
 800249a:	609a      	str	r2, [r3, #8]

      if ((tsrflags & CAN_TSR_TXOK0) != 0U)
 800249c:	69bb      	ldr	r3, [r7, #24]
 800249e:	f003 0302 	and.w	r3, r3, #2
 80024a2:	2b00      	cmp	r3, #0
 80024a4:	d003      	beq.n	80024ae <HAL_CAN_IRQHandler+0x6a>
#if USE_HAL_CAN_REGISTER_CALLBACKS == 1
        /* Call registered callback*/
        hcan->TxMailbox0CompleteCallback(hcan);
#else
        /* Call weak (surcharged) callback */
        HAL_CAN_TxMailbox0CompleteCallback(hcan);
 80024a6:	6878      	ldr	r0, [r7, #4]
 80024a8:	f000 f97d 	bl	80027a6 <HAL_CAN_TxMailbox0CompleteCallback>
 80024ac:	e016      	b.n	80024dc <HAL_CAN_IRQHandler+0x98>
#endif /* USE_HAL_CAN_REGISTER_CALLBACKS */
      }
      else
      {
        if ((tsrflags & CAN_TSR_ALST0) != 0U)
 80024ae:	69bb      	ldr	r3, [r7, #24]
 80024b0:	f003 0304 	and.w	r3, r3, #4
 80024b4:	2b00      	cmp	r3, #0
 80024b6:	d004      	beq.n	80024c2 <HAL_CAN_IRQHandler+0x7e>
        {
          /* Update error code */
          errorcode |= HAL_CAN_ERROR_TX_ALST0;
 80024b8:	6a7b      	ldr	r3, [r7, #36]	; 0x24
 80024ba:	f443 6300 	orr.w	r3, r3, #2048	; 0x800
 80024be:	627b      	str	r3, [r7, #36]	; 0x24
 80024c0:	e00c      	b.n	80024dc <HAL_CAN_IRQHandler+0x98>
        }
        else if ((tsrflags & CAN_TSR_TERR0) != 0U)
 80024c2:	69bb      	ldr	r3, [r7, #24]
 80024c4:	f003 0308 	and.w	r3, r3, #8
 80024c8:	2b00      	cmp	r3, #0
 80024ca:	d004      	beq.n	80024d6 <HAL_CAN_IRQHandler+0x92>
        {
          /* Update error code */
          errorcode |= HAL_CAN_ERROR_TX_TERR0;
 80024cc:	6a7b      	ldr	r3, [r7, #36]	; 0x24
 80024ce:	f443 5380 	orr.w	r3, r3, #4096	; 0x1000
 80024d2:	627b      	str	r3, [r7, #36]	; 0x24
 80024d4:	e002      	b.n	80024dc <HAL_CAN_IRQHandler+0x98>
#if USE_HAL_CAN_REGISTER_CALLBACKS == 1
          /* Call registered callback*/
          hcan->TxMailbox0AbortCallback(hcan);
#else
          /* Call weak (surcharged) callback */
          HAL_CAN_TxMailbox0AbortCallback(hcan);
 80024d6:	6878      	ldr	r0, [r7, #4]
 80024d8:	f000 f980 	bl	80027dc <HAL_CAN_TxMailbox0AbortCallback>
        }
      }
    }

    /* Transmit Mailbox 1 management *****************************************/
    if ((tsrflags & CAN_TSR_RQCP1) != 0U)
 80024dc:	69bb      	ldr	r3, [r7, #24]
 80024de:	f403 7380 	and.w	r3, r3, #256	; 0x100
 80024e2:	2b00      	cmp	r3, #0
 80024e4:	d024      	beq.n	8002530 <HAL_CAN_IRQHandler+0xec>
    {
      /* Clear the Transmission Complete flag (and TXOK1,ALST1,TERR1 bits) */
      __HAL_CAN_CLEAR_FLAG(hcan, CAN_FLAG_RQCP1);
 80024e6:	687b      	ldr	r3, [r7, #4]
 80024e8:	681b      	ldr	r3, [r3, #0]
 80024ea:	f44f 7280 	mov.w	r2, #256	; 0x100
 80024ee:	609a      	str	r2, [r3, #8]

      if ((tsrflags & CAN_TSR_TXOK1) != 0U)
 80024f0:	69bb      	ldr	r3, [r7, #24]
 80024f2:	f403 7300 	and.w	r3, r3, #512	; 0x200
 80024f6:	2b00      	cmp	r3, #0
 80024f8:	d003      	beq.n	8002502 <HAL_CAN_IRQHandler+0xbe>
#if USE_HAL_CAN_REGISTER_CALLBACKS == 1
        /* Call registered callback*/
        hcan->TxMailbox1CompleteCallback(hcan);
#else
        /* Call weak (surcharged) callback */
        HAL_CAN_TxMailbox1CompleteCallback(hcan);
 80024fa:	6878      	ldr	r0, [r7, #4]
 80024fc:	f000 f95c 	bl	80027b8 <HAL_CAN_TxMailbox1CompleteCallback>
 8002500:	e016      	b.n	8002530 <HAL_CAN_IRQHandler+0xec>
#endif /* USE_HAL_CAN_REGISTER_CALLBACKS */
      }
      else
      {
        if ((tsrflags & CAN_TSR_ALST1) != 0U)
 8002502:	69bb      	ldr	r3, [r7, #24]
 8002504:	f403 6380 	and.w	r3, r3, #1024	; 0x400
 8002508:	2b00      	cmp	r3, #0
 800250a:	d004      	beq.n	8002516 <HAL_CAN_IRQHandler+0xd2>
        {
          /* Update error code */
          errorcode |= HAL_CAN_ERROR_TX_ALST1;
 800250c:	6a7b      	ldr	r3, [r7, #36]	; 0x24
 800250e:	f443 5300 	orr.w	r3, r3, #8192	; 0x2000
 8002512:	627b      	str	r3, [r7, #36]	; 0x24
 8002514:	e00c      	b.n	8002530 <HAL_CAN_IRQHandler+0xec>
        }
        else if ((tsrflags & CAN_TSR_TERR1) != 0U)
 8002516:	69bb      	ldr	r3, [r7, #24]
 8002518:	f403 6300 	and.w	r3, r3, #2048	; 0x800
 800251c:	2b00      	cmp	r3, #0
 800251e:	d004      	beq.n	800252a <HAL_CAN_IRQHandler+0xe6>
        {
          /* Update error code */
          errorcode |= HAL_CAN_ERROR_TX_TERR1;
 8002520:	6a7b      	ldr	r3, [r7, #36]	; 0x24
 8002522:	f443 4380 	orr.w	r3, r3, #16384	; 0x4000
 8002526:	627b      	str	r3, [r7, #36]	; 0x24
 8002528:	e002      	b.n	8002530 <HAL_CAN_IRQHandler+0xec>
#if USE_HAL_CAN_REGISTER_CALLBACKS == 1
          /* Call registered callback*/
          hcan->TxMailbox1AbortCallback(hcan);
#else
          /* Call weak (surcharged) callback */
          HAL_CAN_TxMailbox1AbortCallback(hcan);
 800252a:	6878      	ldr	r0, [r7, #4]
 800252c:	f000 f95f 	bl	80027ee <HAL_CAN_TxMailbox1AbortCallback>
        }
      }
    }

    /* Transmit Mailbox 2 management *****************************************/
    if ((tsrflags & CAN_TSR_RQCP2) != 0U)
 8002530:	69bb      	ldr	r3, [r7, #24]
 8002532:	f403 3380 	and.w	r3, r3, #65536	; 0x10000
 8002536:	2b00      	cmp	r3, #0
 8002538:	d024      	beq.n	8002584 <HAL_CAN_IRQHandler+0x140>
    {
      /* Clear the Transmission Complete flag (and TXOK2,ALST2,TERR2 bits) */
      __HAL_CAN_CLEAR_FLAG(hcan, CAN_FLAG_RQCP2);
 800253a:	687b      	ldr	r3, [r7, #4]
 800253c:	681b      	ldr	r3, [r3, #0]
 800253e:	f44f 3280 	mov.w	r2, #65536	; 0x10000
 8002542:	609a      	str	r2, [r3, #8]

      if ((tsrflags & CAN_TSR_TXOK2) != 0U)
 8002544:	69bb      	ldr	r3, [r7, #24]
 8002546:	f403 3300 	and.w	r3, r3, #131072	; 0x20000
 800254a:	2b00      	cmp	r3, #0
 800254c:	d003      	beq.n	8002556 <HAL_CAN_IRQHandler+0x112>
#if USE_HAL_CAN_REGISTER_CALLBACKS == 1
        /* Call registered callback*/
        hcan->TxMailbox2CompleteCallback(hcan);
#else
        /* Call weak (surcharged) callback */
        HAL_CAN_TxMailbox2CompleteCallback(hcan);
 800254e:	6878      	ldr	r0, [r7, #4]
 8002550:	f000 f93b 	bl	80027ca <HAL_CAN_TxMailbox2CompleteCallback>
 8002554:	e016      	b.n	8002584 <HAL_CAN_IRQHandler+0x140>
#endif /* USE_HAL_CAN_REGISTER_CALLBACKS */
      }
      else
      {
        if ((tsrflags & CAN_TSR_ALST2) != 0U)
 8002556:	69bb      	ldr	r3, [r7, #24]
 8002558:	f403 2380 	and.w	r3, r3, #262144	; 0x40000
 800255c:	2b00      	cmp	r3, #0
 800255e:	d004      	beq.n	800256a <HAL_CAN_IRQHandler+0x126>
        {
          /* Update error code */
          errorcode |= HAL_CAN_ERROR_TX_ALST2;
 8002560:	6a7b      	ldr	r3, [r7, #36]	; 0x24
 8002562:	f443 4300 	orr.w	r3, r3, #32768	; 0x8000
 8002566:	627b      	str	r3, [r7, #36]	; 0x24
 8002568:	e00c      	b.n	8002584 <HAL_CAN_IRQHandler+0x140>
        }
        else if ((tsrflags & CAN_TSR_TERR2) != 0U)
 800256a:	69bb      	ldr	r3, [r7, #24]
 800256c:	f403 2300 	and.w	r3, r3, #524288	; 0x80000
 8002570:	2b00      	cmp	r3, #0
 8002572:	d004      	beq.n	800257e <HAL_CAN_IRQHandler+0x13a>
        {
          /* Update error code */
          errorcode |= HAL_CAN_ERROR_TX_TERR2;
 8002574:	6a7b      	ldr	r3, [r7, #36]	; 0x24
 8002576:	f443 3380 	orr.w	r3, r3, #65536	; 0x10000
 800257a:	627b      	str	r3, [r7, #36]	; 0x24
 800257c:	e002      	b.n	8002584 <HAL_CAN_IRQHandler+0x140>
#if USE_HAL_CAN_REGISTER_CALLBACKS == 1
          /* Call registered callback*/
          hcan->TxMailbox2AbortCallback(hcan);
#else
          /* Call weak (surcharged) callback */
          HAL_CAN_TxMailbox2AbortCallback(hcan);
 800257e:	6878      	ldr	r0, [r7, #4]
 8002580:	f000 f93e 	bl	8002800 <HAL_CAN_TxMailbox2AbortCallback>
      }
    }
  }

  /* Receive FIFO 0 overrun interrupt management *****************************/
  if ((interrupts & CAN_IT_RX_FIFO0_OVERRUN) != 0U)
 8002584:	6a3b      	ldr	r3, [r7, #32]
 8002586:	f003 0308 	and.w	r3, r3, #8
 800258a:	2b00      	cmp	r3, #0
 800258c:	d00c      	beq.n	80025a8 <HAL_CAN_IRQHandler+0x164>
  {
    if ((rf0rflags & CAN_RF0R_FOVR0) != 0U)
 800258e:	697b      	ldr	r3, [r7, #20]
 8002590:	f003 0310 	and.w	r3, r3, #16
 8002594:	2b00      	cmp	r3, #0
 8002596:	d007      	beq.n	80025a8 <HAL_CAN_IRQHandler+0x164>
    {
      /* Set CAN error code to Rx Fifo 0 overrun error */
      errorcode |= HAL_CAN_ERROR_RX_FOV0;
 8002598:	6a7b      	ldr	r3, [r7, #36]	; 0x24
 800259a:	f443 7300 	orr.w	r3, r3, #512	; 0x200
 800259e:	627b      	str	r3, [r7, #36]	; 0x24

      /* Clear FIFO0 Overrun Flag */
      __HAL_CAN_CLEAR_FLAG(hcan, CAN_FLAG_FOV0);
 80025a0:	687b      	ldr	r3, [r7, #4]
 80025a2:	681b      	ldr	r3, [r3, #0]
 80025a4:	2210      	movs	r2, #16
 80025a6:	60da      	str	r2, [r3, #12]
    }
  }

  /* Receive FIFO 0 full interrupt management ********************************/
  if ((interrupts & CAN_IT_RX_FIFO0_FULL) != 0U)
 80025a8:	6a3b      	ldr	r3, [r7, #32]
 80025aa:	f003 0304 	and.w	r3, r3, #4
 80025ae:	2b00      	cmp	r3, #0
 80025b0:	d00b      	beq.n	80025ca <HAL_CAN_IRQHandler+0x186>
  {
    if ((rf0rflags & CAN_RF0R_FULL0) != 0U)
 80025b2:	697b      	ldr	r3, [r7, #20]
 80025b4:	f003 0308 	and.w	r3, r3, #8
 80025b8:	2b00      	cmp	r3, #0
 80025ba:	d006      	beq.n	80025ca <HAL_CAN_IRQHandler+0x186>
    {
      /* Clear FIFO 0 full Flag */
      __HAL_CAN_CLEAR_FLAG(hcan, CAN_FLAG_FF0);
 80025bc:	687b      	ldr	r3, [r7, #4]
 80025be:	681b      	ldr	r3, [r3, #0]
 80025c0:	2208      	movs	r2, #8
 80025c2:	60da      	str	r2, [r3, #12]
#if USE_HAL_CAN_REGISTER_CALLBACKS == 1
      /* Call registered callback*/
      hcan->RxFifo0FullCallback(hcan);
#else
      /* Call weak (surcharged) callback */
      HAL_CAN_RxFifo0FullCallback(hcan);
 80025c4:	6878      	ldr	r0, [r7, #4]
 80025c6:	f000 f924 	bl	8002812 <HAL_CAN_RxFifo0FullCallback>
#endif /* USE_HAL_CAN_REGISTER_CALLBACKS */
    }
  }

  /* Receive FIFO 0 message pending interrupt management *********************/
  if ((interrupts & CAN_IT_RX_FIFO0_MSG_PENDING) != 0U)
 80025ca:	6a3b      	ldr	r3, [r7, #32]
 80025cc:	f003 0302 	and.w	r3, r3, #2
 80025d0:	2b00      	cmp	r3, #0
 80025d2:	d009      	beq.n	80025e8 <HAL_CAN_IRQHandler+0x1a4>
  {
    /* Check if message is still pending */
    if ((hcan->Instance->RF0R & CAN_RF0R_FMP0) != 0U)
 80025d4:	687b      	ldr	r3, [r7, #4]
 80025d6:	681b      	ldr	r3, [r3, #0]
 80025d8:	68db      	ldr	r3, [r3, #12]
 80025da:	f003 0303 	and.w	r3, r3, #3
 80025de:	2b00      	cmp	r3, #0
 80025e0:	d002      	beq.n	80025e8 <HAL_CAN_IRQHandler+0x1a4>
#if USE_HAL_CAN_REGISTER_CALLBACKS == 1
      /* Call registered callback*/
      hcan->RxFifo0MsgPendingCallback(hcan);
#else
      /* Call weak (surcharged) callback */
      HAL_CAN_RxFifo0MsgPendingCallback(hcan);
 80025e2:	6878      	ldr	r0, [r7, #4]
 80025e4:	f7fe fb4c 	bl	8000c80 <HAL_CAN_RxFifo0MsgPendingCallback>
#endif /* USE_HAL_CAN_REGISTER_CALLBACKS */
    }
  }

  /* Receive FIFO 1 overrun interrupt management *****************************/
  if ((interrupts & CAN_IT_RX_FIFO1_OVERRUN) != 0U)
 80025e8:	6a3b      	ldr	r3, [r7, #32]
 80025ea:	f003 0340 	and.w	r3, r3, #64	; 0x40
 80025ee:	2b00      	cmp	r3, #0
 80025f0:	d00c      	beq.n	800260c <HAL_CAN_IRQHandler+0x1c8>
  {
    if ((rf1rflags & CAN_RF1R_FOVR1) != 0U)
 80025f2:	693b      	ldr	r3, [r7, #16]
 80025f4:	f003 0310 	and.w	r3, r3, #16
 80025f8:	2b00      	cmp	r3, #0
 80025fa:	d007      	beq.n	800260c <HAL_CAN_IRQHandler+0x1c8>
    {
      /* Set CAN error code to Rx Fifo 1 overrun error */
      errorcode |= HAL_CAN_ERROR_RX_FOV1;
 80025fc:	6a7b      	ldr	r3, [r7, #36]	; 0x24
 80025fe:	f443 6380 	orr.w	r3, r3, #1024	; 0x400
 8002602:	627b      	str	r3, [r7, #36]	; 0x24

      /* Clear FIFO1 Overrun Flag */
      __HAL_CAN_CLEAR_FLAG(hcan, CAN_FLAG_FOV1);
 8002604:	687b      	ldr	r3, [r7, #4]
 8002606:	681b      	ldr	r3, [r3, #0]
 8002608:	2210      	movs	r2, #16
 800260a:	611a      	str	r2, [r3, #16]
    }
  }

  /* Receive FIFO 1 full interrupt management ********************************/
  if ((interrupts & CAN_IT_RX_FIFO1_FULL) != 0U)
 800260c:	6a3b      	ldr	r3, [r7, #32]
 800260e:	f003 0320 	and.w	r3, r3, #32
 8002612:	2b00      	cmp	r3, #0
 8002614:	d00b      	beq.n	800262e <HAL_CAN_IRQHandler+0x1ea>
  {
    if ((rf1rflags & CAN_RF1R_FULL1) != 0U)
 8002616:	693b      	ldr	r3, [r7, #16]
 8002618:	f003 0308 	and.w	r3, r3, #8
 800261c:	2b00      	cmp	r3, #0
 800261e:	d006      	beq.n	800262e <HAL_CAN_IRQHandler+0x1ea>
    {
      /* Clear FIFO 1 full Flag */
      __HAL_CAN_CLEAR_FLAG(hcan, CAN_FLAG_FF1);
 8002620:	687b      	ldr	r3, [r7, #4]
 8002622:	681b      	ldr	r3, [r3, #0]
 8002624:	2208      	movs	r2, #8
 8002626:	611a      	str	r2, [r3, #16]
#if USE_HAL_CAN_REGISTER_CALLBACKS == 1
      /* Call registered callback*/
      hcan->RxFifo1FullCallback(hcan);
#else
      /* Call weak (surcharged) callback */
      HAL_CAN_RxFifo1FullCallback(hcan);
 8002628:	6878      	ldr	r0, [r7, #4]
 800262a:	f000 f904 	bl	8002836 <HAL_CAN_RxFifo1FullCallback>
#endif /* USE_HAL_CAN_REGISTER_CALLBACKS */
    }
  }

  /* Receive FIFO 1 message pending interrupt management *********************/
  if ((interrupts & CAN_IT_RX_FIFO1_MSG_PENDING) != 0U)
 800262e:	6a3b      	ldr	r3, [r7, #32]
 8002630:	f003 0310 	and.w	r3, r3, #16
 8002634:	2b00      	cmp	r3, #0
 8002636:	d009      	beq.n	800264c <HAL_CAN_IRQHandler+0x208>
  {
    /* Check if message is still pending */
    if ((hcan->Instance->RF1R & CAN_RF1R_FMP1) != 0U)
 8002638:	687b      	ldr	r3, [r7, #4]
 800263a:	681b      	ldr	r3, [r3, #0]
 800263c:	691b      	ldr	r3, [r3, #16]
 800263e:	f003 0303 	and.w	r3, r3, #3
 8002642:	2b00      	cmp	r3, #0
 8002644:	d002      	beq.n	800264c <HAL_CAN_IRQHandler+0x208>
#if USE_HAL_CAN_REGISTER_CALLBACKS == 1
      /* Call registered callback*/
      hcan->RxFifo1MsgPendingCallback(hcan);
#else
      /* Call weak (surcharged) callback */
      HAL_CAN_RxFifo1MsgPendingCallback(hcan);
 8002646:	6878      	ldr	r0, [r7, #4]
 8002648:	f000 f8ec 	bl	8002824 <HAL_CAN_RxFifo1MsgPendingCallback>
#endif /* USE_HAL_CAN_REGISTER_CALLBACKS */
    }
  }

  /* Sleep interrupt management *********************************************/
  if ((interrupts & CAN_IT_SLEEP_ACK) != 0U)
 800264c:	6a3b      	ldr	r3, [r7, #32]
 800264e:	f403 3300 	and.w	r3, r3, #131072	; 0x20000
 8002652:	2b00      	cmp	r3, #0
 8002654:	d00b      	beq.n	800266e <HAL_CAN_IRQHandler+0x22a>
  {
    if ((msrflags & CAN_MSR_SLAKI) != 0U)
 8002656:	69fb      	ldr	r3, [r7, #28]
 8002658:	f003 0310 	and.w	r3, r3, #16
 800265c:	2b00      	cmp	r3, #0
 800265e:	d006      	beq.n	800266e <HAL_CAN_IRQHandler+0x22a>
    {
      /* Clear Sleep interrupt Flag */
      __HAL_CAN_CLEAR_FLAG(hcan, CAN_FLAG_SLAKI);
 8002660:	687b      	ldr	r3, [r7, #4]
 8002662:	681b      	ldr	r3, [r3, #0]
 8002664:	2210      	movs	r2, #16
 8002666:	605a      	str	r2, [r3, #4]
#if USE_HAL_CAN_REGISTER_CALLBACKS == 1
      /* Call registered callback*/
      hcan->SleepCallback(hcan);
#else
      /* Call weak (surcharged) callback */
      HAL_CAN_SleepCallback(hcan);
 8002668:	6878      	ldr	r0, [r7, #4]
 800266a:	f000 f8ed 	bl	8002848 <HAL_CAN_SleepCallback>
#endif /* USE_HAL_CAN_REGISTER_CALLBACKS */
    }
  }

  /* WakeUp interrupt management *********************************************/
  if ((interrupts & CAN_IT_WAKEUP) != 0U)
 800266e:	6a3b      	ldr	r3, [r7, #32]
 8002670:	f403 3380 	and.w	r3, r3, #65536	; 0x10000
 8002674:	2b00      	cmp	r3, #0
 8002676:	d00b      	beq.n	8002690 <HAL_CAN_IRQHandler+0x24c>
  {
    if ((msrflags & CAN_MSR_WKUI) != 0U)
 8002678:	69fb      	ldr	r3, [r7, #28]
 800267a:	f003 0308 	and.w	r3, r3, #8
 800267e:	2b00      	cmp	r3, #0
 8002680:	d006      	beq.n	8002690 <HAL_CAN_IRQHandler+0x24c>
    {
      /* Clear WakeUp Flag */
      __HAL_CAN_CLEAR_FLAG(hcan, CAN_FLAG_WKU);
 8002682:	687b      	ldr	r3, [r7, #4]
 8002684:	681b      	ldr	r3, [r3, #0]
 8002686:	2208      	movs	r2, #8
 8002688:	605a      	str	r2, [r3, #4]
#if USE_HAL_CAN_REGISTER_CALLBACKS == 1
      /* Call registered callback*/
      hcan->WakeUpFromRxMsgCallback(hcan);
#else
      /* Call weak (surcharged) callback */
      HAL_CAN_WakeUpFromRxMsgCallback(hcan);
 800268a:	6878      	ldr	r0, [r7, #4]
 800268c:	f000 f8e5 	bl	800285a <HAL_CAN_WakeUpFromRxMsgCallback>
#endif /* USE_HAL_CAN_REGISTER_CALLBACKS */
    }
  }

  /* Error interrupts management *********************************************/
  if ((interrupts & CAN_IT_ERROR) != 0U)
 8002690:	6a3b      	ldr	r3, [r7, #32]
 8002692:	f403 4300 	and.w	r3, r3, #32768	; 0x8000
 8002696:	2b00      	cmp	r3, #0
 8002698:	d075      	beq.n	8002786 <HAL_CAN_IRQHandler+0x342>
  {
    if ((msrflags & CAN_MSR_ERRI) != 0U)
 800269a:	69fb      	ldr	r3, [r7, #28]
 800269c:	f003 0304 	and.w	r3, r3, #4
 80026a0:	2b00      	cmp	r3, #0
 80026a2:	d06c      	beq.n	800277e <HAL_CAN_IRQHandler+0x33a>
    {
      /* Check Error Warning Flag */
      if (((interrupts & CAN_IT_ERROR_WARNING) != 0U) &&
 80026a4:	6a3b      	ldr	r3, [r7, #32]
 80026a6:	f403 7380 	and.w	r3, r3, #256	; 0x100
 80026aa:	2b00      	cmp	r3, #0
 80026ac:	d008      	beq.n	80026c0 <HAL_CAN_IRQHandler+0x27c>
          ((esrflags & CAN_ESR_EWGF) != 0U))
 80026ae:	68fb      	ldr	r3, [r7, #12]
 80026b0:	f003 0301 	and.w	r3, r3, #1
      if (((interrupts & CAN_IT_ERROR_WARNING) != 0U) &&
 80026b4:	2b00      	cmp	r3, #0
 80026b6:	d003      	beq.n	80026c0 <HAL_CAN_IRQHandler+0x27c>
      {
        /* Set CAN error code to Error Warning */
        errorcode |= HAL_CAN_ERROR_EWG;
 80026b8:	6a7b      	ldr	r3, [r7, #36]	; 0x24
 80026ba:	f043 0301 	orr.w	r3, r3, #1
 80026be:	627b      	str	r3, [r7, #36]	; 0x24

        /* No need for clear of Error Warning Flag as read-only */
      }

      /* Check Error Passive Flag */
      if (((interrupts & CAN_IT_ERROR_PASSIVE) != 0U) &&
 80026c0:	6a3b      	ldr	r3, [r7, #32]
 80026c2:	f403 7300 	and.w	r3, r3, #512	; 0x200
 80026c6:	2b00      	cmp	r3, #0
 80026c8:	d008      	beq.n	80026dc <HAL_CAN_IRQHandler+0x298>
          ((esrflags & CAN_ESR_EPVF) != 0U))
 80026ca:	68fb      	ldr	r3, [r7, #12]
 80026cc:	f003 0302 	and.w	r3, r3, #2
      if (((interrupts & CAN_IT_ERROR_PASSIVE) != 0U) &&
 80026d0:	2b00      	cmp	r3, #0
 80026d2:	d003      	beq.n	80026dc <HAL_CAN_IRQHandler+0x298>
      {
        /* Set CAN error code to Error Passive */
        errorcode |= HAL_CAN_ERROR_EPV;
 80026d4:	6a7b      	ldr	r3, [r7, #36]	; 0x24
 80026d6:	f043 0302 	orr.w	r3, r3, #2
 80026da:	627b      	str	r3, [r7, #36]	; 0x24

        /* No need for clear of Error Passive Flag as read-only */
      }

      /* Check Bus-off Flag */
      if (((interrupts & CAN_IT_BUSOFF) != 0U) &&
 80026dc:	6a3b      	ldr	r3, [r7, #32]
 80026de:	f403 6380 	and.w	r3, r3, #1024	; 0x400
 80026e2:	2b00      	cmp	r3, #0
 80026e4:	d008      	beq.n	80026f8 <HAL_CAN_IRQHandler+0x2b4>
          ((esrflags & CAN_ESR_BOFF) != 0U))
 80026e6:	68fb      	ldr	r3, [r7, #12]
 80026e8:	f003 0304 	and.w	r3, r3, #4
      if (((interrupts & CAN_IT_BUSOFF) != 0U) &&
 80026ec:	2b00      	cmp	r3, #0
 80026ee:	d003      	beq.n	80026f8 <HAL_CAN_IRQHandler+0x2b4>
      {
        /* Set CAN error code to Bus-Off */
        errorcode |= HAL_CAN_ERROR_BOF;
 80026f0:	6a7b      	ldr	r3, [r7, #36]	; 0x24
 80026f2:	f043 0304 	orr.w	r3, r3, #4
 80026f6:	627b      	str	r3, [r7, #36]	; 0x24

        /* No need for clear of Error Bus-Off as read-only */
      }

      /* Check Last Error Code Flag */
      if (((interrupts & CAN_IT_LAST_ERROR_CODE) != 0U) &&
 80026f8:	6a3b      	ldr	r3, [r7, #32]
 80026fa:	f403 6300 	and.w	r3, r3, #2048	; 0x800
 80026fe:	2b00      	cmp	r3, #0
 8002700:	d03d      	beq.n	800277e <HAL_CAN_IRQHandler+0x33a>
          ((esrflags & CAN_ESR_LEC) != 0U))
 8002702:	68fb      	ldr	r3, [r7, #12]
 8002704:	f003 0370 	and.w	r3, r3, #112	; 0x70
      if (((interrupts & CAN_IT_LAST_ERROR_CODE) != 0U) &&
 8002708:	2b00      	cmp	r3, #0
 800270a:	d038      	beq.n	800277e <HAL_CAN_IRQHandler+0x33a>
      {
        switch (esrflags & CAN_ESR_LEC)
 800270c:	68fb      	ldr	r3, [r7, #12]
 800270e:	f003 0370 	and.w	r3, r3, #112	; 0x70
 8002712:	2b30      	cmp	r3, #48	; 0x30
 8002714:	d017      	beq.n	8002746 <HAL_CAN_IRQHandler+0x302>
 8002716:	2b30      	cmp	r3, #48	; 0x30
 8002718:	d804      	bhi.n	8002724 <HAL_CAN_IRQHandler+0x2e0>
 800271a:	2b10      	cmp	r3, #16
 800271c:	d009      	beq.n	8002732 <HAL_CAN_IRQHandler+0x2ee>
 800271e:	2b20      	cmp	r3, #32
 8002720:	d00c      	beq.n	800273c <HAL_CAN_IRQHandler+0x2f8>
          case (CAN_ESR_LEC_2 | CAN_ESR_LEC_1):
            /* Set CAN error code to CRC error */
            errorcode |= HAL_CAN_ERROR_CRC;
            break;
          default:
            break;
 8002722:	e024      	b.n	800276e <HAL_CAN_IRQHandler+0x32a>
        switch (esrflags & CAN_ESR_LEC)
 8002724:	2b50      	cmp	r3, #80	; 0x50
 8002726:	d018      	beq.n	800275a <HAL_CAN_IRQHandler+0x316>
 8002728:	2b60      	cmp	r3, #96	; 0x60
 800272a:	d01b      	beq.n	8002764 <HAL_CAN_IRQHandler+0x320>
 800272c:	2b40      	cmp	r3, #64	; 0x40
 800272e:	d00f      	beq.n	8002750 <HAL_CAN_IRQHandler+0x30c>
            break;
 8002730:	e01d      	b.n	800276e <HAL_CAN_IRQHandler+0x32a>
            errorcode |= HAL_CAN_ERROR_STF;
 8002732:	6a7b      	ldr	r3, [r7, #36]	; 0x24
 8002734:	f043 0308 	orr.w	r3, r3, #8
 8002738:	627b      	str	r3, [r7, #36]	; 0x24
            break;
 800273a:	e018      	b.n	800276e <HAL_CAN_IRQHandler+0x32a>
            errorcode |= HAL_CAN_ERROR_FOR;
 800273c:	6a7b      	ldr	r3, [r7, #36]	; 0x24
 800273e:	f043 0310 	orr.w	r3, r3, #16
 8002742:	627b      	str	r3, [r7, #36]	; 0x24
            break;
 8002744:	e013      	b.n	800276e <HAL_CAN_IRQHandler+0x32a>
            errorcode |= HAL_CAN_ERROR_ACK;
 8002746:	6a7b      	ldr	r3, [r7, #36]	; 0x24
 8002748:	f043 0320 	orr.w	r3, r3, #32
 800274c:	627b      	str	r3, [r7, #36]	; 0x24
            break;
 800274e:	e00e      	b.n	800276e <HAL_CAN_IRQHandler+0x32a>
            errorcode |= HAL_CAN_ERROR_BR;
 8002750:	6a7b      	ldr	r3, [r7, #36]	; 0x24
 8002752:	f043 0340 	orr.w	r3, r3, #64	; 0x40
 8002756:	627b      	str	r3, [r7, #36]	; 0x24
            break;
 8002758:	e009      	b.n	800276e <HAL_CAN_IRQHandler+0x32a>
            errorcode |= HAL_CAN_ERROR_BD;
 800275a:	6a7b      	ldr	r3, [r7, #36]	; 0x24
 800275c:	f043 0380 	orr.w	r3, r3, #128	; 0x80
 8002760:	627b      	str	r3, [r7, #36]	; 0x24
            break;
 8002762:	e004      	b.n	800276e <HAL_CAN_IRQHandler+0x32a>
            errorcode |= HAL_CAN_ERROR_CRC;
 8002764:	6a7b      	ldr	r3, [r7, #36]	; 0x24
 8002766:	f443 7380 	orr.w	r3, r3, #256	; 0x100
 800276a:	627b      	str	r3, [r7, #36]	; 0x24
            break;
 800276c:	bf00      	nop
        }

        /* Clear Last error code Flag */
        CLEAR_BIT(hcan->Instance->ESR, CAN_ESR_LEC);
 800276e:	687b      	ldr	r3, [r7, #4]
 8002770:	681b      	ldr	r3, [r3, #0]
 8002772:	699a      	ldr	r2, [r3, #24]
 8002774:	687b      	ldr	r3, [r7, #4]
 8002776:	681b      	ldr	r3, [r3, #0]
 8002778:	f022 0270 	bic.w	r2, r2, #112	; 0x70
 800277c:	619a      	str	r2, [r3, #24]
      }
    }

    /* Clear ERRI Flag */
    __HAL_CAN_CLEAR_FLAG(hcan, CAN_FLAG_ERRI);
 800277e:	687b      	ldr	r3, [r7, #4]
 8002780:	681b      	ldr	r3, [r3, #0]
 8002782:	2204      	movs	r2, #4
 8002784:	605a      	str	r2, [r3, #4]
  }

  /* Call the Error call Back in case of Errors */
  if (errorcode != HAL_CAN_ERROR_NONE)
 8002786:	6a7b      	ldr	r3, [r7, #36]	; 0x24
 8002788:	2b00      	cmp	r3, #0
 800278a:	d008      	beq.n	800279e <HAL_CAN_IRQHandler+0x35a>
  {
    /* Update error code in handle */
    hcan->ErrorCode |= errorcode;
 800278c:	687b      	ldr	r3, [r7, #4]
 800278e:	6a5a      	ldr	r2, [r3, #36]	; 0x24
 8002790:	6a7b      	ldr	r3, [r7, #36]	; 0x24
 8002792:	431a      	orrs	r2, r3
 8002794:	687b      	ldr	r3, [r7, #4]
 8002796:	625a      	str	r2, [r3, #36]	; 0x24
#if USE_HAL_CAN_REGISTER_CALLBACKS == 1
    /* Call registered callback*/
    hcan->ErrorCallback(hcan);
#else
    /* Call weak (surcharged) callback */
    HAL_CAN_ErrorCallback(hcan);
 8002798:	6878      	ldr	r0, [r7, #4]
 800279a:	f000 f867 	bl	800286c <HAL_CAN_ErrorCallback>
#endif /* USE_HAL_CAN_REGISTER_CALLBACKS */
  }
}
 800279e:	bf00      	nop
 80027a0:	3728      	adds	r7, #40	; 0x28
 80027a2:	46bd      	mov	sp, r7
 80027a4:	bd80      	pop	{r7, pc}

080027a6 <HAL_CAN_TxMailbox0CompleteCallback>:
  * @param  hcan pointer to a CAN_HandleTypeDef structure that contains
  *         the configuration information for the specified CAN.
  * @retval None
  */
__weak void HAL_CAN_TxMailbox0CompleteCallback(CAN_HandleTypeDef *hcan)
{
 80027a6:	b480      	push	{r7}
 80027a8:	b083      	sub	sp, #12
 80027aa:	af00      	add	r7, sp, #0
 80027ac:	6078      	str	r0, [r7, #4]

  /* NOTE : This function Should not be modified, when the callback is needed,
            the HAL_CAN_TxMailbox0CompleteCallback could be implemented in the
            user file
   */
}
 80027ae:	bf00      	nop
 80027b0:	370c      	adds	r7, #12
 80027b2:	46bd      	mov	sp, r7
 80027b4:	bc80      	pop	{r7}
 80027b6:	4770      	bx	lr

080027b8 <HAL_CAN_TxMailbox1CompleteCallback>:
  * @param  hcan pointer to a CAN_HandleTypeDef structure that contains
  *         the configuration information for the specified CAN.
  * @retval None
  */
__weak void HAL_CAN_TxMailbox1CompleteCallback(CAN_HandleTypeDef *hcan)
{
 80027b8:	b480      	push	{r7}
 80027ba:	b083      	sub	sp, #12
 80027bc:	af00      	add	r7, sp, #0
 80027be:	6078      	str	r0, [r7, #4]

  /* NOTE : This function Should not be modified, when the callback is needed,
            the HAL_CAN_TxMailbox1CompleteCallback could be implemented in the
            user file
   */
}
 80027c0:	bf00      	nop
 80027c2:	370c      	adds	r7, #12
 80027c4:	46bd      	mov	sp, r7
 80027c6:	bc80      	pop	{r7}
 80027c8:	4770      	bx	lr

080027ca <HAL_CAN_TxMailbox2CompleteCallback>:
  * @param  hcan pointer to a CAN_HandleTypeDef structure that contains
  *         the configuration information for the specified CAN.
  * @retval None
  */
__weak void HAL_CAN_TxMailbox2CompleteCallback(CAN_HandleTypeDef *hcan)
{
 80027ca:	b480      	push	{r7}
 80027cc:	b083      	sub	sp, #12
 80027ce:	af00      	add	r7, sp, #0
 80027d0:	6078      	str	r0, [r7, #4]

  /* NOTE : This function Should not be modified, when the callback is needed,
            the HAL_CAN_TxMailbox2CompleteCallback could be implemented in the
            user file
   */
}
 80027d2:	bf00      	nop
 80027d4:	370c      	adds	r7, #12
 80027d6:	46bd      	mov	sp, r7
 80027d8:	bc80      	pop	{r7}
 80027da:	4770      	bx	lr

080027dc <HAL_CAN_TxMailbox0AbortCallback>:
  * @param  hcan pointer to an CAN_HandleTypeDef structure that contains
  *         the configuration information for the specified CAN.
  * @retval None
  */
__weak void HAL_CAN_TxMailbox0AbortCallback(CAN_HandleTypeDef *hcan)
{
 80027dc:	b480      	push	{r7}
 80027de:	b083      	sub	sp, #12
 80027e0:	af00      	add	r7, sp, #0
 80027e2:	6078      	str	r0, [r7, #4]

  /* NOTE : This function Should not be modified, when the callback is needed,
            the HAL_CAN_TxMailbox0AbortCallback could be implemented in the
            user file
   */
}
 80027e4:	bf00      	nop
 80027e6:	370c      	adds	r7, #12
 80027e8:	46bd      	mov	sp, r7
 80027ea:	bc80      	pop	{r7}
 80027ec:	4770      	bx	lr

080027ee <HAL_CAN_TxMailbox1AbortCallback>:
  * @param  hcan pointer to an CAN_HandleTypeDef structure that contains
  *         the configuration information for the specified CAN.
  * @retval None
  */
__weak void HAL_CAN_TxMailbox1AbortCallback(CAN_HandleTypeDef *hcan)
{
 80027ee:	b480      	push	{r7}
 80027f0:	b083      	sub	sp, #12
 80027f2:	af00      	add	r7, sp, #0
 80027f4:	6078      	str	r0, [r7, #4]

  /* NOTE : This function Should not be modified, when the callback is needed,
            the HAL_CAN_TxMailbox1AbortCallback could be implemented in the
            user file
   */
}
 80027f6:	bf00      	nop
 80027f8:	370c      	adds	r7, #12
 80027fa:	46bd      	mov	sp, r7
 80027fc:	bc80      	pop	{r7}
 80027fe:	4770      	bx	lr

08002800 <HAL_CAN_TxMailbox2AbortCallback>:
  * @param  hcan pointer to an CAN_HandleTypeDef structure that contains
  *         the configuration information for the specified CAN.
  * @retval None
  */
__weak void HAL_CAN_TxMailbox2AbortCallback(CAN_HandleTypeDef *hcan)
{
 8002800:	b480      	push	{r7}
 8002802:	b083      	sub	sp, #12
 8002804:	af00      	add	r7, sp, #0
 8002806:	6078      	str	r0, [r7, #4]

  /* NOTE : This function Should not be modified, when the callback is needed,
            the HAL_CAN_TxMailbox2AbortCallback could be implemented in the
            user file
   */
}
 8002808:	bf00      	nop
 800280a:	370c      	adds	r7, #12
 800280c:	46bd      	mov	sp, r7
 800280e:	bc80      	pop	{r7}
 8002810:	4770      	bx	lr

08002812 <HAL_CAN_RxFifo0FullCallback>:
  * @param  hcan pointer to a CAN_HandleTypeDef structure that contains
  *         the configuration information for the specified CAN.
  * @retval None
  */
__weak void HAL_CAN_RxFifo0FullCallback(CAN_HandleTypeDef *hcan)
{
 8002812:	b480      	push	{r7}
 8002814:	b083      	sub	sp, #12
 8002816:	af00      	add	r7, sp, #0
 8002818:	6078      	str	r0, [r7, #4]

  /* NOTE : This function Should not be modified, when the callback is needed,
            the HAL_CAN_RxFifo0FullCallback could be implemented in the user
            file
   */
}
 800281a:	bf00      	nop
 800281c:	370c      	adds	r7, #12
 800281e:	46bd      	mov	sp, r7
 8002820:	bc80      	pop	{r7}
 8002822:	4770      	bx	lr

08002824 <HAL_CAN_RxFifo1MsgPendingCallback>:
  * @param  hcan pointer to a CAN_HandleTypeDef structure that contains
  *         the configuration information for the specified CAN.
  * @retval None
  */
__weak void HAL_CAN_RxFifo1MsgPendingCallback(CAN_HandleTypeDef *hcan)
{
 8002824:	b480      	push	{r7}
 8002826:	b083      	sub	sp, #12
 8002828:	af00      	add	r7, sp, #0
 800282a:	6078      	str	r0, [r7, #4]

  /* NOTE : This function Should not be modified, when the callback is needed,
            the HAL_CAN_RxFifo1MsgPendingCallback could be implemented in the
            user file
   */
}
 800282c:	bf00      	nop
 800282e:	370c      	adds	r7, #12
 8002830:	46bd      	mov	sp, r7
 8002832:	bc80      	pop	{r7}
 8002834:	4770      	bx	lr

08002836 <HAL_CAN_RxFifo1FullCallback>:
  * @param  hcan pointer to a CAN_HandleTypeDef structure that contains
  *         the configuration information for the specified CAN.
  * @retval None
  */
__weak void HAL_CAN_RxFifo1FullCallback(CAN_HandleTypeDef *hcan)
{
 8002836:	b480      	push	{r7}
 8002838:	b083      	sub	sp, #12
 800283a:	af00      	add	r7, sp, #0
 800283c:	6078      	str	r0, [r7, #4]

  /* NOTE : This function Should not be modified, when the callback is needed,
            the HAL_CAN_RxFifo1FullCallback could be implemented in the user
            file
   */
}
 800283e:	bf00      	nop
 8002840:	370c      	adds	r7, #12
 8002842:	46bd      	mov	sp, r7
 8002844:	bc80      	pop	{r7}
 8002846:	4770      	bx	lr

08002848 <HAL_CAN_SleepCallback>:
  * @param  hcan pointer to a CAN_HandleTypeDef structure that contains
  *         the configuration information for the specified CAN.
  * @retval None
  */
__weak void HAL_CAN_SleepCallback(CAN_HandleTypeDef *hcan)
{
 8002848:	b480      	push	{r7}
 800284a:	b083      	sub	sp, #12
 800284c:	af00      	add	r7, sp, #0
 800284e:	6078      	str	r0, [r7, #4]
  UNUSED(hcan);

  /* NOTE : This function Should not be modified, when the callback is needed,
            the HAL_CAN_SleepCallback could be implemented in the user file
   */
}
 8002850:	bf00      	nop
 8002852:	370c      	adds	r7, #12
 8002854:	46bd      	mov	sp, r7
 8002856:	bc80      	pop	{r7}
 8002858:	4770      	bx	lr

0800285a <HAL_CAN_WakeUpFromRxMsgCallback>:
  * @param  hcan pointer to a CAN_HandleTypeDef structure that contains
  *         the configuration information for the specified CAN.
  * @retval None
  */
__weak void HAL_CAN_WakeUpFromRxMsgCallback(CAN_HandleTypeDef *hcan)
{
 800285a:	b480      	push	{r7}
 800285c:	b083      	sub	sp, #12
 800285e:	af00      	add	r7, sp, #0
 8002860:	6078      	str	r0, [r7, #4]

  /* NOTE : This function Should not be modified, when the callback is needed,
            the HAL_CAN_WakeUpFromRxMsgCallback could be implemented in the
            user file
   */
}
 8002862:	bf00      	nop
 8002864:	370c      	adds	r7, #12
 8002866:	46bd      	mov	sp, r7
 8002868:	bc80      	pop	{r7}
 800286a:	4770      	bx	lr

0800286c <HAL_CAN_ErrorCallback>:
  * @param  hcan pointer to a CAN_HandleTypeDef structure that contains
  *         the configuration information for the specified CAN.
  * @retval None
  */
__weak void HAL_CAN_ErrorCallback(CAN_HandleTypeDef *hcan)
{
 800286c:	b480      	push	{r7}
 800286e:	b083      	sub	sp, #12
 8002870:	af00      	add	r7, sp, #0
 8002872:	6078      	str	r0, [r7, #4]
  UNUSED(hcan);

  /* NOTE : This function Should not be modified, when the callback is needed,
            the HAL_CAN_ErrorCallback could be implemented in the user file
   */
}
 8002874:	bf00      	nop
 8002876:	370c      	adds	r7, #12
 8002878:	46bd      	mov	sp, r7
 800287a:	bc80      	pop	{r7}
 800287c:	4770      	bx	lr
	...

08002880 <__NVIC_SetPriorityGrouping>:
           In case of a conflict between priority grouping and available
           priority bits (__NVIC_PRIO_BITS), the smallest possible priority group is set.
  \param [in]      PriorityGroup  Priority grouping field.
 */
__STATIC_INLINE void __NVIC_SetPriorityGrouping(uint32_t PriorityGroup)
{
 8002880:	b480      	push	{r7}
 8002882:	b085      	sub	sp, #20
 8002884:	af00      	add	r7, sp, #0
 8002886:	6078      	str	r0, [r7, #4]
  uint32_t reg_value;
  uint32_t PriorityGroupTmp = (PriorityGroup & (uint32_t)0x07UL);             /* only values 0..7 are used          */
 8002888:	687b      	ldr	r3, [r7, #4]
 800288a:	f003 0307 	and.w	r3, r3, #7
 800288e:	60fb      	str	r3, [r7, #12]

  reg_value  =  SCB->AIRCR;                                                   /* read old register configuration    */
 8002890:	4b0c      	ldr	r3, [pc, #48]	; (80028c4 <__NVIC_SetPriorityGrouping+0x44>)
 8002892:	68db      	ldr	r3, [r3, #12]
 8002894:	60bb      	str	r3, [r7, #8]
  reg_value &= ~((uint32_t)(SCB_AIRCR_VECTKEY_Msk | SCB_AIRCR_PRIGROUP_Msk)); /* clear bits to change               */
 8002896:	68ba      	ldr	r2, [r7, #8]
 8002898:	f64f 03ff 	movw	r3, #63743	; 0xf8ff
 800289c:	4013      	ands	r3, r2
 800289e:	60bb      	str	r3, [r7, #8]
  reg_value  =  (reg_value                                   |
                ((uint32_t)0x5FAUL << SCB_AIRCR_VECTKEY_Pos) |
                (PriorityGroupTmp << SCB_AIRCR_PRIGROUP_Pos) );               /* Insert write key and priority group */
 80028a0:	68fb      	ldr	r3, [r7, #12]
 80028a2:	021a      	lsls	r2, r3, #8
                ((uint32_t)0x5FAUL << SCB_AIRCR_VECTKEY_Pos) |
 80028a4:	68bb      	ldr	r3, [r7, #8]
 80028a6:	4313      	orrs	r3, r2
  reg_value  =  (reg_value                                   |
 80028a8:	f043 63bf 	orr.w	r3, r3, #100139008	; 0x5f80000
 80028ac:	f443 3300 	orr.w	r3, r3, #131072	; 0x20000
 80028b0:	60bb      	str	r3, [r7, #8]
  SCB->AIRCR =  reg_value;
 80028b2:	4a04      	ldr	r2, [pc, #16]	; (80028c4 <__NVIC_SetPriorityGrouping+0x44>)
 80028b4:	68bb      	ldr	r3, [r7, #8]
 80028b6:	60d3      	str	r3, [r2, #12]
}
 80028b8:	bf00      	nop
 80028ba:	3714      	adds	r7, #20
 80028bc:	46bd      	mov	sp, r7
 80028be:	bc80      	pop	{r7}
 80028c0:	4770      	bx	lr
 80028c2:	bf00      	nop
 80028c4:	e000ed00 	.word	0xe000ed00

080028c8 <__NVIC_GetPriorityGrouping>:
  \brief   Get Priority Grouping
  \details Reads the priority grouping field from the NVIC Interrupt Controller.
  \return                Priority grouping field (SCB->AIRCR [10:8] PRIGROUP field).
 */
__STATIC_INLINE uint32_t __NVIC_GetPriorityGrouping(void)
{
 80028c8:	b480      	push	{r7}
 80028ca:	af00      	add	r7, sp, #0
  return ((uint32_t)((SCB->AIRCR & SCB_AIRCR_PRIGROUP_Msk) >> SCB_AIRCR_PRIGROUP_Pos));
 80028cc:	4b04      	ldr	r3, [pc, #16]	; (80028e0 <__NVIC_GetPriorityGrouping+0x18>)
 80028ce:	68db      	ldr	r3, [r3, #12]
 80028d0:	0a1b      	lsrs	r3, r3, #8
 80028d2:	f003 0307 	and.w	r3, r3, #7
}
 80028d6:	4618      	mov	r0, r3
 80028d8:	46bd      	mov	sp, r7
 80028da:	bc80      	pop	{r7}
 80028dc:	4770      	bx	lr
 80028de:	bf00      	nop
 80028e0:	e000ed00 	.word	0xe000ed00

080028e4 <__NVIC_EnableIRQ>:
  \details Enables a device specific interrupt in the NVIC interrupt controller.
  \param [in]      IRQn  Device specific interrupt number.
  \note    IRQn must not be negative.
 */
__STATIC_INLINE void __NVIC_EnableIRQ(IRQn_Type IRQn)
{
 80028e4:	b480      	push	{r7}
 80028e6:	b083      	sub	sp, #12
 80028e8:	af00      	add	r7, sp, #0
 80028ea:	4603      	mov	r3, r0
 80028ec:	71fb      	strb	r3, [r7, #7]
  if ((int32_t)(IRQn) >= 0)
 80028ee:	f997 3007 	ldrsb.w	r3, [r7, #7]
 80028f2:	2b00      	cmp	r3, #0
 80028f4:	db0b      	blt.n	800290e <__NVIC_EnableIRQ+0x2a>
  {
    NVIC->ISER[(((uint32_t)IRQn) >> 5UL)] = (uint32_t)(1UL << (((uint32_t)IRQn) & 0x1FUL));
 80028f6:	79fb      	ldrb	r3, [r7, #7]
 80028f8:	f003 021f 	and.w	r2, r3, #31
 80028fc:	4906      	ldr	r1, [pc, #24]	; (8002918 <__NVIC_EnableIRQ+0x34>)
 80028fe:	f997 3007 	ldrsb.w	r3, [r7, #7]
 8002902:	095b      	lsrs	r3, r3, #5
 8002904:	2001      	movs	r0, #1
 8002906:	fa00 f202 	lsl.w	r2, r0, r2
 800290a:	f841 2023 	str.w	r2, [r1, r3, lsl #2]
  }
}
 800290e:	bf00      	nop
 8002910:	370c      	adds	r7, #12
 8002912:	46bd      	mov	sp, r7
 8002914:	bc80      	pop	{r7}
 8002916:	4770      	bx	lr
 8002918:	e000e100 	.word	0xe000e100

0800291c <__NVIC_SetPriority>:
  \param [in]      IRQn  Interrupt number.
  \param [in]  priority  Priority to set.
  \note    The priority cannot be set for every processor exception.
 */
__STATIC_INLINE void __NVIC_SetPriority(IRQn_Type IRQn, uint32_t priority)
{
 800291c:	b480      	push	{r7}
 800291e:	b083      	sub	sp, #12
 8002920:	af00      	add	r7, sp, #0
 8002922:	4603      	mov	r3, r0
 8002924:	6039      	str	r1, [r7, #0]
 8002926:	71fb      	strb	r3, [r7, #7]
  if ((int32_t)(IRQn) >= 0)
 8002928:	f997 3007 	ldrsb.w	r3, [r7, #7]
 800292c:	2b00      	cmp	r3, #0
 800292e:	db0a      	blt.n	8002946 <__NVIC_SetPriority+0x2a>
  {
    NVIC->IP[((uint32_t)IRQn)]               = (uint8_t)((priority << (8U - __NVIC_PRIO_BITS)) & (uint32_t)0xFFUL);
 8002930:	683b      	ldr	r3, [r7, #0]
 8002932:	b2da      	uxtb	r2, r3
 8002934:	490c      	ldr	r1, [pc, #48]	; (8002968 <__NVIC_SetPriority+0x4c>)
 8002936:	f997 3007 	ldrsb.w	r3, [r7, #7]
 800293a:	0112      	lsls	r2, r2, #4
 800293c:	b2d2      	uxtb	r2, r2
 800293e:	440b      	add	r3, r1
 8002940:	f883 2300 	strb.w	r2, [r3, #768]	; 0x300
  }
  else
  {
    SCB->SHP[(((uint32_t)IRQn) & 0xFUL)-4UL] = (uint8_t)((priority << (8U - __NVIC_PRIO_BITS)) & (uint32_t)0xFFUL);
  }
}
 8002944:	e00a      	b.n	800295c <__NVIC_SetPriority+0x40>
    SCB->SHP[(((uint32_t)IRQn) & 0xFUL)-4UL] = (uint8_t)((priority << (8U - __NVIC_PRIO_BITS)) & (uint32_t)0xFFUL);
 8002946:	683b      	ldr	r3, [r7, #0]
 8002948:	b2da      	uxtb	r2, r3
 800294a:	4908      	ldr	r1, [pc, #32]	; (800296c <__NVIC_SetPriority+0x50>)
 800294c:	79fb      	ldrb	r3, [r7, #7]
 800294e:	f003 030f 	and.w	r3, r3, #15
 8002952:	3b04      	subs	r3, #4
 8002954:	0112      	lsls	r2, r2, #4
 8002956:	b2d2      	uxtb	r2, r2
 8002958:	440b      	add	r3, r1
 800295a:	761a      	strb	r2, [r3, #24]
}
 800295c:	bf00      	nop
 800295e:	370c      	adds	r7, #12
 8002960:	46bd      	mov	sp, r7
 8002962:	bc80      	pop	{r7}
 8002964:	4770      	bx	lr
 8002966:	bf00      	nop
 8002968:	e000e100 	.word	0xe000e100
 800296c:	e000ed00 	.word	0xe000ed00

08002970 <NVIC_EncodePriority>:
  \param [in]   PreemptPriority  Preemptive priority value (starting from 0).
  \param [in]       SubPriority  Subpriority value (starting from 0).
  \return                        Encoded priority. Value can be used in the function \ref NVIC_SetPriority().
 */
__STATIC_INLINE uint32_t NVIC_EncodePriority (uint32_t PriorityGroup, uint32_t PreemptPriority, uint32_t SubPriority)
{
 8002970:	b480      	push	{r7}
 8002972:	b089      	sub	sp, #36	; 0x24
 8002974:	af00      	add	r7, sp, #0
 8002976:	60f8      	str	r0, [r7, #12]
 8002978:	60b9      	str	r1, [r7, #8]
 800297a:	607a      	str	r2, [r7, #4]
  uint32_t PriorityGroupTmp = (PriorityGroup & (uint32_t)0x07UL);   /* only values 0..7 are used          */
 800297c:	68fb      	ldr	r3, [r7, #12]
 800297e:	f003 0307 	and.w	r3, r3, #7
 8002982:	61fb      	str	r3, [r7, #28]
  uint32_t PreemptPriorityBits;
  uint32_t SubPriorityBits;

  PreemptPriorityBits = ((7UL - PriorityGroupTmp) > (uint32_t)(__NVIC_PRIO_BITS)) ? (uint32_t)(__NVIC_PRIO_BITS) : (uint32_t)(7UL - PriorityGroupTmp);
 8002984:	69fb      	ldr	r3, [r7, #28]
 8002986:	f1c3 0307 	rsb	r3, r3, #7
 800298a:	2b04      	cmp	r3, #4
 800298c:	bf28      	it	cs
 800298e:	2304      	movcs	r3, #4
 8002990:	61bb      	str	r3, [r7, #24]
  SubPriorityBits     = ((PriorityGroupTmp + (uint32_t)(__NVIC_PRIO_BITS)) < (uint32_t)7UL) ? (uint32_t)0UL : (uint32_t)((PriorityGroupTmp - 7UL) + (uint32_t)(__NVIC_PRIO_BITS));
 8002992:	69fb      	ldr	r3, [r7, #28]
 8002994:	3304      	adds	r3, #4
 8002996:	2b06      	cmp	r3, #6
 8002998:	d902      	bls.n	80029a0 <NVIC_EncodePriority+0x30>
 800299a:	69fb      	ldr	r3, [r7, #28]
 800299c:	3b03      	subs	r3, #3
 800299e:	e000      	b.n	80029a2 <NVIC_EncodePriority+0x32>
 80029a0:	2300      	movs	r3, #0
 80029a2:	617b      	str	r3, [r7, #20]

  return (
           ((PreemptPriority & (uint32_t)((1UL << (PreemptPriorityBits)) - 1UL)) << SubPriorityBits) |
 80029a4:	f04f 32ff 	mov.w	r2, #4294967295
 80029a8:	69bb      	ldr	r3, [r7, #24]
 80029aa:	fa02 f303 	lsl.w	r3, r2, r3
 80029ae:	43da      	mvns	r2, r3
 80029b0:	68bb      	ldr	r3, [r7, #8]
 80029b2:	401a      	ands	r2, r3
 80029b4:	697b      	ldr	r3, [r7, #20]
 80029b6:	409a      	lsls	r2, r3
           ((SubPriority     & (uint32_t)((1UL << (SubPriorityBits    )) - 1UL)))
 80029b8:	f04f 31ff 	mov.w	r1, #4294967295
 80029bc:	697b      	ldr	r3, [r7, #20]
 80029be:	fa01 f303 	lsl.w	r3, r1, r3
 80029c2:	43d9      	mvns	r1, r3
 80029c4:	687b      	ldr	r3, [r7, #4]
 80029c6:	400b      	ands	r3, r1
           ((PreemptPriority & (uint32_t)((1UL << (PreemptPriorityBits)) - 1UL)) << SubPriorityBits) |
 80029c8:	4313      	orrs	r3, r2
         );
}
 80029ca:	4618      	mov	r0, r3
 80029cc:	3724      	adds	r7, #36	; 0x24
 80029ce:	46bd      	mov	sp, r7
 80029d0:	bc80      	pop	{r7}
 80029d2:	4770      	bx	lr

080029d4 <HAL_NVIC_SetPriorityGrouping>:
  * @note   When the NVIC_PriorityGroup_0 is selected, IRQ preemption is no more possible. 
  *         The pending IRQ priority will be managed only by the subpriority. 
  * @retval None
  */
void HAL_NVIC_SetPriorityGrouping(uint32_t PriorityGroup)
{
 80029d4:	b580      	push	{r7, lr}
 80029d6:	b082      	sub	sp, #8
 80029d8:	af00      	add	r7, sp, #0
 80029da:	6078      	str	r0, [r7, #4]
  /* Check the parameters */
  assert_param(IS_NVIC_PRIORITY_GROUP(PriorityGroup));
  
  /* Set the PRIGROUP[10:8] bits according to the PriorityGroup parameter value */
  NVIC_SetPriorityGrouping(PriorityGroup);
 80029dc:	6878      	ldr	r0, [r7, #4]
 80029de:	f7ff ff4f 	bl	8002880 <__NVIC_SetPriorityGrouping>
}
 80029e2:	bf00      	nop
 80029e4:	3708      	adds	r7, #8
 80029e6:	46bd      	mov	sp, r7
 80029e8:	bd80      	pop	{r7, pc}

080029ea <HAL_NVIC_SetPriority>:
  *         This parameter can be a value between 0 and 15
  *         A lower priority value indicates a higher priority.          
  * @retval None
  */
void HAL_NVIC_SetPriority(IRQn_Type IRQn, uint32_t PreemptPriority, uint32_t SubPriority)
{ 
 80029ea:	b580      	push	{r7, lr}
 80029ec:	b086      	sub	sp, #24
 80029ee:	af00      	add	r7, sp, #0
 80029f0:	4603      	mov	r3, r0
 80029f2:	60b9      	str	r1, [r7, #8]
 80029f4:	607a      	str	r2, [r7, #4]
 80029f6:	73fb      	strb	r3, [r7, #15]
  uint32_t prioritygroup = 0x00U;
 80029f8:	2300      	movs	r3, #0
 80029fa:	617b      	str	r3, [r7, #20]
  
  /* Check the parameters */
  assert_param(IS_NVIC_SUB_PRIORITY(SubPriority));
  assert_param(IS_NVIC_PREEMPTION_PRIORITY(PreemptPriority));
  
  prioritygroup = NVIC_GetPriorityGrouping();
 80029fc:	f7ff ff64 	bl	80028c8 <__NVIC_GetPriorityGrouping>
 8002a00:	6178      	str	r0, [r7, #20]
  
  NVIC_SetPriority(IRQn, NVIC_EncodePriority(prioritygroup, PreemptPriority, SubPriority));
 8002a02:	687a      	ldr	r2, [r7, #4]
 8002a04:	68b9      	ldr	r1, [r7, #8]
 8002a06:	6978      	ldr	r0, [r7, #20]
 8002a08:	f7ff ffb2 	bl	8002970 <NVIC_EncodePriority>
 8002a0c:	4602      	mov	r2, r0
 8002a0e:	f997 300f 	ldrsb.w	r3, [r7, #15]
 8002a12:	4611      	mov	r1, r2
 8002a14:	4618      	mov	r0, r3
 8002a16:	f7ff ff81 	bl	800291c <__NVIC_SetPriority>
}
 8002a1a:	bf00      	nop
 8002a1c:	3718      	adds	r7, #24
 8002a1e:	46bd      	mov	sp, r7
 8002a20:	bd80      	pop	{r7, pc}

08002a22 <HAL_NVIC_EnableIRQ>:
  *         This parameter can be an enumerator of IRQn_Type enumeration
  *         (For the complete STM32 Devices IRQ Channels list, please refer to the appropriate CMSIS device file (stm32f10xxx.h))
  * @retval None
  */
void HAL_NVIC_EnableIRQ(IRQn_Type IRQn)
{
 8002a22:	b580      	push	{r7, lr}
 8002a24:	b082      	sub	sp, #8
 8002a26:	af00      	add	r7, sp, #0
 8002a28:	4603      	mov	r3, r0
 8002a2a:	71fb      	strb	r3, [r7, #7]
  /* Check the parameters */
  assert_param(IS_NVIC_DEVICE_IRQ(IRQn));

  /* Enable interrupt */
  NVIC_EnableIRQ(IRQn);
 8002a2c:	f997 3007 	ldrsb.w	r3, [r7, #7]
 8002a30:	4618      	mov	r0, r3
 8002a32:	f7ff ff57 	bl	80028e4 <__NVIC_EnableIRQ>
}
 8002a36:	bf00      	nop
 8002a38:	3708      	adds	r7, #8
 8002a3a:	46bd      	mov	sp, r7
 8002a3c:	bd80      	pop	{r7, pc}
	...

08002a40 <HAL_DMA_Init>:
  * @param  hdma: Pointer to a DMA_HandleTypeDef structure that contains
  *               the configuration information for the specified DMA Channel.
  * @retval HAL status
  */
HAL_StatusTypeDef HAL_DMA_Init(DMA_HandleTypeDef *hdma)
{
 8002a40:	b480      	push	{r7}
 8002a42:	b085      	sub	sp, #20
 8002a44:	af00      	add	r7, sp, #0
 8002a46:	6078      	str	r0, [r7, #4]
  uint32_t tmp = 0U;
 8002a48:	2300      	movs	r3, #0
 8002a4a:	60fb      	str	r3, [r7, #12]

  /* Check the DMA handle allocation */
  if(hdma == NULL)
 8002a4c:	687b      	ldr	r3, [r7, #4]
 8002a4e:	2b00      	cmp	r3, #0
 8002a50:	d101      	bne.n	8002a56 <HAL_DMA_Init+0x16>
  {
    return HAL_ERROR;
 8002a52:	2301      	movs	r3, #1
 8002a54:	e043      	b.n	8002ade <HAL_DMA_Init+0x9e>
    hdma->ChannelIndex = (((uint32_t)hdma->Instance - (uint32_t)DMA2_Channel1) / ((uint32_t)DMA2_Channel2 - (uint32_t)DMA2_Channel1)) << 2;
    hdma->DmaBaseAddress = DMA2;
  }
#else
  /* DMA1 */
  hdma->ChannelIndex = (((uint32_t)hdma->Instance - (uint32_t)DMA1_Channel1) / ((uint32_t)DMA1_Channel2 - (uint32_t)DMA1_Channel1)) << 2;
 8002a56:	687b      	ldr	r3, [r7, #4]
 8002a58:	681b      	ldr	r3, [r3, #0]
 8002a5a:	461a      	mov	r2, r3
 8002a5c:	4b22      	ldr	r3, [pc, #136]	; (8002ae8 <HAL_DMA_Init+0xa8>)
 8002a5e:	4413      	add	r3, r2
 8002a60:	4a22      	ldr	r2, [pc, #136]	; (8002aec <HAL_DMA_Init+0xac>)
 8002a62:	fba2 2303 	umull	r2, r3, r2, r3
 8002a66:	091b      	lsrs	r3, r3, #4
 8002a68:	009a      	lsls	r2, r3, #2
 8002a6a:	687b      	ldr	r3, [r7, #4]
 8002a6c:	641a      	str	r2, [r3, #64]	; 0x40
  hdma->DmaBaseAddress = DMA1;
 8002a6e:	687b      	ldr	r3, [r7, #4]
 8002a70:	4a1f      	ldr	r2, [pc, #124]	; (8002af0 <HAL_DMA_Init+0xb0>)
 8002a72:	63da      	str	r2, [r3, #60]	; 0x3c
#endif /* DMA2 */

  /* Change DMA peripheral state */
  hdma->State = HAL_DMA_STATE_BUSY;
 8002a74:	687b      	ldr	r3, [r7, #4]
 8002a76:	2202      	movs	r2, #2
 8002a78:	f883 2021 	strb.w	r2, [r3, #33]	; 0x21

  /* Get the CR register value */
  tmp = hdma->Instance->CCR;
 8002a7c:	687b      	ldr	r3, [r7, #4]
 8002a7e:	681b      	ldr	r3, [r3, #0]
 8002a80:	681b      	ldr	r3, [r3, #0]
 8002a82:	60fb      	str	r3, [r7, #12]

  /* Clear PL, MSIZE, PSIZE, MINC, PINC, CIRC and DIR bits */
  tmp &= ((uint32_t)~(DMA_CCR_PL    | DMA_CCR_MSIZE  | DMA_CCR_PSIZE  | \
 8002a84:	68fb      	ldr	r3, [r7, #12]
 8002a86:	f423 537f 	bic.w	r3, r3, #16320	; 0x3fc0
 8002a8a:	f023 0330 	bic.w	r3, r3, #48	; 0x30
 8002a8e:	60fb      	str	r3, [r7, #12]
                      DMA_CCR_MINC  | DMA_CCR_PINC   | DMA_CCR_CIRC   | \
                      DMA_CCR_DIR));

  /* Prepare the DMA Channel configuration */
  tmp |=  hdma->Init.Direction        |
 8002a90:	687b      	ldr	r3, [r7, #4]
 8002a92:	685a      	ldr	r2, [r3, #4]
          hdma->Init.PeriphInc           | hdma->Init.MemInc           |
 8002a94:	687b      	ldr	r3, [r7, #4]
 8002a96:	689b      	ldr	r3, [r3, #8]
  tmp |=  hdma->Init.Direction        |
 8002a98:	431a      	orrs	r2, r3
          hdma->Init.PeriphInc           | hdma->Init.MemInc           |
 8002a9a:	687b      	ldr	r3, [r7, #4]
 8002a9c:	68db      	ldr	r3, [r3, #12]
 8002a9e:	431a      	orrs	r2, r3
          hdma->Init.PeriphDataAlignment | hdma->Init.MemDataAlignment |
 8002aa0:	687b      	ldr	r3, [r7, #4]
 8002aa2:	691b      	ldr	r3, [r3, #16]
          hdma->Init.PeriphInc           | hdma->Init.MemInc           |
 8002aa4:	431a      	orrs	r2, r3
          hdma->Init.PeriphDataAlignment | hdma->Init.MemDataAlignment |
 8002aa6:	687b      	ldr	r3, [r7, #4]
 8002aa8:	695b      	ldr	r3, [r3, #20]
 8002aaa:	431a      	orrs	r2, r3
          hdma->Init.Mode                | hdma->Init.Priority;
 8002aac:	687b      	ldr	r3, [r7, #4]
 8002aae:	699b      	ldr	r3, [r3, #24]
          hdma->Init.PeriphDataAlignment | hdma->Init.MemDataAlignment |
 8002ab0:	431a      	orrs	r2, r3
          hdma->Init.Mode                | hdma->Init.Priority;
 8002ab2:	687b      	ldr	r3, [r7, #4]
 8002ab4:	69db      	ldr	r3, [r3, #28]
 8002ab6:	4313      	orrs	r3, r2
  tmp |=  hdma->Init.Direction        |
 8002ab8:	68fa      	ldr	r2, [r7, #12]
 8002aba:	4313      	orrs	r3, r2
 8002abc:	60fb      	str	r3, [r7, #12]

  /* Write to DMA Channel CR register */
  hdma->Instance->CCR = tmp;
 8002abe:	687b      	ldr	r3, [r7, #4]
 8002ac0:	681b      	ldr	r3, [r3, #0]
 8002ac2:	68fa      	ldr	r2, [r7, #12]
 8002ac4:	601a      	str	r2, [r3, #0]

  /* Initialise the error code */
  hdma->ErrorCode = HAL_DMA_ERROR_NONE;
 8002ac6:	687b      	ldr	r3, [r7, #4]
 8002ac8:	2200      	movs	r2, #0
 8002aca:	639a      	str	r2, [r3, #56]	; 0x38

  /* Initialize the DMA state*/
  hdma->State = HAL_DMA_STATE_READY;
 8002acc:	687b      	ldr	r3, [r7, #4]
 8002ace:	2201      	movs	r2, #1
 8002ad0:	f883 2021 	strb.w	r2, [r3, #33]	; 0x21
  /* Allocate lock resource and initialize it */
  hdma->Lock = HAL_UNLOCKED;
 8002ad4:	687b      	ldr	r3, [r7, #4]
 8002ad6:	2200      	movs	r2, #0
 8002ad8:	f883 2020 	strb.w	r2, [r3, #32]

  return HAL_OK;
 8002adc:	2300      	movs	r3, #0
}
 8002ade:	4618      	mov	r0, r3
 8002ae0:	3714      	adds	r7, #20
 8002ae2:	46bd      	mov	sp, r7
 8002ae4:	bc80      	pop	{r7}
 8002ae6:	4770      	bx	lr
 8002ae8:	bffdfff8 	.word	0xbffdfff8
 8002aec:	cccccccd 	.word	0xcccccccd
 8002af0:	40020000 	.word	0x40020000

08002af4 <HAL_DMA_Start_IT>:
  * @param  DstAddress: The destination memory Buffer address
  * @param  DataLength: The length of data to be transferred from source to destination
  * @retval HAL status
  */
HAL_StatusTypeDef HAL_DMA_Start_IT(DMA_HandleTypeDef *hdma, uint32_t SrcAddress, uint32_t DstAddress, uint32_t DataLength)
{
 8002af4:	b580      	push	{r7, lr}
 8002af6:	b086      	sub	sp, #24
 8002af8:	af00      	add	r7, sp, #0
 8002afa:	60f8      	str	r0, [r7, #12]
 8002afc:	60b9      	str	r1, [r7, #8]
 8002afe:	607a      	str	r2, [r7, #4]
 8002b00:	603b      	str	r3, [r7, #0]
  HAL_StatusTypeDef status = HAL_OK;
 8002b02:	2300      	movs	r3, #0
 8002b04:	75fb      	strb	r3, [r7, #23]

  /* Check the parameters */
  assert_param(IS_DMA_BUFFER_SIZE(DataLength));

  /* Process locked */
  __HAL_LOCK(hdma);
 8002b06:	68fb      	ldr	r3, [r7, #12]
 8002b08:	f893 3020 	ldrb.w	r3, [r3, #32]
 8002b0c:	2b01      	cmp	r3, #1
 8002b0e:	d101      	bne.n	8002b14 <HAL_DMA_Start_IT+0x20>
 8002b10:	2302      	movs	r3, #2
 8002b12:	e04a      	b.n	8002baa <HAL_DMA_Start_IT+0xb6>
 8002b14:	68fb      	ldr	r3, [r7, #12]
 8002b16:	2201      	movs	r2, #1
 8002b18:	f883 2020 	strb.w	r2, [r3, #32]
  
  if(HAL_DMA_STATE_READY == hdma->State)
 8002b1c:	68fb      	ldr	r3, [r7, #12]
 8002b1e:	f893 3021 	ldrb.w	r3, [r3, #33]	; 0x21
 8002b22:	2b01      	cmp	r3, #1
 8002b24:	d13a      	bne.n	8002b9c <HAL_DMA_Start_IT+0xa8>
  {
    /* Change DMA peripheral state */
    hdma->State = HAL_DMA_STATE_BUSY;
 8002b26:	68fb      	ldr	r3, [r7, #12]
 8002b28:	2202      	movs	r2, #2
 8002b2a:	f883 2021 	strb.w	r2, [r3, #33]	; 0x21
    hdma->ErrorCode = HAL_DMA_ERROR_NONE;
 8002b2e:	68fb      	ldr	r3, [r7, #12]
 8002b30:	2200      	movs	r2, #0
 8002b32:	639a      	str	r2, [r3, #56]	; 0x38
    
    /* Disable the peripheral */
    __HAL_DMA_DISABLE(hdma);
 8002b34:	68fb      	ldr	r3, [r7, #12]
 8002b36:	681b      	ldr	r3, [r3, #0]
 8002b38:	681a      	ldr	r2, [r3, #0]
 8002b3a:	68fb      	ldr	r3, [r7, #12]
 8002b3c:	681b      	ldr	r3, [r3, #0]
 8002b3e:	f022 0201 	bic.w	r2, r2, #1
 8002b42:	601a      	str	r2, [r3, #0]
    
    /* Configure the source, destination address and the data length & clear flags*/
    DMA_SetConfig(hdma, SrcAddress, DstAddress, DataLength);
 8002b44:	683b      	ldr	r3, [r7, #0]
 8002b46:	687a      	ldr	r2, [r7, #4]
 8002b48:	68b9      	ldr	r1, [r7, #8]
 8002b4a:	68f8      	ldr	r0, [r7, #12]
 8002b4c:	f000 f9f3 	bl	8002f36 <DMA_SetConfig>
    
    /* Enable the transfer complete interrupt */
    /* Enable the transfer Error interrupt */
    if(NULL != hdma->XferHalfCpltCallback)
 8002b50:	68fb      	ldr	r3, [r7, #12]
 8002b52:	6adb      	ldr	r3, [r3, #44]	; 0x2c
 8002b54:	2b00      	cmp	r3, #0
 8002b56:	d008      	beq.n	8002b6a <HAL_DMA_Start_IT+0x76>
    {
      /* Enable the Half transfer complete interrupt as well */
      __HAL_DMA_ENABLE_IT(hdma, (DMA_IT_TC | DMA_IT_HT | DMA_IT_TE));
 8002b58:	68fb      	ldr	r3, [r7, #12]
 8002b5a:	681b      	ldr	r3, [r3, #0]
 8002b5c:	681a      	ldr	r2, [r3, #0]
 8002b5e:	68fb      	ldr	r3, [r7, #12]
 8002b60:	681b      	ldr	r3, [r3, #0]
 8002b62:	f042 020e 	orr.w	r2, r2, #14
 8002b66:	601a      	str	r2, [r3, #0]
 8002b68:	e00f      	b.n	8002b8a <HAL_DMA_Start_IT+0x96>
    }
    else
    {
      __HAL_DMA_DISABLE_IT(hdma, DMA_IT_HT);
 8002b6a:	68fb      	ldr	r3, [r7, #12]
 8002b6c:	681b      	ldr	r3, [r3, #0]
 8002b6e:	681a      	ldr	r2, [r3, #0]
 8002b70:	68fb      	ldr	r3, [r7, #12]
 8002b72:	681b      	ldr	r3, [r3, #0]
 8002b74:	f022 0204 	bic.w	r2, r2, #4
 8002b78:	601a      	str	r2, [r3, #0]
      __HAL_DMA_ENABLE_IT(hdma, (DMA_IT_TC | DMA_IT_TE));
 8002b7a:	68fb      	ldr	r3, [r7, #12]
 8002b7c:	681b      	ldr	r3, [r3, #0]
 8002b7e:	681a      	ldr	r2, [r3, #0]
 8002b80:	68fb      	ldr	r3, [r7, #12]
 8002b82:	681b      	ldr	r3, [r3, #0]
 8002b84:	f042 020a 	orr.w	r2, r2, #10
 8002b88:	601a      	str	r2, [r3, #0]
    }
    /* Enable the Peripheral */
    __HAL_DMA_ENABLE(hdma);
 8002b8a:	68fb      	ldr	r3, [r7, #12]
 8002b8c:	681b      	ldr	r3, [r3, #0]
 8002b8e:	681a      	ldr	r2, [r3, #0]
 8002b90:	68fb      	ldr	r3, [r7, #12]
 8002b92:	681b      	ldr	r3, [r3, #0]
 8002b94:	f042 0201 	orr.w	r2, r2, #1
 8002b98:	601a      	str	r2, [r3, #0]
 8002b9a:	e005      	b.n	8002ba8 <HAL_DMA_Start_IT+0xb4>
  }
  else
  {      
    /* Process Unlocked */
    __HAL_UNLOCK(hdma); 
 8002b9c:	68fb      	ldr	r3, [r7, #12]
 8002b9e:	2200      	movs	r2, #0
 8002ba0:	f883 2020 	strb.w	r2, [r3, #32]

    /* Remain BUSY */
    status = HAL_BUSY;
 8002ba4:	2302      	movs	r3, #2
 8002ba6:	75fb      	strb	r3, [r7, #23]
  }    
  return status;
 8002ba8:	7dfb      	ldrb	r3, [r7, #23]
}
 8002baa:	4618      	mov	r0, r3
 8002bac:	3718      	adds	r7, #24
 8002bae:	46bd      	mov	sp, r7
 8002bb0:	bd80      	pop	{r7, pc}

08002bb2 <HAL_DMA_Abort>:
  * @param  hdma: pointer to a DMA_HandleTypeDef structure that contains
  *               the configuration information for the specified DMA Channel.
  * @retval HAL status
  */
HAL_StatusTypeDef HAL_DMA_Abort(DMA_HandleTypeDef *hdma)
{
 8002bb2:	b480      	push	{r7}
 8002bb4:	b085      	sub	sp, #20
 8002bb6:	af00      	add	r7, sp, #0
 8002bb8:	6078      	str	r0, [r7, #4]
  HAL_StatusTypeDef status = HAL_OK;
 8002bba:	2300      	movs	r3, #0
 8002bbc:	73fb      	strb	r3, [r7, #15]
  
  if(hdma->State != HAL_DMA_STATE_BUSY)
 8002bbe:	687b      	ldr	r3, [r7, #4]
 8002bc0:	f893 3021 	ldrb.w	r3, [r3, #33]	; 0x21
 8002bc4:	2b02      	cmp	r3, #2
 8002bc6:	d008      	beq.n	8002bda <HAL_DMA_Abort+0x28>
  {
    /* no transfer ongoing */
    hdma->ErrorCode = HAL_DMA_ERROR_NO_XFER;
 8002bc8:	687b      	ldr	r3, [r7, #4]
 8002bca:	2204      	movs	r2, #4
 8002bcc:	639a      	str	r2, [r3, #56]	; 0x38
    
    /* Process Unlocked */
    __HAL_UNLOCK(hdma);
 8002bce:	687b      	ldr	r3, [r7, #4]
 8002bd0:	2200      	movs	r2, #0
 8002bd2:	f883 2020 	strb.w	r2, [r3, #32]
    
    return HAL_ERROR;
 8002bd6:	2301      	movs	r3, #1
 8002bd8:	e020      	b.n	8002c1c <HAL_DMA_Abort+0x6a>
  }
  else

  {
    /* Disable DMA IT */
    __HAL_DMA_DISABLE_IT(hdma, (DMA_IT_TC | DMA_IT_HT | DMA_IT_TE));
 8002bda:	687b      	ldr	r3, [r7, #4]
 8002bdc:	681b      	ldr	r3, [r3, #0]
 8002bde:	681a      	ldr	r2, [r3, #0]
 8002be0:	687b      	ldr	r3, [r7, #4]
 8002be2:	681b      	ldr	r3, [r3, #0]
 8002be4:	f022 020e 	bic.w	r2, r2, #14
 8002be8:	601a      	str	r2, [r3, #0]
      
    /* Disable the channel */
    __HAL_DMA_DISABLE(hdma);
 8002bea:	687b      	ldr	r3, [r7, #4]
 8002bec:	681b      	ldr	r3, [r3, #0]
 8002bee:	681a      	ldr	r2, [r3, #0]
 8002bf0:	687b      	ldr	r3, [r7, #4]
 8002bf2:	681b      	ldr	r3, [r3, #0]
 8002bf4:	f022 0201 	bic.w	r2, r2, #1
 8002bf8:	601a      	str	r2, [r3, #0]
      
    /* Clear all flags */
    hdma->DmaBaseAddress->IFCR = (DMA_ISR_GIF1 << hdma->ChannelIndex);
 8002bfa:	687b      	ldr	r3, [r7, #4]
 8002bfc:	6c1a      	ldr	r2, [r3, #64]	; 0x40
 8002bfe:	687b      	ldr	r3, [r7, #4]
 8002c00:	6bdb      	ldr	r3, [r3, #60]	; 0x3c
 8002c02:	2101      	movs	r1, #1
 8002c04:	fa01 f202 	lsl.w	r2, r1, r2
 8002c08:	605a      	str	r2, [r3, #4]
  }
  /* Change the DMA state */
  hdma->State = HAL_DMA_STATE_READY;
 8002c0a:	687b      	ldr	r3, [r7, #4]
 8002c0c:	2201      	movs	r2, #1
 8002c0e:	f883 2021 	strb.w	r2, [r3, #33]	; 0x21

  /* Process Unlocked */
  __HAL_UNLOCK(hdma);      
 8002c12:	687b      	ldr	r3, [r7, #4]
 8002c14:	2200      	movs	r2, #0
 8002c16:	f883 2020 	strb.w	r2, [r3, #32]
  
  return status; 
 8002c1a:	7bfb      	ldrb	r3, [r7, #15]
}
 8002c1c:	4618      	mov	r0, r3
 8002c1e:	3714      	adds	r7, #20
 8002c20:	46bd      	mov	sp, r7
 8002c22:	bc80      	pop	{r7}
 8002c24:	4770      	bx	lr
	...

08002c28 <HAL_DMA_Abort_IT>:
  * @param  hdma  : pointer to a DMA_HandleTypeDef structure that contains
  *                 the configuration information for the specified DMA Channel.
  * @retval HAL status
  */
HAL_StatusTypeDef HAL_DMA_Abort_IT(DMA_HandleTypeDef *hdma)
{  
 8002c28:	b580      	push	{r7, lr}
 8002c2a:	b084      	sub	sp, #16
 8002c2c:	af00      	add	r7, sp, #0
 8002c2e:	6078      	str	r0, [r7, #4]
  HAL_StatusTypeDef status = HAL_OK;
 8002c30:	2300      	movs	r3, #0
 8002c32:	73fb      	strb	r3, [r7, #15]
  
  if(HAL_DMA_STATE_BUSY != hdma->State)
 8002c34:	687b      	ldr	r3, [r7, #4]
 8002c36:	f893 3021 	ldrb.w	r3, [r3, #33]	; 0x21
 8002c3a:	2b02      	cmp	r3, #2
 8002c3c:	d005      	beq.n	8002c4a <HAL_DMA_Abort_IT+0x22>
  {
    /* no transfer ongoing */
    hdma->ErrorCode = HAL_DMA_ERROR_NO_XFER;
 8002c3e:	687b      	ldr	r3, [r7, #4]
 8002c40:	2204      	movs	r2, #4
 8002c42:	639a      	str	r2, [r3, #56]	; 0x38
        
    status = HAL_ERROR;
 8002c44:	2301      	movs	r3, #1
 8002c46:	73fb      	strb	r3, [r7, #15]
 8002c48:	e051      	b.n	8002cee <HAL_DMA_Abort_IT+0xc6>
  }
  else
  { 
    /* Disable DMA IT */
    __HAL_DMA_DISABLE_IT(hdma, (DMA_IT_TC | DMA_IT_HT | DMA_IT_TE));
 8002c4a:	687b      	ldr	r3, [r7, #4]
 8002c4c:	681b      	ldr	r3, [r3, #0]
 8002c4e:	681a      	ldr	r2, [r3, #0]
 8002c50:	687b      	ldr	r3, [r7, #4]
 8002c52:	681b      	ldr	r3, [r3, #0]
 8002c54:	f022 020e 	bic.w	r2, r2, #14
 8002c58:	601a      	str	r2, [r3, #0]

    /* Disable the channel */
    __HAL_DMA_DISABLE(hdma);
 8002c5a:	687b      	ldr	r3, [r7, #4]
 8002c5c:	681b      	ldr	r3, [r3, #0]
 8002c5e:	681a      	ldr	r2, [r3, #0]
 8002c60:	687b      	ldr	r3, [r7, #4]
 8002c62:	681b      	ldr	r3, [r3, #0]
 8002c64:	f022 0201 	bic.w	r2, r2, #1
 8002c68:	601a      	str	r2, [r3, #0]

    /* Clear all flags */
    __HAL_DMA_CLEAR_FLAG(hdma, __HAL_DMA_GET_GI_FLAG_INDEX(hdma));
 8002c6a:	687b      	ldr	r3, [r7, #4]
 8002c6c:	681b      	ldr	r3, [r3, #0]
 8002c6e:	4a22      	ldr	r2, [pc, #136]	; (8002cf8 <HAL_DMA_Abort_IT+0xd0>)
 8002c70:	4293      	cmp	r3, r2
 8002c72:	d029      	beq.n	8002cc8 <HAL_DMA_Abort_IT+0xa0>
 8002c74:	687b      	ldr	r3, [r7, #4]
 8002c76:	681b      	ldr	r3, [r3, #0]
 8002c78:	4a20      	ldr	r2, [pc, #128]	; (8002cfc <HAL_DMA_Abort_IT+0xd4>)
 8002c7a:	4293      	cmp	r3, r2
 8002c7c:	d022      	beq.n	8002cc4 <HAL_DMA_Abort_IT+0x9c>
 8002c7e:	687b      	ldr	r3, [r7, #4]
 8002c80:	681b      	ldr	r3, [r3, #0]
 8002c82:	4a1f      	ldr	r2, [pc, #124]	; (8002d00 <HAL_DMA_Abort_IT+0xd8>)
 8002c84:	4293      	cmp	r3, r2
 8002c86:	d01a      	beq.n	8002cbe <HAL_DMA_Abort_IT+0x96>
 8002c88:	687b      	ldr	r3, [r7, #4]
 8002c8a:	681b      	ldr	r3, [r3, #0]
 8002c8c:	4a1d      	ldr	r2, [pc, #116]	; (8002d04 <HAL_DMA_Abort_IT+0xdc>)
 8002c8e:	4293      	cmp	r3, r2
 8002c90:	d012      	beq.n	8002cb8 <HAL_DMA_Abort_IT+0x90>
 8002c92:	687b      	ldr	r3, [r7, #4]
 8002c94:	681b      	ldr	r3, [r3, #0]
 8002c96:	4a1c      	ldr	r2, [pc, #112]	; (8002d08 <HAL_DMA_Abort_IT+0xe0>)
 8002c98:	4293      	cmp	r3, r2
 8002c9a:	d00a      	beq.n	8002cb2 <HAL_DMA_Abort_IT+0x8a>
 8002c9c:	687b      	ldr	r3, [r7, #4]
 8002c9e:	681b      	ldr	r3, [r3, #0]
 8002ca0:	4a1a      	ldr	r2, [pc, #104]	; (8002d0c <HAL_DMA_Abort_IT+0xe4>)
 8002ca2:	4293      	cmp	r3, r2
 8002ca4:	d102      	bne.n	8002cac <HAL_DMA_Abort_IT+0x84>
 8002ca6:	f44f 1380 	mov.w	r3, #1048576	; 0x100000
 8002caa:	e00e      	b.n	8002cca <HAL_DMA_Abort_IT+0xa2>
 8002cac:	f04f 7380 	mov.w	r3, #16777216	; 0x1000000
 8002cb0:	e00b      	b.n	8002cca <HAL_DMA_Abort_IT+0xa2>
 8002cb2:	f44f 3380 	mov.w	r3, #65536	; 0x10000
 8002cb6:	e008      	b.n	8002cca <HAL_DMA_Abort_IT+0xa2>
 8002cb8:	f44f 5380 	mov.w	r3, #4096	; 0x1000
 8002cbc:	e005      	b.n	8002cca <HAL_DMA_Abort_IT+0xa2>
 8002cbe:	f44f 7380 	mov.w	r3, #256	; 0x100
 8002cc2:	e002      	b.n	8002cca <HAL_DMA_Abort_IT+0xa2>
 8002cc4:	2310      	movs	r3, #16
 8002cc6:	e000      	b.n	8002cca <HAL_DMA_Abort_IT+0xa2>
 8002cc8:	2301      	movs	r3, #1
 8002cca:	4a11      	ldr	r2, [pc, #68]	; (8002d10 <HAL_DMA_Abort_IT+0xe8>)
 8002ccc:	6053      	str	r3, [r2, #4]

    /* Change the DMA state */
    hdma->State = HAL_DMA_STATE_READY;
 8002cce:	687b      	ldr	r3, [r7, #4]
 8002cd0:	2201      	movs	r2, #1
 8002cd2:	f883 2021 	strb.w	r2, [r3, #33]	; 0x21

    /* Process Unlocked */
    __HAL_UNLOCK(hdma);
 8002cd6:	687b      	ldr	r3, [r7, #4]
 8002cd8:	2200      	movs	r2, #0
 8002cda:	f883 2020 	strb.w	r2, [r3, #32]

    /* Call User Abort callback */
    if(hdma->XferAbortCallback != NULL)
 8002cde:	687b      	ldr	r3, [r7, #4]
 8002ce0:	6b5b      	ldr	r3, [r3, #52]	; 0x34
 8002ce2:	2b00      	cmp	r3, #0
 8002ce4:	d003      	beq.n	8002cee <HAL_DMA_Abort_IT+0xc6>
    {
      hdma->XferAbortCallback(hdma);
 8002ce6:	687b      	ldr	r3, [r7, #4]
 8002ce8:	6b5b      	ldr	r3, [r3, #52]	; 0x34
 8002cea:	6878      	ldr	r0, [r7, #4]
 8002cec:	4798      	blx	r3
    } 
  }
  return status;
 8002cee:	7bfb      	ldrb	r3, [r7, #15]
}
 8002cf0:	4618      	mov	r0, r3
 8002cf2:	3710      	adds	r7, #16
 8002cf4:	46bd      	mov	sp, r7
 8002cf6:	bd80      	pop	{r7, pc}
 8002cf8:	40020008 	.word	0x40020008
 8002cfc:	4002001c 	.word	0x4002001c
 8002d00:	40020030 	.word	0x40020030
 8002d04:	40020044 	.word	0x40020044
 8002d08:	40020058 	.word	0x40020058
 8002d0c:	4002006c 	.word	0x4002006c
 8002d10:	40020000 	.word	0x40020000

08002d14 <HAL_DMA_IRQHandler>:
  * @param  hdma: pointer to a DMA_HandleTypeDef structure that contains
  *               the configuration information for the specified DMA Channel.  
  * @retval None
  */
void HAL_DMA_IRQHandler(DMA_HandleTypeDef *hdma)
{
 8002d14:	b580      	push	{r7, lr}
 8002d16:	b084      	sub	sp, #16
 8002d18:	af00      	add	r7, sp, #0
 8002d1a:	6078      	str	r0, [r7, #4]
  uint32_t flag_it = hdma->DmaBaseAddress->ISR;
 8002d1c:	687b      	ldr	r3, [r7, #4]
 8002d1e:	6bdb      	ldr	r3, [r3, #60]	; 0x3c
 8002d20:	681b      	ldr	r3, [r3, #0]
 8002d22:	60fb      	str	r3, [r7, #12]
  uint32_t source_it = hdma->Instance->CCR;
 8002d24:	687b      	ldr	r3, [r7, #4]
 8002d26:	681b      	ldr	r3, [r3, #0]
 8002d28:	681b      	ldr	r3, [r3, #0]
 8002d2a:	60bb      	str	r3, [r7, #8]
  
  /* Half Transfer Complete Interrupt management ******************************/
  if (((flag_it & (DMA_FLAG_HT1 << hdma->ChannelIndex)) != RESET) && ((source_it & DMA_IT_HT) != RESET))
 8002d2c:	687b      	ldr	r3, [r7, #4]
 8002d2e:	6c1b      	ldr	r3, [r3, #64]	; 0x40
 8002d30:	2204      	movs	r2, #4
 8002d32:	409a      	lsls	r2, r3
 8002d34:	68fb      	ldr	r3, [r7, #12]
 8002d36:	4013      	ands	r3, r2
 8002d38:	2b00      	cmp	r3, #0
 8002d3a:	d04f      	beq.n	8002ddc <HAL_DMA_IRQHandler+0xc8>
 8002d3c:	68bb      	ldr	r3, [r7, #8]
 8002d3e:	f003 0304 	and.w	r3, r3, #4
 8002d42:	2b00      	cmp	r3, #0
 8002d44:	d04a      	beq.n	8002ddc <HAL_DMA_IRQHandler+0xc8>
  {
    /* Disable the half transfer interrupt if the DMA mode is not CIRCULAR */
    if((hdma->Instance->CCR & DMA_CCR_CIRC) == 0U)
 8002d46:	687b      	ldr	r3, [r7, #4]
 8002d48:	681b      	ldr	r3, [r3, #0]
 8002d4a:	681b      	ldr	r3, [r3, #0]
 8002d4c:	f003 0320 	and.w	r3, r3, #32
 8002d50:	2b00      	cmp	r3, #0
 8002d52:	d107      	bne.n	8002d64 <HAL_DMA_IRQHandler+0x50>
    {
      /* Disable the half transfer interrupt */
      __HAL_DMA_DISABLE_IT(hdma, DMA_IT_HT);
 8002d54:	687b      	ldr	r3, [r7, #4]
 8002d56:	681b      	ldr	r3, [r3, #0]
 8002d58:	681a      	ldr	r2, [r3, #0]
 8002d5a:	687b      	ldr	r3, [r7, #4]
 8002d5c:	681b      	ldr	r3, [r3, #0]
 8002d5e:	f022 0204 	bic.w	r2, r2, #4
 8002d62:	601a      	str	r2, [r3, #0]
    }
    /* Clear the half transfer complete flag */
    __HAL_DMA_CLEAR_FLAG(hdma, __HAL_DMA_GET_HT_FLAG_INDEX(hdma));
 8002d64:	687b      	ldr	r3, [r7, #4]
 8002d66:	681b      	ldr	r3, [r3, #0]
 8002d68:	4a66      	ldr	r2, [pc, #408]	; (8002f04 <HAL_DMA_IRQHandler+0x1f0>)
 8002d6a:	4293      	cmp	r3, r2
 8002d6c:	d029      	beq.n	8002dc2 <HAL_DMA_IRQHandler+0xae>
 8002d6e:	687b      	ldr	r3, [r7, #4]
 8002d70:	681b      	ldr	r3, [r3, #0]
 8002d72:	4a65      	ldr	r2, [pc, #404]	; (8002f08 <HAL_DMA_IRQHandler+0x1f4>)
 8002d74:	4293      	cmp	r3, r2
 8002d76:	d022      	beq.n	8002dbe <HAL_DMA_IRQHandler+0xaa>
 8002d78:	687b      	ldr	r3, [r7, #4]
 8002d7a:	681b      	ldr	r3, [r3, #0]
 8002d7c:	4a63      	ldr	r2, [pc, #396]	; (8002f0c <HAL_DMA_IRQHandler+0x1f8>)
 8002d7e:	4293      	cmp	r3, r2
 8002d80:	d01a      	beq.n	8002db8 <HAL_DMA_IRQHandler+0xa4>
 8002d82:	687b      	ldr	r3, [r7, #4]
 8002d84:	681b      	ldr	r3, [r3, #0]
 8002d86:	4a62      	ldr	r2, [pc, #392]	; (8002f10 <HAL_DMA_IRQHandler+0x1fc>)
 8002d88:	4293      	cmp	r3, r2
 8002d8a:	d012      	beq.n	8002db2 <HAL_DMA_IRQHandler+0x9e>
 8002d8c:	687b      	ldr	r3, [r7, #4]
 8002d8e:	681b      	ldr	r3, [r3, #0]
 8002d90:	4a60      	ldr	r2, [pc, #384]	; (8002f14 <HAL_DMA_IRQHandler+0x200>)
 8002d92:	4293      	cmp	r3, r2
 8002d94:	d00a      	beq.n	8002dac <HAL_DMA_IRQHandler+0x98>
 8002d96:	687b      	ldr	r3, [r7, #4]
 8002d98:	681b      	ldr	r3, [r3, #0]
 8002d9a:	4a5f      	ldr	r2, [pc, #380]	; (8002f18 <HAL_DMA_IRQHandler+0x204>)
 8002d9c:	4293      	cmp	r3, r2
 8002d9e:	d102      	bne.n	8002da6 <HAL_DMA_IRQHandler+0x92>
 8002da0:	f44f 0380 	mov.w	r3, #4194304	; 0x400000
 8002da4:	e00e      	b.n	8002dc4 <HAL_DMA_IRQHandler+0xb0>
 8002da6:	f04f 6380 	mov.w	r3, #67108864	; 0x4000000
 8002daa:	e00b      	b.n	8002dc4 <HAL_DMA_IRQHandler+0xb0>
 8002dac:	f44f 2380 	mov.w	r3, #262144	; 0x40000
 8002db0:	e008      	b.n	8002dc4 <HAL_DMA_IRQHandler+0xb0>
 8002db2:	f44f 4380 	mov.w	r3, #16384	; 0x4000
 8002db6:	e005      	b.n	8002dc4 <HAL_DMA_IRQHandler+0xb0>
 8002db8:	f44f 6380 	mov.w	r3, #1024	; 0x400
 8002dbc:	e002      	b.n	8002dc4 <HAL_DMA_IRQHandler+0xb0>
 8002dbe:	2340      	movs	r3, #64	; 0x40
 8002dc0:	e000      	b.n	8002dc4 <HAL_DMA_IRQHandler+0xb0>
 8002dc2:	2304      	movs	r3, #4
 8002dc4:	4a55      	ldr	r2, [pc, #340]	; (8002f1c <HAL_DMA_IRQHandler+0x208>)
 8002dc6:	6053      	str	r3, [r2, #4]

    /* DMA peripheral state is not updated in Half Transfer */
    /* but in Transfer Complete case */

    if(hdma->XferHalfCpltCallback != NULL)
 8002dc8:	687b      	ldr	r3, [r7, #4]
 8002dca:	6adb      	ldr	r3, [r3, #44]	; 0x2c
 8002dcc:	2b00      	cmp	r3, #0
 8002dce:	f000 8094 	beq.w	8002efa <HAL_DMA_IRQHandler+0x1e6>
    {
      /* Half transfer callback */
      hdma->XferHalfCpltCallback(hdma);
 8002dd2:	687b      	ldr	r3, [r7, #4]
 8002dd4:	6adb      	ldr	r3, [r3, #44]	; 0x2c
 8002dd6:	6878      	ldr	r0, [r7, #4]
 8002dd8:	4798      	blx	r3
    if(hdma->XferHalfCpltCallback != NULL)
 8002dda:	e08e      	b.n	8002efa <HAL_DMA_IRQHandler+0x1e6>
    }
  }

  /* Transfer Complete Interrupt management ***********************************/
  else if (((flag_it & (DMA_FLAG_TC1 << hdma->ChannelIndex)) != RESET) && ((source_it & DMA_IT_TC) != RESET))
 8002ddc:	687b      	ldr	r3, [r7, #4]
 8002dde:	6c1b      	ldr	r3, [r3, #64]	; 0x40
 8002de0:	2202      	movs	r2, #2
 8002de2:	409a      	lsls	r2, r3
 8002de4:	68fb      	ldr	r3, [r7, #12]
 8002de6:	4013      	ands	r3, r2
 8002de8:	2b00      	cmp	r3, #0
 8002dea:	d056      	beq.n	8002e9a <HAL_DMA_IRQHandler+0x186>
 8002dec:	68bb      	ldr	r3, [r7, #8]
 8002dee:	f003 0302 	and.w	r3, r3, #2
 8002df2:	2b00      	cmp	r3, #0
 8002df4:	d051      	beq.n	8002e9a <HAL_DMA_IRQHandler+0x186>
  {
    if((hdma->Instance->CCR & DMA_CCR_CIRC) == 0U)
 8002df6:	687b      	ldr	r3, [r7, #4]
 8002df8:	681b      	ldr	r3, [r3, #0]
 8002dfa:	681b      	ldr	r3, [r3, #0]
 8002dfc:	f003 0320 	and.w	r3, r3, #32
 8002e00:	2b00      	cmp	r3, #0
 8002e02:	d10b      	bne.n	8002e1c <HAL_DMA_IRQHandler+0x108>
    {
      /* Disable the transfer complete and error interrupt */
      __HAL_DMA_DISABLE_IT(hdma, DMA_IT_TE | DMA_IT_TC);  
 8002e04:	687b      	ldr	r3, [r7, #4]
 8002e06:	681b      	ldr	r3, [r3, #0]
 8002e08:	681a      	ldr	r2, [r3, #0]
 8002e0a:	687b      	ldr	r3, [r7, #4]
 8002e0c:	681b      	ldr	r3, [r3, #0]
 8002e0e:	f022 020a 	bic.w	r2, r2, #10
 8002e12:	601a      	str	r2, [r3, #0]

      /* Change the DMA state */
      hdma->State = HAL_DMA_STATE_READY;
 8002e14:	687b      	ldr	r3, [r7, #4]
 8002e16:	2201      	movs	r2, #1
 8002e18:	f883 2021 	strb.w	r2, [r3, #33]	; 0x21
    }
    /* Clear the transfer complete flag */
      __HAL_DMA_CLEAR_FLAG(hdma, __HAL_DMA_GET_TC_FLAG_INDEX(hdma));
 8002e1c:	687b      	ldr	r3, [r7, #4]
 8002e1e:	681b      	ldr	r3, [r3, #0]
 8002e20:	4a38      	ldr	r2, [pc, #224]	; (8002f04 <HAL_DMA_IRQHandler+0x1f0>)
 8002e22:	4293      	cmp	r3, r2
 8002e24:	d029      	beq.n	8002e7a <HAL_DMA_IRQHandler+0x166>
 8002e26:	687b      	ldr	r3, [r7, #4]
 8002e28:	681b      	ldr	r3, [r3, #0]
 8002e2a:	4a37      	ldr	r2, [pc, #220]	; (8002f08 <HAL_DMA_IRQHandler+0x1f4>)
 8002e2c:	4293      	cmp	r3, r2
 8002e2e:	d022      	beq.n	8002e76 <HAL_DMA_IRQHandler+0x162>
 8002e30:	687b      	ldr	r3, [r7, #4]
 8002e32:	681b      	ldr	r3, [r3, #0]
 8002e34:	4a35      	ldr	r2, [pc, #212]	; (8002f0c <HAL_DMA_IRQHandler+0x1f8>)
 8002e36:	4293      	cmp	r3, r2
 8002e38:	d01a      	beq.n	8002e70 <HAL_DMA_IRQHandler+0x15c>
 8002e3a:	687b      	ldr	r3, [r7, #4]
 8002e3c:	681b      	ldr	r3, [r3, #0]
 8002e3e:	4a34      	ldr	r2, [pc, #208]	; (8002f10 <HAL_DMA_IRQHandler+0x1fc>)
 8002e40:	4293      	cmp	r3, r2
 8002e42:	d012      	beq.n	8002e6a <HAL_DMA_IRQHandler+0x156>
 8002e44:	687b      	ldr	r3, [r7, #4]
 8002e46:	681b      	ldr	r3, [r3, #0]
 8002e48:	4a32      	ldr	r2, [pc, #200]	; (8002f14 <HAL_DMA_IRQHandler+0x200>)
 8002e4a:	4293      	cmp	r3, r2
 8002e4c:	d00a      	beq.n	8002e64 <HAL_DMA_IRQHandler+0x150>
 8002e4e:	687b      	ldr	r3, [r7, #4]
 8002e50:	681b      	ldr	r3, [r3, #0]
 8002e52:	4a31      	ldr	r2, [pc, #196]	; (8002f18 <HAL_DMA_IRQHandler+0x204>)
 8002e54:	4293      	cmp	r3, r2
 8002e56:	d102      	bne.n	8002e5e <HAL_DMA_IRQHandler+0x14a>
 8002e58:	f44f 1300 	mov.w	r3, #2097152	; 0x200000
 8002e5c:	e00e      	b.n	8002e7c <HAL_DMA_IRQHandler+0x168>
 8002e5e:	f04f 7300 	mov.w	r3, #33554432	; 0x2000000
 8002e62:	e00b      	b.n	8002e7c <HAL_DMA_IRQHandler+0x168>
 8002e64:	f44f 3300 	mov.w	r3, #131072	; 0x20000
 8002e68:	e008      	b.n	8002e7c <HAL_DMA_IRQHandler+0x168>
 8002e6a:	f44f 5300 	mov.w	r3, #8192	; 0x2000
 8002e6e:	e005      	b.n	8002e7c <HAL_DMA_IRQHandler+0x168>
 8002e70:	f44f 7300 	mov.w	r3, #512	; 0x200
 8002e74:	e002      	b.n	8002e7c <HAL_DMA_IRQHandler+0x168>
 8002e76:	2320      	movs	r3, #32
 8002e78:	e000      	b.n	8002e7c <HAL_DMA_IRQHandler+0x168>
 8002e7a:	2302      	movs	r3, #2
 8002e7c:	4a27      	ldr	r2, [pc, #156]	; (8002f1c <HAL_DMA_IRQHandler+0x208>)
 8002e7e:	6053      	str	r3, [r2, #4]

    /* Process Unlocked */
    __HAL_UNLOCK(hdma);
 8002e80:	687b      	ldr	r3, [r7, #4]
 8002e82:	2200      	movs	r2, #0
 8002e84:	f883 2020 	strb.w	r2, [r3, #32]

    if(hdma->XferCpltCallback != NULL)
 8002e88:	687b      	ldr	r3, [r7, #4]
 8002e8a:	6a9b      	ldr	r3, [r3, #40]	; 0x28
 8002e8c:	2b00      	cmp	r3, #0
 8002e8e:	d034      	beq.n	8002efa <HAL_DMA_IRQHandler+0x1e6>
    {
      /* Transfer complete callback */
      hdma->XferCpltCallback(hdma);
 8002e90:	687b      	ldr	r3, [r7, #4]
 8002e92:	6a9b      	ldr	r3, [r3, #40]	; 0x28
 8002e94:	6878      	ldr	r0, [r7, #4]
 8002e96:	4798      	blx	r3
    if(hdma->XferCpltCallback != NULL)
 8002e98:	e02f      	b.n	8002efa <HAL_DMA_IRQHandler+0x1e6>
    }
  }

  /* Transfer Error Interrupt management **************************************/
  else if (( RESET != (flag_it & (DMA_FLAG_TE1 << hdma->ChannelIndex))) && (RESET != (source_it & DMA_IT_TE)))
 8002e9a:	687b      	ldr	r3, [r7, #4]
 8002e9c:	6c1b      	ldr	r3, [r3, #64]	; 0x40
 8002e9e:	2208      	movs	r2, #8
 8002ea0:	409a      	lsls	r2, r3
 8002ea2:	68fb      	ldr	r3, [r7, #12]
 8002ea4:	4013      	ands	r3, r2
 8002ea6:	2b00      	cmp	r3, #0
 8002ea8:	d028      	beq.n	8002efc <HAL_DMA_IRQHandler+0x1e8>
 8002eaa:	68bb      	ldr	r3, [r7, #8]
 8002eac:	f003 0308 	and.w	r3, r3, #8
 8002eb0:	2b00      	cmp	r3, #0
 8002eb2:	d023      	beq.n	8002efc <HAL_DMA_IRQHandler+0x1e8>
  {
    /* When a DMA transfer error occurs */
    /* A hardware clear of its EN bits is performed */
    /* Disable ALL DMA IT */
    __HAL_DMA_DISABLE_IT(hdma, (DMA_IT_TC | DMA_IT_HT | DMA_IT_TE));
 8002eb4:	687b      	ldr	r3, [r7, #4]
 8002eb6:	681b      	ldr	r3, [r3, #0]
 8002eb8:	681a      	ldr	r2, [r3, #0]
 8002eba:	687b      	ldr	r3, [r7, #4]
 8002ebc:	681b      	ldr	r3, [r3, #0]
 8002ebe:	f022 020e 	bic.w	r2, r2, #14
 8002ec2:	601a      	str	r2, [r3, #0]

    /* Clear all flags */
    hdma->DmaBaseAddress->IFCR = (DMA_ISR_GIF1 << hdma->ChannelIndex);
 8002ec4:	687b      	ldr	r3, [r7, #4]
 8002ec6:	6c1a      	ldr	r2, [r3, #64]	; 0x40
 8002ec8:	687b      	ldr	r3, [r7, #4]
 8002eca:	6bdb      	ldr	r3, [r3, #60]	; 0x3c
 8002ecc:	2101      	movs	r1, #1
 8002ece:	fa01 f202 	lsl.w	r2, r1, r2
 8002ed2:	605a      	str	r2, [r3, #4]

    /* Update error code */
    hdma->ErrorCode = HAL_DMA_ERROR_TE;
 8002ed4:	687b      	ldr	r3, [r7, #4]
 8002ed6:	2201      	movs	r2, #1
 8002ed8:	639a      	str	r2, [r3, #56]	; 0x38

    /* Change the DMA state */
    hdma->State = HAL_DMA_STATE_READY;
 8002eda:	687b      	ldr	r3, [r7, #4]
 8002edc:	2201      	movs	r2, #1
 8002ede:	f883 2021 	strb.w	r2, [r3, #33]	; 0x21

    /* Process Unlocked */
    __HAL_UNLOCK(hdma);
 8002ee2:	687b      	ldr	r3, [r7, #4]
 8002ee4:	2200      	movs	r2, #0
 8002ee6:	f883 2020 	strb.w	r2, [r3, #32]

    if (hdma->XferErrorCallback != NULL)
 8002eea:	687b      	ldr	r3, [r7, #4]
 8002eec:	6b1b      	ldr	r3, [r3, #48]	; 0x30
 8002eee:	2b00      	cmp	r3, #0
 8002ef0:	d004      	beq.n	8002efc <HAL_DMA_IRQHandler+0x1e8>
    {
      /* Transfer error callback */
      hdma->XferErrorCallback(hdma);
 8002ef2:	687b      	ldr	r3, [r7, #4]
 8002ef4:	6b1b      	ldr	r3, [r3, #48]	; 0x30
 8002ef6:	6878      	ldr	r0, [r7, #4]
 8002ef8:	4798      	blx	r3
    }
  }
  return;
 8002efa:	bf00      	nop
 8002efc:	bf00      	nop
}
 8002efe:	3710      	adds	r7, #16
 8002f00:	46bd      	mov	sp, r7
 8002f02:	bd80      	pop	{r7, pc}
 8002f04:	40020008 	.word	0x40020008
 8002f08:	4002001c 	.word	0x4002001c
 8002f0c:	40020030 	.word	0x40020030
 8002f10:	40020044 	.word	0x40020044
 8002f14:	40020058 	.word	0x40020058
 8002f18:	4002006c 	.word	0x4002006c
 8002f1c:	40020000 	.word	0x40020000

08002f20 <HAL_DMA_GetError>:
  * @param  hdma : pointer to a DMA_HandleTypeDef structure that contains
  *              the configuration information for the specified DMA Channel.
  * @retval DMA Error Code
  */
uint32_t HAL_DMA_GetError(DMA_HandleTypeDef *hdma)
{
 8002f20:	b480      	push	{r7}
 8002f22:	b083      	sub	sp, #12
 8002f24:	af00      	add	r7, sp, #0
 8002f26:	6078      	str	r0, [r7, #4]
  return hdma->ErrorCode;
 8002f28:	687b      	ldr	r3, [r7, #4]
 8002f2a:	6b9b      	ldr	r3, [r3, #56]	; 0x38
}
 8002f2c:	4618      	mov	r0, r3
 8002f2e:	370c      	adds	r7, #12
 8002f30:	46bd      	mov	sp, r7
 8002f32:	bc80      	pop	{r7}
 8002f34:	4770      	bx	lr

08002f36 <DMA_SetConfig>:
  * @param  DstAddress: The destination memory Buffer address
  * @param  DataLength: The length of data to be transferred from source to destination
  * @retval HAL status
  */
static void DMA_SetConfig(DMA_HandleTypeDef *hdma, uint32_t SrcAddress, uint32_t DstAddress, uint32_t DataLength)
{
 8002f36:	b480      	push	{r7}
 8002f38:	b085      	sub	sp, #20
 8002f3a:	af00      	add	r7, sp, #0
 8002f3c:	60f8      	str	r0, [r7, #12]
 8002f3e:	60b9      	str	r1, [r7, #8]
 8002f40:	607a      	str	r2, [r7, #4]
 8002f42:	603b      	str	r3, [r7, #0]
  /* Clear all flags */
  hdma->DmaBaseAddress->IFCR = (DMA_ISR_GIF1 << hdma->ChannelIndex);
 8002f44:	68fb      	ldr	r3, [r7, #12]
 8002f46:	6c1a      	ldr	r2, [r3, #64]	; 0x40
 8002f48:	68fb      	ldr	r3, [r7, #12]
 8002f4a:	6bdb      	ldr	r3, [r3, #60]	; 0x3c
 8002f4c:	2101      	movs	r1, #1
 8002f4e:	fa01 f202 	lsl.w	r2, r1, r2
 8002f52:	605a      	str	r2, [r3, #4]

  /* Configure DMA Channel data length */
  hdma->Instance->CNDTR = DataLength;
 8002f54:	68fb      	ldr	r3, [r7, #12]
 8002f56:	681b      	ldr	r3, [r3, #0]
 8002f58:	683a      	ldr	r2, [r7, #0]
 8002f5a:	605a      	str	r2, [r3, #4]

  /* Memory to Peripheral */
  if((hdma->Init.Direction) == DMA_MEMORY_TO_PERIPH)
 8002f5c:	68fb      	ldr	r3, [r7, #12]
 8002f5e:	685b      	ldr	r3, [r3, #4]
 8002f60:	2b10      	cmp	r3, #16
 8002f62:	d108      	bne.n	8002f76 <DMA_SetConfig+0x40>
  {
    /* Configure DMA Channel destination address */
    hdma->Instance->CPAR = DstAddress;
 8002f64:	68fb      	ldr	r3, [r7, #12]
 8002f66:	681b      	ldr	r3, [r3, #0]
 8002f68:	687a      	ldr	r2, [r7, #4]
 8002f6a:	609a      	str	r2, [r3, #8]

    /* Configure DMA Channel source address */
    hdma->Instance->CMAR = SrcAddress;
 8002f6c:	68fb      	ldr	r3, [r7, #12]
 8002f6e:	681b      	ldr	r3, [r3, #0]
 8002f70:	68ba      	ldr	r2, [r7, #8]
 8002f72:	60da      	str	r2, [r3, #12]
    hdma->Instance->CPAR = SrcAddress;

    /* Configure DMA Channel destination address */
    hdma->Instance->CMAR = DstAddress;
  }
}
 8002f74:	e007      	b.n	8002f86 <DMA_SetConfig+0x50>
    hdma->Instance->CPAR = SrcAddress;
 8002f76:	68fb      	ldr	r3, [r7, #12]
 8002f78:	681b      	ldr	r3, [r3, #0]
 8002f7a:	68ba      	ldr	r2, [r7, #8]
 8002f7c:	609a      	str	r2, [r3, #8]
    hdma->Instance->CMAR = DstAddress;
 8002f7e:	68fb      	ldr	r3, [r7, #12]
 8002f80:	681b      	ldr	r3, [r3, #0]
 8002f82:	687a      	ldr	r2, [r7, #4]
 8002f84:	60da      	str	r2, [r3, #12]
}
 8002f86:	bf00      	nop
 8002f88:	3714      	adds	r7, #20
 8002f8a:	46bd      	mov	sp, r7
 8002f8c:	bc80      	pop	{r7}
 8002f8e:	4770      	bx	lr

08002f90 <HAL_GPIO_Init>:
  * @param  GPIO_Init: pointer to a GPIO_InitTypeDef structure that contains
  *         the configuration information for the specified GPIO peripheral.
  * @retval None
  */
void HAL_GPIO_Init(GPIO_TypeDef  *GPIOx, GPIO_InitTypeDef *GPIO_Init)
{
 8002f90:	b480      	push	{r7}
 8002f92:	b08b      	sub	sp, #44	; 0x2c
 8002f94:	af00      	add	r7, sp, #0
 8002f96:	6078      	str	r0, [r7, #4]
 8002f98:	6039      	str	r1, [r7, #0]
  uint32_t position = 0x00u;
 8002f9a:	2300      	movs	r3, #0
 8002f9c:	627b      	str	r3, [r7, #36]	; 0x24
  uint32_t ioposition;
  uint32_t iocurrent;
  uint32_t temp;
  uint32_t config = 0x00u;
 8002f9e:	2300      	movs	r3, #0
 8002fa0:	623b      	str	r3, [r7, #32]
  assert_param(IS_GPIO_ALL_INSTANCE(GPIOx));
  assert_param(IS_GPIO_PIN(GPIO_Init->Pin));
  assert_param(IS_GPIO_MODE(GPIO_Init->Mode));

  /* Configure the port pins */
  while (((GPIO_Init->Pin) >> position) != 0x00u)
 8002fa2:	e127      	b.n	80031f4 <HAL_GPIO_Init+0x264>
  {
    /* Get the IO position */
    ioposition = (0x01uL << position);
 8002fa4:	2201      	movs	r2, #1
 8002fa6:	6a7b      	ldr	r3, [r7, #36]	; 0x24
 8002fa8:	fa02 f303 	lsl.w	r3, r2, r3
 8002fac:	61fb      	str	r3, [r7, #28]

    /* Get the current IO position */
    iocurrent = (uint32_t)(GPIO_Init->Pin) & ioposition;
 8002fae:	683b      	ldr	r3, [r7, #0]
 8002fb0:	681b      	ldr	r3, [r3, #0]
 8002fb2:	69fa      	ldr	r2, [r7, #28]
 8002fb4:	4013      	ands	r3, r2
 8002fb6:	61bb      	str	r3, [r7, #24]

    if (iocurrent == ioposition)
 8002fb8:	69ba      	ldr	r2, [r7, #24]
 8002fba:	69fb      	ldr	r3, [r7, #28]
 8002fbc:	429a      	cmp	r2, r3
 8002fbe:	f040 8116 	bne.w	80031ee <HAL_GPIO_Init+0x25e>
    {
      /* Check the Alternate function parameters */
      assert_param(IS_GPIO_AF_INSTANCE(GPIOx));

      /* Based on the required mode, filling config variable with MODEy[1:0] and CNFy[3:2] corresponding bits */
      switch (GPIO_Init->Mode)
 8002fc2:	683b      	ldr	r3, [r7, #0]
 8002fc4:	685b      	ldr	r3, [r3, #4]
 8002fc6:	2b12      	cmp	r3, #18
 8002fc8:	d034      	beq.n	8003034 <HAL_GPIO_Init+0xa4>
 8002fca:	2b12      	cmp	r3, #18
 8002fcc:	d80d      	bhi.n	8002fea <HAL_GPIO_Init+0x5a>
 8002fce:	2b02      	cmp	r3, #2
 8002fd0:	d02b      	beq.n	800302a <HAL_GPIO_Init+0x9a>
 8002fd2:	2b02      	cmp	r3, #2
 8002fd4:	d804      	bhi.n	8002fe0 <HAL_GPIO_Init+0x50>
 8002fd6:	2b00      	cmp	r3, #0
 8002fd8:	d031      	beq.n	800303e <HAL_GPIO_Init+0xae>
 8002fda:	2b01      	cmp	r3, #1
 8002fdc:	d01c      	beq.n	8003018 <HAL_GPIO_Init+0x88>
          config = GPIO_CR_MODE_INPUT + GPIO_CR_CNF_ANALOG;
          break;

        /* Parameters are checked with assert_param */
        default:
          break;
 8002fde:	e048      	b.n	8003072 <HAL_GPIO_Init+0xe2>
      switch (GPIO_Init->Mode)
 8002fe0:	2b03      	cmp	r3, #3
 8002fe2:	d043      	beq.n	800306c <HAL_GPIO_Init+0xdc>
 8002fe4:	2b11      	cmp	r3, #17
 8002fe6:	d01b      	beq.n	8003020 <HAL_GPIO_Init+0x90>
          break;
 8002fe8:	e043      	b.n	8003072 <HAL_GPIO_Init+0xe2>
      switch (GPIO_Init->Mode)
 8002fea:	4a89      	ldr	r2, [pc, #548]	; (8003210 <HAL_GPIO_Init+0x280>)
 8002fec:	4293      	cmp	r3, r2
 8002fee:	d026      	beq.n	800303e <HAL_GPIO_Init+0xae>
 8002ff0:	4a87      	ldr	r2, [pc, #540]	; (8003210 <HAL_GPIO_Init+0x280>)
 8002ff2:	4293      	cmp	r3, r2
 8002ff4:	d806      	bhi.n	8003004 <HAL_GPIO_Init+0x74>
 8002ff6:	4a87      	ldr	r2, [pc, #540]	; (8003214 <HAL_GPIO_Init+0x284>)
 8002ff8:	4293      	cmp	r3, r2
 8002ffa:	d020      	beq.n	800303e <HAL_GPIO_Init+0xae>
 8002ffc:	4a86      	ldr	r2, [pc, #536]	; (8003218 <HAL_GPIO_Init+0x288>)
 8002ffe:	4293      	cmp	r3, r2
 8003000:	d01d      	beq.n	800303e <HAL_GPIO_Init+0xae>
          break;
 8003002:	e036      	b.n	8003072 <HAL_GPIO_Init+0xe2>
      switch (GPIO_Init->Mode)
 8003004:	4a85      	ldr	r2, [pc, #532]	; (800321c <HAL_GPIO_Init+0x28c>)
 8003006:	4293      	cmp	r3, r2
 8003008:	d019      	beq.n	800303e <HAL_GPIO_Init+0xae>
 800300a:	4a85      	ldr	r2, [pc, #532]	; (8003220 <HAL_GPIO_Init+0x290>)
 800300c:	4293      	cmp	r3, r2
 800300e:	d016      	beq.n	800303e <HAL_GPIO_Init+0xae>
 8003010:	4a84      	ldr	r2, [pc, #528]	; (8003224 <HAL_GPIO_Init+0x294>)
 8003012:	4293      	cmp	r3, r2
 8003014:	d013      	beq.n	800303e <HAL_GPIO_Init+0xae>
          break;
 8003016:	e02c      	b.n	8003072 <HAL_GPIO_Init+0xe2>
          config = GPIO_Init->Speed + GPIO_CR_CNF_GP_OUTPUT_PP;
 8003018:	683b      	ldr	r3, [r7, #0]
 800301a:	68db      	ldr	r3, [r3, #12]
 800301c:	623b      	str	r3, [r7, #32]
          break;
 800301e:	e028      	b.n	8003072 <HAL_GPIO_Init+0xe2>
          config = GPIO_Init->Speed + GPIO_CR_CNF_GP_OUTPUT_OD;
 8003020:	683b      	ldr	r3, [r7, #0]
 8003022:	68db      	ldr	r3, [r3, #12]
 8003024:	3304      	adds	r3, #4
 8003026:	623b      	str	r3, [r7, #32]
          break;
 8003028:	e023      	b.n	8003072 <HAL_GPIO_Init+0xe2>
          config = GPIO_Init->Speed + GPIO_CR_CNF_AF_OUTPUT_PP;
 800302a:	683b      	ldr	r3, [r7, #0]
 800302c:	68db      	ldr	r3, [r3, #12]
 800302e:	3308      	adds	r3, #8
 8003030:	623b      	str	r3, [r7, #32]
          break;
 8003032:	e01e      	b.n	8003072 <HAL_GPIO_Init+0xe2>
          config = GPIO_Init->Speed + GPIO_CR_CNF_AF_OUTPUT_OD;
 8003034:	683b      	ldr	r3, [r7, #0]
 8003036:	68db      	ldr	r3, [r3, #12]
 8003038:	330c      	adds	r3, #12
 800303a:	623b      	str	r3, [r7, #32]
          break;
 800303c:	e019      	b.n	8003072 <HAL_GPIO_Init+0xe2>
          if (GPIO_Init->Pull == GPIO_NOPULL)
 800303e:	683b      	ldr	r3, [r7, #0]
 8003040:	689b      	ldr	r3, [r3, #8]
 8003042:	2b00      	cmp	r3, #0
 8003044:	d102      	bne.n	800304c <HAL_GPIO_Init+0xbc>
            config = GPIO_CR_MODE_INPUT + GPIO_CR_CNF_INPUT_FLOATING;
 8003046:	2304      	movs	r3, #4
 8003048:	623b      	str	r3, [r7, #32]
          break;
 800304a:	e012      	b.n	8003072 <HAL_GPIO_Init+0xe2>
          else if (GPIO_Init->Pull == GPIO_PULLUP)
 800304c:	683b      	ldr	r3, [r7, #0]
 800304e:	689b      	ldr	r3, [r3, #8]
 8003050:	2b01      	cmp	r3, #1
 8003052:	d105      	bne.n	8003060 <HAL_GPIO_Init+0xd0>
            config = GPIO_CR_MODE_INPUT + GPIO_CR_CNF_INPUT_PU_PD;
 8003054:	2308      	movs	r3, #8
 8003056:	623b      	str	r3, [r7, #32]
            GPIOx->BSRR = ioposition;
 8003058:	687b      	ldr	r3, [r7, #4]
 800305a:	69fa      	ldr	r2, [r7, #28]
 800305c:	611a      	str	r2, [r3, #16]
          break;
 800305e:	e008      	b.n	8003072 <HAL_GPIO_Init+0xe2>
            config = GPIO_CR_MODE_INPUT + GPIO_CR_CNF_INPUT_PU_PD;
 8003060:	2308      	movs	r3, #8
 8003062:	623b      	str	r3, [r7, #32]
            GPIOx->BRR = ioposition;
 8003064:	687b      	ldr	r3, [r7, #4]
 8003066:	69fa      	ldr	r2, [r7, #28]
 8003068:	615a      	str	r2, [r3, #20]
          break;
 800306a:	e002      	b.n	8003072 <HAL_GPIO_Init+0xe2>
          config = GPIO_CR_MODE_INPUT + GPIO_CR_CNF_ANALOG;
 800306c:	2300      	movs	r3, #0
 800306e:	623b      	str	r3, [r7, #32]
          break;
 8003070:	bf00      	nop
      }

      /* Check if the current bit belongs to first half or last half of the pin count number
       in order to address CRH or CRL register*/
      configregister = (iocurrent < GPIO_PIN_8) ? &GPIOx->CRL     : &GPIOx->CRH;
 8003072:	69bb      	ldr	r3, [r7, #24]
 8003074:	2bff      	cmp	r3, #255	; 0xff
 8003076:	d801      	bhi.n	800307c <HAL_GPIO_Init+0xec>
 8003078:	687b      	ldr	r3, [r7, #4]
 800307a:	e001      	b.n	8003080 <HAL_GPIO_Init+0xf0>
 800307c:	687b      	ldr	r3, [r7, #4]
 800307e:	3304      	adds	r3, #4
 8003080:	617b      	str	r3, [r7, #20]
      registeroffset = (iocurrent < GPIO_PIN_8) ? (position << 2u) : ((position - 8u) << 2u);
 8003082:	69bb      	ldr	r3, [r7, #24]
 8003084:	2bff      	cmp	r3, #255	; 0xff
 8003086:	d802      	bhi.n	800308e <HAL_GPIO_Init+0xfe>
 8003088:	6a7b      	ldr	r3, [r7, #36]	; 0x24
 800308a:	009b      	lsls	r3, r3, #2
 800308c:	e002      	b.n	8003094 <HAL_GPIO_Init+0x104>
 800308e:	6a7b      	ldr	r3, [r7, #36]	; 0x24
 8003090:	3b08      	subs	r3, #8
 8003092:	009b      	lsls	r3, r3, #2
 8003094:	613b      	str	r3, [r7, #16]

      /* Apply the new configuration of the pin to the register */
      MODIFY_REG((*configregister), ((GPIO_CRL_MODE0 | GPIO_CRL_CNF0) << registeroffset), (config << registeroffset));
 8003096:	697b      	ldr	r3, [r7, #20]
 8003098:	681a      	ldr	r2, [r3, #0]
 800309a:	210f      	movs	r1, #15
 800309c:	693b      	ldr	r3, [r7, #16]
 800309e:	fa01 f303 	lsl.w	r3, r1, r3
 80030a2:	43db      	mvns	r3, r3
 80030a4:	401a      	ands	r2, r3
 80030a6:	6a39      	ldr	r1, [r7, #32]
 80030a8:	693b      	ldr	r3, [r7, #16]
 80030aa:	fa01 f303 	lsl.w	r3, r1, r3
 80030ae:	431a      	orrs	r2, r3
 80030b0:	697b      	ldr	r3, [r7, #20]
 80030b2:	601a      	str	r2, [r3, #0]

      /*--------------------- EXTI Mode Configuration ------------------------*/
      /* Configure the External Interrupt or event for the current IO */
      if ((GPIO_Init->Mode & EXTI_MODE) == EXTI_MODE)
 80030b4:	683b      	ldr	r3, [r7, #0]
 80030b6:	685b      	ldr	r3, [r3, #4]
 80030b8:	f003 5380 	and.w	r3, r3, #268435456	; 0x10000000
 80030bc:	2b00      	cmp	r3, #0
 80030be:	f000 8096 	beq.w	80031ee <HAL_GPIO_Init+0x25e>
      {
        /* Enable AFIO Clock */
        __HAL_RCC_AFIO_CLK_ENABLE();
 80030c2:	4b59      	ldr	r3, [pc, #356]	; (8003228 <HAL_GPIO_Init+0x298>)
 80030c4:	699b      	ldr	r3, [r3, #24]
 80030c6:	4a58      	ldr	r2, [pc, #352]	; (8003228 <HAL_GPIO_Init+0x298>)
 80030c8:	f043 0301 	orr.w	r3, r3, #1
 80030cc:	6193      	str	r3, [r2, #24]
 80030ce:	4b56      	ldr	r3, [pc, #344]	; (8003228 <HAL_GPIO_Init+0x298>)
 80030d0:	699b      	ldr	r3, [r3, #24]
 80030d2:	f003 0301 	and.w	r3, r3, #1
 80030d6:	60bb      	str	r3, [r7, #8]
 80030d8:	68bb      	ldr	r3, [r7, #8]
        temp = AFIO->EXTICR[position >> 2u];
 80030da:	4a54      	ldr	r2, [pc, #336]	; (800322c <HAL_GPIO_Init+0x29c>)
 80030dc:	6a7b      	ldr	r3, [r7, #36]	; 0x24
 80030de:	089b      	lsrs	r3, r3, #2
 80030e0:	3302      	adds	r3, #2
 80030e2:	f852 3023 	ldr.w	r3, [r2, r3, lsl #2]
 80030e6:	60fb      	str	r3, [r7, #12]
        CLEAR_BIT(temp, (0x0Fu) << (4u * (position & 0x03u)));
 80030e8:	6a7b      	ldr	r3, [r7, #36]	; 0x24
 80030ea:	f003 0303 	and.w	r3, r3, #3
 80030ee:	009b      	lsls	r3, r3, #2
 80030f0:	220f      	movs	r2, #15
 80030f2:	fa02 f303 	lsl.w	r3, r2, r3
 80030f6:	43db      	mvns	r3, r3
 80030f8:	68fa      	ldr	r2, [r7, #12]
 80030fa:	4013      	ands	r3, r2
 80030fc:	60fb      	str	r3, [r7, #12]
        SET_BIT(temp, (GPIO_GET_INDEX(GPIOx)) << (4u * (position & 0x03u)));
 80030fe:	687b      	ldr	r3, [r7, #4]
 8003100:	4a4b      	ldr	r2, [pc, #300]	; (8003230 <HAL_GPIO_Init+0x2a0>)
 8003102:	4293      	cmp	r3, r2
 8003104:	d013      	beq.n	800312e <HAL_GPIO_Init+0x19e>
 8003106:	687b      	ldr	r3, [r7, #4]
 8003108:	4a4a      	ldr	r2, [pc, #296]	; (8003234 <HAL_GPIO_Init+0x2a4>)
 800310a:	4293      	cmp	r3, r2
 800310c:	d00d      	beq.n	800312a <HAL_GPIO_Init+0x19a>
 800310e:	687b      	ldr	r3, [r7, #4]
 8003110:	4a49      	ldr	r2, [pc, #292]	; (8003238 <HAL_GPIO_Init+0x2a8>)
 8003112:	4293      	cmp	r3, r2
 8003114:	d007      	beq.n	8003126 <HAL_GPIO_Init+0x196>
 8003116:	687b      	ldr	r3, [r7, #4]
 8003118:	4a48      	ldr	r2, [pc, #288]	; (800323c <HAL_GPIO_Init+0x2ac>)
 800311a:	4293      	cmp	r3, r2
 800311c:	d101      	bne.n	8003122 <HAL_GPIO_Init+0x192>
 800311e:	2303      	movs	r3, #3
 8003120:	e006      	b.n	8003130 <HAL_GPIO_Init+0x1a0>
 8003122:	2304      	movs	r3, #4
 8003124:	e004      	b.n	8003130 <HAL_GPIO_Init+0x1a0>
 8003126:	2302      	movs	r3, #2
 8003128:	e002      	b.n	8003130 <HAL_GPIO_Init+0x1a0>
 800312a:	2301      	movs	r3, #1
 800312c:	e000      	b.n	8003130 <HAL_GPIO_Init+0x1a0>
 800312e:	2300      	movs	r3, #0
 8003130:	6a7a      	ldr	r2, [r7, #36]	; 0x24
 8003132:	f002 0203 	and.w	r2, r2, #3
 8003136:	0092      	lsls	r2, r2, #2
 8003138:	4093      	lsls	r3, r2
 800313a:	68fa      	ldr	r2, [r7, #12]
 800313c:	4313      	orrs	r3, r2
 800313e:	60fb      	str	r3, [r7, #12]
        AFIO->EXTICR[position >> 2u] = temp;
 8003140:	493a      	ldr	r1, [pc, #232]	; (800322c <HAL_GPIO_Init+0x29c>)
 8003142:	6a7b      	ldr	r3, [r7, #36]	; 0x24
 8003144:	089b      	lsrs	r3, r3, #2
 8003146:	3302      	adds	r3, #2
 8003148:	68fa      	ldr	r2, [r7, #12]
 800314a:	f841 2023 	str.w	r2, [r1, r3, lsl #2]


        /* Configure the interrupt mask */
        if ((GPIO_Init->Mode & GPIO_MODE_IT) == GPIO_MODE_IT)
 800314e:	683b      	ldr	r3, [r7, #0]
 8003150:	685b      	ldr	r3, [r3, #4]
 8003152:	f403 3380 	and.w	r3, r3, #65536	; 0x10000
 8003156:	2b00      	cmp	r3, #0
 8003158:	d006      	beq.n	8003168 <HAL_GPIO_Init+0x1d8>
        {
          SET_BIT(EXTI->IMR, iocurrent);
 800315a:	4b39      	ldr	r3, [pc, #228]	; (8003240 <HAL_GPIO_Init+0x2b0>)
 800315c:	681a      	ldr	r2, [r3, #0]
 800315e:	4938      	ldr	r1, [pc, #224]	; (8003240 <HAL_GPIO_Init+0x2b0>)
 8003160:	69bb      	ldr	r3, [r7, #24]
 8003162:	4313      	orrs	r3, r2
 8003164:	600b      	str	r3, [r1, #0]
 8003166:	e006      	b.n	8003176 <HAL_GPIO_Init+0x1e6>
        }
        else
        {
          CLEAR_BIT(EXTI->IMR, iocurrent);
 8003168:	4b35      	ldr	r3, [pc, #212]	; (8003240 <HAL_GPIO_Init+0x2b0>)
 800316a:	681a      	ldr	r2, [r3, #0]
 800316c:	69bb      	ldr	r3, [r7, #24]
 800316e:	43db      	mvns	r3, r3
 8003170:	4933      	ldr	r1, [pc, #204]	; (8003240 <HAL_GPIO_Init+0x2b0>)
 8003172:	4013      	ands	r3, r2
 8003174:	600b      	str	r3, [r1, #0]
        }

        /* Configure the event mask */
        if ((GPIO_Init->Mode & GPIO_MODE_EVT) == GPIO_MODE_EVT)
 8003176:	683b      	ldr	r3, [r7, #0]
 8003178:	685b      	ldr	r3, [r3, #4]
 800317a:	f403 3300 	and.w	r3, r3, #131072	; 0x20000
 800317e:	2b00      	cmp	r3, #0
 8003180:	d006      	beq.n	8003190 <HAL_GPIO_Init+0x200>
        {
          SET_BIT(EXTI->EMR, iocurrent);
 8003182:	4b2f      	ldr	r3, [pc, #188]	; (8003240 <HAL_GPIO_Init+0x2b0>)
 8003184:	685a      	ldr	r2, [r3, #4]
 8003186:	492e      	ldr	r1, [pc, #184]	; (8003240 <HAL_GPIO_Init+0x2b0>)
 8003188:	69bb      	ldr	r3, [r7, #24]
 800318a:	4313      	orrs	r3, r2
 800318c:	604b      	str	r3, [r1, #4]
 800318e:	e006      	b.n	800319e <HAL_GPIO_Init+0x20e>
        }
        else
        {
          CLEAR_BIT(EXTI->EMR, iocurrent);
 8003190:	4b2b      	ldr	r3, [pc, #172]	; (8003240 <HAL_GPIO_Init+0x2b0>)
 8003192:	685a      	ldr	r2, [r3, #4]
 8003194:	69bb      	ldr	r3, [r7, #24]
 8003196:	43db      	mvns	r3, r3
 8003198:	4929      	ldr	r1, [pc, #164]	; (8003240 <HAL_GPIO_Init+0x2b0>)
 800319a:	4013      	ands	r3, r2
 800319c:	604b      	str	r3, [r1, #4]
        }

        /* Enable or disable the rising trigger */
        if ((GPIO_Init->Mode & RISING_EDGE) == RISING_EDGE)
 800319e:	683b      	ldr	r3, [r7, #0]
 80031a0:	685b      	ldr	r3, [r3, #4]
 80031a2:	f403 1380 	and.w	r3, r3, #1048576	; 0x100000
 80031a6:	2b00      	cmp	r3, #0
 80031a8:	d006      	beq.n	80031b8 <HAL_GPIO_Init+0x228>
        {
          SET_BIT(EXTI->RTSR, iocurrent);
 80031aa:	4b25      	ldr	r3, [pc, #148]	; (8003240 <HAL_GPIO_Init+0x2b0>)
 80031ac:	689a      	ldr	r2, [r3, #8]
 80031ae:	4924      	ldr	r1, [pc, #144]	; (8003240 <HAL_GPIO_Init+0x2b0>)
 80031b0:	69bb      	ldr	r3, [r7, #24]
 80031b2:	4313      	orrs	r3, r2
 80031b4:	608b      	str	r3, [r1, #8]
 80031b6:	e006      	b.n	80031c6 <HAL_GPIO_Init+0x236>
        }
        else
        {
          CLEAR_BIT(EXTI->RTSR, iocurrent);
 80031b8:	4b21      	ldr	r3, [pc, #132]	; (8003240 <HAL_GPIO_Init+0x2b0>)
 80031ba:	689a      	ldr	r2, [r3, #8]
 80031bc:	69bb      	ldr	r3, [r7, #24]
 80031be:	43db      	mvns	r3, r3
 80031c0:	491f      	ldr	r1, [pc, #124]	; (8003240 <HAL_GPIO_Init+0x2b0>)
 80031c2:	4013      	ands	r3, r2
 80031c4:	608b      	str	r3, [r1, #8]
        }

        /* Enable or disable the falling trigger */
        if ((GPIO_Init->Mode & FALLING_EDGE) == FALLING_EDGE)
 80031c6:	683b      	ldr	r3, [r7, #0]
 80031c8:	685b      	ldr	r3, [r3, #4]
 80031ca:	f403 1300 	and.w	r3, r3, #2097152	; 0x200000
 80031ce:	2b00      	cmp	r3, #0
 80031d0:	d006      	beq.n	80031e0 <HAL_GPIO_Init+0x250>
        {
          SET_BIT(EXTI->FTSR, iocurrent);
 80031d2:	4b1b      	ldr	r3, [pc, #108]	; (8003240 <HAL_GPIO_Init+0x2b0>)
 80031d4:	68da      	ldr	r2, [r3, #12]
 80031d6:	491a      	ldr	r1, [pc, #104]	; (8003240 <HAL_GPIO_Init+0x2b0>)
 80031d8:	69bb      	ldr	r3, [r7, #24]
 80031da:	4313      	orrs	r3, r2
 80031dc:	60cb      	str	r3, [r1, #12]
 80031de:	e006      	b.n	80031ee <HAL_GPIO_Init+0x25e>
        }
        else
        {
          CLEAR_BIT(EXTI->FTSR, iocurrent);
 80031e0:	4b17      	ldr	r3, [pc, #92]	; (8003240 <HAL_GPIO_Init+0x2b0>)
 80031e2:	68da      	ldr	r2, [r3, #12]
 80031e4:	69bb      	ldr	r3, [r7, #24]
 80031e6:	43db      	mvns	r3, r3
 80031e8:	4915      	ldr	r1, [pc, #84]	; (8003240 <HAL_GPIO_Init+0x2b0>)
 80031ea:	4013      	ands	r3, r2
 80031ec:	60cb      	str	r3, [r1, #12]
        }
      }
    }

	position++;
 80031ee:	6a7b      	ldr	r3, [r7, #36]	; 0x24
 80031f0:	3301      	adds	r3, #1
 80031f2:	627b      	str	r3, [r7, #36]	; 0x24
  while (((GPIO_Init->Pin) >> position) != 0x00u)
 80031f4:	683b      	ldr	r3, [r7, #0]
 80031f6:	681a      	ldr	r2, [r3, #0]
 80031f8:	6a7b      	ldr	r3, [r7, #36]	; 0x24
 80031fa:	fa22 f303 	lsr.w	r3, r2, r3
 80031fe:	2b00      	cmp	r3, #0
 8003200:	f47f aed0 	bne.w	8002fa4 <HAL_GPIO_Init+0x14>
  }
}
 8003204:	bf00      	nop
 8003206:	372c      	adds	r7, #44	; 0x2c
 8003208:	46bd      	mov	sp, r7
 800320a:	bc80      	pop	{r7}
 800320c:	4770      	bx	lr
 800320e:	bf00      	nop
 8003210:	10210000 	.word	0x10210000
 8003214:	10110000 	.word	0x10110000
 8003218:	10120000 	.word	0x10120000
 800321c:	10310000 	.word	0x10310000
 8003220:	10320000 	.word	0x10320000
 8003224:	10220000 	.word	0x10220000
 8003228:	40021000 	.word	0x40021000
 800322c:	40010000 	.word	0x40010000
 8003230:	40010800 	.word	0x40010800
 8003234:	40010c00 	.word	0x40010c00
 8003238:	40011000 	.word	0x40011000
 800323c:	40011400 	.word	0x40011400
 8003240:	40010400 	.word	0x40010400

08003244 <HAL_GPIO_ReadPin>:
  * @param  GPIO_Pin: specifies the port bit to read.
  *         This parameter can be GPIO_PIN_x where x can be (0..15).
  * @retval The input port pin value.
  */
GPIO_PinState HAL_GPIO_ReadPin(GPIO_TypeDef *GPIOx, uint16_t GPIO_Pin)
{
 8003244:	b480      	push	{r7}
 8003246:	b085      	sub	sp, #20
 8003248:	af00      	add	r7, sp, #0
 800324a:	6078      	str	r0, [r7, #4]
 800324c:	460b      	mov	r3, r1
 800324e:	807b      	strh	r3, [r7, #2]
  GPIO_PinState bitstatus;

  /* Check the parameters */
  assert_param(IS_GPIO_PIN(GPIO_Pin));

  if ((GPIOx->IDR & GPIO_Pin) != (uint32_t)GPIO_PIN_RESET)
 8003250:	687b      	ldr	r3, [r7, #4]
 8003252:	689a      	ldr	r2, [r3, #8]
 8003254:	887b      	ldrh	r3, [r7, #2]
 8003256:	4013      	ands	r3, r2
 8003258:	2b00      	cmp	r3, #0
 800325a:	d002      	beq.n	8003262 <HAL_GPIO_ReadPin+0x1e>
  {
    bitstatus = GPIO_PIN_SET;
 800325c:	2301      	movs	r3, #1
 800325e:	73fb      	strb	r3, [r7, #15]
 8003260:	e001      	b.n	8003266 <HAL_GPIO_ReadPin+0x22>
  }
  else
  {
    bitstatus = GPIO_PIN_RESET;
 8003262:	2300      	movs	r3, #0
 8003264:	73fb      	strb	r3, [r7, #15]
  }
  return bitstatus;
 8003266:	7bfb      	ldrb	r3, [r7, #15]
}
 8003268:	4618      	mov	r0, r3
 800326a:	3714      	adds	r7, #20
 800326c:	46bd      	mov	sp, r7
 800326e:	bc80      	pop	{r7}
 8003270:	4770      	bx	lr

08003272 <HAL_GPIO_TogglePin>:
  * @param  GPIOx: where x can be (A..G depending on device used) to select the GPIO peripheral
  * @param  GPIO_Pin: Specifies the pins to be toggled.
  * @retval None
  */
void HAL_GPIO_TogglePin(GPIO_TypeDef *GPIOx, uint16_t GPIO_Pin)
{
 8003272:	b480      	push	{r7}
 8003274:	b083      	sub	sp, #12
 8003276:	af00      	add	r7, sp, #0
 8003278:	6078      	str	r0, [r7, #4]
 800327a:	460b      	mov	r3, r1
 800327c:	807b      	strh	r3, [r7, #2]
  /* Check the parameters */
  assert_param(IS_GPIO_PIN(GPIO_Pin));

  if ((GPIOx->ODR & GPIO_Pin) != 0x00u)
 800327e:	687b      	ldr	r3, [r7, #4]
 8003280:	68da      	ldr	r2, [r3, #12]
 8003282:	887b      	ldrh	r3, [r7, #2]
 8003284:	4013      	ands	r3, r2
 8003286:	2b00      	cmp	r3, #0
 8003288:	d003      	beq.n	8003292 <HAL_GPIO_TogglePin+0x20>
  {
    GPIOx->BRR = (uint32_t)GPIO_Pin;
 800328a:	887a      	ldrh	r2, [r7, #2]
 800328c:	687b      	ldr	r3, [r7, #4]
 800328e:	615a      	str	r2, [r3, #20]
  }
  else
  {
    GPIOx->BSRR = (uint32_t)GPIO_Pin;
  }
}
 8003290:	e002      	b.n	8003298 <HAL_GPIO_TogglePin+0x26>
    GPIOx->BSRR = (uint32_t)GPIO_Pin;
 8003292:	887a      	ldrh	r2, [r7, #2]
 8003294:	687b      	ldr	r3, [r7, #4]
 8003296:	611a      	str	r2, [r3, #16]
}
 8003298:	bf00      	nop
 800329a:	370c      	adds	r7, #12
 800329c:	46bd      	mov	sp, r7
 800329e:	bc80      	pop	{r7}
 80032a0:	4770      	bx	lr
	...

080032a4 <HAL_I2C_Init>:
  * @param  hi2c Pointer to a I2C_HandleTypeDef structure that contains
  *                the configuration information for the specified I2C.
  * @retval HAL status
  */
HAL_StatusTypeDef HAL_I2C_Init(I2C_HandleTypeDef *hi2c)
{
 80032a4:	b580      	push	{r7, lr}
 80032a6:	b084      	sub	sp, #16
 80032a8:	af00      	add	r7, sp, #0
 80032aa:	6078      	str	r0, [r7, #4]
  uint32_t freqrange;
  uint32_t pclk1;

  /* Check the I2C handle allocation */
  if (hi2c == NULL)
 80032ac:	687b      	ldr	r3, [r7, #4]
 80032ae:	2b00      	cmp	r3, #0
 80032b0:	d101      	bne.n	80032b6 <HAL_I2C_Init+0x12>
  {
    return HAL_ERROR;
 80032b2:	2301      	movs	r3, #1
 80032b4:	e10f      	b.n	80034d6 <HAL_I2C_Init+0x232>
  assert_param(IS_I2C_DUAL_ADDRESS(hi2c->Init.DualAddressMode));
  assert_param(IS_I2C_OWN_ADDRESS2(hi2c->Init.OwnAddress2));
  assert_param(IS_I2C_GENERAL_CALL(hi2c->Init.GeneralCallMode));
  assert_param(IS_I2C_NO_STRETCH(hi2c->Init.NoStretchMode));

  if (hi2c->State == HAL_I2C_STATE_RESET)
 80032b6:	687b      	ldr	r3, [r7, #4]
 80032b8:	f893 303d 	ldrb.w	r3, [r3, #61]	; 0x3d
 80032bc:	b2db      	uxtb	r3, r3
 80032be:	2b00      	cmp	r3, #0
 80032c0:	d106      	bne.n	80032d0 <HAL_I2C_Init+0x2c>
  {
    /* Allocate lock resource and initialize it */
    hi2c->Lock = HAL_UNLOCKED;
 80032c2:	687b      	ldr	r3, [r7, #4]
 80032c4:	2200      	movs	r2, #0
 80032c6:	f883 203c 	strb.w	r2, [r3, #60]	; 0x3c

    /* Init the low level hardware : GPIO, CLOCK, NVIC */
    hi2c->MspInitCallback(hi2c);
#else
    /* Init the low level hardware : GPIO, CLOCK, NVIC */
    HAL_I2C_MspInit(hi2c);
 80032ca:	6878      	ldr	r0, [r7, #4]
 80032cc:	f7fd fe84 	bl	8000fd8 <HAL_I2C_MspInit>
#endif /* USE_HAL_I2C_REGISTER_CALLBACKS */
  }

  hi2c->State = HAL_I2C_STATE_BUSY;
 80032d0:	687b      	ldr	r3, [r7, #4]
 80032d2:	2224      	movs	r2, #36	; 0x24
 80032d4:	f883 203d 	strb.w	r2, [r3, #61]	; 0x3d

  /* Disable the selected I2C peripheral */
  __HAL_I2C_DISABLE(hi2c);
 80032d8:	687b      	ldr	r3, [r7, #4]
 80032da:	681b      	ldr	r3, [r3, #0]
 80032dc:	681a      	ldr	r2, [r3, #0]
 80032de:	687b      	ldr	r3, [r7, #4]
 80032e0:	681b      	ldr	r3, [r3, #0]
 80032e2:	f022 0201 	bic.w	r2, r2, #1
 80032e6:	601a      	str	r2, [r3, #0]

  /* Get PCLK1 frequency */
  pclk1 = HAL_RCC_GetPCLK1Freq();
 80032e8:	f000 ffd4 	bl	8004294 <HAL_RCC_GetPCLK1Freq>
 80032ec:	60f8      	str	r0, [r7, #12]

  /* Check the minimum allowed PCLK1 frequency */
  if (I2C_MIN_PCLK_FREQ(pclk1, hi2c->Init.ClockSpeed) == 1U)
 80032ee:	687b      	ldr	r3, [r7, #4]
 80032f0:	685b      	ldr	r3, [r3, #4]
 80032f2:	4a7b      	ldr	r2, [pc, #492]	; (80034e0 <HAL_I2C_Init+0x23c>)
 80032f4:	4293      	cmp	r3, r2
 80032f6:	d807      	bhi.n	8003308 <HAL_I2C_Init+0x64>
 80032f8:	68fb      	ldr	r3, [r7, #12]
 80032fa:	4a7a      	ldr	r2, [pc, #488]	; (80034e4 <HAL_I2C_Init+0x240>)
 80032fc:	4293      	cmp	r3, r2
 80032fe:	bf94      	ite	ls
 8003300:	2301      	movls	r3, #1
 8003302:	2300      	movhi	r3, #0
 8003304:	b2db      	uxtb	r3, r3
 8003306:	e006      	b.n	8003316 <HAL_I2C_Init+0x72>
 8003308:	68fb      	ldr	r3, [r7, #12]
 800330a:	4a77      	ldr	r2, [pc, #476]	; (80034e8 <HAL_I2C_Init+0x244>)
 800330c:	4293      	cmp	r3, r2
 800330e:	bf94      	ite	ls
 8003310:	2301      	movls	r3, #1
 8003312:	2300      	movhi	r3, #0
 8003314:	b2db      	uxtb	r3, r3
 8003316:	2b00      	cmp	r3, #0
 8003318:	d001      	beq.n	800331e <HAL_I2C_Init+0x7a>
  {
    return HAL_ERROR;
 800331a:	2301      	movs	r3, #1
 800331c:	e0db      	b.n	80034d6 <HAL_I2C_Init+0x232>
  }

  /* Calculate frequency range */
  freqrange = I2C_FREQRANGE(pclk1);
 800331e:	68fb      	ldr	r3, [r7, #12]
 8003320:	4a72      	ldr	r2, [pc, #456]	; (80034ec <HAL_I2C_Init+0x248>)
 8003322:	fba2 2303 	umull	r2, r3, r2, r3
 8003326:	0c9b      	lsrs	r3, r3, #18
 8003328:	60bb      	str	r3, [r7, #8]

  /*---------------------------- I2Cx CR2 Configuration ----------------------*/
  /* Configure I2Cx: Frequency range */
  MODIFY_REG(hi2c->Instance->CR2, I2C_CR2_FREQ, freqrange);
 800332a:	687b      	ldr	r3, [r7, #4]
 800332c:	681b      	ldr	r3, [r3, #0]
 800332e:	685b      	ldr	r3, [r3, #4]
 8003330:	f023 013f 	bic.w	r1, r3, #63	; 0x3f
 8003334:	687b      	ldr	r3, [r7, #4]
 8003336:	681b      	ldr	r3, [r3, #0]
 8003338:	68ba      	ldr	r2, [r7, #8]
 800333a:	430a      	orrs	r2, r1
 800333c:	605a      	str	r2, [r3, #4]

  /*---------------------------- I2Cx TRISE Configuration --------------------*/
  /* Configure I2Cx: Rise Time */
  MODIFY_REG(hi2c->Instance->TRISE, I2C_TRISE_TRISE, I2C_RISE_TIME(freqrange, hi2c->Init.ClockSpeed));
 800333e:	687b      	ldr	r3, [r7, #4]
 8003340:	681b      	ldr	r3, [r3, #0]
 8003342:	6a1b      	ldr	r3, [r3, #32]
 8003344:	f023 013f 	bic.w	r1, r3, #63	; 0x3f
 8003348:	687b      	ldr	r3, [r7, #4]
 800334a:	685b      	ldr	r3, [r3, #4]
 800334c:	4a64      	ldr	r2, [pc, #400]	; (80034e0 <HAL_I2C_Init+0x23c>)
 800334e:	4293      	cmp	r3, r2
 8003350:	d802      	bhi.n	8003358 <HAL_I2C_Init+0xb4>
 8003352:	68bb      	ldr	r3, [r7, #8]
 8003354:	3301      	adds	r3, #1
 8003356:	e009      	b.n	800336c <HAL_I2C_Init+0xc8>
 8003358:	68bb      	ldr	r3, [r7, #8]
 800335a:	f44f 7296 	mov.w	r2, #300	; 0x12c
 800335e:	fb02 f303 	mul.w	r3, r2, r3
 8003362:	4a63      	ldr	r2, [pc, #396]	; (80034f0 <HAL_I2C_Init+0x24c>)
 8003364:	fba2 2303 	umull	r2, r3, r2, r3
 8003368:	099b      	lsrs	r3, r3, #6
 800336a:	3301      	adds	r3, #1
 800336c:	687a      	ldr	r2, [r7, #4]
 800336e:	6812      	ldr	r2, [r2, #0]
 8003370:	430b      	orrs	r3, r1
 8003372:	6213      	str	r3, [r2, #32]

  /*---------------------------- I2Cx CCR Configuration ----------------------*/
  /* Configure I2Cx: Speed */
  MODIFY_REG(hi2c->Instance->CCR, (I2C_CCR_FS | I2C_CCR_DUTY | I2C_CCR_CCR), I2C_SPEED(pclk1, hi2c->Init.ClockSpeed, hi2c->Init.DutyCycle));
 8003374:	687b      	ldr	r3, [r7, #4]
 8003376:	681b      	ldr	r3, [r3, #0]
 8003378:	69db      	ldr	r3, [r3, #28]
 800337a:	f423 424f 	bic.w	r2, r3, #52992	; 0xcf00
 800337e:	f022 02ff 	bic.w	r2, r2, #255	; 0xff
 8003382:	687b      	ldr	r3, [r7, #4]
 8003384:	685b      	ldr	r3, [r3, #4]
 8003386:	4956      	ldr	r1, [pc, #344]	; (80034e0 <HAL_I2C_Init+0x23c>)
 8003388:	428b      	cmp	r3, r1
 800338a:	d80d      	bhi.n	80033a8 <HAL_I2C_Init+0x104>
 800338c:	68fb      	ldr	r3, [r7, #12]
 800338e:	1e59      	subs	r1, r3, #1
 8003390:	687b      	ldr	r3, [r7, #4]
 8003392:	685b      	ldr	r3, [r3, #4]
 8003394:	005b      	lsls	r3, r3, #1
 8003396:	fbb1 f3f3 	udiv	r3, r1, r3
 800339a:	3301      	adds	r3, #1
 800339c:	f3c3 030b 	ubfx	r3, r3, #0, #12
 80033a0:	2b04      	cmp	r3, #4
 80033a2:	bf38      	it	cc
 80033a4:	2304      	movcc	r3, #4
 80033a6:	e04f      	b.n	8003448 <HAL_I2C_Init+0x1a4>
 80033a8:	687b      	ldr	r3, [r7, #4]
 80033aa:	689b      	ldr	r3, [r3, #8]
 80033ac:	2b00      	cmp	r3, #0
 80033ae:	d111      	bne.n	80033d4 <HAL_I2C_Init+0x130>
 80033b0:	68fb      	ldr	r3, [r7, #12]
 80033b2:	1e58      	subs	r0, r3, #1
 80033b4:	687b      	ldr	r3, [r7, #4]
 80033b6:	6859      	ldr	r1, [r3, #4]
 80033b8:	460b      	mov	r3, r1
 80033ba:	005b      	lsls	r3, r3, #1
 80033bc:	440b      	add	r3, r1
 80033be:	fbb0 f3f3 	udiv	r3, r0, r3
 80033c2:	3301      	adds	r3, #1
 80033c4:	f3c3 030b 	ubfx	r3, r3, #0, #12
 80033c8:	2b00      	cmp	r3, #0
 80033ca:	bf0c      	ite	eq
 80033cc:	2301      	moveq	r3, #1
 80033ce:	2300      	movne	r3, #0
 80033d0:	b2db      	uxtb	r3, r3
 80033d2:	e012      	b.n	80033fa <HAL_I2C_Init+0x156>
 80033d4:	68fb      	ldr	r3, [r7, #12]
 80033d6:	1e58      	subs	r0, r3, #1
 80033d8:	687b      	ldr	r3, [r7, #4]
 80033da:	6859      	ldr	r1, [r3, #4]
 80033dc:	460b      	mov	r3, r1
 80033de:	009b      	lsls	r3, r3, #2
 80033e0:	440b      	add	r3, r1
 80033e2:	0099      	lsls	r1, r3, #2
 80033e4:	440b      	add	r3, r1
 80033e6:	fbb0 f3f3 	udiv	r3, r0, r3
 80033ea:	3301      	adds	r3, #1
 80033ec:	f3c3 030b 	ubfx	r3, r3, #0, #12
 80033f0:	2b00      	cmp	r3, #0
 80033f2:	bf0c      	ite	eq
 80033f4:	2301      	moveq	r3, #1
 80033f6:	2300      	movne	r3, #0
 80033f8:	b2db      	uxtb	r3, r3
 80033fa:	2b00      	cmp	r3, #0
 80033fc:	d001      	beq.n	8003402 <HAL_I2C_Init+0x15e>
 80033fe:	2301      	movs	r3, #1
 8003400:	e022      	b.n	8003448 <HAL_I2C_Init+0x1a4>
 8003402:	687b      	ldr	r3, [r7, #4]
 8003404:	689b      	ldr	r3, [r3, #8]
 8003406:	2b00      	cmp	r3, #0
 8003408:	d10e      	bne.n	8003428 <HAL_I2C_Init+0x184>
 800340a:	68fb      	ldr	r3, [r7, #12]
 800340c:	1e58      	subs	r0, r3, #1
 800340e:	687b      	ldr	r3, [r7, #4]
 8003410:	6859      	ldr	r1, [r3, #4]
 8003412:	460b      	mov	r3, r1
 8003414:	005b      	lsls	r3, r3, #1
 8003416:	440b      	add	r3, r1
 8003418:	fbb0 f3f3 	udiv	r3, r0, r3
 800341c:	3301      	adds	r3, #1
 800341e:	f3c3 030b 	ubfx	r3, r3, #0, #12
 8003422:	f443 4300 	orr.w	r3, r3, #32768	; 0x8000
 8003426:	e00f      	b.n	8003448 <HAL_I2C_Init+0x1a4>
 8003428:	68fb      	ldr	r3, [r7, #12]
 800342a:	1e58      	subs	r0, r3, #1
 800342c:	687b      	ldr	r3, [r7, #4]
 800342e:	6859      	ldr	r1, [r3, #4]
 8003430:	460b      	mov	r3, r1
 8003432:	009b      	lsls	r3, r3, #2
 8003434:	440b      	add	r3, r1
 8003436:	0099      	lsls	r1, r3, #2
 8003438:	440b      	add	r3, r1
 800343a:	fbb0 f3f3 	udiv	r3, r0, r3
 800343e:	3301      	adds	r3, #1
 8003440:	f3c3 030b 	ubfx	r3, r3, #0, #12
 8003444:	f443 4340 	orr.w	r3, r3, #49152	; 0xc000
 8003448:	6879      	ldr	r1, [r7, #4]
 800344a:	6809      	ldr	r1, [r1, #0]
 800344c:	4313      	orrs	r3, r2
 800344e:	61cb      	str	r3, [r1, #28]

  /*---------------------------- I2Cx CR1 Configuration ----------------------*/
  /* Configure I2Cx: Generalcall and NoStretch mode */
  MODIFY_REG(hi2c->Instance->CR1, (I2C_CR1_ENGC | I2C_CR1_NOSTRETCH), (hi2c->Init.GeneralCallMode | hi2c->Init.NoStretchMode));
 8003450:	687b      	ldr	r3, [r7, #4]
 8003452:	681b      	ldr	r3, [r3, #0]
 8003454:	681b      	ldr	r3, [r3, #0]
 8003456:	f023 01c0 	bic.w	r1, r3, #192	; 0xc0
 800345a:	687b      	ldr	r3, [r7, #4]
 800345c:	69da      	ldr	r2, [r3, #28]
 800345e:	687b      	ldr	r3, [r7, #4]
 8003460:	6a1b      	ldr	r3, [r3, #32]
 8003462:	431a      	orrs	r2, r3
 8003464:	687b      	ldr	r3, [r7, #4]
 8003466:	681b      	ldr	r3, [r3, #0]
 8003468:	430a      	orrs	r2, r1
 800346a:	601a      	str	r2, [r3, #0]

  /*---------------------------- I2Cx OAR1 Configuration ---------------------*/
  /* Configure I2Cx: Own Address1 and addressing mode */
  MODIFY_REG(hi2c->Instance->OAR1, (I2C_OAR1_ADDMODE | I2C_OAR1_ADD8_9 | I2C_OAR1_ADD1_7 | I2C_OAR1_ADD0), (hi2c->Init.AddressingMode | hi2c->Init.OwnAddress1));
 800346c:	687b      	ldr	r3, [r7, #4]
 800346e:	681b      	ldr	r3, [r3, #0]
 8003470:	689b      	ldr	r3, [r3, #8]
 8003472:	f423 4303 	bic.w	r3, r3, #33536	; 0x8300
 8003476:	f023 03ff 	bic.w	r3, r3, #255	; 0xff
 800347a:	687a      	ldr	r2, [r7, #4]
 800347c:	6911      	ldr	r1, [r2, #16]
 800347e:	687a      	ldr	r2, [r7, #4]
 8003480:	68d2      	ldr	r2, [r2, #12]
 8003482:	4311      	orrs	r1, r2
 8003484:	687a      	ldr	r2, [r7, #4]
 8003486:	6812      	ldr	r2, [r2, #0]
 8003488:	430b      	orrs	r3, r1
 800348a:	6093      	str	r3, [r2, #8]

  /*---------------------------- I2Cx OAR2 Configuration ---------------------*/
  /* Configure I2Cx: Dual mode and Own Address2 */
  MODIFY_REG(hi2c->Instance->OAR2, (I2C_OAR2_ENDUAL | I2C_OAR2_ADD2), (hi2c->Init.DualAddressMode | hi2c->Init.OwnAddress2));
 800348c:	687b      	ldr	r3, [r7, #4]
 800348e:	681b      	ldr	r3, [r3, #0]
 8003490:	68db      	ldr	r3, [r3, #12]
 8003492:	f023 01ff 	bic.w	r1, r3, #255	; 0xff
 8003496:	687b      	ldr	r3, [r7, #4]
 8003498:	695a      	ldr	r2, [r3, #20]
 800349a:	687b      	ldr	r3, [r7, #4]
 800349c:	699b      	ldr	r3, [r3, #24]
 800349e:	431a      	orrs	r2, r3
 80034a0:	687b      	ldr	r3, [r7, #4]
 80034a2:	681b      	ldr	r3, [r3, #0]
 80034a4:	430a      	orrs	r2, r1
 80034a6:	60da      	str	r2, [r3, #12]

  /* Enable the selected I2C peripheral */
  __HAL_I2C_ENABLE(hi2c);
 80034a8:	687b      	ldr	r3, [r7, #4]
 80034aa:	681b      	ldr	r3, [r3, #0]
 80034ac:	681a      	ldr	r2, [r3, #0]
 80034ae:	687b      	ldr	r3, [r7, #4]
 80034b0:	681b      	ldr	r3, [r3, #0]
 80034b2:	f042 0201 	orr.w	r2, r2, #1
 80034b6:	601a      	str	r2, [r3, #0]

  hi2c->ErrorCode = HAL_I2C_ERROR_NONE;
 80034b8:	687b      	ldr	r3, [r7, #4]
 80034ba:	2200      	movs	r2, #0
 80034bc:	641a      	str	r2, [r3, #64]	; 0x40
  hi2c->State = HAL_I2C_STATE_READY;
 80034be:	687b      	ldr	r3, [r7, #4]
 80034c0:	2220      	movs	r2, #32
 80034c2:	f883 203d 	strb.w	r2, [r3, #61]	; 0x3d
  hi2c->PreviousState = I2C_STATE_NONE;
 80034c6:	687b      	ldr	r3, [r7, #4]
 80034c8:	2200      	movs	r2, #0
 80034ca:	631a      	str	r2, [r3, #48]	; 0x30
  hi2c->Mode = HAL_I2C_MODE_NONE;
 80034cc:	687b      	ldr	r3, [r7, #4]
 80034ce:	2200      	movs	r2, #0
 80034d0:	f883 203e 	strb.w	r2, [r3, #62]	; 0x3e

  return HAL_OK;
 80034d4:	2300      	movs	r3, #0
}
 80034d6:	4618      	mov	r0, r3
 80034d8:	3710      	adds	r7, #16
 80034da:	46bd      	mov	sp, r7
 80034dc:	bd80      	pop	{r7, pc}
 80034de:	bf00      	nop
 80034e0:	000186a0 	.word	0x000186a0
 80034e4:	001e847f 	.word	0x001e847f
 80034e8:	003d08ff 	.word	0x003d08ff
 80034ec:	431bde83 	.word	0x431bde83
 80034f0:	10624dd3 	.word	0x10624dd3

080034f4 <HAL_I2C_Master_Transmit>:
  * @param  Size Amount of data to be sent
  * @param  Timeout Timeout duration
  * @retval HAL status
  */
HAL_StatusTypeDef HAL_I2C_Master_Transmit(I2C_HandleTypeDef *hi2c, uint16_t DevAddress, uint8_t *pData, uint16_t Size, uint32_t Timeout)
{
 80034f4:	b580      	push	{r7, lr}
 80034f6:	b088      	sub	sp, #32
 80034f8:	af02      	add	r7, sp, #8
 80034fa:	60f8      	str	r0, [r7, #12]
 80034fc:	607a      	str	r2, [r7, #4]
 80034fe:	461a      	mov	r2, r3
 8003500:	460b      	mov	r3, r1
 8003502:	817b      	strh	r3, [r7, #10]
 8003504:	4613      	mov	r3, r2
 8003506:	813b      	strh	r3, [r7, #8]
  /* Init tickstart for timeout management*/
  uint32_t tickstart = HAL_GetTick();
 8003508:	f7fd ff9c 	bl	8001444 <HAL_GetTick>
 800350c:	6178      	str	r0, [r7, #20]

  if (hi2c->State == HAL_I2C_STATE_READY)
 800350e:	68fb      	ldr	r3, [r7, #12]
 8003510:	f893 303d 	ldrb.w	r3, [r3, #61]	; 0x3d
 8003514:	b2db      	uxtb	r3, r3
 8003516:	2b20      	cmp	r3, #32
 8003518:	f040 80e0 	bne.w	80036dc <HAL_I2C_Master_Transmit+0x1e8>
  {
    /* Wait until BUSY flag is reset */
    if (I2C_WaitOnFlagUntilTimeout(hi2c, I2C_FLAG_BUSY, SET, I2C_TIMEOUT_BUSY_FLAG, tickstart) != HAL_OK)
 800351c:	697b      	ldr	r3, [r7, #20]
 800351e:	9300      	str	r3, [sp, #0]
 8003520:	2319      	movs	r3, #25
 8003522:	2201      	movs	r2, #1
 8003524:	4970      	ldr	r1, [pc, #448]	; (80036e8 <HAL_I2C_Master_Transmit+0x1f4>)
 8003526:	68f8      	ldr	r0, [r7, #12]
 8003528:	f000 f958 	bl	80037dc <I2C_WaitOnFlagUntilTimeout>
 800352c:	4603      	mov	r3, r0
 800352e:	2b00      	cmp	r3, #0
 8003530:	d001      	beq.n	8003536 <HAL_I2C_Master_Transmit+0x42>
    {
      return HAL_BUSY;
 8003532:	2302      	movs	r3, #2
 8003534:	e0d3      	b.n	80036de <HAL_I2C_Master_Transmit+0x1ea>
    }

    /* Process Locked */
    __HAL_LOCK(hi2c);
 8003536:	68fb      	ldr	r3, [r7, #12]
 8003538:	f893 303c 	ldrb.w	r3, [r3, #60]	; 0x3c
 800353c:	2b01      	cmp	r3, #1
 800353e:	d101      	bne.n	8003544 <HAL_I2C_Master_Transmit+0x50>
 8003540:	2302      	movs	r3, #2
 8003542:	e0cc      	b.n	80036de <HAL_I2C_Master_Transmit+0x1ea>
 8003544:	68fb      	ldr	r3, [r7, #12]
 8003546:	2201      	movs	r2, #1
 8003548:	f883 203c 	strb.w	r2, [r3, #60]	; 0x3c

    /* Check if the I2C is already enabled */
    if ((hi2c->Instance->CR1 & I2C_CR1_PE) != I2C_CR1_PE)
 800354c:	68fb      	ldr	r3, [r7, #12]
 800354e:	681b      	ldr	r3, [r3, #0]
 8003550:	681b      	ldr	r3, [r3, #0]
 8003552:	f003 0301 	and.w	r3, r3, #1
 8003556:	2b01      	cmp	r3, #1
 8003558:	d007      	beq.n	800356a <HAL_I2C_Master_Transmit+0x76>
    {
      /* Enable I2C peripheral */
      __HAL_I2C_ENABLE(hi2c);
 800355a:	68fb      	ldr	r3, [r7, #12]
 800355c:	681b      	ldr	r3, [r3, #0]
 800355e:	681a      	ldr	r2, [r3, #0]
 8003560:	68fb      	ldr	r3, [r7, #12]
 8003562:	681b      	ldr	r3, [r3, #0]
 8003564:	f042 0201 	orr.w	r2, r2, #1
 8003568:	601a      	str	r2, [r3, #0]
    }

    /* Disable Pos */
    CLEAR_BIT(hi2c->Instance->CR1, I2C_CR1_POS);
 800356a:	68fb      	ldr	r3, [r7, #12]
 800356c:	681b      	ldr	r3, [r3, #0]
 800356e:	681a      	ldr	r2, [r3, #0]
 8003570:	68fb      	ldr	r3, [r7, #12]
 8003572:	681b      	ldr	r3, [r3, #0]
 8003574:	f422 6200 	bic.w	r2, r2, #2048	; 0x800
 8003578:	601a      	str	r2, [r3, #0]

    hi2c->State       = HAL_I2C_STATE_BUSY_TX;
 800357a:	68fb      	ldr	r3, [r7, #12]
 800357c:	2221      	movs	r2, #33	; 0x21
 800357e:	f883 203d 	strb.w	r2, [r3, #61]	; 0x3d
    hi2c->Mode        = HAL_I2C_MODE_MASTER;
 8003582:	68fb      	ldr	r3, [r7, #12]
 8003584:	2210      	movs	r2, #16
 8003586:	f883 203e 	strb.w	r2, [r3, #62]	; 0x3e
    hi2c->ErrorCode   = HAL_I2C_ERROR_NONE;
 800358a:	68fb      	ldr	r3, [r7, #12]
 800358c:	2200      	movs	r2, #0
 800358e:	641a      	str	r2, [r3, #64]	; 0x40

    /* Prepare transfer parameters */
    hi2c->pBuffPtr    = pData;
 8003590:	68fb      	ldr	r3, [r7, #12]
 8003592:	687a      	ldr	r2, [r7, #4]
 8003594:	625a      	str	r2, [r3, #36]	; 0x24
    hi2c->XferCount   = Size;
 8003596:	68fb      	ldr	r3, [r7, #12]
 8003598:	893a      	ldrh	r2, [r7, #8]
 800359a:	855a      	strh	r2, [r3, #42]	; 0x2a
    hi2c->XferSize    = hi2c->XferCount;
 800359c:	68fb      	ldr	r3, [r7, #12]
 800359e:	8d5b      	ldrh	r3, [r3, #42]	; 0x2a
 80035a0:	b29a      	uxth	r2, r3
 80035a2:	68fb      	ldr	r3, [r7, #12]
 80035a4:	851a      	strh	r2, [r3, #40]	; 0x28
    hi2c->XferOptions = I2C_NO_OPTION_FRAME;
 80035a6:	68fb      	ldr	r3, [r7, #12]
 80035a8:	4a50      	ldr	r2, [pc, #320]	; (80036ec <HAL_I2C_Master_Transmit+0x1f8>)
 80035aa:	62da      	str	r2, [r3, #44]	; 0x2c

    /* Send Slave Address */
    if (I2C_MasterRequestWrite(hi2c, DevAddress, Timeout, tickstart) != HAL_OK)
 80035ac:	8979      	ldrh	r1, [r7, #10]
 80035ae:	697b      	ldr	r3, [r7, #20]
 80035b0:	6a3a      	ldr	r2, [r7, #32]
 80035b2:	68f8      	ldr	r0, [r7, #12]
 80035b4:	f000 f89c 	bl	80036f0 <I2C_MasterRequestWrite>
 80035b8:	4603      	mov	r3, r0
 80035ba:	2b00      	cmp	r3, #0
 80035bc:	d001      	beq.n	80035c2 <HAL_I2C_Master_Transmit+0xce>
    {
      return HAL_ERROR;
 80035be:	2301      	movs	r3, #1
 80035c0:	e08d      	b.n	80036de <HAL_I2C_Master_Transmit+0x1ea>
    }

    /* Clear ADDR flag */
    __HAL_I2C_CLEAR_ADDRFLAG(hi2c);
 80035c2:	2300      	movs	r3, #0
 80035c4:	613b      	str	r3, [r7, #16]
 80035c6:	68fb      	ldr	r3, [r7, #12]
 80035c8:	681b      	ldr	r3, [r3, #0]
 80035ca:	695b      	ldr	r3, [r3, #20]
 80035cc:	613b      	str	r3, [r7, #16]
 80035ce:	68fb      	ldr	r3, [r7, #12]
 80035d0:	681b      	ldr	r3, [r3, #0]
 80035d2:	699b      	ldr	r3, [r3, #24]
 80035d4:	613b      	str	r3, [r7, #16]
 80035d6:	693b      	ldr	r3, [r7, #16]

    while (hi2c->XferSize > 0U)
 80035d8:	e066      	b.n	80036a8 <HAL_I2C_Master_Transmit+0x1b4>
    {
      /* Wait until TXE flag is set */
      if (I2C_WaitOnTXEFlagUntilTimeout(hi2c, Timeout, tickstart) != HAL_OK)
 80035da:	697a      	ldr	r2, [r7, #20]
 80035dc:	6a39      	ldr	r1, [r7, #32]
 80035de:	68f8      	ldr	r0, [r7, #12]
 80035e0:	f000 f9d2 	bl	8003988 <I2C_WaitOnTXEFlagUntilTimeout>
 80035e4:	4603      	mov	r3, r0
 80035e6:	2b00      	cmp	r3, #0
 80035e8:	d00d      	beq.n	8003606 <HAL_I2C_Master_Transmit+0x112>
      {
        if (hi2c->ErrorCode == HAL_I2C_ERROR_AF)
 80035ea:	68fb      	ldr	r3, [r7, #12]
 80035ec:	6c1b      	ldr	r3, [r3, #64]	; 0x40
 80035ee:	2b04      	cmp	r3, #4
 80035f0:	d107      	bne.n	8003602 <HAL_I2C_Master_Transmit+0x10e>
        {
          /* Generate Stop */
          SET_BIT(hi2c->Instance->CR1, I2C_CR1_STOP);
 80035f2:	68fb      	ldr	r3, [r7, #12]
 80035f4:	681b      	ldr	r3, [r3, #0]
 80035f6:	681a      	ldr	r2, [r3, #0]
 80035f8:	68fb      	ldr	r3, [r7, #12]
 80035fa:	681b      	ldr	r3, [r3, #0]
 80035fc:	f442 7200 	orr.w	r2, r2, #512	; 0x200
 8003600:	601a      	str	r2, [r3, #0]
        }
        return HAL_ERROR;
 8003602:	2301      	movs	r3, #1
 8003604:	e06b      	b.n	80036de <HAL_I2C_Master_Transmit+0x1ea>
      }

      /* Write data to DR */
      hi2c->Instance->DR = *hi2c->pBuffPtr;
 8003606:	68fb      	ldr	r3, [r7, #12]
 8003608:	6a5b      	ldr	r3, [r3, #36]	; 0x24
 800360a:	781a      	ldrb	r2, [r3, #0]
 800360c:	68fb      	ldr	r3, [r7, #12]
 800360e:	681b      	ldr	r3, [r3, #0]
 8003610:	611a      	str	r2, [r3, #16]

      /* Increment Buffer pointer */
      hi2c->pBuffPtr++;
 8003612:	68fb      	ldr	r3, [r7, #12]
 8003614:	6a5b      	ldr	r3, [r3, #36]	; 0x24
 8003616:	1c5a      	adds	r2, r3, #1
 8003618:	68fb      	ldr	r3, [r7, #12]
 800361a:	625a      	str	r2, [r3, #36]	; 0x24

      /* Update counter */
      hi2c->XferCount--;
 800361c:	68fb      	ldr	r3, [r7, #12]
 800361e:	8d5b      	ldrh	r3, [r3, #42]	; 0x2a
 8003620:	b29b      	uxth	r3, r3
 8003622:	3b01      	subs	r3, #1
 8003624:	b29a      	uxth	r2, r3
 8003626:	68fb      	ldr	r3, [r7, #12]
 8003628:	855a      	strh	r2, [r3, #42]	; 0x2a
      hi2c->XferSize--;
 800362a:	68fb      	ldr	r3, [r7, #12]
 800362c:	8d1b      	ldrh	r3, [r3, #40]	; 0x28
 800362e:	3b01      	subs	r3, #1
 8003630:	b29a      	uxth	r2, r3
 8003632:	68fb      	ldr	r3, [r7, #12]
 8003634:	851a      	strh	r2, [r3, #40]	; 0x28

      if ((__HAL_I2C_GET_FLAG(hi2c, I2C_FLAG_BTF) == SET) && (hi2c->XferSize != 0U))
 8003636:	68fb      	ldr	r3, [r7, #12]
 8003638:	681b      	ldr	r3, [r3, #0]
 800363a:	695b      	ldr	r3, [r3, #20]
 800363c:	f003 0304 	and.w	r3, r3, #4
 8003640:	2b04      	cmp	r3, #4
 8003642:	d11b      	bne.n	800367c <HAL_I2C_Master_Transmit+0x188>
 8003644:	68fb      	ldr	r3, [r7, #12]
 8003646:	8d1b      	ldrh	r3, [r3, #40]	; 0x28
 8003648:	2b00      	cmp	r3, #0
 800364a:	d017      	beq.n	800367c <HAL_I2C_Master_Transmit+0x188>
      {
        /* Write data to DR */
        hi2c->Instance->DR = *hi2c->pBuffPtr;
 800364c:	68fb      	ldr	r3, [r7, #12]
 800364e:	6a5b      	ldr	r3, [r3, #36]	; 0x24
 8003650:	781a      	ldrb	r2, [r3, #0]
 8003652:	68fb      	ldr	r3, [r7, #12]
 8003654:	681b      	ldr	r3, [r3, #0]
 8003656:	611a      	str	r2, [r3, #16]

        /* Increment Buffer pointer */
        hi2c->pBuffPtr++;
 8003658:	68fb      	ldr	r3, [r7, #12]
 800365a:	6a5b      	ldr	r3, [r3, #36]	; 0x24
 800365c:	1c5a      	adds	r2, r3, #1
 800365e:	68fb      	ldr	r3, [r7, #12]
 8003660:	625a      	str	r2, [r3, #36]	; 0x24

        /* Update counter */
        hi2c->XferCount--;
 8003662:	68fb      	ldr	r3, [r7, #12]
 8003664:	8d5b      	ldrh	r3, [r3, #42]	; 0x2a
 8003666:	b29b      	uxth	r3, r3
 8003668:	3b01      	subs	r3, #1
 800366a:	b29a      	uxth	r2, r3
 800366c:	68fb      	ldr	r3, [r7, #12]
 800366e:	855a      	strh	r2, [r3, #42]	; 0x2a
        hi2c->XferSize--;
 8003670:	68fb      	ldr	r3, [r7, #12]
 8003672:	8d1b      	ldrh	r3, [r3, #40]	; 0x28
 8003674:	3b01      	subs	r3, #1
 8003676:	b29a      	uxth	r2, r3
 8003678:	68fb      	ldr	r3, [r7, #12]
 800367a:	851a      	strh	r2, [r3, #40]	; 0x28
      }

      /* Wait until BTF flag is set */
      if (I2C_WaitOnBTFFlagUntilTimeout(hi2c, Timeout, tickstart) != HAL_OK)
 800367c:	697a      	ldr	r2, [r7, #20]
 800367e:	6a39      	ldr	r1, [r7, #32]
 8003680:	68f8      	ldr	r0, [r7, #12]
 8003682:	f000 f9c2 	bl	8003a0a <I2C_WaitOnBTFFlagUntilTimeout>
 8003686:	4603      	mov	r3, r0
 8003688:	2b00      	cmp	r3, #0
 800368a:	d00d      	beq.n	80036a8 <HAL_I2C_Master_Transmit+0x1b4>
      {
        if (hi2c->ErrorCode == HAL_I2C_ERROR_AF)
 800368c:	68fb      	ldr	r3, [r7, #12]
 800368e:	6c1b      	ldr	r3, [r3, #64]	; 0x40
 8003690:	2b04      	cmp	r3, #4
 8003692:	d107      	bne.n	80036a4 <HAL_I2C_Master_Transmit+0x1b0>
        {
          /* Generate Stop */
          SET_BIT(hi2c->Instance->CR1, I2C_CR1_STOP);
 8003694:	68fb      	ldr	r3, [r7, #12]
 8003696:	681b      	ldr	r3, [r3, #0]
 8003698:	681a      	ldr	r2, [r3, #0]
 800369a:	68fb      	ldr	r3, [r7, #12]
 800369c:	681b      	ldr	r3, [r3, #0]
 800369e:	f442 7200 	orr.w	r2, r2, #512	; 0x200
 80036a2:	601a      	str	r2, [r3, #0]
        }
        return HAL_ERROR;
 80036a4:	2301      	movs	r3, #1
 80036a6:	e01a      	b.n	80036de <HAL_I2C_Master_Transmit+0x1ea>
    while (hi2c->XferSize > 0U)
 80036a8:	68fb      	ldr	r3, [r7, #12]
 80036aa:	8d1b      	ldrh	r3, [r3, #40]	; 0x28
 80036ac:	2b00      	cmp	r3, #0
 80036ae:	d194      	bne.n	80035da <HAL_I2C_Master_Transmit+0xe6>
      }
    }

    /* Generate Stop */
    SET_BIT(hi2c->Instance->CR1, I2C_CR1_STOP);
 80036b0:	68fb      	ldr	r3, [r7, #12]
 80036b2:	681b      	ldr	r3, [r3, #0]
 80036b4:	681a      	ldr	r2, [r3, #0]
 80036b6:	68fb      	ldr	r3, [r7, #12]
 80036b8:	681b      	ldr	r3, [r3, #0]
 80036ba:	f442 7200 	orr.w	r2, r2, #512	; 0x200
 80036be:	601a      	str	r2, [r3, #0]

    hi2c->State = HAL_I2C_STATE_READY;
 80036c0:	68fb      	ldr	r3, [r7, #12]
 80036c2:	2220      	movs	r2, #32
 80036c4:	f883 203d 	strb.w	r2, [r3, #61]	; 0x3d
    hi2c->Mode = HAL_I2C_MODE_NONE;
 80036c8:	68fb      	ldr	r3, [r7, #12]
 80036ca:	2200      	movs	r2, #0
 80036cc:	f883 203e 	strb.w	r2, [r3, #62]	; 0x3e

    /* Process Unlocked */
    __HAL_UNLOCK(hi2c);
 80036d0:	68fb      	ldr	r3, [r7, #12]
 80036d2:	2200      	movs	r2, #0
 80036d4:	f883 203c 	strb.w	r2, [r3, #60]	; 0x3c

    return HAL_OK;
 80036d8:	2300      	movs	r3, #0
 80036da:	e000      	b.n	80036de <HAL_I2C_Master_Transmit+0x1ea>
  }
  else
  {
    return HAL_BUSY;
 80036dc:	2302      	movs	r3, #2
  }
}
 80036de:	4618      	mov	r0, r3
 80036e0:	3718      	adds	r7, #24
 80036e2:	46bd      	mov	sp, r7
 80036e4:	bd80      	pop	{r7, pc}
 80036e6:	bf00      	nop
 80036e8:	00100002 	.word	0x00100002
 80036ec:	ffff0000 	.word	0xffff0000

080036f0 <I2C_MasterRequestWrite>:
  * @param  Timeout Timeout duration
  * @param  Tickstart Tick start value
  * @retval HAL status
  */
static HAL_StatusTypeDef I2C_MasterRequestWrite(I2C_HandleTypeDef *hi2c, uint16_t DevAddress, uint32_t Timeout, uint32_t Tickstart)
{
 80036f0:	b580      	push	{r7, lr}
 80036f2:	b088      	sub	sp, #32
 80036f4:	af02      	add	r7, sp, #8
 80036f6:	60f8      	str	r0, [r7, #12]
 80036f8:	607a      	str	r2, [r7, #4]
 80036fa:	603b      	str	r3, [r7, #0]
 80036fc:	460b      	mov	r3, r1
 80036fe:	817b      	strh	r3, [r7, #10]
  /* Declaration of temporary variable to prevent undefined behavior of volatile usage */
  uint32_t CurrentXferOptions = hi2c->XferOptions;
 8003700:	68fb      	ldr	r3, [r7, #12]
 8003702:	6adb      	ldr	r3, [r3, #44]	; 0x2c
 8003704:	617b      	str	r3, [r7, #20]

  /* Generate Start condition if first transfer */
  if ((CurrentXferOptions == I2C_FIRST_AND_LAST_FRAME) || (CurrentXferOptions == I2C_FIRST_FRAME) || (CurrentXferOptions == I2C_NO_OPTION_FRAME))
 8003706:	697b      	ldr	r3, [r7, #20]
 8003708:	2b08      	cmp	r3, #8
 800370a:	d006      	beq.n	800371a <I2C_MasterRequestWrite+0x2a>
 800370c:	697b      	ldr	r3, [r7, #20]
 800370e:	2b01      	cmp	r3, #1
 8003710:	d003      	beq.n	800371a <I2C_MasterRequestWrite+0x2a>
 8003712:	697b      	ldr	r3, [r7, #20]
 8003714:	f513 3f80 	cmn.w	r3, #65536	; 0x10000
 8003718:	d108      	bne.n	800372c <I2C_MasterRequestWrite+0x3c>
  {
    /* Generate Start */
    SET_BIT(hi2c->Instance->CR1, I2C_CR1_START);
 800371a:	68fb      	ldr	r3, [r7, #12]
 800371c:	681b      	ldr	r3, [r3, #0]
 800371e:	681a      	ldr	r2, [r3, #0]
 8003720:	68fb      	ldr	r3, [r7, #12]
 8003722:	681b      	ldr	r3, [r3, #0]
 8003724:	f442 7280 	orr.w	r2, r2, #256	; 0x100
 8003728:	601a      	str	r2, [r3, #0]
 800372a:	e00b      	b.n	8003744 <I2C_MasterRequestWrite+0x54>
  }
  else if (hi2c->PreviousState == I2C_STATE_MASTER_BUSY_RX)
 800372c:	68fb      	ldr	r3, [r7, #12]
 800372e:	6b1b      	ldr	r3, [r3, #48]	; 0x30
 8003730:	2b12      	cmp	r3, #18
 8003732:	d107      	bne.n	8003744 <I2C_MasterRequestWrite+0x54>
  {
    /* Generate ReStart */
    SET_BIT(hi2c->Instance->CR1, I2C_CR1_START);
 8003734:	68fb      	ldr	r3, [r7, #12]
 8003736:	681b      	ldr	r3, [r3, #0]
 8003738:	681a      	ldr	r2, [r3, #0]
 800373a:	68fb      	ldr	r3, [r7, #12]
 800373c:	681b      	ldr	r3, [r3, #0]
 800373e:	f442 7280 	orr.w	r2, r2, #256	; 0x100
 8003742:	601a      	str	r2, [r3, #0]
  {
    /* Do nothing */
  }

  /* Wait until SB flag is set */
  if (I2C_WaitOnFlagUntilTimeout(hi2c, I2C_FLAG_SB, RESET, Timeout, Tickstart) != HAL_OK)
 8003744:	683b      	ldr	r3, [r7, #0]
 8003746:	9300      	str	r3, [sp, #0]
 8003748:	687b      	ldr	r3, [r7, #4]
 800374a:	2200      	movs	r2, #0
 800374c:	f04f 1101 	mov.w	r1, #65537	; 0x10001
 8003750:	68f8      	ldr	r0, [r7, #12]
 8003752:	f000 f843 	bl	80037dc <I2C_WaitOnFlagUntilTimeout>
 8003756:	4603      	mov	r3, r0
 8003758:	2b00      	cmp	r3, #0
 800375a:	d001      	beq.n	8003760 <I2C_MasterRequestWrite+0x70>
  {
    return HAL_ERROR;
 800375c:	2301      	movs	r3, #1
 800375e:	e035      	b.n	80037cc <I2C_MasterRequestWrite+0xdc>
  }

  if (hi2c->Init.AddressingMode == I2C_ADDRESSINGMODE_7BIT)
 8003760:	68fb      	ldr	r3, [r7, #12]
 8003762:	691b      	ldr	r3, [r3, #16]
 8003764:	f5b3 4f80 	cmp.w	r3, #16384	; 0x4000
 8003768:	d108      	bne.n	800377c <I2C_MasterRequestWrite+0x8c>
  {
    /* Send slave address */
    hi2c->Instance->DR = I2C_7BIT_ADD_WRITE(DevAddress);
 800376a:	897b      	ldrh	r3, [r7, #10]
 800376c:	b2db      	uxtb	r3, r3
 800376e:	461a      	mov	r2, r3
 8003770:	68fb      	ldr	r3, [r7, #12]
 8003772:	681b      	ldr	r3, [r3, #0]
 8003774:	f002 02fe 	and.w	r2, r2, #254	; 0xfe
 8003778:	611a      	str	r2, [r3, #16]
 800377a:	e01b      	b.n	80037b4 <I2C_MasterRequestWrite+0xc4>
  }
  else
  {
    /* Send header of slave address */
    hi2c->Instance->DR = I2C_10BIT_HEADER_WRITE(DevAddress);
 800377c:	897b      	ldrh	r3, [r7, #10]
 800377e:	11db      	asrs	r3, r3, #7
 8003780:	b2db      	uxtb	r3, r3
 8003782:	f003 0306 	and.w	r3, r3, #6
 8003786:	b2db      	uxtb	r3, r3
 8003788:	f063 030f 	orn	r3, r3, #15
 800378c:	b2da      	uxtb	r2, r3
 800378e:	68fb      	ldr	r3, [r7, #12]
 8003790:	681b      	ldr	r3, [r3, #0]
 8003792:	611a      	str	r2, [r3, #16]

    /* Wait until ADD10 flag is set */
    if (I2C_WaitOnMasterAddressFlagUntilTimeout(hi2c, I2C_FLAG_ADD10, Timeout, Tickstart) != HAL_OK)
 8003794:	683b      	ldr	r3, [r7, #0]
 8003796:	687a      	ldr	r2, [r7, #4]
 8003798:	490e      	ldr	r1, [pc, #56]	; (80037d4 <I2C_MasterRequestWrite+0xe4>)
 800379a:	68f8      	ldr	r0, [r7, #12]
 800379c:	f000 f875 	bl	800388a <I2C_WaitOnMasterAddressFlagUntilTimeout>
 80037a0:	4603      	mov	r3, r0
 80037a2:	2b00      	cmp	r3, #0
 80037a4:	d001      	beq.n	80037aa <I2C_MasterRequestWrite+0xba>
    {
      return HAL_ERROR;
 80037a6:	2301      	movs	r3, #1
 80037a8:	e010      	b.n	80037cc <I2C_MasterRequestWrite+0xdc>
    }

    /* Send slave address */
    hi2c->Instance->DR = I2C_10BIT_ADDRESS(DevAddress);
 80037aa:	897b      	ldrh	r3, [r7, #10]
 80037ac:	b2da      	uxtb	r2, r3
 80037ae:	68fb      	ldr	r3, [r7, #12]
 80037b0:	681b      	ldr	r3, [r3, #0]
 80037b2:	611a      	str	r2, [r3, #16]
  }

  /* Wait until ADDR flag is set */
  if (I2C_WaitOnMasterAddressFlagUntilTimeout(hi2c, I2C_FLAG_ADDR, Timeout, Tickstart) != HAL_OK)
 80037b4:	683b      	ldr	r3, [r7, #0]
 80037b6:	687a      	ldr	r2, [r7, #4]
 80037b8:	4907      	ldr	r1, [pc, #28]	; (80037d8 <I2C_MasterRequestWrite+0xe8>)
 80037ba:	68f8      	ldr	r0, [r7, #12]
 80037bc:	f000 f865 	bl	800388a <I2C_WaitOnMasterAddressFlagUntilTimeout>
 80037c0:	4603      	mov	r3, r0
 80037c2:	2b00      	cmp	r3, #0
 80037c4:	d001      	beq.n	80037ca <I2C_MasterRequestWrite+0xda>
  {
    return HAL_ERROR;
 80037c6:	2301      	movs	r3, #1
 80037c8:	e000      	b.n	80037cc <I2C_MasterRequestWrite+0xdc>
  }

  return HAL_OK;
 80037ca:	2300      	movs	r3, #0
}
 80037cc:	4618      	mov	r0, r3
 80037ce:	3718      	adds	r7, #24
 80037d0:	46bd      	mov	sp, r7
 80037d2:	bd80      	pop	{r7, pc}
 80037d4:	00010008 	.word	0x00010008
 80037d8:	00010002 	.word	0x00010002

080037dc <I2C_WaitOnFlagUntilTimeout>:
  * @param  Timeout Timeout duration
  * @param  Tickstart Tick start value
  * @retval HAL status
  */
static HAL_StatusTypeDef I2C_WaitOnFlagUntilTimeout(I2C_HandleTypeDef *hi2c, uint32_t Flag, FlagStatus Status, uint32_t Timeout, uint32_t Tickstart)
{
 80037dc:	b580      	push	{r7, lr}
 80037de:	b084      	sub	sp, #16
 80037e0:	af00      	add	r7, sp, #0
 80037e2:	60f8      	str	r0, [r7, #12]
 80037e4:	60b9      	str	r1, [r7, #8]
 80037e6:	603b      	str	r3, [r7, #0]
 80037e8:	4613      	mov	r3, r2
 80037ea:	71fb      	strb	r3, [r7, #7]
  /* Wait until flag is set */
  while (__HAL_I2C_GET_FLAG(hi2c, Flag) == Status)
 80037ec:	e025      	b.n	800383a <I2C_WaitOnFlagUntilTimeout+0x5e>
  {
    /* Check for the Timeout */
    if (Timeout != HAL_MAX_DELAY)
 80037ee:	683b      	ldr	r3, [r7, #0]
 80037f0:	f1b3 3fff 	cmp.w	r3, #4294967295
 80037f4:	d021      	beq.n	800383a <I2C_WaitOnFlagUntilTimeout+0x5e>
    {
      if (((HAL_GetTick() - Tickstart) > Timeout) || (Timeout == 0U))
 80037f6:	f7fd fe25 	bl	8001444 <HAL_GetTick>
 80037fa:	4602      	mov	r2, r0
 80037fc:	69bb      	ldr	r3, [r7, #24]
 80037fe:	1ad3      	subs	r3, r2, r3
 8003800:	683a      	ldr	r2, [r7, #0]
 8003802:	429a      	cmp	r2, r3
 8003804:	d302      	bcc.n	800380c <I2C_WaitOnFlagUntilTimeout+0x30>
 8003806:	683b      	ldr	r3, [r7, #0]
 8003808:	2b00      	cmp	r3, #0
 800380a:	d116      	bne.n	800383a <I2C_WaitOnFlagUntilTimeout+0x5e>
      {
        hi2c->PreviousState     = I2C_STATE_NONE;
 800380c:	68fb      	ldr	r3, [r7, #12]
 800380e:	2200      	movs	r2, #0
 8003810:	631a      	str	r2, [r3, #48]	; 0x30
        hi2c->State             = HAL_I2C_STATE_READY;
 8003812:	68fb      	ldr	r3, [r7, #12]
 8003814:	2220      	movs	r2, #32
 8003816:	f883 203d 	strb.w	r2, [r3, #61]	; 0x3d
        hi2c->Mode              = HAL_I2C_MODE_NONE;
 800381a:	68fb      	ldr	r3, [r7, #12]
 800381c:	2200      	movs	r2, #0
 800381e:	f883 203e 	strb.w	r2, [r3, #62]	; 0x3e
        hi2c->ErrorCode         |= HAL_I2C_ERROR_TIMEOUT;
 8003822:	68fb      	ldr	r3, [r7, #12]
 8003824:	6c1b      	ldr	r3, [r3, #64]	; 0x40
 8003826:	f043 0220 	orr.w	r2, r3, #32
 800382a:	68fb      	ldr	r3, [r7, #12]
 800382c:	641a      	str	r2, [r3, #64]	; 0x40

        /* Process Unlocked */
        __HAL_UNLOCK(hi2c);
 800382e:	68fb      	ldr	r3, [r7, #12]
 8003830:	2200      	movs	r2, #0
 8003832:	f883 203c 	strb.w	r2, [r3, #60]	; 0x3c

        return HAL_ERROR;
 8003836:	2301      	movs	r3, #1
 8003838:	e023      	b.n	8003882 <I2C_WaitOnFlagUntilTimeout+0xa6>
  while (__HAL_I2C_GET_FLAG(hi2c, Flag) == Status)
 800383a:	68bb      	ldr	r3, [r7, #8]
 800383c:	0c1b      	lsrs	r3, r3, #16
 800383e:	b2db      	uxtb	r3, r3
 8003840:	2b01      	cmp	r3, #1
 8003842:	d10d      	bne.n	8003860 <I2C_WaitOnFlagUntilTimeout+0x84>
 8003844:	68fb      	ldr	r3, [r7, #12]
 8003846:	681b      	ldr	r3, [r3, #0]
 8003848:	695b      	ldr	r3, [r3, #20]
 800384a:	43da      	mvns	r2, r3
 800384c:	68bb      	ldr	r3, [r7, #8]
 800384e:	4013      	ands	r3, r2
 8003850:	b29b      	uxth	r3, r3
 8003852:	2b00      	cmp	r3, #0
 8003854:	bf0c      	ite	eq
 8003856:	2301      	moveq	r3, #1
 8003858:	2300      	movne	r3, #0
 800385a:	b2db      	uxtb	r3, r3
 800385c:	461a      	mov	r2, r3
 800385e:	e00c      	b.n	800387a <I2C_WaitOnFlagUntilTimeout+0x9e>
 8003860:	68fb      	ldr	r3, [r7, #12]
 8003862:	681b      	ldr	r3, [r3, #0]
 8003864:	699b      	ldr	r3, [r3, #24]
 8003866:	43da      	mvns	r2, r3
 8003868:	68bb      	ldr	r3, [r7, #8]
 800386a:	4013      	ands	r3, r2
 800386c:	b29b      	uxth	r3, r3
 800386e:	2b00      	cmp	r3, #0
 8003870:	bf0c      	ite	eq
 8003872:	2301      	moveq	r3, #1
 8003874:	2300      	movne	r3, #0
 8003876:	b2db      	uxtb	r3, r3
 8003878:	461a      	mov	r2, r3
 800387a:	79fb      	ldrb	r3, [r7, #7]
 800387c:	429a      	cmp	r2, r3
 800387e:	d0b6      	beq.n	80037ee <I2C_WaitOnFlagUntilTimeout+0x12>
      }
    }
  }
  return HAL_OK;
 8003880:	2300      	movs	r3, #0
}
 8003882:	4618      	mov	r0, r3
 8003884:	3710      	adds	r7, #16
 8003886:	46bd      	mov	sp, r7
 8003888:	bd80      	pop	{r7, pc}

0800388a <I2C_WaitOnMasterAddressFlagUntilTimeout>:
  * @param  Timeout Timeout duration
  * @param  Tickstart Tick start value
  * @retval HAL status
  */
static HAL_StatusTypeDef I2C_WaitOnMasterAddressFlagUntilTimeout(I2C_HandleTypeDef *hi2c, uint32_t Flag, uint32_t Timeout, uint32_t Tickstart)
{
 800388a:	b580      	push	{r7, lr}
 800388c:	b084      	sub	sp, #16
 800388e:	af00      	add	r7, sp, #0
 8003890:	60f8      	str	r0, [r7, #12]
 8003892:	60b9      	str	r1, [r7, #8]
 8003894:	607a      	str	r2, [r7, #4]
 8003896:	603b      	str	r3, [r7, #0]
  while (__HAL_I2C_GET_FLAG(hi2c, Flag) == RESET)
 8003898:	e051      	b.n	800393e <I2C_WaitOnMasterAddressFlagUntilTimeout+0xb4>
  {
    if (__HAL_I2C_GET_FLAG(hi2c, I2C_FLAG_AF) == SET)
 800389a:	68fb      	ldr	r3, [r7, #12]
 800389c:	681b      	ldr	r3, [r3, #0]
 800389e:	695b      	ldr	r3, [r3, #20]
 80038a0:	f403 6380 	and.w	r3, r3, #1024	; 0x400
 80038a4:	f5b3 6f80 	cmp.w	r3, #1024	; 0x400
 80038a8:	d123      	bne.n	80038f2 <I2C_WaitOnMasterAddressFlagUntilTimeout+0x68>
    {
      /* Generate Stop */
      SET_BIT(hi2c->Instance->CR1, I2C_CR1_STOP);
 80038aa:	68fb      	ldr	r3, [r7, #12]
 80038ac:	681b      	ldr	r3, [r3, #0]
 80038ae:	681a      	ldr	r2, [r3, #0]
 80038b0:	68fb      	ldr	r3, [r7, #12]
 80038b2:	681b      	ldr	r3, [r3, #0]
 80038b4:	f442 7200 	orr.w	r2, r2, #512	; 0x200
 80038b8:	601a      	str	r2, [r3, #0]

      /* Clear AF Flag */
      __HAL_I2C_CLEAR_FLAG(hi2c, I2C_FLAG_AF);
 80038ba:	68fb      	ldr	r3, [r7, #12]
 80038bc:	681b      	ldr	r3, [r3, #0]
 80038be:	f46f 6280 	mvn.w	r2, #1024	; 0x400
 80038c2:	615a      	str	r2, [r3, #20]

      hi2c->PreviousState       = I2C_STATE_NONE;
 80038c4:	68fb      	ldr	r3, [r7, #12]
 80038c6:	2200      	movs	r2, #0
 80038c8:	631a      	str	r2, [r3, #48]	; 0x30
      hi2c->State               = HAL_I2C_STATE_READY;
 80038ca:	68fb      	ldr	r3, [r7, #12]
 80038cc:	2220      	movs	r2, #32
 80038ce:	f883 203d 	strb.w	r2, [r3, #61]	; 0x3d
      hi2c->Mode                = HAL_I2C_MODE_NONE;
 80038d2:	68fb      	ldr	r3, [r7, #12]
 80038d4:	2200      	movs	r2, #0
 80038d6:	f883 203e 	strb.w	r2, [r3, #62]	; 0x3e
      hi2c->ErrorCode           |= HAL_I2C_ERROR_AF;
 80038da:	68fb      	ldr	r3, [r7, #12]
 80038dc:	6c1b      	ldr	r3, [r3, #64]	; 0x40
 80038de:	f043 0204 	orr.w	r2, r3, #4
 80038e2:	68fb      	ldr	r3, [r7, #12]
 80038e4:	641a      	str	r2, [r3, #64]	; 0x40

      /* Process Unlocked */
      __HAL_UNLOCK(hi2c);
 80038e6:	68fb      	ldr	r3, [r7, #12]
 80038e8:	2200      	movs	r2, #0
 80038ea:	f883 203c 	strb.w	r2, [r3, #60]	; 0x3c

      return HAL_ERROR;
 80038ee:	2301      	movs	r3, #1
 80038f0:	e046      	b.n	8003980 <I2C_WaitOnMasterAddressFlagUntilTimeout+0xf6>
    }

    /* Check for the Timeout */
    if (Timeout != HAL_MAX_DELAY)
 80038f2:	687b      	ldr	r3, [r7, #4]
 80038f4:	f1b3 3fff 	cmp.w	r3, #4294967295
 80038f8:	d021      	beq.n	800393e <I2C_WaitOnMasterAddressFlagUntilTimeout+0xb4>
    {
      if (((HAL_GetTick() - Tickstart) > Timeout) || (Timeout == 0U))
 80038fa:	f7fd fda3 	bl	8001444 <HAL_GetTick>
 80038fe:	4602      	mov	r2, r0
 8003900:	683b      	ldr	r3, [r7, #0]
 8003902:	1ad3      	subs	r3, r2, r3
 8003904:	687a      	ldr	r2, [r7, #4]
 8003906:	429a      	cmp	r2, r3
 8003908:	d302      	bcc.n	8003910 <I2C_WaitOnMasterAddressFlagUntilTimeout+0x86>
 800390a:	687b      	ldr	r3, [r7, #4]
 800390c:	2b00      	cmp	r3, #0
 800390e:	d116      	bne.n	800393e <I2C_WaitOnMasterAddressFlagUntilTimeout+0xb4>
      {
        hi2c->PreviousState       = I2C_STATE_NONE;
 8003910:	68fb      	ldr	r3, [r7, #12]
 8003912:	2200      	movs	r2, #0
 8003914:	631a      	str	r2, [r3, #48]	; 0x30
        hi2c->State               = HAL_I2C_STATE_READY;
 8003916:	68fb      	ldr	r3, [r7, #12]
 8003918:	2220      	movs	r2, #32
 800391a:	f883 203d 	strb.w	r2, [r3, #61]	; 0x3d
        hi2c->Mode                = HAL_I2C_MODE_NONE;
 800391e:	68fb      	ldr	r3, [r7, #12]
 8003920:	2200      	movs	r2, #0
 8003922:	f883 203e 	strb.w	r2, [r3, #62]	; 0x3e
        hi2c->ErrorCode           |= HAL_I2C_ERROR_TIMEOUT;
 8003926:	68fb      	ldr	r3, [r7, #12]
 8003928:	6c1b      	ldr	r3, [r3, #64]	; 0x40
 800392a:	f043 0220 	orr.w	r2, r3, #32
 800392e:	68fb      	ldr	r3, [r7, #12]
 8003930:	641a      	str	r2, [r3, #64]	; 0x40

        /* Process Unlocked */
        __HAL_UNLOCK(hi2c);
 8003932:	68fb      	ldr	r3, [r7, #12]
 8003934:	2200      	movs	r2, #0
 8003936:	f883 203c 	strb.w	r2, [r3, #60]	; 0x3c

        return HAL_ERROR;
 800393a:	2301      	movs	r3, #1
 800393c:	e020      	b.n	8003980 <I2C_WaitOnMasterAddressFlagUntilTimeout+0xf6>
  while (__HAL_I2C_GET_FLAG(hi2c, Flag) == RESET)
 800393e:	68bb      	ldr	r3, [r7, #8]
 8003940:	0c1b      	lsrs	r3, r3, #16
 8003942:	b2db      	uxtb	r3, r3
 8003944:	2b01      	cmp	r3, #1
 8003946:	d10c      	bne.n	8003962 <I2C_WaitOnMasterAddressFlagUntilTimeout+0xd8>
 8003948:	68fb      	ldr	r3, [r7, #12]
 800394a:	681b      	ldr	r3, [r3, #0]
 800394c:	695b      	ldr	r3, [r3, #20]
 800394e:	43da      	mvns	r2, r3
 8003950:	68bb      	ldr	r3, [r7, #8]
 8003952:	4013      	ands	r3, r2
 8003954:	b29b      	uxth	r3, r3
 8003956:	2b00      	cmp	r3, #0
 8003958:	bf14      	ite	ne
 800395a:	2301      	movne	r3, #1
 800395c:	2300      	moveq	r3, #0
 800395e:	b2db      	uxtb	r3, r3
 8003960:	e00b      	b.n	800397a <I2C_WaitOnMasterAddressFlagUntilTimeout+0xf0>
 8003962:	68fb      	ldr	r3, [r7, #12]
 8003964:	681b      	ldr	r3, [r3, #0]
 8003966:	699b      	ldr	r3, [r3, #24]
 8003968:	43da      	mvns	r2, r3
 800396a:	68bb      	ldr	r3, [r7, #8]
 800396c:	4013      	ands	r3, r2
 800396e:	b29b      	uxth	r3, r3
 8003970:	2b00      	cmp	r3, #0
 8003972:	bf14      	ite	ne
 8003974:	2301      	movne	r3, #1
 8003976:	2300      	moveq	r3, #0
 8003978:	b2db      	uxtb	r3, r3
 800397a:	2b00      	cmp	r3, #0
 800397c:	d18d      	bne.n	800389a <I2C_WaitOnMasterAddressFlagUntilTimeout+0x10>
      }
    }
  }
  return HAL_OK;
 800397e:	2300      	movs	r3, #0
}
 8003980:	4618      	mov	r0, r3
 8003982:	3710      	adds	r7, #16
 8003984:	46bd      	mov	sp, r7
 8003986:	bd80      	pop	{r7, pc}

08003988 <I2C_WaitOnTXEFlagUntilTimeout>:
  * @param  Timeout Timeout duration
  * @param  Tickstart Tick start value
  * @retval HAL status
  */
static HAL_StatusTypeDef I2C_WaitOnTXEFlagUntilTimeout(I2C_HandleTypeDef *hi2c, uint32_t Timeout, uint32_t Tickstart)
{
 8003988:	b580      	push	{r7, lr}
 800398a:	b084      	sub	sp, #16
 800398c:	af00      	add	r7, sp, #0
 800398e:	60f8      	str	r0, [r7, #12]
 8003990:	60b9      	str	r1, [r7, #8]
 8003992:	607a      	str	r2, [r7, #4]
  while (__HAL_I2C_GET_FLAG(hi2c, I2C_FLAG_TXE) == RESET)
 8003994:	e02d      	b.n	80039f2 <I2C_WaitOnTXEFlagUntilTimeout+0x6a>
  {
    /* Check if a NACK is detected */
    if (I2C_IsAcknowledgeFailed(hi2c) != HAL_OK)
 8003996:	68f8      	ldr	r0, [r7, #12]
 8003998:	f000 f878 	bl	8003a8c <I2C_IsAcknowledgeFailed>
 800399c:	4603      	mov	r3, r0
 800399e:	2b00      	cmp	r3, #0
 80039a0:	d001      	beq.n	80039a6 <I2C_WaitOnTXEFlagUntilTimeout+0x1e>
    {
      return HAL_ERROR;
 80039a2:	2301      	movs	r3, #1
 80039a4:	e02d      	b.n	8003a02 <I2C_WaitOnTXEFlagUntilTimeout+0x7a>
    }

    /* Check for the Timeout */
    if (Timeout != HAL_MAX_DELAY)
 80039a6:	68bb      	ldr	r3, [r7, #8]
 80039a8:	f1b3 3fff 	cmp.w	r3, #4294967295
 80039ac:	d021      	beq.n	80039f2 <I2C_WaitOnTXEFlagUntilTimeout+0x6a>
    {
      if (((HAL_GetTick() - Tickstart) > Timeout) || (Timeout == 0U))
 80039ae:	f7fd fd49 	bl	8001444 <HAL_GetTick>
 80039b2:	4602      	mov	r2, r0
 80039b4:	687b      	ldr	r3, [r7, #4]
 80039b6:	1ad3      	subs	r3, r2, r3
 80039b8:	68ba      	ldr	r2, [r7, #8]
 80039ba:	429a      	cmp	r2, r3
 80039bc:	d302      	bcc.n	80039c4 <I2C_WaitOnTXEFlagUntilTimeout+0x3c>
 80039be:	68bb      	ldr	r3, [r7, #8]
 80039c0:	2b00      	cmp	r3, #0
 80039c2:	d116      	bne.n	80039f2 <I2C_WaitOnTXEFlagUntilTimeout+0x6a>
      {
        hi2c->PreviousState       = I2C_STATE_NONE;
 80039c4:	68fb      	ldr	r3, [r7, #12]
 80039c6:	2200      	movs	r2, #0
 80039c8:	631a      	str	r2, [r3, #48]	; 0x30
        hi2c->State               = HAL_I2C_STATE_READY;
 80039ca:	68fb      	ldr	r3, [r7, #12]
 80039cc:	2220      	movs	r2, #32
 80039ce:	f883 203d 	strb.w	r2, [r3, #61]	; 0x3d
        hi2c->Mode                = HAL_I2C_MODE_NONE;
 80039d2:	68fb      	ldr	r3, [r7, #12]
 80039d4:	2200      	movs	r2, #0
 80039d6:	f883 203e 	strb.w	r2, [r3, #62]	; 0x3e
        hi2c->ErrorCode           |= HAL_I2C_ERROR_TIMEOUT;
 80039da:	68fb      	ldr	r3, [r7, #12]
 80039dc:	6c1b      	ldr	r3, [r3, #64]	; 0x40
 80039de:	f043 0220 	orr.w	r2, r3, #32
 80039e2:	68fb      	ldr	r3, [r7, #12]
 80039e4:	641a      	str	r2, [r3, #64]	; 0x40

        /* Process Unlocked */
        __HAL_UNLOCK(hi2c);
 80039e6:	68fb      	ldr	r3, [r7, #12]
 80039e8:	2200      	movs	r2, #0
 80039ea:	f883 203c 	strb.w	r2, [r3, #60]	; 0x3c

        return HAL_ERROR;
 80039ee:	2301      	movs	r3, #1
 80039f0:	e007      	b.n	8003a02 <I2C_WaitOnTXEFlagUntilTimeout+0x7a>
  while (__HAL_I2C_GET_FLAG(hi2c, I2C_FLAG_TXE) == RESET)
 80039f2:	68fb      	ldr	r3, [r7, #12]
 80039f4:	681b      	ldr	r3, [r3, #0]
 80039f6:	695b      	ldr	r3, [r3, #20]
 80039f8:	f003 0380 	and.w	r3, r3, #128	; 0x80
 80039fc:	2b80      	cmp	r3, #128	; 0x80
 80039fe:	d1ca      	bne.n	8003996 <I2C_WaitOnTXEFlagUntilTimeout+0xe>
      }
    }
  }
  return HAL_OK;
 8003a00:	2300      	movs	r3, #0
}
 8003a02:	4618      	mov	r0, r3
 8003a04:	3710      	adds	r7, #16
 8003a06:	46bd      	mov	sp, r7
 8003a08:	bd80      	pop	{r7, pc}

08003a0a <I2C_WaitOnBTFFlagUntilTimeout>:
  * @param  Timeout Timeout duration
  * @param  Tickstart Tick start value
  * @retval HAL status
  */
static HAL_StatusTypeDef I2C_WaitOnBTFFlagUntilTimeout(I2C_HandleTypeDef *hi2c, uint32_t Timeout, uint32_t Tickstart)
{
 8003a0a:	b580      	push	{r7, lr}
 8003a0c:	b084      	sub	sp, #16
 8003a0e:	af00      	add	r7, sp, #0
 8003a10:	60f8      	str	r0, [r7, #12]
 8003a12:	60b9      	str	r1, [r7, #8]
 8003a14:	607a      	str	r2, [r7, #4]
  while (__HAL_I2C_GET_FLAG(hi2c, I2C_FLAG_BTF) == RESET)
 8003a16:	e02d      	b.n	8003a74 <I2C_WaitOnBTFFlagUntilTimeout+0x6a>
  {
    /* Check if a NACK is detected */
    if (I2C_IsAcknowledgeFailed(hi2c) != HAL_OK)
 8003a18:	68f8      	ldr	r0, [r7, #12]
 8003a1a:	f000 f837 	bl	8003a8c <I2C_IsAcknowledgeFailed>
 8003a1e:	4603      	mov	r3, r0
 8003a20:	2b00      	cmp	r3, #0
 8003a22:	d001      	beq.n	8003a28 <I2C_WaitOnBTFFlagUntilTimeout+0x1e>
    {
      return HAL_ERROR;
 8003a24:	2301      	movs	r3, #1
 8003a26:	e02d      	b.n	8003a84 <I2C_WaitOnBTFFlagUntilTimeout+0x7a>
    }

    /* Check for the Timeout */
    if (Timeout != HAL_MAX_DELAY)
 8003a28:	68bb      	ldr	r3, [r7, #8]
 8003a2a:	f1b3 3fff 	cmp.w	r3, #4294967295
 8003a2e:	d021      	beq.n	8003a74 <I2C_WaitOnBTFFlagUntilTimeout+0x6a>
    {
      if (((HAL_GetTick() - Tickstart) > Timeout) || (Timeout == 0U))
 8003a30:	f7fd fd08 	bl	8001444 <HAL_GetTick>
 8003a34:	4602      	mov	r2, r0
 8003a36:	687b      	ldr	r3, [r7, #4]
 8003a38:	1ad3      	subs	r3, r2, r3
 8003a3a:	68ba      	ldr	r2, [r7, #8]
 8003a3c:	429a      	cmp	r2, r3
 8003a3e:	d302      	bcc.n	8003a46 <I2C_WaitOnBTFFlagUntilTimeout+0x3c>
 8003a40:	68bb      	ldr	r3, [r7, #8]
 8003a42:	2b00      	cmp	r3, #0
 8003a44:	d116      	bne.n	8003a74 <I2C_WaitOnBTFFlagUntilTimeout+0x6a>
      {
        hi2c->PreviousState       = I2C_STATE_NONE;
 8003a46:	68fb      	ldr	r3, [r7, #12]
 8003a48:	2200      	movs	r2, #0
 8003a4a:	631a      	str	r2, [r3, #48]	; 0x30
        hi2c->State               = HAL_I2C_STATE_READY;
 8003a4c:	68fb      	ldr	r3, [r7, #12]
 8003a4e:	2220      	movs	r2, #32
 8003a50:	f883 203d 	strb.w	r2, [r3, #61]	; 0x3d
        hi2c->Mode                = HAL_I2C_MODE_NONE;
 8003a54:	68fb      	ldr	r3, [r7, #12]
 8003a56:	2200      	movs	r2, #0
 8003a58:	f883 203e 	strb.w	r2, [r3, #62]	; 0x3e
        hi2c->ErrorCode           |= HAL_I2C_ERROR_TIMEOUT;
 8003a5c:	68fb      	ldr	r3, [r7, #12]
 8003a5e:	6c1b      	ldr	r3, [r3, #64]	; 0x40
 8003a60:	f043 0220 	orr.w	r2, r3, #32
 8003a64:	68fb      	ldr	r3, [r7, #12]
 8003a66:	641a      	str	r2, [r3, #64]	; 0x40

        /* Process Unlocked */
        __HAL_UNLOCK(hi2c);
 8003a68:	68fb      	ldr	r3, [r7, #12]
 8003a6a:	2200      	movs	r2, #0
 8003a6c:	f883 203c 	strb.w	r2, [r3, #60]	; 0x3c

        return HAL_ERROR;
 8003a70:	2301      	movs	r3, #1
 8003a72:	e007      	b.n	8003a84 <I2C_WaitOnBTFFlagUntilTimeout+0x7a>
  while (__HAL_I2C_GET_FLAG(hi2c, I2C_FLAG_BTF) == RESET)
 8003a74:	68fb      	ldr	r3, [r7, #12]
 8003a76:	681b      	ldr	r3, [r3, #0]
 8003a78:	695b      	ldr	r3, [r3, #20]
 8003a7a:	f003 0304 	and.w	r3, r3, #4
 8003a7e:	2b04      	cmp	r3, #4
 8003a80:	d1ca      	bne.n	8003a18 <I2C_WaitOnBTFFlagUntilTimeout+0xe>
      }
    }
  }
  return HAL_OK;
 8003a82:	2300      	movs	r3, #0
}
 8003a84:	4618      	mov	r0, r3
 8003a86:	3710      	adds	r7, #16
 8003a88:	46bd      	mov	sp, r7
 8003a8a:	bd80      	pop	{r7, pc}

08003a8c <I2C_IsAcknowledgeFailed>:
  * @param  hi2c Pointer to a I2C_HandleTypeDef structure that contains
  *                the configuration information for the specified I2C.
  * @retval HAL status
  */
static HAL_StatusTypeDef I2C_IsAcknowledgeFailed(I2C_HandleTypeDef *hi2c)
{
 8003a8c:	b480      	push	{r7}
 8003a8e:	b083      	sub	sp, #12
 8003a90:	af00      	add	r7, sp, #0
 8003a92:	6078      	str	r0, [r7, #4]
  if (__HAL_I2C_GET_FLAG(hi2c, I2C_FLAG_AF) == SET)
 8003a94:	687b      	ldr	r3, [r7, #4]
 8003a96:	681b      	ldr	r3, [r3, #0]
 8003a98:	695b      	ldr	r3, [r3, #20]
 8003a9a:	f403 6380 	and.w	r3, r3, #1024	; 0x400
 8003a9e:	f5b3 6f80 	cmp.w	r3, #1024	; 0x400
 8003aa2:	d11b      	bne.n	8003adc <I2C_IsAcknowledgeFailed+0x50>
  {
    /* Clear NACKF Flag */
    __HAL_I2C_CLEAR_FLAG(hi2c, I2C_FLAG_AF);
 8003aa4:	687b      	ldr	r3, [r7, #4]
 8003aa6:	681b      	ldr	r3, [r3, #0]
 8003aa8:	f46f 6280 	mvn.w	r2, #1024	; 0x400
 8003aac:	615a      	str	r2, [r3, #20]

    hi2c->PreviousState       = I2C_STATE_NONE;
 8003aae:	687b      	ldr	r3, [r7, #4]
 8003ab0:	2200      	movs	r2, #0
 8003ab2:	631a      	str	r2, [r3, #48]	; 0x30
    hi2c->State               = HAL_I2C_STATE_READY;
 8003ab4:	687b      	ldr	r3, [r7, #4]
 8003ab6:	2220      	movs	r2, #32
 8003ab8:	f883 203d 	strb.w	r2, [r3, #61]	; 0x3d
    hi2c->Mode                = HAL_I2C_MODE_NONE;
 8003abc:	687b      	ldr	r3, [r7, #4]
 8003abe:	2200      	movs	r2, #0
 8003ac0:	f883 203e 	strb.w	r2, [r3, #62]	; 0x3e
    hi2c->ErrorCode           |= HAL_I2C_ERROR_AF;
 8003ac4:	687b      	ldr	r3, [r7, #4]
 8003ac6:	6c1b      	ldr	r3, [r3, #64]	; 0x40
 8003ac8:	f043 0204 	orr.w	r2, r3, #4
 8003acc:	687b      	ldr	r3, [r7, #4]
 8003ace:	641a      	str	r2, [r3, #64]	; 0x40

    /* Process Unlocked */
    __HAL_UNLOCK(hi2c);
 8003ad0:	687b      	ldr	r3, [r7, #4]
 8003ad2:	2200      	movs	r2, #0
 8003ad4:	f883 203c 	strb.w	r2, [r3, #60]	; 0x3c

    return HAL_ERROR;
 8003ad8:	2301      	movs	r3, #1
 8003ada:	e000      	b.n	8003ade <I2C_IsAcknowledgeFailed+0x52>
  }
  return HAL_OK;
 8003adc:	2300      	movs	r3, #0
}
 8003ade:	4618      	mov	r0, r3
 8003ae0:	370c      	adds	r7, #12
 8003ae2:	46bd      	mov	sp, r7
 8003ae4:	bc80      	pop	{r7}
 8003ae6:	4770      	bx	lr

08003ae8 <HAL_RCC_OscConfig>:
  *         supported by this macro. User should request a transition to HSE Off
  *         first and then HSE On or HSE Bypass.
  * @retval HAL status
  */
HAL_StatusTypeDef HAL_RCC_OscConfig(RCC_OscInitTypeDef  *RCC_OscInitStruct)
{
 8003ae8:	b580      	push	{r7, lr}
 8003aea:	b086      	sub	sp, #24
 8003aec:	af00      	add	r7, sp, #0
 8003aee:	6078      	str	r0, [r7, #4]
  uint32_t tickstart;
  uint32_t pll_config;

  /* Check Null pointer */
  if (RCC_OscInitStruct == NULL)
 8003af0:	687b      	ldr	r3, [r7, #4]
 8003af2:	2b00      	cmp	r3, #0
 8003af4:	d101      	bne.n	8003afa <HAL_RCC_OscConfig+0x12>
  {
    return HAL_ERROR;
 8003af6:	2301      	movs	r3, #1
 8003af8:	e26c      	b.n	8003fd4 <HAL_RCC_OscConfig+0x4ec>

  /* Check the parameters */
  assert_param(IS_RCC_OSCILLATORTYPE(RCC_OscInitStruct->OscillatorType));

  /*------------------------------- HSE Configuration ------------------------*/
  if (((RCC_OscInitStruct->OscillatorType) & RCC_OSCILLATORTYPE_HSE) == RCC_OSCILLATORTYPE_HSE)
 8003afa:	687b      	ldr	r3, [r7, #4]
 8003afc:	681b      	ldr	r3, [r3, #0]
 8003afe:	f003 0301 	and.w	r3, r3, #1
 8003b02:	2b00      	cmp	r3, #0
 8003b04:	f000 8087 	beq.w	8003c16 <HAL_RCC_OscConfig+0x12e>
  {
    /* Check the parameters */
    assert_param(IS_RCC_HSE(RCC_OscInitStruct->HSEState));

    /* When the HSE is used as system clock or clock source for PLL in these cases it is not allowed to be disabled */
    if ((__HAL_RCC_GET_SYSCLK_SOURCE() == RCC_SYSCLKSOURCE_STATUS_HSE)
 8003b08:	4b92      	ldr	r3, [pc, #584]	; (8003d54 <HAL_RCC_OscConfig+0x26c>)
 8003b0a:	685b      	ldr	r3, [r3, #4]
 8003b0c:	f003 030c 	and.w	r3, r3, #12
 8003b10:	2b04      	cmp	r3, #4
 8003b12:	d00c      	beq.n	8003b2e <HAL_RCC_OscConfig+0x46>
        || ((__HAL_RCC_GET_SYSCLK_SOURCE() == RCC_SYSCLKSOURCE_STATUS_PLLCLK) && (__HAL_RCC_GET_PLL_OSCSOURCE() == RCC_PLLSOURCE_HSE)))
 8003b14:	4b8f      	ldr	r3, [pc, #572]	; (8003d54 <HAL_RCC_OscConfig+0x26c>)
 8003b16:	685b      	ldr	r3, [r3, #4]
 8003b18:	f003 030c 	and.w	r3, r3, #12
 8003b1c:	2b08      	cmp	r3, #8
 8003b1e:	d112      	bne.n	8003b46 <HAL_RCC_OscConfig+0x5e>
 8003b20:	4b8c      	ldr	r3, [pc, #560]	; (8003d54 <HAL_RCC_OscConfig+0x26c>)
 8003b22:	685b      	ldr	r3, [r3, #4]
 8003b24:	f403 3380 	and.w	r3, r3, #65536	; 0x10000
 8003b28:	f5b3 3f80 	cmp.w	r3, #65536	; 0x10000
 8003b2c:	d10b      	bne.n	8003b46 <HAL_RCC_OscConfig+0x5e>
    {
      if ((__HAL_RCC_GET_FLAG(RCC_FLAG_HSERDY) != RESET) && (RCC_OscInitStruct->HSEState == RCC_HSE_OFF))
 8003b2e:	4b89      	ldr	r3, [pc, #548]	; (8003d54 <HAL_RCC_OscConfig+0x26c>)
 8003b30:	681b      	ldr	r3, [r3, #0]
 8003b32:	f403 3300 	and.w	r3, r3, #131072	; 0x20000
 8003b36:	2b00      	cmp	r3, #0
 8003b38:	d06c      	beq.n	8003c14 <HAL_RCC_OscConfig+0x12c>
 8003b3a:	687b      	ldr	r3, [r7, #4]
 8003b3c:	685b      	ldr	r3, [r3, #4]
 8003b3e:	2b00      	cmp	r3, #0
 8003b40:	d168      	bne.n	8003c14 <HAL_RCC_OscConfig+0x12c>
      {
        return HAL_ERROR;
 8003b42:	2301      	movs	r3, #1
 8003b44:	e246      	b.n	8003fd4 <HAL_RCC_OscConfig+0x4ec>
      }
    }
    else
    {
      /* Set the new HSE configuration ---------------------------------------*/
      __HAL_RCC_HSE_CONFIG(RCC_OscInitStruct->HSEState);
 8003b46:	687b      	ldr	r3, [r7, #4]
 8003b48:	685b      	ldr	r3, [r3, #4]
 8003b4a:	f5b3 3f80 	cmp.w	r3, #65536	; 0x10000
 8003b4e:	d106      	bne.n	8003b5e <HAL_RCC_OscConfig+0x76>
 8003b50:	4b80      	ldr	r3, [pc, #512]	; (8003d54 <HAL_RCC_OscConfig+0x26c>)
 8003b52:	681b      	ldr	r3, [r3, #0]
 8003b54:	4a7f      	ldr	r2, [pc, #508]	; (8003d54 <HAL_RCC_OscConfig+0x26c>)
 8003b56:	f443 3380 	orr.w	r3, r3, #65536	; 0x10000
 8003b5a:	6013      	str	r3, [r2, #0]
 8003b5c:	e02e      	b.n	8003bbc <HAL_RCC_OscConfig+0xd4>
 8003b5e:	687b      	ldr	r3, [r7, #4]
 8003b60:	685b      	ldr	r3, [r3, #4]
 8003b62:	2b00      	cmp	r3, #0
 8003b64:	d10c      	bne.n	8003b80 <HAL_RCC_OscConfig+0x98>
 8003b66:	4b7b      	ldr	r3, [pc, #492]	; (8003d54 <HAL_RCC_OscConfig+0x26c>)
 8003b68:	681b      	ldr	r3, [r3, #0]
 8003b6a:	4a7a      	ldr	r2, [pc, #488]	; (8003d54 <HAL_RCC_OscConfig+0x26c>)
 8003b6c:	f423 3380 	bic.w	r3, r3, #65536	; 0x10000
 8003b70:	6013      	str	r3, [r2, #0]
 8003b72:	4b78      	ldr	r3, [pc, #480]	; (8003d54 <HAL_RCC_OscConfig+0x26c>)
 8003b74:	681b      	ldr	r3, [r3, #0]
 8003b76:	4a77      	ldr	r2, [pc, #476]	; (8003d54 <HAL_RCC_OscConfig+0x26c>)
 8003b78:	f423 2380 	bic.w	r3, r3, #262144	; 0x40000
 8003b7c:	6013      	str	r3, [r2, #0]
 8003b7e:	e01d      	b.n	8003bbc <HAL_RCC_OscConfig+0xd4>
 8003b80:	687b      	ldr	r3, [r7, #4]
 8003b82:	685b      	ldr	r3, [r3, #4]
 8003b84:	f5b3 2fa0 	cmp.w	r3, #327680	; 0x50000
 8003b88:	d10c      	bne.n	8003ba4 <HAL_RCC_OscConfig+0xbc>
 8003b8a:	4b72      	ldr	r3, [pc, #456]	; (8003d54 <HAL_RCC_OscConfig+0x26c>)
 8003b8c:	681b      	ldr	r3, [r3, #0]
 8003b8e:	4a71      	ldr	r2, [pc, #452]	; (8003d54 <HAL_RCC_OscConfig+0x26c>)
 8003b90:	f443 2380 	orr.w	r3, r3, #262144	; 0x40000
 8003b94:	6013      	str	r3, [r2, #0]
 8003b96:	4b6f      	ldr	r3, [pc, #444]	; (8003d54 <HAL_RCC_OscConfig+0x26c>)
 8003b98:	681b      	ldr	r3, [r3, #0]
 8003b9a:	4a6e      	ldr	r2, [pc, #440]	; (8003d54 <HAL_RCC_OscConfig+0x26c>)
 8003b9c:	f443 3380 	orr.w	r3, r3, #65536	; 0x10000
 8003ba0:	6013      	str	r3, [r2, #0]
 8003ba2:	e00b      	b.n	8003bbc <HAL_RCC_OscConfig+0xd4>
 8003ba4:	4b6b      	ldr	r3, [pc, #428]	; (8003d54 <HAL_RCC_OscConfig+0x26c>)
 8003ba6:	681b      	ldr	r3, [r3, #0]
 8003ba8:	4a6a      	ldr	r2, [pc, #424]	; (8003d54 <HAL_RCC_OscConfig+0x26c>)
 8003baa:	f423 3380 	bic.w	r3, r3, #65536	; 0x10000
 8003bae:	6013      	str	r3, [r2, #0]
 8003bb0:	4b68      	ldr	r3, [pc, #416]	; (8003d54 <HAL_RCC_OscConfig+0x26c>)
 8003bb2:	681b      	ldr	r3, [r3, #0]
 8003bb4:	4a67      	ldr	r2, [pc, #412]	; (8003d54 <HAL_RCC_OscConfig+0x26c>)
 8003bb6:	f423 2380 	bic.w	r3, r3, #262144	; 0x40000
 8003bba:	6013      	str	r3, [r2, #0]


      /* Check the HSE State */
      if (RCC_OscInitStruct->HSEState != RCC_HSE_OFF)
 8003bbc:	687b      	ldr	r3, [r7, #4]
 8003bbe:	685b      	ldr	r3, [r3, #4]
 8003bc0:	2b00      	cmp	r3, #0
 8003bc2:	d013      	beq.n	8003bec <HAL_RCC_OscConfig+0x104>
      {
        /* Get Start Tick */
        tickstart = HAL_GetTick();
 8003bc4:	f7fd fc3e 	bl	8001444 <HAL_GetTick>
 8003bc8:	6138      	str	r0, [r7, #16]

        /* Wait till HSE is ready */
        while (__HAL_RCC_GET_FLAG(RCC_FLAG_HSERDY) == RESET)
 8003bca:	e008      	b.n	8003bde <HAL_RCC_OscConfig+0xf6>
        {
          if ((HAL_GetTick() - tickstart) > HSE_TIMEOUT_VALUE)
 8003bcc:	f7fd fc3a 	bl	8001444 <HAL_GetTick>
 8003bd0:	4602      	mov	r2, r0
 8003bd2:	693b      	ldr	r3, [r7, #16]
 8003bd4:	1ad3      	subs	r3, r2, r3
 8003bd6:	2b64      	cmp	r3, #100	; 0x64
 8003bd8:	d901      	bls.n	8003bde <HAL_RCC_OscConfig+0xf6>
          {
            return HAL_TIMEOUT;
 8003bda:	2303      	movs	r3, #3
 8003bdc:	e1fa      	b.n	8003fd4 <HAL_RCC_OscConfig+0x4ec>
        while (__HAL_RCC_GET_FLAG(RCC_FLAG_HSERDY) == RESET)
 8003bde:	4b5d      	ldr	r3, [pc, #372]	; (8003d54 <HAL_RCC_OscConfig+0x26c>)
 8003be0:	681b      	ldr	r3, [r3, #0]
 8003be2:	f403 3300 	and.w	r3, r3, #131072	; 0x20000
 8003be6:	2b00      	cmp	r3, #0
 8003be8:	d0f0      	beq.n	8003bcc <HAL_RCC_OscConfig+0xe4>
 8003bea:	e014      	b.n	8003c16 <HAL_RCC_OscConfig+0x12e>
        }
      }
      else
      {
        /* Get Start Tick */
        tickstart = HAL_GetTick();
 8003bec:	f7fd fc2a 	bl	8001444 <HAL_GetTick>
 8003bf0:	6138      	str	r0, [r7, #16]

        /* Wait till HSE is disabled */
        while (__HAL_RCC_GET_FLAG(RCC_FLAG_HSERDY) != RESET)
 8003bf2:	e008      	b.n	8003c06 <HAL_RCC_OscConfig+0x11e>
        {
          if ((HAL_GetTick() - tickstart) > HSE_TIMEOUT_VALUE)
 8003bf4:	f7fd fc26 	bl	8001444 <HAL_GetTick>
 8003bf8:	4602      	mov	r2, r0
 8003bfa:	693b      	ldr	r3, [r7, #16]
 8003bfc:	1ad3      	subs	r3, r2, r3
 8003bfe:	2b64      	cmp	r3, #100	; 0x64
 8003c00:	d901      	bls.n	8003c06 <HAL_RCC_OscConfig+0x11e>
          {
            return HAL_TIMEOUT;
 8003c02:	2303      	movs	r3, #3
 8003c04:	e1e6      	b.n	8003fd4 <HAL_RCC_OscConfig+0x4ec>
        while (__HAL_RCC_GET_FLAG(RCC_FLAG_HSERDY) != RESET)
 8003c06:	4b53      	ldr	r3, [pc, #332]	; (8003d54 <HAL_RCC_OscConfig+0x26c>)
 8003c08:	681b      	ldr	r3, [r3, #0]
 8003c0a:	f403 3300 	and.w	r3, r3, #131072	; 0x20000
 8003c0e:	2b00      	cmp	r3, #0
 8003c10:	d1f0      	bne.n	8003bf4 <HAL_RCC_OscConfig+0x10c>
 8003c12:	e000      	b.n	8003c16 <HAL_RCC_OscConfig+0x12e>
      if ((__HAL_RCC_GET_FLAG(RCC_FLAG_HSERDY) != RESET) && (RCC_OscInitStruct->HSEState == RCC_HSE_OFF))
 8003c14:	bf00      	nop
        }
      }
    }
  }
  /*----------------------------- HSI Configuration --------------------------*/
  if (((RCC_OscInitStruct->OscillatorType) & RCC_OSCILLATORTYPE_HSI) == RCC_OSCILLATORTYPE_HSI)
 8003c16:	687b      	ldr	r3, [r7, #4]
 8003c18:	681b      	ldr	r3, [r3, #0]
 8003c1a:	f003 0302 	and.w	r3, r3, #2
 8003c1e:	2b00      	cmp	r3, #0
 8003c20:	d063      	beq.n	8003cea <HAL_RCC_OscConfig+0x202>
    /* Check the parameters */
    assert_param(IS_RCC_HSI(RCC_OscInitStruct->HSIState));
    assert_param(IS_RCC_CALIBRATION_VALUE(RCC_OscInitStruct->HSICalibrationValue));

    /* Check if HSI is used as system clock or as PLL source when PLL is selected as system clock */
    if ((__HAL_RCC_GET_SYSCLK_SOURCE() == RCC_SYSCLKSOURCE_STATUS_HSI)
 8003c22:	4b4c      	ldr	r3, [pc, #304]	; (8003d54 <HAL_RCC_OscConfig+0x26c>)
 8003c24:	685b      	ldr	r3, [r3, #4]
 8003c26:	f003 030c 	and.w	r3, r3, #12
 8003c2a:	2b00      	cmp	r3, #0
 8003c2c:	d00b      	beq.n	8003c46 <HAL_RCC_OscConfig+0x15e>
        || ((__HAL_RCC_GET_SYSCLK_SOURCE() == RCC_SYSCLKSOURCE_STATUS_PLLCLK) && (__HAL_RCC_GET_PLL_OSCSOURCE() == RCC_PLLSOURCE_HSI_DIV2)))
 8003c2e:	4b49      	ldr	r3, [pc, #292]	; (8003d54 <HAL_RCC_OscConfig+0x26c>)
 8003c30:	685b      	ldr	r3, [r3, #4]
 8003c32:	f003 030c 	and.w	r3, r3, #12
 8003c36:	2b08      	cmp	r3, #8
 8003c38:	d11c      	bne.n	8003c74 <HAL_RCC_OscConfig+0x18c>
 8003c3a:	4b46      	ldr	r3, [pc, #280]	; (8003d54 <HAL_RCC_OscConfig+0x26c>)
 8003c3c:	685b      	ldr	r3, [r3, #4]
 8003c3e:	f403 3380 	and.w	r3, r3, #65536	; 0x10000
 8003c42:	2b00      	cmp	r3, #0
 8003c44:	d116      	bne.n	8003c74 <HAL_RCC_OscConfig+0x18c>
    {
      /* When HSI is used as system clock it will not disabled */
      if ((__HAL_RCC_GET_FLAG(RCC_FLAG_HSIRDY) != RESET) && (RCC_OscInitStruct->HSIState != RCC_HSI_ON))
 8003c46:	4b43      	ldr	r3, [pc, #268]	; (8003d54 <HAL_RCC_OscConfig+0x26c>)
 8003c48:	681b      	ldr	r3, [r3, #0]
 8003c4a:	f003 0302 	and.w	r3, r3, #2
 8003c4e:	2b00      	cmp	r3, #0
 8003c50:	d005      	beq.n	8003c5e <HAL_RCC_OscConfig+0x176>
 8003c52:	687b      	ldr	r3, [r7, #4]
 8003c54:	691b      	ldr	r3, [r3, #16]
 8003c56:	2b01      	cmp	r3, #1
 8003c58:	d001      	beq.n	8003c5e <HAL_RCC_OscConfig+0x176>
      {
        return HAL_ERROR;
 8003c5a:	2301      	movs	r3, #1
 8003c5c:	e1ba      	b.n	8003fd4 <HAL_RCC_OscConfig+0x4ec>
      }
      /* Otherwise, just the calibration is allowed */
      else
      {
        /* Adjusts the Internal High Speed oscillator (HSI) calibration value.*/
        __HAL_RCC_HSI_CALIBRATIONVALUE_ADJUST(RCC_OscInitStruct->HSICalibrationValue);
 8003c5e:	4b3d      	ldr	r3, [pc, #244]	; (8003d54 <HAL_RCC_OscConfig+0x26c>)
 8003c60:	681b      	ldr	r3, [r3, #0]
 8003c62:	f023 02f8 	bic.w	r2, r3, #248	; 0xf8
 8003c66:	687b      	ldr	r3, [r7, #4]
 8003c68:	695b      	ldr	r3, [r3, #20]
 8003c6a:	00db      	lsls	r3, r3, #3
 8003c6c:	4939      	ldr	r1, [pc, #228]	; (8003d54 <HAL_RCC_OscConfig+0x26c>)
 8003c6e:	4313      	orrs	r3, r2
 8003c70:	600b      	str	r3, [r1, #0]
      if ((__HAL_RCC_GET_FLAG(RCC_FLAG_HSIRDY) != RESET) && (RCC_OscInitStruct->HSIState != RCC_HSI_ON))
 8003c72:	e03a      	b.n	8003cea <HAL_RCC_OscConfig+0x202>
      }
    }
    else
    {
      /* Check the HSI State */
      if (RCC_OscInitStruct->HSIState != RCC_HSI_OFF)
 8003c74:	687b      	ldr	r3, [r7, #4]
 8003c76:	691b      	ldr	r3, [r3, #16]
 8003c78:	2b00      	cmp	r3, #0
 8003c7a:	d020      	beq.n	8003cbe <HAL_RCC_OscConfig+0x1d6>
      {
        /* Enable the Internal High Speed oscillator (HSI). */
        __HAL_RCC_HSI_ENABLE();
 8003c7c:	4b36      	ldr	r3, [pc, #216]	; (8003d58 <HAL_RCC_OscConfig+0x270>)
 8003c7e:	2201      	movs	r2, #1
 8003c80:	601a      	str	r2, [r3, #0]

        /* Get Start Tick */
        tickstart = HAL_GetTick();
 8003c82:	f7fd fbdf 	bl	8001444 <HAL_GetTick>
 8003c86:	6138      	str	r0, [r7, #16]

        /* Wait till HSI is ready */
        while (__HAL_RCC_GET_FLAG(RCC_FLAG_HSIRDY) == RESET)
 8003c88:	e008      	b.n	8003c9c <HAL_RCC_OscConfig+0x1b4>
        {
          if ((HAL_GetTick() - tickstart) > HSI_TIMEOUT_VALUE)
 8003c8a:	f7fd fbdb 	bl	8001444 <HAL_GetTick>
 8003c8e:	4602      	mov	r2, r0
 8003c90:	693b      	ldr	r3, [r7, #16]
 8003c92:	1ad3      	subs	r3, r2, r3
 8003c94:	2b02      	cmp	r3, #2
 8003c96:	d901      	bls.n	8003c9c <HAL_RCC_OscConfig+0x1b4>
          {
            return HAL_TIMEOUT;
 8003c98:	2303      	movs	r3, #3
 8003c9a:	e19b      	b.n	8003fd4 <HAL_RCC_OscConfig+0x4ec>
        while (__HAL_RCC_GET_FLAG(RCC_FLAG_HSIRDY) == RESET)
 8003c9c:	4b2d      	ldr	r3, [pc, #180]	; (8003d54 <HAL_RCC_OscConfig+0x26c>)
 8003c9e:	681b      	ldr	r3, [r3, #0]
 8003ca0:	f003 0302 	and.w	r3, r3, #2
 8003ca4:	2b00      	cmp	r3, #0
 8003ca6:	d0f0      	beq.n	8003c8a <HAL_RCC_OscConfig+0x1a2>
          }
        }

        /* Adjusts the Internal High Speed oscillator (HSI) calibration value.*/
        __HAL_RCC_HSI_CALIBRATIONVALUE_ADJUST(RCC_OscInitStruct->HSICalibrationValue);
 8003ca8:	4b2a      	ldr	r3, [pc, #168]	; (8003d54 <HAL_RCC_OscConfig+0x26c>)
 8003caa:	681b      	ldr	r3, [r3, #0]
 8003cac:	f023 02f8 	bic.w	r2, r3, #248	; 0xf8
 8003cb0:	687b      	ldr	r3, [r7, #4]
 8003cb2:	695b      	ldr	r3, [r3, #20]
 8003cb4:	00db      	lsls	r3, r3, #3
 8003cb6:	4927      	ldr	r1, [pc, #156]	; (8003d54 <HAL_RCC_OscConfig+0x26c>)
 8003cb8:	4313      	orrs	r3, r2
 8003cba:	600b      	str	r3, [r1, #0]
 8003cbc:	e015      	b.n	8003cea <HAL_RCC_OscConfig+0x202>
      }
      else
      {
        /* Disable the Internal High Speed oscillator (HSI). */
        __HAL_RCC_HSI_DISABLE();
 8003cbe:	4b26      	ldr	r3, [pc, #152]	; (8003d58 <HAL_RCC_OscConfig+0x270>)
 8003cc0:	2200      	movs	r2, #0
 8003cc2:	601a      	str	r2, [r3, #0]

        /* Get Start Tick */
        tickstart = HAL_GetTick();
 8003cc4:	f7fd fbbe 	bl	8001444 <HAL_GetTick>
 8003cc8:	6138      	str	r0, [r7, #16]

        /* Wait till HSI is disabled */
        while (__HAL_RCC_GET_FLAG(RCC_FLAG_HSIRDY) != RESET)
 8003cca:	e008      	b.n	8003cde <HAL_RCC_OscConfig+0x1f6>
        {
          if ((HAL_GetTick() - tickstart) > HSI_TIMEOUT_VALUE)
 8003ccc:	f7fd fbba 	bl	8001444 <HAL_GetTick>
 8003cd0:	4602      	mov	r2, r0
 8003cd2:	693b      	ldr	r3, [r7, #16]
 8003cd4:	1ad3      	subs	r3, r2, r3
 8003cd6:	2b02      	cmp	r3, #2
 8003cd8:	d901      	bls.n	8003cde <HAL_RCC_OscConfig+0x1f6>
          {
            return HAL_TIMEOUT;
 8003cda:	2303      	movs	r3, #3
 8003cdc:	e17a      	b.n	8003fd4 <HAL_RCC_OscConfig+0x4ec>
        while (__HAL_RCC_GET_FLAG(RCC_FLAG_HSIRDY) != RESET)
 8003cde:	4b1d      	ldr	r3, [pc, #116]	; (8003d54 <HAL_RCC_OscConfig+0x26c>)
 8003ce0:	681b      	ldr	r3, [r3, #0]
 8003ce2:	f003 0302 	and.w	r3, r3, #2
 8003ce6:	2b00      	cmp	r3, #0
 8003ce8:	d1f0      	bne.n	8003ccc <HAL_RCC_OscConfig+0x1e4>
        }
      }
    }
  }
  /*------------------------------ LSI Configuration -------------------------*/
  if (((RCC_OscInitStruct->OscillatorType) & RCC_OSCILLATORTYPE_LSI) == RCC_OSCILLATORTYPE_LSI)
 8003cea:	687b      	ldr	r3, [r7, #4]
 8003cec:	681b      	ldr	r3, [r3, #0]
 8003cee:	f003 0308 	and.w	r3, r3, #8
 8003cf2:	2b00      	cmp	r3, #0
 8003cf4:	d03a      	beq.n	8003d6c <HAL_RCC_OscConfig+0x284>
  {
    /* Check the parameters */
    assert_param(IS_RCC_LSI(RCC_OscInitStruct->LSIState));

    /* Check the LSI State */
    if (RCC_OscInitStruct->LSIState != RCC_LSI_OFF)
 8003cf6:	687b      	ldr	r3, [r7, #4]
 8003cf8:	699b      	ldr	r3, [r3, #24]
 8003cfa:	2b00      	cmp	r3, #0
 8003cfc:	d019      	beq.n	8003d32 <HAL_RCC_OscConfig+0x24a>
    {
      /* Enable the Internal Low Speed oscillator (LSI). */
      __HAL_RCC_LSI_ENABLE();
 8003cfe:	4b17      	ldr	r3, [pc, #92]	; (8003d5c <HAL_RCC_OscConfig+0x274>)
 8003d00:	2201      	movs	r2, #1
 8003d02:	601a      	str	r2, [r3, #0]

      /* Get Start Tick */
      tickstart = HAL_GetTick();
 8003d04:	f7fd fb9e 	bl	8001444 <HAL_GetTick>
 8003d08:	6138      	str	r0, [r7, #16]

      /* Wait till LSI is ready */
      while (__HAL_RCC_GET_FLAG(RCC_FLAG_LSIRDY) == RESET)
 8003d0a:	e008      	b.n	8003d1e <HAL_RCC_OscConfig+0x236>
      {
        if ((HAL_GetTick() - tickstart) > LSI_TIMEOUT_VALUE)
 8003d0c:	f7fd fb9a 	bl	8001444 <HAL_GetTick>
 8003d10:	4602      	mov	r2, r0
 8003d12:	693b      	ldr	r3, [r7, #16]
 8003d14:	1ad3      	subs	r3, r2, r3
 8003d16:	2b02      	cmp	r3, #2
 8003d18:	d901      	bls.n	8003d1e <HAL_RCC_OscConfig+0x236>
        {
          return HAL_TIMEOUT;
 8003d1a:	2303      	movs	r3, #3
 8003d1c:	e15a      	b.n	8003fd4 <HAL_RCC_OscConfig+0x4ec>
      while (__HAL_RCC_GET_FLAG(RCC_FLAG_LSIRDY) == RESET)
 8003d1e:	4b0d      	ldr	r3, [pc, #52]	; (8003d54 <HAL_RCC_OscConfig+0x26c>)
 8003d20:	6a5b      	ldr	r3, [r3, #36]	; 0x24
 8003d22:	f003 0302 	and.w	r3, r3, #2
 8003d26:	2b00      	cmp	r3, #0
 8003d28:	d0f0      	beq.n	8003d0c <HAL_RCC_OscConfig+0x224>
        }
      }
      /*  To have a fully stabilized clock in the specified range, a software delay of 1ms
          should be added.*/
      RCC_Delay(1);
 8003d2a:	2001      	movs	r0, #1
 8003d2c:	f000 fb0a 	bl	8004344 <RCC_Delay>
 8003d30:	e01c      	b.n	8003d6c <HAL_RCC_OscConfig+0x284>
    }
    else
    {
      /* Disable the Internal Low Speed oscillator (LSI). */
      __HAL_RCC_LSI_DISABLE();
 8003d32:	4b0a      	ldr	r3, [pc, #40]	; (8003d5c <HAL_RCC_OscConfig+0x274>)
 8003d34:	2200      	movs	r2, #0
 8003d36:	601a      	str	r2, [r3, #0]

      /* Get Start Tick */
      tickstart = HAL_GetTick();
 8003d38:	f7fd fb84 	bl	8001444 <HAL_GetTick>
 8003d3c:	6138      	str	r0, [r7, #16]

      /* Wait till LSI is disabled */
      while (__HAL_RCC_GET_FLAG(RCC_FLAG_LSIRDY) != RESET)
 8003d3e:	e00f      	b.n	8003d60 <HAL_RCC_OscConfig+0x278>
      {
        if ((HAL_GetTick() - tickstart) > LSI_TIMEOUT_VALUE)
 8003d40:	f7fd fb80 	bl	8001444 <HAL_GetTick>
 8003d44:	4602      	mov	r2, r0
 8003d46:	693b      	ldr	r3, [r7, #16]
 8003d48:	1ad3      	subs	r3, r2, r3
 8003d4a:	2b02      	cmp	r3, #2
 8003d4c:	d908      	bls.n	8003d60 <HAL_RCC_OscConfig+0x278>
        {
          return HAL_TIMEOUT;
 8003d4e:	2303      	movs	r3, #3
 8003d50:	e140      	b.n	8003fd4 <HAL_RCC_OscConfig+0x4ec>
 8003d52:	bf00      	nop
 8003d54:	40021000 	.word	0x40021000
 8003d58:	42420000 	.word	0x42420000
 8003d5c:	42420480 	.word	0x42420480
      while (__HAL_RCC_GET_FLAG(RCC_FLAG_LSIRDY) != RESET)
 8003d60:	4b9e      	ldr	r3, [pc, #632]	; (8003fdc <HAL_RCC_OscConfig+0x4f4>)
 8003d62:	6a5b      	ldr	r3, [r3, #36]	; 0x24
 8003d64:	f003 0302 	and.w	r3, r3, #2
 8003d68:	2b00      	cmp	r3, #0
 8003d6a:	d1e9      	bne.n	8003d40 <HAL_RCC_OscConfig+0x258>
        }
      }
    }
  }
  /*------------------------------ LSE Configuration -------------------------*/
  if (((RCC_OscInitStruct->OscillatorType) & RCC_OSCILLATORTYPE_LSE) == RCC_OSCILLATORTYPE_LSE)
 8003d6c:	687b      	ldr	r3, [r7, #4]
 8003d6e:	681b      	ldr	r3, [r3, #0]
 8003d70:	f003 0304 	and.w	r3, r3, #4
 8003d74:	2b00      	cmp	r3, #0
 8003d76:	f000 80a6 	beq.w	8003ec6 <HAL_RCC_OscConfig+0x3de>
  {
    FlagStatus       pwrclkchanged = RESET;
 8003d7a:	2300      	movs	r3, #0
 8003d7c:	75fb      	strb	r3, [r7, #23]
    /* Check the parameters */
    assert_param(IS_RCC_LSE(RCC_OscInitStruct->LSEState));

    /* Update LSE configuration in Backup Domain control register    */
    /* Requires to enable write access to Backup Domain of necessary */
    if (__HAL_RCC_PWR_IS_CLK_DISABLED())
 8003d7e:	4b97      	ldr	r3, [pc, #604]	; (8003fdc <HAL_RCC_OscConfig+0x4f4>)
 8003d80:	69db      	ldr	r3, [r3, #28]
 8003d82:	f003 5380 	and.w	r3, r3, #268435456	; 0x10000000
 8003d86:	2b00      	cmp	r3, #0
 8003d88:	d10d      	bne.n	8003da6 <HAL_RCC_OscConfig+0x2be>
    {
      __HAL_RCC_PWR_CLK_ENABLE();
 8003d8a:	4b94      	ldr	r3, [pc, #592]	; (8003fdc <HAL_RCC_OscConfig+0x4f4>)
 8003d8c:	69db      	ldr	r3, [r3, #28]
 8003d8e:	4a93      	ldr	r2, [pc, #588]	; (8003fdc <HAL_RCC_OscConfig+0x4f4>)
 8003d90:	f043 5380 	orr.w	r3, r3, #268435456	; 0x10000000
 8003d94:	61d3      	str	r3, [r2, #28]
 8003d96:	4b91      	ldr	r3, [pc, #580]	; (8003fdc <HAL_RCC_OscConfig+0x4f4>)
 8003d98:	69db      	ldr	r3, [r3, #28]
 8003d9a:	f003 5380 	and.w	r3, r3, #268435456	; 0x10000000
 8003d9e:	60bb      	str	r3, [r7, #8]
 8003da0:	68bb      	ldr	r3, [r7, #8]
      pwrclkchanged = SET;
 8003da2:	2301      	movs	r3, #1
 8003da4:	75fb      	strb	r3, [r7, #23]
    }

    if (HAL_IS_BIT_CLR(PWR->CR, PWR_CR_DBP))
 8003da6:	4b8e      	ldr	r3, [pc, #568]	; (8003fe0 <HAL_RCC_OscConfig+0x4f8>)
 8003da8:	681b      	ldr	r3, [r3, #0]
 8003daa:	f403 7380 	and.w	r3, r3, #256	; 0x100
 8003dae:	2b00      	cmp	r3, #0
 8003db0:	d118      	bne.n	8003de4 <HAL_RCC_OscConfig+0x2fc>
    {
      /* Enable write access to Backup domain */
      SET_BIT(PWR->CR, PWR_CR_DBP);
 8003db2:	4b8b      	ldr	r3, [pc, #556]	; (8003fe0 <HAL_RCC_OscConfig+0x4f8>)
 8003db4:	681b      	ldr	r3, [r3, #0]
 8003db6:	4a8a      	ldr	r2, [pc, #552]	; (8003fe0 <HAL_RCC_OscConfig+0x4f8>)
 8003db8:	f443 7380 	orr.w	r3, r3, #256	; 0x100
 8003dbc:	6013      	str	r3, [r2, #0]

      /* Wait for Backup domain Write protection disable */
      tickstart = HAL_GetTick();
 8003dbe:	f7fd fb41 	bl	8001444 <HAL_GetTick>
 8003dc2:	6138      	str	r0, [r7, #16]

      while (HAL_IS_BIT_CLR(PWR->CR, PWR_CR_DBP))
 8003dc4:	e008      	b.n	8003dd8 <HAL_RCC_OscConfig+0x2f0>
      {
        if ((HAL_GetTick() - tickstart) > RCC_DBP_TIMEOUT_VALUE)
 8003dc6:	f7fd fb3d 	bl	8001444 <HAL_GetTick>
 8003dca:	4602      	mov	r2, r0
 8003dcc:	693b      	ldr	r3, [r7, #16]
 8003dce:	1ad3      	subs	r3, r2, r3
 8003dd0:	2b64      	cmp	r3, #100	; 0x64
 8003dd2:	d901      	bls.n	8003dd8 <HAL_RCC_OscConfig+0x2f0>
        {
          return HAL_TIMEOUT;
 8003dd4:	2303      	movs	r3, #3
 8003dd6:	e0fd      	b.n	8003fd4 <HAL_RCC_OscConfig+0x4ec>
      while (HAL_IS_BIT_CLR(PWR->CR, PWR_CR_DBP))
 8003dd8:	4b81      	ldr	r3, [pc, #516]	; (8003fe0 <HAL_RCC_OscConfig+0x4f8>)
 8003dda:	681b      	ldr	r3, [r3, #0]
 8003ddc:	f403 7380 	and.w	r3, r3, #256	; 0x100
 8003de0:	2b00      	cmp	r3, #0
 8003de2:	d0f0      	beq.n	8003dc6 <HAL_RCC_OscConfig+0x2de>
        }
      }
    }

    /* Set the new LSE configuration -----------------------------------------*/
    __HAL_RCC_LSE_CONFIG(RCC_OscInitStruct->LSEState);
 8003de4:	687b      	ldr	r3, [r7, #4]
 8003de6:	68db      	ldr	r3, [r3, #12]
 8003de8:	2b01      	cmp	r3, #1
 8003dea:	d106      	bne.n	8003dfa <HAL_RCC_OscConfig+0x312>
 8003dec:	4b7b      	ldr	r3, [pc, #492]	; (8003fdc <HAL_RCC_OscConfig+0x4f4>)
 8003dee:	6a1b      	ldr	r3, [r3, #32]
 8003df0:	4a7a      	ldr	r2, [pc, #488]	; (8003fdc <HAL_RCC_OscConfig+0x4f4>)
 8003df2:	f043 0301 	orr.w	r3, r3, #1
 8003df6:	6213      	str	r3, [r2, #32]
 8003df8:	e02d      	b.n	8003e56 <HAL_RCC_OscConfig+0x36e>
 8003dfa:	687b      	ldr	r3, [r7, #4]
 8003dfc:	68db      	ldr	r3, [r3, #12]
 8003dfe:	2b00      	cmp	r3, #0
 8003e00:	d10c      	bne.n	8003e1c <HAL_RCC_OscConfig+0x334>
 8003e02:	4b76      	ldr	r3, [pc, #472]	; (8003fdc <HAL_RCC_OscConfig+0x4f4>)
 8003e04:	6a1b      	ldr	r3, [r3, #32]
 8003e06:	4a75      	ldr	r2, [pc, #468]	; (8003fdc <HAL_RCC_OscConfig+0x4f4>)
 8003e08:	f023 0301 	bic.w	r3, r3, #1
 8003e0c:	6213      	str	r3, [r2, #32]
 8003e0e:	4b73      	ldr	r3, [pc, #460]	; (8003fdc <HAL_RCC_OscConfig+0x4f4>)
 8003e10:	6a1b      	ldr	r3, [r3, #32]
 8003e12:	4a72      	ldr	r2, [pc, #456]	; (8003fdc <HAL_RCC_OscConfig+0x4f4>)
 8003e14:	f023 0304 	bic.w	r3, r3, #4
 8003e18:	6213      	str	r3, [r2, #32]
 8003e1a:	e01c      	b.n	8003e56 <HAL_RCC_OscConfig+0x36e>
 8003e1c:	687b      	ldr	r3, [r7, #4]
 8003e1e:	68db      	ldr	r3, [r3, #12]
 8003e20:	2b05      	cmp	r3, #5
 8003e22:	d10c      	bne.n	8003e3e <HAL_RCC_OscConfig+0x356>
 8003e24:	4b6d      	ldr	r3, [pc, #436]	; (8003fdc <HAL_RCC_OscConfig+0x4f4>)
 8003e26:	6a1b      	ldr	r3, [r3, #32]
 8003e28:	4a6c      	ldr	r2, [pc, #432]	; (8003fdc <HAL_RCC_OscConfig+0x4f4>)
 8003e2a:	f043 0304 	orr.w	r3, r3, #4
 8003e2e:	6213      	str	r3, [r2, #32]
 8003e30:	4b6a      	ldr	r3, [pc, #424]	; (8003fdc <HAL_RCC_OscConfig+0x4f4>)
 8003e32:	6a1b      	ldr	r3, [r3, #32]
 8003e34:	4a69      	ldr	r2, [pc, #420]	; (8003fdc <HAL_RCC_OscConfig+0x4f4>)
 8003e36:	f043 0301 	orr.w	r3, r3, #1
 8003e3a:	6213      	str	r3, [r2, #32]
 8003e3c:	e00b      	b.n	8003e56 <HAL_RCC_OscConfig+0x36e>
 8003e3e:	4b67      	ldr	r3, [pc, #412]	; (8003fdc <HAL_RCC_OscConfig+0x4f4>)
 8003e40:	6a1b      	ldr	r3, [r3, #32]
 8003e42:	4a66      	ldr	r2, [pc, #408]	; (8003fdc <HAL_RCC_OscConfig+0x4f4>)
 8003e44:	f023 0301 	bic.w	r3, r3, #1
 8003e48:	6213      	str	r3, [r2, #32]
 8003e4a:	4b64      	ldr	r3, [pc, #400]	; (8003fdc <HAL_RCC_OscConfig+0x4f4>)
 8003e4c:	6a1b      	ldr	r3, [r3, #32]
 8003e4e:	4a63      	ldr	r2, [pc, #396]	; (8003fdc <HAL_RCC_OscConfig+0x4f4>)
 8003e50:	f023 0304 	bic.w	r3, r3, #4
 8003e54:	6213      	str	r3, [r2, #32]
    /* Check the LSE State */
    if (RCC_OscInitStruct->LSEState != RCC_LSE_OFF)
 8003e56:	687b      	ldr	r3, [r7, #4]
 8003e58:	68db      	ldr	r3, [r3, #12]
 8003e5a:	2b00      	cmp	r3, #0
 8003e5c:	d015      	beq.n	8003e8a <HAL_RCC_OscConfig+0x3a2>
    {
      /* Get Start Tick */
      tickstart = HAL_GetTick();
 8003e5e:	f7fd faf1 	bl	8001444 <HAL_GetTick>
 8003e62:	6138      	str	r0, [r7, #16]

      /* Wait till LSE is ready */
      while (__HAL_RCC_GET_FLAG(RCC_FLAG_LSERDY) == RESET)
 8003e64:	e00a      	b.n	8003e7c <HAL_RCC_OscConfig+0x394>
      {
        if ((HAL_GetTick() - tickstart) > RCC_LSE_TIMEOUT_VALUE)
 8003e66:	f7fd faed 	bl	8001444 <HAL_GetTick>
 8003e6a:	4602      	mov	r2, r0
 8003e6c:	693b      	ldr	r3, [r7, #16]
 8003e6e:	1ad3      	subs	r3, r2, r3
 8003e70:	f241 3288 	movw	r2, #5000	; 0x1388
 8003e74:	4293      	cmp	r3, r2
 8003e76:	d901      	bls.n	8003e7c <HAL_RCC_OscConfig+0x394>
        {
          return HAL_TIMEOUT;
 8003e78:	2303      	movs	r3, #3
 8003e7a:	e0ab      	b.n	8003fd4 <HAL_RCC_OscConfig+0x4ec>
      while (__HAL_RCC_GET_FLAG(RCC_FLAG_LSERDY) == RESET)
 8003e7c:	4b57      	ldr	r3, [pc, #348]	; (8003fdc <HAL_RCC_OscConfig+0x4f4>)
 8003e7e:	6a1b      	ldr	r3, [r3, #32]
 8003e80:	f003 0302 	and.w	r3, r3, #2
 8003e84:	2b00      	cmp	r3, #0
 8003e86:	d0ee      	beq.n	8003e66 <HAL_RCC_OscConfig+0x37e>
 8003e88:	e014      	b.n	8003eb4 <HAL_RCC_OscConfig+0x3cc>
      }
    }
    else
    {
      /* Get Start Tick */
      tickstart = HAL_GetTick();
 8003e8a:	f7fd fadb 	bl	8001444 <HAL_GetTick>
 8003e8e:	6138      	str	r0, [r7, #16]

      /* Wait till LSE is disabled */
      while (__HAL_RCC_GET_FLAG(RCC_FLAG_LSERDY) != RESET)
 8003e90:	e00a      	b.n	8003ea8 <HAL_RCC_OscConfig+0x3c0>
      {
        if ((HAL_GetTick() - tickstart) > RCC_LSE_TIMEOUT_VALUE)
 8003e92:	f7fd fad7 	bl	8001444 <HAL_GetTick>
 8003e96:	4602      	mov	r2, r0
 8003e98:	693b      	ldr	r3, [r7, #16]
 8003e9a:	1ad3      	subs	r3, r2, r3
 8003e9c:	f241 3288 	movw	r2, #5000	; 0x1388
 8003ea0:	4293      	cmp	r3, r2
 8003ea2:	d901      	bls.n	8003ea8 <HAL_RCC_OscConfig+0x3c0>
        {
          return HAL_TIMEOUT;
 8003ea4:	2303      	movs	r3, #3
 8003ea6:	e095      	b.n	8003fd4 <HAL_RCC_OscConfig+0x4ec>
      while (__HAL_RCC_GET_FLAG(RCC_FLAG_LSERDY) != RESET)
 8003ea8:	4b4c      	ldr	r3, [pc, #304]	; (8003fdc <HAL_RCC_OscConfig+0x4f4>)
 8003eaa:	6a1b      	ldr	r3, [r3, #32]
 8003eac:	f003 0302 	and.w	r3, r3, #2
 8003eb0:	2b00      	cmp	r3, #0
 8003eb2:	d1ee      	bne.n	8003e92 <HAL_RCC_OscConfig+0x3aa>
        }
      }
    }

    /* Require to disable power clock if necessary */
    if (pwrclkchanged == SET)
 8003eb4:	7dfb      	ldrb	r3, [r7, #23]
 8003eb6:	2b01      	cmp	r3, #1
 8003eb8:	d105      	bne.n	8003ec6 <HAL_RCC_OscConfig+0x3de>
    {
      __HAL_RCC_PWR_CLK_DISABLE();
 8003eba:	4b48      	ldr	r3, [pc, #288]	; (8003fdc <HAL_RCC_OscConfig+0x4f4>)
 8003ebc:	69db      	ldr	r3, [r3, #28]
 8003ebe:	4a47      	ldr	r2, [pc, #284]	; (8003fdc <HAL_RCC_OscConfig+0x4f4>)
 8003ec0:	f023 5380 	bic.w	r3, r3, #268435456	; 0x10000000
 8003ec4:	61d3      	str	r3, [r2, #28]

#endif /* RCC_CR_PLL2ON */
  /*-------------------------------- PLL Configuration -----------------------*/
  /* Check the parameters */
  assert_param(IS_RCC_PLL(RCC_OscInitStruct->PLL.PLLState));
  if ((RCC_OscInitStruct->PLL.PLLState) != RCC_PLL_NONE)
 8003ec6:	687b      	ldr	r3, [r7, #4]
 8003ec8:	69db      	ldr	r3, [r3, #28]
 8003eca:	2b00      	cmp	r3, #0
 8003ecc:	f000 8081 	beq.w	8003fd2 <HAL_RCC_OscConfig+0x4ea>
  {
    /* Check if the PLL is used as system clock or not */
    if (__HAL_RCC_GET_SYSCLK_SOURCE() != RCC_SYSCLKSOURCE_STATUS_PLLCLK)
 8003ed0:	4b42      	ldr	r3, [pc, #264]	; (8003fdc <HAL_RCC_OscConfig+0x4f4>)
 8003ed2:	685b      	ldr	r3, [r3, #4]
 8003ed4:	f003 030c 	and.w	r3, r3, #12
 8003ed8:	2b08      	cmp	r3, #8
 8003eda:	d061      	beq.n	8003fa0 <HAL_RCC_OscConfig+0x4b8>
    {
      if ((RCC_OscInitStruct->PLL.PLLState) == RCC_PLL_ON)
 8003edc:	687b      	ldr	r3, [r7, #4]
 8003ede:	69db      	ldr	r3, [r3, #28]
 8003ee0:	2b02      	cmp	r3, #2
 8003ee2:	d146      	bne.n	8003f72 <HAL_RCC_OscConfig+0x48a>
        /* Check the parameters */
        assert_param(IS_RCC_PLLSOURCE(RCC_OscInitStruct->PLL.PLLSource));
        assert_param(IS_RCC_PLL_MUL(RCC_OscInitStruct->PLL.PLLMUL));

        /* Disable the main PLL. */
        __HAL_RCC_PLL_DISABLE();
 8003ee4:	4b3f      	ldr	r3, [pc, #252]	; (8003fe4 <HAL_RCC_OscConfig+0x4fc>)
 8003ee6:	2200      	movs	r2, #0
 8003ee8:	601a      	str	r2, [r3, #0]

        /* Get Start Tick */
        tickstart = HAL_GetTick();
 8003eea:	f7fd faab 	bl	8001444 <HAL_GetTick>
 8003eee:	6138      	str	r0, [r7, #16]

        /* Wait till PLL is disabled */
        while (__HAL_RCC_GET_FLAG(RCC_FLAG_PLLRDY)  != RESET)
 8003ef0:	e008      	b.n	8003f04 <HAL_RCC_OscConfig+0x41c>
        {
          if ((HAL_GetTick() - tickstart) > PLL_TIMEOUT_VALUE)
 8003ef2:	f7fd faa7 	bl	8001444 <HAL_GetTick>
 8003ef6:	4602      	mov	r2, r0
 8003ef8:	693b      	ldr	r3, [r7, #16]
 8003efa:	1ad3      	subs	r3, r2, r3
 8003efc:	2b02      	cmp	r3, #2
 8003efe:	d901      	bls.n	8003f04 <HAL_RCC_OscConfig+0x41c>
          {
            return HAL_TIMEOUT;
 8003f00:	2303      	movs	r3, #3
 8003f02:	e067      	b.n	8003fd4 <HAL_RCC_OscConfig+0x4ec>
        while (__HAL_RCC_GET_FLAG(RCC_FLAG_PLLRDY)  != RESET)
 8003f04:	4b35      	ldr	r3, [pc, #212]	; (8003fdc <HAL_RCC_OscConfig+0x4f4>)
 8003f06:	681b      	ldr	r3, [r3, #0]
 8003f08:	f003 7300 	and.w	r3, r3, #33554432	; 0x2000000
 8003f0c:	2b00      	cmp	r3, #0
 8003f0e:	d1f0      	bne.n	8003ef2 <HAL_RCC_OscConfig+0x40a>
          }
        }

        /* Configure the HSE prediv factor --------------------------------*/
        /* It can be written only when the PLL is disabled. Not used in PLL source is different than HSE */
        if (RCC_OscInitStruct->PLL.PLLSource == RCC_PLLSOURCE_HSE)
 8003f10:	687b      	ldr	r3, [r7, #4]
 8003f12:	6a1b      	ldr	r3, [r3, #32]
 8003f14:	f5b3 3f80 	cmp.w	r3, #65536	; 0x10000
 8003f18:	d108      	bne.n	8003f2c <HAL_RCC_OscConfig+0x444>
          /* Set PREDIV1 source */
          SET_BIT(RCC->CFGR2, RCC_OscInitStruct->Prediv1Source);
#endif /* RCC_CFGR2_PREDIV1SRC */

          /* Set PREDIV1 Value */
          __HAL_RCC_HSE_PREDIV_CONFIG(RCC_OscInitStruct->HSEPredivValue);
 8003f1a:	4b30      	ldr	r3, [pc, #192]	; (8003fdc <HAL_RCC_OscConfig+0x4f4>)
 8003f1c:	685b      	ldr	r3, [r3, #4]
 8003f1e:	f423 3200 	bic.w	r2, r3, #131072	; 0x20000
 8003f22:	687b      	ldr	r3, [r7, #4]
 8003f24:	689b      	ldr	r3, [r3, #8]
 8003f26:	492d      	ldr	r1, [pc, #180]	; (8003fdc <HAL_RCC_OscConfig+0x4f4>)
 8003f28:	4313      	orrs	r3, r2
 8003f2a:	604b      	str	r3, [r1, #4]
        }

        /* Configure the main PLL clock source and multiplication factors. */
        __HAL_RCC_PLL_CONFIG(RCC_OscInitStruct->PLL.PLLSource,
 8003f2c:	4b2b      	ldr	r3, [pc, #172]	; (8003fdc <HAL_RCC_OscConfig+0x4f4>)
 8003f2e:	685b      	ldr	r3, [r3, #4]
 8003f30:	f423 1274 	bic.w	r2, r3, #3997696	; 0x3d0000
 8003f34:	687b      	ldr	r3, [r7, #4]
 8003f36:	6a19      	ldr	r1, [r3, #32]
 8003f38:	687b      	ldr	r3, [r7, #4]
 8003f3a:	6a5b      	ldr	r3, [r3, #36]	; 0x24
 8003f3c:	430b      	orrs	r3, r1
 8003f3e:	4927      	ldr	r1, [pc, #156]	; (8003fdc <HAL_RCC_OscConfig+0x4f4>)
 8003f40:	4313      	orrs	r3, r2
 8003f42:	604b      	str	r3, [r1, #4]
                             RCC_OscInitStruct->PLL.PLLMUL);
        /* Enable the main PLL. */
        __HAL_RCC_PLL_ENABLE();
 8003f44:	4b27      	ldr	r3, [pc, #156]	; (8003fe4 <HAL_RCC_OscConfig+0x4fc>)
 8003f46:	2201      	movs	r2, #1
 8003f48:	601a      	str	r2, [r3, #0]

        /* Get Start Tick */
        tickstart = HAL_GetTick();
 8003f4a:	f7fd fa7b 	bl	8001444 <HAL_GetTick>
 8003f4e:	6138      	str	r0, [r7, #16]

        /* Wait till PLL is ready */
        while (__HAL_RCC_GET_FLAG(RCC_FLAG_PLLRDY)  == RESET)
 8003f50:	e008      	b.n	8003f64 <HAL_RCC_OscConfig+0x47c>
        {
          if ((HAL_GetTick() - tickstart) > PLL_TIMEOUT_VALUE)
 8003f52:	f7fd fa77 	bl	8001444 <HAL_GetTick>
 8003f56:	4602      	mov	r2, r0
 8003f58:	693b      	ldr	r3, [r7, #16]
 8003f5a:	1ad3      	subs	r3, r2, r3
 8003f5c:	2b02      	cmp	r3, #2
 8003f5e:	d901      	bls.n	8003f64 <HAL_RCC_OscConfig+0x47c>
          {
            return HAL_TIMEOUT;
 8003f60:	2303      	movs	r3, #3
 8003f62:	e037      	b.n	8003fd4 <HAL_RCC_OscConfig+0x4ec>
        while (__HAL_RCC_GET_FLAG(RCC_FLAG_PLLRDY)  == RESET)
 8003f64:	4b1d      	ldr	r3, [pc, #116]	; (8003fdc <HAL_RCC_OscConfig+0x4f4>)
 8003f66:	681b      	ldr	r3, [r3, #0]
 8003f68:	f003 7300 	and.w	r3, r3, #33554432	; 0x2000000
 8003f6c:	2b00      	cmp	r3, #0
 8003f6e:	d0f0      	beq.n	8003f52 <HAL_RCC_OscConfig+0x46a>
 8003f70:	e02f      	b.n	8003fd2 <HAL_RCC_OscConfig+0x4ea>
        }
      }
      else
      {
        /* Disable the main PLL. */
        __HAL_RCC_PLL_DISABLE();
 8003f72:	4b1c      	ldr	r3, [pc, #112]	; (8003fe4 <HAL_RCC_OscConfig+0x4fc>)
 8003f74:	2200      	movs	r2, #0
 8003f76:	601a      	str	r2, [r3, #0]

        /* Get Start Tick */
        tickstart = HAL_GetTick();
 8003f78:	f7fd fa64 	bl	8001444 <HAL_GetTick>
 8003f7c:	6138      	str	r0, [r7, #16]

        /* Wait till PLL is disabled */
        while (__HAL_RCC_GET_FLAG(RCC_FLAG_PLLRDY)  != RESET)
 8003f7e:	e008      	b.n	8003f92 <HAL_RCC_OscConfig+0x4aa>
        {
          if ((HAL_GetTick() - tickstart) > PLL_TIMEOUT_VALUE)
 8003f80:	f7fd fa60 	bl	8001444 <HAL_GetTick>
 8003f84:	4602      	mov	r2, r0
 8003f86:	693b      	ldr	r3, [r7, #16]
 8003f88:	1ad3      	subs	r3, r2, r3
 8003f8a:	2b02      	cmp	r3, #2
 8003f8c:	d901      	bls.n	8003f92 <HAL_RCC_OscConfig+0x4aa>
          {
            return HAL_TIMEOUT;
 8003f8e:	2303      	movs	r3, #3
 8003f90:	e020      	b.n	8003fd4 <HAL_RCC_OscConfig+0x4ec>
        while (__HAL_RCC_GET_FLAG(RCC_FLAG_PLLRDY)  != RESET)
 8003f92:	4b12      	ldr	r3, [pc, #72]	; (8003fdc <HAL_RCC_OscConfig+0x4f4>)
 8003f94:	681b      	ldr	r3, [r3, #0]
 8003f96:	f003 7300 	and.w	r3, r3, #33554432	; 0x2000000
 8003f9a:	2b00      	cmp	r3, #0
 8003f9c:	d1f0      	bne.n	8003f80 <HAL_RCC_OscConfig+0x498>
 8003f9e:	e018      	b.n	8003fd2 <HAL_RCC_OscConfig+0x4ea>
      }
    }
    else
    {
      /* Check if there is a request to disable the PLL used as System clock source */
      if ((RCC_OscInitStruct->PLL.PLLState) == RCC_PLL_OFF)
 8003fa0:	687b      	ldr	r3, [r7, #4]
 8003fa2:	69db      	ldr	r3, [r3, #28]
 8003fa4:	2b01      	cmp	r3, #1
 8003fa6:	d101      	bne.n	8003fac <HAL_RCC_OscConfig+0x4c4>
      {
        return HAL_ERROR;
 8003fa8:	2301      	movs	r3, #1
 8003faa:	e013      	b.n	8003fd4 <HAL_RCC_OscConfig+0x4ec>
      }
      else
      {
        /* Do not return HAL_ERROR if request repeats the current configuration */
        pll_config = RCC->CFGR;
 8003fac:	4b0b      	ldr	r3, [pc, #44]	; (8003fdc <HAL_RCC_OscConfig+0x4f4>)
 8003fae:	685b      	ldr	r3, [r3, #4]
 8003fb0:	60fb      	str	r3, [r7, #12]
        if ((READ_BIT(pll_config, RCC_CFGR_PLLSRC) != RCC_OscInitStruct->PLL.PLLSource) ||
 8003fb2:	68fb      	ldr	r3, [r7, #12]
 8003fb4:	f403 3280 	and.w	r2, r3, #65536	; 0x10000
 8003fb8:	687b      	ldr	r3, [r7, #4]
 8003fba:	6a1b      	ldr	r3, [r3, #32]
 8003fbc:	429a      	cmp	r2, r3
 8003fbe:	d106      	bne.n	8003fce <HAL_RCC_OscConfig+0x4e6>
            (READ_BIT(pll_config, RCC_CFGR_PLLMULL) != RCC_OscInitStruct->PLL.PLLMUL))
 8003fc0:	68fb      	ldr	r3, [r7, #12]
 8003fc2:	f403 1270 	and.w	r2, r3, #3932160	; 0x3c0000
 8003fc6:	687b      	ldr	r3, [r7, #4]
 8003fc8:	6a5b      	ldr	r3, [r3, #36]	; 0x24
        if ((READ_BIT(pll_config, RCC_CFGR_PLLSRC) != RCC_OscInitStruct->PLL.PLLSource) ||
 8003fca:	429a      	cmp	r2, r3
 8003fcc:	d001      	beq.n	8003fd2 <HAL_RCC_OscConfig+0x4ea>
        {
          return HAL_ERROR;
 8003fce:	2301      	movs	r3, #1
 8003fd0:	e000      	b.n	8003fd4 <HAL_RCC_OscConfig+0x4ec>
        }
      }
    }
  }

  return HAL_OK;
 8003fd2:	2300      	movs	r3, #0
}
 8003fd4:	4618      	mov	r0, r3
 8003fd6:	3718      	adds	r7, #24
 8003fd8:	46bd      	mov	sp, r7
 8003fda:	bd80      	pop	{r7, pc}
 8003fdc:	40021000 	.word	0x40021000
 8003fe0:	40007000 	.word	0x40007000
 8003fe4:	42420060 	.word	0x42420060

08003fe8 <HAL_RCC_ClockConfig>:
  *         You can use @ref HAL_RCC_GetClockConfig() function to know which clock is
  *         currently used as system clock source.
  * @retval HAL status
  */
HAL_StatusTypeDef HAL_RCC_ClockConfig(RCC_ClkInitTypeDef  *RCC_ClkInitStruct, uint32_t FLatency)
{
 8003fe8:	b580      	push	{r7, lr}
 8003fea:	b084      	sub	sp, #16
 8003fec:	af00      	add	r7, sp, #0
 8003fee:	6078      	str	r0, [r7, #4]
 8003ff0:	6039      	str	r1, [r7, #0]
  uint32_t tickstart;

  /* Check Null pointer */
  if (RCC_ClkInitStruct == NULL)
 8003ff2:	687b      	ldr	r3, [r7, #4]
 8003ff4:	2b00      	cmp	r3, #0
 8003ff6:	d101      	bne.n	8003ffc <HAL_RCC_ClockConfig+0x14>
  {
    return HAL_ERROR;
 8003ff8:	2301      	movs	r3, #1
 8003ffa:	e0d0      	b.n	800419e <HAL_RCC_ClockConfig+0x1b6>
  must be correctly programmed according to the frequency of the CPU clock
    (HCLK) of the device. */

#if defined(FLASH_ACR_LATENCY)
  /* Increasing the number of wait states because of higher CPU frequency */
  if (FLatency > __HAL_FLASH_GET_LATENCY())
 8003ffc:	4b6a      	ldr	r3, [pc, #424]	; (80041a8 <HAL_RCC_ClockConfig+0x1c0>)
 8003ffe:	681b      	ldr	r3, [r3, #0]
 8004000:	f003 0307 	and.w	r3, r3, #7
 8004004:	683a      	ldr	r2, [r7, #0]
 8004006:	429a      	cmp	r2, r3
 8004008:	d910      	bls.n	800402c <HAL_RCC_ClockConfig+0x44>
  {
    /* Program the new number of wait states to the LATENCY bits in the FLASH_ACR register */
    __HAL_FLASH_SET_LATENCY(FLatency);
 800400a:	4b67      	ldr	r3, [pc, #412]	; (80041a8 <HAL_RCC_ClockConfig+0x1c0>)
 800400c:	681b      	ldr	r3, [r3, #0]
 800400e:	f023 0207 	bic.w	r2, r3, #7
 8004012:	4965      	ldr	r1, [pc, #404]	; (80041a8 <HAL_RCC_ClockConfig+0x1c0>)
 8004014:	683b      	ldr	r3, [r7, #0]
 8004016:	4313      	orrs	r3, r2
 8004018:	600b      	str	r3, [r1, #0]

    /* Check that the new number of wait states is taken into account to access the Flash
    memory by reading the FLASH_ACR register */
    if (__HAL_FLASH_GET_LATENCY() != FLatency)
 800401a:	4b63      	ldr	r3, [pc, #396]	; (80041a8 <HAL_RCC_ClockConfig+0x1c0>)
 800401c:	681b      	ldr	r3, [r3, #0]
 800401e:	f003 0307 	and.w	r3, r3, #7
 8004022:	683a      	ldr	r2, [r7, #0]
 8004024:	429a      	cmp	r2, r3
 8004026:	d001      	beq.n	800402c <HAL_RCC_ClockConfig+0x44>
  {
    return HAL_ERROR;
 8004028:	2301      	movs	r3, #1
 800402a:	e0b8      	b.n	800419e <HAL_RCC_ClockConfig+0x1b6>
  }
}

#endif /* FLASH_ACR_LATENCY */
/*-------------------------- HCLK Configuration --------------------------*/
if (((RCC_ClkInitStruct->ClockType) & RCC_CLOCKTYPE_HCLK) == RCC_CLOCKTYPE_HCLK)
 800402c:	687b      	ldr	r3, [r7, #4]
 800402e:	681b      	ldr	r3, [r3, #0]
 8004030:	f003 0302 	and.w	r3, r3, #2
 8004034:	2b00      	cmp	r3, #0
 8004036:	d020      	beq.n	800407a <HAL_RCC_ClockConfig+0x92>
  {
    /* Set the highest APBx dividers in order to ensure that we do not go through
    a non-spec phase whatever we decrease or increase HCLK. */
    if (((RCC_ClkInitStruct->ClockType) & RCC_CLOCKTYPE_PCLK1) == RCC_CLOCKTYPE_PCLK1)
 8004038:	687b      	ldr	r3, [r7, #4]
 800403a:	681b      	ldr	r3, [r3, #0]
 800403c:	f003 0304 	and.w	r3, r3, #4
 8004040:	2b00      	cmp	r3, #0
 8004042:	d005      	beq.n	8004050 <HAL_RCC_ClockConfig+0x68>
    {
      MODIFY_REG(RCC->CFGR, RCC_CFGR_PPRE1, RCC_HCLK_DIV16);
 8004044:	4b59      	ldr	r3, [pc, #356]	; (80041ac <HAL_RCC_ClockConfig+0x1c4>)
 8004046:	685b      	ldr	r3, [r3, #4]
 8004048:	4a58      	ldr	r2, [pc, #352]	; (80041ac <HAL_RCC_ClockConfig+0x1c4>)
 800404a:	f443 63e0 	orr.w	r3, r3, #1792	; 0x700
 800404e:	6053      	str	r3, [r2, #4]
    }

    if (((RCC_ClkInitStruct->ClockType) & RCC_CLOCKTYPE_PCLK2) == RCC_CLOCKTYPE_PCLK2)
 8004050:	687b      	ldr	r3, [r7, #4]
 8004052:	681b      	ldr	r3, [r3, #0]
 8004054:	f003 0308 	and.w	r3, r3, #8
 8004058:	2b00      	cmp	r3, #0
 800405a:	d005      	beq.n	8004068 <HAL_RCC_ClockConfig+0x80>
    {
      MODIFY_REG(RCC->CFGR, RCC_CFGR_PPRE2, (RCC_HCLK_DIV16 << 3));
 800405c:	4b53      	ldr	r3, [pc, #332]	; (80041ac <HAL_RCC_ClockConfig+0x1c4>)
 800405e:	685b      	ldr	r3, [r3, #4]
 8004060:	4a52      	ldr	r2, [pc, #328]	; (80041ac <HAL_RCC_ClockConfig+0x1c4>)
 8004062:	f443 5360 	orr.w	r3, r3, #14336	; 0x3800
 8004066:	6053      	str	r3, [r2, #4]
    }

    /* Set the new HCLK clock divider */
    assert_param(IS_RCC_HCLK(RCC_ClkInitStruct->AHBCLKDivider));
    MODIFY_REG(RCC->CFGR, RCC_CFGR_HPRE, RCC_ClkInitStruct->AHBCLKDivider);
 8004068:	4b50      	ldr	r3, [pc, #320]	; (80041ac <HAL_RCC_ClockConfig+0x1c4>)
 800406a:	685b      	ldr	r3, [r3, #4]
 800406c:	f023 02f0 	bic.w	r2, r3, #240	; 0xf0
 8004070:	687b      	ldr	r3, [r7, #4]
 8004072:	689b      	ldr	r3, [r3, #8]
 8004074:	494d      	ldr	r1, [pc, #308]	; (80041ac <HAL_RCC_ClockConfig+0x1c4>)
 8004076:	4313      	orrs	r3, r2
 8004078:	604b      	str	r3, [r1, #4]
  }

  /*------------------------- SYSCLK Configuration ---------------------------*/
  if (((RCC_ClkInitStruct->ClockType) & RCC_CLOCKTYPE_SYSCLK) == RCC_CLOCKTYPE_SYSCLK)
 800407a:	687b      	ldr	r3, [r7, #4]
 800407c:	681b      	ldr	r3, [r3, #0]
 800407e:	f003 0301 	and.w	r3, r3, #1
 8004082:	2b00      	cmp	r3, #0
 8004084:	d040      	beq.n	8004108 <HAL_RCC_ClockConfig+0x120>
  {
    assert_param(IS_RCC_SYSCLKSOURCE(RCC_ClkInitStruct->SYSCLKSource));

    /* HSE is selected as System Clock Source */
    if (RCC_ClkInitStruct->SYSCLKSource == RCC_SYSCLKSOURCE_HSE)
 8004086:	687b      	ldr	r3, [r7, #4]
 8004088:	685b      	ldr	r3, [r3, #4]
 800408a:	2b01      	cmp	r3, #1
 800408c:	d107      	bne.n	800409e <HAL_RCC_ClockConfig+0xb6>
    {
      /* Check the HSE ready flag */
      if (__HAL_RCC_GET_FLAG(RCC_FLAG_HSERDY) == RESET)
 800408e:	4b47      	ldr	r3, [pc, #284]	; (80041ac <HAL_RCC_ClockConfig+0x1c4>)
 8004090:	681b      	ldr	r3, [r3, #0]
 8004092:	f403 3300 	and.w	r3, r3, #131072	; 0x20000
 8004096:	2b00      	cmp	r3, #0
 8004098:	d115      	bne.n	80040c6 <HAL_RCC_ClockConfig+0xde>
      {
        return HAL_ERROR;
 800409a:	2301      	movs	r3, #1
 800409c:	e07f      	b.n	800419e <HAL_RCC_ClockConfig+0x1b6>
      }
    }
    /* PLL is selected as System Clock Source */
    else if (RCC_ClkInitStruct->SYSCLKSource == RCC_SYSCLKSOURCE_PLLCLK)
 800409e:	687b      	ldr	r3, [r7, #4]
 80040a0:	685b      	ldr	r3, [r3, #4]
 80040a2:	2b02      	cmp	r3, #2
 80040a4:	d107      	bne.n	80040b6 <HAL_RCC_ClockConfig+0xce>
    {
      /* Check the PLL ready flag */
      if (__HAL_RCC_GET_FLAG(RCC_FLAG_PLLRDY) == RESET)
 80040a6:	4b41      	ldr	r3, [pc, #260]	; (80041ac <HAL_RCC_ClockConfig+0x1c4>)
 80040a8:	681b      	ldr	r3, [r3, #0]
 80040aa:	f003 7300 	and.w	r3, r3, #33554432	; 0x2000000
 80040ae:	2b00      	cmp	r3, #0
 80040b0:	d109      	bne.n	80040c6 <HAL_RCC_ClockConfig+0xde>
      {
        return HAL_ERROR;
 80040b2:	2301      	movs	r3, #1
 80040b4:	e073      	b.n	800419e <HAL_RCC_ClockConfig+0x1b6>
    }
    /* HSI is selected as System Clock Source */
    else
    {
      /* Check the HSI ready flag */
      if (__HAL_RCC_GET_FLAG(RCC_FLAG_HSIRDY) == RESET)
 80040b6:	4b3d      	ldr	r3, [pc, #244]	; (80041ac <HAL_RCC_ClockConfig+0x1c4>)
 80040b8:	681b      	ldr	r3, [r3, #0]
 80040ba:	f003 0302 	and.w	r3, r3, #2
 80040be:	2b00      	cmp	r3, #0
 80040c0:	d101      	bne.n	80040c6 <HAL_RCC_ClockConfig+0xde>
      {
        return HAL_ERROR;
 80040c2:	2301      	movs	r3, #1
 80040c4:	e06b      	b.n	800419e <HAL_RCC_ClockConfig+0x1b6>
      }
    }
    __HAL_RCC_SYSCLK_CONFIG(RCC_ClkInitStruct->SYSCLKSource);
 80040c6:	4b39      	ldr	r3, [pc, #228]	; (80041ac <HAL_RCC_ClockConfig+0x1c4>)
 80040c8:	685b      	ldr	r3, [r3, #4]
 80040ca:	f023 0203 	bic.w	r2, r3, #3
 80040ce:	687b      	ldr	r3, [r7, #4]
 80040d0:	685b      	ldr	r3, [r3, #4]
 80040d2:	4936      	ldr	r1, [pc, #216]	; (80041ac <HAL_RCC_ClockConfig+0x1c4>)
 80040d4:	4313      	orrs	r3, r2
 80040d6:	604b      	str	r3, [r1, #4]

    /* Get Start Tick */
    tickstart = HAL_GetTick();
 80040d8:	f7fd f9b4 	bl	8001444 <HAL_GetTick>
 80040dc:	60f8      	str	r0, [r7, #12]

    while (__HAL_RCC_GET_SYSCLK_SOURCE() != (RCC_ClkInitStruct->SYSCLKSource << RCC_CFGR_SWS_Pos))
 80040de:	e00a      	b.n	80040f6 <HAL_RCC_ClockConfig+0x10e>
    {
      if ((HAL_GetTick() - tickstart) > CLOCKSWITCH_TIMEOUT_VALUE)
 80040e0:	f7fd f9b0 	bl	8001444 <HAL_GetTick>
 80040e4:	4602      	mov	r2, r0
 80040e6:	68fb      	ldr	r3, [r7, #12]
 80040e8:	1ad3      	subs	r3, r2, r3
 80040ea:	f241 3288 	movw	r2, #5000	; 0x1388
 80040ee:	4293      	cmp	r3, r2
 80040f0:	d901      	bls.n	80040f6 <HAL_RCC_ClockConfig+0x10e>
      {
        return HAL_TIMEOUT;
 80040f2:	2303      	movs	r3, #3
 80040f4:	e053      	b.n	800419e <HAL_RCC_ClockConfig+0x1b6>
    while (__HAL_RCC_GET_SYSCLK_SOURCE() != (RCC_ClkInitStruct->SYSCLKSource << RCC_CFGR_SWS_Pos))
 80040f6:	4b2d      	ldr	r3, [pc, #180]	; (80041ac <HAL_RCC_ClockConfig+0x1c4>)
 80040f8:	685b      	ldr	r3, [r3, #4]
 80040fa:	f003 020c 	and.w	r2, r3, #12
 80040fe:	687b      	ldr	r3, [r7, #4]
 8004100:	685b      	ldr	r3, [r3, #4]
 8004102:	009b      	lsls	r3, r3, #2
 8004104:	429a      	cmp	r2, r3
 8004106:	d1eb      	bne.n	80040e0 <HAL_RCC_ClockConfig+0xf8>
    }
  }

#if defined(FLASH_ACR_LATENCY)
  /* Decreasing the number of wait states because of lower CPU frequency */
  if (FLatency < __HAL_FLASH_GET_LATENCY())
 8004108:	4b27      	ldr	r3, [pc, #156]	; (80041a8 <HAL_RCC_ClockConfig+0x1c0>)
 800410a:	681b      	ldr	r3, [r3, #0]
 800410c:	f003 0307 	and.w	r3, r3, #7
 8004110:	683a      	ldr	r2, [r7, #0]
 8004112:	429a      	cmp	r2, r3
 8004114:	d210      	bcs.n	8004138 <HAL_RCC_ClockConfig+0x150>
  {
    /* Program the new number of wait states to the LATENCY bits in the FLASH_ACR register */
    __HAL_FLASH_SET_LATENCY(FLatency);
 8004116:	4b24      	ldr	r3, [pc, #144]	; (80041a8 <HAL_RCC_ClockConfig+0x1c0>)
 8004118:	681b      	ldr	r3, [r3, #0]
 800411a:	f023 0207 	bic.w	r2, r3, #7
 800411e:	4922      	ldr	r1, [pc, #136]	; (80041a8 <HAL_RCC_ClockConfig+0x1c0>)
 8004120:	683b      	ldr	r3, [r7, #0]
 8004122:	4313      	orrs	r3, r2
 8004124:	600b      	str	r3, [r1, #0]

    /* Check that the new number of wait states is taken into account to access the Flash
    memory by reading the FLASH_ACR register */
    if (__HAL_FLASH_GET_LATENCY() != FLatency)
 8004126:	4b20      	ldr	r3, [pc, #128]	; (80041a8 <HAL_RCC_ClockConfig+0x1c0>)
 8004128:	681b      	ldr	r3, [r3, #0]
 800412a:	f003 0307 	and.w	r3, r3, #7
 800412e:	683a      	ldr	r2, [r7, #0]
 8004130:	429a      	cmp	r2, r3
 8004132:	d001      	beq.n	8004138 <HAL_RCC_ClockConfig+0x150>
  {
    return HAL_ERROR;
 8004134:	2301      	movs	r3, #1
 8004136:	e032      	b.n	800419e <HAL_RCC_ClockConfig+0x1b6>
  }
}
#endif /* FLASH_ACR_LATENCY */

/*-------------------------- PCLK1 Configuration ---------------------------*/
if (((RCC_ClkInitStruct->ClockType) & RCC_CLOCKTYPE_PCLK1) == RCC_CLOCKTYPE_PCLK1)
 8004138:	687b      	ldr	r3, [r7, #4]
 800413a:	681b      	ldr	r3, [r3, #0]
 800413c:	f003 0304 	and.w	r3, r3, #4
 8004140:	2b00      	cmp	r3, #0
 8004142:	d008      	beq.n	8004156 <HAL_RCC_ClockConfig+0x16e>
  {
    assert_param(IS_RCC_PCLK(RCC_ClkInitStruct->APB1CLKDivider));
    MODIFY_REG(RCC->CFGR, RCC_CFGR_PPRE1, RCC_ClkInitStruct->APB1CLKDivider);
 8004144:	4b19      	ldr	r3, [pc, #100]	; (80041ac <HAL_RCC_ClockConfig+0x1c4>)
 8004146:	685b      	ldr	r3, [r3, #4]
 8004148:	f423 62e0 	bic.w	r2, r3, #1792	; 0x700
 800414c:	687b      	ldr	r3, [r7, #4]
 800414e:	68db      	ldr	r3, [r3, #12]
 8004150:	4916      	ldr	r1, [pc, #88]	; (80041ac <HAL_RCC_ClockConfig+0x1c4>)
 8004152:	4313      	orrs	r3, r2
 8004154:	604b      	str	r3, [r1, #4]
  }

  /*-------------------------- PCLK2 Configuration ---------------------------*/
  if (((RCC_ClkInitStruct->ClockType) & RCC_CLOCKTYPE_PCLK2) == RCC_CLOCKTYPE_PCLK2)
 8004156:	687b      	ldr	r3, [r7, #4]
 8004158:	681b      	ldr	r3, [r3, #0]
 800415a:	f003 0308 	and.w	r3, r3, #8
 800415e:	2b00      	cmp	r3, #0
 8004160:	d009      	beq.n	8004176 <HAL_RCC_ClockConfig+0x18e>
  {
    assert_param(IS_RCC_PCLK(RCC_ClkInitStruct->APB2CLKDivider));
    MODIFY_REG(RCC->CFGR, RCC_CFGR_PPRE2, ((RCC_ClkInitStruct->APB2CLKDivider) << 3));
 8004162:	4b12      	ldr	r3, [pc, #72]	; (80041ac <HAL_RCC_ClockConfig+0x1c4>)
 8004164:	685b      	ldr	r3, [r3, #4]
 8004166:	f423 5260 	bic.w	r2, r3, #14336	; 0x3800
 800416a:	687b      	ldr	r3, [r7, #4]
 800416c:	691b      	ldr	r3, [r3, #16]
 800416e:	00db      	lsls	r3, r3, #3
 8004170:	490e      	ldr	r1, [pc, #56]	; (80041ac <HAL_RCC_ClockConfig+0x1c4>)
 8004172:	4313      	orrs	r3, r2
 8004174:	604b      	str	r3, [r1, #4]
  }

  /* Update the SystemCoreClock global variable */
  SystemCoreClock = HAL_RCC_GetSysClockFreq() >> AHBPrescTable[(RCC->CFGR & RCC_CFGR_HPRE) >> RCC_CFGR_HPRE_Pos];
 8004176:	f000 f821 	bl	80041bc <HAL_RCC_GetSysClockFreq>
 800417a:	4601      	mov	r1, r0
 800417c:	4b0b      	ldr	r3, [pc, #44]	; (80041ac <HAL_RCC_ClockConfig+0x1c4>)
 800417e:	685b      	ldr	r3, [r3, #4]
 8004180:	091b      	lsrs	r3, r3, #4
 8004182:	f003 030f 	and.w	r3, r3, #15
 8004186:	4a0a      	ldr	r2, [pc, #40]	; (80041b0 <HAL_RCC_ClockConfig+0x1c8>)
 8004188:	5cd3      	ldrb	r3, [r2, r3]
 800418a:	fa21 f303 	lsr.w	r3, r1, r3
 800418e:	4a09      	ldr	r2, [pc, #36]	; (80041b4 <HAL_RCC_ClockConfig+0x1cc>)
 8004190:	6013      	str	r3, [r2, #0]

  /* Configure the source of time base considering new system clocks settings*/
  HAL_InitTick(uwTickPrio);
 8004192:	4b09      	ldr	r3, [pc, #36]	; (80041b8 <HAL_RCC_ClockConfig+0x1d0>)
 8004194:	681b      	ldr	r3, [r3, #0]
 8004196:	4618      	mov	r0, r3
 8004198:	f7fd f812 	bl	80011c0 <HAL_InitTick>

  return HAL_OK;
 800419c:	2300      	movs	r3, #0
}
 800419e:	4618      	mov	r0, r3
 80041a0:	3710      	adds	r7, #16
 80041a2:	46bd      	mov	sp, r7
 80041a4:	bd80      	pop	{r7, pc}
 80041a6:	bf00      	nop
 80041a8:	40022000 	.word	0x40022000
 80041ac:	40021000 	.word	0x40021000
 80041b0:	080087fc 	.word	0x080087fc
 80041b4:	20000004 	.word	0x20000004
 80041b8:	20000008 	.word	0x20000008

080041bc <HAL_RCC_GetSysClockFreq>:
  *         right SYSCLK value. Otherwise, any configuration based on this function will be incorrect.
  *
  * @retval SYSCLK frequency
  */
uint32_t HAL_RCC_GetSysClockFreq(void)
{
 80041bc:	b490      	push	{r4, r7}
 80041be:	b08a      	sub	sp, #40	; 0x28
 80041c0:	af00      	add	r7, sp, #0
#if defined(RCC_CFGR2_PREDIV1SRC)
  const uint8_t aPLLMULFactorTable[14] = {0, 0, 4, 5, 6, 7, 8, 9, 0, 0, 0, 0, 0, 13};
  const uint8_t aPredivFactorTable[16] = {1, 2, 3, 4, 5, 6, 7, 8, 9, 10, 11, 12, 13, 14, 15, 16};
#else
  const uint8_t aPLLMULFactorTable[16] = {2, 3, 4, 5, 6, 7, 8, 9, 10, 11, 12, 13, 14, 15, 16, 16};
 80041c2:	4b2a      	ldr	r3, [pc, #168]	; (800426c <HAL_RCC_GetSysClockFreq+0xb0>)
 80041c4:	1d3c      	adds	r4, r7, #4
 80041c6:	cb0f      	ldmia	r3, {r0, r1, r2, r3}
 80041c8:	e884 000f 	stmia.w	r4, {r0, r1, r2, r3}
#if defined(RCC_CFGR2_PREDIV1)
  const uint8_t aPredivFactorTable[16] = {1, 2, 3, 4, 5, 6, 7, 8, 9, 10, 11, 12, 13, 14, 15, 16};
#else
  const uint8_t aPredivFactorTable[2] = {1, 2};
 80041cc:	4b28      	ldr	r3, [pc, #160]	; (8004270 <HAL_RCC_GetSysClockFreq+0xb4>)
 80041ce:	881b      	ldrh	r3, [r3, #0]
 80041d0:	803b      	strh	r3, [r7, #0]
#endif /*RCC_CFGR2_PREDIV1*/

#endif
  uint32_t tmpreg = 0U, prediv = 0U, pllclk = 0U, pllmul = 0U;
 80041d2:	2300      	movs	r3, #0
 80041d4:	61fb      	str	r3, [r7, #28]
 80041d6:	2300      	movs	r3, #0
 80041d8:	61bb      	str	r3, [r7, #24]
 80041da:	2300      	movs	r3, #0
 80041dc:	627b      	str	r3, [r7, #36]	; 0x24
 80041de:	2300      	movs	r3, #0
 80041e0:	617b      	str	r3, [r7, #20]
  uint32_t sysclockfreq = 0U;
 80041e2:	2300      	movs	r3, #0
 80041e4:	623b      	str	r3, [r7, #32]
#if defined(RCC_CFGR2_PREDIV1SRC)
  uint32_t prediv2 = 0U, pll2mul = 0U;
#endif /*RCC_CFGR2_PREDIV1SRC*/

  tmpreg = RCC->CFGR;
 80041e6:	4b23      	ldr	r3, [pc, #140]	; (8004274 <HAL_RCC_GetSysClockFreq+0xb8>)
 80041e8:	685b      	ldr	r3, [r3, #4]
 80041ea:	61fb      	str	r3, [r7, #28]

  /* Get SYSCLK source -------------------------------------------------------*/
  switch (tmpreg & RCC_CFGR_SWS)
 80041ec:	69fb      	ldr	r3, [r7, #28]
 80041ee:	f003 030c 	and.w	r3, r3, #12
 80041f2:	2b04      	cmp	r3, #4
 80041f4:	d002      	beq.n	80041fc <HAL_RCC_GetSysClockFreq+0x40>
 80041f6:	2b08      	cmp	r3, #8
 80041f8:	d003      	beq.n	8004202 <HAL_RCC_GetSysClockFreq+0x46>
 80041fa:	e02d      	b.n	8004258 <HAL_RCC_GetSysClockFreq+0x9c>
  {
    case RCC_SYSCLKSOURCE_STATUS_HSE:  /* HSE used as system clock */
    {
      sysclockfreq = HSE_VALUE;
 80041fc:	4b1e      	ldr	r3, [pc, #120]	; (8004278 <HAL_RCC_GetSysClockFreq+0xbc>)
 80041fe:	623b      	str	r3, [r7, #32]
      break;
 8004200:	e02d      	b.n	800425e <HAL_RCC_GetSysClockFreq+0xa2>
    }
    case RCC_SYSCLKSOURCE_STATUS_PLLCLK:  /* PLL used as system clock */
    {
      pllmul = aPLLMULFactorTable[(uint32_t)(tmpreg & RCC_CFGR_PLLMULL) >> RCC_CFGR_PLLMULL_Pos];
 8004202:	69fb      	ldr	r3, [r7, #28]
 8004204:	0c9b      	lsrs	r3, r3, #18
 8004206:	f003 030f 	and.w	r3, r3, #15
 800420a:	f107 0228 	add.w	r2, r7, #40	; 0x28
 800420e:	4413      	add	r3, r2
 8004210:	f813 3c24 	ldrb.w	r3, [r3, #-36]
 8004214:	617b      	str	r3, [r7, #20]
      if ((tmpreg & RCC_CFGR_PLLSRC) != RCC_PLLSOURCE_HSI_DIV2)
 8004216:	69fb      	ldr	r3, [r7, #28]
 8004218:	f403 3380 	and.w	r3, r3, #65536	; 0x10000
 800421c:	2b00      	cmp	r3, #0
 800421e:	d013      	beq.n	8004248 <HAL_RCC_GetSysClockFreq+0x8c>
      {
#if defined(RCC_CFGR2_PREDIV1)
        prediv = aPredivFactorTable[(uint32_t)(RCC->CFGR2 & RCC_CFGR2_PREDIV1) >> RCC_CFGR2_PREDIV1_Pos];
#else
        prediv = aPredivFactorTable[(uint32_t)(RCC->CFGR & RCC_CFGR_PLLXTPRE) >> RCC_CFGR_PLLXTPRE_Pos];
 8004220:	4b14      	ldr	r3, [pc, #80]	; (8004274 <HAL_RCC_GetSysClockFreq+0xb8>)
 8004222:	685b      	ldr	r3, [r3, #4]
 8004224:	0c5b      	lsrs	r3, r3, #17
 8004226:	f003 0301 	and.w	r3, r3, #1
 800422a:	f107 0228 	add.w	r2, r7, #40	; 0x28
 800422e:	4413      	add	r3, r2
 8004230:	f813 3c28 	ldrb.w	r3, [r3, #-40]
 8004234:	61bb      	str	r3, [r7, #24]
        {
          pllclk = pllclk / 2;
        }
#else
        /* HSE used as PLL clock source : PLLCLK = HSE/PREDIV1 * PLLMUL */
        pllclk = (uint32_t)((HSE_VALUE  * pllmul) / prediv);
 8004236:	697b      	ldr	r3, [r7, #20]
 8004238:	4a0f      	ldr	r2, [pc, #60]	; (8004278 <HAL_RCC_GetSysClockFreq+0xbc>)
 800423a:	fb02 f203 	mul.w	r2, r2, r3
 800423e:	69bb      	ldr	r3, [r7, #24]
 8004240:	fbb2 f3f3 	udiv	r3, r2, r3
 8004244:	627b      	str	r3, [r7, #36]	; 0x24
 8004246:	e004      	b.n	8004252 <HAL_RCC_GetSysClockFreq+0x96>
#endif /*RCC_CFGR2_PREDIV1SRC*/
      }
      else
      {
        /* HSI used as PLL clock source : PLLCLK = HSI/2 * PLLMUL */
        pllclk = (uint32_t)((HSI_VALUE >> 1) * pllmul);
 8004248:	697b      	ldr	r3, [r7, #20]
 800424a:	4a0c      	ldr	r2, [pc, #48]	; (800427c <HAL_RCC_GetSysClockFreq+0xc0>)
 800424c:	fb02 f303 	mul.w	r3, r2, r3
 8004250:	627b      	str	r3, [r7, #36]	; 0x24
      }
      sysclockfreq = pllclk;
 8004252:	6a7b      	ldr	r3, [r7, #36]	; 0x24
 8004254:	623b      	str	r3, [r7, #32]
      break;
 8004256:	e002      	b.n	800425e <HAL_RCC_GetSysClockFreq+0xa2>
    }
    case RCC_SYSCLKSOURCE_STATUS_HSI:  /* HSI used as system clock source */
    default: /* HSI used as system clock */
    {
      sysclockfreq = HSI_VALUE;
 8004258:	4b07      	ldr	r3, [pc, #28]	; (8004278 <HAL_RCC_GetSysClockFreq+0xbc>)
 800425a:	623b      	str	r3, [r7, #32]
      break;
 800425c:	bf00      	nop
    }
  }
  return sysclockfreq;
 800425e:	6a3b      	ldr	r3, [r7, #32]
}
 8004260:	4618      	mov	r0, r3
 8004262:	3728      	adds	r7, #40	; 0x28
 8004264:	46bd      	mov	sp, r7
 8004266:	bc90      	pop	{r4, r7}
 8004268:	4770      	bx	lr
 800426a:	bf00      	nop
 800426c:	08008728 	.word	0x08008728
 8004270:	08008738 	.word	0x08008738
 8004274:	40021000 	.word	0x40021000
 8004278:	007a1200 	.word	0x007a1200
 800427c:	003d0900 	.word	0x003d0900

08004280 <HAL_RCC_GetHCLKFreq>:
  * @note   The SystemCoreClock CMSIS variable is used to store System Clock Frequency
  *         and updated within this function
  * @retval HCLK frequency
  */
uint32_t HAL_RCC_GetHCLKFreq(void)
{
 8004280:	b480      	push	{r7}
 8004282:	af00      	add	r7, sp, #0
  return SystemCoreClock;
 8004284:	4b02      	ldr	r3, [pc, #8]	; (8004290 <HAL_RCC_GetHCLKFreq+0x10>)
 8004286:	681b      	ldr	r3, [r3, #0]
}
 8004288:	4618      	mov	r0, r3
 800428a:	46bd      	mov	sp, r7
 800428c:	bc80      	pop	{r7}
 800428e:	4770      	bx	lr
 8004290:	20000004 	.word	0x20000004

08004294 <HAL_RCC_GetPCLK1Freq>:
  * @note   Each time PCLK1 changes, this function must be called to update the
  *         right PCLK1 value. Otherwise, any configuration based on this function will be incorrect.
  * @retval PCLK1 frequency
  */
uint32_t HAL_RCC_GetPCLK1Freq(void)
{
 8004294:	b580      	push	{r7, lr}
 8004296:	af00      	add	r7, sp, #0
  /* Get HCLK source and Compute PCLK1 frequency ---------------------------*/
  return (HAL_RCC_GetHCLKFreq() >> APBPrescTable[(RCC->CFGR & RCC_CFGR_PPRE1) >> RCC_CFGR_PPRE1_Pos]);
 8004298:	f7ff fff2 	bl	8004280 <HAL_RCC_GetHCLKFreq>
 800429c:	4601      	mov	r1, r0
 800429e:	4b05      	ldr	r3, [pc, #20]	; (80042b4 <HAL_RCC_GetPCLK1Freq+0x20>)
 80042a0:	685b      	ldr	r3, [r3, #4]
 80042a2:	0a1b      	lsrs	r3, r3, #8
 80042a4:	f003 0307 	and.w	r3, r3, #7
 80042a8:	4a03      	ldr	r2, [pc, #12]	; (80042b8 <HAL_RCC_GetPCLK1Freq+0x24>)
 80042aa:	5cd3      	ldrb	r3, [r2, r3]
 80042ac:	fa21 f303 	lsr.w	r3, r1, r3
}
 80042b0:	4618      	mov	r0, r3
 80042b2:	bd80      	pop	{r7, pc}
 80042b4:	40021000 	.word	0x40021000
 80042b8:	0800880c 	.word	0x0800880c

080042bc <HAL_RCC_GetPCLK2Freq>:
  * @note   Each time PCLK2 changes, this function must be called to update the
  *         right PCLK2 value. Otherwise, any configuration based on this function will be incorrect.
  * @retval PCLK2 frequency
  */
uint32_t HAL_RCC_GetPCLK2Freq(void)
{
 80042bc:	b580      	push	{r7, lr}
 80042be:	af00      	add	r7, sp, #0
  /* Get HCLK source and Compute PCLK2 frequency ---------------------------*/
  return (HAL_RCC_GetHCLKFreq() >> APBPrescTable[(RCC->CFGR & RCC_CFGR_PPRE2) >> RCC_CFGR_PPRE2_Pos]);
 80042c0:	f7ff ffde 	bl	8004280 <HAL_RCC_GetHCLKFreq>
 80042c4:	4601      	mov	r1, r0
 80042c6:	4b05      	ldr	r3, [pc, #20]	; (80042dc <HAL_RCC_GetPCLK2Freq+0x20>)
 80042c8:	685b      	ldr	r3, [r3, #4]
 80042ca:	0adb      	lsrs	r3, r3, #11
 80042cc:	f003 0307 	and.w	r3, r3, #7
 80042d0:	4a03      	ldr	r2, [pc, #12]	; (80042e0 <HAL_RCC_GetPCLK2Freq+0x24>)
 80042d2:	5cd3      	ldrb	r3, [r2, r3]
 80042d4:	fa21 f303 	lsr.w	r3, r1, r3
}
 80042d8:	4618      	mov	r0, r3
 80042da:	bd80      	pop	{r7, pc}
 80042dc:	40021000 	.word	0x40021000
 80042e0:	0800880c 	.word	0x0800880c

080042e4 <HAL_RCC_GetClockConfig>:
  * contains the current clock configuration.
  * @param  pFLatency Pointer on the Flash Latency.
  * @retval None
  */
void HAL_RCC_GetClockConfig(RCC_ClkInitTypeDef  *RCC_ClkInitStruct, uint32_t *pFLatency)
{
 80042e4:	b480      	push	{r7}
 80042e6:	b083      	sub	sp, #12
 80042e8:	af00      	add	r7, sp, #0
 80042ea:	6078      	str	r0, [r7, #4]
 80042ec:	6039      	str	r1, [r7, #0]
  /* Check the parameters */
  assert_param(RCC_ClkInitStruct != NULL);
  assert_param(pFLatency != NULL);

  /* Set all possible values for the Clock type parameter --------------------*/
  RCC_ClkInitStruct->ClockType = RCC_CLOCKTYPE_SYSCLK | RCC_CLOCKTYPE_HCLK | RCC_CLOCKTYPE_PCLK1 | RCC_CLOCKTYPE_PCLK2;
 80042ee:	687b      	ldr	r3, [r7, #4]
 80042f0:	220f      	movs	r2, #15
 80042f2:	601a      	str	r2, [r3, #0]

  /* Get the SYSCLK configuration --------------------------------------------*/
  RCC_ClkInitStruct->SYSCLKSource = (uint32_t)(RCC->CFGR & RCC_CFGR_SW);
 80042f4:	4b11      	ldr	r3, [pc, #68]	; (800433c <HAL_RCC_GetClockConfig+0x58>)
 80042f6:	685b      	ldr	r3, [r3, #4]
 80042f8:	f003 0203 	and.w	r2, r3, #3
 80042fc:	687b      	ldr	r3, [r7, #4]
 80042fe:	605a      	str	r2, [r3, #4]

  /* Get the HCLK configuration ----------------------------------------------*/
  RCC_ClkInitStruct->AHBCLKDivider = (uint32_t)(RCC->CFGR & RCC_CFGR_HPRE);
 8004300:	4b0e      	ldr	r3, [pc, #56]	; (800433c <HAL_RCC_GetClockConfig+0x58>)
 8004302:	685b      	ldr	r3, [r3, #4]
 8004304:	f003 02f0 	and.w	r2, r3, #240	; 0xf0
 8004308:	687b      	ldr	r3, [r7, #4]
 800430a:	609a      	str	r2, [r3, #8]

  /* Get the APB1 configuration ----------------------------------------------*/
  RCC_ClkInitStruct->APB1CLKDivider = (uint32_t)(RCC->CFGR & RCC_CFGR_PPRE1);
 800430c:	4b0b      	ldr	r3, [pc, #44]	; (800433c <HAL_RCC_GetClockConfig+0x58>)
 800430e:	685b      	ldr	r3, [r3, #4]
 8004310:	f403 62e0 	and.w	r2, r3, #1792	; 0x700
 8004314:	687b      	ldr	r3, [r7, #4]
 8004316:	60da      	str	r2, [r3, #12]

  /* Get the APB2 configuration ----------------------------------------------*/
  RCC_ClkInitStruct->APB2CLKDivider = (uint32_t)((RCC->CFGR & RCC_CFGR_PPRE2) >> 3);
 8004318:	4b08      	ldr	r3, [pc, #32]	; (800433c <HAL_RCC_GetClockConfig+0x58>)
 800431a:	685b      	ldr	r3, [r3, #4]
 800431c:	08db      	lsrs	r3, r3, #3
 800431e:	f403 62e0 	and.w	r2, r3, #1792	; 0x700
 8004322:	687b      	ldr	r3, [r7, #4]
 8004324:	611a      	str	r2, [r3, #16]

#if   defined(FLASH_ACR_LATENCY)
  /* Get the Flash Wait State (Latency) configuration ------------------------*/
  *pFLatency = (uint32_t)(FLASH->ACR & FLASH_ACR_LATENCY);
 8004326:	4b06      	ldr	r3, [pc, #24]	; (8004340 <HAL_RCC_GetClockConfig+0x5c>)
 8004328:	681b      	ldr	r3, [r3, #0]
 800432a:	f003 0207 	and.w	r2, r3, #7
 800432e:	683b      	ldr	r3, [r7, #0]
 8004330:	601a      	str	r2, [r3, #0]
#else
  /* For VALUE lines devices, only LATENCY_0 can be set*/
  *pFLatency = (uint32_t)FLASH_LATENCY_0;
#endif
}
 8004332:	bf00      	nop
 8004334:	370c      	adds	r7, #12
 8004336:	46bd      	mov	sp, r7
 8004338:	bc80      	pop	{r7}
 800433a:	4770      	bx	lr
 800433c:	40021000 	.word	0x40021000
 8004340:	40022000 	.word	0x40022000

08004344 <RCC_Delay>:
  * @brief  This function provides delay (in milliseconds) based on CPU cycles method.
  * @param  mdelay: specifies the delay time length, in milliseconds.
  * @retval None
  */
static void RCC_Delay(uint32_t mdelay)
{
 8004344:	b480      	push	{r7}
 8004346:	b085      	sub	sp, #20
 8004348:	af00      	add	r7, sp, #0
 800434a:	6078      	str	r0, [r7, #4]
  __IO uint32_t Delay = mdelay * (SystemCoreClock / 8U / 1000U);
 800434c:	4b0a      	ldr	r3, [pc, #40]	; (8004378 <RCC_Delay+0x34>)
 800434e:	681b      	ldr	r3, [r3, #0]
 8004350:	4a0a      	ldr	r2, [pc, #40]	; (800437c <RCC_Delay+0x38>)
 8004352:	fba2 2303 	umull	r2, r3, r2, r3
 8004356:	0a5b      	lsrs	r3, r3, #9
 8004358:	687a      	ldr	r2, [r7, #4]
 800435a:	fb02 f303 	mul.w	r3, r2, r3
 800435e:	60fb      	str	r3, [r7, #12]
  do
  {
    __NOP();
 8004360:	bf00      	nop
  }
  while (Delay --);
 8004362:	68fb      	ldr	r3, [r7, #12]
 8004364:	1e5a      	subs	r2, r3, #1
 8004366:	60fa      	str	r2, [r7, #12]
 8004368:	2b00      	cmp	r3, #0
 800436a:	d1f9      	bne.n	8004360 <RCC_Delay+0x1c>
}
 800436c:	bf00      	nop
 800436e:	3714      	adds	r7, #20
 8004370:	46bd      	mov	sp, r7
 8004372:	bc80      	pop	{r7}
 8004374:	4770      	bx	lr
 8004376:	bf00      	nop
 8004378:	20000004 	.word	0x20000004
 800437c:	10624dd3 	.word	0x10624dd3

08004380 <HAL_RCCEx_PeriphCLKConfig>:
  *         manually disable it.
  *
  * @retval HAL status
  */
HAL_StatusTypeDef HAL_RCCEx_PeriphCLKConfig(RCC_PeriphCLKInitTypeDef  *PeriphClkInit)
{
 8004380:	b580      	push	{r7, lr}
 8004382:	b086      	sub	sp, #24
 8004384:	af00      	add	r7, sp, #0
 8004386:	6078      	str	r0, [r7, #4]
  uint32_t tickstart = 0U, temp_reg = 0U;
 8004388:	2300      	movs	r3, #0
 800438a:	613b      	str	r3, [r7, #16]
 800438c:	2300      	movs	r3, #0
 800438e:	60fb      	str	r3, [r7, #12]

  /* Check the parameters */
  assert_param(IS_RCC_PERIPHCLOCK(PeriphClkInit->PeriphClockSelection));

  /*------------------------------- RTC/LCD Configuration ------------------------*/
  if ((((PeriphClkInit->PeriphClockSelection) & RCC_PERIPHCLK_RTC) == RCC_PERIPHCLK_RTC))
 8004390:	687b      	ldr	r3, [r7, #4]
 8004392:	681b      	ldr	r3, [r3, #0]
 8004394:	f003 0301 	and.w	r3, r3, #1
 8004398:	2b00      	cmp	r3, #0
 800439a:	d07d      	beq.n	8004498 <HAL_RCCEx_PeriphCLKConfig+0x118>
  {
    /* check for RTC Parameters used to output RTCCLK */
    assert_param(IS_RCC_RTCCLKSOURCE(PeriphClkInit->RTCClockSelection));

    FlagStatus       pwrclkchanged = RESET;
 800439c:	2300      	movs	r3, #0
 800439e:	75fb      	strb	r3, [r7, #23]

    /* As soon as function is called to change RTC clock source, activation of the
       power domain is done. */
    /* Requires to enable write access to Backup Domain of necessary */
    if (__HAL_RCC_PWR_IS_CLK_DISABLED())
 80043a0:	4b4f      	ldr	r3, [pc, #316]	; (80044e0 <HAL_RCCEx_PeriphCLKConfig+0x160>)
 80043a2:	69db      	ldr	r3, [r3, #28]
 80043a4:	f003 5380 	and.w	r3, r3, #268435456	; 0x10000000
 80043a8:	2b00      	cmp	r3, #0
 80043aa:	d10d      	bne.n	80043c8 <HAL_RCCEx_PeriphCLKConfig+0x48>
    {
      __HAL_RCC_PWR_CLK_ENABLE();
 80043ac:	4b4c      	ldr	r3, [pc, #304]	; (80044e0 <HAL_RCCEx_PeriphCLKConfig+0x160>)
 80043ae:	69db      	ldr	r3, [r3, #28]
 80043b0:	4a4b      	ldr	r2, [pc, #300]	; (80044e0 <HAL_RCCEx_PeriphCLKConfig+0x160>)
 80043b2:	f043 5380 	orr.w	r3, r3, #268435456	; 0x10000000
 80043b6:	61d3      	str	r3, [r2, #28]
 80043b8:	4b49      	ldr	r3, [pc, #292]	; (80044e0 <HAL_RCCEx_PeriphCLKConfig+0x160>)
 80043ba:	69db      	ldr	r3, [r3, #28]
 80043bc:	f003 5380 	and.w	r3, r3, #268435456	; 0x10000000
 80043c0:	60bb      	str	r3, [r7, #8]
 80043c2:	68bb      	ldr	r3, [r7, #8]
      pwrclkchanged = SET;
 80043c4:	2301      	movs	r3, #1
 80043c6:	75fb      	strb	r3, [r7, #23]
    }

    if (HAL_IS_BIT_CLR(PWR->CR, PWR_CR_DBP))
 80043c8:	4b46      	ldr	r3, [pc, #280]	; (80044e4 <HAL_RCCEx_PeriphCLKConfig+0x164>)
 80043ca:	681b      	ldr	r3, [r3, #0]
 80043cc:	f403 7380 	and.w	r3, r3, #256	; 0x100
 80043d0:	2b00      	cmp	r3, #0
 80043d2:	d118      	bne.n	8004406 <HAL_RCCEx_PeriphCLKConfig+0x86>
    {
      /* Enable write access to Backup domain */
      SET_BIT(PWR->CR, PWR_CR_DBP);
 80043d4:	4b43      	ldr	r3, [pc, #268]	; (80044e4 <HAL_RCCEx_PeriphCLKConfig+0x164>)
 80043d6:	681b      	ldr	r3, [r3, #0]
 80043d8:	4a42      	ldr	r2, [pc, #264]	; (80044e4 <HAL_RCCEx_PeriphCLKConfig+0x164>)
 80043da:	f443 7380 	orr.w	r3, r3, #256	; 0x100
 80043de:	6013      	str	r3, [r2, #0]

      /* Wait for Backup domain Write protection disable */
      tickstart = HAL_GetTick();
 80043e0:	f7fd f830 	bl	8001444 <HAL_GetTick>
 80043e4:	6138      	str	r0, [r7, #16]

      while (HAL_IS_BIT_CLR(PWR->CR, PWR_CR_DBP))
 80043e6:	e008      	b.n	80043fa <HAL_RCCEx_PeriphCLKConfig+0x7a>
      {
        if ((HAL_GetTick() - tickstart) > RCC_DBP_TIMEOUT_VALUE)
 80043e8:	f7fd f82c 	bl	8001444 <HAL_GetTick>
 80043ec:	4602      	mov	r2, r0
 80043ee:	693b      	ldr	r3, [r7, #16]
 80043f0:	1ad3      	subs	r3, r2, r3
 80043f2:	2b64      	cmp	r3, #100	; 0x64
 80043f4:	d901      	bls.n	80043fa <HAL_RCCEx_PeriphCLKConfig+0x7a>
        {
          return HAL_TIMEOUT;
 80043f6:	2303      	movs	r3, #3
 80043f8:	e06d      	b.n	80044d6 <HAL_RCCEx_PeriphCLKConfig+0x156>
      while (HAL_IS_BIT_CLR(PWR->CR, PWR_CR_DBP))
 80043fa:	4b3a      	ldr	r3, [pc, #232]	; (80044e4 <HAL_RCCEx_PeriphCLKConfig+0x164>)
 80043fc:	681b      	ldr	r3, [r3, #0]
 80043fe:	f403 7380 	and.w	r3, r3, #256	; 0x100
 8004402:	2b00      	cmp	r3, #0
 8004404:	d0f0      	beq.n	80043e8 <HAL_RCCEx_PeriphCLKConfig+0x68>
        }
      }
    }

    /* Reset the Backup domain only if the RTC Clock source selection is modified from reset value */
    temp_reg = (RCC->BDCR & RCC_BDCR_RTCSEL);
 8004406:	4b36      	ldr	r3, [pc, #216]	; (80044e0 <HAL_RCCEx_PeriphCLKConfig+0x160>)
 8004408:	6a1b      	ldr	r3, [r3, #32]
 800440a:	f403 7340 	and.w	r3, r3, #768	; 0x300
 800440e:	60fb      	str	r3, [r7, #12]
    if ((temp_reg != 0x00000000U) && (temp_reg != (PeriphClkInit->RTCClockSelection & RCC_BDCR_RTCSEL)))
 8004410:	68fb      	ldr	r3, [r7, #12]
 8004412:	2b00      	cmp	r3, #0
 8004414:	d02e      	beq.n	8004474 <HAL_RCCEx_PeriphCLKConfig+0xf4>
 8004416:	687b      	ldr	r3, [r7, #4]
 8004418:	685b      	ldr	r3, [r3, #4]
 800441a:	f403 7340 	and.w	r3, r3, #768	; 0x300
 800441e:	68fa      	ldr	r2, [r7, #12]
 8004420:	429a      	cmp	r2, r3
 8004422:	d027      	beq.n	8004474 <HAL_RCCEx_PeriphCLKConfig+0xf4>
    {
      /* Store the content of BDCR register before the reset of Backup Domain */
      temp_reg = (RCC->BDCR & ~(RCC_BDCR_RTCSEL));
 8004424:	4b2e      	ldr	r3, [pc, #184]	; (80044e0 <HAL_RCCEx_PeriphCLKConfig+0x160>)
 8004426:	6a1b      	ldr	r3, [r3, #32]
 8004428:	f423 7340 	bic.w	r3, r3, #768	; 0x300
 800442c:	60fb      	str	r3, [r7, #12]
      /* RTC Clock selection can be changed only if the Backup Domain is reset */
      __HAL_RCC_BACKUPRESET_FORCE();
 800442e:	4b2e      	ldr	r3, [pc, #184]	; (80044e8 <HAL_RCCEx_PeriphCLKConfig+0x168>)
 8004430:	2201      	movs	r2, #1
 8004432:	601a      	str	r2, [r3, #0]
      __HAL_RCC_BACKUPRESET_RELEASE();
 8004434:	4b2c      	ldr	r3, [pc, #176]	; (80044e8 <HAL_RCCEx_PeriphCLKConfig+0x168>)
 8004436:	2200      	movs	r2, #0
 8004438:	601a      	str	r2, [r3, #0]
      /* Restore the Content of BDCR register */
      RCC->BDCR = temp_reg;
 800443a:	4a29      	ldr	r2, [pc, #164]	; (80044e0 <HAL_RCCEx_PeriphCLKConfig+0x160>)
 800443c:	68fb      	ldr	r3, [r7, #12]
 800443e:	6213      	str	r3, [r2, #32]

      /* Wait for LSERDY if LSE was enabled */
      if (HAL_IS_BIT_SET(temp_reg, RCC_BDCR_LSEON))
 8004440:	68fb      	ldr	r3, [r7, #12]
 8004442:	f003 0301 	and.w	r3, r3, #1
 8004446:	2b00      	cmp	r3, #0
 8004448:	d014      	beq.n	8004474 <HAL_RCCEx_PeriphCLKConfig+0xf4>
      {
        /* Get Start Tick */
        tickstart = HAL_GetTick();
 800444a:	f7fc fffb 	bl	8001444 <HAL_GetTick>
 800444e:	6138      	str	r0, [r7, #16]

        /* Wait till LSE is ready */
        while (__HAL_RCC_GET_FLAG(RCC_FLAG_LSERDY) == RESET)
 8004450:	e00a      	b.n	8004468 <HAL_RCCEx_PeriphCLKConfig+0xe8>
        {
          if ((HAL_GetTick() - tickstart) > RCC_LSE_TIMEOUT_VALUE)
 8004452:	f7fc fff7 	bl	8001444 <HAL_GetTick>
 8004456:	4602      	mov	r2, r0
 8004458:	693b      	ldr	r3, [r7, #16]
 800445a:	1ad3      	subs	r3, r2, r3
 800445c:	f241 3288 	movw	r2, #5000	; 0x1388
 8004460:	4293      	cmp	r3, r2
 8004462:	d901      	bls.n	8004468 <HAL_RCCEx_PeriphCLKConfig+0xe8>
          {
            return HAL_TIMEOUT;
 8004464:	2303      	movs	r3, #3
 8004466:	e036      	b.n	80044d6 <HAL_RCCEx_PeriphCLKConfig+0x156>
        while (__HAL_RCC_GET_FLAG(RCC_FLAG_LSERDY) == RESET)
 8004468:	4b1d      	ldr	r3, [pc, #116]	; (80044e0 <HAL_RCCEx_PeriphCLKConfig+0x160>)
 800446a:	6a1b      	ldr	r3, [r3, #32]
 800446c:	f003 0302 	and.w	r3, r3, #2
 8004470:	2b00      	cmp	r3, #0
 8004472:	d0ee      	beq.n	8004452 <HAL_RCCEx_PeriphCLKConfig+0xd2>
          }
        }
      }
    }
    __HAL_RCC_RTC_CONFIG(PeriphClkInit->RTCClockSelection);
 8004474:	4b1a      	ldr	r3, [pc, #104]	; (80044e0 <HAL_RCCEx_PeriphCLKConfig+0x160>)
 8004476:	6a1b      	ldr	r3, [r3, #32]
 8004478:	f423 7240 	bic.w	r2, r3, #768	; 0x300
 800447c:	687b      	ldr	r3, [r7, #4]
 800447e:	685b      	ldr	r3, [r3, #4]
 8004480:	4917      	ldr	r1, [pc, #92]	; (80044e0 <HAL_RCCEx_PeriphCLKConfig+0x160>)
 8004482:	4313      	orrs	r3, r2
 8004484:	620b      	str	r3, [r1, #32]

    /* Require to disable power clock if necessary */
    if (pwrclkchanged == SET)
 8004486:	7dfb      	ldrb	r3, [r7, #23]
 8004488:	2b01      	cmp	r3, #1
 800448a:	d105      	bne.n	8004498 <HAL_RCCEx_PeriphCLKConfig+0x118>
    {
      __HAL_RCC_PWR_CLK_DISABLE();
 800448c:	4b14      	ldr	r3, [pc, #80]	; (80044e0 <HAL_RCCEx_PeriphCLKConfig+0x160>)
 800448e:	69db      	ldr	r3, [r3, #28]
 8004490:	4a13      	ldr	r2, [pc, #76]	; (80044e0 <HAL_RCCEx_PeriphCLKConfig+0x160>)
 8004492:	f023 5380 	bic.w	r3, r3, #268435456	; 0x10000000
 8004496:	61d3      	str	r3, [r2, #28]
    }
  }

  /*------------------------------ ADC clock Configuration ------------------*/
  if (((PeriphClkInit->PeriphClockSelection) & RCC_PERIPHCLK_ADC) == RCC_PERIPHCLK_ADC)
 8004498:	687b      	ldr	r3, [r7, #4]
 800449a:	681b      	ldr	r3, [r3, #0]
 800449c:	f003 0302 	and.w	r3, r3, #2
 80044a0:	2b00      	cmp	r3, #0
 80044a2:	d008      	beq.n	80044b6 <HAL_RCCEx_PeriphCLKConfig+0x136>
  {
    /* Check the parameters */
    assert_param(IS_RCC_ADCPLLCLK_DIV(PeriphClkInit->AdcClockSelection));

    /* Configure the ADC clock source */
    __HAL_RCC_ADC_CONFIG(PeriphClkInit->AdcClockSelection);
 80044a4:	4b0e      	ldr	r3, [pc, #56]	; (80044e0 <HAL_RCCEx_PeriphCLKConfig+0x160>)
 80044a6:	685b      	ldr	r3, [r3, #4]
 80044a8:	f423 4240 	bic.w	r2, r3, #49152	; 0xc000
 80044ac:	687b      	ldr	r3, [r7, #4]
 80044ae:	689b      	ldr	r3, [r3, #8]
 80044b0:	490b      	ldr	r1, [pc, #44]	; (80044e0 <HAL_RCCEx_PeriphCLKConfig+0x160>)
 80044b2:	4313      	orrs	r3, r2
 80044b4:	604b      	str	r3, [r1, #4]

#if defined(STM32F102x6) || defined(STM32F102xB) || defined(STM32F103x6)\
 || defined(STM32F103xB) || defined(STM32F103xE) || defined(STM32F103xG)\
 || defined(STM32F105xC) || defined(STM32F107xC)
  /*------------------------------ USB clock Configuration ------------------*/
  if (((PeriphClkInit->PeriphClockSelection) & RCC_PERIPHCLK_USB) == RCC_PERIPHCLK_USB)
 80044b6:	687b      	ldr	r3, [r7, #4]
 80044b8:	681b      	ldr	r3, [r3, #0]
 80044ba:	f003 0310 	and.w	r3, r3, #16
 80044be:	2b00      	cmp	r3, #0
 80044c0:	d008      	beq.n	80044d4 <HAL_RCCEx_PeriphCLKConfig+0x154>
  {
    /* Check the parameters */
    assert_param(IS_RCC_USBPLLCLK_DIV(PeriphClkInit->UsbClockSelection));

    /* Configure the USB clock source */
    __HAL_RCC_USB_CONFIG(PeriphClkInit->UsbClockSelection);
 80044c2:	4b07      	ldr	r3, [pc, #28]	; (80044e0 <HAL_RCCEx_PeriphCLKConfig+0x160>)
 80044c4:	685b      	ldr	r3, [r3, #4]
 80044c6:	f423 0280 	bic.w	r2, r3, #4194304	; 0x400000
 80044ca:	687b      	ldr	r3, [r7, #4]
 80044cc:	68db      	ldr	r3, [r3, #12]
 80044ce:	4904      	ldr	r1, [pc, #16]	; (80044e0 <HAL_RCCEx_PeriphCLKConfig+0x160>)
 80044d0:	4313      	orrs	r3, r2
 80044d2:	604b      	str	r3, [r1, #4]
  }
#endif /* STM32F102x6 || STM32F102xB || STM32F103x6 || STM32F103xB || STM32F103xE || STM32F103xG || STM32F105xC || STM32F107xC */

  return HAL_OK;
 80044d4:	2300      	movs	r3, #0
}
 80044d6:	4618      	mov	r0, r3
 80044d8:	3718      	adds	r7, #24
 80044da:	46bd      	mov	sp, r7
 80044dc:	bd80      	pop	{r7, pc}
 80044de:	bf00      	nop
 80044e0:	40021000 	.word	0x40021000
 80044e4:	40007000 	.word	0x40007000
 80044e8:	42420440 	.word	0x42420440

080044ec <HAL_TIM_Base_Init>:
  *         Ex: call @ref HAL_TIM_Base_DeInit() before HAL_TIM_Base_Init()
  * @param  htim TIM Base handle
  * @retval HAL status
  */
HAL_StatusTypeDef HAL_TIM_Base_Init(TIM_HandleTypeDef *htim)
{
 80044ec:	b580      	push	{r7, lr}
 80044ee:	b082      	sub	sp, #8
 80044f0:	af00      	add	r7, sp, #0
 80044f2:	6078      	str	r0, [r7, #4]
  /* Check the TIM handle allocation */
  if (htim == NULL)
 80044f4:	687b      	ldr	r3, [r7, #4]
 80044f6:	2b00      	cmp	r3, #0
 80044f8:	d101      	bne.n	80044fe <HAL_TIM_Base_Init+0x12>
  {
    return HAL_ERROR;
 80044fa:	2301      	movs	r3, #1
 80044fc:	e01d      	b.n	800453a <HAL_TIM_Base_Init+0x4e>
  assert_param(IS_TIM_INSTANCE(htim->Instance));
  assert_param(IS_TIM_COUNTER_MODE(htim->Init.CounterMode));
  assert_param(IS_TIM_CLOCKDIVISION_DIV(htim->Init.ClockDivision));
  assert_param(IS_TIM_AUTORELOAD_PRELOAD(htim->Init.AutoReloadPreload));

  if (htim->State == HAL_TIM_STATE_RESET)
 80044fe:	687b      	ldr	r3, [r7, #4]
 8004500:	f893 303d 	ldrb.w	r3, [r3, #61]	; 0x3d
 8004504:	b2db      	uxtb	r3, r3
 8004506:	2b00      	cmp	r3, #0
 8004508:	d106      	bne.n	8004518 <HAL_TIM_Base_Init+0x2c>
  {
    /* Allocate lock resource and initialize it */
    htim->Lock = HAL_UNLOCKED;
 800450a:	687b      	ldr	r3, [r7, #4]
 800450c:	2200      	movs	r2, #0
 800450e:	f883 203c 	strb.w	r2, [r3, #60]	; 0x3c
    }
    /* Init the low level hardware : GPIO, CLOCK, NVIC */
    htim->Base_MspInitCallback(htim);
#else
    /* Init the low level hardware : GPIO, CLOCK, NVIC */
    HAL_TIM_Base_MspInit(htim);
 8004512:	6878      	ldr	r0, [r7, #4]
 8004514:	f000 f815 	bl	8004542 <HAL_TIM_Base_MspInit>
#endif /* USE_HAL_TIM_REGISTER_CALLBACKS */
  }

  /* Set the TIM state */
  htim->State = HAL_TIM_STATE_BUSY;
 8004518:	687b      	ldr	r3, [r7, #4]
 800451a:	2202      	movs	r2, #2
 800451c:	f883 203d 	strb.w	r2, [r3, #61]	; 0x3d

  /* Set the Time Base configuration */
  TIM_Base_SetConfig(htim->Instance, &htim->Init);
 8004520:	687b      	ldr	r3, [r7, #4]
 8004522:	681a      	ldr	r2, [r3, #0]
 8004524:	687b      	ldr	r3, [r7, #4]
 8004526:	3304      	adds	r3, #4
 8004528:	4619      	mov	r1, r3
 800452a:	4610      	mov	r0, r2
 800452c:	f000 f962 	bl	80047f4 <TIM_Base_SetConfig>

  /* Initialize the TIM state*/
  htim->State = HAL_TIM_STATE_READY;
 8004530:	687b      	ldr	r3, [r7, #4]
 8004532:	2201      	movs	r2, #1
 8004534:	f883 203d 	strb.w	r2, [r3, #61]	; 0x3d

  return HAL_OK;
 8004538:	2300      	movs	r3, #0
}
 800453a:	4618      	mov	r0, r3
 800453c:	3708      	adds	r7, #8
 800453e:	46bd      	mov	sp, r7
 8004540:	bd80      	pop	{r7, pc}

08004542 <HAL_TIM_Base_MspInit>:
  * @brief  Initializes the TIM Base MSP.
  * @param  htim TIM Base handle
  * @retval None
  */
__weak void HAL_TIM_Base_MspInit(TIM_HandleTypeDef *htim)
{
 8004542:	b480      	push	{r7}
 8004544:	b083      	sub	sp, #12
 8004546:	af00      	add	r7, sp, #0
 8004548:	6078      	str	r0, [r7, #4]
  UNUSED(htim);

  /* NOTE : This function should not be modified, when the callback is needed,
            the HAL_TIM_Base_MspInit could be implemented in the user file
   */
}
 800454a:	bf00      	nop
 800454c:	370c      	adds	r7, #12
 800454e:	46bd      	mov	sp, r7
 8004550:	bc80      	pop	{r7}
 8004552:	4770      	bx	lr

08004554 <HAL_TIM_Base_Start_IT>:
  * @brief  Starts the TIM Base generation in interrupt mode.
  * @param  htim TIM Base handle
  * @retval HAL status
  */
HAL_StatusTypeDef HAL_TIM_Base_Start_IT(TIM_HandleTypeDef *htim)
{
 8004554:	b480      	push	{r7}
 8004556:	b085      	sub	sp, #20
 8004558:	af00      	add	r7, sp, #0
 800455a:	6078      	str	r0, [r7, #4]

  /* Check the parameters */
  assert_param(IS_TIM_INSTANCE(htim->Instance));

  /* Enable the TIM Update interrupt */
  __HAL_TIM_ENABLE_IT(htim, TIM_IT_UPDATE);
 800455c:	687b      	ldr	r3, [r7, #4]
 800455e:	681b      	ldr	r3, [r3, #0]
 8004560:	68da      	ldr	r2, [r3, #12]
 8004562:	687b      	ldr	r3, [r7, #4]
 8004564:	681b      	ldr	r3, [r3, #0]
 8004566:	f042 0201 	orr.w	r2, r2, #1
 800456a:	60da      	str	r2, [r3, #12]

  /* Enable the Peripheral, except in trigger mode where enable is automatically done with trigger */
  tmpsmcr = htim->Instance->SMCR & TIM_SMCR_SMS;
 800456c:	687b      	ldr	r3, [r7, #4]
 800456e:	681b      	ldr	r3, [r3, #0]
 8004570:	689b      	ldr	r3, [r3, #8]
 8004572:	f003 0307 	and.w	r3, r3, #7
 8004576:	60fb      	str	r3, [r7, #12]
  if (!IS_TIM_SLAVEMODE_TRIGGER_ENABLED(tmpsmcr))
 8004578:	68fb      	ldr	r3, [r7, #12]
 800457a:	2b06      	cmp	r3, #6
 800457c:	d007      	beq.n	800458e <HAL_TIM_Base_Start_IT+0x3a>
  {
    __HAL_TIM_ENABLE(htim);
 800457e:	687b      	ldr	r3, [r7, #4]
 8004580:	681b      	ldr	r3, [r3, #0]
 8004582:	681a      	ldr	r2, [r3, #0]
 8004584:	687b      	ldr	r3, [r7, #4]
 8004586:	681b      	ldr	r3, [r3, #0]
 8004588:	f042 0201 	orr.w	r2, r2, #1
 800458c:	601a      	str	r2, [r3, #0]
  }

  /* Return function status */
  return HAL_OK;
 800458e:	2300      	movs	r3, #0
}
 8004590:	4618      	mov	r0, r3
 8004592:	3714      	adds	r7, #20
 8004594:	46bd      	mov	sp, r7
 8004596:	bc80      	pop	{r7}
 8004598:	4770      	bx	lr

0800459a <HAL_TIM_IRQHandler>:
  * @brief  This function handles TIM interrupts requests.
  * @param  htim TIM  handle
  * @retval None
  */
void HAL_TIM_IRQHandler(TIM_HandleTypeDef *htim)
{
 800459a:	b580      	push	{r7, lr}
 800459c:	b082      	sub	sp, #8
 800459e:	af00      	add	r7, sp, #0
 80045a0:	6078      	str	r0, [r7, #4]
  /* Capture compare 1 event */
  if (__HAL_TIM_GET_FLAG(htim, TIM_FLAG_CC1) != RESET)
 80045a2:	687b      	ldr	r3, [r7, #4]
 80045a4:	681b      	ldr	r3, [r3, #0]
 80045a6:	691b      	ldr	r3, [r3, #16]
 80045a8:	f003 0302 	and.w	r3, r3, #2
 80045ac:	2b02      	cmp	r3, #2
 80045ae:	d122      	bne.n	80045f6 <HAL_TIM_IRQHandler+0x5c>
  {
    if (__HAL_TIM_GET_IT_SOURCE(htim, TIM_IT_CC1) != RESET)
 80045b0:	687b      	ldr	r3, [r7, #4]
 80045b2:	681b      	ldr	r3, [r3, #0]
 80045b4:	68db      	ldr	r3, [r3, #12]
 80045b6:	f003 0302 	and.w	r3, r3, #2
 80045ba:	2b02      	cmp	r3, #2
 80045bc:	d11b      	bne.n	80045f6 <HAL_TIM_IRQHandler+0x5c>
    {
      {
        __HAL_TIM_CLEAR_IT(htim, TIM_IT_CC1);
 80045be:	687b      	ldr	r3, [r7, #4]
 80045c0:	681b      	ldr	r3, [r3, #0]
 80045c2:	f06f 0202 	mvn.w	r2, #2
 80045c6:	611a      	str	r2, [r3, #16]
        htim->Channel = HAL_TIM_ACTIVE_CHANNEL_1;
 80045c8:	687b      	ldr	r3, [r7, #4]
 80045ca:	2201      	movs	r2, #1
 80045cc:	771a      	strb	r2, [r3, #28]

        /* Input capture event */
        if ((htim->Instance->CCMR1 & TIM_CCMR1_CC1S) != 0x00U)
 80045ce:	687b      	ldr	r3, [r7, #4]
 80045d0:	681b      	ldr	r3, [r3, #0]
 80045d2:	699b      	ldr	r3, [r3, #24]
 80045d4:	f003 0303 	and.w	r3, r3, #3
 80045d8:	2b00      	cmp	r3, #0
 80045da:	d003      	beq.n	80045e4 <HAL_TIM_IRQHandler+0x4a>
        {
#if (USE_HAL_TIM_REGISTER_CALLBACKS == 1)
          htim->IC_CaptureCallback(htim);
#else
          HAL_TIM_IC_CaptureCallback(htim);
 80045dc:	6878      	ldr	r0, [r7, #4]
 80045de:	f000 f8ed 	bl	80047bc <HAL_TIM_IC_CaptureCallback>
 80045e2:	e005      	b.n	80045f0 <HAL_TIM_IRQHandler+0x56>
        {
#if (USE_HAL_TIM_REGISTER_CALLBACKS == 1)
          htim->OC_DelayElapsedCallback(htim);
          htim->PWM_PulseFinishedCallback(htim);
#else
          HAL_TIM_OC_DelayElapsedCallback(htim);
 80045e4:	6878      	ldr	r0, [r7, #4]
 80045e6:	f000 f8e0 	bl	80047aa <HAL_TIM_OC_DelayElapsedCallback>
          HAL_TIM_PWM_PulseFinishedCallback(htim);
 80045ea:	6878      	ldr	r0, [r7, #4]
 80045ec:	f000 f8ef 	bl	80047ce <HAL_TIM_PWM_PulseFinishedCallback>
#endif /* USE_HAL_TIM_REGISTER_CALLBACKS */
        }
        htim->Channel = HAL_TIM_ACTIVE_CHANNEL_CLEARED;
 80045f0:	687b      	ldr	r3, [r7, #4]
 80045f2:	2200      	movs	r2, #0
 80045f4:	771a      	strb	r2, [r3, #28]
      }
    }
  }
  /* Capture compare 2 event */
  if (__HAL_TIM_GET_FLAG(htim, TIM_FLAG_CC2) != RESET)
 80045f6:	687b      	ldr	r3, [r7, #4]
 80045f8:	681b      	ldr	r3, [r3, #0]
 80045fa:	691b      	ldr	r3, [r3, #16]
 80045fc:	f003 0304 	and.w	r3, r3, #4
 8004600:	2b04      	cmp	r3, #4
 8004602:	d122      	bne.n	800464a <HAL_TIM_IRQHandler+0xb0>
  {
    if (__HAL_TIM_GET_IT_SOURCE(htim, TIM_IT_CC2) != RESET)
 8004604:	687b      	ldr	r3, [r7, #4]
 8004606:	681b      	ldr	r3, [r3, #0]
 8004608:	68db      	ldr	r3, [r3, #12]
 800460a:	f003 0304 	and.w	r3, r3, #4
 800460e:	2b04      	cmp	r3, #4
 8004610:	d11b      	bne.n	800464a <HAL_TIM_IRQHandler+0xb0>
    {
      __HAL_TIM_CLEAR_IT(htim, TIM_IT_CC2);
 8004612:	687b      	ldr	r3, [r7, #4]
 8004614:	681b      	ldr	r3, [r3, #0]
 8004616:	f06f 0204 	mvn.w	r2, #4
 800461a:	611a      	str	r2, [r3, #16]
      htim->Channel = HAL_TIM_ACTIVE_CHANNEL_2;
 800461c:	687b      	ldr	r3, [r7, #4]
 800461e:	2202      	movs	r2, #2
 8004620:	771a      	strb	r2, [r3, #28]
      /* Input capture event */
      if ((htim->Instance->CCMR1 & TIM_CCMR1_CC2S) != 0x00U)
 8004622:	687b      	ldr	r3, [r7, #4]
 8004624:	681b      	ldr	r3, [r3, #0]
 8004626:	699b      	ldr	r3, [r3, #24]
 8004628:	f403 7340 	and.w	r3, r3, #768	; 0x300
 800462c:	2b00      	cmp	r3, #0
 800462e:	d003      	beq.n	8004638 <HAL_TIM_IRQHandler+0x9e>
      {
#if (USE_HAL_TIM_REGISTER_CALLBACKS == 1)
        htim->IC_CaptureCallback(htim);
#else
        HAL_TIM_IC_CaptureCallback(htim);
 8004630:	6878      	ldr	r0, [r7, #4]
 8004632:	f000 f8c3 	bl	80047bc <HAL_TIM_IC_CaptureCallback>
 8004636:	e005      	b.n	8004644 <HAL_TIM_IRQHandler+0xaa>
      {
#if (USE_HAL_TIM_REGISTER_CALLBACKS == 1)
        htim->OC_DelayElapsedCallback(htim);
        htim->PWM_PulseFinishedCallback(htim);
#else
        HAL_TIM_OC_DelayElapsedCallback(htim);
 8004638:	6878      	ldr	r0, [r7, #4]
 800463a:	f000 f8b6 	bl	80047aa <HAL_TIM_OC_DelayElapsedCallback>
        HAL_TIM_PWM_PulseFinishedCallback(htim);
 800463e:	6878      	ldr	r0, [r7, #4]
 8004640:	f000 f8c5 	bl	80047ce <HAL_TIM_PWM_PulseFinishedCallback>
#endif /* USE_HAL_TIM_REGISTER_CALLBACKS */
      }
      htim->Channel = HAL_TIM_ACTIVE_CHANNEL_CLEARED;
 8004644:	687b      	ldr	r3, [r7, #4]
 8004646:	2200      	movs	r2, #0
 8004648:	771a      	strb	r2, [r3, #28]
    }
  }
  /* Capture compare 3 event */
  if (__HAL_TIM_GET_FLAG(htim, TIM_FLAG_CC3) != RESET)
 800464a:	687b      	ldr	r3, [r7, #4]
 800464c:	681b      	ldr	r3, [r3, #0]
 800464e:	691b      	ldr	r3, [r3, #16]
 8004650:	f003 0308 	and.w	r3, r3, #8
 8004654:	2b08      	cmp	r3, #8
 8004656:	d122      	bne.n	800469e <HAL_TIM_IRQHandler+0x104>
  {
    if (__HAL_TIM_GET_IT_SOURCE(htim, TIM_IT_CC3) != RESET)
 8004658:	687b      	ldr	r3, [r7, #4]
 800465a:	681b      	ldr	r3, [r3, #0]
 800465c:	68db      	ldr	r3, [r3, #12]
 800465e:	f003 0308 	and.w	r3, r3, #8
 8004662:	2b08      	cmp	r3, #8
 8004664:	d11b      	bne.n	800469e <HAL_TIM_IRQHandler+0x104>
    {
      __HAL_TIM_CLEAR_IT(htim, TIM_IT_CC3);
 8004666:	687b      	ldr	r3, [r7, #4]
 8004668:	681b      	ldr	r3, [r3, #0]
 800466a:	f06f 0208 	mvn.w	r2, #8
 800466e:	611a      	str	r2, [r3, #16]
      htim->Channel = HAL_TIM_ACTIVE_CHANNEL_3;
 8004670:	687b      	ldr	r3, [r7, #4]
 8004672:	2204      	movs	r2, #4
 8004674:	771a      	strb	r2, [r3, #28]
      /* Input capture event */
      if ((htim->Instance->CCMR2 & TIM_CCMR2_CC3S) != 0x00U)
 8004676:	687b      	ldr	r3, [r7, #4]
 8004678:	681b      	ldr	r3, [r3, #0]
 800467a:	69db      	ldr	r3, [r3, #28]
 800467c:	f003 0303 	and.w	r3, r3, #3
 8004680:	2b00      	cmp	r3, #0
 8004682:	d003      	beq.n	800468c <HAL_TIM_IRQHandler+0xf2>
      {
#if (USE_HAL_TIM_REGISTER_CALLBACKS == 1)
        htim->IC_CaptureCallback(htim);
#else
        HAL_TIM_IC_CaptureCallback(htim);
 8004684:	6878      	ldr	r0, [r7, #4]
 8004686:	f000 f899 	bl	80047bc <HAL_TIM_IC_CaptureCallback>
 800468a:	e005      	b.n	8004698 <HAL_TIM_IRQHandler+0xfe>
      {
#if (USE_HAL_TIM_REGISTER_CALLBACKS == 1)
        htim->OC_DelayElapsedCallback(htim);
        htim->PWM_PulseFinishedCallback(htim);
#else
        HAL_TIM_OC_DelayElapsedCallback(htim);
 800468c:	6878      	ldr	r0, [r7, #4]
 800468e:	f000 f88c 	bl	80047aa <HAL_TIM_OC_DelayElapsedCallback>
        HAL_TIM_PWM_PulseFinishedCallback(htim);
 8004692:	6878      	ldr	r0, [r7, #4]
 8004694:	f000 f89b 	bl	80047ce <HAL_TIM_PWM_PulseFinishedCallback>
#endif /* USE_HAL_TIM_REGISTER_CALLBACKS */
      }
      htim->Channel = HAL_TIM_ACTIVE_CHANNEL_CLEARED;
 8004698:	687b      	ldr	r3, [r7, #4]
 800469a:	2200      	movs	r2, #0
 800469c:	771a      	strb	r2, [r3, #28]
    }
  }
  /* Capture compare 4 event */
  if (__HAL_TIM_GET_FLAG(htim, TIM_FLAG_CC4) != RESET)
 800469e:	687b      	ldr	r3, [r7, #4]
 80046a0:	681b      	ldr	r3, [r3, #0]
 80046a2:	691b      	ldr	r3, [r3, #16]
 80046a4:	f003 0310 	and.w	r3, r3, #16
 80046a8:	2b10      	cmp	r3, #16
 80046aa:	d122      	bne.n	80046f2 <HAL_TIM_IRQHandler+0x158>
  {
    if (__HAL_TIM_GET_IT_SOURCE(htim, TIM_IT_CC4) != RESET)
 80046ac:	687b      	ldr	r3, [r7, #4]
 80046ae:	681b      	ldr	r3, [r3, #0]
 80046b0:	68db      	ldr	r3, [r3, #12]
 80046b2:	f003 0310 	and.w	r3, r3, #16
 80046b6:	2b10      	cmp	r3, #16
 80046b8:	d11b      	bne.n	80046f2 <HAL_TIM_IRQHandler+0x158>
    {
      __HAL_TIM_CLEAR_IT(htim, TIM_IT_CC4);
 80046ba:	687b      	ldr	r3, [r7, #4]
 80046bc:	681b      	ldr	r3, [r3, #0]
 80046be:	f06f 0210 	mvn.w	r2, #16
 80046c2:	611a      	str	r2, [r3, #16]
      htim->Channel = HAL_TIM_ACTIVE_CHANNEL_4;
 80046c4:	687b      	ldr	r3, [r7, #4]
 80046c6:	2208      	movs	r2, #8
 80046c8:	771a      	strb	r2, [r3, #28]
      /* Input capture event */
      if ((htim->Instance->CCMR2 & TIM_CCMR2_CC4S) != 0x00U)
 80046ca:	687b      	ldr	r3, [r7, #4]
 80046cc:	681b      	ldr	r3, [r3, #0]
 80046ce:	69db      	ldr	r3, [r3, #28]
 80046d0:	f403 7340 	and.w	r3, r3, #768	; 0x300
 80046d4:	2b00      	cmp	r3, #0
 80046d6:	d003      	beq.n	80046e0 <HAL_TIM_IRQHandler+0x146>
      {
#if (USE_HAL_TIM_REGISTER_CALLBACKS == 1)
        htim->IC_CaptureCallback(htim);
#else
        HAL_TIM_IC_CaptureCallback(htim);
 80046d8:	6878      	ldr	r0, [r7, #4]
 80046da:	f000 f86f 	bl	80047bc <HAL_TIM_IC_CaptureCallback>
 80046de:	e005      	b.n	80046ec <HAL_TIM_IRQHandler+0x152>
      {
#if (USE_HAL_TIM_REGISTER_CALLBACKS == 1)
        htim->OC_DelayElapsedCallback(htim);
        htim->PWM_PulseFinishedCallback(htim);
#else
        HAL_TIM_OC_DelayElapsedCallback(htim);
 80046e0:	6878      	ldr	r0, [r7, #4]
 80046e2:	f000 f862 	bl	80047aa <HAL_TIM_OC_DelayElapsedCallback>
        HAL_TIM_PWM_PulseFinishedCallback(htim);
 80046e6:	6878      	ldr	r0, [r7, #4]
 80046e8:	f000 f871 	bl	80047ce <HAL_TIM_PWM_PulseFinishedCallback>
#endif /* USE_HAL_TIM_REGISTER_CALLBACKS */
      }
      htim->Channel = HAL_TIM_ACTIVE_CHANNEL_CLEARED;
 80046ec:	687b      	ldr	r3, [r7, #4]
 80046ee:	2200      	movs	r2, #0
 80046f0:	771a      	strb	r2, [r3, #28]
    }
  }
  /* TIM Update event */
  if (__HAL_TIM_GET_FLAG(htim, TIM_FLAG_UPDATE) != RESET)
 80046f2:	687b      	ldr	r3, [r7, #4]
 80046f4:	681b      	ldr	r3, [r3, #0]
 80046f6:	691b      	ldr	r3, [r3, #16]
 80046f8:	f003 0301 	and.w	r3, r3, #1
 80046fc:	2b01      	cmp	r3, #1
 80046fe:	d10e      	bne.n	800471e <HAL_TIM_IRQHandler+0x184>
  {
    if (__HAL_TIM_GET_IT_SOURCE(htim, TIM_IT_UPDATE) != RESET)
 8004700:	687b      	ldr	r3, [r7, #4]
 8004702:	681b      	ldr	r3, [r3, #0]
 8004704:	68db      	ldr	r3, [r3, #12]
 8004706:	f003 0301 	and.w	r3, r3, #1
 800470a:	2b01      	cmp	r3, #1
 800470c:	d107      	bne.n	800471e <HAL_TIM_IRQHandler+0x184>
    {
      __HAL_TIM_CLEAR_IT(htim, TIM_IT_UPDATE);
 800470e:	687b      	ldr	r3, [r7, #4]
 8004710:	681b      	ldr	r3, [r3, #0]
 8004712:	f06f 0201 	mvn.w	r2, #1
 8004716:	611a      	str	r2, [r3, #16]
#if (USE_HAL_TIM_REGISTER_CALLBACKS == 1)
      htim->PeriodElapsedCallback(htim);
#else
      HAL_TIM_PeriodElapsedCallback(htim);
 8004718:	6878      	ldr	r0, [r7, #4]
 800471a:	f7fc fb23 	bl	8000d64 <HAL_TIM_PeriodElapsedCallback>
#endif /* USE_HAL_TIM_REGISTER_CALLBACKS */
    }
  }
  /* TIM Break input event */
  if (__HAL_TIM_GET_FLAG(htim, TIM_FLAG_BREAK) != RESET)
 800471e:	687b      	ldr	r3, [r7, #4]
 8004720:	681b      	ldr	r3, [r3, #0]
 8004722:	691b      	ldr	r3, [r3, #16]
 8004724:	f003 0380 	and.w	r3, r3, #128	; 0x80
 8004728:	2b80      	cmp	r3, #128	; 0x80
 800472a:	d10e      	bne.n	800474a <HAL_TIM_IRQHandler+0x1b0>
  {
    if (__HAL_TIM_GET_IT_SOURCE(htim, TIM_IT_BREAK) != RESET)
 800472c:	687b      	ldr	r3, [r7, #4]
 800472e:	681b      	ldr	r3, [r3, #0]
 8004730:	68db      	ldr	r3, [r3, #12]
 8004732:	f003 0380 	and.w	r3, r3, #128	; 0x80
 8004736:	2b80      	cmp	r3, #128	; 0x80
 8004738:	d107      	bne.n	800474a <HAL_TIM_IRQHandler+0x1b0>
    {
      __HAL_TIM_CLEAR_IT(htim, TIM_IT_BREAK);
 800473a:	687b      	ldr	r3, [r7, #4]
 800473c:	681b      	ldr	r3, [r3, #0]
 800473e:	f06f 0280 	mvn.w	r2, #128	; 0x80
 8004742:	611a      	str	r2, [r3, #16]
#if (USE_HAL_TIM_REGISTER_CALLBACKS == 1)
      htim->BreakCallback(htim);
#else
      HAL_TIMEx_BreakCallback(htim);
 8004744:	6878      	ldr	r0, [r7, #4]
 8004746:	f000 f8c0 	bl	80048ca <HAL_TIMEx_BreakCallback>
#endif /* USE_HAL_TIM_REGISTER_CALLBACKS */
    }
  }
  /* TIM Trigger detection event */
  if (__HAL_TIM_GET_FLAG(htim, TIM_FLAG_TRIGGER) != RESET)
 800474a:	687b      	ldr	r3, [r7, #4]
 800474c:	681b      	ldr	r3, [r3, #0]
 800474e:	691b      	ldr	r3, [r3, #16]
 8004750:	f003 0340 	and.w	r3, r3, #64	; 0x40
 8004754:	2b40      	cmp	r3, #64	; 0x40
 8004756:	d10e      	bne.n	8004776 <HAL_TIM_IRQHandler+0x1dc>
  {
    if (__HAL_TIM_GET_IT_SOURCE(htim, TIM_IT_TRIGGER) != RESET)
 8004758:	687b      	ldr	r3, [r7, #4]
 800475a:	681b      	ldr	r3, [r3, #0]
 800475c:	68db      	ldr	r3, [r3, #12]
 800475e:	f003 0340 	and.w	r3, r3, #64	; 0x40
 8004762:	2b40      	cmp	r3, #64	; 0x40
 8004764:	d107      	bne.n	8004776 <HAL_TIM_IRQHandler+0x1dc>
    {
      __HAL_TIM_CLEAR_IT(htim, TIM_IT_TRIGGER);
 8004766:	687b      	ldr	r3, [r7, #4]
 8004768:	681b      	ldr	r3, [r3, #0]
 800476a:	f06f 0240 	mvn.w	r2, #64	; 0x40
 800476e:	611a      	str	r2, [r3, #16]
#if (USE_HAL_TIM_REGISTER_CALLBACKS == 1)
      htim->TriggerCallback(htim);
#else
      HAL_TIM_TriggerCallback(htim);
 8004770:	6878      	ldr	r0, [r7, #4]
 8004772:	f000 f835 	bl	80047e0 <HAL_TIM_TriggerCallback>
#endif /* USE_HAL_TIM_REGISTER_CALLBACKS */
    }
  }
  /* TIM commutation event */
  if (__HAL_TIM_GET_FLAG(htim, TIM_FLAG_COM) != RESET)
 8004776:	687b      	ldr	r3, [r7, #4]
 8004778:	681b      	ldr	r3, [r3, #0]
 800477a:	691b      	ldr	r3, [r3, #16]
 800477c:	f003 0320 	and.w	r3, r3, #32
 8004780:	2b20      	cmp	r3, #32
 8004782:	d10e      	bne.n	80047a2 <HAL_TIM_IRQHandler+0x208>
  {
    if (__HAL_TIM_GET_IT_SOURCE(htim, TIM_IT_COM) != RESET)
 8004784:	687b      	ldr	r3, [r7, #4]
 8004786:	681b      	ldr	r3, [r3, #0]
 8004788:	68db      	ldr	r3, [r3, #12]
 800478a:	f003 0320 	and.w	r3, r3, #32
 800478e:	2b20      	cmp	r3, #32
 8004790:	d107      	bne.n	80047a2 <HAL_TIM_IRQHandler+0x208>
    {
      __HAL_TIM_CLEAR_IT(htim, TIM_FLAG_COM);
 8004792:	687b      	ldr	r3, [r7, #4]
 8004794:	681b      	ldr	r3, [r3, #0]
 8004796:	f06f 0220 	mvn.w	r2, #32
 800479a:	611a      	str	r2, [r3, #16]
#if (USE_HAL_TIM_REGISTER_CALLBACKS == 1)
      htim->CommutationCallback(htim);
#else
      HAL_TIMEx_CommutCallback(htim);
 800479c:	6878      	ldr	r0, [r7, #4]
 800479e:	f000 f88b 	bl	80048b8 <HAL_TIMEx_CommutCallback>
#endif /* USE_HAL_TIM_REGISTER_CALLBACKS */
    }
  }
}
 80047a2:	bf00      	nop
 80047a4:	3708      	adds	r7, #8
 80047a6:	46bd      	mov	sp, r7
 80047a8:	bd80      	pop	{r7, pc}

080047aa <HAL_TIM_OC_DelayElapsedCallback>:
  * @brief  Output Compare callback in non-blocking mode
  * @param  htim TIM OC handle
  * @retval None
  */
__weak void HAL_TIM_OC_DelayElapsedCallback(TIM_HandleTypeDef *htim)
{
 80047aa:	b480      	push	{r7}
 80047ac:	b083      	sub	sp, #12
 80047ae:	af00      	add	r7, sp, #0
 80047b0:	6078      	str	r0, [r7, #4]
  UNUSED(htim);

  /* NOTE : This function should not be modified, when the callback is needed,
            the HAL_TIM_OC_DelayElapsedCallback could be implemented in the user file
   */
}
 80047b2:	bf00      	nop
 80047b4:	370c      	adds	r7, #12
 80047b6:	46bd      	mov	sp, r7
 80047b8:	bc80      	pop	{r7}
 80047ba:	4770      	bx	lr

080047bc <HAL_TIM_IC_CaptureCallback>:
  * @brief  Input Capture callback in non-blocking mode
  * @param  htim TIM IC handle
  * @retval None
  */
__weak void HAL_TIM_IC_CaptureCallback(TIM_HandleTypeDef *htim)
{
 80047bc:	b480      	push	{r7}
 80047be:	b083      	sub	sp, #12
 80047c0:	af00      	add	r7, sp, #0
 80047c2:	6078      	str	r0, [r7, #4]
  UNUSED(htim);

  /* NOTE : This function should not be modified, when the callback is needed,
            the HAL_TIM_IC_CaptureCallback could be implemented in the user file
   */
}
 80047c4:	bf00      	nop
 80047c6:	370c      	adds	r7, #12
 80047c8:	46bd      	mov	sp, r7
 80047ca:	bc80      	pop	{r7}
 80047cc:	4770      	bx	lr

080047ce <HAL_TIM_PWM_PulseFinishedCallback>:
  * @brief  PWM Pulse finished callback in non-blocking mode
  * @param  htim TIM handle
  * @retval None
  */
__weak void HAL_TIM_PWM_PulseFinishedCallback(TIM_HandleTypeDef *htim)
{
 80047ce:	b480      	push	{r7}
 80047d0:	b083      	sub	sp, #12
 80047d2:	af00      	add	r7, sp, #0
 80047d4:	6078      	str	r0, [r7, #4]
  UNUSED(htim);

  /* NOTE : This function should not be modified, when the callback is needed,
            the HAL_TIM_PWM_PulseFinishedCallback could be implemented in the user file
   */
}
 80047d6:	bf00      	nop
 80047d8:	370c      	adds	r7, #12
 80047da:	46bd      	mov	sp, r7
 80047dc:	bc80      	pop	{r7}
 80047de:	4770      	bx	lr

080047e0 <HAL_TIM_TriggerCallback>:
  * @brief  Hall Trigger detection callback in non-blocking mode
  * @param  htim TIM handle
  * @retval None
  */
__weak void HAL_TIM_TriggerCallback(TIM_HandleTypeDef *htim)
{
 80047e0:	b480      	push	{r7}
 80047e2:	b083      	sub	sp, #12
 80047e4:	af00      	add	r7, sp, #0
 80047e6:	6078      	str	r0, [r7, #4]
  UNUSED(htim);

  /* NOTE : This function should not be modified, when the callback is needed,
            the HAL_TIM_TriggerCallback could be implemented in the user file
   */
}
 80047e8:	bf00      	nop
 80047ea:	370c      	adds	r7, #12
 80047ec:	46bd      	mov	sp, r7
 80047ee:	bc80      	pop	{r7}
 80047f0:	4770      	bx	lr
	...

080047f4 <TIM_Base_SetConfig>:
  * @param  TIMx TIM peripheral
  * @param  Structure TIM Base configuration structure
  * @retval None
  */
void TIM_Base_SetConfig(TIM_TypeDef *TIMx, TIM_Base_InitTypeDef *Structure)
{
 80047f4:	b480      	push	{r7}
 80047f6:	b085      	sub	sp, #20
 80047f8:	af00      	add	r7, sp, #0
 80047fa:	6078      	str	r0, [r7, #4]
 80047fc:	6039      	str	r1, [r7, #0]
  uint32_t tmpcr1;
  tmpcr1 = TIMx->CR1;
 80047fe:	687b      	ldr	r3, [r7, #4]
 8004800:	681b      	ldr	r3, [r3, #0]
 8004802:	60fb      	str	r3, [r7, #12]

  /* Set TIM Time Base Unit parameters ---------------------------------------*/
  if (IS_TIM_COUNTER_MODE_SELECT_INSTANCE(TIMx))
 8004804:	687b      	ldr	r3, [r7, #4]
 8004806:	4a29      	ldr	r2, [pc, #164]	; (80048ac <TIM_Base_SetConfig+0xb8>)
 8004808:	4293      	cmp	r3, r2
 800480a:	d00b      	beq.n	8004824 <TIM_Base_SetConfig+0x30>
 800480c:	687b      	ldr	r3, [r7, #4]
 800480e:	f1b3 4f80 	cmp.w	r3, #1073741824	; 0x40000000
 8004812:	d007      	beq.n	8004824 <TIM_Base_SetConfig+0x30>
 8004814:	687b      	ldr	r3, [r7, #4]
 8004816:	4a26      	ldr	r2, [pc, #152]	; (80048b0 <TIM_Base_SetConfig+0xbc>)
 8004818:	4293      	cmp	r3, r2
 800481a:	d003      	beq.n	8004824 <TIM_Base_SetConfig+0x30>
 800481c:	687b      	ldr	r3, [r7, #4]
 800481e:	4a25      	ldr	r2, [pc, #148]	; (80048b4 <TIM_Base_SetConfig+0xc0>)
 8004820:	4293      	cmp	r3, r2
 8004822:	d108      	bne.n	8004836 <TIM_Base_SetConfig+0x42>
  {
    /* Select the Counter Mode */
    tmpcr1 &= ~(TIM_CR1_DIR | TIM_CR1_CMS);
 8004824:	68fb      	ldr	r3, [r7, #12]
 8004826:	f023 0370 	bic.w	r3, r3, #112	; 0x70
 800482a:	60fb      	str	r3, [r7, #12]
    tmpcr1 |= Structure->CounterMode;
 800482c:	683b      	ldr	r3, [r7, #0]
 800482e:	685b      	ldr	r3, [r3, #4]
 8004830:	68fa      	ldr	r2, [r7, #12]
 8004832:	4313      	orrs	r3, r2
 8004834:	60fb      	str	r3, [r7, #12]
  }

  if (IS_TIM_CLOCK_DIVISION_INSTANCE(TIMx))
 8004836:	687b      	ldr	r3, [r7, #4]
 8004838:	4a1c      	ldr	r2, [pc, #112]	; (80048ac <TIM_Base_SetConfig+0xb8>)
 800483a:	4293      	cmp	r3, r2
 800483c:	d00b      	beq.n	8004856 <TIM_Base_SetConfig+0x62>
 800483e:	687b      	ldr	r3, [r7, #4]
 8004840:	f1b3 4f80 	cmp.w	r3, #1073741824	; 0x40000000
 8004844:	d007      	beq.n	8004856 <TIM_Base_SetConfig+0x62>
 8004846:	687b      	ldr	r3, [r7, #4]
 8004848:	4a19      	ldr	r2, [pc, #100]	; (80048b0 <TIM_Base_SetConfig+0xbc>)
 800484a:	4293      	cmp	r3, r2
 800484c:	d003      	beq.n	8004856 <TIM_Base_SetConfig+0x62>
 800484e:	687b      	ldr	r3, [r7, #4]
 8004850:	4a18      	ldr	r2, [pc, #96]	; (80048b4 <TIM_Base_SetConfig+0xc0>)
 8004852:	4293      	cmp	r3, r2
 8004854:	d108      	bne.n	8004868 <TIM_Base_SetConfig+0x74>
  {
    /* Set the clock division */
    tmpcr1 &= ~TIM_CR1_CKD;
 8004856:	68fb      	ldr	r3, [r7, #12]
 8004858:	f423 7340 	bic.w	r3, r3, #768	; 0x300
 800485c:	60fb      	str	r3, [r7, #12]
    tmpcr1 |= (uint32_t)Structure->ClockDivision;
 800485e:	683b      	ldr	r3, [r7, #0]
 8004860:	68db      	ldr	r3, [r3, #12]
 8004862:	68fa      	ldr	r2, [r7, #12]
 8004864:	4313      	orrs	r3, r2
 8004866:	60fb      	str	r3, [r7, #12]
  }

  /* Set the auto-reload preload */
  MODIFY_REG(tmpcr1, TIM_CR1_ARPE, Structure->AutoReloadPreload);
 8004868:	68fb      	ldr	r3, [r7, #12]
 800486a:	f023 0280 	bic.w	r2, r3, #128	; 0x80
 800486e:	683b      	ldr	r3, [r7, #0]
 8004870:	695b      	ldr	r3, [r3, #20]
 8004872:	4313      	orrs	r3, r2
 8004874:	60fb      	str	r3, [r7, #12]

  TIMx->CR1 = tmpcr1;
 8004876:	687b      	ldr	r3, [r7, #4]
 8004878:	68fa      	ldr	r2, [r7, #12]
 800487a:	601a      	str	r2, [r3, #0]

  /* Set the Autoreload value */
  TIMx->ARR = (uint32_t)Structure->Period ;
 800487c:	683b      	ldr	r3, [r7, #0]
 800487e:	689a      	ldr	r2, [r3, #8]
 8004880:	687b      	ldr	r3, [r7, #4]
 8004882:	62da      	str	r2, [r3, #44]	; 0x2c

  /* Set the Prescaler value */
  TIMx->PSC = Structure->Prescaler;
 8004884:	683b      	ldr	r3, [r7, #0]
 8004886:	681a      	ldr	r2, [r3, #0]
 8004888:	687b      	ldr	r3, [r7, #4]
 800488a:	629a      	str	r2, [r3, #40]	; 0x28

  if (IS_TIM_REPETITION_COUNTER_INSTANCE(TIMx))
 800488c:	687b      	ldr	r3, [r7, #4]
 800488e:	4a07      	ldr	r2, [pc, #28]	; (80048ac <TIM_Base_SetConfig+0xb8>)
 8004890:	4293      	cmp	r3, r2
 8004892:	d103      	bne.n	800489c <TIM_Base_SetConfig+0xa8>
  {
    /* Set the Repetition Counter value */
    TIMx->RCR = Structure->RepetitionCounter;
 8004894:	683b      	ldr	r3, [r7, #0]
 8004896:	691a      	ldr	r2, [r3, #16]
 8004898:	687b      	ldr	r3, [r7, #4]
 800489a:	631a      	str	r2, [r3, #48]	; 0x30
  }

  /* Generate an update event to reload the Prescaler
     and the repetition counter (only for advanced timer) value immediately */
  TIMx->EGR = TIM_EGR_UG;
 800489c:	687b      	ldr	r3, [r7, #4]
 800489e:	2201      	movs	r2, #1
 80048a0:	615a      	str	r2, [r3, #20]
}
 80048a2:	bf00      	nop
 80048a4:	3714      	adds	r7, #20
 80048a6:	46bd      	mov	sp, r7
 80048a8:	bc80      	pop	{r7}
 80048aa:	4770      	bx	lr
 80048ac:	40012c00 	.word	0x40012c00
 80048b0:	40000400 	.word	0x40000400
 80048b4:	40000800 	.word	0x40000800

080048b8 <HAL_TIMEx_CommutCallback>:
  * @brief  Hall commutation changed callback in non-blocking mode
  * @param  htim TIM handle
  * @retval None
  */
__weak void HAL_TIMEx_CommutCallback(TIM_HandleTypeDef *htim)
{
 80048b8:	b480      	push	{r7}
 80048ba:	b083      	sub	sp, #12
 80048bc:	af00      	add	r7, sp, #0
 80048be:	6078      	str	r0, [r7, #4]
  UNUSED(htim);

  /* NOTE : This function should not be modified, when the callback is needed,
            the HAL_TIMEx_CommutCallback could be implemented in the user file
   */
}
 80048c0:	bf00      	nop
 80048c2:	370c      	adds	r7, #12
 80048c4:	46bd      	mov	sp, r7
 80048c6:	bc80      	pop	{r7}
 80048c8:	4770      	bx	lr

080048ca <HAL_TIMEx_BreakCallback>:
  * @brief  Hall Break detection callback in non-blocking mode
  * @param  htim TIM handle
  * @retval None
  */
__weak void HAL_TIMEx_BreakCallback(TIM_HandleTypeDef *htim)
{
 80048ca:	b480      	push	{r7}
 80048cc:	b083      	sub	sp, #12
 80048ce:	af00      	add	r7, sp, #0
 80048d0:	6078      	str	r0, [r7, #4]
  UNUSED(htim);

  /* NOTE : This function should not be modified, when the callback is needed,
            the HAL_TIMEx_BreakCallback could be implemented in the user file
   */
}
 80048d2:	bf00      	nop
 80048d4:	370c      	adds	r7, #12
 80048d6:	46bd      	mov	sp, r7
 80048d8:	bc80      	pop	{r7}
 80048da:	4770      	bx	lr

080048dc <HAL_UART_Init>:
  * @param  huart  Pointer to a UART_HandleTypeDef structure that contains
  *                the configuration information for the specified UART module.
  * @retval HAL status
  */
HAL_StatusTypeDef HAL_UART_Init(UART_HandleTypeDef *huart)
{
 80048dc:	b580      	push	{r7, lr}
 80048de:	b082      	sub	sp, #8
 80048e0:	af00      	add	r7, sp, #0
 80048e2:	6078      	str	r0, [r7, #4]
  /* Check the UART handle allocation */
  if (huart == NULL)
 80048e4:	687b      	ldr	r3, [r7, #4]
 80048e6:	2b00      	cmp	r3, #0
 80048e8:	d101      	bne.n	80048ee <HAL_UART_Init+0x12>
  {
    return HAL_ERROR;
 80048ea:	2301      	movs	r3, #1
 80048ec:	e03f      	b.n	800496e <HAL_UART_Init+0x92>
  assert_param(IS_UART_WORD_LENGTH(huart->Init.WordLength));
#if defined(USART_CR1_OVER8)
  assert_param(IS_UART_OVERSAMPLING(huart->Init.OverSampling));
#endif /* USART_CR1_OVER8 */

  if (huart->gState == HAL_UART_STATE_RESET)
 80048ee:	687b      	ldr	r3, [r7, #4]
 80048f0:	f893 3039 	ldrb.w	r3, [r3, #57]	; 0x39
 80048f4:	b2db      	uxtb	r3, r3
 80048f6:	2b00      	cmp	r3, #0
 80048f8:	d106      	bne.n	8004908 <HAL_UART_Init+0x2c>
  {
    /* Allocate lock resource and initialize it */
    huart->Lock = HAL_UNLOCKED;
 80048fa:	687b      	ldr	r3, [r7, #4]
 80048fc:	2200      	movs	r2, #0
 80048fe:	f883 2038 	strb.w	r2, [r3, #56]	; 0x38

    /* Init the low level hardware */
    huart->MspInitCallback(huart);
#else
    /* Init the low level hardware : GPIO, CLOCK */
    HAL_UART_MspInit(huart);
 8004902:	6878      	ldr	r0, [r7, #4]
 8004904:	f7fc fba6 	bl	8001054 <HAL_UART_MspInit>
#endif /* (USE_HAL_UART_REGISTER_CALLBACKS) */
  }

  huart->gState = HAL_UART_STATE_BUSY;
 8004908:	687b      	ldr	r3, [r7, #4]
 800490a:	2224      	movs	r2, #36	; 0x24
 800490c:	f883 2039 	strb.w	r2, [r3, #57]	; 0x39

  /* Disable the peripheral */
  __HAL_UART_DISABLE(huart);
 8004910:	687b      	ldr	r3, [r7, #4]
 8004912:	681b      	ldr	r3, [r3, #0]
 8004914:	68da      	ldr	r2, [r3, #12]
 8004916:	687b      	ldr	r3, [r7, #4]
 8004918:	681b      	ldr	r3, [r3, #0]
 800491a:	f422 5200 	bic.w	r2, r2, #8192	; 0x2000
 800491e:	60da      	str	r2, [r3, #12]

  /* Set the UART Communication parameters */
  UART_SetConfig(huart);
 8004920:	6878      	ldr	r0, [r7, #4]
 8004922:	f000 fc0f 	bl	8005144 <UART_SetConfig>

  /* In asynchronous mode, the following bits must be kept cleared:
     - LINEN and CLKEN bits in the USART_CR2 register,
     - SCEN, HDSEL and IREN  bits in the USART_CR3 register.*/
  CLEAR_BIT(huart->Instance->CR2, (USART_CR2_LINEN | USART_CR2_CLKEN));
 8004926:	687b      	ldr	r3, [r7, #4]
 8004928:	681b      	ldr	r3, [r3, #0]
 800492a:	691a      	ldr	r2, [r3, #16]
 800492c:	687b      	ldr	r3, [r7, #4]
 800492e:	681b      	ldr	r3, [r3, #0]
 8004930:	f422 4290 	bic.w	r2, r2, #18432	; 0x4800
 8004934:	611a      	str	r2, [r3, #16]
  CLEAR_BIT(huart->Instance->CR3, (USART_CR3_SCEN | USART_CR3_HDSEL | USART_CR3_IREN));
 8004936:	687b      	ldr	r3, [r7, #4]
 8004938:	681b      	ldr	r3, [r3, #0]
 800493a:	695a      	ldr	r2, [r3, #20]
 800493c:	687b      	ldr	r3, [r7, #4]
 800493e:	681b      	ldr	r3, [r3, #0]
 8004940:	f022 022a 	bic.w	r2, r2, #42	; 0x2a
 8004944:	615a      	str	r2, [r3, #20]

  /* Enable the peripheral */
  __HAL_UART_ENABLE(huart);
 8004946:	687b      	ldr	r3, [r7, #4]
 8004948:	681b      	ldr	r3, [r3, #0]
 800494a:	68da      	ldr	r2, [r3, #12]
 800494c:	687b      	ldr	r3, [r7, #4]
 800494e:	681b      	ldr	r3, [r3, #0]
 8004950:	f442 5200 	orr.w	r2, r2, #8192	; 0x2000
 8004954:	60da      	str	r2, [r3, #12]

  /* Initialize the UART state */
  huart->ErrorCode = HAL_UART_ERROR_NONE;
 8004956:	687b      	ldr	r3, [r7, #4]
 8004958:	2200      	movs	r2, #0
 800495a:	63da      	str	r2, [r3, #60]	; 0x3c
  huart->gState = HAL_UART_STATE_READY;
 800495c:	687b      	ldr	r3, [r7, #4]
 800495e:	2220      	movs	r2, #32
 8004960:	f883 2039 	strb.w	r2, [r3, #57]	; 0x39
  huart->RxState = HAL_UART_STATE_READY;
 8004964:	687b      	ldr	r3, [r7, #4]
 8004966:	2220      	movs	r2, #32
 8004968:	f883 203a 	strb.w	r2, [r3, #58]	; 0x3a

  return HAL_OK;
 800496c:	2300      	movs	r3, #0
}
 800496e:	4618      	mov	r0, r3
 8004970:	3708      	adds	r7, #8
 8004972:	46bd      	mov	sp, r7
 8004974:	bd80      	pop	{r7, pc}

08004976 <HAL_UART_Transmit>:
  * @param  Size  Amount of data elements (u8 or u16) to be sent
  * @param  Timeout Timeout duration
  * @retval HAL status
  */
HAL_StatusTypeDef HAL_UART_Transmit(UART_HandleTypeDef *huart, uint8_t *pData, uint16_t Size, uint32_t Timeout)
{
 8004976:	b580      	push	{r7, lr}
 8004978:	b088      	sub	sp, #32
 800497a:	af02      	add	r7, sp, #8
 800497c:	60f8      	str	r0, [r7, #12]
 800497e:	60b9      	str	r1, [r7, #8]
 8004980:	603b      	str	r3, [r7, #0]
 8004982:	4613      	mov	r3, r2
 8004984:	80fb      	strh	r3, [r7, #6]
  uint16_t *tmp;
  uint32_t tickstart = 0U;
 8004986:	2300      	movs	r3, #0
 8004988:	617b      	str	r3, [r7, #20]

  /* Check that a Tx process is not already ongoing */
  if (huart->gState == HAL_UART_STATE_READY)
 800498a:	68fb      	ldr	r3, [r7, #12]
 800498c:	f893 3039 	ldrb.w	r3, [r3, #57]	; 0x39
 8004990:	b2db      	uxtb	r3, r3
 8004992:	2b20      	cmp	r3, #32
 8004994:	f040 8083 	bne.w	8004a9e <HAL_UART_Transmit+0x128>
  {
    if ((pData == NULL) || (Size == 0U))
 8004998:	68bb      	ldr	r3, [r7, #8]
 800499a:	2b00      	cmp	r3, #0
 800499c:	d002      	beq.n	80049a4 <HAL_UART_Transmit+0x2e>
 800499e:	88fb      	ldrh	r3, [r7, #6]
 80049a0:	2b00      	cmp	r3, #0
 80049a2:	d101      	bne.n	80049a8 <HAL_UART_Transmit+0x32>
    {
      return  HAL_ERROR;
 80049a4:	2301      	movs	r3, #1
 80049a6:	e07b      	b.n	8004aa0 <HAL_UART_Transmit+0x12a>
    }

    /* Process Locked */
    __HAL_LOCK(huart);
 80049a8:	68fb      	ldr	r3, [r7, #12]
 80049aa:	f893 3038 	ldrb.w	r3, [r3, #56]	; 0x38
 80049ae:	2b01      	cmp	r3, #1
 80049b0:	d101      	bne.n	80049b6 <HAL_UART_Transmit+0x40>
 80049b2:	2302      	movs	r3, #2
 80049b4:	e074      	b.n	8004aa0 <HAL_UART_Transmit+0x12a>
 80049b6:	68fb      	ldr	r3, [r7, #12]
 80049b8:	2201      	movs	r2, #1
 80049ba:	f883 2038 	strb.w	r2, [r3, #56]	; 0x38

    huart->ErrorCode = HAL_UART_ERROR_NONE;
 80049be:	68fb      	ldr	r3, [r7, #12]
 80049c0:	2200      	movs	r2, #0
 80049c2:	63da      	str	r2, [r3, #60]	; 0x3c
    huart->gState = HAL_UART_STATE_BUSY_TX;
 80049c4:	68fb      	ldr	r3, [r7, #12]
 80049c6:	2221      	movs	r2, #33	; 0x21
 80049c8:	f883 2039 	strb.w	r2, [r3, #57]	; 0x39

    /* Init tickstart for timeout managment */
    tickstart = HAL_GetTick();
 80049cc:	f7fc fd3a 	bl	8001444 <HAL_GetTick>
 80049d0:	6178      	str	r0, [r7, #20]

    huart->TxXferSize = Size;
 80049d2:	68fb      	ldr	r3, [r7, #12]
 80049d4:	88fa      	ldrh	r2, [r7, #6]
 80049d6:	849a      	strh	r2, [r3, #36]	; 0x24
    huart->TxXferCount = Size;
 80049d8:	68fb      	ldr	r3, [r7, #12]
 80049da:	88fa      	ldrh	r2, [r7, #6]
 80049dc:	84da      	strh	r2, [r3, #38]	; 0x26
    while (huart->TxXferCount > 0U)
 80049de:	e042      	b.n	8004a66 <HAL_UART_Transmit+0xf0>
    {
      huart->TxXferCount--;
 80049e0:	68fb      	ldr	r3, [r7, #12]
 80049e2:	8cdb      	ldrh	r3, [r3, #38]	; 0x26
 80049e4:	b29b      	uxth	r3, r3
 80049e6:	3b01      	subs	r3, #1
 80049e8:	b29a      	uxth	r2, r3
 80049ea:	68fb      	ldr	r3, [r7, #12]
 80049ec:	84da      	strh	r2, [r3, #38]	; 0x26
      if (huart->Init.WordLength == UART_WORDLENGTH_9B)
 80049ee:	68fb      	ldr	r3, [r7, #12]
 80049f0:	689b      	ldr	r3, [r3, #8]
 80049f2:	f5b3 5f80 	cmp.w	r3, #4096	; 0x1000
 80049f6:	d122      	bne.n	8004a3e <HAL_UART_Transmit+0xc8>
      {
        if (UART_WaitOnFlagUntilTimeout(huart, UART_FLAG_TXE, RESET, tickstart, Timeout) != HAL_OK)
 80049f8:	683b      	ldr	r3, [r7, #0]
 80049fa:	9300      	str	r3, [sp, #0]
 80049fc:	697b      	ldr	r3, [r7, #20]
 80049fe:	2200      	movs	r2, #0
 8004a00:	2180      	movs	r1, #128	; 0x80
 8004a02:	68f8      	ldr	r0, [r7, #12]
 8004a04:	f000 fa34 	bl	8004e70 <UART_WaitOnFlagUntilTimeout>
 8004a08:	4603      	mov	r3, r0
 8004a0a:	2b00      	cmp	r3, #0
 8004a0c:	d001      	beq.n	8004a12 <HAL_UART_Transmit+0x9c>
        {
          return HAL_TIMEOUT;
 8004a0e:	2303      	movs	r3, #3
 8004a10:	e046      	b.n	8004aa0 <HAL_UART_Transmit+0x12a>
        }
        tmp = (uint16_t *) pData;
 8004a12:	68bb      	ldr	r3, [r7, #8]
 8004a14:	613b      	str	r3, [r7, #16]
        huart->Instance->DR = (*tmp & (uint16_t)0x01FF);
 8004a16:	693b      	ldr	r3, [r7, #16]
 8004a18:	881b      	ldrh	r3, [r3, #0]
 8004a1a:	461a      	mov	r2, r3
 8004a1c:	68fb      	ldr	r3, [r7, #12]
 8004a1e:	681b      	ldr	r3, [r3, #0]
 8004a20:	f3c2 0208 	ubfx	r2, r2, #0, #9
 8004a24:	605a      	str	r2, [r3, #4]
        if (huart->Init.Parity == UART_PARITY_NONE)
 8004a26:	68fb      	ldr	r3, [r7, #12]
 8004a28:	691b      	ldr	r3, [r3, #16]
 8004a2a:	2b00      	cmp	r3, #0
 8004a2c:	d103      	bne.n	8004a36 <HAL_UART_Transmit+0xc0>
        {
          pData += 2U;
 8004a2e:	68bb      	ldr	r3, [r7, #8]
 8004a30:	3302      	adds	r3, #2
 8004a32:	60bb      	str	r3, [r7, #8]
 8004a34:	e017      	b.n	8004a66 <HAL_UART_Transmit+0xf0>
        }
        else
        {
          pData += 1U;
 8004a36:	68bb      	ldr	r3, [r7, #8]
 8004a38:	3301      	adds	r3, #1
 8004a3a:	60bb      	str	r3, [r7, #8]
 8004a3c:	e013      	b.n	8004a66 <HAL_UART_Transmit+0xf0>
        }
      }
      else
      {
        if (UART_WaitOnFlagUntilTimeout(huart, UART_FLAG_TXE, RESET, tickstart, Timeout) != HAL_OK)
 8004a3e:	683b      	ldr	r3, [r7, #0]
 8004a40:	9300      	str	r3, [sp, #0]
 8004a42:	697b      	ldr	r3, [r7, #20]
 8004a44:	2200      	movs	r2, #0
 8004a46:	2180      	movs	r1, #128	; 0x80
 8004a48:	68f8      	ldr	r0, [r7, #12]
 8004a4a:	f000 fa11 	bl	8004e70 <UART_WaitOnFlagUntilTimeout>
 8004a4e:	4603      	mov	r3, r0
 8004a50:	2b00      	cmp	r3, #0
 8004a52:	d001      	beq.n	8004a58 <HAL_UART_Transmit+0xe2>
        {
          return HAL_TIMEOUT;
 8004a54:	2303      	movs	r3, #3
 8004a56:	e023      	b.n	8004aa0 <HAL_UART_Transmit+0x12a>
        }
        huart->Instance->DR = (*pData++ & (uint8_t)0xFF);
 8004a58:	68bb      	ldr	r3, [r7, #8]
 8004a5a:	1c5a      	adds	r2, r3, #1
 8004a5c:	60ba      	str	r2, [r7, #8]
 8004a5e:	781a      	ldrb	r2, [r3, #0]
 8004a60:	68fb      	ldr	r3, [r7, #12]
 8004a62:	681b      	ldr	r3, [r3, #0]
 8004a64:	605a      	str	r2, [r3, #4]
    while (huart->TxXferCount > 0U)
 8004a66:	68fb      	ldr	r3, [r7, #12]
 8004a68:	8cdb      	ldrh	r3, [r3, #38]	; 0x26
 8004a6a:	b29b      	uxth	r3, r3
 8004a6c:	2b00      	cmp	r3, #0
 8004a6e:	d1b7      	bne.n	80049e0 <HAL_UART_Transmit+0x6a>
      }
    }

    if (UART_WaitOnFlagUntilTimeout(huart, UART_FLAG_TC, RESET, tickstart, Timeout) != HAL_OK)
 8004a70:	683b      	ldr	r3, [r7, #0]
 8004a72:	9300      	str	r3, [sp, #0]
 8004a74:	697b      	ldr	r3, [r7, #20]
 8004a76:	2200      	movs	r2, #0
 8004a78:	2140      	movs	r1, #64	; 0x40
 8004a7a:	68f8      	ldr	r0, [r7, #12]
 8004a7c:	f000 f9f8 	bl	8004e70 <UART_WaitOnFlagUntilTimeout>
 8004a80:	4603      	mov	r3, r0
 8004a82:	2b00      	cmp	r3, #0
 8004a84:	d001      	beq.n	8004a8a <HAL_UART_Transmit+0x114>
    {
      return HAL_TIMEOUT;
 8004a86:	2303      	movs	r3, #3
 8004a88:	e00a      	b.n	8004aa0 <HAL_UART_Transmit+0x12a>
    }

    /* At end of Tx process, restore huart->gState to Ready */
    huart->gState = HAL_UART_STATE_READY;
 8004a8a:	68fb      	ldr	r3, [r7, #12]
 8004a8c:	2220      	movs	r2, #32
 8004a8e:	f883 2039 	strb.w	r2, [r3, #57]	; 0x39

    /* Process Unlocked */
    __HAL_UNLOCK(huart);
 8004a92:	68fb      	ldr	r3, [r7, #12]
 8004a94:	2200      	movs	r2, #0
 8004a96:	f883 2038 	strb.w	r2, [r3, #56]	; 0x38

    return HAL_OK;
 8004a9a:	2300      	movs	r3, #0
 8004a9c:	e000      	b.n	8004aa0 <HAL_UART_Transmit+0x12a>
  }
  else
  {
    return HAL_BUSY;
 8004a9e:	2302      	movs	r3, #2
  }
}
 8004aa0:	4618      	mov	r0, r3
 8004aa2:	3718      	adds	r7, #24
 8004aa4:	46bd      	mov	sp, r7
 8004aa6:	bd80      	pop	{r7, pc}

08004aa8 <HAL_UART_Receive_IT>:
  * @param  pData Pointer to data buffer (u8 or u16 data elements).
  * @param  Size  Amount of data elements (u8 or u16) to be received.
  * @retval HAL status
  */
HAL_StatusTypeDef HAL_UART_Receive_IT(UART_HandleTypeDef *huart, uint8_t *pData, uint16_t Size)
{
 8004aa8:	b480      	push	{r7}
 8004aaa:	b085      	sub	sp, #20
 8004aac:	af00      	add	r7, sp, #0
 8004aae:	60f8      	str	r0, [r7, #12]
 8004ab0:	60b9      	str	r1, [r7, #8]
 8004ab2:	4613      	mov	r3, r2
 8004ab4:	80fb      	strh	r3, [r7, #6]
  /* Check that a Rx process is not already ongoing */
  if (huart->RxState == HAL_UART_STATE_READY)
 8004ab6:	68fb      	ldr	r3, [r7, #12]
 8004ab8:	f893 303a 	ldrb.w	r3, [r3, #58]	; 0x3a
 8004abc:	b2db      	uxtb	r3, r3
 8004abe:	2b20      	cmp	r3, #32
 8004ac0:	d140      	bne.n	8004b44 <HAL_UART_Receive_IT+0x9c>
  {
    if ((pData == NULL) || (Size == 0U))
 8004ac2:	68bb      	ldr	r3, [r7, #8]
 8004ac4:	2b00      	cmp	r3, #0
 8004ac6:	d002      	beq.n	8004ace <HAL_UART_Receive_IT+0x26>
 8004ac8:	88fb      	ldrh	r3, [r7, #6]
 8004aca:	2b00      	cmp	r3, #0
 8004acc:	d101      	bne.n	8004ad2 <HAL_UART_Receive_IT+0x2a>
    {
      return HAL_ERROR;
 8004ace:	2301      	movs	r3, #1
 8004ad0:	e039      	b.n	8004b46 <HAL_UART_Receive_IT+0x9e>
    }

    /* Process Locked */
    __HAL_LOCK(huart);
 8004ad2:	68fb      	ldr	r3, [r7, #12]
 8004ad4:	f893 3038 	ldrb.w	r3, [r3, #56]	; 0x38
 8004ad8:	2b01      	cmp	r3, #1
 8004ada:	d101      	bne.n	8004ae0 <HAL_UART_Receive_IT+0x38>
 8004adc:	2302      	movs	r3, #2
 8004ade:	e032      	b.n	8004b46 <HAL_UART_Receive_IT+0x9e>
 8004ae0:	68fb      	ldr	r3, [r7, #12]
 8004ae2:	2201      	movs	r2, #1
 8004ae4:	f883 2038 	strb.w	r2, [r3, #56]	; 0x38

    huart->pRxBuffPtr = pData;
 8004ae8:	68fb      	ldr	r3, [r7, #12]
 8004aea:	68ba      	ldr	r2, [r7, #8]
 8004aec:	629a      	str	r2, [r3, #40]	; 0x28
    huart->RxXferSize = Size;
 8004aee:	68fb      	ldr	r3, [r7, #12]
 8004af0:	88fa      	ldrh	r2, [r7, #6]
 8004af2:	859a      	strh	r2, [r3, #44]	; 0x2c
    huart->RxXferCount = Size;
 8004af4:	68fb      	ldr	r3, [r7, #12]
 8004af6:	88fa      	ldrh	r2, [r7, #6]
 8004af8:	85da      	strh	r2, [r3, #46]	; 0x2e

    huart->ErrorCode = HAL_UART_ERROR_NONE;
 8004afa:	68fb      	ldr	r3, [r7, #12]
 8004afc:	2200      	movs	r2, #0
 8004afe:	63da      	str	r2, [r3, #60]	; 0x3c
    huart->RxState = HAL_UART_STATE_BUSY_RX;
 8004b00:	68fb      	ldr	r3, [r7, #12]
 8004b02:	2222      	movs	r2, #34	; 0x22
 8004b04:	f883 203a 	strb.w	r2, [r3, #58]	; 0x3a

    /* Process Unlocked */
    __HAL_UNLOCK(huart);
 8004b08:	68fb      	ldr	r3, [r7, #12]
 8004b0a:	2200      	movs	r2, #0
 8004b0c:	f883 2038 	strb.w	r2, [r3, #56]	; 0x38

    /* Enable the UART Parity Error Interrupt */
    __HAL_UART_ENABLE_IT(huart, UART_IT_PE);
 8004b10:	68fb      	ldr	r3, [r7, #12]
 8004b12:	681b      	ldr	r3, [r3, #0]
 8004b14:	68da      	ldr	r2, [r3, #12]
 8004b16:	68fb      	ldr	r3, [r7, #12]
 8004b18:	681b      	ldr	r3, [r3, #0]
 8004b1a:	f442 7280 	orr.w	r2, r2, #256	; 0x100
 8004b1e:	60da      	str	r2, [r3, #12]

    /* Enable the UART Error Interrupt: (Frame error, noise error, overrun error) */
    __HAL_UART_ENABLE_IT(huart, UART_IT_ERR);
 8004b20:	68fb      	ldr	r3, [r7, #12]
 8004b22:	681b      	ldr	r3, [r3, #0]
 8004b24:	695a      	ldr	r2, [r3, #20]
 8004b26:	68fb      	ldr	r3, [r7, #12]
 8004b28:	681b      	ldr	r3, [r3, #0]
 8004b2a:	f042 0201 	orr.w	r2, r2, #1
 8004b2e:	615a      	str	r2, [r3, #20]

    /* Enable the UART Data Register not empty Interrupt */
    __HAL_UART_ENABLE_IT(huart, UART_IT_RXNE);
 8004b30:	68fb      	ldr	r3, [r7, #12]
 8004b32:	681b      	ldr	r3, [r3, #0]
 8004b34:	68da      	ldr	r2, [r3, #12]
 8004b36:	68fb      	ldr	r3, [r7, #12]
 8004b38:	681b      	ldr	r3, [r3, #0]
 8004b3a:	f042 0220 	orr.w	r2, r2, #32
 8004b3e:	60da      	str	r2, [r3, #12]

    return HAL_OK;
 8004b40:	2300      	movs	r3, #0
 8004b42:	e000      	b.n	8004b46 <HAL_UART_Receive_IT+0x9e>
  }
  else
  {
    return HAL_BUSY;
 8004b44:	2302      	movs	r3, #2
  }
}
 8004b46:	4618      	mov	r0, r3
 8004b48:	3714      	adds	r7, #20
 8004b4a:	46bd      	mov	sp, r7
 8004b4c:	bc80      	pop	{r7}
 8004b4e:	4770      	bx	lr

08004b50 <HAL_UART_Abort>:
  *           - Set handle State to READY
  * @note   This procedure is executed in blocking mode : when exiting function, Abort is considered as completed.
  * @retval HAL status
*/
HAL_StatusTypeDef HAL_UART_Abort(UART_HandleTypeDef *huart)
{
 8004b50:	b580      	push	{r7, lr}
 8004b52:	b082      	sub	sp, #8
 8004b54:	af00      	add	r7, sp, #0
 8004b56:	6078      	str	r0, [r7, #4]
  /* Disable TXEIE, TCIE, RXNE, PE and ERR (Frame error, noise error, overrun error) interrupts */
  CLEAR_BIT(huart->Instance->CR1, (USART_CR1_RXNEIE | USART_CR1_PEIE | USART_CR1_TXEIE | USART_CR1_TCIE));
 8004b58:	687b      	ldr	r3, [r7, #4]
 8004b5a:	681b      	ldr	r3, [r3, #0]
 8004b5c:	68da      	ldr	r2, [r3, #12]
 8004b5e:	687b      	ldr	r3, [r7, #4]
 8004b60:	681b      	ldr	r3, [r3, #0]
 8004b62:	f422 72f0 	bic.w	r2, r2, #480	; 0x1e0
 8004b66:	60da      	str	r2, [r3, #12]
  CLEAR_BIT(huart->Instance->CR3, USART_CR3_EIE);
 8004b68:	687b      	ldr	r3, [r7, #4]
 8004b6a:	681b      	ldr	r3, [r3, #0]
 8004b6c:	695a      	ldr	r2, [r3, #20]
 8004b6e:	687b      	ldr	r3, [r7, #4]
 8004b70:	681b      	ldr	r3, [r3, #0]
 8004b72:	f022 0201 	bic.w	r2, r2, #1
 8004b76:	615a      	str	r2, [r3, #20]

  /* Disable the UART DMA Tx request if enabled */
  if (HAL_IS_BIT_SET(huart->Instance->CR3, USART_CR3_DMAT))
 8004b78:	687b      	ldr	r3, [r7, #4]
 8004b7a:	681b      	ldr	r3, [r3, #0]
 8004b7c:	695b      	ldr	r3, [r3, #20]
 8004b7e:	f003 0380 	and.w	r3, r3, #128	; 0x80
 8004b82:	2b00      	cmp	r3, #0
 8004b84:	d024      	beq.n	8004bd0 <HAL_UART_Abort+0x80>
  {
    CLEAR_BIT(huart->Instance->CR3, USART_CR3_DMAT);
 8004b86:	687b      	ldr	r3, [r7, #4]
 8004b88:	681b      	ldr	r3, [r3, #0]
 8004b8a:	695a      	ldr	r2, [r3, #20]
 8004b8c:	687b      	ldr	r3, [r7, #4]
 8004b8e:	681b      	ldr	r3, [r3, #0]
 8004b90:	f022 0280 	bic.w	r2, r2, #128	; 0x80
 8004b94:	615a      	str	r2, [r3, #20]

    /* Abort the UART DMA Tx channel: use blocking DMA Abort API (no callback) */
    if (huart->hdmatx != NULL)
 8004b96:	687b      	ldr	r3, [r7, #4]
 8004b98:	6b1b      	ldr	r3, [r3, #48]	; 0x30
 8004b9a:	2b00      	cmp	r3, #0
 8004b9c:	d018      	beq.n	8004bd0 <HAL_UART_Abort+0x80>
    {
      /* Set the UART DMA Abort callback to Null.
         No call back execution at end of DMA abort procedure */
      huart->hdmatx->XferAbortCallback = NULL;
 8004b9e:	687b      	ldr	r3, [r7, #4]
 8004ba0:	6b1b      	ldr	r3, [r3, #48]	; 0x30
 8004ba2:	2200      	movs	r2, #0
 8004ba4:	635a      	str	r2, [r3, #52]	; 0x34

      if (HAL_DMA_Abort(huart->hdmatx) != HAL_OK)
 8004ba6:	687b      	ldr	r3, [r7, #4]
 8004ba8:	6b1b      	ldr	r3, [r3, #48]	; 0x30
 8004baa:	4618      	mov	r0, r3
 8004bac:	f7fe f801 	bl	8002bb2 <HAL_DMA_Abort>
 8004bb0:	4603      	mov	r3, r0
 8004bb2:	2b00      	cmp	r3, #0
 8004bb4:	d00c      	beq.n	8004bd0 <HAL_UART_Abort+0x80>
      {
        if (HAL_DMA_GetError(huart->hdmatx) == HAL_DMA_ERROR_TIMEOUT)
 8004bb6:	687b      	ldr	r3, [r7, #4]
 8004bb8:	6b1b      	ldr	r3, [r3, #48]	; 0x30
 8004bba:	4618      	mov	r0, r3
 8004bbc:	f7fe f9b0 	bl	8002f20 <HAL_DMA_GetError>
 8004bc0:	4603      	mov	r3, r0
 8004bc2:	2b20      	cmp	r3, #32
 8004bc4:	d104      	bne.n	8004bd0 <HAL_UART_Abort+0x80>
        {
          /* Set error code to DMA */
          huart->ErrorCode = HAL_UART_ERROR_DMA;
 8004bc6:	687b      	ldr	r3, [r7, #4]
 8004bc8:	2210      	movs	r2, #16
 8004bca:	63da      	str	r2, [r3, #60]	; 0x3c

          return HAL_TIMEOUT;
 8004bcc:	2303      	movs	r3, #3
 8004bce:	e03d      	b.n	8004c4c <HAL_UART_Abort+0xfc>
      }
    }
  }

  /* Disable the UART DMA Rx request if enabled */
  if (HAL_IS_BIT_SET(huart->Instance->CR3, USART_CR3_DMAR))
 8004bd0:	687b      	ldr	r3, [r7, #4]
 8004bd2:	681b      	ldr	r3, [r3, #0]
 8004bd4:	695b      	ldr	r3, [r3, #20]
 8004bd6:	f003 0340 	and.w	r3, r3, #64	; 0x40
 8004bda:	2b00      	cmp	r3, #0
 8004bdc:	d024      	beq.n	8004c28 <HAL_UART_Abort+0xd8>
  {
    CLEAR_BIT(huart->Instance->CR3, USART_CR3_DMAR);
 8004bde:	687b      	ldr	r3, [r7, #4]
 8004be0:	681b      	ldr	r3, [r3, #0]
 8004be2:	695a      	ldr	r2, [r3, #20]
 8004be4:	687b      	ldr	r3, [r7, #4]
 8004be6:	681b      	ldr	r3, [r3, #0]
 8004be8:	f022 0240 	bic.w	r2, r2, #64	; 0x40
 8004bec:	615a      	str	r2, [r3, #20]

    /* Abort the UART DMA Rx channel: use blocking DMA Abort API (no callback) */
    if (huart->hdmarx != NULL)
 8004bee:	687b      	ldr	r3, [r7, #4]
 8004bf0:	6b5b      	ldr	r3, [r3, #52]	; 0x34
 8004bf2:	2b00      	cmp	r3, #0
 8004bf4:	d018      	beq.n	8004c28 <HAL_UART_Abort+0xd8>
    {
      /* Set the UART DMA Abort callback to Null.
         No call back execution at end of DMA abort procedure */
      huart->hdmarx->XferAbortCallback = NULL;
 8004bf6:	687b      	ldr	r3, [r7, #4]
 8004bf8:	6b5b      	ldr	r3, [r3, #52]	; 0x34
 8004bfa:	2200      	movs	r2, #0
 8004bfc:	635a      	str	r2, [r3, #52]	; 0x34

      if (HAL_DMA_Abort(huart->hdmarx) != HAL_OK)
 8004bfe:	687b      	ldr	r3, [r7, #4]
 8004c00:	6b5b      	ldr	r3, [r3, #52]	; 0x34
 8004c02:	4618      	mov	r0, r3
 8004c04:	f7fd ffd5 	bl	8002bb2 <HAL_DMA_Abort>
 8004c08:	4603      	mov	r3, r0
 8004c0a:	2b00      	cmp	r3, #0
 8004c0c:	d00c      	beq.n	8004c28 <HAL_UART_Abort+0xd8>
      {
        if (HAL_DMA_GetError(huart->hdmarx) == HAL_DMA_ERROR_TIMEOUT)
 8004c0e:	687b      	ldr	r3, [r7, #4]
 8004c10:	6b5b      	ldr	r3, [r3, #52]	; 0x34
 8004c12:	4618      	mov	r0, r3
 8004c14:	f7fe f984 	bl	8002f20 <HAL_DMA_GetError>
 8004c18:	4603      	mov	r3, r0
 8004c1a:	2b20      	cmp	r3, #32
 8004c1c:	d104      	bne.n	8004c28 <HAL_UART_Abort+0xd8>
        {
          /* Set error code to DMA */
          huart->ErrorCode = HAL_UART_ERROR_DMA;
 8004c1e:	687b      	ldr	r3, [r7, #4]
 8004c20:	2210      	movs	r2, #16
 8004c22:	63da      	str	r2, [r3, #60]	; 0x3c

          return HAL_TIMEOUT;
 8004c24:	2303      	movs	r3, #3
 8004c26:	e011      	b.n	8004c4c <HAL_UART_Abort+0xfc>
      }
    }
  }

  /* Reset Tx and Rx transfer counters */
  huart->TxXferCount = 0x00U;
 8004c28:	687b      	ldr	r3, [r7, #4]
 8004c2a:	2200      	movs	r2, #0
 8004c2c:	84da      	strh	r2, [r3, #38]	; 0x26
  huart->RxXferCount = 0x00U;
 8004c2e:	687b      	ldr	r3, [r7, #4]
 8004c30:	2200      	movs	r2, #0
 8004c32:	85da      	strh	r2, [r3, #46]	; 0x2e

  /* Reset ErrorCode */
  huart->ErrorCode = HAL_UART_ERROR_NONE;
 8004c34:	687b      	ldr	r3, [r7, #4]
 8004c36:	2200      	movs	r2, #0
 8004c38:	63da      	str	r2, [r3, #60]	; 0x3c

  /* Restore huart->RxState and huart->gState to Ready */
  huart->RxState = HAL_UART_STATE_READY;
 8004c3a:	687b      	ldr	r3, [r7, #4]
 8004c3c:	2220      	movs	r2, #32
 8004c3e:	f883 203a 	strb.w	r2, [r3, #58]	; 0x3a
  huart->gState = HAL_UART_STATE_READY;
 8004c42:	687b      	ldr	r3, [r7, #4]
 8004c44:	2220      	movs	r2, #32
 8004c46:	f883 2039 	strb.w	r2, [r3, #57]	; 0x39

  return HAL_OK;
 8004c4a:	2300      	movs	r3, #0
}
 8004c4c:	4618      	mov	r0, r3
 8004c4e:	3708      	adds	r7, #8
 8004c50:	46bd      	mov	sp, r7
 8004c52:	bd80      	pop	{r7, pc}

08004c54 <HAL_UART_IRQHandler>:
  * @param  huart  Pointer to a UART_HandleTypeDef structure that contains
  *                the configuration information for the specified UART module.
  * @retval None
  */
void HAL_UART_IRQHandler(UART_HandleTypeDef *huart)
{
 8004c54:	b580      	push	{r7, lr}
 8004c56:	b088      	sub	sp, #32
 8004c58:	af00      	add	r7, sp, #0
 8004c5a:	6078      	str	r0, [r7, #4]
  uint32_t isrflags   = READ_REG(huart->Instance->SR);
 8004c5c:	687b      	ldr	r3, [r7, #4]
 8004c5e:	681b      	ldr	r3, [r3, #0]
 8004c60:	681b      	ldr	r3, [r3, #0]
 8004c62:	61fb      	str	r3, [r7, #28]
  uint32_t cr1its     = READ_REG(huart->Instance->CR1);
 8004c64:	687b      	ldr	r3, [r7, #4]
 8004c66:	681b      	ldr	r3, [r3, #0]
 8004c68:	68db      	ldr	r3, [r3, #12]
 8004c6a:	61bb      	str	r3, [r7, #24]
  uint32_t cr3its     = READ_REG(huart->Instance->CR3);
 8004c6c:	687b      	ldr	r3, [r7, #4]
 8004c6e:	681b      	ldr	r3, [r3, #0]
 8004c70:	695b      	ldr	r3, [r3, #20]
 8004c72:	617b      	str	r3, [r7, #20]
  uint32_t errorflags = 0x00U;
 8004c74:	2300      	movs	r3, #0
 8004c76:	613b      	str	r3, [r7, #16]
  uint32_t dmarequest = 0x00U;
 8004c78:	2300      	movs	r3, #0
 8004c7a:	60fb      	str	r3, [r7, #12]

  /* If no error occurs */
  errorflags = (isrflags & (uint32_t)(USART_SR_PE | USART_SR_FE | USART_SR_ORE | USART_SR_NE));
 8004c7c:	69fb      	ldr	r3, [r7, #28]
 8004c7e:	f003 030f 	and.w	r3, r3, #15
 8004c82:	613b      	str	r3, [r7, #16]
  if (errorflags == RESET)
 8004c84:	693b      	ldr	r3, [r7, #16]
 8004c86:	2b00      	cmp	r3, #0
 8004c88:	d10d      	bne.n	8004ca6 <HAL_UART_IRQHandler+0x52>
  {
    /* UART in mode Receiver -------------------------------------------------*/
    if (((isrflags & USART_SR_RXNE) != RESET) && ((cr1its & USART_CR1_RXNEIE) != RESET))
 8004c8a:	69fb      	ldr	r3, [r7, #28]
 8004c8c:	f003 0320 	and.w	r3, r3, #32
 8004c90:	2b00      	cmp	r3, #0
 8004c92:	d008      	beq.n	8004ca6 <HAL_UART_IRQHandler+0x52>
 8004c94:	69bb      	ldr	r3, [r7, #24]
 8004c96:	f003 0320 	and.w	r3, r3, #32
 8004c9a:	2b00      	cmp	r3, #0
 8004c9c:	d003      	beq.n	8004ca6 <HAL_UART_IRQHandler+0x52>
    {
      UART_Receive_IT(huart);
 8004c9e:	6878      	ldr	r0, [r7, #4]
 8004ca0:	f000 f9ce 	bl	8005040 <UART_Receive_IT>
      return;
 8004ca4:	e0cc      	b.n	8004e40 <HAL_UART_IRQHandler+0x1ec>
    }
  }

  /* If some errors occur */
  if ((errorflags != RESET) && (((cr3its & USART_CR3_EIE) != RESET) || ((cr1its & (USART_CR1_RXNEIE | USART_CR1_PEIE)) != RESET)))
 8004ca6:	693b      	ldr	r3, [r7, #16]
 8004ca8:	2b00      	cmp	r3, #0
 8004caa:	f000 80ab 	beq.w	8004e04 <HAL_UART_IRQHandler+0x1b0>
 8004cae:	697b      	ldr	r3, [r7, #20]
 8004cb0:	f003 0301 	and.w	r3, r3, #1
 8004cb4:	2b00      	cmp	r3, #0
 8004cb6:	d105      	bne.n	8004cc4 <HAL_UART_IRQHandler+0x70>
 8004cb8:	69bb      	ldr	r3, [r7, #24]
 8004cba:	f403 7390 	and.w	r3, r3, #288	; 0x120
 8004cbe:	2b00      	cmp	r3, #0
 8004cc0:	f000 80a0 	beq.w	8004e04 <HAL_UART_IRQHandler+0x1b0>
  {
    /* UART parity error interrupt occurred ----------------------------------*/
    if (((isrflags & USART_SR_PE) != RESET) && ((cr1its & USART_CR1_PEIE) != RESET))
 8004cc4:	69fb      	ldr	r3, [r7, #28]
 8004cc6:	f003 0301 	and.w	r3, r3, #1
 8004cca:	2b00      	cmp	r3, #0
 8004ccc:	d00a      	beq.n	8004ce4 <HAL_UART_IRQHandler+0x90>
 8004cce:	69bb      	ldr	r3, [r7, #24]
 8004cd0:	f403 7380 	and.w	r3, r3, #256	; 0x100
 8004cd4:	2b00      	cmp	r3, #0
 8004cd6:	d005      	beq.n	8004ce4 <HAL_UART_IRQHandler+0x90>
    {
      huart->ErrorCode |= HAL_UART_ERROR_PE;
 8004cd8:	687b      	ldr	r3, [r7, #4]
 8004cda:	6bdb      	ldr	r3, [r3, #60]	; 0x3c
 8004cdc:	f043 0201 	orr.w	r2, r3, #1
 8004ce0:	687b      	ldr	r3, [r7, #4]
 8004ce2:	63da      	str	r2, [r3, #60]	; 0x3c
    }

    /* UART noise error interrupt occurred -----------------------------------*/
    if (((isrflags & USART_SR_NE) != RESET) && ((cr3its & USART_CR3_EIE) != RESET))
 8004ce4:	69fb      	ldr	r3, [r7, #28]
 8004ce6:	f003 0304 	and.w	r3, r3, #4
 8004cea:	2b00      	cmp	r3, #0
 8004cec:	d00a      	beq.n	8004d04 <HAL_UART_IRQHandler+0xb0>
 8004cee:	697b      	ldr	r3, [r7, #20]
 8004cf0:	f003 0301 	and.w	r3, r3, #1
 8004cf4:	2b00      	cmp	r3, #0
 8004cf6:	d005      	beq.n	8004d04 <HAL_UART_IRQHandler+0xb0>
    {
      huart->ErrorCode |= HAL_UART_ERROR_NE;
 8004cf8:	687b      	ldr	r3, [r7, #4]
 8004cfa:	6bdb      	ldr	r3, [r3, #60]	; 0x3c
 8004cfc:	f043 0202 	orr.w	r2, r3, #2
 8004d00:	687b      	ldr	r3, [r7, #4]
 8004d02:	63da      	str	r2, [r3, #60]	; 0x3c
    }

    /* UART frame error interrupt occurred -----------------------------------*/
    if (((isrflags & USART_SR_FE) != RESET) && ((cr3its & USART_CR3_EIE) != RESET))
 8004d04:	69fb      	ldr	r3, [r7, #28]
 8004d06:	f003 0302 	and.w	r3, r3, #2
 8004d0a:	2b00      	cmp	r3, #0
 8004d0c:	d00a      	beq.n	8004d24 <HAL_UART_IRQHandler+0xd0>
 8004d0e:	697b      	ldr	r3, [r7, #20]
 8004d10:	f003 0301 	and.w	r3, r3, #1
 8004d14:	2b00      	cmp	r3, #0
 8004d16:	d005      	beq.n	8004d24 <HAL_UART_IRQHandler+0xd0>
    {
      huart->ErrorCode |= HAL_UART_ERROR_FE;
 8004d18:	687b      	ldr	r3, [r7, #4]
 8004d1a:	6bdb      	ldr	r3, [r3, #60]	; 0x3c
 8004d1c:	f043 0204 	orr.w	r2, r3, #4
 8004d20:	687b      	ldr	r3, [r7, #4]
 8004d22:	63da      	str	r2, [r3, #60]	; 0x3c
    }

    /* UART Over-Run interrupt occurred --------------------------------------*/
    if (((isrflags & USART_SR_ORE) != RESET) && ((cr3its & USART_CR3_EIE) != RESET))
 8004d24:	69fb      	ldr	r3, [r7, #28]
 8004d26:	f003 0308 	and.w	r3, r3, #8
 8004d2a:	2b00      	cmp	r3, #0
 8004d2c:	d00a      	beq.n	8004d44 <HAL_UART_IRQHandler+0xf0>
 8004d2e:	697b      	ldr	r3, [r7, #20]
 8004d30:	f003 0301 	and.w	r3, r3, #1
 8004d34:	2b00      	cmp	r3, #0
 8004d36:	d005      	beq.n	8004d44 <HAL_UART_IRQHandler+0xf0>
    {
      huart->ErrorCode |= HAL_UART_ERROR_ORE;
 8004d38:	687b      	ldr	r3, [r7, #4]
 8004d3a:	6bdb      	ldr	r3, [r3, #60]	; 0x3c
 8004d3c:	f043 0208 	orr.w	r2, r3, #8
 8004d40:	687b      	ldr	r3, [r7, #4]
 8004d42:	63da      	str	r2, [r3, #60]	; 0x3c
    }

    /* Call UART Error Call back function if need be --------------------------*/
    if (huart->ErrorCode != HAL_UART_ERROR_NONE)
 8004d44:	687b      	ldr	r3, [r7, #4]
 8004d46:	6bdb      	ldr	r3, [r3, #60]	; 0x3c
 8004d48:	2b00      	cmp	r3, #0
 8004d4a:	d078      	beq.n	8004e3e <HAL_UART_IRQHandler+0x1ea>
    {
      /* UART in mode Receiver -----------------------------------------------*/
      if (((isrflags & USART_SR_RXNE) != RESET) && ((cr1its & USART_CR1_RXNEIE) != RESET))
 8004d4c:	69fb      	ldr	r3, [r7, #28]
 8004d4e:	f003 0320 	and.w	r3, r3, #32
 8004d52:	2b00      	cmp	r3, #0
 8004d54:	d007      	beq.n	8004d66 <HAL_UART_IRQHandler+0x112>
 8004d56:	69bb      	ldr	r3, [r7, #24]
 8004d58:	f003 0320 	and.w	r3, r3, #32
 8004d5c:	2b00      	cmp	r3, #0
 8004d5e:	d002      	beq.n	8004d66 <HAL_UART_IRQHandler+0x112>
      {
        UART_Receive_IT(huart);
 8004d60:	6878      	ldr	r0, [r7, #4]
 8004d62:	f000 f96d 	bl	8005040 <UART_Receive_IT>
      }

      /* If Overrun error occurs, or if any error occurs in DMA mode reception,
         consider error as blocking */
      dmarequest = HAL_IS_BIT_SET(huart->Instance->CR3, USART_CR3_DMAR);
 8004d66:	687b      	ldr	r3, [r7, #4]
 8004d68:	681b      	ldr	r3, [r3, #0]
 8004d6a:	695b      	ldr	r3, [r3, #20]
 8004d6c:	f003 0340 	and.w	r3, r3, #64	; 0x40
 8004d70:	2b00      	cmp	r3, #0
 8004d72:	bf14      	ite	ne
 8004d74:	2301      	movne	r3, #1
 8004d76:	2300      	moveq	r3, #0
 8004d78:	b2db      	uxtb	r3, r3
 8004d7a:	60fb      	str	r3, [r7, #12]
      if (((huart->ErrorCode & HAL_UART_ERROR_ORE) != RESET) || dmarequest)
 8004d7c:	687b      	ldr	r3, [r7, #4]
 8004d7e:	6bdb      	ldr	r3, [r3, #60]	; 0x3c
 8004d80:	f003 0308 	and.w	r3, r3, #8
 8004d84:	2b00      	cmp	r3, #0
 8004d86:	d102      	bne.n	8004d8e <HAL_UART_IRQHandler+0x13a>
 8004d88:	68fb      	ldr	r3, [r7, #12]
 8004d8a:	2b00      	cmp	r3, #0
 8004d8c:	d031      	beq.n	8004df2 <HAL_UART_IRQHandler+0x19e>
      {
        /* Blocking error : transfer is aborted
           Set the UART state ready to be able to start again the process,
           Disable Rx Interrupts, and disable Rx DMA request, if ongoing */
        UART_EndRxTransfer(huart);
 8004d8e:	6878      	ldr	r0, [r7, #4]
 8004d90:	f000 f8b8 	bl	8004f04 <UART_EndRxTransfer>

        /* Disable the UART DMA Rx request if enabled */
        if (HAL_IS_BIT_SET(huart->Instance->CR3, USART_CR3_DMAR))
 8004d94:	687b      	ldr	r3, [r7, #4]
 8004d96:	681b      	ldr	r3, [r3, #0]
 8004d98:	695b      	ldr	r3, [r3, #20]
 8004d9a:	f003 0340 	and.w	r3, r3, #64	; 0x40
 8004d9e:	2b00      	cmp	r3, #0
 8004da0:	d023      	beq.n	8004dea <HAL_UART_IRQHandler+0x196>
        {
          CLEAR_BIT(huart->Instance->CR3, USART_CR3_DMAR);
 8004da2:	687b      	ldr	r3, [r7, #4]
 8004da4:	681b      	ldr	r3, [r3, #0]
 8004da6:	695a      	ldr	r2, [r3, #20]
 8004da8:	687b      	ldr	r3, [r7, #4]
 8004daa:	681b      	ldr	r3, [r3, #0]
 8004dac:	f022 0240 	bic.w	r2, r2, #64	; 0x40
 8004db0:	615a      	str	r2, [r3, #20]

          /* Abort the UART DMA Rx channel */
          if (huart->hdmarx != NULL)
 8004db2:	687b      	ldr	r3, [r7, #4]
 8004db4:	6b5b      	ldr	r3, [r3, #52]	; 0x34
 8004db6:	2b00      	cmp	r3, #0
 8004db8:	d013      	beq.n	8004de2 <HAL_UART_IRQHandler+0x18e>
          {
            /* Set the UART DMA Abort callback :
               will lead to call HAL_UART_ErrorCallback() at end of DMA abort procedure */
            huart->hdmarx->XferAbortCallback = UART_DMAAbortOnError;
 8004dba:	687b      	ldr	r3, [r7, #4]
 8004dbc:	6b5b      	ldr	r3, [r3, #52]	; 0x34
 8004dbe:	4a22      	ldr	r2, [pc, #136]	; (8004e48 <HAL_UART_IRQHandler+0x1f4>)
 8004dc0:	635a      	str	r2, [r3, #52]	; 0x34
            if (HAL_DMA_Abort_IT(huart->hdmarx) != HAL_OK)
 8004dc2:	687b      	ldr	r3, [r7, #4]
 8004dc4:	6b5b      	ldr	r3, [r3, #52]	; 0x34
 8004dc6:	4618      	mov	r0, r3
 8004dc8:	f7fd ff2e 	bl	8002c28 <HAL_DMA_Abort_IT>
 8004dcc:	4603      	mov	r3, r0
 8004dce:	2b00      	cmp	r3, #0
 8004dd0:	d016      	beq.n	8004e00 <HAL_UART_IRQHandler+0x1ac>
            {
              /* Call Directly XferAbortCallback function in case of error */
              huart->hdmarx->XferAbortCallback(huart->hdmarx);
 8004dd2:	687b      	ldr	r3, [r7, #4]
 8004dd4:	6b5b      	ldr	r3, [r3, #52]	; 0x34
 8004dd6:	6b5b      	ldr	r3, [r3, #52]	; 0x34
 8004dd8:	687a      	ldr	r2, [r7, #4]
 8004dda:	6b52      	ldr	r2, [r2, #52]	; 0x34
 8004ddc:	4610      	mov	r0, r2
 8004dde:	4798      	blx	r3
        if (HAL_IS_BIT_SET(huart->Instance->CR3, USART_CR3_DMAR))
 8004de0:	e00e      	b.n	8004e00 <HAL_UART_IRQHandler+0x1ac>
#if (USE_HAL_UART_REGISTER_CALLBACKS == 1)
            /*Call registered error callback*/
            huart->ErrorCallback(huart);
#else
            /*Call legacy weak error callback*/
            HAL_UART_ErrorCallback(huart);
 8004de2:	6878      	ldr	r0, [r7, #4]
 8004de4:	f000 f83b 	bl	8004e5e <HAL_UART_ErrorCallback>
        if (HAL_IS_BIT_SET(huart->Instance->CR3, USART_CR3_DMAR))
 8004de8:	e00a      	b.n	8004e00 <HAL_UART_IRQHandler+0x1ac>
#if (USE_HAL_UART_REGISTER_CALLBACKS == 1)
          /*Call registered error callback*/
          huart->ErrorCallback(huart);
#else
          /*Call legacy weak error callback*/
          HAL_UART_ErrorCallback(huart);
 8004dea:	6878      	ldr	r0, [r7, #4]
 8004dec:	f000 f837 	bl	8004e5e <HAL_UART_ErrorCallback>
        if (HAL_IS_BIT_SET(huart->Instance->CR3, USART_CR3_DMAR))
 8004df0:	e006      	b.n	8004e00 <HAL_UART_IRQHandler+0x1ac>
#if (USE_HAL_UART_REGISTER_CALLBACKS == 1)
        /*Call registered error callback*/
        huart->ErrorCallback(huart);
#else
        /*Call legacy weak error callback*/
        HAL_UART_ErrorCallback(huart);
 8004df2:	6878      	ldr	r0, [r7, #4]
 8004df4:	f000 f833 	bl	8004e5e <HAL_UART_ErrorCallback>
#endif /* USE_HAL_UART_REGISTER_CALLBACKS */

        huart->ErrorCode = HAL_UART_ERROR_NONE;
 8004df8:	687b      	ldr	r3, [r7, #4]
 8004dfa:	2200      	movs	r2, #0
 8004dfc:	63da      	str	r2, [r3, #60]	; 0x3c
      }
    }
    return;
 8004dfe:	e01e      	b.n	8004e3e <HAL_UART_IRQHandler+0x1ea>
        if (HAL_IS_BIT_SET(huart->Instance->CR3, USART_CR3_DMAR))
 8004e00:	bf00      	nop
    return;
 8004e02:	e01c      	b.n	8004e3e <HAL_UART_IRQHandler+0x1ea>
  } /* End if some error occurs */

  /* UART in mode Transmitter ------------------------------------------------*/
  if (((isrflags & USART_SR_TXE) != RESET) && ((cr1its & USART_CR1_TXEIE) != RESET))
 8004e04:	69fb      	ldr	r3, [r7, #28]
 8004e06:	f003 0380 	and.w	r3, r3, #128	; 0x80
 8004e0a:	2b00      	cmp	r3, #0
 8004e0c:	d008      	beq.n	8004e20 <HAL_UART_IRQHandler+0x1cc>
 8004e0e:	69bb      	ldr	r3, [r7, #24]
 8004e10:	f003 0380 	and.w	r3, r3, #128	; 0x80
 8004e14:	2b00      	cmp	r3, #0
 8004e16:	d003      	beq.n	8004e20 <HAL_UART_IRQHandler+0x1cc>
  {
    UART_Transmit_IT(huart);
 8004e18:	6878      	ldr	r0, [r7, #4]
 8004e1a:	f000 f8a4 	bl	8004f66 <UART_Transmit_IT>
    return;
 8004e1e:	e00f      	b.n	8004e40 <HAL_UART_IRQHandler+0x1ec>
  }

  /* UART in mode Transmitter end --------------------------------------------*/
  if (((isrflags & USART_SR_TC) != RESET) && ((cr1its & USART_CR1_TCIE) != RESET))
 8004e20:	69fb      	ldr	r3, [r7, #28]
 8004e22:	f003 0340 	and.w	r3, r3, #64	; 0x40
 8004e26:	2b00      	cmp	r3, #0
 8004e28:	d00a      	beq.n	8004e40 <HAL_UART_IRQHandler+0x1ec>
 8004e2a:	69bb      	ldr	r3, [r7, #24]
 8004e2c:	f003 0340 	and.w	r3, r3, #64	; 0x40
 8004e30:	2b00      	cmp	r3, #0
 8004e32:	d005      	beq.n	8004e40 <HAL_UART_IRQHandler+0x1ec>
  {
    UART_EndTransmit_IT(huart);
 8004e34:	6878      	ldr	r0, [r7, #4]
 8004e36:	f000 f8eb 	bl	8005010 <UART_EndTransmit_IT>
    return;
 8004e3a:	bf00      	nop
 8004e3c:	e000      	b.n	8004e40 <HAL_UART_IRQHandler+0x1ec>
    return;
 8004e3e:	bf00      	nop
  }
}
 8004e40:	3720      	adds	r7, #32
 8004e42:	46bd      	mov	sp, r7
 8004e44:	bd80      	pop	{r7, pc}
 8004e46:	bf00      	nop
 8004e48:	08004f3f 	.word	0x08004f3f

08004e4c <HAL_UART_TxCpltCallback>:
  * @param  huart  Pointer to a UART_HandleTypeDef structure that contains
  *                the configuration information for the specified UART module.
  * @retval None
  */
__weak void HAL_UART_TxCpltCallback(UART_HandleTypeDef *huart)
{
 8004e4c:	b480      	push	{r7}
 8004e4e:	b083      	sub	sp, #12
 8004e50:	af00      	add	r7, sp, #0
 8004e52:	6078      	str	r0, [r7, #4]
  /* Prevent unused argument(s) compilation warning */
  UNUSED(huart);
  /* NOTE: This function should not be modified, when the callback is needed,
           the HAL_UART_TxCpltCallback could be implemented in the user file
   */
}
 8004e54:	bf00      	nop
 8004e56:	370c      	adds	r7, #12
 8004e58:	46bd      	mov	sp, r7
 8004e5a:	bc80      	pop	{r7}
 8004e5c:	4770      	bx	lr

08004e5e <HAL_UART_ErrorCallback>:
  * @param  huart  Pointer to a UART_HandleTypeDef structure that contains
  *                the configuration information for the specified UART module.
  * @retval None
  */
__weak void HAL_UART_ErrorCallback(UART_HandleTypeDef *huart)
{
 8004e5e:	b480      	push	{r7}
 8004e60:	b083      	sub	sp, #12
 8004e62:	af00      	add	r7, sp, #0
 8004e64:	6078      	str	r0, [r7, #4]
  /* Prevent unused argument(s) compilation warning */
  UNUSED(huart);
  /* NOTE: This function should not be modified, when the callback is needed,
           the HAL_UART_ErrorCallback could be implemented in the user file
   */
}
 8004e66:	bf00      	nop
 8004e68:	370c      	adds	r7, #12
 8004e6a:	46bd      	mov	sp, r7
 8004e6c:	bc80      	pop	{r7}
 8004e6e:	4770      	bx	lr

08004e70 <UART_WaitOnFlagUntilTimeout>:
  * @param  Tickstart Tick start value
  * @param  Timeout Timeout duration
  * @retval HAL status
  */
static HAL_StatusTypeDef UART_WaitOnFlagUntilTimeout(UART_HandleTypeDef *huart, uint32_t Flag, FlagStatus Status, uint32_t Tickstart, uint32_t Timeout)
{
 8004e70:	b580      	push	{r7, lr}
 8004e72:	b084      	sub	sp, #16
 8004e74:	af00      	add	r7, sp, #0
 8004e76:	60f8      	str	r0, [r7, #12]
 8004e78:	60b9      	str	r1, [r7, #8]
 8004e7a:	603b      	str	r3, [r7, #0]
 8004e7c:	4613      	mov	r3, r2
 8004e7e:	71fb      	strb	r3, [r7, #7]
  /* Wait until flag is set */
  while ((__HAL_UART_GET_FLAG(huart, Flag) ? SET : RESET) == Status)
 8004e80:	e02c      	b.n	8004edc <UART_WaitOnFlagUntilTimeout+0x6c>
  {
    /* Check for the Timeout */
    if (Timeout != HAL_MAX_DELAY)
 8004e82:	69bb      	ldr	r3, [r7, #24]
 8004e84:	f1b3 3fff 	cmp.w	r3, #4294967295
 8004e88:	d028      	beq.n	8004edc <UART_WaitOnFlagUntilTimeout+0x6c>
    {
      if ((Timeout == 0U) || ((HAL_GetTick() - Tickstart) > Timeout))
 8004e8a:	69bb      	ldr	r3, [r7, #24]
 8004e8c:	2b00      	cmp	r3, #0
 8004e8e:	d007      	beq.n	8004ea0 <UART_WaitOnFlagUntilTimeout+0x30>
 8004e90:	f7fc fad8 	bl	8001444 <HAL_GetTick>
 8004e94:	4602      	mov	r2, r0
 8004e96:	683b      	ldr	r3, [r7, #0]
 8004e98:	1ad3      	subs	r3, r2, r3
 8004e9a:	69ba      	ldr	r2, [r7, #24]
 8004e9c:	429a      	cmp	r2, r3
 8004e9e:	d21d      	bcs.n	8004edc <UART_WaitOnFlagUntilTimeout+0x6c>
      {
        /* Disable TXE, RXNE, PE and ERR (Frame error, noise error, overrun error) interrupts for the interrupt process */
        CLEAR_BIT(huart->Instance->CR1, (USART_CR1_RXNEIE | USART_CR1_PEIE | USART_CR1_TXEIE));
 8004ea0:	68fb      	ldr	r3, [r7, #12]
 8004ea2:	681b      	ldr	r3, [r3, #0]
 8004ea4:	68da      	ldr	r2, [r3, #12]
 8004ea6:	68fb      	ldr	r3, [r7, #12]
 8004ea8:	681b      	ldr	r3, [r3, #0]
 8004eaa:	f422 72d0 	bic.w	r2, r2, #416	; 0x1a0
 8004eae:	60da      	str	r2, [r3, #12]
        CLEAR_BIT(huart->Instance->CR3, USART_CR3_EIE);
 8004eb0:	68fb      	ldr	r3, [r7, #12]
 8004eb2:	681b      	ldr	r3, [r3, #0]
 8004eb4:	695a      	ldr	r2, [r3, #20]
 8004eb6:	68fb      	ldr	r3, [r7, #12]
 8004eb8:	681b      	ldr	r3, [r3, #0]
 8004eba:	f022 0201 	bic.w	r2, r2, #1
 8004ebe:	615a      	str	r2, [r3, #20]

        huart->gState  = HAL_UART_STATE_READY;
 8004ec0:	68fb      	ldr	r3, [r7, #12]
 8004ec2:	2220      	movs	r2, #32
 8004ec4:	f883 2039 	strb.w	r2, [r3, #57]	; 0x39
        huart->RxState = HAL_UART_STATE_READY;
 8004ec8:	68fb      	ldr	r3, [r7, #12]
 8004eca:	2220      	movs	r2, #32
 8004ecc:	f883 203a 	strb.w	r2, [r3, #58]	; 0x3a

        /* Process Unlocked */
        __HAL_UNLOCK(huart);
 8004ed0:	68fb      	ldr	r3, [r7, #12]
 8004ed2:	2200      	movs	r2, #0
 8004ed4:	f883 2038 	strb.w	r2, [r3, #56]	; 0x38

        return HAL_TIMEOUT;
 8004ed8:	2303      	movs	r3, #3
 8004eda:	e00f      	b.n	8004efc <UART_WaitOnFlagUntilTimeout+0x8c>
  while ((__HAL_UART_GET_FLAG(huart, Flag) ? SET : RESET) == Status)
 8004edc:	68fb      	ldr	r3, [r7, #12]
 8004ede:	681b      	ldr	r3, [r3, #0]
 8004ee0:	681a      	ldr	r2, [r3, #0]
 8004ee2:	68bb      	ldr	r3, [r7, #8]
 8004ee4:	4013      	ands	r3, r2
 8004ee6:	68ba      	ldr	r2, [r7, #8]
 8004ee8:	429a      	cmp	r2, r3
 8004eea:	bf0c      	ite	eq
 8004eec:	2301      	moveq	r3, #1
 8004eee:	2300      	movne	r3, #0
 8004ef0:	b2db      	uxtb	r3, r3
 8004ef2:	461a      	mov	r2, r3
 8004ef4:	79fb      	ldrb	r3, [r7, #7]
 8004ef6:	429a      	cmp	r2, r3
 8004ef8:	d0c3      	beq.n	8004e82 <UART_WaitOnFlagUntilTimeout+0x12>
      }
    }
  }
  return HAL_OK;
 8004efa:	2300      	movs	r3, #0
}
 8004efc:	4618      	mov	r0, r3
 8004efe:	3710      	adds	r7, #16
 8004f00:	46bd      	mov	sp, r7
 8004f02:	bd80      	pop	{r7, pc}

08004f04 <UART_EndRxTransfer>:
  * @brief  End ongoing Rx transfer on UART peripheral (following error detection or Reception completion).
  * @param  huart UART handle.
  * @retval None
  */
static void UART_EndRxTransfer(UART_HandleTypeDef *huart)
{
 8004f04:	b480      	push	{r7}
 8004f06:	b083      	sub	sp, #12
 8004f08:	af00      	add	r7, sp, #0
 8004f0a:	6078      	str	r0, [r7, #4]
  /* Disable RXNE, PE and ERR (Frame error, noise error, overrun error) interrupts */
  CLEAR_BIT(huart->Instance->CR1, (USART_CR1_RXNEIE | USART_CR1_PEIE));
 8004f0c:	687b      	ldr	r3, [r7, #4]
 8004f0e:	681b      	ldr	r3, [r3, #0]
 8004f10:	68da      	ldr	r2, [r3, #12]
 8004f12:	687b      	ldr	r3, [r7, #4]
 8004f14:	681b      	ldr	r3, [r3, #0]
 8004f16:	f422 7290 	bic.w	r2, r2, #288	; 0x120
 8004f1a:	60da      	str	r2, [r3, #12]
  CLEAR_BIT(huart->Instance->CR3, USART_CR3_EIE);
 8004f1c:	687b      	ldr	r3, [r7, #4]
 8004f1e:	681b      	ldr	r3, [r3, #0]
 8004f20:	695a      	ldr	r2, [r3, #20]
 8004f22:	687b      	ldr	r3, [r7, #4]
 8004f24:	681b      	ldr	r3, [r3, #0]
 8004f26:	f022 0201 	bic.w	r2, r2, #1
 8004f2a:	615a      	str	r2, [r3, #20]

  /* At end of Rx process, restore huart->RxState to Ready */
  huart->RxState = HAL_UART_STATE_READY;
 8004f2c:	687b      	ldr	r3, [r7, #4]
 8004f2e:	2220      	movs	r2, #32
 8004f30:	f883 203a 	strb.w	r2, [r3, #58]	; 0x3a
}
 8004f34:	bf00      	nop
 8004f36:	370c      	adds	r7, #12
 8004f38:	46bd      	mov	sp, r7
 8004f3a:	bc80      	pop	{r7}
 8004f3c:	4770      	bx	lr

08004f3e <UART_DMAAbortOnError>:
  * @param  hdma  Pointer to a DMA_HandleTypeDef structure that contains
  *               the configuration information for the specified DMA module.
  * @retval None
  */
static void UART_DMAAbortOnError(DMA_HandleTypeDef *hdma)
{
 8004f3e:	b580      	push	{r7, lr}
 8004f40:	b084      	sub	sp, #16
 8004f42:	af00      	add	r7, sp, #0
 8004f44:	6078      	str	r0, [r7, #4]
  UART_HandleTypeDef *huart = (UART_HandleTypeDef *)((DMA_HandleTypeDef *)hdma)->Parent;
 8004f46:	687b      	ldr	r3, [r7, #4]
 8004f48:	6a5b      	ldr	r3, [r3, #36]	; 0x24
 8004f4a:	60fb      	str	r3, [r7, #12]
  huart->RxXferCount = 0x00U;
 8004f4c:	68fb      	ldr	r3, [r7, #12]
 8004f4e:	2200      	movs	r2, #0
 8004f50:	85da      	strh	r2, [r3, #46]	; 0x2e
  huart->TxXferCount = 0x00U;
 8004f52:	68fb      	ldr	r3, [r7, #12]
 8004f54:	2200      	movs	r2, #0
 8004f56:	84da      	strh	r2, [r3, #38]	; 0x26
#if (USE_HAL_UART_REGISTER_CALLBACKS == 1)
  /*Call registered error callback*/
  huart->ErrorCallback(huart);
#else
  /*Call legacy weak error callback*/
  HAL_UART_ErrorCallback(huart);
 8004f58:	68f8      	ldr	r0, [r7, #12]
 8004f5a:	f7ff ff80 	bl	8004e5e <HAL_UART_ErrorCallback>
#endif /* USE_HAL_UART_REGISTER_CALLBACKS */
}
 8004f5e:	bf00      	nop
 8004f60:	3710      	adds	r7, #16
 8004f62:	46bd      	mov	sp, r7
 8004f64:	bd80      	pop	{r7, pc}

08004f66 <UART_Transmit_IT>:
  * @param  huart  Pointer to a UART_HandleTypeDef structure that contains
  *                the configuration information for the specified UART module.
  * @retval HAL status
  */
static HAL_StatusTypeDef UART_Transmit_IT(UART_HandleTypeDef *huart)
{
 8004f66:	b480      	push	{r7}
 8004f68:	b085      	sub	sp, #20
 8004f6a:	af00      	add	r7, sp, #0
 8004f6c:	6078      	str	r0, [r7, #4]
  uint16_t *tmp;

  /* Check that a Tx process is ongoing */
  if (huart->gState == HAL_UART_STATE_BUSY_TX)
 8004f6e:	687b      	ldr	r3, [r7, #4]
 8004f70:	f893 3039 	ldrb.w	r3, [r3, #57]	; 0x39
 8004f74:	b2db      	uxtb	r3, r3
 8004f76:	2b21      	cmp	r3, #33	; 0x21
 8004f78:	d144      	bne.n	8005004 <UART_Transmit_IT+0x9e>
  {
    if (huart->Init.WordLength == UART_WORDLENGTH_9B)
 8004f7a:	687b      	ldr	r3, [r7, #4]
 8004f7c:	689b      	ldr	r3, [r3, #8]
 8004f7e:	f5b3 5f80 	cmp.w	r3, #4096	; 0x1000
 8004f82:	d11a      	bne.n	8004fba <UART_Transmit_IT+0x54>
    {
      tmp = (uint16_t *) huart->pTxBuffPtr;
 8004f84:	687b      	ldr	r3, [r7, #4]
 8004f86:	6a1b      	ldr	r3, [r3, #32]
 8004f88:	60fb      	str	r3, [r7, #12]
      huart->Instance->DR = (uint16_t)(*tmp & (uint16_t)0x01FF);
 8004f8a:	68fb      	ldr	r3, [r7, #12]
 8004f8c:	881b      	ldrh	r3, [r3, #0]
 8004f8e:	461a      	mov	r2, r3
 8004f90:	687b      	ldr	r3, [r7, #4]
 8004f92:	681b      	ldr	r3, [r3, #0]
 8004f94:	f3c2 0208 	ubfx	r2, r2, #0, #9
 8004f98:	605a      	str	r2, [r3, #4]
      if (huart->Init.Parity == UART_PARITY_NONE)
 8004f9a:	687b      	ldr	r3, [r7, #4]
 8004f9c:	691b      	ldr	r3, [r3, #16]
 8004f9e:	2b00      	cmp	r3, #0
 8004fa0:	d105      	bne.n	8004fae <UART_Transmit_IT+0x48>
      {
        huart->pTxBuffPtr += 2U;
 8004fa2:	687b      	ldr	r3, [r7, #4]
 8004fa4:	6a1b      	ldr	r3, [r3, #32]
 8004fa6:	1c9a      	adds	r2, r3, #2
 8004fa8:	687b      	ldr	r3, [r7, #4]
 8004faa:	621a      	str	r2, [r3, #32]
 8004fac:	e00e      	b.n	8004fcc <UART_Transmit_IT+0x66>
      }
      else
      {
        huart->pTxBuffPtr += 1U;
 8004fae:	687b      	ldr	r3, [r7, #4]
 8004fb0:	6a1b      	ldr	r3, [r3, #32]
 8004fb2:	1c5a      	adds	r2, r3, #1
 8004fb4:	687b      	ldr	r3, [r7, #4]
 8004fb6:	621a      	str	r2, [r3, #32]
 8004fb8:	e008      	b.n	8004fcc <UART_Transmit_IT+0x66>
      }
    }
    else
    {
      huart->Instance->DR = (uint8_t)(*huart->pTxBuffPtr++ & (uint8_t)0x00FF);
 8004fba:	687b      	ldr	r3, [r7, #4]
 8004fbc:	6a1b      	ldr	r3, [r3, #32]
 8004fbe:	1c59      	adds	r1, r3, #1
 8004fc0:	687a      	ldr	r2, [r7, #4]
 8004fc2:	6211      	str	r1, [r2, #32]
 8004fc4:	781a      	ldrb	r2, [r3, #0]
 8004fc6:	687b      	ldr	r3, [r7, #4]
 8004fc8:	681b      	ldr	r3, [r3, #0]
 8004fca:	605a      	str	r2, [r3, #4]
    }

    if (--huart->TxXferCount == 0U)
 8004fcc:	687b      	ldr	r3, [r7, #4]
 8004fce:	8cdb      	ldrh	r3, [r3, #38]	; 0x26
 8004fd0:	b29b      	uxth	r3, r3
 8004fd2:	3b01      	subs	r3, #1
 8004fd4:	b29b      	uxth	r3, r3
 8004fd6:	687a      	ldr	r2, [r7, #4]
 8004fd8:	4619      	mov	r1, r3
 8004fda:	84d1      	strh	r1, [r2, #38]	; 0x26
 8004fdc:	2b00      	cmp	r3, #0
 8004fde:	d10f      	bne.n	8005000 <UART_Transmit_IT+0x9a>
    {
      /* Disable the UART Transmit Complete Interrupt */
      __HAL_UART_DISABLE_IT(huart, UART_IT_TXE);
 8004fe0:	687b      	ldr	r3, [r7, #4]
 8004fe2:	681b      	ldr	r3, [r3, #0]
 8004fe4:	68da      	ldr	r2, [r3, #12]
 8004fe6:	687b      	ldr	r3, [r7, #4]
 8004fe8:	681b      	ldr	r3, [r3, #0]
 8004fea:	f022 0280 	bic.w	r2, r2, #128	; 0x80
 8004fee:	60da      	str	r2, [r3, #12]

      /* Enable the UART Transmit Complete Interrupt */
      __HAL_UART_ENABLE_IT(huart, UART_IT_TC);
 8004ff0:	687b      	ldr	r3, [r7, #4]
 8004ff2:	681b      	ldr	r3, [r3, #0]
 8004ff4:	68da      	ldr	r2, [r3, #12]
 8004ff6:	687b      	ldr	r3, [r7, #4]
 8004ff8:	681b      	ldr	r3, [r3, #0]
 8004ffa:	f042 0240 	orr.w	r2, r2, #64	; 0x40
 8004ffe:	60da      	str	r2, [r3, #12]
    }
    return HAL_OK;
 8005000:	2300      	movs	r3, #0
 8005002:	e000      	b.n	8005006 <UART_Transmit_IT+0xa0>
  }
  else
  {
    return HAL_BUSY;
 8005004:	2302      	movs	r3, #2
  }
}
 8005006:	4618      	mov	r0, r3
 8005008:	3714      	adds	r7, #20
 800500a:	46bd      	mov	sp, r7
 800500c:	bc80      	pop	{r7}
 800500e:	4770      	bx	lr

08005010 <UART_EndTransmit_IT>:
  * @param  huart  Pointer to a UART_HandleTypeDef structure that contains
  *                the configuration information for the specified UART module.
  * @retval HAL status
  */
static HAL_StatusTypeDef UART_EndTransmit_IT(UART_HandleTypeDef *huart)
{
 8005010:	b580      	push	{r7, lr}
 8005012:	b082      	sub	sp, #8
 8005014:	af00      	add	r7, sp, #0
 8005016:	6078      	str	r0, [r7, #4]
  /* Disable the UART Transmit Complete Interrupt */
  __HAL_UART_DISABLE_IT(huart, UART_IT_TC);
 8005018:	687b      	ldr	r3, [r7, #4]
 800501a:	681b      	ldr	r3, [r3, #0]
 800501c:	68da      	ldr	r2, [r3, #12]
 800501e:	687b      	ldr	r3, [r7, #4]
 8005020:	681b      	ldr	r3, [r3, #0]
 8005022:	f022 0240 	bic.w	r2, r2, #64	; 0x40
 8005026:	60da      	str	r2, [r3, #12]

  /* Tx process is ended, restore huart->gState to Ready */
  huart->gState = HAL_UART_STATE_READY;
 8005028:	687b      	ldr	r3, [r7, #4]
 800502a:	2220      	movs	r2, #32
 800502c:	f883 2039 	strb.w	r2, [r3, #57]	; 0x39
#if (USE_HAL_UART_REGISTER_CALLBACKS == 1)
  /*Call registered Tx complete callback*/
  huart->TxCpltCallback(huart);
#else
  /*Call legacy weak Tx complete callback*/
  HAL_UART_TxCpltCallback(huart);
 8005030:	6878      	ldr	r0, [r7, #4]
 8005032:	f7ff ff0b 	bl	8004e4c <HAL_UART_TxCpltCallback>
#endif /* USE_HAL_UART_REGISTER_CALLBACKS */

  return HAL_OK;
 8005036:	2300      	movs	r3, #0
}
 8005038:	4618      	mov	r0, r3
 800503a:	3708      	adds	r7, #8
 800503c:	46bd      	mov	sp, r7
 800503e:	bd80      	pop	{r7, pc}

08005040 <UART_Receive_IT>:
  * @param  huart  Pointer to a UART_HandleTypeDef structure that contains
  *                the configuration information for the specified UART module.
  * @retval HAL status
  */
static HAL_StatusTypeDef UART_Receive_IT(UART_HandleTypeDef *huart)
{
 8005040:	b580      	push	{r7, lr}
 8005042:	b084      	sub	sp, #16
 8005044:	af00      	add	r7, sp, #0
 8005046:	6078      	str	r0, [r7, #4]
  uint16_t *tmp;

  /* Check that a Rx process is ongoing */
  if (huart->RxState == HAL_UART_STATE_BUSY_RX)
 8005048:	687b      	ldr	r3, [r7, #4]
 800504a:	f893 303a 	ldrb.w	r3, [r3, #58]	; 0x3a
 800504e:	b2db      	uxtb	r3, r3
 8005050:	2b22      	cmp	r3, #34	; 0x22
 8005052:	d171      	bne.n	8005138 <UART_Receive_IT+0xf8>
  {
    if (huart->Init.WordLength == UART_WORDLENGTH_9B)
 8005054:	687b      	ldr	r3, [r7, #4]
 8005056:	689b      	ldr	r3, [r3, #8]
 8005058:	f5b3 5f80 	cmp.w	r3, #4096	; 0x1000
 800505c:	d123      	bne.n	80050a6 <UART_Receive_IT+0x66>
    {
      tmp = (uint16_t *) huart->pRxBuffPtr;
 800505e:	687b      	ldr	r3, [r7, #4]
 8005060:	6a9b      	ldr	r3, [r3, #40]	; 0x28
 8005062:	60fb      	str	r3, [r7, #12]
      if (huart->Init.Parity == UART_PARITY_NONE)
 8005064:	687b      	ldr	r3, [r7, #4]
 8005066:	691b      	ldr	r3, [r3, #16]
 8005068:	2b00      	cmp	r3, #0
 800506a:	d10e      	bne.n	800508a <UART_Receive_IT+0x4a>
      {
        *tmp = (uint16_t)(huart->Instance->DR & (uint16_t)0x01FF);
 800506c:	687b      	ldr	r3, [r7, #4]
 800506e:	681b      	ldr	r3, [r3, #0]
 8005070:	685b      	ldr	r3, [r3, #4]
 8005072:	b29b      	uxth	r3, r3
 8005074:	f3c3 0308 	ubfx	r3, r3, #0, #9
 8005078:	b29a      	uxth	r2, r3
 800507a:	68fb      	ldr	r3, [r7, #12]
 800507c:	801a      	strh	r2, [r3, #0]
        huart->pRxBuffPtr += 2U;
 800507e:	687b      	ldr	r3, [r7, #4]
 8005080:	6a9b      	ldr	r3, [r3, #40]	; 0x28
 8005082:	1c9a      	adds	r2, r3, #2
 8005084:	687b      	ldr	r3, [r7, #4]
 8005086:	629a      	str	r2, [r3, #40]	; 0x28
 8005088:	e029      	b.n	80050de <UART_Receive_IT+0x9e>
      }
      else
      {
        *tmp = (uint16_t)(huart->Instance->DR & (uint16_t)0x00FF);
 800508a:	687b      	ldr	r3, [r7, #4]
 800508c:	681b      	ldr	r3, [r3, #0]
 800508e:	685b      	ldr	r3, [r3, #4]
 8005090:	b29b      	uxth	r3, r3
 8005092:	b2db      	uxtb	r3, r3
 8005094:	b29a      	uxth	r2, r3
 8005096:	68fb      	ldr	r3, [r7, #12]
 8005098:	801a      	strh	r2, [r3, #0]
        huart->pRxBuffPtr += 1U;
 800509a:	687b      	ldr	r3, [r7, #4]
 800509c:	6a9b      	ldr	r3, [r3, #40]	; 0x28
 800509e:	1c5a      	adds	r2, r3, #1
 80050a0:	687b      	ldr	r3, [r7, #4]
 80050a2:	629a      	str	r2, [r3, #40]	; 0x28
 80050a4:	e01b      	b.n	80050de <UART_Receive_IT+0x9e>
      }
    }
    else
    {
      if (huart->Init.Parity == UART_PARITY_NONE)
 80050a6:	687b      	ldr	r3, [r7, #4]
 80050a8:	691b      	ldr	r3, [r3, #16]
 80050aa:	2b00      	cmp	r3, #0
 80050ac:	d10a      	bne.n	80050c4 <UART_Receive_IT+0x84>
      {
        *huart->pRxBuffPtr++ = (uint8_t)(huart->Instance->DR & (uint8_t)0x00FF);
 80050ae:	687b      	ldr	r3, [r7, #4]
 80050b0:	681b      	ldr	r3, [r3, #0]
 80050b2:	6858      	ldr	r0, [r3, #4]
 80050b4:	687b      	ldr	r3, [r7, #4]
 80050b6:	6a9b      	ldr	r3, [r3, #40]	; 0x28
 80050b8:	1c59      	adds	r1, r3, #1
 80050ba:	687a      	ldr	r2, [r7, #4]
 80050bc:	6291      	str	r1, [r2, #40]	; 0x28
 80050be:	b2c2      	uxtb	r2, r0
 80050c0:	701a      	strb	r2, [r3, #0]
 80050c2:	e00c      	b.n	80050de <UART_Receive_IT+0x9e>
      }
      else
      {
        *huart->pRxBuffPtr++ = (uint8_t)(huart->Instance->DR & (uint8_t)0x007F);
 80050c4:	687b      	ldr	r3, [r7, #4]
 80050c6:	681b      	ldr	r3, [r3, #0]
 80050c8:	685b      	ldr	r3, [r3, #4]
 80050ca:	b2da      	uxtb	r2, r3
 80050cc:	687b      	ldr	r3, [r7, #4]
 80050ce:	6a9b      	ldr	r3, [r3, #40]	; 0x28
 80050d0:	1c58      	adds	r0, r3, #1
 80050d2:	6879      	ldr	r1, [r7, #4]
 80050d4:	6288      	str	r0, [r1, #40]	; 0x28
 80050d6:	f002 027f 	and.w	r2, r2, #127	; 0x7f
 80050da:	b2d2      	uxtb	r2, r2
 80050dc:	701a      	strb	r2, [r3, #0]
      }
    }

    if (--huart->RxXferCount == 0U)
 80050de:	687b      	ldr	r3, [r7, #4]
 80050e0:	8ddb      	ldrh	r3, [r3, #46]	; 0x2e
 80050e2:	b29b      	uxth	r3, r3
 80050e4:	3b01      	subs	r3, #1
 80050e6:	b29b      	uxth	r3, r3
 80050e8:	687a      	ldr	r2, [r7, #4]
 80050ea:	4619      	mov	r1, r3
 80050ec:	85d1      	strh	r1, [r2, #46]	; 0x2e
 80050ee:	2b00      	cmp	r3, #0
 80050f0:	d120      	bne.n	8005134 <UART_Receive_IT+0xf4>
    {
      /* Disable the UART Data Register not empty Interrupt */
      __HAL_UART_DISABLE_IT(huart, UART_IT_RXNE);
 80050f2:	687b      	ldr	r3, [r7, #4]
 80050f4:	681b      	ldr	r3, [r3, #0]
 80050f6:	68da      	ldr	r2, [r3, #12]
 80050f8:	687b      	ldr	r3, [r7, #4]
 80050fa:	681b      	ldr	r3, [r3, #0]
 80050fc:	f022 0220 	bic.w	r2, r2, #32
 8005100:	60da      	str	r2, [r3, #12]

      /* Disable the UART Parity Error Interrupt */
      __HAL_UART_DISABLE_IT(huart, UART_IT_PE);
 8005102:	687b      	ldr	r3, [r7, #4]
 8005104:	681b      	ldr	r3, [r3, #0]
 8005106:	68da      	ldr	r2, [r3, #12]
 8005108:	687b      	ldr	r3, [r7, #4]
 800510a:	681b      	ldr	r3, [r3, #0]
 800510c:	f422 7280 	bic.w	r2, r2, #256	; 0x100
 8005110:	60da      	str	r2, [r3, #12]

      /* Disable the UART Error Interrupt: (Frame error, noise error, overrun error) */
      __HAL_UART_DISABLE_IT(huart, UART_IT_ERR);
 8005112:	687b      	ldr	r3, [r7, #4]
 8005114:	681b      	ldr	r3, [r3, #0]
 8005116:	695a      	ldr	r2, [r3, #20]
 8005118:	687b      	ldr	r3, [r7, #4]
 800511a:	681b      	ldr	r3, [r3, #0]
 800511c:	f022 0201 	bic.w	r2, r2, #1
 8005120:	615a      	str	r2, [r3, #20]

      /* Rx process is completed, restore huart->RxState to Ready */
      huart->RxState = HAL_UART_STATE_READY;
 8005122:	687b      	ldr	r3, [r7, #4]
 8005124:	2220      	movs	r2, #32
 8005126:	f883 203a 	strb.w	r2, [r3, #58]	; 0x3a
#if (USE_HAL_UART_REGISTER_CALLBACKS == 1)
      /*Call registered Rx complete callback*/
      huart->RxCpltCallback(huart);
#else
      /*Call legacy weak Rx complete callback*/
      HAL_UART_RxCpltCallback(huart);
 800512a:	6878      	ldr	r0, [r7, #4]
 800512c:	f7fb f870 	bl	8000210 <HAL_UART_RxCpltCallback>
#endif /* USE_HAL_UART_REGISTER_CALLBACKS */

      return HAL_OK;
 8005130:	2300      	movs	r3, #0
 8005132:	e002      	b.n	800513a <UART_Receive_IT+0xfa>
    }
    return HAL_OK;
 8005134:	2300      	movs	r3, #0
 8005136:	e000      	b.n	800513a <UART_Receive_IT+0xfa>
  }
  else
  {
    return HAL_BUSY;
 8005138:	2302      	movs	r3, #2
  }
}
 800513a:	4618      	mov	r0, r3
 800513c:	3710      	adds	r7, #16
 800513e:	46bd      	mov	sp, r7
 8005140:	bd80      	pop	{r7, pc}
	...

08005144 <UART_SetConfig>:
  * @param  huart  Pointer to a UART_HandleTypeDef structure that contains
  *                the configuration information for the specified UART module.
  * @retval None
  */
static void UART_SetConfig(UART_HandleTypeDef *huart)
{
 8005144:	b580      	push	{r7, lr}
 8005146:	b084      	sub	sp, #16
 8005148:	af00      	add	r7, sp, #0
 800514a:	6078      	str	r0, [r7, #4]
  assert_param(IS_UART_MODE(huart->Init.Mode));

  /*-------------------------- USART CR2 Configuration -----------------------*/
  /* Configure the UART Stop Bits: Set STOP[13:12] bits
     according to huart->Init.StopBits value */
  MODIFY_REG(huart->Instance->CR2, USART_CR2_STOP, huart->Init.StopBits);
 800514c:	687b      	ldr	r3, [r7, #4]
 800514e:	681b      	ldr	r3, [r3, #0]
 8005150:	691b      	ldr	r3, [r3, #16]
 8005152:	f423 5140 	bic.w	r1, r3, #12288	; 0x3000
 8005156:	687b      	ldr	r3, [r7, #4]
 8005158:	68da      	ldr	r2, [r3, #12]
 800515a:	687b      	ldr	r3, [r7, #4]
 800515c:	681b      	ldr	r3, [r3, #0]
 800515e:	430a      	orrs	r2, r1
 8005160:	611a      	str	r2, [r3, #16]
  tmpreg = (uint32_t)huart->Init.WordLength | huart->Init.Parity | huart->Init.Mode | huart->Init.OverSampling;
  MODIFY_REG(huart->Instance->CR1,
             (uint32_t)(USART_CR1_M | USART_CR1_PCE | USART_CR1_PS | USART_CR1_TE | USART_CR1_RE | USART_CR1_OVER8),
             tmpreg);
#else
  tmpreg = (uint32_t)huart->Init.WordLength | huart->Init.Parity | huart->Init.Mode;
 8005162:	687b      	ldr	r3, [r7, #4]
 8005164:	689a      	ldr	r2, [r3, #8]
 8005166:	687b      	ldr	r3, [r7, #4]
 8005168:	691b      	ldr	r3, [r3, #16]
 800516a:	431a      	orrs	r2, r3
 800516c:	687b      	ldr	r3, [r7, #4]
 800516e:	695b      	ldr	r3, [r3, #20]
 8005170:	4313      	orrs	r3, r2
 8005172:	60fb      	str	r3, [r7, #12]
  MODIFY_REG(huart->Instance->CR1,
 8005174:	687b      	ldr	r3, [r7, #4]
 8005176:	681b      	ldr	r3, [r3, #0]
 8005178:	68db      	ldr	r3, [r3, #12]
 800517a:	f423 53b0 	bic.w	r3, r3, #5632	; 0x1600
 800517e:	f023 030c 	bic.w	r3, r3, #12
 8005182:	687a      	ldr	r2, [r7, #4]
 8005184:	6812      	ldr	r2, [r2, #0]
 8005186:	68f9      	ldr	r1, [r7, #12]
 8005188:	430b      	orrs	r3, r1
 800518a:	60d3      	str	r3, [r2, #12]
             tmpreg);
#endif /* USART_CR1_OVER8 */

  /*-------------------------- USART CR3 Configuration -----------------------*/
  /* Configure the UART HFC: Set CTSE and RTSE bits according to huart->Init.HwFlowCtl value */
  MODIFY_REG(huart->Instance->CR3, (USART_CR3_RTSE | USART_CR3_CTSE), huart->Init.HwFlowCtl);
 800518c:	687b      	ldr	r3, [r7, #4]
 800518e:	681b      	ldr	r3, [r3, #0]
 8005190:	695b      	ldr	r3, [r3, #20]
 8005192:	f423 7140 	bic.w	r1, r3, #768	; 0x300
 8005196:	687b      	ldr	r3, [r7, #4]
 8005198:	699a      	ldr	r2, [r3, #24]
 800519a:	687b      	ldr	r3, [r7, #4]
 800519c:	681b      	ldr	r3, [r3, #0]
 800519e:	430a      	orrs	r2, r1
 80051a0:	615a      	str	r2, [r3, #20]
      huart->Instance->BRR = UART_BRR_SAMPLING16(pclk, huart->Init.BaudRate);
    }
  }
#else
  /*-------------------------- USART BRR Configuration ---------------------*/
  if(huart->Instance == USART1)
 80051a2:	687b      	ldr	r3, [r7, #4]
 80051a4:	681b      	ldr	r3, [r3, #0]
 80051a6:	4a52      	ldr	r2, [pc, #328]	; (80052f0 <UART_SetConfig+0x1ac>)
 80051a8:	4293      	cmp	r3, r2
 80051aa:	d14e      	bne.n	800524a <UART_SetConfig+0x106>
  {
    pclk = HAL_RCC_GetPCLK2Freq();
 80051ac:	f7ff f886 	bl	80042bc <HAL_RCC_GetPCLK2Freq>
 80051b0:	60b8      	str	r0, [r7, #8]
    huart->Instance->BRR = UART_BRR_SAMPLING16(pclk, huart->Init.BaudRate);
 80051b2:	68ba      	ldr	r2, [r7, #8]
 80051b4:	4613      	mov	r3, r2
 80051b6:	009b      	lsls	r3, r3, #2
 80051b8:	4413      	add	r3, r2
 80051ba:	009a      	lsls	r2, r3, #2
 80051bc:	441a      	add	r2, r3
 80051be:	687b      	ldr	r3, [r7, #4]
 80051c0:	685b      	ldr	r3, [r3, #4]
 80051c2:	009b      	lsls	r3, r3, #2
 80051c4:	fbb2 f3f3 	udiv	r3, r2, r3
 80051c8:	4a4a      	ldr	r2, [pc, #296]	; (80052f4 <UART_SetConfig+0x1b0>)
 80051ca:	fba2 2303 	umull	r2, r3, r2, r3
 80051ce:	095b      	lsrs	r3, r3, #5
 80051d0:	0119      	lsls	r1, r3, #4
 80051d2:	68ba      	ldr	r2, [r7, #8]
 80051d4:	4613      	mov	r3, r2
 80051d6:	009b      	lsls	r3, r3, #2
 80051d8:	4413      	add	r3, r2
 80051da:	009a      	lsls	r2, r3, #2
 80051dc:	441a      	add	r2, r3
 80051de:	687b      	ldr	r3, [r7, #4]
 80051e0:	685b      	ldr	r3, [r3, #4]
 80051e2:	009b      	lsls	r3, r3, #2
 80051e4:	fbb2 f2f3 	udiv	r2, r2, r3
 80051e8:	4b42      	ldr	r3, [pc, #264]	; (80052f4 <UART_SetConfig+0x1b0>)
 80051ea:	fba3 0302 	umull	r0, r3, r3, r2
 80051ee:	095b      	lsrs	r3, r3, #5
 80051f0:	2064      	movs	r0, #100	; 0x64
 80051f2:	fb00 f303 	mul.w	r3, r0, r3
 80051f6:	1ad3      	subs	r3, r2, r3
 80051f8:	011b      	lsls	r3, r3, #4
 80051fa:	3332      	adds	r3, #50	; 0x32
 80051fc:	4a3d      	ldr	r2, [pc, #244]	; (80052f4 <UART_SetConfig+0x1b0>)
 80051fe:	fba2 2303 	umull	r2, r3, r2, r3
 8005202:	095b      	lsrs	r3, r3, #5
 8005204:	f003 03f0 	and.w	r3, r3, #240	; 0xf0
 8005208:	4419      	add	r1, r3
 800520a:	68ba      	ldr	r2, [r7, #8]
 800520c:	4613      	mov	r3, r2
 800520e:	009b      	lsls	r3, r3, #2
 8005210:	4413      	add	r3, r2
 8005212:	009a      	lsls	r2, r3, #2
 8005214:	441a      	add	r2, r3
 8005216:	687b      	ldr	r3, [r7, #4]
 8005218:	685b      	ldr	r3, [r3, #4]
 800521a:	009b      	lsls	r3, r3, #2
 800521c:	fbb2 f2f3 	udiv	r2, r2, r3
 8005220:	4b34      	ldr	r3, [pc, #208]	; (80052f4 <UART_SetConfig+0x1b0>)
 8005222:	fba3 0302 	umull	r0, r3, r3, r2
 8005226:	095b      	lsrs	r3, r3, #5
 8005228:	2064      	movs	r0, #100	; 0x64
 800522a:	fb00 f303 	mul.w	r3, r0, r3
 800522e:	1ad3      	subs	r3, r2, r3
 8005230:	011b      	lsls	r3, r3, #4
 8005232:	3332      	adds	r3, #50	; 0x32
 8005234:	4a2f      	ldr	r2, [pc, #188]	; (80052f4 <UART_SetConfig+0x1b0>)
 8005236:	fba2 2303 	umull	r2, r3, r2, r3
 800523a:	095b      	lsrs	r3, r3, #5
 800523c:	f003 020f 	and.w	r2, r3, #15
 8005240:	687b      	ldr	r3, [r7, #4]
 8005242:	681b      	ldr	r3, [r3, #0]
 8005244:	440a      	add	r2, r1
 8005246:	609a      	str	r2, [r3, #8]
  {
    pclk = HAL_RCC_GetPCLK1Freq();
    huart->Instance->BRR = UART_BRR_SAMPLING16(pclk, huart->Init.BaudRate);
  }
#endif /* USART_CR1_OVER8 */
}
 8005248:	e04d      	b.n	80052e6 <UART_SetConfig+0x1a2>
    pclk = HAL_RCC_GetPCLK1Freq();
 800524a:	f7ff f823 	bl	8004294 <HAL_RCC_GetPCLK1Freq>
 800524e:	60b8      	str	r0, [r7, #8]
    huart->Instance->BRR = UART_BRR_SAMPLING16(pclk, huart->Init.BaudRate);
 8005250:	68ba      	ldr	r2, [r7, #8]
 8005252:	4613      	mov	r3, r2
 8005254:	009b      	lsls	r3, r3, #2
 8005256:	4413      	add	r3, r2
 8005258:	009a      	lsls	r2, r3, #2
 800525a:	441a      	add	r2, r3
 800525c:	687b      	ldr	r3, [r7, #4]
 800525e:	685b      	ldr	r3, [r3, #4]
 8005260:	009b      	lsls	r3, r3, #2
 8005262:	fbb2 f3f3 	udiv	r3, r2, r3
 8005266:	4a23      	ldr	r2, [pc, #140]	; (80052f4 <UART_SetConfig+0x1b0>)
 8005268:	fba2 2303 	umull	r2, r3, r2, r3
 800526c:	095b      	lsrs	r3, r3, #5
 800526e:	0119      	lsls	r1, r3, #4
 8005270:	68ba      	ldr	r2, [r7, #8]
 8005272:	4613      	mov	r3, r2
 8005274:	009b      	lsls	r3, r3, #2
 8005276:	4413      	add	r3, r2
 8005278:	009a      	lsls	r2, r3, #2
 800527a:	441a      	add	r2, r3
 800527c:	687b      	ldr	r3, [r7, #4]
 800527e:	685b      	ldr	r3, [r3, #4]
 8005280:	009b      	lsls	r3, r3, #2
 8005282:	fbb2 f2f3 	udiv	r2, r2, r3
 8005286:	4b1b      	ldr	r3, [pc, #108]	; (80052f4 <UART_SetConfig+0x1b0>)
 8005288:	fba3 0302 	umull	r0, r3, r3, r2
 800528c:	095b      	lsrs	r3, r3, #5
 800528e:	2064      	movs	r0, #100	; 0x64
 8005290:	fb00 f303 	mul.w	r3, r0, r3
 8005294:	1ad3      	subs	r3, r2, r3
 8005296:	011b      	lsls	r3, r3, #4
 8005298:	3332      	adds	r3, #50	; 0x32
 800529a:	4a16      	ldr	r2, [pc, #88]	; (80052f4 <UART_SetConfig+0x1b0>)
 800529c:	fba2 2303 	umull	r2, r3, r2, r3
 80052a0:	095b      	lsrs	r3, r3, #5
 80052a2:	f003 03f0 	and.w	r3, r3, #240	; 0xf0
 80052a6:	4419      	add	r1, r3
 80052a8:	68ba      	ldr	r2, [r7, #8]
 80052aa:	4613      	mov	r3, r2
 80052ac:	009b      	lsls	r3, r3, #2
 80052ae:	4413      	add	r3, r2
 80052b0:	009a      	lsls	r2, r3, #2
 80052b2:	441a      	add	r2, r3
 80052b4:	687b      	ldr	r3, [r7, #4]
 80052b6:	685b      	ldr	r3, [r3, #4]
 80052b8:	009b      	lsls	r3, r3, #2
 80052ba:	fbb2 f2f3 	udiv	r2, r2, r3
 80052be:	4b0d      	ldr	r3, [pc, #52]	; (80052f4 <UART_SetConfig+0x1b0>)
 80052c0:	fba3 0302 	umull	r0, r3, r3, r2
 80052c4:	095b      	lsrs	r3, r3, #5
 80052c6:	2064      	movs	r0, #100	; 0x64
 80052c8:	fb00 f303 	mul.w	r3, r0, r3
 80052cc:	1ad3      	subs	r3, r2, r3
 80052ce:	011b      	lsls	r3, r3, #4
 80052d0:	3332      	adds	r3, #50	; 0x32
 80052d2:	4a08      	ldr	r2, [pc, #32]	; (80052f4 <UART_SetConfig+0x1b0>)
 80052d4:	fba2 2303 	umull	r2, r3, r2, r3
 80052d8:	095b      	lsrs	r3, r3, #5
 80052da:	f003 020f 	and.w	r2, r3, #15
 80052de:	687b      	ldr	r3, [r7, #4]
 80052e0:	681b      	ldr	r3, [r3, #0]
 80052e2:	440a      	add	r2, r1
 80052e4:	609a      	str	r2, [r3, #8]
}
 80052e6:	bf00      	nop
 80052e8:	3710      	adds	r7, #16
 80052ea:	46bd      	mov	sp, r7
 80052ec:	bd80      	pop	{r7, pc}
 80052ee:	bf00      	nop
 80052f0:	40013800 	.word	0x40013800
 80052f4:	51eb851f 	.word	0x51eb851f

080052f8 <vListInitialise>:
/*-----------------------------------------------------------
 * PUBLIC LIST API documented in list.h
 *----------------------------------------------------------*/

void vListInitialise( List_t * const pxList )
{
 80052f8:	b480      	push	{r7}
 80052fa:	b083      	sub	sp, #12
 80052fc:	af00      	add	r7, sp, #0
 80052fe:	6078      	str	r0, [r7, #4]
	/* The list structure contains a list item which is used to mark the
	end of the list.  To initialise the list the list end is inserted
	as the only list entry. */
	pxList->pxIndex = ( ListItem_t * ) &( pxList->xListEnd );			/*lint !e826 !e740 The mini list structure is used as the list end to save RAM.  This is checked and valid. */
 8005300:	687b      	ldr	r3, [r7, #4]
 8005302:	f103 0208 	add.w	r2, r3, #8
 8005306:	687b      	ldr	r3, [r7, #4]
 8005308:	605a      	str	r2, [r3, #4]

	/* The list end value is the highest possible value in the list to
	ensure it remains at the end of the list. */
	pxList->xListEnd.xItemValue = portMAX_DELAY;
 800530a:	687b      	ldr	r3, [r7, #4]
 800530c:	f04f 32ff 	mov.w	r2, #4294967295
 8005310:	609a      	str	r2, [r3, #8]

	/* The list end next and previous pointers point to itself so we know
	when the list is empty. */
	pxList->xListEnd.pxNext = ( ListItem_t * ) &( pxList->xListEnd );	/*lint !e826 !e740 The mini list structure is used as the list end to save RAM.  This is checked and valid. */
 8005312:	687b      	ldr	r3, [r7, #4]
 8005314:	f103 0208 	add.w	r2, r3, #8
 8005318:	687b      	ldr	r3, [r7, #4]
 800531a:	60da      	str	r2, [r3, #12]
	pxList->xListEnd.pxPrevious = ( ListItem_t * ) &( pxList->xListEnd );/*lint !e826 !e740 The mini list structure is used as the list end to save RAM.  This is checked and valid. */
 800531c:	687b      	ldr	r3, [r7, #4]
 800531e:	f103 0208 	add.w	r2, r3, #8
 8005322:	687b      	ldr	r3, [r7, #4]
 8005324:	611a      	str	r2, [r3, #16]

	pxList->uxNumberOfItems = ( UBaseType_t ) 0U;
 8005326:	687b      	ldr	r3, [r7, #4]
 8005328:	2200      	movs	r2, #0
 800532a:	601a      	str	r2, [r3, #0]

	/* Write known values into the list if
	configUSE_LIST_DATA_INTEGRITY_CHECK_BYTES is set to 1. */
	listSET_LIST_INTEGRITY_CHECK_1_VALUE( pxList );
	listSET_LIST_INTEGRITY_CHECK_2_VALUE( pxList );
}
 800532c:	bf00      	nop
 800532e:	370c      	adds	r7, #12
 8005330:	46bd      	mov	sp, r7
 8005332:	bc80      	pop	{r7}
 8005334:	4770      	bx	lr

08005336 <vListInitialiseItem>:
/*-----------------------------------------------------------*/

void vListInitialiseItem( ListItem_t * const pxItem )
{
 8005336:	b480      	push	{r7}
 8005338:	b083      	sub	sp, #12
 800533a:	af00      	add	r7, sp, #0
 800533c:	6078      	str	r0, [r7, #4]
	/* Make sure the list item is not recorded as being on a list. */
	pxItem->pvContainer = NULL;
 800533e:	687b      	ldr	r3, [r7, #4]
 8005340:	2200      	movs	r2, #0
 8005342:	611a      	str	r2, [r3, #16]

	/* Write known values into the list item if
	configUSE_LIST_DATA_INTEGRITY_CHECK_BYTES is set to 1. */
	listSET_FIRST_LIST_ITEM_INTEGRITY_CHECK_VALUE( pxItem );
	listSET_SECOND_LIST_ITEM_INTEGRITY_CHECK_VALUE( pxItem );
}
 8005344:	bf00      	nop
 8005346:	370c      	adds	r7, #12
 8005348:	46bd      	mov	sp, r7
 800534a:	bc80      	pop	{r7}
 800534c:	4770      	bx	lr

0800534e <vListInsertEnd>:
/*-----------------------------------------------------------*/

void vListInsertEnd( List_t * const pxList, ListItem_t * const pxNewListItem )
{
 800534e:	b480      	push	{r7}
 8005350:	b085      	sub	sp, #20
 8005352:	af00      	add	r7, sp, #0
 8005354:	6078      	str	r0, [r7, #4]
 8005356:	6039      	str	r1, [r7, #0]
ListItem_t * const pxIndex = pxList->pxIndex;
 8005358:	687b      	ldr	r3, [r7, #4]
 800535a:	685b      	ldr	r3, [r3, #4]
 800535c:	60fb      	str	r3, [r7, #12]
	listTEST_LIST_ITEM_INTEGRITY( pxNewListItem );

	/* Insert a new list item into pxList, but rather than sort the list,
	makes the new list item the last item to be removed by a call to
	listGET_OWNER_OF_NEXT_ENTRY(). */
	pxNewListItem->pxNext = pxIndex;
 800535e:	683b      	ldr	r3, [r7, #0]
 8005360:	68fa      	ldr	r2, [r7, #12]
 8005362:	605a      	str	r2, [r3, #4]
	pxNewListItem->pxPrevious = pxIndex->pxPrevious;
 8005364:	68fb      	ldr	r3, [r7, #12]
 8005366:	689a      	ldr	r2, [r3, #8]
 8005368:	683b      	ldr	r3, [r7, #0]
 800536a:	609a      	str	r2, [r3, #8]

	/* Only used during decision coverage testing. */
	mtCOVERAGE_TEST_DELAY();

	pxIndex->pxPrevious->pxNext = pxNewListItem;
 800536c:	68fb      	ldr	r3, [r7, #12]
 800536e:	689b      	ldr	r3, [r3, #8]
 8005370:	683a      	ldr	r2, [r7, #0]
 8005372:	605a      	str	r2, [r3, #4]
	pxIndex->pxPrevious = pxNewListItem;
 8005374:	68fb      	ldr	r3, [r7, #12]
 8005376:	683a      	ldr	r2, [r7, #0]
 8005378:	609a      	str	r2, [r3, #8]

	/* Remember which list the item is in. */
	pxNewListItem->pvContainer = ( void * ) pxList;
 800537a:	683b      	ldr	r3, [r7, #0]
 800537c:	687a      	ldr	r2, [r7, #4]
 800537e:	611a      	str	r2, [r3, #16]

	( pxList->uxNumberOfItems )++;
 8005380:	687b      	ldr	r3, [r7, #4]
 8005382:	681b      	ldr	r3, [r3, #0]
 8005384:	1c5a      	adds	r2, r3, #1
 8005386:	687b      	ldr	r3, [r7, #4]
 8005388:	601a      	str	r2, [r3, #0]
}
 800538a:	bf00      	nop
 800538c:	3714      	adds	r7, #20
 800538e:	46bd      	mov	sp, r7
 8005390:	bc80      	pop	{r7}
 8005392:	4770      	bx	lr

08005394 <vListInsert>:
/*-----------------------------------------------------------*/

void vListInsert( List_t * const pxList, ListItem_t * const pxNewListItem )
{
 8005394:	b480      	push	{r7}
 8005396:	b085      	sub	sp, #20
 8005398:	af00      	add	r7, sp, #0
 800539a:	6078      	str	r0, [r7, #4]
 800539c:	6039      	str	r1, [r7, #0]
ListItem_t *pxIterator;
const TickType_t xValueOfInsertion = pxNewListItem->xItemValue;
 800539e:	683b      	ldr	r3, [r7, #0]
 80053a0:	681b      	ldr	r3, [r3, #0]
 80053a2:	60bb      	str	r3, [r7, #8]
	new list item should be placed after it.  This ensures that TCB's which are
	stored in ready lists (all of which have the same xItemValue value) get a
	share of the CPU.  However, if the xItemValue is the same as the back marker
	the iteration loop below will not end.  Therefore the value is checked
	first, and the algorithm slightly modified if necessary. */
	if( xValueOfInsertion == portMAX_DELAY )
 80053a4:	68bb      	ldr	r3, [r7, #8]
 80053a6:	f1b3 3fff 	cmp.w	r3, #4294967295
 80053aa:	d103      	bne.n	80053b4 <vListInsert+0x20>
	{
		pxIterator = pxList->xListEnd.pxPrevious;
 80053ac:	687b      	ldr	r3, [r7, #4]
 80053ae:	691b      	ldr	r3, [r3, #16]
 80053b0:	60fb      	str	r3, [r7, #12]
 80053b2:	e00c      	b.n	80053ce <vListInsert+0x3a>
			4) Using a queue or semaphore before it has been initialised or
			   before the scheduler has been started (are interrupts firing
			   before vTaskStartScheduler() has been called?).
		**********************************************************************/

		for( pxIterator = ( ListItem_t * ) &( pxList->xListEnd ); pxIterator->pxNext->xItemValue <= xValueOfInsertion; pxIterator = pxIterator->pxNext ) /*lint !e826 !e740 The mini list structure is used as the list end to save RAM.  This is checked and valid. */
 80053b4:	687b      	ldr	r3, [r7, #4]
 80053b6:	3308      	adds	r3, #8
 80053b8:	60fb      	str	r3, [r7, #12]
 80053ba:	e002      	b.n	80053c2 <vListInsert+0x2e>
 80053bc:	68fb      	ldr	r3, [r7, #12]
 80053be:	685b      	ldr	r3, [r3, #4]
 80053c0:	60fb      	str	r3, [r7, #12]
 80053c2:	68fb      	ldr	r3, [r7, #12]
 80053c4:	685b      	ldr	r3, [r3, #4]
 80053c6:	681b      	ldr	r3, [r3, #0]
 80053c8:	68ba      	ldr	r2, [r7, #8]
 80053ca:	429a      	cmp	r2, r3
 80053cc:	d2f6      	bcs.n	80053bc <vListInsert+0x28>
			/* There is nothing to do here, just iterating to the wanted
			insertion position. */
		}
	}

	pxNewListItem->pxNext = pxIterator->pxNext;
 80053ce:	68fb      	ldr	r3, [r7, #12]
 80053d0:	685a      	ldr	r2, [r3, #4]
 80053d2:	683b      	ldr	r3, [r7, #0]
 80053d4:	605a      	str	r2, [r3, #4]
	pxNewListItem->pxNext->pxPrevious = pxNewListItem;
 80053d6:	683b      	ldr	r3, [r7, #0]
 80053d8:	685b      	ldr	r3, [r3, #4]
 80053da:	683a      	ldr	r2, [r7, #0]
 80053dc:	609a      	str	r2, [r3, #8]
	pxNewListItem->pxPrevious = pxIterator;
 80053de:	683b      	ldr	r3, [r7, #0]
 80053e0:	68fa      	ldr	r2, [r7, #12]
 80053e2:	609a      	str	r2, [r3, #8]
	pxIterator->pxNext = pxNewListItem;
 80053e4:	68fb      	ldr	r3, [r7, #12]
 80053e6:	683a      	ldr	r2, [r7, #0]
 80053e8:	605a      	str	r2, [r3, #4]

	/* Remember which list the item is in.  This allows fast removal of the
	item later. */
	pxNewListItem->pvContainer = ( void * ) pxList;
 80053ea:	683b      	ldr	r3, [r7, #0]
 80053ec:	687a      	ldr	r2, [r7, #4]
 80053ee:	611a      	str	r2, [r3, #16]

	( pxList->uxNumberOfItems )++;
 80053f0:	687b      	ldr	r3, [r7, #4]
 80053f2:	681b      	ldr	r3, [r3, #0]
 80053f4:	1c5a      	adds	r2, r3, #1
 80053f6:	687b      	ldr	r3, [r7, #4]
 80053f8:	601a      	str	r2, [r3, #0]
}
 80053fa:	bf00      	nop
 80053fc:	3714      	adds	r7, #20
 80053fe:	46bd      	mov	sp, r7
 8005400:	bc80      	pop	{r7}
 8005402:	4770      	bx	lr

08005404 <uxListRemove>:
/*-----------------------------------------------------------*/

UBaseType_t uxListRemove( ListItem_t * const pxItemToRemove )
{
 8005404:	b480      	push	{r7}
 8005406:	b085      	sub	sp, #20
 8005408:	af00      	add	r7, sp, #0
 800540a:	6078      	str	r0, [r7, #4]
/* The list item knows which list it is in.  Obtain the list from the list
item. */
List_t * const pxList = ( List_t * ) pxItemToRemove->pvContainer;
 800540c:	687b      	ldr	r3, [r7, #4]
 800540e:	691b      	ldr	r3, [r3, #16]
 8005410:	60fb      	str	r3, [r7, #12]

	pxItemToRemove->pxNext->pxPrevious = pxItemToRemove->pxPrevious;
 8005412:	687b      	ldr	r3, [r7, #4]
 8005414:	685b      	ldr	r3, [r3, #4]
 8005416:	687a      	ldr	r2, [r7, #4]
 8005418:	6892      	ldr	r2, [r2, #8]
 800541a:	609a      	str	r2, [r3, #8]
	pxItemToRemove->pxPrevious->pxNext = pxItemToRemove->pxNext;
 800541c:	687b      	ldr	r3, [r7, #4]
 800541e:	689b      	ldr	r3, [r3, #8]
 8005420:	687a      	ldr	r2, [r7, #4]
 8005422:	6852      	ldr	r2, [r2, #4]
 8005424:	605a      	str	r2, [r3, #4]

	/* Only used during decision coverage testing. */
	mtCOVERAGE_TEST_DELAY();

	/* Make sure the index is left pointing to a valid item. */
	if( pxList->pxIndex == pxItemToRemove )
 8005426:	68fb      	ldr	r3, [r7, #12]
 8005428:	685b      	ldr	r3, [r3, #4]
 800542a:	687a      	ldr	r2, [r7, #4]
 800542c:	429a      	cmp	r2, r3
 800542e:	d103      	bne.n	8005438 <uxListRemove+0x34>
	{
		pxList->pxIndex = pxItemToRemove->pxPrevious;
 8005430:	687b      	ldr	r3, [r7, #4]
 8005432:	689a      	ldr	r2, [r3, #8]
 8005434:	68fb      	ldr	r3, [r7, #12]
 8005436:	605a      	str	r2, [r3, #4]
	else
	{
		mtCOVERAGE_TEST_MARKER();
	}

	pxItemToRemove->pvContainer = NULL;
 8005438:	687b      	ldr	r3, [r7, #4]
 800543a:	2200      	movs	r2, #0
 800543c:	611a      	str	r2, [r3, #16]
	( pxList->uxNumberOfItems )--;
 800543e:	68fb      	ldr	r3, [r7, #12]
 8005440:	681b      	ldr	r3, [r3, #0]
 8005442:	1e5a      	subs	r2, r3, #1
 8005444:	68fb      	ldr	r3, [r7, #12]
 8005446:	601a      	str	r2, [r3, #0]

	return pxList->uxNumberOfItems;
 8005448:	68fb      	ldr	r3, [r7, #12]
 800544a:	681b      	ldr	r3, [r3, #0]
}
 800544c:	4618      	mov	r0, r3
 800544e:	3714      	adds	r7, #20
 8005450:	46bd      	mov	sp, r7
 8005452:	bc80      	pop	{r7}
 8005454:	4770      	bx	lr
	...

08005458 <xQueueGenericReset>:
	}														\
	taskEXIT_CRITICAL()
/*-----------------------------------------------------------*/

BaseType_t xQueueGenericReset( QueueHandle_t xQueue, BaseType_t xNewQueue )
{
 8005458:	b580      	push	{r7, lr}
 800545a:	b084      	sub	sp, #16
 800545c:	af00      	add	r7, sp, #0
 800545e:	6078      	str	r0, [r7, #4]
 8005460:	6039      	str	r1, [r7, #0]
Queue_t * const pxQueue = ( Queue_t * ) xQueue;
 8005462:	687b      	ldr	r3, [r7, #4]
 8005464:	60fb      	str	r3, [r7, #12]

	configASSERT( pxQueue );
 8005466:	68fb      	ldr	r3, [r7, #12]
 8005468:	2b00      	cmp	r3, #0
 800546a:	d109      	bne.n	8005480 <xQueueGenericReset+0x28>

portFORCE_INLINE static void vPortRaiseBASEPRI( void )
{
uint32_t ulNewBASEPRI;

	__asm volatile
 800546c:	f04f 0350 	mov.w	r3, #80	; 0x50
 8005470:	f383 8811 	msr	BASEPRI, r3
 8005474:	f3bf 8f6f 	isb	sy
 8005478:	f3bf 8f4f 	dsb	sy
 800547c:	60bb      	str	r3, [r7, #8]
 800547e:	e7fe      	b.n	800547e <xQueueGenericReset+0x26>

	taskENTER_CRITICAL();
 8005480:	f001 f8f0 	bl	8006664 <vPortEnterCritical>
	{
		pxQueue->pcTail = pxQueue->pcHead + ( pxQueue->uxLength * pxQueue->uxItemSize );
 8005484:	68fb      	ldr	r3, [r7, #12]
 8005486:	681a      	ldr	r2, [r3, #0]
 8005488:	68fb      	ldr	r3, [r7, #12]
 800548a:	6bdb      	ldr	r3, [r3, #60]	; 0x3c
 800548c:	68f9      	ldr	r1, [r7, #12]
 800548e:	6c09      	ldr	r1, [r1, #64]	; 0x40
 8005490:	fb01 f303 	mul.w	r3, r1, r3
 8005494:	441a      	add	r2, r3
 8005496:	68fb      	ldr	r3, [r7, #12]
 8005498:	605a      	str	r2, [r3, #4]
		pxQueue->uxMessagesWaiting = ( UBaseType_t ) 0U;
 800549a:	68fb      	ldr	r3, [r7, #12]
 800549c:	2200      	movs	r2, #0
 800549e:	639a      	str	r2, [r3, #56]	; 0x38
		pxQueue->pcWriteTo = pxQueue->pcHead;
 80054a0:	68fb      	ldr	r3, [r7, #12]
 80054a2:	681a      	ldr	r2, [r3, #0]
 80054a4:	68fb      	ldr	r3, [r7, #12]
 80054a6:	609a      	str	r2, [r3, #8]
		pxQueue->u.pcReadFrom = pxQueue->pcHead + ( ( pxQueue->uxLength - ( UBaseType_t ) 1U ) * pxQueue->uxItemSize );
 80054a8:	68fb      	ldr	r3, [r7, #12]
 80054aa:	681a      	ldr	r2, [r3, #0]
 80054ac:	68fb      	ldr	r3, [r7, #12]
 80054ae:	6bdb      	ldr	r3, [r3, #60]	; 0x3c
 80054b0:	3b01      	subs	r3, #1
 80054b2:	68f9      	ldr	r1, [r7, #12]
 80054b4:	6c09      	ldr	r1, [r1, #64]	; 0x40
 80054b6:	fb01 f303 	mul.w	r3, r1, r3
 80054ba:	441a      	add	r2, r3
 80054bc:	68fb      	ldr	r3, [r7, #12]
 80054be:	60da      	str	r2, [r3, #12]
		pxQueue->cRxLock = queueUNLOCKED;
 80054c0:	68fb      	ldr	r3, [r7, #12]
 80054c2:	22ff      	movs	r2, #255	; 0xff
 80054c4:	f883 2044 	strb.w	r2, [r3, #68]	; 0x44
		pxQueue->cTxLock = queueUNLOCKED;
 80054c8:	68fb      	ldr	r3, [r7, #12]
 80054ca:	22ff      	movs	r2, #255	; 0xff
 80054cc:	f883 2045 	strb.w	r2, [r3, #69]	; 0x45

		if( xNewQueue == pdFALSE )
 80054d0:	683b      	ldr	r3, [r7, #0]
 80054d2:	2b00      	cmp	r3, #0
 80054d4:	d114      	bne.n	8005500 <xQueueGenericReset+0xa8>
			/* If there are tasks blocked waiting to read from the queue, then
			the tasks will remain blocked as after this function exits the queue
			will still be empty.  If there are tasks blocked waiting to write to
			the queue, then one should be unblocked as after this function exits
			it will be possible to write to it. */
			if( listLIST_IS_EMPTY( &( pxQueue->xTasksWaitingToSend ) ) == pdFALSE )
 80054d6:	68fb      	ldr	r3, [r7, #12]
 80054d8:	691b      	ldr	r3, [r3, #16]
 80054da:	2b00      	cmp	r3, #0
 80054dc:	d01a      	beq.n	8005514 <xQueueGenericReset+0xbc>
			{
				if( xTaskRemoveFromEventList( &( pxQueue->xTasksWaitingToSend ) ) != pdFALSE )
 80054de:	68fb      	ldr	r3, [r7, #12]
 80054e0:	3310      	adds	r3, #16
 80054e2:	4618      	mov	r0, r3
 80054e4:	f000 fdcc 	bl	8006080 <xTaskRemoveFromEventList>
 80054e8:	4603      	mov	r3, r0
 80054ea:	2b00      	cmp	r3, #0
 80054ec:	d012      	beq.n	8005514 <xQueueGenericReset+0xbc>
				{
					queueYIELD_IF_USING_PREEMPTION();
 80054ee:	4b0d      	ldr	r3, [pc, #52]	; (8005524 <xQueueGenericReset+0xcc>)
 80054f0:	f04f 5280 	mov.w	r2, #268435456	; 0x10000000
 80054f4:	601a      	str	r2, [r3, #0]
 80054f6:	f3bf 8f4f 	dsb	sy
 80054fa:	f3bf 8f6f 	isb	sy
 80054fe:	e009      	b.n	8005514 <xQueueGenericReset+0xbc>
			}
		}
		else
		{
			/* Ensure the event queues start in the correct state. */
			vListInitialise( &( pxQueue->xTasksWaitingToSend ) );
 8005500:	68fb      	ldr	r3, [r7, #12]
 8005502:	3310      	adds	r3, #16
 8005504:	4618      	mov	r0, r3
 8005506:	f7ff fef7 	bl	80052f8 <vListInitialise>
			vListInitialise( &( pxQueue->xTasksWaitingToReceive ) );
 800550a:	68fb      	ldr	r3, [r7, #12]
 800550c:	3324      	adds	r3, #36	; 0x24
 800550e:	4618      	mov	r0, r3
 8005510:	f7ff fef2 	bl	80052f8 <vListInitialise>
		}
	}
	taskEXIT_CRITICAL();
 8005514:	f001 f8d4 	bl	80066c0 <vPortExitCritical>

	/* A value is returned for calling semantic consistency with previous
	versions. */
	return pdPASS;
 8005518:	2301      	movs	r3, #1
}
 800551a:	4618      	mov	r0, r3
 800551c:	3710      	adds	r7, #16
 800551e:	46bd      	mov	sp, r7
 8005520:	bd80      	pop	{r7, pc}
 8005522:	bf00      	nop
 8005524:	e000ed04 	.word	0xe000ed04

08005528 <xQueueGenericCreate>:
/*-----------------------------------------------------------*/

#if( configSUPPORT_DYNAMIC_ALLOCATION == 1 )

	QueueHandle_t xQueueGenericCreate( const UBaseType_t uxQueueLength, const UBaseType_t uxItemSize, const uint8_t ucQueueType )
	{
 8005528:	b580      	push	{r7, lr}
 800552a:	b08a      	sub	sp, #40	; 0x28
 800552c:	af02      	add	r7, sp, #8
 800552e:	60f8      	str	r0, [r7, #12]
 8005530:	60b9      	str	r1, [r7, #8]
 8005532:	4613      	mov	r3, r2
 8005534:	71fb      	strb	r3, [r7, #7]
	Queue_t *pxNewQueue;
	size_t xQueueSizeInBytes;
	uint8_t *pucQueueStorage;

		configASSERT( uxQueueLength > ( UBaseType_t ) 0 );
 8005536:	68fb      	ldr	r3, [r7, #12]
 8005538:	2b00      	cmp	r3, #0
 800553a:	d109      	bne.n	8005550 <xQueueGenericCreate+0x28>
 800553c:	f04f 0350 	mov.w	r3, #80	; 0x50
 8005540:	f383 8811 	msr	BASEPRI, r3
 8005544:	f3bf 8f6f 	isb	sy
 8005548:	f3bf 8f4f 	dsb	sy
 800554c:	613b      	str	r3, [r7, #16]
 800554e:	e7fe      	b.n	800554e <xQueueGenericCreate+0x26>

		if( uxItemSize == ( UBaseType_t ) 0 )
 8005550:	68bb      	ldr	r3, [r7, #8]
 8005552:	2b00      	cmp	r3, #0
 8005554:	d102      	bne.n	800555c <xQueueGenericCreate+0x34>
		{
			/* There is not going to be a queue storage area. */
			xQueueSizeInBytes = ( size_t ) 0;
 8005556:	2300      	movs	r3, #0
 8005558:	61fb      	str	r3, [r7, #28]
 800555a:	e004      	b.n	8005566 <xQueueGenericCreate+0x3e>
		}
		else
		{
			/* Allocate enough space to hold the maximum number of items that
			can be in the queue at any time. */
			xQueueSizeInBytes = ( size_t ) ( uxQueueLength * uxItemSize ); /*lint !e961 MISRA exception as the casts are only redundant for some ports. */
 800555c:	68fb      	ldr	r3, [r7, #12]
 800555e:	68ba      	ldr	r2, [r7, #8]
 8005560:	fb02 f303 	mul.w	r3, r2, r3
 8005564:	61fb      	str	r3, [r7, #28]
		}

		pxNewQueue = ( Queue_t * ) pvPortMalloc( sizeof( Queue_t ) + xQueueSizeInBytes );
 8005566:	69fb      	ldr	r3, [r7, #28]
 8005568:	3348      	adds	r3, #72	; 0x48
 800556a:	4618      	mov	r0, r3
 800556c:	f001 f97a 	bl	8006864 <pvPortMalloc>
 8005570:	61b8      	str	r0, [r7, #24]

		if( pxNewQueue != NULL )
 8005572:	69bb      	ldr	r3, [r7, #24]
 8005574:	2b00      	cmp	r3, #0
 8005576:	d00f      	beq.n	8005598 <xQueueGenericCreate+0x70>
		{
			/* Jump past the queue structure to find the location of the queue
			storage area. */
			pucQueueStorage = ( ( uint8_t * ) pxNewQueue ) + sizeof( Queue_t );
 8005578:	69bb      	ldr	r3, [r7, #24]
 800557a:	3348      	adds	r3, #72	; 0x48
 800557c:	617b      	str	r3, [r7, #20]
			#if( configSUPPORT_STATIC_ALLOCATION == 1 )
			{
				/* Queues can be created either statically or dynamically, so
				note this task was created dynamically in case it is later
				deleted. */
				pxNewQueue->ucStaticallyAllocated = pdFALSE;
 800557e:	69bb      	ldr	r3, [r7, #24]
 8005580:	2200      	movs	r2, #0
 8005582:	f883 2046 	strb.w	r2, [r3, #70]	; 0x46
			}
			#endif /* configSUPPORT_STATIC_ALLOCATION */

			prvInitialiseNewQueue( uxQueueLength, uxItemSize, pucQueueStorage, ucQueueType, pxNewQueue );
 8005586:	79fa      	ldrb	r2, [r7, #7]
 8005588:	69bb      	ldr	r3, [r7, #24]
 800558a:	9300      	str	r3, [sp, #0]
 800558c:	4613      	mov	r3, r2
 800558e:	697a      	ldr	r2, [r7, #20]
 8005590:	68b9      	ldr	r1, [r7, #8]
 8005592:	68f8      	ldr	r0, [r7, #12]
 8005594:	f000 f805 	bl	80055a2 <prvInitialiseNewQueue>
		else
		{
			traceQUEUE_CREATE_FAILED( ucQueueType );
		}

		return pxNewQueue;
 8005598:	69bb      	ldr	r3, [r7, #24]
	}
 800559a:	4618      	mov	r0, r3
 800559c:	3720      	adds	r7, #32
 800559e:	46bd      	mov	sp, r7
 80055a0:	bd80      	pop	{r7, pc}

080055a2 <prvInitialiseNewQueue>:

#endif /* configSUPPORT_STATIC_ALLOCATION */
/*-----------------------------------------------------------*/

static void prvInitialiseNewQueue( const UBaseType_t uxQueueLength, const UBaseType_t uxItemSize, uint8_t *pucQueueStorage, const uint8_t ucQueueType, Queue_t *pxNewQueue )
{
 80055a2:	b580      	push	{r7, lr}
 80055a4:	b084      	sub	sp, #16
 80055a6:	af00      	add	r7, sp, #0
 80055a8:	60f8      	str	r0, [r7, #12]
 80055aa:	60b9      	str	r1, [r7, #8]
 80055ac:	607a      	str	r2, [r7, #4]
 80055ae:	70fb      	strb	r3, [r7, #3]
	/* Remove compiler warnings about unused parameters should
	configUSE_TRACE_FACILITY not be set to 1. */
	( void ) ucQueueType;

	if( uxItemSize == ( UBaseType_t ) 0 )
 80055b0:	68bb      	ldr	r3, [r7, #8]
 80055b2:	2b00      	cmp	r3, #0
 80055b4:	d103      	bne.n	80055be <prvInitialiseNewQueue+0x1c>
	{
		/* No RAM was allocated for the queue storage area, but PC head cannot
		be set to NULL because NULL is used as a key to say the queue is used as
		a mutex.  Therefore just set pcHead to point to the queue as a benign
		value that is known to be within the memory map. */
		pxNewQueue->pcHead = ( int8_t * ) pxNewQueue;
 80055b6:	69bb      	ldr	r3, [r7, #24]
 80055b8:	69ba      	ldr	r2, [r7, #24]
 80055ba:	601a      	str	r2, [r3, #0]
 80055bc:	e002      	b.n	80055c4 <prvInitialiseNewQueue+0x22>
	}
	else
	{
		/* Set the head to the start of the queue storage area. */
		pxNewQueue->pcHead = ( int8_t * ) pucQueueStorage;
 80055be:	69bb      	ldr	r3, [r7, #24]
 80055c0:	687a      	ldr	r2, [r7, #4]
 80055c2:	601a      	str	r2, [r3, #0]
	}

	/* Initialise the queue members as described where the queue type is
	defined. */
	pxNewQueue->uxLength = uxQueueLength;
 80055c4:	69bb      	ldr	r3, [r7, #24]
 80055c6:	68fa      	ldr	r2, [r7, #12]
 80055c8:	63da      	str	r2, [r3, #60]	; 0x3c
	pxNewQueue->uxItemSize = uxItemSize;
 80055ca:	69bb      	ldr	r3, [r7, #24]
 80055cc:	68ba      	ldr	r2, [r7, #8]
 80055ce:	641a      	str	r2, [r3, #64]	; 0x40
	( void ) xQueueGenericReset( pxNewQueue, pdTRUE );
 80055d0:	2101      	movs	r1, #1
 80055d2:	69b8      	ldr	r0, [r7, #24]
 80055d4:	f7ff ff40 	bl	8005458 <xQueueGenericReset>
	{
		pxNewQueue->pxQueueSetContainer = NULL;
	}
	#endif /* configUSE_QUEUE_SETS */

	traceQUEUE_CREATE( pxNewQueue );
 80055d8:	78fb      	ldrb	r3, [r7, #3]
 80055da:	68ba      	ldr	r2, [r7, #8]
 80055dc:	68f9      	ldr	r1, [r7, #12]
 80055de:	2073      	movs	r0, #115	; 0x73
 80055e0:	f002 f9ec 	bl	80079bc <SEGGER_SYSVIEW_RecordU32x3>
}
 80055e4:	bf00      	nop
 80055e6:	3710      	adds	r7, #16
 80055e8:	46bd      	mov	sp, r7
 80055ea:	bd80      	pop	{r7, pc}

080055ec <xTaskCreateStatic>:
									const uint32_t ulStackDepth,
									void * const pvParameters,
									UBaseType_t uxPriority,
									StackType_t * const puxStackBuffer,
									StaticTask_t * const pxTaskBuffer )
	{
 80055ec:	b580      	push	{r7, lr}
 80055ee:	b08e      	sub	sp, #56	; 0x38
 80055f0:	af04      	add	r7, sp, #16
 80055f2:	60f8      	str	r0, [r7, #12]
 80055f4:	60b9      	str	r1, [r7, #8]
 80055f6:	607a      	str	r2, [r7, #4]
 80055f8:	603b      	str	r3, [r7, #0]
	TCB_t *pxNewTCB;
	TaskHandle_t xReturn;

		configASSERT( puxStackBuffer != NULL );
 80055fa:	6b7b      	ldr	r3, [r7, #52]	; 0x34
 80055fc:	2b00      	cmp	r3, #0
 80055fe:	d109      	bne.n	8005614 <xTaskCreateStatic+0x28>
 8005600:	f04f 0350 	mov.w	r3, #80	; 0x50
 8005604:	f383 8811 	msr	BASEPRI, r3
 8005608:	f3bf 8f6f 	isb	sy
 800560c:	f3bf 8f4f 	dsb	sy
 8005610:	623b      	str	r3, [r7, #32]
 8005612:	e7fe      	b.n	8005612 <xTaskCreateStatic+0x26>
		configASSERT( pxTaskBuffer != NULL );
 8005614:	6bbb      	ldr	r3, [r7, #56]	; 0x38
 8005616:	2b00      	cmp	r3, #0
 8005618:	d109      	bne.n	800562e <xTaskCreateStatic+0x42>
 800561a:	f04f 0350 	mov.w	r3, #80	; 0x50
 800561e:	f383 8811 	msr	BASEPRI, r3
 8005622:	f3bf 8f6f 	isb	sy
 8005626:	f3bf 8f4f 	dsb	sy
 800562a:	61fb      	str	r3, [r7, #28]
 800562c:	e7fe      	b.n	800562c <xTaskCreateStatic+0x40>
		#if( configASSERT_DEFINED == 1 )
		{
			/* Sanity check that the size of the structure used to declare a
			variable of type StaticTask_t equals the size of the real task
			structure. */
			volatile size_t xSize = sizeof( StaticTask_t );
 800562e:	2354      	movs	r3, #84	; 0x54
 8005630:	613b      	str	r3, [r7, #16]
			configASSERT( xSize == sizeof( TCB_t ) );
 8005632:	693b      	ldr	r3, [r7, #16]
 8005634:	2b54      	cmp	r3, #84	; 0x54
 8005636:	d009      	beq.n	800564c <xTaskCreateStatic+0x60>
 8005638:	f04f 0350 	mov.w	r3, #80	; 0x50
 800563c:	f383 8811 	msr	BASEPRI, r3
 8005640:	f3bf 8f6f 	isb	sy
 8005644:	f3bf 8f4f 	dsb	sy
 8005648:	61bb      	str	r3, [r7, #24]
 800564a:	e7fe      	b.n	800564a <xTaskCreateStatic+0x5e>
		}
		#endif /* configASSERT_DEFINED */


		if( ( pxTaskBuffer != NULL ) && ( puxStackBuffer != NULL ) )
 800564c:	6bbb      	ldr	r3, [r7, #56]	; 0x38
 800564e:	2b00      	cmp	r3, #0
 8005650:	d01e      	beq.n	8005690 <xTaskCreateStatic+0xa4>
 8005652:	6b7b      	ldr	r3, [r7, #52]	; 0x34
 8005654:	2b00      	cmp	r3, #0
 8005656:	d01b      	beq.n	8005690 <xTaskCreateStatic+0xa4>
		{
			/* The memory used for the task's TCB and stack are passed into this
			function - use them. */
			pxNewTCB = ( TCB_t * ) pxTaskBuffer; /*lint !e740 Unusual cast is ok as the structures are designed to have the same alignment, and the size is checked by an assert. */
 8005658:	6bbb      	ldr	r3, [r7, #56]	; 0x38
 800565a:	627b      	str	r3, [r7, #36]	; 0x24
			pxNewTCB->pxStack = ( StackType_t * ) puxStackBuffer;
 800565c:	6a7b      	ldr	r3, [r7, #36]	; 0x24
 800565e:	6b7a      	ldr	r2, [r7, #52]	; 0x34
 8005660:	631a      	str	r2, [r3, #48]	; 0x30

			#if( tskSTATIC_AND_DYNAMIC_ALLOCATION_POSSIBLE != 0 ) /*lint !e731 Macro has been consolidated for readability reasons. */
			{
				/* Tasks can be created statically or dynamically, so note this
				task was created statically in case the task is later deleted. */
				pxNewTCB->ucStaticallyAllocated = tskSTATICALLY_ALLOCATED_STACK_AND_TCB;
 8005662:	6a7b      	ldr	r3, [r7, #36]	; 0x24
 8005664:	2202      	movs	r2, #2
 8005666:	f883 2051 	strb.w	r2, [r3, #81]	; 0x51
			}
			#endif /* configSUPPORT_DYNAMIC_ALLOCATION */

			prvInitialiseNewTask( pxTaskCode, pcName, ulStackDepth, pvParameters, uxPriority, &xReturn, pxNewTCB, NULL );
 800566a:	2300      	movs	r3, #0
 800566c:	9303      	str	r3, [sp, #12]
 800566e:	6a7b      	ldr	r3, [r7, #36]	; 0x24
 8005670:	9302      	str	r3, [sp, #8]
 8005672:	f107 0314 	add.w	r3, r7, #20
 8005676:	9301      	str	r3, [sp, #4]
 8005678:	6b3b      	ldr	r3, [r7, #48]	; 0x30
 800567a:	9300      	str	r3, [sp, #0]
 800567c:	683b      	ldr	r3, [r7, #0]
 800567e:	687a      	ldr	r2, [r7, #4]
 8005680:	68b9      	ldr	r1, [r7, #8]
 8005682:	68f8      	ldr	r0, [r7, #12]
 8005684:	f000 f850 	bl	8005728 <prvInitialiseNewTask>
			prvAddNewTaskToReadyList( pxNewTCB );
 8005688:	6a78      	ldr	r0, [r7, #36]	; 0x24
 800568a:	f000 f8cb 	bl	8005824 <prvAddNewTaskToReadyList>
 800568e:	e001      	b.n	8005694 <xTaskCreateStatic+0xa8>
		}
		else
		{
			xReturn = NULL;
 8005690:	2300      	movs	r3, #0
 8005692:	617b      	str	r3, [r7, #20]
		}

		return xReturn;
 8005694:	697b      	ldr	r3, [r7, #20]
	}
 8005696:	4618      	mov	r0, r3
 8005698:	3728      	adds	r7, #40	; 0x28
 800569a:	46bd      	mov	sp, r7
 800569c:	bd80      	pop	{r7, pc}

0800569e <xTaskCreate>:
							const char * const pcName,		/*lint !e971 Unqualified char types are allowed for strings and single characters only. */
							const configSTACK_DEPTH_TYPE usStackDepth,
							void * const pvParameters,
							UBaseType_t uxPriority,
							TaskHandle_t * const pxCreatedTask )
	{
 800569e:	b580      	push	{r7, lr}
 80056a0:	b08c      	sub	sp, #48	; 0x30
 80056a2:	af04      	add	r7, sp, #16
 80056a4:	60f8      	str	r0, [r7, #12]
 80056a6:	60b9      	str	r1, [r7, #8]
 80056a8:	603b      	str	r3, [r7, #0]
 80056aa:	4613      	mov	r3, r2
 80056ac:	80fb      	strh	r3, [r7, #6]
		#else /* portSTACK_GROWTH */
		{
		StackType_t *pxStack;

			/* Allocate space for the stack used by the task being created. */
			pxStack = ( StackType_t * ) pvPortMalloc( ( ( ( size_t ) usStackDepth ) * sizeof( StackType_t ) ) ); /*lint !e961 MISRA exception as the casts are only redundant for some ports. */
 80056ae:	88fb      	ldrh	r3, [r7, #6]
 80056b0:	009b      	lsls	r3, r3, #2
 80056b2:	4618      	mov	r0, r3
 80056b4:	f001 f8d6 	bl	8006864 <pvPortMalloc>
 80056b8:	6178      	str	r0, [r7, #20]

			if( pxStack != NULL )
 80056ba:	697b      	ldr	r3, [r7, #20]
 80056bc:	2b00      	cmp	r3, #0
 80056be:	d00e      	beq.n	80056de <xTaskCreate+0x40>
			{
				/* Allocate space for the TCB. */
				pxNewTCB = ( TCB_t * ) pvPortMalloc( sizeof( TCB_t ) ); /*lint !e961 MISRA exception as the casts are only redundant for some paths. */
 80056c0:	2054      	movs	r0, #84	; 0x54
 80056c2:	f001 f8cf 	bl	8006864 <pvPortMalloc>
 80056c6:	61f8      	str	r0, [r7, #28]

				if( pxNewTCB != NULL )
 80056c8:	69fb      	ldr	r3, [r7, #28]
 80056ca:	2b00      	cmp	r3, #0
 80056cc:	d003      	beq.n	80056d6 <xTaskCreate+0x38>
				{
					/* Store the stack location in the TCB. */
					pxNewTCB->pxStack = pxStack;
 80056ce:	69fb      	ldr	r3, [r7, #28]
 80056d0:	697a      	ldr	r2, [r7, #20]
 80056d2:	631a      	str	r2, [r3, #48]	; 0x30
 80056d4:	e005      	b.n	80056e2 <xTaskCreate+0x44>
				}
				else
				{
					/* The stack cannot be used as the TCB was not created.  Free
					it again. */
					vPortFree( pxStack );
 80056d6:	6978      	ldr	r0, [r7, #20]
 80056d8:	f001 f986 	bl	80069e8 <vPortFree>
 80056dc:	e001      	b.n	80056e2 <xTaskCreate+0x44>
				}
			}
			else
			{
				pxNewTCB = NULL;
 80056de:	2300      	movs	r3, #0
 80056e0:	61fb      	str	r3, [r7, #28]
			}
		}
		#endif /* portSTACK_GROWTH */

		if( pxNewTCB != NULL )
 80056e2:	69fb      	ldr	r3, [r7, #28]
 80056e4:	2b00      	cmp	r3, #0
 80056e6:	d017      	beq.n	8005718 <xTaskCreate+0x7a>
		{
			#if( tskSTATIC_AND_DYNAMIC_ALLOCATION_POSSIBLE != 0 ) /*lint !e731 Macro has been consolidated for readability reasons. */
			{
				/* Tasks can be created statically or dynamically, so note this
				task was created dynamically in case it is later deleted. */
				pxNewTCB->ucStaticallyAllocated = tskDYNAMICALLY_ALLOCATED_STACK_AND_TCB;
 80056e8:	69fb      	ldr	r3, [r7, #28]
 80056ea:	2200      	movs	r2, #0
 80056ec:	f883 2051 	strb.w	r2, [r3, #81]	; 0x51
			}
			#endif /* configSUPPORT_STATIC_ALLOCATION */

			prvInitialiseNewTask( pxTaskCode, pcName, ( uint32_t ) usStackDepth, pvParameters, uxPriority, pxCreatedTask, pxNewTCB, NULL );
 80056f0:	88fa      	ldrh	r2, [r7, #6]
 80056f2:	2300      	movs	r3, #0
 80056f4:	9303      	str	r3, [sp, #12]
 80056f6:	69fb      	ldr	r3, [r7, #28]
 80056f8:	9302      	str	r3, [sp, #8]
 80056fa:	6afb      	ldr	r3, [r7, #44]	; 0x2c
 80056fc:	9301      	str	r3, [sp, #4]
 80056fe:	6abb      	ldr	r3, [r7, #40]	; 0x28
 8005700:	9300      	str	r3, [sp, #0]
 8005702:	683b      	ldr	r3, [r7, #0]
 8005704:	68b9      	ldr	r1, [r7, #8]
 8005706:	68f8      	ldr	r0, [r7, #12]
 8005708:	f000 f80e 	bl	8005728 <prvInitialiseNewTask>
			prvAddNewTaskToReadyList( pxNewTCB );
 800570c:	69f8      	ldr	r0, [r7, #28]
 800570e:	f000 f889 	bl	8005824 <prvAddNewTaskToReadyList>
			xReturn = pdPASS;
 8005712:	2301      	movs	r3, #1
 8005714:	61bb      	str	r3, [r7, #24]
 8005716:	e002      	b.n	800571e <xTaskCreate+0x80>
		}
		else
		{
			xReturn = errCOULD_NOT_ALLOCATE_REQUIRED_MEMORY;
 8005718:	f04f 33ff 	mov.w	r3, #4294967295
 800571c:	61bb      	str	r3, [r7, #24]
		}

		return xReturn;
 800571e:	69bb      	ldr	r3, [r7, #24]
	}
 8005720:	4618      	mov	r0, r3
 8005722:	3720      	adds	r7, #32
 8005724:	46bd      	mov	sp, r7
 8005726:	bd80      	pop	{r7, pc}

08005728 <prvInitialiseNewTask>:
									void * const pvParameters,
									UBaseType_t uxPriority,
									TaskHandle_t * const pxCreatedTask,
									TCB_t *pxNewTCB,
									const MemoryRegion_t * const xRegions )
{
 8005728:	b580      	push	{r7, lr}
 800572a:	b088      	sub	sp, #32
 800572c:	af00      	add	r7, sp, #0
 800572e:	60f8      	str	r0, [r7, #12]
 8005730:	60b9      	str	r1, [r7, #8]
 8005732:	607a      	str	r2, [r7, #4]
 8005734:	603b      	str	r3, [r7, #0]
	grows from high memory to low (as per the 80x86) or vice versa.
	portSTACK_GROWTH is used to make the result positive or negative as required
	by the port. */
	#if( portSTACK_GROWTH < 0 )
	{
		pxTopOfStack = pxNewTCB->pxStack + ( ulStackDepth - ( uint32_t ) 1 );
 8005736:	6b3b      	ldr	r3, [r7, #48]	; 0x30
 8005738:	6b1a      	ldr	r2, [r3, #48]	; 0x30
 800573a:	687b      	ldr	r3, [r7, #4]
 800573c:	f103 4380 	add.w	r3, r3, #1073741824	; 0x40000000
 8005740:	3b01      	subs	r3, #1
 8005742:	009b      	lsls	r3, r3, #2
 8005744:	4413      	add	r3, r2
 8005746:	61bb      	str	r3, [r7, #24]
		pxTopOfStack = ( StackType_t * ) ( ( ( portPOINTER_SIZE_TYPE ) pxTopOfStack ) & ( ~( ( portPOINTER_SIZE_TYPE ) portBYTE_ALIGNMENT_MASK ) ) ); /*lint !e923 MISRA exception.  Avoiding casts between pointers and integers is not practical.  Size differences accounted for using portPOINTER_SIZE_TYPE type. */
 8005748:	69bb      	ldr	r3, [r7, #24]
 800574a:	f023 0307 	bic.w	r3, r3, #7
 800574e:	61bb      	str	r3, [r7, #24]

		/* Check the alignment of the calculated top of stack is correct. */
		configASSERT( ( ( ( portPOINTER_SIZE_TYPE ) pxTopOfStack & ( portPOINTER_SIZE_TYPE ) portBYTE_ALIGNMENT_MASK ) == 0UL ) );
 8005750:	69bb      	ldr	r3, [r7, #24]
 8005752:	f003 0307 	and.w	r3, r3, #7
 8005756:	2b00      	cmp	r3, #0
 8005758:	d009      	beq.n	800576e <prvInitialiseNewTask+0x46>
 800575a:	f04f 0350 	mov.w	r3, #80	; 0x50
 800575e:	f383 8811 	msr	BASEPRI, r3
 8005762:	f3bf 8f6f 	isb	sy
 8005766:	f3bf 8f4f 	dsb	sy
 800576a:	617b      	str	r3, [r7, #20]
 800576c:	e7fe      	b.n	800576c <prvInitialiseNewTask+0x44>
		pxNewTCB->pxEndOfStack = pxNewTCB->pxStack + ( ulStackDepth - ( uint32_t ) 1 );
	}
	#endif /* portSTACK_GROWTH */

	/* Store the task name in the TCB. */
	for( x = ( UBaseType_t ) 0; x < ( UBaseType_t ) configMAX_TASK_NAME_LEN; x++ )
 800576e:	2300      	movs	r3, #0
 8005770:	61fb      	str	r3, [r7, #28]
 8005772:	e012      	b.n	800579a <prvInitialiseNewTask+0x72>
	{
		pxNewTCB->pcTaskName[ x ] = pcName[ x ];
 8005774:	68ba      	ldr	r2, [r7, #8]
 8005776:	69fb      	ldr	r3, [r7, #28]
 8005778:	4413      	add	r3, r2
 800577a:	7819      	ldrb	r1, [r3, #0]
 800577c:	6b3a      	ldr	r2, [r7, #48]	; 0x30
 800577e:	69fb      	ldr	r3, [r7, #28]
 8005780:	4413      	add	r3, r2
 8005782:	3334      	adds	r3, #52	; 0x34
 8005784:	460a      	mov	r2, r1
 8005786:	701a      	strb	r2, [r3, #0]

		/* Don't copy all configMAX_TASK_NAME_LEN if the string is shorter than
		configMAX_TASK_NAME_LEN characters just in case the memory after the
		string is not accessible (extremely unlikely). */
		if( pcName[ x ] == 0x00 )
 8005788:	68ba      	ldr	r2, [r7, #8]
 800578a:	69fb      	ldr	r3, [r7, #28]
 800578c:	4413      	add	r3, r2
 800578e:	781b      	ldrb	r3, [r3, #0]
 8005790:	2b00      	cmp	r3, #0
 8005792:	d006      	beq.n	80057a2 <prvInitialiseNewTask+0x7a>
	for( x = ( UBaseType_t ) 0; x < ( UBaseType_t ) configMAX_TASK_NAME_LEN; x++ )
 8005794:	69fb      	ldr	r3, [r7, #28]
 8005796:	3301      	adds	r3, #1
 8005798:	61fb      	str	r3, [r7, #28]
 800579a:	69fb      	ldr	r3, [r7, #28]
 800579c:	2b0f      	cmp	r3, #15
 800579e:	d9e9      	bls.n	8005774 <prvInitialiseNewTask+0x4c>
 80057a0:	e000      	b.n	80057a4 <prvInitialiseNewTask+0x7c>
		{
			break;
 80057a2:	bf00      	nop
		}
	}

	/* Ensure the name string is terminated in the case that the string length
	was greater or equal to configMAX_TASK_NAME_LEN. */
	pxNewTCB->pcTaskName[ configMAX_TASK_NAME_LEN - 1 ] = '\0';
 80057a4:	6b3b      	ldr	r3, [r7, #48]	; 0x30
 80057a6:	2200      	movs	r2, #0
 80057a8:	f883 2043 	strb.w	r2, [r3, #67]	; 0x43

	/* This is used as an array index so must ensure it's not too large.  First
	remove the privilege bit if one is present. */
	if( uxPriority >= ( UBaseType_t ) configMAX_PRIORITIES )
 80057ac:	6abb      	ldr	r3, [r7, #40]	; 0x28
 80057ae:	2b06      	cmp	r3, #6
 80057b0:	d901      	bls.n	80057b6 <prvInitialiseNewTask+0x8e>
	{
		uxPriority = ( UBaseType_t ) configMAX_PRIORITIES - ( UBaseType_t ) 1U;
 80057b2:	2306      	movs	r3, #6
 80057b4:	62bb      	str	r3, [r7, #40]	; 0x28
	else
	{
		mtCOVERAGE_TEST_MARKER();
	}

	pxNewTCB->uxPriority = uxPriority;
 80057b6:	6b3b      	ldr	r3, [r7, #48]	; 0x30
 80057b8:	6aba      	ldr	r2, [r7, #40]	; 0x28
 80057ba:	62da      	str	r2, [r3, #44]	; 0x2c
	#if ( configUSE_MUTEXES == 1 )
	{
		pxNewTCB->uxBasePriority = uxPriority;
 80057bc:	6b3b      	ldr	r3, [r7, #48]	; 0x30
 80057be:	6aba      	ldr	r2, [r7, #40]	; 0x28
 80057c0:	645a      	str	r2, [r3, #68]	; 0x44
		pxNewTCB->uxMutexesHeld = 0;
 80057c2:	6b3b      	ldr	r3, [r7, #48]	; 0x30
 80057c4:	2200      	movs	r2, #0
 80057c6:	649a      	str	r2, [r3, #72]	; 0x48
	}
	#endif /* configUSE_MUTEXES */

	vListInitialiseItem( &( pxNewTCB->xStateListItem ) );
 80057c8:	6b3b      	ldr	r3, [r7, #48]	; 0x30
 80057ca:	3304      	adds	r3, #4
 80057cc:	4618      	mov	r0, r3
 80057ce:	f7ff fdb2 	bl	8005336 <vListInitialiseItem>
	vListInitialiseItem( &( pxNewTCB->xEventListItem ) );
 80057d2:	6b3b      	ldr	r3, [r7, #48]	; 0x30
 80057d4:	3318      	adds	r3, #24
 80057d6:	4618      	mov	r0, r3
 80057d8:	f7ff fdad 	bl	8005336 <vListInitialiseItem>

	/* Set the pxNewTCB as a link back from the ListItem_t.  This is so we can get
	back to	the containing TCB from a generic item in a list. */
	listSET_LIST_ITEM_OWNER( &( pxNewTCB->xStateListItem ), pxNewTCB );
 80057dc:	6b3b      	ldr	r3, [r7, #48]	; 0x30
 80057de:	6b3a      	ldr	r2, [r7, #48]	; 0x30
 80057e0:	611a      	str	r2, [r3, #16]

	/* Event lists are always in priority order. */
	listSET_LIST_ITEM_VALUE( &( pxNewTCB->xEventListItem ), ( TickType_t ) configMAX_PRIORITIES - ( TickType_t ) uxPriority ); /*lint !e961 MISRA exception as the casts are only redundant for some ports. */
 80057e2:	6abb      	ldr	r3, [r7, #40]	; 0x28
 80057e4:	f1c3 0207 	rsb	r2, r3, #7
 80057e8:	6b3b      	ldr	r3, [r7, #48]	; 0x30
 80057ea:	619a      	str	r2, [r3, #24]
	listSET_LIST_ITEM_OWNER( &( pxNewTCB->xEventListItem ), pxNewTCB );
 80057ec:	6b3b      	ldr	r3, [r7, #48]	; 0x30
 80057ee:	6b3a      	ldr	r2, [r7, #48]	; 0x30
 80057f0:	625a      	str	r2, [r3, #36]	; 0x24
	}
	#endif

	#if ( configUSE_TASK_NOTIFICATIONS == 1 )
	{
		pxNewTCB->ulNotifiedValue = 0;
 80057f2:	6b3b      	ldr	r3, [r7, #48]	; 0x30
 80057f4:	2200      	movs	r2, #0
 80057f6:	64da      	str	r2, [r3, #76]	; 0x4c
		pxNewTCB->ucNotifyState = taskNOT_WAITING_NOTIFICATION;
 80057f8:	6b3b      	ldr	r3, [r7, #48]	; 0x30
 80057fa:	2200      	movs	r2, #0
 80057fc:	f883 2050 	strb.w	r2, [r3, #80]	; 0x50
	{
		pxNewTCB->pxTopOfStack = pxPortInitialiseStack( pxTopOfStack, pxTaskCode, pvParameters, xRunPrivileged );
	}
	#else /* portUSING_MPU_WRAPPERS */
	{
		pxNewTCB->pxTopOfStack = pxPortInitialiseStack( pxTopOfStack, pxTaskCode, pvParameters );
 8005800:	683a      	ldr	r2, [r7, #0]
 8005802:	68f9      	ldr	r1, [r7, #12]
 8005804:	69b8      	ldr	r0, [r7, #24]
 8005806:	f000 fdef 	bl	80063e8 <pxPortInitialiseStack>
 800580a:	4602      	mov	r2, r0
 800580c:	6b3b      	ldr	r3, [r7, #48]	; 0x30
 800580e:	601a      	str	r2, [r3, #0]
	}
	#endif /* portUSING_MPU_WRAPPERS */

	if( ( void * ) pxCreatedTask != NULL )
 8005810:	6afb      	ldr	r3, [r7, #44]	; 0x2c
 8005812:	2b00      	cmp	r3, #0
 8005814:	d002      	beq.n	800581c <prvInitialiseNewTask+0xf4>
	{
		/* Pass the handle out in an anonymous way.  The handle can be used to
		change the created task's priority, delete the created task, etc.*/
		*pxCreatedTask = ( TaskHandle_t ) pxNewTCB;
 8005816:	6afb      	ldr	r3, [r7, #44]	; 0x2c
 8005818:	6b3a      	ldr	r2, [r7, #48]	; 0x30
 800581a:	601a      	str	r2, [r3, #0]
	}
	else
	{
		mtCOVERAGE_TEST_MARKER();
	}
}
 800581c:	bf00      	nop
 800581e:	3720      	adds	r7, #32
 8005820:	46bd      	mov	sp, r7
 8005822:	bd80      	pop	{r7, pc}

08005824 <prvAddNewTaskToReadyList>:
/*-----------------------------------------------------------*/

static void prvAddNewTaskToReadyList( TCB_t *pxNewTCB )
{
 8005824:	b5b0      	push	{r4, r5, r7, lr}
 8005826:	b084      	sub	sp, #16
 8005828:	af02      	add	r7, sp, #8
 800582a:	6078      	str	r0, [r7, #4]
	/* Ensure interrupts don't access the task lists while the lists are being
	updated. */
	taskENTER_CRITICAL();
 800582c:	f000 ff1a 	bl	8006664 <vPortEnterCritical>
	{
		uxCurrentNumberOfTasks++;
 8005830:	4b39      	ldr	r3, [pc, #228]	; (8005918 <prvAddNewTaskToReadyList+0xf4>)
 8005832:	681b      	ldr	r3, [r3, #0]
 8005834:	3301      	adds	r3, #1
 8005836:	4a38      	ldr	r2, [pc, #224]	; (8005918 <prvAddNewTaskToReadyList+0xf4>)
 8005838:	6013      	str	r3, [r2, #0]
		if( pxCurrentTCB == NULL )
 800583a:	4b38      	ldr	r3, [pc, #224]	; (800591c <prvAddNewTaskToReadyList+0xf8>)
 800583c:	681b      	ldr	r3, [r3, #0]
 800583e:	2b00      	cmp	r3, #0
 8005840:	d109      	bne.n	8005856 <prvAddNewTaskToReadyList+0x32>
		{
			/* There are no other tasks, or all the other tasks are in
			the suspended state - make this the current task. */
			pxCurrentTCB = pxNewTCB;
 8005842:	4a36      	ldr	r2, [pc, #216]	; (800591c <prvAddNewTaskToReadyList+0xf8>)
 8005844:	687b      	ldr	r3, [r7, #4]
 8005846:	6013      	str	r3, [r2, #0]

			if( uxCurrentNumberOfTasks == ( UBaseType_t ) 1 )
 8005848:	4b33      	ldr	r3, [pc, #204]	; (8005918 <prvAddNewTaskToReadyList+0xf4>)
 800584a:	681b      	ldr	r3, [r3, #0]
 800584c:	2b01      	cmp	r3, #1
 800584e:	d110      	bne.n	8005872 <prvAddNewTaskToReadyList+0x4e>
			{
				/* This is the first task to be created so do the preliminary
				initialisation required.  We will not recover if this call
				fails, but we will report the failure. */
				prvInitialiseTaskLists();
 8005850:	f000 fc94 	bl	800617c <prvInitialiseTaskLists>
 8005854:	e00d      	b.n	8005872 <prvAddNewTaskToReadyList+0x4e>
		else
		{
			/* If the scheduler is not already running, make this task the
			current task if it is the highest priority task to be created
			so far. */
			if( xSchedulerRunning == pdFALSE )
 8005856:	4b32      	ldr	r3, [pc, #200]	; (8005920 <prvAddNewTaskToReadyList+0xfc>)
 8005858:	681b      	ldr	r3, [r3, #0]
 800585a:	2b00      	cmp	r3, #0
 800585c:	d109      	bne.n	8005872 <prvAddNewTaskToReadyList+0x4e>
			{
				if( pxCurrentTCB->uxPriority <= pxNewTCB->uxPriority )
 800585e:	4b2f      	ldr	r3, [pc, #188]	; (800591c <prvAddNewTaskToReadyList+0xf8>)
 8005860:	681b      	ldr	r3, [r3, #0]
 8005862:	6ada      	ldr	r2, [r3, #44]	; 0x2c
 8005864:	687b      	ldr	r3, [r7, #4]
 8005866:	6adb      	ldr	r3, [r3, #44]	; 0x2c
 8005868:	429a      	cmp	r2, r3
 800586a:	d802      	bhi.n	8005872 <prvAddNewTaskToReadyList+0x4e>
				{
					pxCurrentTCB = pxNewTCB;
 800586c:	4a2b      	ldr	r2, [pc, #172]	; (800591c <prvAddNewTaskToReadyList+0xf8>)
 800586e:	687b      	ldr	r3, [r7, #4]
 8005870:	6013      	str	r3, [r2, #0]
			{
				mtCOVERAGE_TEST_MARKER();
			}
		}

		uxTaskNumber++;
 8005872:	4b2c      	ldr	r3, [pc, #176]	; (8005924 <prvAddNewTaskToReadyList+0x100>)
 8005874:	681b      	ldr	r3, [r3, #0]
 8005876:	3301      	adds	r3, #1
 8005878:	4a2a      	ldr	r2, [pc, #168]	; (8005924 <prvAddNewTaskToReadyList+0x100>)
 800587a:	6013      	str	r3, [r2, #0]
		{
			/* Add a counter into the TCB for tracing only. */
			pxNewTCB->uxTCBNumber = uxTaskNumber;
		}
		#endif /* configUSE_TRACE_FACILITY */
		traceTASK_CREATE( pxNewTCB );
 800587c:	687b      	ldr	r3, [r7, #4]
 800587e:	2b00      	cmp	r3, #0
 8005880:	d016      	beq.n	80058b0 <prvAddNewTaskToReadyList+0x8c>
 8005882:	687b      	ldr	r3, [r7, #4]
 8005884:	4618      	mov	r0, r3
 8005886:	f002 fc6b 	bl	8008160 <SEGGER_SYSVIEW_OnTaskCreate>
 800588a:	6878      	ldr	r0, [r7, #4]
 800588c:	687b      	ldr	r3, [r7, #4]
 800588e:	f103 0134 	add.w	r1, r3, #52	; 0x34
 8005892:	687b      	ldr	r3, [r7, #4]
 8005894:	6ada      	ldr	r2, [r3, #44]	; 0x2c
 8005896:	687b      	ldr	r3, [r7, #4]
 8005898:	6b1b      	ldr	r3, [r3, #48]	; 0x30
 800589a:	461d      	mov	r5, r3
 800589c:	687b      	ldr	r3, [r7, #4]
 800589e:	681b      	ldr	r3, [r3, #0]
 80058a0:	461c      	mov	r4, r3
 80058a2:	687b      	ldr	r3, [r7, #4]
 80058a4:	6b1b      	ldr	r3, [r3, #48]	; 0x30
 80058a6:	1ae3      	subs	r3, r4, r3
 80058a8:	9300      	str	r3, [sp, #0]
 80058aa:	462b      	mov	r3, r5
 80058ac:	f001 fa56 	bl	8006d5c <SYSVIEW_AddTask>

		prvAddTaskToReadyList( pxNewTCB );
 80058b0:	687b      	ldr	r3, [r7, #4]
 80058b2:	4618      	mov	r0, r3
 80058b4:	f002 fcd8 	bl	8008268 <SEGGER_SYSVIEW_OnTaskStartReady>
 80058b8:	687b      	ldr	r3, [r7, #4]
 80058ba:	6adb      	ldr	r3, [r3, #44]	; 0x2c
 80058bc:	2201      	movs	r2, #1
 80058be:	409a      	lsls	r2, r3
 80058c0:	4b19      	ldr	r3, [pc, #100]	; (8005928 <prvAddNewTaskToReadyList+0x104>)
 80058c2:	681b      	ldr	r3, [r3, #0]
 80058c4:	4313      	orrs	r3, r2
 80058c6:	4a18      	ldr	r2, [pc, #96]	; (8005928 <prvAddNewTaskToReadyList+0x104>)
 80058c8:	6013      	str	r3, [r2, #0]
 80058ca:	687b      	ldr	r3, [r7, #4]
 80058cc:	6ada      	ldr	r2, [r3, #44]	; 0x2c
 80058ce:	4613      	mov	r3, r2
 80058d0:	009b      	lsls	r3, r3, #2
 80058d2:	4413      	add	r3, r2
 80058d4:	009b      	lsls	r3, r3, #2
 80058d6:	4a15      	ldr	r2, [pc, #84]	; (800592c <prvAddNewTaskToReadyList+0x108>)
 80058d8:	441a      	add	r2, r3
 80058da:	687b      	ldr	r3, [r7, #4]
 80058dc:	3304      	adds	r3, #4
 80058de:	4619      	mov	r1, r3
 80058e0:	4610      	mov	r0, r2
 80058e2:	f7ff fd34 	bl	800534e <vListInsertEnd>

		portSETUP_TCB( pxNewTCB );
	}
	taskEXIT_CRITICAL();
 80058e6:	f000 feeb 	bl	80066c0 <vPortExitCritical>

	if( xSchedulerRunning != pdFALSE )
 80058ea:	4b0d      	ldr	r3, [pc, #52]	; (8005920 <prvAddNewTaskToReadyList+0xfc>)
 80058ec:	681b      	ldr	r3, [r3, #0]
 80058ee:	2b00      	cmp	r3, #0
 80058f0:	d00e      	beq.n	8005910 <prvAddNewTaskToReadyList+0xec>
	{
		/* If the created task is of a higher priority than the current task
		then it should run now. */
		if( pxCurrentTCB->uxPriority < pxNewTCB->uxPriority )
 80058f2:	4b0a      	ldr	r3, [pc, #40]	; (800591c <prvAddNewTaskToReadyList+0xf8>)
 80058f4:	681b      	ldr	r3, [r3, #0]
 80058f6:	6ada      	ldr	r2, [r3, #44]	; 0x2c
 80058f8:	687b      	ldr	r3, [r7, #4]
 80058fa:	6adb      	ldr	r3, [r3, #44]	; 0x2c
 80058fc:	429a      	cmp	r2, r3
 80058fe:	d207      	bcs.n	8005910 <prvAddNewTaskToReadyList+0xec>
		{
			taskYIELD_IF_USING_PREEMPTION();
 8005900:	4b0b      	ldr	r3, [pc, #44]	; (8005930 <prvAddNewTaskToReadyList+0x10c>)
 8005902:	f04f 5280 	mov.w	r2, #268435456	; 0x10000000
 8005906:	601a      	str	r2, [r3, #0]
 8005908:	f3bf 8f4f 	dsb	sy
 800590c:	f3bf 8f6f 	isb	sy
	}
	else
	{
		mtCOVERAGE_TEST_MARKER();
	}
}
 8005910:	bf00      	nop
 8005912:	3708      	adds	r7, #8
 8005914:	46bd      	mov	sp, r7
 8005916:	bdb0      	pop	{r4, r5, r7, pc}
 8005918:	20000588 	.word	0x20000588
 800591c:	20000488 	.word	0x20000488
 8005920:	20000594 	.word	0x20000594
 8005924:	200005a4 	.word	0x200005a4
 8005928:	20000590 	.word	0x20000590
 800592c:	2000048c 	.word	0x2000048c
 8005930:	e000ed04 	.word	0xe000ed04

08005934 <vTaskDelete>:
/*-----------------------------------------------------------*/

#if ( INCLUDE_vTaskDelete == 1 )

	void vTaskDelete( TaskHandle_t xTaskToDelete )
	{
 8005934:	b580      	push	{r7, lr}
 8005936:	b084      	sub	sp, #16
 8005938:	af00      	add	r7, sp, #0
 800593a:	6078      	str	r0, [r7, #4]
	TCB_t *pxTCB;

		taskENTER_CRITICAL();
 800593c:	f000 fe92 	bl	8006664 <vPortEnterCritical>
		{
			/* If null is passed in here then it is the calling task that is
			being deleted. */
			pxTCB = prvGetTCBFromHandle( xTaskToDelete );
 8005940:	687b      	ldr	r3, [r7, #4]
 8005942:	2b00      	cmp	r3, #0
 8005944:	d102      	bne.n	800594c <vTaskDelete+0x18>
 8005946:	4b3f      	ldr	r3, [pc, #252]	; (8005a44 <vTaskDelete+0x110>)
 8005948:	681b      	ldr	r3, [r3, #0]
 800594a:	e000      	b.n	800594e <vTaskDelete+0x1a>
 800594c:	687b      	ldr	r3, [r7, #4]
 800594e:	60fb      	str	r3, [r7, #12]

			/* Remove task from the ready list. */
			if( uxListRemove( &( pxTCB->xStateListItem ) ) == ( UBaseType_t ) 0 )
 8005950:	68fb      	ldr	r3, [r7, #12]
 8005952:	3304      	adds	r3, #4
 8005954:	4618      	mov	r0, r3
 8005956:	f7ff fd55 	bl	8005404 <uxListRemove>
 800595a:	4603      	mov	r3, r0
 800595c:	2b00      	cmp	r3, #0
 800595e:	d115      	bne.n	800598c <vTaskDelete+0x58>
			{
				taskRESET_READY_PRIORITY( pxTCB->uxPriority );
 8005960:	68fb      	ldr	r3, [r7, #12]
 8005962:	6ada      	ldr	r2, [r3, #44]	; 0x2c
 8005964:	4938      	ldr	r1, [pc, #224]	; (8005a48 <vTaskDelete+0x114>)
 8005966:	4613      	mov	r3, r2
 8005968:	009b      	lsls	r3, r3, #2
 800596a:	4413      	add	r3, r2
 800596c:	009b      	lsls	r3, r3, #2
 800596e:	440b      	add	r3, r1
 8005970:	681b      	ldr	r3, [r3, #0]
 8005972:	2b00      	cmp	r3, #0
 8005974:	d10a      	bne.n	800598c <vTaskDelete+0x58>
 8005976:	68fb      	ldr	r3, [r7, #12]
 8005978:	6adb      	ldr	r3, [r3, #44]	; 0x2c
 800597a:	2201      	movs	r2, #1
 800597c:	fa02 f303 	lsl.w	r3, r2, r3
 8005980:	43da      	mvns	r2, r3
 8005982:	4b32      	ldr	r3, [pc, #200]	; (8005a4c <vTaskDelete+0x118>)
 8005984:	681b      	ldr	r3, [r3, #0]
 8005986:	4013      	ands	r3, r2
 8005988:	4a30      	ldr	r2, [pc, #192]	; (8005a4c <vTaskDelete+0x118>)
 800598a:	6013      	str	r3, [r2, #0]
			{
				mtCOVERAGE_TEST_MARKER();
			}

			/* Is the task waiting on an event also? */
			if( listLIST_ITEM_CONTAINER( &( pxTCB->xEventListItem ) ) != NULL )
 800598c:	68fb      	ldr	r3, [r7, #12]
 800598e:	6a9b      	ldr	r3, [r3, #40]	; 0x28
 8005990:	2b00      	cmp	r3, #0
 8005992:	d004      	beq.n	800599e <vTaskDelete+0x6a>
			{
				( void ) uxListRemove( &( pxTCB->xEventListItem ) );
 8005994:	68fb      	ldr	r3, [r7, #12]
 8005996:	3318      	adds	r3, #24
 8005998:	4618      	mov	r0, r3
 800599a:	f7ff fd33 	bl	8005404 <uxListRemove>

			/* Increment the uxTaskNumber also so kernel aware debuggers can
			detect that the task lists need re-generating.  This is done before
			portPRE_TASK_DELETE_HOOK() as in the Windows port that macro will
			not return. */
			uxTaskNumber++;
 800599e:	4b2c      	ldr	r3, [pc, #176]	; (8005a50 <vTaskDelete+0x11c>)
 80059a0:	681b      	ldr	r3, [r3, #0]
 80059a2:	3301      	adds	r3, #1
 80059a4:	4a2a      	ldr	r2, [pc, #168]	; (8005a50 <vTaskDelete+0x11c>)
 80059a6:	6013      	str	r3, [r2, #0]

			if( pxTCB == pxCurrentTCB )
 80059a8:	4b26      	ldr	r3, [pc, #152]	; (8005a44 <vTaskDelete+0x110>)
 80059aa:	681b      	ldr	r3, [r3, #0]
 80059ac:	68fa      	ldr	r2, [r7, #12]
 80059ae:	429a      	cmp	r2, r3
 80059b0:	d10b      	bne.n	80059ca <vTaskDelete+0x96>
				/* A task is deleting itself.  This cannot complete within the
				task itself, as a context switch to another task is required.
				Place the task in the termination list.  The idle task will
				check the termination list and free up any memory allocated by
				the scheduler for the TCB and stack of the deleted task. */
				vListInsertEnd( &xTasksWaitingTermination, &( pxTCB->xStateListItem ) );
 80059b2:	68fb      	ldr	r3, [r7, #12]
 80059b4:	3304      	adds	r3, #4
 80059b6:	4619      	mov	r1, r3
 80059b8:	4826      	ldr	r0, [pc, #152]	; (8005a54 <vTaskDelete+0x120>)
 80059ba:	f7ff fcc8 	bl	800534e <vListInsertEnd>

				/* Increment the ucTasksDeleted variable so the idle task knows
				there is a task that has been deleted and that it should therefore
				check the xTasksWaitingTermination list. */
				++uxDeletedTasksWaitingCleanUp;
 80059be:	4b26      	ldr	r3, [pc, #152]	; (8005a58 <vTaskDelete+0x124>)
 80059c0:	681b      	ldr	r3, [r3, #0]
 80059c2:	3301      	adds	r3, #1
 80059c4:	4a24      	ldr	r2, [pc, #144]	; (8005a58 <vTaskDelete+0x124>)
 80059c6:	6013      	str	r3, [r2, #0]
 80059c8:	e009      	b.n	80059de <vTaskDelete+0xaa>
				required. */
				portPRE_TASK_DELETE_HOOK( pxTCB, &xYieldPending );
			}
			else
			{
				--uxCurrentNumberOfTasks;
 80059ca:	4b24      	ldr	r3, [pc, #144]	; (8005a5c <vTaskDelete+0x128>)
 80059cc:	681b      	ldr	r3, [r3, #0]
 80059ce:	3b01      	subs	r3, #1
 80059d0:	4a22      	ldr	r2, [pc, #136]	; (8005a5c <vTaskDelete+0x128>)
 80059d2:	6013      	str	r3, [r2, #0]
				prvDeleteTCB( pxTCB );
 80059d4:	68f8      	ldr	r0, [r7, #12]
 80059d6:	f000 fc3d 	bl	8006254 <prvDeleteTCB>

				/* Reset the next expected unblock time in case it referred to
				the task that has just been deleted. */
				prvResetNextTaskUnblockTime();
 80059da:	f000 fc69 	bl	80062b0 <prvResetNextTaskUnblockTime>
			}

			traceTASK_DELETE( pxTCB );
 80059de:	68fb      	ldr	r3, [r7, #12]
 80059e0:	4618      	mov	r0, r3
 80059e2:	f002 fce3 	bl	80083ac <SEGGER_SYSVIEW_ShrinkId>
 80059e6:	4603      	mov	r3, r0
 80059e8:	4619      	mov	r1, r3
 80059ea:	2022      	movs	r0, #34	; 0x22
 80059ec:	f001 ff50 	bl	8007890 <SEGGER_SYSVIEW_RecordU32>
 80059f0:	68fb      	ldr	r3, [r7, #12]
 80059f2:	4618      	mov	r0, r3
 80059f4:	f001 fa1a 	bl	8006e2c <SYSVIEW_DeleteTask>
		}
		taskEXIT_CRITICAL();
 80059f8:	f000 fe62 	bl	80066c0 <vPortExitCritical>

		/* Force a reschedule if it is the currently running task that has just
		been deleted. */
		if( xSchedulerRunning != pdFALSE )
 80059fc:	4b18      	ldr	r3, [pc, #96]	; (8005a60 <vTaskDelete+0x12c>)
 80059fe:	681b      	ldr	r3, [r3, #0]
 8005a00:	2b00      	cmp	r3, #0
 8005a02:	d01a      	beq.n	8005a3a <vTaskDelete+0x106>
		{
			if( pxTCB == pxCurrentTCB )
 8005a04:	4b0f      	ldr	r3, [pc, #60]	; (8005a44 <vTaskDelete+0x110>)
 8005a06:	681b      	ldr	r3, [r3, #0]
 8005a08:	68fa      	ldr	r2, [r7, #12]
 8005a0a:	429a      	cmp	r2, r3
 8005a0c:	d115      	bne.n	8005a3a <vTaskDelete+0x106>
			{
				configASSERT( uxSchedulerSuspended == 0 );
 8005a0e:	4b15      	ldr	r3, [pc, #84]	; (8005a64 <vTaskDelete+0x130>)
 8005a10:	681b      	ldr	r3, [r3, #0]
 8005a12:	2b00      	cmp	r3, #0
 8005a14:	d009      	beq.n	8005a2a <vTaskDelete+0xf6>
 8005a16:	f04f 0350 	mov.w	r3, #80	; 0x50
 8005a1a:	f383 8811 	msr	BASEPRI, r3
 8005a1e:	f3bf 8f6f 	isb	sy
 8005a22:	f3bf 8f4f 	dsb	sy
 8005a26:	60bb      	str	r3, [r7, #8]
 8005a28:	e7fe      	b.n	8005a28 <vTaskDelete+0xf4>
				portYIELD_WITHIN_API();
 8005a2a:	4b0f      	ldr	r3, [pc, #60]	; (8005a68 <vTaskDelete+0x134>)
 8005a2c:	f04f 5280 	mov.w	r2, #268435456	; 0x10000000
 8005a30:	601a      	str	r2, [r3, #0]
 8005a32:	f3bf 8f4f 	dsb	sy
 8005a36:	f3bf 8f6f 	isb	sy
			else
			{
				mtCOVERAGE_TEST_MARKER();
			}
		}
	}
 8005a3a:	bf00      	nop
 8005a3c:	3710      	adds	r7, #16
 8005a3e:	46bd      	mov	sp, r7
 8005a40:	bd80      	pop	{r7, pc}
 8005a42:	bf00      	nop
 8005a44:	20000488 	.word	0x20000488
 8005a48:	2000048c 	.word	0x2000048c
 8005a4c:	20000590 	.word	0x20000590
 8005a50:	200005a4 	.word	0x200005a4
 8005a54:	2000055c 	.word	0x2000055c
 8005a58:	20000570 	.word	0x20000570
 8005a5c:	20000588 	.word	0x20000588
 8005a60:	20000594 	.word	0x20000594
 8005a64:	200005b0 	.word	0x200005b0
 8005a68:	e000ed04 	.word	0xe000ed04

08005a6c <vTaskDelayUntil>:
/*-----------------------------------------------------------*/

#if ( INCLUDE_vTaskDelayUntil == 1 )

	void vTaskDelayUntil( TickType_t * const pxPreviousWakeTime, const TickType_t xTimeIncrement )
	{
 8005a6c:	b580      	push	{r7, lr}
 8005a6e:	b08a      	sub	sp, #40	; 0x28
 8005a70:	af00      	add	r7, sp, #0
 8005a72:	6078      	str	r0, [r7, #4]
 8005a74:	6039      	str	r1, [r7, #0]
	TickType_t xTimeToWake;
	BaseType_t xAlreadyYielded, xShouldDelay = pdFALSE;
 8005a76:	2300      	movs	r3, #0
 8005a78:	627b      	str	r3, [r7, #36]	; 0x24

		configASSERT( pxPreviousWakeTime );
 8005a7a:	687b      	ldr	r3, [r7, #4]
 8005a7c:	2b00      	cmp	r3, #0
 8005a7e:	d109      	bne.n	8005a94 <vTaskDelayUntil+0x28>
 8005a80:	f04f 0350 	mov.w	r3, #80	; 0x50
 8005a84:	f383 8811 	msr	BASEPRI, r3
 8005a88:	f3bf 8f6f 	isb	sy
 8005a8c:	f3bf 8f4f 	dsb	sy
 8005a90:	617b      	str	r3, [r7, #20]
 8005a92:	e7fe      	b.n	8005a92 <vTaskDelayUntil+0x26>
		configASSERT( ( xTimeIncrement > 0U ) );
 8005a94:	683b      	ldr	r3, [r7, #0]
 8005a96:	2b00      	cmp	r3, #0
 8005a98:	d109      	bne.n	8005aae <vTaskDelayUntil+0x42>
 8005a9a:	f04f 0350 	mov.w	r3, #80	; 0x50
 8005a9e:	f383 8811 	msr	BASEPRI, r3
 8005aa2:	f3bf 8f6f 	isb	sy
 8005aa6:	f3bf 8f4f 	dsb	sy
 8005aaa:	613b      	str	r3, [r7, #16]
 8005aac:	e7fe      	b.n	8005aac <vTaskDelayUntil+0x40>
		configASSERT( uxSchedulerSuspended == 0 );
 8005aae:	4b2b      	ldr	r3, [pc, #172]	; (8005b5c <vTaskDelayUntil+0xf0>)
 8005ab0:	681b      	ldr	r3, [r3, #0]
 8005ab2:	2b00      	cmp	r3, #0
 8005ab4:	d009      	beq.n	8005aca <vTaskDelayUntil+0x5e>
 8005ab6:	f04f 0350 	mov.w	r3, #80	; 0x50
 8005aba:	f383 8811 	msr	BASEPRI, r3
 8005abe:	f3bf 8f6f 	isb	sy
 8005ac2:	f3bf 8f4f 	dsb	sy
 8005ac6:	60fb      	str	r3, [r7, #12]
 8005ac8:	e7fe      	b.n	8005ac8 <vTaskDelayUntil+0x5c>

		vTaskSuspendAll();
 8005aca:	f000 f8e3 	bl	8005c94 <vTaskSuspendAll>
		{
			/* Minor optimisation.  The tick count cannot change in this
			block. */
			const TickType_t xConstTickCount = xTickCount;
 8005ace:	4b24      	ldr	r3, [pc, #144]	; (8005b60 <vTaskDelayUntil+0xf4>)
 8005ad0:	681b      	ldr	r3, [r3, #0]
 8005ad2:	623b      	str	r3, [r7, #32]

			/* Generate the tick time at which the task wants to wake. */
			xTimeToWake = *pxPreviousWakeTime + xTimeIncrement;
 8005ad4:	687b      	ldr	r3, [r7, #4]
 8005ad6:	681b      	ldr	r3, [r3, #0]
 8005ad8:	683a      	ldr	r2, [r7, #0]
 8005ada:	4413      	add	r3, r2
 8005adc:	61fb      	str	r3, [r7, #28]

			if( xConstTickCount < *pxPreviousWakeTime )
 8005ade:	687b      	ldr	r3, [r7, #4]
 8005ae0:	681b      	ldr	r3, [r3, #0]
 8005ae2:	6a3a      	ldr	r2, [r7, #32]
 8005ae4:	429a      	cmp	r2, r3
 8005ae6:	d20b      	bcs.n	8005b00 <vTaskDelayUntil+0x94>
				/* The tick count has overflowed since this function was
				lasted called.  In this case the only time we should ever
				actually delay is if the wake time has also	overflowed,
				and the wake time is greater than the tick time.  When this
				is the case it is as if neither time had overflowed. */
				if( ( xTimeToWake < *pxPreviousWakeTime ) && ( xTimeToWake > xConstTickCount ) )
 8005ae8:	687b      	ldr	r3, [r7, #4]
 8005aea:	681b      	ldr	r3, [r3, #0]
 8005aec:	69fa      	ldr	r2, [r7, #28]
 8005aee:	429a      	cmp	r2, r3
 8005af0:	d211      	bcs.n	8005b16 <vTaskDelayUntil+0xaa>
 8005af2:	69fa      	ldr	r2, [r7, #28]
 8005af4:	6a3b      	ldr	r3, [r7, #32]
 8005af6:	429a      	cmp	r2, r3
 8005af8:	d90d      	bls.n	8005b16 <vTaskDelayUntil+0xaa>
				{
					xShouldDelay = pdTRUE;
 8005afa:	2301      	movs	r3, #1
 8005afc:	627b      	str	r3, [r7, #36]	; 0x24
 8005afe:	e00a      	b.n	8005b16 <vTaskDelayUntil+0xaa>
			else
			{
				/* The tick time has not overflowed.  In this case we will
				delay if either the wake time has overflowed, and/or the
				tick time is less than the wake time. */
				if( ( xTimeToWake < *pxPreviousWakeTime ) || ( xTimeToWake > xConstTickCount ) )
 8005b00:	687b      	ldr	r3, [r7, #4]
 8005b02:	681b      	ldr	r3, [r3, #0]
 8005b04:	69fa      	ldr	r2, [r7, #28]
 8005b06:	429a      	cmp	r2, r3
 8005b08:	d303      	bcc.n	8005b12 <vTaskDelayUntil+0xa6>
 8005b0a:	69fa      	ldr	r2, [r7, #28]
 8005b0c:	6a3b      	ldr	r3, [r7, #32]
 8005b0e:	429a      	cmp	r2, r3
 8005b10:	d901      	bls.n	8005b16 <vTaskDelayUntil+0xaa>
				{
					xShouldDelay = pdTRUE;
 8005b12:	2301      	movs	r3, #1
 8005b14:	627b      	str	r3, [r7, #36]	; 0x24
					mtCOVERAGE_TEST_MARKER();
				}
			}

			/* Update the wake time ready for the next call. */
			*pxPreviousWakeTime = xTimeToWake;
 8005b16:	687b      	ldr	r3, [r7, #4]
 8005b18:	69fa      	ldr	r2, [r7, #28]
 8005b1a:	601a      	str	r2, [r3, #0]

			if( xShouldDelay != pdFALSE )
 8005b1c:	6a7b      	ldr	r3, [r7, #36]	; 0x24
 8005b1e:	2b00      	cmp	r3, #0
 8005b20:	d009      	beq.n	8005b36 <vTaskDelayUntil+0xca>
			{
				traceTASK_DELAY_UNTIL( xTimeToWake );
 8005b22:	2024      	movs	r0, #36	; 0x24
 8005b24:	f001 fe96 	bl	8007854 <SEGGER_SYSVIEW_RecordVoid>

				/* prvAddCurrentTaskToDelayedList() needs the block time, not
				the time to wake, so subtract the current tick count. */
				prvAddCurrentTaskToDelayedList( xTimeToWake - xConstTickCount, pdFALSE );
 8005b28:	69fa      	ldr	r2, [r7, #28]
 8005b2a:	6a3b      	ldr	r3, [r7, #32]
 8005b2c:	1ad3      	subs	r3, r2, r3
 8005b2e:	2100      	movs	r1, #0
 8005b30:	4618      	mov	r0, r3
 8005b32:	f000 fbe1 	bl	80062f8 <prvAddCurrentTaskToDelayedList>
			else
			{
				mtCOVERAGE_TEST_MARKER();
			}
		}
		xAlreadyYielded = xTaskResumeAll();
 8005b36:	f000 f8bb 	bl	8005cb0 <xTaskResumeAll>
 8005b3a:	61b8      	str	r0, [r7, #24]

		/* Force a reschedule if xTaskResumeAll has not already done so, we may
		have put ourselves to sleep. */
		if( xAlreadyYielded == pdFALSE )
 8005b3c:	69bb      	ldr	r3, [r7, #24]
 8005b3e:	2b00      	cmp	r3, #0
 8005b40:	d107      	bne.n	8005b52 <vTaskDelayUntil+0xe6>
		{
			portYIELD_WITHIN_API();
 8005b42:	4b08      	ldr	r3, [pc, #32]	; (8005b64 <vTaskDelayUntil+0xf8>)
 8005b44:	f04f 5280 	mov.w	r2, #268435456	; 0x10000000
 8005b48:	601a      	str	r2, [r3, #0]
 8005b4a:	f3bf 8f4f 	dsb	sy
 8005b4e:	f3bf 8f6f 	isb	sy
		}
		else
		{
			mtCOVERAGE_TEST_MARKER();
		}
	}
 8005b52:	bf00      	nop
 8005b54:	3728      	adds	r7, #40	; 0x28
 8005b56:	46bd      	mov	sp, r7
 8005b58:	bd80      	pop	{r7, pc}
 8005b5a:	bf00      	nop
 8005b5c:	200005b0 	.word	0x200005b0
 8005b60:	2000058c 	.word	0x2000058c
 8005b64:	e000ed04 	.word	0xe000ed04

08005b68 <vTaskDelay>:
/*-----------------------------------------------------------*/

#if ( INCLUDE_vTaskDelay == 1 )

	void vTaskDelay( const TickType_t xTicksToDelay )
	{
 8005b68:	b580      	push	{r7, lr}
 8005b6a:	b084      	sub	sp, #16
 8005b6c:	af00      	add	r7, sp, #0
 8005b6e:	6078      	str	r0, [r7, #4]
	BaseType_t xAlreadyYielded = pdFALSE;
 8005b70:	2300      	movs	r3, #0
 8005b72:	60fb      	str	r3, [r7, #12]

		/* A delay time of zero just forces a reschedule. */
		if( xTicksToDelay > ( TickType_t ) 0U )
 8005b74:	687b      	ldr	r3, [r7, #4]
 8005b76:	2b00      	cmp	r3, #0
 8005b78:	d01a      	beq.n	8005bb0 <vTaskDelay+0x48>
		{
			configASSERT( uxSchedulerSuspended == 0 );
 8005b7a:	4b15      	ldr	r3, [pc, #84]	; (8005bd0 <vTaskDelay+0x68>)
 8005b7c:	681b      	ldr	r3, [r3, #0]
 8005b7e:	2b00      	cmp	r3, #0
 8005b80:	d009      	beq.n	8005b96 <vTaskDelay+0x2e>
 8005b82:	f04f 0350 	mov.w	r3, #80	; 0x50
 8005b86:	f383 8811 	msr	BASEPRI, r3
 8005b8a:	f3bf 8f6f 	isb	sy
 8005b8e:	f3bf 8f4f 	dsb	sy
 8005b92:	60bb      	str	r3, [r7, #8]
 8005b94:	e7fe      	b.n	8005b94 <vTaskDelay+0x2c>
			vTaskSuspendAll();
 8005b96:	f000 f87d 	bl	8005c94 <vTaskSuspendAll>
			{
				traceTASK_DELAY();
 8005b9a:	6879      	ldr	r1, [r7, #4]
 8005b9c:	2023      	movs	r0, #35	; 0x23
 8005b9e:	f001 fe77 	bl	8007890 <SEGGER_SYSVIEW_RecordU32>
				list or removed from the blocked list until the scheduler
				is resumed.

				This task cannot be in an event list as it is the currently
				executing task. */
				prvAddCurrentTaskToDelayedList( xTicksToDelay, pdFALSE );
 8005ba2:	2100      	movs	r1, #0
 8005ba4:	6878      	ldr	r0, [r7, #4]
 8005ba6:	f000 fba7 	bl	80062f8 <prvAddCurrentTaskToDelayedList>
			}
			xAlreadyYielded = xTaskResumeAll();
 8005baa:	f000 f881 	bl	8005cb0 <xTaskResumeAll>
 8005bae:	60f8      	str	r0, [r7, #12]
			mtCOVERAGE_TEST_MARKER();
		}

		/* Force a reschedule if xTaskResumeAll has not already done so, we may
		have put ourselves to sleep. */
		if( xAlreadyYielded == pdFALSE )
 8005bb0:	68fb      	ldr	r3, [r7, #12]
 8005bb2:	2b00      	cmp	r3, #0
 8005bb4:	d107      	bne.n	8005bc6 <vTaskDelay+0x5e>
		{
			portYIELD_WITHIN_API();
 8005bb6:	4b07      	ldr	r3, [pc, #28]	; (8005bd4 <vTaskDelay+0x6c>)
 8005bb8:	f04f 5280 	mov.w	r2, #268435456	; 0x10000000
 8005bbc:	601a      	str	r2, [r3, #0]
 8005bbe:	f3bf 8f4f 	dsb	sy
 8005bc2:	f3bf 8f6f 	isb	sy
		}
		else
		{
			mtCOVERAGE_TEST_MARKER();
		}
	}
 8005bc6:	bf00      	nop
 8005bc8:	3710      	adds	r7, #16
 8005bca:	46bd      	mov	sp, r7
 8005bcc:	bd80      	pop	{r7, pc}
 8005bce:	bf00      	nop
 8005bd0:	200005b0 	.word	0x200005b0
 8005bd4:	e000ed04 	.word	0xe000ed04

08005bd8 <vTaskStartScheduler>:

#endif /* ( ( INCLUDE_xTaskResumeFromISR == 1 ) && ( INCLUDE_vTaskSuspend == 1 ) ) */
/*-----------------------------------------------------------*/

void vTaskStartScheduler( void )
{
 8005bd8:	b580      	push	{r7, lr}
 8005bda:	b08a      	sub	sp, #40	; 0x28
 8005bdc:	af04      	add	r7, sp, #16
BaseType_t xReturn;

	/* Add the idle task at the lowest priority. */
	#if( configSUPPORT_STATIC_ALLOCATION == 1 )
	{
		StaticTask_t *pxIdleTaskTCBBuffer = NULL;
 8005bde:	2300      	movs	r3, #0
 8005be0:	60bb      	str	r3, [r7, #8]
		StackType_t *pxIdleTaskStackBuffer = NULL;
 8005be2:	2300      	movs	r3, #0
 8005be4:	607b      	str	r3, [r7, #4]
		uint32_t ulIdleTaskStackSize;

		/* The Idle task is created using user provided RAM - obtain the
		address of the RAM then create the idle task. */
		vApplicationGetIdleTaskMemory( &pxIdleTaskTCBBuffer, &pxIdleTaskStackBuffer, &ulIdleTaskStackSize );
 8005be6:	463a      	mov	r2, r7
 8005be8:	1d39      	adds	r1, r7, #4
 8005bea:	f107 0308 	add.w	r3, r7, #8
 8005bee:	4618      	mov	r0, r3
 8005bf0:	f7fa faf4 	bl	80001dc <vApplicationGetIdleTaskMemory>
		xIdleTaskHandle = xTaskCreateStatic(	prvIdleTask,
 8005bf4:	6839      	ldr	r1, [r7, #0]
 8005bf6:	687b      	ldr	r3, [r7, #4]
 8005bf8:	68ba      	ldr	r2, [r7, #8]
 8005bfa:	9202      	str	r2, [sp, #8]
 8005bfc:	9301      	str	r3, [sp, #4]
 8005bfe:	2300      	movs	r3, #0
 8005c00:	9300      	str	r3, [sp, #0]
 8005c02:	2300      	movs	r3, #0
 8005c04:	460a      	mov	r2, r1
 8005c06:	491d      	ldr	r1, [pc, #116]	; (8005c7c <vTaskStartScheduler+0xa4>)
 8005c08:	481d      	ldr	r0, [pc, #116]	; (8005c80 <vTaskStartScheduler+0xa8>)
 8005c0a:	f7ff fcef 	bl	80055ec <xTaskCreateStatic>
 8005c0e:	4602      	mov	r2, r0
 8005c10:	4b1c      	ldr	r3, [pc, #112]	; (8005c84 <vTaskStartScheduler+0xac>)
 8005c12:	601a      	str	r2, [r3, #0]
												( void * ) NULL, /*lint !e961.  The cast is not redundant for all compilers. */
												( tskIDLE_PRIORITY | portPRIVILEGE_BIT ),
												pxIdleTaskStackBuffer,
												pxIdleTaskTCBBuffer ); /*lint !e961 MISRA exception, justified as it is not a redundant explicit cast to all supported compilers. */

		if( xIdleTaskHandle != NULL )
 8005c14:	4b1b      	ldr	r3, [pc, #108]	; (8005c84 <vTaskStartScheduler+0xac>)
 8005c16:	681b      	ldr	r3, [r3, #0]
 8005c18:	2b00      	cmp	r3, #0
 8005c1a:	d002      	beq.n	8005c22 <vTaskStartScheduler+0x4a>
		{
			xReturn = pdPASS;
 8005c1c:	2301      	movs	r3, #1
 8005c1e:	617b      	str	r3, [r7, #20]
 8005c20:	e001      	b.n	8005c26 <vTaskStartScheduler+0x4e>
		}
		else
		{
			xReturn = pdFAIL;
 8005c22:	2300      	movs	r3, #0
 8005c24:	617b      	str	r3, [r7, #20]
			mtCOVERAGE_TEST_MARKER();
		}
	}
	#endif /* configUSE_TIMERS */

	if( xReturn == pdPASS )
 8005c26:	697b      	ldr	r3, [r7, #20]
 8005c28:	2b01      	cmp	r3, #1
 8005c2a:	d115      	bne.n	8005c58 <vTaskStartScheduler+0x80>
 8005c2c:	f04f 0350 	mov.w	r3, #80	; 0x50
 8005c30:	f383 8811 	msr	BASEPRI, r3
 8005c34:	f3bf 8f6f 	isb	sy
 8005c38:	f3bf 8f4f 	dsb	sy
 8005c3c:	613b      	str	r3, [r7, #16]
			structure specific to the task that will run first. */
			_impure_ptr = &( pxCurrentTCB->xNewLib_reent );
		}
		#endif /* configUSE_NEWLIB_REENTRANT */

		xNextTaskUnblockTime = portMAX_DELAY;
 8005c3e:	4b12      	ldr	r3, [pc, #72]	; (8005c88 <vTaskStartScheduler+0xb0>)
 8005c40:	f04f 32ff 	mov.w	r2, #4294967295
 8005c44:	601a      	str	r2, [r3, #0]
		xSchedulerRunning = pdTRUE;
 8005c46:	4b11      	ldr	r3, [pc, #68]	; (8005c8c <vTaskStartScheduler+0xb4>)
 8005c48:	2201      	movs	r2, #1
 8005c4a:	601a      	str	r2, [r3, #0]
		xTickCount = ( TickType_t ) 0U;
 8005c4c:	4b10      	ldr	r3, [pc, #64]	; (8005c90 <vTaskStartScheduler+0xb8>)
 8005c4e:	2200      	movs	r2, #0
 8005c50:	601a      	str	r2, [r3, #0]
		FreeRTOSConfig.h file. */
		portCONFIGURE_TIMER_FOR_RUN_TIME_STATS();

		/* Setting up the timer tick is hardware specific and thus in the
		portable interface. */
		if( xPortStartScheduler() != pdFALSE )
 8005c52:	f000 fc41 	bl	80064d8 <xPortStartScheduler>
	}

	/* Prevent compiler warnings if INCLUDE_xTaskGetIdleTaskHandle is set to 0,
	meaning xIdleTaskHandle is not used anywhere else. */
	( void ) xIdleTaskHandle;
}
 8005c56:	e00d      	b.n	8005c74 <vTaskStartScheduler+0x9c>
		configASSERT( xReturn != errCOULD_NOT_ALLOCATE_REQUIRED_MEMORY );
 8005c58:	697b      	ldr	r3, [r7, #20]
 8005c5a:	f1b3 3fff 	cmp.w	r3, #4294967295
 8005c5e:	d109      	bne.n	8005c74 <vTaskStartScheduler+0x9c>
 8005c60:	f04f 0350 	mov.w	r3, #80	; 0x50
 8005c64:	f383 8811 	msr	BASEPRI, r3
 8005c68:	f3bf 8f6f 	isb	sy
 8005c6c:	f3bf 8f4f 	dsb	sy
 8005c70:	60fb      	str	r3, [r7, #12]
 8005c72:	e7fe      	b.n	8005c72 <vTaskStartScheduler+0x9a>
}
 8005c74:	bf00      	nop
 8005c76:	3718      	adds	r7, #24
 8005c78:	46bd      	mov	sp, r7
 8005c7a:	bd80      	pop	{r7, pc}
 8005c7c:	0800873c 	.word	0x0800873c
 8005c80:	0800614d 	.word	0x0800614d
 8005c84:	200005ac 	.word	0x200005ac
 8005c88:	200005a8 	.word	0x200005a8
 8005c8c:	20000594 	.word	0x20000594
 8005c90:	2000058c 	.word	0x2000058c

08005c94 <vTaskSuspendAll>:
	vPortEndScheduler();
}
/*----------------------------------------------------------*/

void vTaskSuspendAll( void )
{
 8005c94:	b480      	push	{r7}
 8005c96:	af00      	add	r7, sp, #0
	/* A critical section is not required as the variable is of type
	BaseType_t.  Please read Richard Barry's reply in the following link to a
	post in the FreeRTOS support forum before reporting this as a bug! -
	http://goo.gl/wu4acr */
	++uxSchedulerSuspended;
 8005c98:	4b04      	ldr	r3, [pc, #16]	; (8005cac <vTaskSuspendAll+0x18>)
 8005c9a:	681b      	ldr	r3, [r3, #0]
 8005c9c:	3301      	adds	r3, #1
 8005c9e:	4a03      	ldr	r2, [pc, #12]	; (8005cac <vTaskSuspendAll+0x18>)
 8005ca0:	6013      	str	r3, [r2, #0]
}
 8005ca2:	bf00      	nop
 8005ca4:	46bd      	mov	sp, r7
 8005ca6:	bc80      	pop	{r7}
 8005ca8:	4770      	bx	lr
 8005caa:	bf00      	nop
 8005cac:	200005b0 	.word	0x200005b0

08005cb0 <xTaskResumeAll>:

#endif /* configUSE_TICKLESS_IDLE */
/*----------------------------------------------------------*/

BaseType_t xTaskResumeAll( void )
{
 8005cb0:	b580      	push	{r7, lr}
 8005cb2:	b084      	sub	sp, #16
 8005cb4:	af00      	add	r7, sp, #0
TCB_t *pxTCB = NULL;
 8005cb6:	2300      	movs	r3, #0
 8005cb8:	60fb      	str	r3, [r7, #12]
BaseType_t xAlreadyYielded = pdFALSE;
 8005cba:	2300      	movs	r3, #0
 8005cbc:	60bb      	str	r3, [r7, #8]

	/* If uxSchedulerSuspended is zero then this function does not match a
	previous call to vTaskSuspendAll(). */
	configASSERT( uxSchedulerSuspended );
 8005cbe:	4b43      	ldr	r3, [pc, #268]	; (8005dcc <xTaskResumeAll+0x11c>)
 8005cc0:	681b      	ldr	r3, [r3, #0]
 8005cc2:	2b00      	cmp	r3, #0
 8005cc4:	d109      	bne.n	8005cda <xTaskResumeAll+0x2a>
 8005cc6:	f04f 0350 	mov.w	r3, #80	; 0x50
 8005cca:	f383 8811 	msr	BASEPRI, r3
 8005cce:	f3bf 8f6f 	isb	sy
 8005cd2:	f3bf 8f4f 	dsb	sy
 8005cd6:	603b      	str	r3, [r7, #0]
 8005cd8:	e7fe      	b.n	8005cd8 <xTaskResumeAll+0x28>
	/* It is possible that an ISR caused a task to be removed from an event
	list while the scheduler was suspended.  If this was the case then the
	removed task will have been added to the xPendingReadyList.  Once the
	scheduler has been resumed it is safe to move all the pending ready
	tasks from this list into their appropriate ready list. */
	taskENTER_CRITICAL();
 8005cda:	f000 fcc3 	bl	8006664 <vPortEnterCritical>
	{
		--uxSchedulerSuspended;
 8005cde:	4b3b      	ldr	r3, [pc, #236]	; (8005dcc <xTaskResumeAll+0x11c>)
 8005ce0:	681b      	ldr	r3, [r3, #0]
 8005ce2:	3b01      	subs	r3, #1
 8005ce4:	4a39      	ldr	r2, [pc, #228]	; (8005dcc <xTaskResumeAll+0x11c>)
 8005ce6:	6013      	str	r3, [r2, #0]

		if( uxSchedulerSuspended == ( UBaseType_t ) pdFALSE )
 8005ce8:	4b38      	ldr	r3, [pc, #224]	; (8005dcc <xTaskResumeAll+0x11c>)
 8005cea:	681b      	ldr	r3, [r3, #0]
 8005cec:	2b00      	cmp	r3, #0
 8005cee:	d165      	bne.n	8005dbc <xTaskResumeAll+0x10c>
		{
			if( uxCurrentNumberOfTasks > ( UBaseType_t ) 0U )
 8005cf0:	4b37      	ldr	r3, [pc, #220]	; (8005dd0 <xTaskResumeAll+0x120>)
 8005cf2:	681b      	ldr	r3, [r3, #0]
 8005cf4:	2b00      	cmp	r3, #0
 8005cf6:	d061      	beq.n	8005dbc <xTaskResumeAll+0x10c>
			{
				/* Move any readied tasks from the pending list into the
				appropriate ready list. */
				while( listLIST_IS_EMPTY( &xPendingReadyList ) == pdFALSE )
 8005cf8:	e032      	b.n	8005d60 <xTaskResumeAll+0xb0>
				{
					pxTCB = ( TCB_t * ) listGET_OWNER_OF_HEAD_ENTRY( ( &xPendingReadyList ) );
 8005cfa:	4b36      	ldr	r3, [pc, #216]	; (8005dd4 <xTaskResumeAll+0x124>)
 8005cfc:	68db      	ldr	r3, [r3, #12]
 8005cfe:	68db      	ldr	r3, [r3, #12]
 8005d00:	60fb      	str	r3, [r7, #12]
					( void ) uxListRemove( &( pxTCB->xEventListItem ) );
 8005d02:	68fb      	ldr	r3, [r7, #12]
 8005d04:	3318      	adds	r3, #24
 8005d06:	4618      	mov	r0, r3
 8005d08:	f7ff fb7c 	bl	8005404 <uxListRemove>
					( void ) uxListRemove( &( pxTCB->xStateListItem ) );
 8005d0c:	68fb      	ldr	r3, [r7, #12]
 8005d0e:	3304      	adds	r3, #4
 8005d10:	4618      	mov	r0, r3
 8005d12:	f7ff fb77 	bl	8005404 <uxListRemove>
					prvAddTaskToReadyList( pxTCB );
 8005d16:	68fb      	ldr	r3, [r7, #12]
 8005d18:	4618      	mov	r0, r3
 8005d1a:	f002 faa5 	bl	8008268 <SEGGER_SYSVIEW_OnTaskStartReady>
 8005d1e:	68fb      	ldr	r3, [r7, #12]
 8005d20:	6adb      	ldr	r3, [r3, #44]	; 0x2c
 8005d22:	2201      	movs	r2, #1
 8005d24:	409a      	lsls	r2, r3
 8005d26:	4b2c      	ldr	r3, [pc, #176]	; (8005dd8 <xTaskResumeAll+0x128>)
 8005d28:	681b      	ldr	r3, [r3, #0]
 8005d2a:	4313      	orrs	r3, r2
 8005d2c:	4a2a      	ldr	r2, [pc, #168]	; (8005dd8 <xTaskResumeAll+0x128>)
 8005d2e:	6013      	str	r3, [r2, #0]
 8005d30:	68fb      	ldr	r3, [r7, #12]
 8005d32:	6ada      	ldr	r2, [r3, #44]	; 0x2c
 8005d34:	4613      	mov	r3, r2
 8005d36:	009b      	lsls	r3, r3, #2
 8005d38:	4413      	add	r3, r2
 8005d3a:	009b      	lsls	r3, r3, #2
 8005d3c:	4a27      	ldr	r2, [pc, #156]	; (8005ddc <xTaskResumeAll+0x12c>)
 8005d3e:	441a      	add	r2, r3
 8005d40:	68fb      	ldr	r3, [r7, #12]
 8005d42:	3304      	adds	r3, #4
 8005d44:	4619      	mov	r1, r3
 8005d46:	4610      	mov	r0, r2
 8005d48:	f7ff fb01 	bl	800534e <vListInsertEnd>

					/* If the moved task has a priority higher than the current
					task then a yield must be performed. */
					if( pxTCB->uxPriority >= pxCurrentTCB->uxPriority )
 8005d4c:	68fb      	ldr	r3, [r7, #12]
 8005d4e:	6ada      	ldr	r2, [r3, #44]	; 0x2c
 8005d50:	4b23      	ldr	r3, [pc, #140]	; (8005de0 <xTaskResumeAll+0x130>)
 8005d52:	681b      	ldr	r3, [r3, #0]
 8005d54:	6adb      	ldr	r3, [r3, #44]	; 0x2c
 8005d56:	429a      	cmp	r2, r3
 8005d58:	d302      	bcc.n	8005d60 <xTaskResumeAll+0xb0>
					{
						xYieldPending = pdTRUE;
 8005d5a:	4b22      	ldr	r3, [pc, #136]	; (8005de4 <xTaskResumeAll+0x134>)
 8005d5c:	2201      	movs	r2, #1
 8005d5e:	601a      	str	r2, [r3, #0]
				while( listLIST_IS_EMPTY( &xPendingReadyList ) == pdFALSE )
 8005d60:	4b1c      	ldr	r3, [pc, #112]	; (8005dd4 <xTaskResumeAll+0x124>)
 8005d62:	681b      	ldr	r3, [r3, #0]
 8005d64:	2b00      	cmp	r3, #0
 8005d66:	d1c8      	bne.n	8005cfa <xTaskResumeAll+0x4a>
					{
						mtCOVERAGE_TEST_MARKER();
					}
				}

				if( pxTCB != NULL )
 8005d68:	68fb      	ldr	r3, [r7, #12]
 8005d6a:	2b00      	cmp	r3, #0
 8005d6c:	d001      	beq.n	8005d72 <xTaskResumeAll+0xc2>
					which may have prevented the next unblock time from being
					re-calculated, in which case re-calculate it now.  Mainly
					important for low power tickless implementations, where
					this can prevent an unnecessary exit from low power
					state. */
					prvResetNextTaskUnblockTime();
 8005d6e:	f000 fa9f 	bl	80062b0 <prvResetNextTaskUnblockTime>
				/* If any ticks occurred while the scheduler was suspended then
				they should be processed now.  This ensures the tick count does
				not	slip, and that any delayed tasks are resumed at the correct
				time. */
				{
					UBaseType_t uxPendedCounts = uxPendedTicks; /* Non-volatile copy. */
 8005d72:	4b1d      	ldr	r3, [pc, #116]	; (8005de8 <xTaskResumeAll+0x138>)
 8005d74:	681b      	ldr	r3, [r3, #0]
 8005d76:	607b      	str	r3, [r7, #4]

					if( uxPendedCounts > ( UBaseType_t ) 0U )
 8005d78:	687b      	ldr	r3, [r7, #4]
 8005d7a:	2b00      	cmp	r3, #0
 8005d7c:	d010      	beq.n	8005da0 <xTaskResumeAll+0xf0>
					{
						do
						{
							if( xTaskIncrementTick() != pdFALSE )
 8005d7e:	f000 f857 	bl	8005e30 <xTaskIncrementTick>
 8005d82:	4603      	mov	r3, r0
 8005d84:	2b00      	cmp	r3, #0
 8005d86:	d002      	beq.n	8005d8e <xTaskResumeAll+0xde>
							{
								xYieldPending = pdTRUE;
 8005d88:	4b16      	ldr	r3, [pc, #88]	; (8005de4 <xTaskResumeAll+0x134>)
 8005d8a:	2201      	movs	r2, #1
 8005d8c:	601a      	str	r2, [r3, #0]
							}
							else
							{
								mtCOVERAGE_TEST_MARKER();
							}
							--uxPendedCounts;
 8005d8e:	687b      	ldr	r3, [r7, #4]
 8005d90:	3b01      	subs	r3, #1
 8005d92:	607b      	str	r3, [r7, #4]
						} while( uxPendedCounts > ( UBaseType_t ) 0U );
 8005d94:	687b      	ldr	r3, [r7, #4]
 8005d96:	2b00      	cmp	r3, #0
 8005d98:	d1f1      	bne.n	8005d7e <xTaskResumeAll+0xce>

						uxPendedTicks = 0;
 8005d9a:	4b13      	ldr	r3, [pc, #76]	; (8005de8 <xTaskResumeAll+0x138>)
 8005d9c:	2200      	movs	r2, #0
 8005d9e:	601a      	str	r2, [r3, #0]
					{
						mtCOVERAGE_TEST_MARKER();
					}
				}

				if( xYieldPending != pdFALSE )
 8005da0:	4b10      	ldr	r3, [pc, #64]	; (8005de4 <xTaskResumeAll+0x134>)
 8005da2:	681b      	ldr	r3, [r3, #0]
 8005da4:	2b00      	cmp	r3, #0
 8005da6:	d009      	beq.n	8005dbc <xTaskResumeAll+0x10c>
				{
					#if( configUSE_PREEMPTION != 0 )
					{
						xAlreadyYielded = pdTRUE;
 8005da8:	2301      	movs	r3, #1
 8005daa:	60bb      	str	r3, [r7, #8]
					}
					#endif
					taskYIELD_IF_USING_PREEMPTION();
 8005dac:	4b0f      	ldr	r3, [pc, #60]	; (8005dec <xTaskResumeAll+0x13c>)
 8005dae:	f04f 5280 	mov.w	r2, #268435456	; 0x10000000
 8005db2:	601a      	str	r2, [r3, #0]
 8005db4:	f3bf 8f4f 	dsb	sy
 8005db8:	f3bf 8f6f 	isb	sy
		else
		{
			mtCOVERAGE_TEST_MARKER();
		}
	}
	taskEXIT_CRITICAL();
 8005dbc:	f000 fc80 	bl	80066c0 <vPortExitCritical>

	return xAlreadyYielded;
 8005dc0:	68bb      	ldr	r3, [r7, #8]
}
 8005dc2:	4618      	mov	r0, r3
 8005dc4:	3710      	adds	r7, #16
 8005dc6:	46bd      	mov	sp, r7
 8005dc8:	bd80      	pop	{r7, pc}
 8005dca:	bf00      	nop
 8005dcc:	200005b0 	.word	0x200005b0
 8005dd0:	20000588 	.word	0x20000588
 8005dd4:	20000548 	.word	0x20000548
 8005dd8:	20000590 	.word	0x20000590
 8005ddc:	2000048c 	.word	0x2000048c
 8005de0:	20000488 	.word	0x20000488
 8005de4:	2000059c 	.word	0x2000059c
 8005de8:	20000598 	.word	0x20000598
 8005dec:	e000ed04 	.word	0xe000ed04

08005df0 <xTaskGetTickCount>:
/*-----------------------------------------------------------*/

TickType_t xTaskGetTickCount( void )
{
 8005df0:	b480      	push	{r7}
 8005df2:	b083      	sub	sp, #12
 8005df4:	af00      	add	r7, sp, #0
TickType_t xTicks;

	/* Critical section required if running on a 16 bit processor. */
	portTICK_TYPE_ENTER_CRITICAL();
	{
		xTicks = xTickCount;
 8005df6:	4b04      	ldr	r3, [pc, #16]	; (8005e08 <xTaskGetTickCount+0x18>)
 8005df8:	681b      	ldr	r3, [r3, #0]
 8005dfa:	607b      	str	r3, [r7, #4]
	}
	portTICK_TYPE_EXIT_CRITICAL();

	return xTicks;
 8005dfc:	687b      	ldr	r3, [r7, #4]
}
 8005dfe:	4618      	mov	r0, r3
 8005e00:	370c      	adds	r7, #12
 8005e02:	46bd      	mov	sp, r7
 8005e04:	bc80      	pop	{r7}
 8005e06:	4770      	bx	lr
 8005e08:	2000058c 	.word	0x2000058c

08005e0c <xTaskGetTickCountFromISR>:
/*-----------------------------------------------------------*/

TickType_t xTaskGetTickCountFromISR( void )
{
 8005e0c:	b580      	push	{r7, lr}
 8005e0e:	b082      	sub	sp, #8
 8005e10:	af00      	add	r7, sp, #0
	that have been assigned a priority at or (logically) below the maximum
	system call	interrupt priority.  FreeRTOS maintains a separate interrupt
	safe API to ensure interrupt entry is as fast and as simple as possible.
	More information (albeit Cortex-M specific) is provided on the following
	link: http://www.freertos.org/RTOS-Cortex-M3-M4.html */
	portASSERT_IF_INTERRUPT_PRIORITY_INVALID();
 8005e12:	f000 fceb 	bl	80067ec <vPortValidateInterruptPriority>

	uxSavedInterruptStatus = portTICK_TYPE_SET_INTERRUPT_MASK_FROM_ISR();
 8005e16:	2300      	movs	r3, #0
 8005e18:	607b      	str	r3, [r7, #4]
	{
		xReturn = xTickCount;
 8005e1a:	4b04      	ldr	r3, [pc, #16]	; (8005e2c <xTaskGetTickCountFromISR+0x20>)
 8005e1c:	681b      	ldr	r3, [r3, #0]
 8005e1e:	603b      	str	r3, [r7, #0]
	}
	portTICK_TYPE_CLEAR_INTERRUPT_MASK_FROM_ISR( uxSavedInterruptStatus );

	return xReturn;
 8005e20:	683b      	ldr	r3, [r7, #0]
}
 8005e22:	4618      	mov	r0, r3
 8005e24:	3708      	adds	r7, #8
 8005e26:	46bd      	mov	sp, r7
 8005e28:	bd80      	pop	{r7, pc}
 8005e2a:	bf00      	nop
 8005e2c:	2000058c 	.word	0x2000058c

08005e30 <xTaskIncrementTick>:

#endif /* INCLUDE_xTaskAbortDelay */
/*----------------------------------------------------------*/

BaseType_t xTaskIncrementTick( void )
{
 8005e30:	b580      	push	{r7, lr}
 8005e32:	b086      	sub	sp, #24
 8005e34:	af00      	add	r7, sp, #0
TCB_t * pxTCB;
TickType_t xItemValue;
BaseType_t xSwitchRequired = pdFALSE;
 8005e36:	2300      	movs	r3, #0
 8005e38:	617b      	str	r3, [r7, #20]

	/* Called by the portable layer each time a tick interrupt occurs.
	Increments the tick then checks to see if the new tick value will cause any
	tasks to be unblocked. */
	traceTASK_INCREMENT_TICK( xTickCount );
	if( uxSchedulerSuspended == ( UBaseType_t ) pdFALSE )
 8005e3a:	4b52      	ldr	r3, [pc, #328]	; (8005f84 <xTaskIncrementTick+0x154>)
 8005e3c:	681b      	ldr	r3, [r3, #0]
 8005e3e:	2b00      	cmp	r3, #0
 8005e40:	f040 8090 	bne.w	8005f64 <xTaskIncrementTick+0x134>
	{
		/* Minor optimisation.  The tick count cannot change in this
		block. */
		const TickType_t xConstTickCount = xTickCount + ( TickType_t ) 1;
 8005e44:	4b50      	ldr	r3, [pc, #320]	; (8005f88 <xTaskIncrementTick+0x158>)
 8005e46:	681b      	ldr	r3, [r3, #0]
 8005e48:	3301      	adds	r3, #1
 8005e4a:	613b      	str	r3, [r7, #16]

		/* Increment the RTOS tick, switching the delayed and overflowed
		delayed lists if it wraps to 0. */
		xTickCount = xConstTickCount;
 8005e4c:	4a4e      	ldr	r2, [pc, #312]	; (8005f88 <xTaskIncrementTick+0x158>)
 8005e4e:	693b      	ldr	r3, [r7, #16]
 8005e50:	6013      	str	r3, [r2, #0]

		if( xConstTickCount == ( TickType_t ) 0U ) /*lint !e774 'if' does not always evaluate to false as it is looking for an overflow. */
 8005e52:	693b      	ldr	r3, [r7, #16]
 8005e54:	2b00      	cmp	r3, #0
 8005e56:	d11f      	bne.n	8005e98 <xTaskIncrementTick+0x68>
		{
			taskSWITCH_DELAYED_LISTS();
 8005e58:	4b4c      	ldr	r3, [pc, #304]	; (8005f8c <xTaskIncrementTick+0x15c>)
 8005e5a:	681b      	ldr	r3, [r3, #0]
 8005e5c:	681b      	ldr	r3, [r3, #0]
 8005e5e:	2b00      	cmp	r3, #0
 8005e60:	d009      	beq.n	8005e76 <xTaskIncrementTick+0x46>
 8005e62:	f04f 0350 	mov.w	r3, #80	; 0x50
 8005e66:	f383 8811 	msr	BASEPRI, r3
 8005e6a:	f3bf 8f6f 	isb	sy
 8005e6e:	f3bf 8f4f 	dsb	sy
 8005e72:	603b      	str	r3, [r7, #0]
 8005e74:	e7fe      	b.n	8005e74 <xTaskIncrementTick+0x44>
 8005e76:	4b45      	ldr	r3, [pc, #276]	; (8005f8c <xTaskIncrementTick+0x15c>)
 8005e78:	681b      	ldr	r3, [r3, #0]
 8005e7a:	60fb      	str	r3, [r7, #12]
 8005e7c:	4b44      	ldr	r3, [pc, #272]	; (8005f90 <xTaskIncrementTick+0x160>)
 8005e7e:	681b      	ldr	r3, [r3, #0]
 8005e80:	4a42      	ldr	r2, [pc, #264]	; (8005f8c <xTaskIncrementTick+0x15c>)
 8005e82:	6013      	str	r3, [r2, #0]
 8005e84:	4a42      	ldr	r2, [pc, #264]	; (8005f90 <xTaskIncrementTick+0x160>)
 8005e86:	68fb      	ldr	r3, [r7, #12]
 8005e88:	6013      	str	r3, [r2, #0]
 8005e8a:	4b42      	ldr	r3, [pc, #264]	; (8005f94 <xTaskIncrementTick+0x164>)
 8005e8c:	681b      	ldr	r3, [r3, #0]
 8005e8e:	3301      	adds	r3, #1
 8005e90:	4a40      	ldr	r2, [pc, #256]	; (8005f94 <xTaskIncrementTick+0x164>)
 8005e92:	6013      	str	r3, [r2, #0]
 8005e94:	f000 fa0c 	bl	80062b0 <prvResetNextTaskUnblockTime>

		/* See if this tick has made a timeout expire.  Tasks are stored in
		the	queue in the order of their wake time - meaning once one task
		has been found whose block time has not expired there is no need to
		look any further down the list. */
		if( xConstTickCount >= xNextTaskUnblockTime )
 8005e98:	4b3f      	ldr	r3, [pc, #252]	; (8005f98 <xTaskIncrementTick+0x168>)
 8005e9a:	681b      	ldr	r3, [r3, #0]
 8005e9c:	693a      	ldr	r2, [r7, #16]
 8005e9e:	429a      	cmp	r2, r3
 8005ea0:	d351      	bcc.n	8005f46 <xTaskIncrementTick+0x116>
		{
			for( ;; )
			{
				if( listLIST_IS_EMPTY( pxDelayedTaskList ) != pdFALSE )
 8005ea2:	4b3a      	ldr	r3, [pc, #232]	; (8005f8c <xTaskIncrementTick+0x15c>)
 8005ea4:	681b      	ldr	r3, [r3, #0]
 8005ea6:	681b      	ldr	r3, [r3, #0]
 8005ea8:	2b00      	cmp	r3, #0
 8005eaa:	d101      	bne.n	8005eb0 <xTaskIncrementTick+0x80>
 8005eac:	2301      	movs	r3, #1
 8005eae:	e000      	b.n	8005eb2 <xTaskIncrementTick+0x82>
 8005eb0:	2300      	movs	r3, #0
 8005eb2:	2b00      	cmp	r3, #0
 8005eb4:	d004      	beq.n	8005ec0 <xTaskIncrementTick+0x90>
					/* The delayed list is empty.  Set xNextTaskUnblockTime
					to the maximum possible value so it is extremely
					unlikely that the
					if( xTickCount >= xNextTaskUnblockTime ) test will pass
					next time through. */
					xNextTaskUnblockTime = portMAX_DELAY; /*lint !e961 MISRA exception as the casts are only redundant for some ports. */
 8005eb6:	4b38      	ldr	r3, [pc, #224]	; (8005f98 <xTaskIncrementTick+0x168>)
 8005eb8:	f04f 32ff 	mov.w	r2, #4294967295
 8005ebc:	601a      	str	r2, [r3, #0]
					break;
 8005ebe:	e042      	b.n	8005f46 <xTaskIncrementTick+0x116>
				{
					/* The delayed list is not empty, get the value of the
					item at the head of the delayed list.  This is the time
					at which the task at the head of the delayed list must
					be removed from the Blocked state. */
					pxTCB = ( TCB_t * ) listGET_OWNER_OF_HEAD_ENTRY( pxDelayedTaskList );
 8005ec0:	4b32      	ldr	r3, [pc, #200]	; (8005f8c <xTaskIncrementTick+0x15c>)
 8005ec2:	681b      	ldr	r3, [r3, #0]
 8005ec4:	68db      	ldr	r3, [r3, #12]
 8005ec6:	68db      	ldr	r3, [r3, #12]
 8005ec8:	60bb      	str	r3, [r7, #8]
					xItemValue = listGET_LIST_ITEM_VALUE( &( pxTCB->xStateListItem ) );
 8005eca:	68bb      	ldr	r3, [r7, #8]
 8005ecc:	685b      	ldr	r3, [r3, #4]
 8005ece:	607b      	str	r3, [r7, #4]

					if( xConstTickCount < xItemValue )
 8005ed0:	693a      	ldr	r2, [r7, #16]
 8005ed2:	687b      	ldr	r3, [r7, #4]
 8005ed4:	429a      	cmp	r2, r3
 8005ed6:	d203      	bcs.n	8005ee0 <xTaskIncrementTick+0xb0>
						/* It is not time to unblock this item yet, but the
						item value is the time at which the task at the head
						of the blocked list must be removed from the Blocked
						state -	so record the item value in
						xNextTaskUnblockTime. */
						xNextTaskUnblockTime = xItemValue;
 8005ed8:	4a2f      	ldr	r2, [pc, #188]	; (8005f98 <xTaskIncrementTick+0x168>)
 8005eda:	687b      	ldr	r3, [r7, #4]
 8005edc:	6013      	str	r3, [r2, #0]
						break;
 8005ede:	e032      	b.n	8005f46 <xTaskIncrementTick+0x116>
					{
						mtCOVERAGE_TEST_MARKER();
					}

					/* It is time to remove the item from the Blocked state. */
					( void ) uxListRemove( &( pxTCB->xStateListItem ) );
 8005ee0:	68bb      	ldr	r3, [r7, #8]
 8005ee2:	3304      	adds	r3, #4
 8005ee4:	4618      	mov	r0, r3
 8005ee6:	f7ff fa8d 	bl	8005404 <uxListRemove>

					/* Is the task waiting on an event also?  If so remove
					it from the event list. */
					if( listLIST_ITEM_CONTAINER( &( pxTCB->xEventListItem ) ) != NULL )
 8005eea:	68bb      	ldr	r3, [r7, #8]
 8005eec:	6a9b      	ldr	r3, [r3, #40]	; 0x28
 8005eee:	2b00      	cmp	r3, #0
 8005ef0:	d004      	beq.n	8005efc <xTaskIncrementTick+0xcc>
					{
						( void ) uxListRemove( &( pxTCB->xEventListItem ) );
 8005ef2:	68bb      	ldr	r3, [r7, #8]
 8005ef4:	3318      	adds	r3, #24
 8005ef6:	4618      	mov	r0, r3
 8005ef8:	f7ff fa84 	bl	8005404 <uxListRemove>
						mtCOVERAGE_TEST_MARKER();
					}

					/* Place the unblocked task into the appropriate ready
					list. */
					prvAddTaskToReadyList( pxTCB );
 8005efc:	68bb      	ldr	r3, [r7, #8]
 8005efe:	4618      	mov	r0, r3
 8005f00:	f002 f9b2 	bl	8008268 <SEGGER_SYSVIEW_OnTaskStartReady>
 8005f04:	68bb      	ldr	r3, [r7, #8]
 8005f06:	6adb      	ldr	r3, [r3, #44]	; 0x2c
 8005f08:	2201      	movs	r2, #1
 8005f0a:	409a      	lsls	r2, r3
 8005f0c:	4b23      	ldr	r3, [pc, #140]	; (8005f9c <xTaskIncrementTick+0x16c>)
 8005f0e:	681b      	ldr	r3, [r3, #0]
 8005f10:	4313      	orrs	r3, r2
 8005f12:	4a22      	ldr	r2, [pc, #136]	; (8005f9c <xTaskIncrementTick+0x16c>)
 8005f14:	6013      	str	r3, [r2, #0]
 8005f16:	68bb      	ldr	r3, [r7, #8]
 8005f18:	6ada      	ldr	r2, [r3, #44]	; 0x2c
 8005f1a:	4613      	mov	r3, r2
 8005f1c:	009b      	lsls	r3, r3, #2
 8005f1e:	4413      	add	r3, r2
 8005f20:	009b      	lsls	r3, r3, #2
 8005f22:	4a1f      	ldr	r2, [pc, #124]	; (8005fa0 <xTaskIncrementTick+0x170>)
 8005f24:	441a      	add	r2, r3
 8005f26:	68bb      	ldr	r3, [r7, #8]
 8005f28:	3304      	adds	r3, #4
 8005f2a:	4619      	mov	r1, r3
 8005f2c:	4610      	mov	r0, r2
 8005f2e:	f7ff fa0e 	bl	800534e <vListInsertEnd>
					{
						/* Preemption is on, but a context switch should
						only be performed if the unblocked task has a
						priority that is equal to or higher than the
						currently executing task. */
						if( pxTCB->uxPriority >= pxCurrentTCB->uxPriority )
 8005f32:	68bb      	ldr	r3, [r7, #8]
 8005f34:	6ada      	ldr	r2, [r3, #44]	; 0x2c
 8005f36:	4b1b      	ldr	r3, [pc, #108]	; (8005fa4 <xTaskIncrementTick+0x174>)
 8005f38:	681b      	ldr	r3, [r3, #0]
 8005f3a:	6adb      	ldr	r3, [r3, #44]	; 0x2c
 8005f3c:	429a      	cmp	r2, r3
 8005f3e:	d3b0      	bcc.n	8005ea2 <xTaskIncrementTick+0x72>
						{
							xSwitchRequired = pdTRUE;
 8005f40:	2301      	movs	r3, #1
 8005f42:	617b      	str	r3, [r7, #20]
				if( listLIST_IS_EMPTY( pxDelayedTaskList ) != pdFALSE )
 8005f44:	e7ad      	b.n	8005ea2 <xTaskIncrementTick+0x72>
		/* Tasks of equal priority to the currently running task will share
		processing time (time slice) if preemption is on, and the application
		writer has not explicitly turned time slicing off. */
		#if ( ( configUSE_PREEMPTION == 1 ) && ( configUSE_TIME_SLICING == 1 ) )
		{
			if( listCURRENT_LIST_LENGTH( &( pxReadyTasksLists[ pxCurrentTCB->uxPriority ] ) ) > ( UBaseType_t ) 1 )
 8005f46:	4b17      	ldr	r3, [pc, #92]	; (8005fa4 <xTaskIncrementTick+0x174>)
 8005f48:	681b      	ldr	r3, [r3, #0]
 8005f4a:	6ada      	ldr	r2, [r3, #44]	; 0x2c
 8005f4c:	4914      	ldr	r1, [pc, #80]	; (8005fa0 <xTaskIncrementTick+0x170>)
 8005f4e:	4613      	mov	r3, r2
 8005f50:	009b      	lsls	r3, r3, #2
 8005f52:	4413      	add	r3, r2
 8005f54:	009b      	lsls	r3, r3, #2
 8005f56:	440b      	add	r3, r1
 8005f58:	681b      	ldr	r3, [r3, #0]
 8005f5a:	2b01      	cmp	r3, #1
 8005f5c:	d907      	bls.n	8005f6e <xTaskIncrementTick+0x13e>
			{
				xSwitchRequired = pdTRUE;
 8005f5e:	2301      	movs	r3, #1
 8005f60:	617b      	str	r3, [r7, #20]
 8005f62:	e004      	b.n	8005f6e <xTaskIncrementTick+0x13e>
		}
		#endif /* configUSE_TICK_HOOK */
	}
	else
	{
		++uxPendedTicks;
 8005f64:	4b10      	ldr	r3, [pc, #64]	; (8005fa8 <xTaskIncrementTick+0x178>)
 8005f66:	681b      	ldr	r3, [r3, #0]
 8005f68:	3301      	adds	r3, #1
 8005f6a:	4a0f      	ldr	r2, [pc, #60]	; (8005fa8 <xTaskIncrementTick+0x178>)
 8005f6c:	6013      	str	r3, [r2, #0]
		#endif
	}

	#if ( configUSE_PREEMPTION == 1 )
	{
		if( xYieldPending != pdFALSE )
 8005f6e:	4b0f      	ldr	r3, [pc, #60]	; (8005fac <xTaskIncrementTick+0x17c>)
 8005f70:	681b      	ldr	r3, [r3, #0]
 8005f72:	2b00      	cmp	r3, #0
 8005f74:	d001      	beq.n	8005f7a <xTaskIncrementTick+0x14a>
		{
			xSwitchRequired = pdTRUE;
 8005f76:	2301      	movs	r3, #1
 8005f78:	617b      	str	r3, [r7, #20]
			mtCOVERAGE_TEST_MARKER();
		}
	}
	#endif /* configUSE_PREEMPTION */

	return xSwitchRequired;
 8005f7a:	697b      	ldr	r3, [r7, #20]
}
 8005f7c:	4618      	mov	r0, r3
 8005f7e:	3718      	adds	r7, #24
 8005f80:	46bd      	mov	sp, r7
 8005f82:	bd80      	pop	{r7, pc}
 8005f84:	200005b0 	.word	0x200005b0
 8005f88:	2000058c 	.word	0x2000058c
 8005f8c:	20000540 	.word	0x20000540
 8005f90:	20000544 	.word	0x20000544
 8005f94:	200005a0 	.word	0x200005a0
 8005f98:	200005a8 	.word	0x200005a8
 8005f9c:	20000590 	.word	0x20000590
 8005fa0:	2000048c 	.word	0x2000048c
 8005fa4:	20000488 	.word	0x20000488
 8005fa8:	20000598 	.word	0x20000598
 8005fac:	2000059c 	.word	0x2000059c

08005fb0 <vTaskSwitchContext>:

#endif /* configUSE_APPLICATION_TASK_TAG */
/*-----------------------------------------------------------*/

void vTaskSwitchContext( void )
{
 8005fb0:	b580      	push	{r7, lr}
 8005fb2:	b086      	sub	sp, #24
 8005fb4:	af00      	add	r7, sp, #0
	if( uxSchedulerSuspended != ( UBaseType_t ) pdFALSE )
 8005fb6:	4b2c      	ldr	r3, [pc, #176]	; (8006068 <vTaskSwitchContext+0xb8>)
 8005fb8:	681b      	ldr	r3, [r3, #0]
 8005fba:	2b00      	cmp	r3, #0
 8005fbc:	d003      	beq.n	8005fc6 <vTaskSwitchContext+0x16>
	{
		/* The scheduler is currently suspended - do not allow a context
		switch. */
		xYieldPending = pdTRUE;
 8005fbe:	4b2b      	ldr	r3, [pc, #172]	; (800606c <vTaskSwitchContext+0xbc>)
 8005fc0:	2201      	movs	r2, #1
 8005fc2:	601a      	str	r2, [r3, #0]
			structure specific to this task. */
			_impure_ptr = &( pxCurrentTCB->xNewLib_reent );
		}
		#endif /* configUSE_NEWLIB_REENTRANT */
	}
}
 8005fc4:	e04c      	b.n	8006060 <vTaskSwitchContext+0xb0>
		xYieldPending = pdFALSE;
 8005fc6:	4b29      	ldr	r3, [pc, #164]	; (800606c <vTaskSwitchContext+0xbc>)
 8005fc8:	2200      	movs	r2, #0
 8005fca:	601a      	str	r2, [r3, #0]
		taskSELECT_HIGHEST_PRIORITY_TASK();
 8005fcc:	4b28      	ldr	r3, [pc, #160]	; (8006070 <vTaskSwitchContext+0xc0>)
 8005fce:	681b      	ldr	r3, [r3, #0]
 8005fd0:	60fb      	str	r3, [r7, #12]
		__asm volatile ( "clz %0, %1" : "=r" ( ucReturn ) : "r" ( ulBitmap ) : "memory" );
 8005fd2:	68fb      	ldr	r3, [r7, #12]
 8005fd4:	fab3 f383 	clz	r3, r3
 8005fd8:	72fb      	strb	r3, [r7, #11]
		return ucReturn;
 8005fda:	7afb      	ldrb	r3, [r7, #11]
 8005fdc:	f1c3 031f 	rsb	r3, r3, #31
 8005fe0:	617b      	str	r3, [r7, #20]
 8005fe2:	4924      	ldr	r1, [pc, #144]	; (8006074 <vTaskSwitchContext+0xc4>)
 8005fe4:	697a      	ldr	r2, [r7, #20]
 8005fe6:	4613      	mov	r3, r2
 8005fe8:	009b      	lsls	r3, r3, #2
 8005fea:	4413      	add	r3, r2
 8005fec:	009b      	lsls	r3, r3, #2
 8005fee:	440b      	add	r3, r1
 8005ff0:	681b      	ldr	r3, [r3, #0]
 8005ff2:	2b00      	cmp	r3, #0
 8005ff4:	d109      	bne.n	800600a <vTaskSwitchContext+0x5a>
	__asm volatile
 8005ff6:	f04f 0350 	mov.w	r3, #80	; 0x50
 8005ffa:	f383 8811 	msr	BASEPRI, r3
 8005ffe:	f3bf 8f6f 	isb	sy
 8006002:	f3bf 8f4f 	dsb	sy
 8006006:	607b      	str	r3, [r7, #4]
 8006008:	e7fe      	b.n	8006008 <vTaskSwitchContext+0x58>
 800600a:	697a      	ldr	r2, [r7, #20]
 800600c:	4613      	mov	r3, r2
 800600e:	009b      	lsls	r3, r3, #2
 8006010:	4413      	add	r3, r2
 8006012:	009b      	lsls	r3, r3, #2
 8006014:	4a17      	ldr	r2, [pc, #92]	; (8006074 <vTaskSwitchContext+0xc4>)
 8006016:	4413      	add	r3, r2
 8006018:	613b      	str	r3, [r7, #16]
 800601a:	693b      	ldr	r3, [r7, #16]
 800601c:	685b      	ldr	r3, [r3, #4]
 800601e:	685a      	ldr	r2, [r3, #4]
 8006020:	693b      	ldr	r3, [r7, #16]
 8006022:	605a      	str	r2, [r3, #4]
 8006024:	693b      	ldr	r3, [r7, #16]
 8006026:	685a      	ldr	r2, [r3, #4]
 8006028:	693b      	ldr	r3, [r7, #16]
 800602a:	3308      	adds	r3, #8
 800602c:	429a      	cmp	r2, r3
 800602e:	d104      	bne.n	800603a <vTaskSwitchContext+0x8a>
 8006030:	693b      	ldr	r3, [r7, #16]
 8006032:	685b      	ldr	r3, [r3, #4]
 8006034:	685a      	ldr	r2, [r3, #4]
 8006036:	693b      	ldr	r3, [r7, #16]
 8006038:	605a      	str	r2, [r3, #4]
 800603a:	693b      	ldr	r3, [r7, #16]
 800603c:	685b      	ldr	r3, [r3, #4]
 800603e:	68db      	ldr	r3, [r3, #12]
 8006040:	4a0d      	ldr	r2, [pc, #52]	; (8006078 <vTaskSwitchContext+0xc8>)
 8006042:	6013      	str	r3, [r2, #0]
		traceTASK_SWITCHED_IN();
 8006044:	4b0c      	ldr	r3, [pc, #48]	; (8006078 <vTaskSwitchContext+0xc8>)
 8006046:	681a      	ldr	r2, [r3, #0]
 8006048:	4b0c      	ldr	r3, [pc, #48]	; (800607c <vTaskSwitchContext+0xcc>)
 800604a:	681b      	ldr	r3, [r3, #0]
 800604c:	429a      	cmp	r2, r3
 800604e:	d102      	bne.n	8006056 <vTaskSwitchContext+0xa6>
 8006050:	f002 f86a 	bl	8008128 <SEGGER_SYSVIEW_OnIdle>
}
 8006054:	e004      	b.n	8006060 <vTaskSwitchContext+0xb0>
		traceTASK_SWITCHED_IN();
 8006056:	4b08      	ldr	r3, [pc, #32]	; (8006078 <vTaskSwitchContext+0xc8>)
 8006058:	681b      	ldr	r3, [r3, #0]
 800605a:	4618      	mov	r0, r3
 800605c:	f002 f8c2 	bl	80081e4 <SEGGER_SYSVIEW_OnTaskStartExec>
}
 8006060:	bf00      	nop
 8006062:	3718      	adds	r7, #24
 8006064:	46bd      	mov	sp, r7
 8006066:	bd80      	pop	{r7, pc}
 8006068:	200005b0 	.word	0x200005b0
 800606c:	2000059c 	.word	0x2000059c
 8006070:	20000590 	.word	0x20000590
 8006074:	2000048c 	.word	0x2000048c
 8006078:	20000488 	.word	0x20000488
 800607c:	200005ac 	.word	0x200005ac

08006080 <xTaskRemoveFromEventList>:

#endif /* configUSE_TIMERS */
/*-----------------------------------------------------------*/

BaseType_t xTaskRemoveFromEventList( const List_t * const pxEventList )
{
 8006080:	b580      	push	{r7, lr}
 8006082:	b086      	sub	sp, #24
 8006084:	af00      	add	r7, sp, #0
 8006086:	6078      	str	r0, [r7, #4]
	get called - the lock count on the queue will get modified instead.  This
	means exclusive access to the event list is guaranteed here.

	This function assumes that a check has already been made to ensure that
	pxEventList is not empty. */
	pxUnblockedTCB = ( TCB_t * ) listGET_OWNER_OF_HEAD_ENTRY( pxEventList );
 8006088:	687b      	ldr	r3, [r7, #4]
 800608a:	68db      	ldr	r3, [r3, #12]
 800608c:	68db      	ldr	r3, [r3, #12]
 800608e:	613b      	str	r3, [r7, #16]
	configASSERT( pxUnblockedTCB );
 8006090:	693b      	ldr	r3, [r7, #16]
 8006092:	2b00      	cmp	r3, #0
 8006094:	d109      	bne.n	80060aa <xTaskRemoveFromEventList+0x2a>
 8006096:	f04f 0350 	mov.w	r3, #80	; 0x50
 800609a:	f383 8811 	msr	BASEPRI, r3
 800609e:	f3bf 8f6f 	isb	sy
 80060a2:	f3bf 8f4f 	dsb	sy
 80060a6:	60fb      	str	r3, [r7, #12]
 80060a8:	e7fe      	b.n	80060a8 <xTaskRemoveFromEventList+0x28>
	( void ) uxListRemove( &( pxUnblockedTCB->xEventListItem ) );
 80060aa:	693b      	ldr	r3, [r7, #16]
 80060ac:	3318      	adds	r3, #24
 80060ae:	4618      	mov	r0, r3
 80060b0:	f7ff f9a8 	bl	8005404 <uxListRemove>

	if( uxSchedulerSuspended == ( UBaseType_t ) pdFALSE )
 80060b4:	4b1f      	ldr	r3, [pc, #124]	; (8006134 <xTaskRemoveFromEventList+0xb4>)
 80060b6:	681b      	ldr	r3, [r3, #0]
 80060b8:	2b00      	cmp	r3, #0
 80060ba:	d120      	bne.n	80060fe <xTaskRemoveFromEventList+0x7e>
	{
		( void ) uxListRemove( &( pxUnblockedTCB->xStateListItem ) );
 80060bc:	693b      	ldr	r3, [r7, #16]
 80060be:	3304      	adds	r3, #4
 80060c0:	4618      	mov	r0, r3
 80060c2:	f7ff f99f 	bl	8005404 <uxListRemove>
		prvAddTaskToReadyList( pxUnblockedTCB );
 80060c6:	693b      	ldr	r3, [r7, #16]
 80060c8:	4618      	mov	r0, r3
 80060ca:	f002 f8cd 	bl	8008268 <SEGGER_SYSVIEW_OnTaskStartReady>
 80060ce:	693b      	ldr	r3, [r7, #16]
 80060d0:	6adb      	ldr	r3, [r3, #44]	; 0x2c
 80060d2:	2201      	movs	r2, #1
 80060d4:	409a      	lsls	r2, r3
 80060d6:	4b18      	ldr	r3, [pc, #96]	; (8006138 <xTaskRemoveFromEventList+0xb8>)
 80060d8:	681b      	ldr	r3, [r3, #0]
 80060da:	4313      	orrs	r3, r2
 80060dc:	4a16      	ldr	r2, [pc, #88]	; (8006138 <xTaskRemoveFromEventList+0xb8>)
 80060de:	6013      	str	r3, [r2, #0]
 80060e0:	693b      	ldr	r3, [r7, #16]
 80060e2:	6ada      	ldr	r2, [r3, #44]	; 0x2c
 80060e4:	4613      	mov	r3, r2
 80060e6:	009b      	lsls	r3, r3, #2
 80060e8:	4413      	add	r3, r2
 80060ea:	009b      	lsls	r3, r3, #2
 80060ec:	4a13      	ldr	r2, [pc, #76]	; (800613c <xTaskRemoveFromEventList+0xbc>)
 80060ee:	441a      	add	r2, r3
 80060f0:	693b      	ldr	r3, [r7, #16]
 80060f2:	3304      	adds	r3, #4
 80060f4:	4619      	mov	r1, r3
 80060f6:	4610      	mov	r0, r2
 80060f8:	f7ff f929 	bl	800534e <vListInsertEnd>
 80060fc:	e005      	b.n	800610a <xTaskRemoveFromEventList+0x8a>
	}
	else
	{
		/* The delayed and ready lists cannot be accessed, so hold this task
		pending until the scheduler is resumed. */
		vListInsertEnd( &( xPendingReadyList ), &( pxUnblockedTCB->xEventListItem ) );
 80060fe:	693b      	ldr	r3, [r7, #16]
 8006100:	3318      	adds	r3, #24
 8006102:	4619      	mov	r1, r3
 8006104:	480e      	ldr	r0, [pc, #56]	; (8006140 <xTaskRemoveFromEventList+0xc0>)
 8006106:	f7ff f922 	bl	800534e <vListInsertEnd>
	}

	if( pxUnblockedTCB->uxPriority > pxCurrentTCB->uxPriority )
 800610a:	693b      	ldr	r3, [r7, #16]
 800610c:	6ada      	ldr	r2, [r3, #44]	; 0x2c
 800610e:	4b0d      	ldr	r3, [pc, #52]	; (8006144 <xTaskRemoveFromEventList+0xc4>)
 8006110:	681b      	ldr	r3, [r3, #0]
 8006112:	6adb      	ldr	r3, [r3, #44]	; 0x2c
 8006114:	429a      	cmp	r2, r3
 8006116:	d905      	bls.n	8006124 <xTaskRemoveFromEventList+0xa4>
	{
		/* Return true if the task removed from the event list has a higher
		priority than the calling task.  This allows the calling task to know if
		it should force a context switch now. */
		xReturn = pdTRUE;
 8006118:	2301      	movs	r3, #1
 800611a:	617b      	str	r3, [r7, #20]

		/* Mark that a yield is pending in case the user is not using the
		"xHigherPriorityTaskWoken" parameter to an ISR safe FreeRTOS function. */
		xYieldPending = pdTRUE;
 800611c:	4b0a      	ldr	r3, [pc, #40]	; (8006148 <xTaskRemoveFromEventList+0xc8>)
 800611e:	2201      	movs	r2, #1
 8006120:	601a      	str	r2, [r3, #0]
 8006122:	e001      	b.n	8006128 <xTaskRemoveFromEventList+0xa8>
	}
	else
	{
		xReturn = pdFALSE;
 8006124:	2300      	movs	r3, #0
 8006126:	617b      	str	r3, [r7, #20]
		ensure it is updated at the earliest possible time. */
		prvResetNextTaskUnblockTime();
	}
	#endif

	return xReturn;
 8006128:	697b      	ldr	r3, [r7, #20]
}
 800612a:	4618      	mov	r0, r3
 800612c:	3718      	adds	r7, #24
 800612e:	46bd      	mov	sp, r7
 8006130:	bd80      	pop	{r7, pc}
 8006132:	bf00      	nop
 8006134:	200005b0 	.word	0x200005b0
 8006138:	20000590 	.word	0x20000590
 800613c:	2000048c 	.word	0x2000048c
 8006140:	20000548 	.word	0x20000548
 8006144:	20000488 	.word	0x20000488
 8006148:	2000059c 	.word	0x2000059c

0800614c <prvIdleTask>:
 *
 * void prvIdleTask( void *pvParameters );
 *
 */
static portTASK_FUNCTION( prvIdleTask, pvParameters )
{
 800614c:	b580      	push	{r7, lr}
 800614e:	b082      	sub	sp, #8
 8006150:	af00      	add	r7, sp, #0
 8006152:	6078      	str	r0, [r7, #4]

	for( ;; )
	{
		/* See if any tasks have deleted themselves - if so then the idle task
		is responsible for freeing the deleted task's TCB and stack. */
		prvCheckTasksWaitingTermination();
 8006154:	f000 f852 	bl	80061fc <prvCheckTasksWaitingTermination>

			A critical region is not required here as we are just reading from
			the list, and an occasional incorrect value will not matter.  If
			the ready list at the idle priority contains more than one task
			then a task other than the idle task is ready to execute. */
			if( listCURRENT_LIST_LENGTH( &( pxReadyTasksLists[ tskIDLE_PRIORITY ] ) ) > ( UBaseType_t ) 1 )
 8006158:	4b06      	ldr	r3, [pc, #24]	; (8006174 <prvIdleTask+0x28>)
 800615a:	681b      	ldr	r3, [r3, #0]
 800615c:	2b01      	cmp	r3, #1
 800615e:	d9f9      	bls.n	8006154 <prvIdleTask+0x8>
			{
				taskYIELD();
 8006160:	4b05      	ldr	r3, [pc, #20]	; (8006178 <prvIdleTask+0x2c>)
 8006162:	f04f 5280 	mov.w	r2, #268435456	; 0x10000000
 8006166:	601a      	str	r2, [r3, #0]
 8006168:	f3bf 8f4f 	dsb	sy
 800616c:	f3bf 8f6f 	isb	sy
		prvCheckTasksWaitingTermination();
 8006170:	e7f0      	b.n	8006154 <prvIdleTask+0x8>
 8006172:	bf00      	nop
 8006174:	2000048c 	.word	0x2000048c
 8006178:	e000ed04 	.word	0xe000ed04

0800617c <prvInitialiseTaskLists>:

#endif /* portUSING_MPU_WRAPPERS */
/*-----------------------------------------------------------*/

static void prvInitialiseTaskLists( void )
{
 800617c:	b580      	push	{r7, lr}
 800617e:	b082      	sub	sp, #8
 8006180:	af00      	add	r7, sp, #0
UBaseType_t uxPriority;

	for( uxPriority = ( UBaseType_t ) 0U; uxPriority < ( UBaseType_t ) configMAX_PRIORITIES; uxPriority++ )
 8006182:	2300      	movs	r3, #0
 8006184:	607b      	str	r3, [r7, #4]
 8006186:	e00c      	b.n	80061a2 <prvInitialiseTaskLists+0x26>
	{
		vListInitialise( &( pxReadyTasksLists[ uxPriority ] ) );
 8006188:	687a      	ldr	r2, [r7, #4]
 800618a:	4613      	mov	r3, r2
 800618c:	009b      	lsls	r3, r3, #2
 800618e:	4413      	add	r3, r2
 8006190:	009b      	lsls	r3, r3, #2
 8006192:	4a12      	ldr	r2, [pc, #72]	; (80061dc <prvInitialiseTaskLists+0x60>)
 8006194:	4413      	add	r3, r2
 8006196:	4618      	mov	r0, r3
 8006198:	f7ff f8ae 	bl	80052f8 <vListInitialise>
	for( uxPriority = ( UBaseType_t ) 0U; uxPriority < ( UBaseType_t ) configMAX_PRIORITIES; uxPriority++ )
 800619c:	687b      	ldr	r3, [r7, #4]
 800619e:	3301      	adds	r3, #1
 80061a0:	607b      	str	r3, [r7, #4]
 80061a2:	687b      	ldr	r3, [r7, #4]
 80061a4:	2b06      	cmp	r3, #6
 80061a6:	d9ef      	bls.n	8006188 <prvInitialiseTaskLists+0xc>
	}

	vListInitialise( &xDelayedTaskList1 );
 80061a8:	480d      	ldr	r0, [pc, #52]	; (80061e0 <prvInitialiseTaskLists+0x64>)
 80061aa:	f7ff f8a5 	bl	80052f8 <vListInitialise>
	vListInitialise( &xDelayedTaskList2 );
 80061ae:	480d      	ldr	r0, [pc, #52]	; (80061e4 <prvInitialiseTaskLists+0x68>)
 80061b0:	f7ff f8a2 	bl	80052f8 <vListInitialise>
	vListInitialise( &xPendingReadyList );
 80061b4:	480c      	ldr	r0, [pc, #48]	; (80061e8 <prvInitialiseTaskLists+0x6c>)
 80061b6:	f7ff f89f 	bl	80052f8 <vListInitialise>

	#if ( INCLUDE_vTaskDelete == 1 )
	{
		vListInitialise( &xTasksWaitingTermination );
 80061ba:	480c      	ldr	r0, [pc, #48]	; (80061ec <prvInitialiseTaskLists+0x70>)
 80061bc:	f7ff f89c 	bl	80052f8 <vListInitialise>
	}
	#endif /* INCLUDE_vTaskDelete */

	#if ( INCLUDE_vTaskSuspend == 1 )
	{
		vListInitialise( &xSuspendedTaskList );
 80061c0:	480b      	ldr	r0, [pc, #44]	; (80061f0 <prvInitialiseTaskLists+0x74>)
 80061c2:	f7ff f899 	bl	80052f8 <vListInitialise>
	}
	#endif /* INCLUDE_vTaskSuspend */

	/* Start with pxDelayedTaskList using list1 and the pxOverflowDelayedTaskList
	using list2. */
	pxDelayedTaskList = &xDelayedTaskList1;
 80061c6:	4b0b      	ldr	r3, [pc, #44]	; (80061f4 <prvInitialiseTaskLists+0x78>)
 80061c8:	4a05      	ldr	r2, [pc, #20]	; (80061e0 <prvInitialiseTaskLists+0x64>)
 80061ca:	601a      	str	r2, [r3, #0]
	pxOverflowDelayedTaskList = &xDelayedTaskList2;
 80061cc:	4b0a      	ldr	r3, [pc, #40]	; (80061f8 <prvInitialiseTaskLists+0x7c>)
 80061ce:	4a05      	ldr	r2, [pc, #20]	; (80061e4 <prvInitialiseTaskLists+0x68>)
 80061d0:	601a      	str	r2, [r3, #0]
}
 80061d2:	bf00      	nop
 80061d4:	3708      	adds	r7, #8
 80061d6:	46bd      	mov	sp, r7
 80061d8:	bd80      	pop	{r7, pc}
 80061da:	bf00      	nop
 80061dc:	2000048c 	.word	0x2000048c
 80061e0:	20000518 	.word	0x20000518
 80061e4:	2000052c 	.word	0x2000052c
 80061e8:	20000548 	.word	0x20000548
 80061ec:	2000055c 	.word	0x2000055c
 80061f0:	20000574 	.word	0x20000574
 80061f4:	20000540 	.word	0x20000540
 80061f8:	20000544 	.word	0x20000544

080061fc <prvCheckTasksWaitingTermination>:
/*-----------------------------------------------------------*/

static void prvCheckTasksWaitingTermination( void )
{
 80061fc:	b580      	push	{r7, lr}
 80061fe:	b082      	sub	sp, #8
 8006200:	af00      	add	r7, sp, #0
	{
		TCB_t *pxTCB;

		/* uxDeletedTasksWaitingCleanUp is used to prevent vTaskSuspendAll()
		being called too often in the idle task. */
		while( uxDeletedTasksWaitingCleanUp > ( UBaseType_t ) 0U )
 8006202:	e019      	b.n	8006238 <prvCheckTasksWaitingTermination+0x3c>
		{
			taskENTER_CRITICAL();
 8006204:	f000 fa2e 	bl	8006664 <vPortEnterCritical>
			{
				pxTCB = ( TCB_t * ) listGET_OWNER_OF_HEAD_ENTRY( ( &xTasksWaitingTermination ) );
 8006208:	4b0f      	ldr	r3, [pc, #60]	; (8006248 <prvCheckTasksWaitingTermination+0x4c>)
 800620a:	68db      	ldr	r3, [r3, #12]
 800620c:	68db      	ldr	r3, [r3, #12]
 800620e:	607b      	str	r3, [r7, #4]
				( void ) uxListRemove( &( pxTCB->xStateListItem ) );
 8006210:	687b      	ldr	r3, [r7, #4]
 8006212:	3304      	adds	r3, #4
 8006214:	4618      	mov	r0, r3
 8006216:	f7ff f8f5 	bl	8005404 <uxListRemove>
				--uxCurrentNumberOfTasks;
 800621a:	4b0c      	ldr	r3, [pc, #48]	; (800624c <prvCheckTasksWaitingTermination+0x50>)
 800621c:	681b      	ldr	r3, [r3, #0]
 800621e:	3b01      	subs	r3, #1
 8006220:	4a0a      	ldr	r2, [pc, #40]	; (800624c <prvCheckTasksWaitingTermination+0x50>)
 8006222:	6013      	str	r3, [r2, #0]
				--uxDeletedTasksWaitingCleanUp;
 8006224:	4b0a      	ldr	r3, [pc, #40]	; (8006250 <prvCheckTasksWaitingTermination+0x54>)
 8006226:	681b      	ldr	r3, [r3, #0]
 8006228:	3b01      	subs	r3, #1
 800622a:	4a09      	ldr	r2, [pc, #36]	; (8006250 <prvCheckTasksWaitingTermination+0x54>)
 800622c:	6013      	str	r3, [r2, #0]
			}
			taskEXIT_CRITICAL();
 800622e:	f000 fa47 	bl	80066c0 <vPortExitCritical>

			prvDeleteTCB( pxTCB );
 8006232:	6878      	ldr	r0, [r7, #4]
 8006234:	f000 f80e 	bl	8006254 <prvDeleteTCB>
		while( uxDeletedTasksWaitingCleanUp > ( UBaseType_t ) 0U )
 8006238:	4b05      	ldr	r3, [pc, #20]	; (8006250 <prvCheckTasksWaitingTermination+0x54>)
 800623a:	681b      	ldr	r3, [r3, #0]
 800623c:	2b00      	cmp	r3, #0
 800623e:	d1e1      	bne.n	8006204 <prvCheckTasksWaitingTermination+0x8>
		}
	}
	#endif /* INCLUDE_vTaskDelete */
}
 8006240:	bf00      	nop
 8006242:	3708      	adds	r7, #8
 8006244:	46bd      	mov	sp, r7
 8006246:	bd80      	pop	{r7, pc}
 8006248:	2000055c 	.word	0x2000055c
 800624c:	20000588 	.word	0x20000588
 8006250:	20000570 	.word	0x20000570

08006254 <prvDeleteTCB>:
	/*-----------------------------------------------------------*/

#if ( INCLUDE_vTaskDelete == 1 )

	static void prvDeleteTCB( TCB_t *pxTCB )
	{
 8006254:	b580      	push	{r7, lr}
 8006256:	b084      	sub	sp, #16
 8006258:	af00      	add	r7, sp, #0
 800625a:	6078      	str	r0, [r7, #4]
		#elif( tskSTATIC_AND_DYNAMIC_ALLOCATION_POSSIBLE != 0 ) /*lint !e731 Macro has been consolidated for readability reasons. */
		{
			/* The task could have been allocated statically or dynamically, so
			check what was statically allocated before trying to free the
			memory. */
			if( pxTCB->ucStaticallyAllocated == tskDYNAMICALLY_ALLOCATED_STACK_AND_TCB )
 800625c:	687b      	ldr	r3, [r7, #4]
 800625e:	f893 3051 	ldrb.w	r3, [r3, #81]	; 0x51
 8006262:	2b00      	cmp	r3, #0
 8006264:	d108      	bne.n	8006278 <prvDeleteTCB+0x24>
			{
				/* Both the stack and TCB were allocated dynamically, so both
				must be freed. */
				vPortFree( pxTCB->pxStack );
 8006266:	687b      	ldr	r3, [r7, #4]
 8006268:	6b1b      	ldr	r3, [r3, #48]	; 0x30
 800626a:	4618      	mov	r0, r3
 800626c:	f000 fbbc 	bl	80069e8 <vPortFree>
				vPortFree( pxTCB );
 8006270:	6878      	ldr	r0, [r7, #4]
 8006272:	f000 fbb9 	bl	80069e8 <vPortFree>
				configASSERT( pxTCB->ucStaticallyAllocated == tskSTATICALLY_ALLOCATED_STACK_AND_TCB	);
				mtCOVERAGE_TEST_MARKER();
			}
		}
		#endif /* configSUPPORT_DYNAMIC_ALLOCATION */
	}
 8006276:	e017      	b.n	80062a8 <prvDeleteTCB+0x54>
			else if( pxTCB->ucStaticallyAllocated == tskSTATICALLY_ALLOCATED_STACK_ONLY )
 8006278:	687b      	ldr	r3, [r7, #4]
 800627a:	f893 3051 	ldrb.w	r3, [r3, #81]	; 0x51
 800627e:	2b01      	cmp	r3, #1
 8006280:	d103      	bne.n	800628a <prvDeleteTCB+0x36>
				vPortFree( pxTCB );
 8006282:	6878      	ldr	r0, [r7, #4]
 8006284:	f000 fbb0 	bl	80069e8 <vPortFree>
	}
 8006288:	e00e      	b.n	80062a8 <prvDeleteTCB+0x54>
				configASSERT( pxTCB->ucStaticallyAllocated == tskSTATICALLY_ALLOCATED_STACK_AND_TCB	);
 800628a:	687b      	ldr	r3, [r7, #4]
 800628c:	f893 3051 	ldrb.w	r3, [r3, #81]	; 0x51
 8006290:	2b02      	cmp	r3, #2
 8006292:	d009      	beq.n	80062a8 <prvDeleteTCB+0x54>
 8006294:	f04f 0350 	mov.w	r3, #80	; 0x50
 8006298:	f383 8811 	msr	BASEPRI, r3
 800629c:	f3bf 8f6f 	isb	sy
 80062a0:	f3bf 8f4f 	dsb	sy
 80062a4:	60fb      	str	r3, [r7, #12]
 80062a6:	e7fe      	b.n	80062a6 <prvDeleteTCB+0x52>
	}
 80062a8:	bf00      	nop
 80062aa:	3710      	adds	r7, #16
 80062ac:	46bd      	mov	sp, r7
 80062ae:	bd80      	pop	{r7, pc}

080062b0 <prvResetNextTaskUnblockTime>:

#endif /* INCLUDE_vTaskDelete */
/*-----------------------------------------------------------*/

static void prvResetNextTaskUnblockTime( void )
{
 80062b0:	b480      	push	{r7}
 80062b2:	b083      	sub	sp, #12
 80062b4:	af00      	add	r7, sp, #0
TCB_t *pxTCB;

	if( listLIST_IS_EMPTY( pxDelayedTaskList ) != pdFALSE )
 80062b6:	4b0e      	ldr	r3, [pc, #56]	; (80062f0 <prvResetNextTaskUnblockTime+0x40>)
 80062b8:	681b      	ldr	r3, [r3, #0]
 80062ba:	681b      	ldr	r3, [r3, #0]
 80062bc:	2b00      	cmp	r3, #0
 80062be:	d101      	bne.n	80062c4 <prvResetNextTaskUnblockTime+0x14>
 80062c0:	2301      	movs	r3, #1
 80062c2:	e000      	b.n	80062c6 <prvResetNextTaskUnblockTime+0x16>
 80062c4:	2300      	movs	r3, #0
 80062c6:	2b00      	cmp	r3, #0
 80062c8:	d004      	beq.n	80062d4 <prvResetNextTaskUnblockTime+0x24>
	{
		/* The new current delayed list is empty.  Set xNextTaskUnblockTime to
		the maximum possible value so it is	extremely unlikely that the
		if( xTickCount >= xNextTaskUnblockTime ) test will pass until
		there is an item in the delayed list. */
		xNextTaskUnblockTime = portMAX_DELAY;
 80062ca:	4b0a      	ldr	r3, [pc, #40]	; (80062f4 <prvResetNextTaskUnblockTime+0x44>)
 80062cc:	f04f 32ff 	mov.w	r2, #4294967295
 80062d0:	601a      	str	r2, [r3, #0]
		which the task at the head of the delayed list should be removed
		from the Blocked state. */
		( pxTCB ) = ( TCB_t * ) listGET_OWNER_OF_HEAD_ENTRY( pxDelayedTaskList );
		xNextTaskUnblockTime = listGET_LIST_ITEM_VALUE( &( ( pxTCB )->xStateListItem ) );
	}
}
 80062d2:	e008      	b.n	80062e6 <prvResetNextTaskUnblockTime+0x36>
		( pxTCB ) = ( TCB_t * ) listGET_OWNER_OF_HEAD_ENTRY( pxDelayedTaskList );
 80062d4:	4b06      	ldr	r3, [pc, #24]	; (80062f0 <prvResetNextTaskUnblockTime+0x40>)
 80062d6:	681b      	ldr	r3, [r3, #0]
 80062d8:	68db      	ldr	r3, [r3, #12]
 80062da:	68db      	ldr	r3, [r3, #12]
 80062dc:	607b      	str	r3, [r7, #4]
		xNextTaskUnblockTime = listGET_LIST_ITEM_VALUE( &( ( pxTCB )->xStateListItem ) );
 80062de:	687b      	ldr	r3, [r7, #4]
 80062e0:	685b      	ldr	r3, [r3, #4]
 80062e2:	4a04      	ldr	r2, [pc, #16]	; (80062f4 <prvResetNextTaskUnblockTime+0x44>)
 80062e4:	6013      	str	r3, [r2, #0]
}
 80062e6:	bf00      	nop
 80062e8:	370c      	adds	r7, #12
 80062ea:	46bd      	mov	sp, r7
 80062ec:	bc80      	pop	{r7}
 80062ee:	4770      	bx	lr
 80062f0:	20000540 	.word	0x20000540
 80062f4:	200005a8 	.word	0x200005a8

080062f8 <prvAddCurrentTaskToDelayedList>:
#endif /* configUSE_TASK_NOTIFICATIONS */
/*-----------------------------------------------------------*/


static void prvAddCurrentTaskToDelayedList( TickType_t xTicksToWait, const BaseType_t xCanBlockIndefinitely )
{
 80062f8:	b580      	push	{r7, lr}
 80062fa:	b084      	sub	sp, #16
 80062fc:	af00      	add	r7, sp, #0
 80062fe:	6078      	str	r0, [r7, #4]
 8006300:	6039      	str	r1, [r7, #0]
TickType_t xTimeToWake;
const TickType_t xConstTickCount = xTickCount;
 8006302:	4b32      	ldr	r3, [pc, #200]	; (80063cc <prvAddCurrentTaskToDelayedList+0xd4>)
 8006304:	681b      	ldr	r3, [r3, #0]
 8006306:	60fb      	str	r3, [r7, #12]
	}
	#endif

	/* Remove the task from the ready list before adding it to the blocked list
	as the same list item is used for both lists. */
	if( uxListRemove( &( pxCurrentTCB->xStateListItem ) ) == ( UBaseType_t ) 0 )
 8006308:	4b31      	ldr	r3, [pc, #196]	; (80063d0 <prvAddCurrentTaskToDelayedList+0xd8>)
 800630a:	681b      	ldr	r3, [r3, #0]
 800630c:	3304      	adds	r3, #4
 800630e:	4618      	mov	r0, r3
 8006310:	f7ff f878 	bl	8005404 <uxListRemove>
 8006314:	4603      	mov	r3, r0
 8006316:	2b00      	cmp	r3, #0
 8006318:	d10b      	bne.n	8006332 <prvAddCurrentTaskToDelayedList+0x3a>
	{
		/* The current task must be in a ready list, so there is no need to
		check, and the port reset macro can be called directly. */
		portRESET_READY_PRIORITY( pxCurrentTCB->uxPriority, uxTopReadyPriority );
 800631a:	4b2d      	ldr	r3, [pc, #180]	; (80063d0 <prvAddCurrentTaskToDelayedList+0xd8>)
 800631c:	681b      	ldr	r3, [r3, #0]
 800631e:	6adb      	ldr	r3, [r3, #44]	; 0x2c
 8006320:	2201      	movs	r2, #1
 8006322:	fa02 f303 	lsl.w	r3, r2, r3
 8006326:	43da      	mvns	r2, r3
 8006328:	4b2a      	ldr	r3, [pc, #168]	; (80063d4 <prvAddCurrentTaskToDelayedList+0xdc>)
 800632a:	681b      	ldr	r3, [r3, #0]
 800632c:	4013      	ands	r3, r2
 800632e:	4a29      	ldr	r2, [pc, #164]	; (80063d4 <prvAddCurrentTaskToDelayedList+0xdc>)
 8006330:	6013      	str	r3, [r2, #0]
		mtCOVERAGE_TEST_MARKER();
	}

	#if ( INCLUDE_vTaskSuspend == 1 )
	{
		if( ( xTicksToWait == portMAX_DELAY ) && ( xCanBlockIndefinitely != pdFALSE ) )
 8006332:	687b      	ldr	r3, [r7, #4]
 8006334:	f1b3 3fff 	cmp.w	r3, #4294967295
 8006338:	d110      	bne.n	800635c <prvAddCurrentTaskToDelayedList+0x64>
 800633a:	683b      	ldr	r3, [r7, #0]
 800633c:	2b00      	cmp	r3, #0
 800633e:	d00d      	beq.n	800635c <prvAddCurrentTaskToDelayedList+0x64>
		{
			/* Add the task to the suspended task list instead of a delayed task
			list to ensure it is not woken by a timing event.  It will block
			indefinitely. */
			traceMOVED_TASK_TO_SUSPENDED_LIST(pxCurrentTCB);
 8006340:	4b23      	ldr	r3, [pc, #140]	; (80063d0 <prvAddCurrentTaskToDelayedList+0xd8>)
 8006342:	681b      	ldr	r3, [r3, #0]
 8006344:	211b      	movs	r1, #27
 8006346:	4618      	mov	r0, r3
 8006348:	f001 ffd0 	bl	80082ec <SEGGER_SYSVIEW_OnTaskStopReady>
			vListInsertEnd( &xSuspendedTaskList, &( pxCurrentTCB->xStateListItem ) );
 800634c:	4b20      	ldr	r3, [pc, #128]	; (80063d0 <prvAddCurrentTaskToDelayedList+0xd8>)
 800634e:	681b      	ldr	r3, [r3, #0]
 8006350:	3304      	adds	r3, #4
 8006352:	4619      	mov	r1, r3
 8006354:	4820      	ldr	r0, [pc, #128]	; (80063d8 <prvAddCurrentTaskToDelayedList+0xe0>)
 8006356:	f7fe fffa 	bl	800534e <vListInsertEnd>

		/* Avoid compiler warning when INCLUDE_vTaskSuspend is not 1. */
		( void ) xCanBlockIndefinitely;
	}
	#endif /* INCLUDE_vTaskSuspend */
}
 800635a:	e032      	b.n	80063c2 <prvAddCurrentTaskToDelayedList+0xca>
			xTimeToWake = xConstTickCount + xTicksToWait;
 800635c:	68fa      	ldr	r2, [r7, #12]
 800635e:	687b      	ldr	r3, [r7, #4]
 8006360:	4413      	add	r3, r2
 8006362:	60bb      	str	r3, [r7, #8]
			listSET_LIST_ITEM_VALUE( &( pxCurrentTCB->xStateListItem ), xTimeToWake );
 8006364:	4b1a      	ldr	r3, [pc, #104]	; (80063d0 <prvAddCurrentTaskToDelayedList+0xd8>)
 8006366:	681b      	ldr	r3, [r3, #0]
 8006368:	68ba      	ldr	r2, [r7, #8]
 800636a:	605a      	str	r2, [r3, #4]
			if( xTimeToWake < xConstTickCount )
 800636c:	68ba      	ldr	r2, [r7, #8]
 800636e:	68fb      	ldr	r3, [r7, #12]
 8006370:	429a      	cmp	r2, r3
 8006372:	d20f      	bcs.n	8006394 <prvAddCurrentTaskToDelayedList+0x9c>
				traceMOVED_TASK_TO_OVERFLOW_DELAYED_LIST();
 8006374:	4b16      	ldr	r3, [pc, #88]	; (80063d0 <prvAddCurrentTaskToDelayedList+0xd8>)
 8006376:	681b      	ldr	r3, [r3, #0]
 8006378:	2104      	movs	r1, #4
 800637a:	4618      	mov	r0, r3
 800637c:	f001 ffb6 	bl	80082ec <SEGGER_SYSVIEW_OnTaskStopReady>
				vListInsert( pxOverflowDelayedTaskList, &( pxCurrentTCB->xStateListItem ) );
 8006380:	4b16      	ldr	r3, [pc, #88]	; (80063dc <prvAddCurrentTaskToDelayedList+0xe4>)
 8006382:	681a      	ldr	r2, [r3, #0]
 8006384:	4b12      	ldr	r3, [pc, #72]	; (80063d0 <prvAddCurrentTaskToDelayedList+0xd8>)
 8006386:	681b      	ldr	r3, [r3, #0]
 8006388:	3304      	adds	r3, #4
 800638a:	4619      	mov	r1, r3
 800638c:	4610      	mov	r0, r2
 800638e:	f7ff f801 	bl	8005394 <vListInsert>
}
 8006392:	e016      	b.n	80063c2 <prvAddCurrentTaskToDelayedList+0xca>
				traceMOVED_TASK_TO_DELAYED_LIST();
 8006394:	4b0e      	ldr	r3, [pc, #56]	; (80063d0 <prvAddCurrentTaskToDelayedList+0xd8>)
 8006396:	681b      	ldr	r3, [r3, #0]
 8006398:	2104      	movs	r1, #4
 800639a:	4618      	mov	r0, r3
 800639c:	f001 ffa6 	bl	80082ec <SEGGER_SYSVIEW_OnTaskStopReady>
				vListInsert( pxDelayedTaskList, &( pxCurrentTCB->xStateListItem ) );
 80063a0:	4b0f      	ldr	r3, [pc, #60]	; (80063e0 <prvAddCurrentTaskToDelayedList+0xe8>)
 80063a2:	681a      	ldr	r2, [r3, #0]
 80063a4:	4b0a      	ldr	r3, [pc, #40]	; (80063d0 <prvAddCurrentTaskToDelayedList+0xd8>)
 80063a6:	681b      	ldr	r3, [r3, #0]
 80063a8:	3304      	adds	r3, #4
 80063aa:	4619      	mov	r1, r3
 80063ac:	4610      	mov	r0, r2
 80063ae:	f7fe fff1 	bl	8005394 <vListInsert>
				if( xTimeToWake < xNextTaskUnblockTime )
 80063b2:	4b0c      	ldr	r3, [pc, #48]	; (80063e4 <prvAddCurrentTaskToDelayedList+0xec>)
 80063b4:	681b      	ldr	r3, [r3, #0]
 80063b6:	68ba      	ldr	r2, [r7, #8]
 80063b8:	429a      	cmp	r2, r3
 80063ba:	d202      	bcs.n	80063c2 <prvAddCurrentTaskToDelayedList+0xca>
					xNextTaskUnblockTime = xTimeToWake;
 80063bc:	4a09      	ldr	r2, [pc, #36]	; (80063e4 <prvAddCurrentTaskToDelayedList+0xec>)
 80063be:	68bb      	ldr	r3, [r7, #8]
 80063c0:	6013      	str	r3, [r2, #0]
}
 80063c2:	bf00      	nop
 80063c4:	3710      	adds	r7, #16
 80063c6:	46bd      	mov	sp, r7
 80063c8:	bd80      	pop	{r7, pc}
 80063ca:	bf00      	nop
 80063cc:	2000058c 	.word	0x2000058c
 80063d0:	20000488 	.word	0x20000488
 80063d4:	20000590 	.word	0x20000590
 80063d8:	20000574 	.word	0x20000574
 80063dc:	20000544 	.word	0x20000544
 80063e0:	20000540 	.word	0x20000540
 80063e4:	200005a8 	.word	0x200005a8

080063e8 <pxPortInitialiseStack>:

/*
 * See header file for description.
 */
StackType_t *pxPortInitialiseStack( StackType_t *pxTopOfStack, TaskFunction_t pxCode, void *pvParameters )
{
 80063e8:	b480      	push	{r7}
 80063ea:	b085      	sub	sp, #20
 80063ec:	af00      	add	r7, sp, #0
 80063ee:	60f8      	str	r0, [r7, #12]
 80063f0:	60b9      	str	r1, [r7, #8]
 80063f2:	607a      	str	r2, [r7, #4]
	/* Simulate the stack frame as it would be created by a context switch
	interrupt. */
	pxTopOfStack--; /* Offset added to account for the way the MCU uses the stack on entry/exit of interrupts. */
 80063f4:	68fb      	ldr	r3, [r7, #12]
 80063f6:	3b04      	subs	r3, #4
 80063f8:	60fb      	str	r3, [r7, #12]
	*pxTopOfStack = portINITIAL_XPSR;	/* xPSR */
 80063fa:	68fb      	ldr	r3, [r7, #12]
 80063fc:	f04f 7280 	mov.w	r2, #16777216	; 0x1000000
 8006400:	601a      	str	r2, [r3, #0]
	pxTopOfStack--;
 8006402:	68fb      	ldr	r3, [r7, #12]
 8006404:	3b04      	subs	r3, #4
 8006406:	60fb      	str	r3, [r7, #12]
	*pxTopOfStack = ( ( StackType_t ) pxCode ) & portSTART_ADDRESS_MASK;	/* PC */
 8006408:	68bb      	ldr	r3, [r7, #8]
 800640a:	f023 0201 	bic.w	r2, r3, #1
 800640e:	68fb      	ldr	r3, [r7, #12]
 8006410:	601a      	str	r2, [r3, #0]
	pxTopOfStack--;
 8006412:	68fb      	ldr	r3, [r7, #12]
 8006414:	3b04      	subs	r3, #4
 8006416:	60fb      	str	r3, [r7, #12]
	*pxTopOfStack = ( StackType_t ) portTASK_RETURN_ADDRESS;	/* LR */
 8006418:	4a08      	ldr	r2, [pc, #32]	; (800643c <pxPortInitialiseStack+0x54>)
 800641a:	68fb      	ldr	r3, [r7, #12]
 800641c:	601a      	str	r2, [r3, #0]
	pxTopOfStack -= 5;	/* R12, R3, R2 and R1. */
 800641e:	68fb      	ldr	r3, [r7, #12]
 8006420:	3b14      	subs	r3, #20
 8006422:	60fb      	str	r3, [r7, #12]
	*pxTopOfStack = ( StackType_t ) pvParameters;	/* R0 */
 8006424:	687a      	ldr	r2, [r7, #4]
 8006426:	68fb      	ldr	r3, [r7, #12]
 8006428:	601a      	str	r2, [r3, #0]
	pxTopOfStack -= 8;	/* R11, R10, R9, R8, R7, R6, R5 and R4. */
 800642a:	68fb      	ldr	r3, [r7, #12]
 800642c:	3b20      	subs	r3, #32
 800642e:	60fb      	str	r3, [r7, #12]

	return pxTopOfStack;
 8006430:	68fb      	ldr	r3, [r7, #12]
}
 8006432:	4618      	mov	r0, r3
 8006434:	3714      	adds	r7, #20
 8006436:	46bd      	mov	sp, r7
 8006438:	bc80      	pop	{r7}
 800643a:	4770      	bx	lr
 800643c:	08006441 	.word	0x08006441

08006440 <prvTaskExitError>:
/*-----------------------------------------------------------*/

static void prvTaskExitError( void )
{
 8006440:	b480      	push	{r7}
 8006442:	b085      	sub	sp, #20
 8006444:	af00      	add	r7, sp, #0
volatile uint32_t ulDummy = 0UL;
 8006446:	2300      	movs	r3, #0
 8006448:	607b      	str	r3, [r7, #4]
	its caller as there is nothing to return to.  If a task wants to exit it
	should instead call vTaskDelete( NULL ).

	Artificially force an assert() to be triggered if configASSERT() is
	defined, then stop here so application writers can catch the error. */
	configASSERT( uxCriticalNesting == ~0UL );
 800644a:	4b10      	ldr	r3, [pc, #64]	; (800648c <prvTaskExitError+0x4c>)
 800644c:	681b      	ldr	r3, [r3, #0]
 800644e:	f1b3 3fff 	cmp.w	r3, #4294967295
 8006452:	d009      	beq.n	8006468 <prvTaskExitError+0x28>
 8006454:	f04f 0350 	mov.w	r3, #80	; 0x50
 8006458:	f383 8811 	msr	BASEPRI, r3
 800645c:	f3bf 8f6f 	isb	sy
 8006460:	f3bf 8f4f 	dsb	sy
 8006464:	60fb      	str	r3, [r7, #12]
 8006466:	e7fe      	b.n	8006466 <prvTaskExitError+0x26>
 8006468:	f04f 0350 	mov.w	r3, #80	; 0x50
 800646c:	f383 8811 	msr	BASEPRI, r3
 8006470:	f3bf 8f6f 	isb	sy
 8006474:	f3bf 8f4f 	dsb	sy
 8006478:	60bb      	str	r3, [r7, #8]
	portDISABLE_INTERRUPTS();
	while( ulDummy == 0 )
 800647a:	bf00      	nop
 800647c:	687b      	ldr	r3, [r7, #4]
 800647e:	2b00      	cmp	r3, #0
 8006480:	d0fc      	beq.n	800647c <prvTaskExitError+0x3c>
		about code appearing after this function is called - making ulDummy
		volatile makes the compiler think the function could return and
		therefore not output an 'unreachable code' warning for code that appears
		after it. */
	}
}
 8006482:	bf00      	nop
 8006484:	3714      	adds	r7, #20
 8006486:	46bd      	mov	sp, r7
 8006488:	bc80      	pop	{r7}
 800648a:	4770      	bx	lr
 800648c:	20000010 	.word	0x20000010

08006490 <SVC_Handler>:
/*-----------------------------------------------------------*/

void vPortSVCHandler( void )
{
	__asm volatile (
 8006490:	4b07      	ldr	r3, [pc, #28]	; (80064b0 <pxCurrentTCBConst2>)
 8006492:	6819      	ldr	r1, [r3, #0]
 8006494:	6808      	ldr	r0, [r1, #0]
 8006496:	e8b0 0ff0 	ldmia.w	r0!, {r4, r5, r6, r7, r8, r9, sl, fp}
 800649a:	f380 8809 	msr	PSP, r0
 800649e:	f3bf 8f6f 	isb	sy
 80064a2:	f04f 0000 	mov.w	r0, #0
 80064a6:	f380 8811 	msr	BASEPRI, r0
 80064aa:	f04e 0e0d 	orr.w	lr, lr, #13
 80064ae:	4770      	bx	lr

080064b0 <pxCurrentTCBConst2>:
 80064b0:	20000488 	.word	0x20000488
					"	bx r14							\n"
					"									\n"
					"	.align 4						\n"
					"pxCurrentTCBConst2: .word pxCurrentTCB				\n"
				);
}
 80064b4:	bf00      	nop
 80064b6:	bf00      	nop

080064b8 <prvPortStartFirstTask>:
/*-----------------------------------------------------------*/

static void prvPortStartFirstTask( void )
{
	__asm volatile(
 80064b8:	4806      	ldr	r0, [pc, #24]	; (80064d4 <prvPortStartFirstTask+0x1c>)
 80064ba:	6800      	ldr	r0, [r0, #0]
 80064bc:	6800      	ldr	r0, [r0, #0]
 80064be:	f380 8808 	msr	MSP, r0
 80064c2:	b662      	cpsie	i
 80064c4:	b661      	cpsie	f
 80064c6:	f3bf 8f4f 	dsb	sy
 80064ca:	f3bf 8f6f 	isb	sy
 80064ce:	df00      	svc	0
 80064d0:	bf00      	nop
					" dsb					\n"
					" isb					\n"
					" svc 0					\n" /* System call to start first task. */
					" nop					\n"
				);
}
 80064d2:	bf00      	nop
 80064d4:	e000ed08 	.word	0xe000ed08

080064d8 <xPortStartScheduler>:

/*
 * See header file for description.
 */
BaseType_t xPortStartScheduler( void )
{
 80064d8:	b580      	push	{r7, lr}
 80064da:	b084      	sub	sp, #16
 80064dc:	af00      	add	r7, sp, #0
	configASSERT( configMAX_SYSCALL_INTERRUPT_PRIORITY );

	#if( configASSERT_DEFINED == 1 )
	{
		volatile uint32_t ulOriginalPriority;
		volatile uint8_t * const pucFirstUserPriorityRegister = ( volatile uint8_t * const ) ( portNVIC_IP_REGISTERS_OFFSET_16 + portFIRST_USER_INTERRUPT_NUMBER );
 80064de:	4b31      	ldr	r3, [pc, #196]	; (80065a4 <xPortStartScheduler+0xcc>)
 80064e0:	60fb      	str	r3, [r7, #12]
		functions can be called.  ISR safe functions are those that end in
		"FromISR".  FreeRTOS maintains separate thread and ISR API functions to
		ensure interrupt entry is as fast and simple as possible.

		Save the interrupt priority value that is about to be clobbered. */
		ulOriginalPriority = *pucFirstUserPriorityRegister;
 80064e2:	68fb      	ldr	r3, [r7, #12]
 80064e4:	781b      	ldrb	r3, [r3, #0]
 80064e6:	b2db      	uxtb	r3, r3
 80064e8:	607b      	str	r3, [r7, #4]

		/* Determine the number of priority bits available.  First write to all
		possible bits. */
		*pucFirstUserPriorityRegister = portMAX_8_BIT_VALUE;
 80064ea:	68fb      	ldr	r3, [r7, #12]
 80064ec:	22ff      	movs	r2, #255	; 0xff
 80064ee:	701a      	strb	r2, [r3, #0]

		/* Read the value back to see how many bits stuck. */
		ucMaxPriorityValue = *pucFirstUserPriorityRegister;
 80064f0:	68fb      	ldr	r3, [r7, #12]
 80064f2:	781b      	ldrb	r3, [r3, #0]
 80064f4:	b2db      	uxtb	r3, r3
 80064f6:	70fb      	strb	r3, [r7, #3]

		/* Use the same mask on the maximum system call priority. */
		ucMaxSysCallPriority = configMAX_SYSCALL_INTERRUPT_PRIORITY & ucMaxPriorityValue;
 80064f8:	78fb      	ldrb	r3, [r7, #3]
 80064fa:	b2db      	uxtb	r3, r3
 80064fc:	f003 0350 	and.w	r3, r3, #80	; 0x50
 8006500:	b2da      	uxtb	r2, r3
 8006502:	4b29      	ldr	r3, [pc, #164]	; (80065a8 <xPortStartScheduler+0xd0>)
 8006504:	701a      	strb	r2, [r3, #0]

		/* Calculate the maximum acceptable priority group value for the number
		of bits read back. */
		ulMaxPRIGROUPValue = portMAX_PRIGROUP_BITS;
 8006506:	4b29      	ldr	r3, [pc, #164]	; (80065ac <xPortStartScheduler+0xd4>)
 8006508:	2207      	movs	r2, #7
 800650a:	601a      	str	r2, [r3, #0]
		while( ( ucMaxPriorityValue & portTOP_BIT_OF_BYTE ) == portTOP_BIT_OF_BYTE )
 800650c:	e009      	b.n	8006522 <xPortStartScheduler+0x4a>
		{
			ulMaxPRIGROUPValue--;
 800650e:	4b27      	ldr	r3, [pc, #156]	; (80065ac <xPortStartScheduler+0xd4>)
 8006510:	681b      	ldr	r3, [r3, #0]
 8006512:	3b01      	subs	r3, #1
 8006514:	4a25      	ldr	r2, [pc, #148]	; (80065ac <xPortStartScheduler+0xd4>)
 8006516:	6013      	str	r3, [r2, #0]
			ucMaxPriorityValue <<= ( uint8_t ) 0x01;
 8006518:	78fb      	ldrb	r3, [r7, #3]
 800651a:	b2db      	uxtb	r3, r3
 800651c:	005b      	lsls	r3, r3, #1
 800651e:	b2db      	uxtb	r3, r3
 8006520:	70fb      	strb	r3, [r7, #3]
		while( ( ucMaxPriorityValue & portTOP_BIT_OF_BYTE ) == portTOP_BIT_OF_BYTE )
 8006522:	78fb      	ldrb	r3, [r7, #3]
 8006524:	b2db      	uxtb	r3, r3
 8006526:	f003 0380 	and.w	r3, r3, #128	; 0x80
 800652a:	2b80      	cmp	r3, #128	; 0x80
 800652c:	d0ef      	beq.n	800650e <xPortStartScheduler+0x36>
		#ifdef configPRIO_BITS
		{
			/* Check the FreeRTOS configuration that defines the number of
			priority bits matches the number of priority bits actually queried
			from the hardware. */
			configASSERT( ( portMAX_PRIGROUP_BITS - ulMaxPRIGROUPValue ) == configPRIO_BITS );
 800652e:	4b1f      	ldr	r3, [pc, #124]	; (80065ac <xPortStartScheduler+0xd4>)
 8006530:	681b      	ldr	r3, [r3, #0]
 8006532:	f1c3 0307 	rsb	r3, r3, #7
 8006536:	2b04      	cmp	r3, #4
 8006538:	d009      	beq.n	800654e <xPortStartScheduler+0x76>
 800653a:	f04f 0350 	mov.w	r3, #80	; 0x50
 800653e:	f383 8811 	msr	BASEPRI, r3
 8006542:	f3bf 8f6f 	isb	sy
 8006546:	f3bf 8f4f 	dsb	sy
 800654a:	60bb      	str	r3, [r7, #8]
 800654c:	e7fe      	b.n	800654c <xPortStartScheduler+0x74>
		}
		#endif

		/* Shift the priority group value back to its position within the AIRCR
		register. */
		ulMaxPRIGROUPValue <<= portPRIGROUP_SHIFT;
 800654e:	4b17      	ldr	r3, [pc, #92]	; (80065ac <xPortStartScheduler+0xd4>)
 8006550:	681b      	ldr	r3, [r3, #0]
 8006552:	021b      	lsls	r3, r3, #8
 8006554:	4a15      	ldr	r2, [pc, #84]	; (80065ac <xPortStartScheduler+0xd4>)
 8006556:	6013      	str	r3, [r2, #0]
		ulMaxPRIGROUPValue &= portPRIORITY_GROUP_MASK;
 8006558:	4b14      	ldr	r3, [pc, #80]	; (80065ac <xPortStartScheduler+0xd4>)
 800655a:	681b      	ldr	r3, [r3, #0]
 800655c:	f403 63e0 	and.w	r3, r3, #1792	; 0x700
 8006560:	4a12      	ldr	r2, [pc, #72]	; (80065ac <xPortStartScheduler+0xd4>)
 8006562:	6013      	str	r3, [r2, #0]

		/* Restore the clobbered interrupt priority register to its original
		value. */
		*pucFirstUserPriorityRegister = ulOriginalPriority;
 8006564:	687b      	ldr	r3, [r7, #4]
 8006566:	b2da      	uxtb	r2, r3
 8006568:	68fb      	ldr	r3, [r7, #12]
 800656a:	701a      	strb	r2, [r3, #0]
	}
	#endif /* conifgASSERT_DEFINED */

	/* Make PendSV and SysTick the lowest priority interrupts. */
	portNVIC_SYSPRI2_REG |= portNVIC_PENDSV_PRI;
 800656c:	4b10      	ldr	r3, [pc, #64]	; (80065b0 <xPortStartScheduler+0xd8>)
 800656e:	681b      	ldr	r3, [r3, #0]
 8006570:	4a0f      	ldr	r2, [pc, #60]	; (80065b0 <xPortStartScheduler+0xd8>)
 8006572:	f443 0370 	orr.w	r3, r3, #15728640	; 0xf00000
 8006576:	6013      	str	r3, [r2, #0]
	portNVIC_SYSPRI2_REG |= portNVIC_SYSTICK_PRI;
 8006578:	4b0d      	ldr	r3, [pc, #52]	; (80065b0 <xPortStartScheduler+0xd8>)
 800657a:	681b      	ldr	r3, [r3, #0]
 800657c:	4a0c      	ldr	r2, [pc, #48]	; (80065b0 <xPortStartScheduler+0xd8>)
 800657e:	f043 4370 	orr.w	r3, r3, #4026531840	; 0xf0000000
 8006582:	6013      	str	r3, [r2, #0]

	/* Start the timer that generates the tick ISR.  Interrupts are disabled
	here already. */
	vPortSetupTimerInterrupt();
 8006584:	f000 f910 	bl	80067a8 <vPortSetupTimerInterrupt>

	/* Initialise the critical nesting count ready for the first task. */
	uxCriticalNesting = 0;
 8006588:	4b0a      	ldr	r3, [pc, #40]	; (80065b4 <xPortStartScheduler+0xdc>)
 800658a:	2200      	movs	r2, #0
 800658c:	601a      	str	r2, [r3, #0]

	/* Start the first task. */
	prvPortStartFirstTask();
 800658e:	f7ff ff93 	bl	80064b8 <prvPortStartFirstTask>
	exit error function to prevent compiler warnings about a static function
	not being called in the case that the application writer overrides this
	functionality by defining configTASK_RETURN_ADDRESS.  Call
	vTaskSwitchContext() so link time optimisation does not remove the
	symbol. */
	vTaskSwitchContext();
 8006592:	f7ff fd0d 	bl	8005fb0 <vTaskSwitchContext>
	prvTaskExitError();
 8006596:	f7ff ff53 	bl	8006440 <prvTaskExitError>

	/* Should not get here! */
	return 0;
 800659a:	2300      	movs	r3, #0
}
 800659c:	4618      	mov	r0, r3
 800659e:	3710      	adds	r7, #16
 80065a0:	46bd      	mov	sp, r7
 80065a2:	bd80      	pop	{r7, pc}
 80065a4:	e000e400 	.word	0xe000e400
 80065a8:	200005b4 	.word	0x200005b4
 80065ac:	200005b8 	.word	0x200005b8
 80065b0:	e000ed20 	.word	0xe000ed20
 80065b4:	20000010 	.word	0x20000010

080065b8 <vInitPrioGroupValue>:
/*-----------------------------------------------------------*/
void vInitPrioGroupValue(void)
{
 80065b8:	b480      	push	{r7}
 80065ba:	b085      	sub	sp, #20
 80065bc:	af00      	add	r7, sp, #0
  //  configASSERT( portCPUID != portCORTEX_M7_r0p0_ID );

    #if ( configASSERT_DEFINED == 1 )
        {
            volatile uint32_t ulOriginalPriority;
            volatile uint8_t * const pucFirstUserPriorityRegister = ( volatile uint8_t * const ) ( portNVIC_IP_REGISTERS_OFFSET_16 + portFIRST_USER_INTERRUPT_NUMBER );
 80065be:	4b26      	ldr	r3, [pc, #152]	; (8006658 <vInitPrioGroupValue+0xa0>)
 80065c0:	60fb      	str	r3, [r7, #12]
             * functions can be called.  ISR safe functions are those that end in
             * "FromISR".  FreeRTOS maintains separate thread and ISR API functions to
             * ensure interrupt entry is as fast and simple as possible.
             *
             * Save the interrupt priority value that is about to be clobbered. */
            ulOriginalPriority = *pucFirstUserPriorityRegister;
 80065c2:	68fb      	ldr	r3, [r7, #12]
 80065c4:	781b      	ldrb	r3, [r3, #0]
 80065c6:	b2db      	uxtb	r3, r3
 80065c8:	607b      	str	r3, [r7, #4]

            /* Determine the number of priority bits available.  First write to all
             * possible bits. */
            *pucFirstUserPriorityRegister = portMAX_8_BIT_VALUE;
 80065ca:	68fb      	ldr	r3, [r7, #12]
 80065cc:	22ff      	movs	r2, #255	; 0xff
 80065ce:	701a      	strb	r2, [r3, #0]

            /* Read the value back to see how many bits stuck. */
            ucMaxPriorityValue = *pucFirstUserPriorityRegister;
 80065d0:	68fb      	ldr	r3, [r7, #12]
 80065d2:	781b      	ldrb	r3, [r3, #0]
 80065d4:	b2db      	uxtb	r3, r3
 80065d6:	70fb      	strb	r3, [r7, #3]

            /* Use the same mask on the maximum system call priority. */
            ucMaxSysCallPriority = configMAX_SYSCALL_INTERRUPT_PRIORITY & ucMaxPriorityValue;
 80065d8:	78fb      	ldrb	r3, [r7, #3]
 80065da:	b2db      	uxtb	r3, r3
 80065dc:	f003 0350 	and.w	r3, r3, #80	; 0x50
 80065e0:	b2da      	uxtb	r2, r3
 80065e2:	4b1e      	ldr	r3, [pc, #120]	; (800665c <vInitPrioGroupValue+0xa4>)
 80065e4:	701a      	strb	r2, [r3, #0]

            /* Calculate the maximum acceptable priority group value for the number
             * of bits read back. */
            ulMaxPRIGROUPValue = portMAX_PRIGROUP_BITS;
 80065e6:	4b1e      	ldr	r3, [pc, #120]	; (8006660 <vInitPrioGroupValue+0xa8>)
 80065e8:	2207      	movs	r2, #7
 80065ea:	601a      	str	r2, [r3, #0]

            while( ( ucMaxPriorityValue & portTOP_BIT_OF_BYTE ) == portTOP_BIT_OF_BYTE )
 80065ec:	e009      	b.n	8006602 <vInitPrioGroupValue+0x4a>
            {
                ulMaxPRIGROUPValue--;
 80065ee:	4b1c      	ldr	r3, [pc, #112]	; (8006660 <vInitPrioGroupValue+0xa8>)
 80065f0:	681b      	ldr	r3, [r3, #0]
 80065f2:	3b01      	subs	r3, #1
 80065f4:	4a1a      	ldr	r2, [pc, #104]	; (8006660 <vInitPrioGroupValue+0xa8>)
 80065f6:	6013      	str	r3, [r2, #0]
                ucMaxPriorityValue <<= ( uint8_t ) 0x01;
 80065f8:	78fb      	ldrb	r3, [r7, #3]
 80065fa:	b2db      	uxtb	r3, r3
 80065fc:	005b      	lsls	r3, r3, #1
 80065fe:	b2db      	uxtb	r3, r3
 8006600:	70fb      	strb	r3, [r7, #3]
            while( ( ucMaxPriorityValue & portTOP_BIT_OF_BYTE ) == portTOP_BIT_OF_BYTE )
 8006602:	78fb      	ldrb	r3, [r7, #3]
 8006604:	b2db      	uxtb	r3, r3
 8006606:	f003 0380 	and.w	r3, r3, #128	; 0x80
 800660a:	2b80      	cmp	r3, #128	; 0x80
 800660c:	d0ef      	beq.n	80065ee <vInitPrioGroupValue+0x36>
            #ifdef configPRIO_BITS
                {
                    /* Check the FreeRTOS configuration that defines the number of
                     * priority bits matches the number of priority bits actually queried
                     * from the hardware. */
                    configASSERT( ( portMAX_PRIGROUP_BITS - ulMaxPRIGROUPValue ) == configPRIO_BITS );
 800660e:	4b14      	ldr	r3, [pc, #80]	; (8006660 <vInitPrioGroupValue+0xa8>)
 8006610:	681b      	ldr	r3, [r3, #0]
 8006612:	f1c3 0307 	rsb	r3, r3, #7
 8006616:	2b04      	cmp	r3, #4
 8006618:	d009      	beq.n	800662e <vInitPrioGroupValue+0x76>
 800661a:	f04f 0350 	mov.w	r3, #80	; 0x50
 800661e:	f383 8811 	msr	BASEPRI, r3
 8006622:	f3bf 8f6f 	isb	sy
 8006626:	f3bf 8f4f 	dsb	sy
 800662a:	60bb      	str	r3, [r7, #8]
 800662c:	e7fe      	b.n	800662c <vInitPrioGroupValue+0x74>
                }
            #endif

            /* Shift the priority group value back to its position within the AIRCR
             * register. */
            ulMaxPRIGROUPValue <<= portPRIGROUP_SHIFT;
 800662e:	4b0c      	ldr	r3, [pc, #48]	; (8006660 <vInitPrioGroupValue+0xa8>)
 8006630:	681b      	ldr	r3, [r3, #0]
 8006632:	021b      	lsls	r3, r3, #8
 8006634:	4a0a      	ldr	r2, [pc, #40]	; (8006660 <vInitPrioGroupValue+0xa8>)
 8006636:	6013      	str	r3, [r2, #0]
            ulMaxPRIGROUPValue &= portPRIORITY_GROUP_MASK;
 8006638:	4b09      	ldr	r3, [pc, #36]	; (8006660 <vInitPrioGroupValue+0xa8>)
 800663a:	681b      	ldr	r3, [r3, #0]
 800663c:	f403 63e0 	and.w	r3, r3, #1792	; 0x700
 8006640:	4a07      	ldr	r2, [pc, #28]	; (8006660 <vInitPrioGroupValue+0xa8>)
 8006642:	6013      	str	r3, [r2, #0]

            /* Restore the clobbered interrupt priority register to its original
             * value. */
            *pucFirstUserPriorityRegister = ulOriginalPriority;
 8006644:	687b      	ldr	r3, [r7, #4]
 8006646:	b2da      	uxtb	r2, r3
 8006648:	68fb      	ldr	r3, [r7, #12]
 800664a:	701a      	strb	r2, [r3, #0]
        }
    #endif /* conifgASSERT_DEFINED */
}
 800664c:	bf00      	nop
 800664e:	3714      	adds	r7, #20
 8006650:	46bd      	mov	sp, r7
 8006652:	bc80      	pop	{r7}
 8006654:	4770      	bx	lr
 8006656:	bf00      	nop
 8006658:	e000e400 	.word	0xe000e400
 800665c:	200005b4 	.word	0x200005b4
 8006660:	200005b8 	.word	0x200005b8

08006664 <vPortEnterCritical>:
	configASSERT( uxCriticalNesting == 1000UL );
}
/*-----------------------------------------------------------*/

void vPortEnterCritical( void )
{
 8006664:	b480      	push	{r7}
 8006666:	b083      	sub	sp, #12
 8006668:	af00      	add	r7, sp, #0
 800666a:	f04f 0350 	mov.w	r3, #80	; 0x50
 800666e:	f383 8811 	msr	BASEPRI, r3
 8006672:	f3bf 8f6f 	isb	sy
 8006676:	f3bf 8f4f 	dsb	sy
 800667a:	607b      	str	r3, [r7, #4]
	portDISABLE_INTERRUPTS();
	uxCriticalNesting++;
 800667c:	4b0e      	ldr	r3, [pc, #56]	; (80066b8 <vPortEnterCritical+0x54>)
 800667e:	681b      	ldr	r3, [r3, #0]
 8006680:	3301      	adds	r3, #1
 8006682:	4a0d      	ldr	r2, [pc, #52]	; (80066b8 <vPortEnterCritical+0x54>)
 8006684:	6013      	str	r3, [r2, #0]
	/* This is not the interrupt safe version of the enter critical function so
	assert() if it is being called from an interrupt context.  Only API
	functions that end in "FromISR" can be used in an interrupt.  Only assert if
	the critical nesting count is 1 to protect against recursive calls if the
	assert function also uses a critical section. */
	if( uxCriticalNesting == 1 )
 8006686:	4b0c      	ldr	r3, [pc, #48]	; (80066b8 <vPortEnterCritical+0x54>)
 8006688:	681b      	ldr	r3, [r3, #0]
 800668a:	2b01      	cmp	r3, #1
 800668c:	d10e      	bne.n	80066ac <vPortEnterCritical+0x48>
	{
		configASSERT( ( portNVIC_INT_CTRL_REG & portVECTACTIVE_MASK ) == 0 );
 800668e:	4b0b      	ldr	r3, [pc, #44]	; (80066bc <vPortEnterCritical+0x58>)
 8006690:	681b      	ldr	r3, [r3, #0]
 8006692:	b2db      	uxtb	r3, r3
 8006694:	2b00      	cmp	r3, #0
 8006696:	d009      	beq.n	80066ac <vPortEnterCritical+0x48>
 8006698:	f04f 0350 	mov.w	r3, #80	; 0x50
 800669c:	f383 8811 	msr	BASEPRI, r3
 80066a0:	f3bf 8f6f 	isb	sy
 80066a4:	f3bf 8f4f 	dsb	sy
 80066a8:	603b      	str	r3, [r7, #0]
 80066aa:	e7fe      	b.n	80066aa <vPortEnterCritical+0x46>
	}
}
 80066ac:	bf00      	nop
 80066ae:	370c      	adds	r7, #12
 80066b0:	46bd      	mov	sp, r7
 80066b2:	bc80      	pop	{r7}
 80066b4:	4770      	bx	lr
 80066b6:	bf00      	nop
 80066b8:	20000010 	.word	0x20000010
 80066bc:	e000ed04 	.word	0xe000ed04

080066c0 <vPortExitCritical>:
/*-----------------------------------------------------------*/

void vPortExitCritical( void )
{
 80066c0:	b480      	push	{r7}
 80066c2:	b083      	sub	sp, #12
 80066c4:	af00      	add	r7, sp, #0
	configASSERT( uxCriticalNesting );
 80066c6:	4b10      	ldr	r3, [pc, #64]	; (8006708 <vPortExitCritical+0x48>)
 80066c8:	681b      	ldr	r3, [r3, #0]
 80066ca:	2b00      	cmp	r3, #0
 80066cc:	d109      	bne.n	80066e2 <vPortExitCritical+0x22>
 80066ce:	f04f 0350 	mov.w	r3, #80	; 0x50
 80066d2:	f383 8811 	msr	BASEPRI, r3
 80066d6:	f3bf 8f6f 	isb	sy
 80066da:	f3bf 8f4f 	dsb	sy
 80066de:	607b      	str	r3, [r7, #4]
 80066e0:	e7fe      	b.n	80066e0 <vPortExitCritical+0x20>
	uxCriticalNesting--;
 80066e2:	4b09      	ldr	r3, [pc, #36]	; (8006708 <vPortExitCritical+0x48>)
 80066e4:	681b      	ldr	r3, [r3, #0]
 80066e6:	3b01      	subs	r3, #1
 80066e8:	4a07      	ldr	r2, [pc, #28]	; (8006708 <vPortExitCritical+0x48>)
 80066ea:	6013      	str	r3, [r2, #0]
	if( uxCriticalNesting == 0 )
 80066ec:	4b06      	ldr	r3, [pc, #24]	; (8006708 <vPortExitCritical+0x48>)
 80066ee:	681b      	ldr	r3, [r3, #0]
 80066f0:	2b00      	cmp	r3, #0
 80066f2:	d104      	bne.n	80066fe <vPortExitCritical+0x3e>
 80066f4:	2300      	movs	r3, #0
 80066f6:	603b      	str	r3, [r7, #0]
}
/*-----------------------------------------------------------*/

portFORCE_INLINE static void vPortSetBASEPRI( uint32_t ulNewMaskValue )
{
	__asm volatile
 80066f8:	683b      	ldr	r3, [r7, #0]
 80066fa:	f383 8811 	msr	BASEPRI, r3
	{
		portENABLE_INTERRUPTS();
	}
}
 80066fe:	bf00      	nop
 8006700:	370c      	adds	r7, #12
 8006702:	46bd      	mov	sp, r7
 8006704:	bc80      	pop	{r7}
 8006706:	4770      	bx	lr
 8006708:	20000010 	.word	0x20000010
 800670c:	00000000 	.word	0x00000000

08006710 <PendSV_Handler>:

void xPortPendSVHandler( void )
{
	/* This is a naked function. */

	__asm volatile
 8006710:	f3ef 8009 	mrs	r0, PSP
 8006714:	f3bf 8f6f 	isb	sy
 8006718:	4b0d      	ldr	r3, [pc, #52]	; (8006750 <pxCurrentTCBConst>)
 800671a:	681a      	ldr	r2, [r3, #0]
 800671c:	e920 0ff0 	stmdb	r0!, {r4, r5, r6, r7, r8, r9, sl, fp}
 8006720:	6010      	str	r0, [r2, #0]
 8006722:	e92d 4008 	stmdb	sp!, {r3, lr}
 8006726:	f04f 0050 	mov.w	r0, #80	; 0x50
 800672a:	f380 8811 	msr	BASEPRI, r0
 800672e:	f7ff fc3f 	bl	8005fb0 <vTaskSwitchContext>
 8006732:	f04f 0000 	mov.w	r0, #0
 8006736:	f380 8811 	msr	BASEPRI, r0
 800673a:	e8bd 4008 	ldmia.w	sp!, {r3, lr}
 800673e:	6819      	ldr	r1, [r3, #0]
 8006740:	6808      	ldr	r0, [r1, #0]
 8006742:	e8b0 0ff0 	ldmia.w	r0!, {r4, r5, r6, r7, r8, r9, sl, fp}
 8006746:	f380 8809 	msr	PSP, r0
 800674a:	f3bf 8f6f 	isb	sy
 800674e:	4770      	bx	lr

08006750 <pxCurrentTCBConst>:
 8006750:	20000488 	.word	0x20000488
	"										\n"
	"	.align 4							\n"
	"pxCurrentTCBConst: .word pxCurrentTCB	\n"
	::"i"(configMAX_SYSCALL_INTERRUPT_PRIORITY)
	);
}
 8006754:	bf00      	nop
 8006756:	bf00      	nop

08006758 <SysTick_Handler>:
/*-----------------------------------------------------------*/

void xPortSysTickHandler( void )
{
 8006758:	b580      	push	{r7, lr}
 800675a:	b082      	sub	sp, #8
 800675c:	af00      	add	r7, sp, #0
	__asm volatile
 800675e:	f04f 0350 	mov.w	r3, #80	; 0x50
 8006762:	f383 8811 	msr	BASEPRI, r3
 8006766:	f3bf 8f6f 	isb	sy
 800676a:	f3bf 8f4f 	dsb	sy
 800676e:	607b      	str	r3, [r7, #4]
	/* The SysTick runs at the lowest interrupt priority, so when this interrupt
	executes all interrupts must be unmasked.  There is therefore no need to
	save and then restore the interrupt mask value as its value is already
	known. */
	portDISABLE_INTERRUPTS();
	traceISR_ENTER();
 8006770:	f001 fc60 	bl	8008034 <SEGGER_SYSVIEW_RecordEnterISR>
	{
		/* Increment the RTOS tick. */
		if( xTaskIncrementTick() != pdFALSE )
 8006774:	f7ff fb5c 	bl	8005e30 <xTaskIncrementTick>
 8006778:	4603      	mov	r3, r0
 800677a:	2b00      	cmp	r3, #0
 800677c:	d006      	beq.n	800678c <SysTick_Handler+0x34>
		{
			traceISR_EXIT_TO_SCHEDULER();
 800677e:	f001 fcb7 	bl	80080f0 <SEGGER_SYSVIEW_RecordExitISRToScheduler>
			/* A context switch is required.  Context switching is performed in
			the PendSV interrupt.  Pend the PendSV interrupt. */
			portNVIC_INT_CTRL_REG = portNVIC_PENDSVSET_BIT;
 8006782:	4b08      	ldr	r3, [pc, #32]	; (80067a4 <SysTick_Handler+0x4c>)
 8006784:	f04f 5280 	mov.w	r2, #268435456	; 0x10000000
 8006788:	601a      	str	r2, [r3, #0]
 800678a:	e001      	b.n	8006790 <SysTick_Handler+0x38>
		}
				else
				{
					traceISR_EXIT();
 800678c:	f001 fc94 	bl	80080b8 <SEGGER_SYSVIEW_RecordExitISR>
 8006790:	2300      	movs	r3, #0
 8006792:	603b      	str	r3, [r7, #0]
	__asm volatile
 8006794:	683b      	ldr	r3, [r7, #0]
 8006796:	f383 8811 	msr	BASEPRI, r3
				}
	}
	portENABLE_INTERRUPTS();
}
 800679a:	bf00      	nop
 800679c:	3708      	adds	r7, #8
 800679e:	46bd      	mov	sp, r7
 80067a0:	bd80      	pop	{r7, pc}
 80067a2:	bf00      	nop
 80067a4:	e000ed04 	.word	0xe000ed04

080067a8 <vPortSetupTimerInterrupt>:
/*
 * Setup the systick timer to generate the tick interrupts at the required
 * frequency.
 */
__attribute__(( weak )) void vPortSetupTimerInterrupt( void )
{
 80067a8:	b480      	push	{r7}
 80067aa:	af00      	add	r7, sp, #0
		ulStoppedTimerCompensation = portMISSED_COUNTS_FACTOR / ( configCPU_CLOCK_HZ / configSYSTICK_CLOCK_HZ );
	}
	#endif /* configUSE_TICKLESS_IDLE */

	/* Stop and clear the SysTick. */
	portNVIC_SYSTICK_CTRL_REG = 0UL;
 80067ac:	4b0a      	ldr	r3, [pc, #40]	; (80067d8 <vPortSetupTimerInterrupt+0x30>)
 80067ae:	2200      	movs	r2, #0
 80067b0:	601a      	str	r2, [r3, #0]
	portNVIC_SYSTICK_CURRENT_VALUE_REG = 0UL;
 80067b2:	4b0a      	ldr	r3, [pc, #40]	; (80067dc <vPortSetupTimerInterrupt+0x34>)
 80067b4:	2200      	movs	r2, #0
 80067b6:	601a      	str	r2, [r3, #0]

	/* Configure SysTick to interrupt at the requested rate. */
	portNVIC_SYSTICK_LOAD_REG = ( configSYSTICK_CLOCK_HZ / configTICK_RATE_HZ ) - 1UL;
 80067b8:	4b09      	ldr	r3, [pc, #36]	; (80067e0 <vPortSetupTimerInterrupt+0x38>)
 80067ba:	681b      	ldr	r3, [r3, #0]
 80067bc:	4a09      	ldr	r2, [pc, #36]	; (80067e4 <vPortSetupTimerInterrupt+0x3c>)
 80067be:	fba2 2303 	umull	r2, r3, r2, r3
 80067c2:	099b      	lsrs	r3, r3, #6
 80067c4:	4a08      	ldr	r2, [pc, #32]	; (80067e8 <vPortSetupTimerInterrupt+0x40>)
 80067c6:	3b01      	subs	r3, #1
 80067c8:	6013      	str	r3, [r2, #0]
	portNVIC_SYSTICK_CTRL_REG = ( portNVIC_SYSTICK_CLK_BIT | portNVIC_SYSTICK_INT_BIT | portNVIC_SYSTICK_ENABLE_BIT );
 80067ca:	4b03      	ldr	r3, [pc, #12]	; (80067d8 <vPortSetupTimerInterrupt+0x30>)
 80067cc:	2207      	movs	r2, #7
 80067ce:	601a      	str	r2, [r3, #0]
}
 80067d0:	bf00      	nop
 80067d2:	46bd      	mov	sp, r7
 80067d4:	bc80      	pop	{r7}
 80067d6:	4770      	bx	lr
 80067d8:	e000e010 	.word	0xe000e010
 80067dc:	e000e018 	.word	0xe000e018
 80067e0:	20000004 	.word	0x20000004
 80067e4:	10624dd3 	.word	0x10624dd3
 80067e8:	e000e014 	.word	0xe000e014

080067ec <vPortValidateInterruptPriority>:
/*-----------------------------------------------------------*/

#if( configASSERT_DEFINED == 1 )

	void vPortValidateInterruptPriority( void )
	{
 80067ec:	b480      	push	{r7}
 80067ee:	b085      	sub	sp, #20
 80067f0:	af00      	add	r7, sp, #0
	uint32_t ulCurrentInterrupt;
	uint8_t ucCurrentPriority;

		/* Obtain the number of the currently executing interrupt. */
		__asm volatile( "mrs %0, ipsr" : "=r"( ulCurrentInterrupt ) :: "memory" );
 80067f2:	f3ef 8305 	mrs	r3, IPSR
 80067f6:	60fb      	str	r3, [r7, #12]

		/* Is the interrupt number a user defined interrupt? */
		if( ulCurrentInterrupt >= portFIRST_USER_INTERRUPT_NUMBER )
 80067f8:	68fb      	ldr	r3, [r7, #12]
 80067fa:	2b0f      	cmp	r3, #15
 80067fc:	d913      	bls.n	8006826 <vPortValidateInterruptPriority+0x3a>
		{
			/* Look up the interrupt's priority. */
			ucCurrentPriority = pcInterruptPriorityRegisters[ ulCurrentInterrupt ];
 80067fe:	4a15      	ldr	r2, [pc, #84]	; (8006854 <vPortValidateInterruptPriority+0x68>)
 8006800:	68fb      	ldr	r3, [r7, #12]
 8006802:	4413      	add	r3, r2
 8006804:	781b      	ldrb	r3, [r3, #0]
 8006806:	72fb      	strb	r3, [r7, #11]
			interrupt entry is as fast and simple as possible.

			The following links provide detailed information:
			http://www.freertos.org/RTOS-Cortex-M3-M4.html
			http://www.freertos.org/FAQHelp.html */
			configASSERT( ucCurrentPriority >= ucMaxSysCallPriority );
 8006808:	4b13      	ldr	r3, [pc, #76]	; (8006858 <vPortValidateInterruptPriority+0x6c>)
 800680a:	781b      	ldrb	r3, [r3, #0]
 800680c:	7afa      	ldrb	r2, [r7, #11]
 800680e:	429a      	cmp	r2, r3
 8006810:	d209      	bcs.n	8006826 <vPortValidateInterruptPriority+0x3a>
	__asm volatile
 8006812:	f04f 0350 	mov.w	r3, #80	; 0x50
 8006816:	f383 8811 	msr	BASEPRI, r3
 800681a:	f3bf 8f6f 	isb	sy
 800681e:	f3bf 8f4f 	dsb	sy
 8006822:	607b      	str	r3, [r7, #4]
 8006824:	e7fe      	b.n	8006824 <vPortValidateInterruptPriority+0x38>
		configuration then the correct setting can be achieved on all Cortex-M
		devices by calling NVIC_SetPriorityGrouping( 0 ); before starting the
		scheduler.  Note however that some vendor specific peripheral libraries
		assume a non-zero priority group setting, in which cases using a value
		of zero will result in unpredictable behaviour. */
		configASSERT( ( portAIRCR_REG & portPRIORITY_GROUP_MASK ) <= ulMaxPRIGROUPValue );
 8006826:	4b0d      	ldr	r3, [pc, #52]	; (800685c <vPortValidateInterruptPriority+0x70>)
 8006828:	681b      	ldr	r3, [r3, #0]
 800682a:	f403 62e0 	and.w	r2, r3, #1792	; 0x700
 800682e:	4b0c      	ldr	r3, [pc, #48]	; (8006860 <vPortValidateInterruptPriority+0x74>)
 8006830:	681b      	ldr	r3, [r3, #0]
 8006832:	429a      	cmp	r2, r3
 8006834:	d909      	bls.n	800684a <vPortValidateInterruptPriority+0x5e>
 8006836:	f04f 0350 	mov.w	r3, #80	; 0x50
 800683a:	f383 8811 	msr	BASEPRI, r3
 800683e:	f3bf 8f6f 	isb	sy
 8006842:	f3bf 8f4f 	dsb	sy
 8006846:	603b      	str	r3, [r7, #0]
 8006848:	e7fe      	b.n	8006848 <vPortValidateInterruptPriority+0x5c>
	}
 800684a:	bf00      	nop
 800684c:	3714      	adds	r7, #20
 800684e:	46bd      	mov	sp, r7
 8006850:	bc80      	pop	{r7}
 8006852:	4770      	bx	lr
 8006854:	e000e3f0 	.word	0xe000e3f0
 8006858:	200005b4 	.word	0x200005b4
 800685c:	e000ed0c 	.word	0xe000ed0c
 8006860:	200005b8 	.word	0x200005b8

08006864 <pvPortMalloc>:
static size_t xBlockAllocatedBit = 0;

/*-----------------------------------------------------------*/

void *pvPortMalloc( size_t xWantedSize )
{
 8006864:	b580      	push	{r7, lr}
 8006866:	b08a      	sub	sp, #40	; 0x28
 8006868:	af00      	add	r7, sp, #0
 800686a:	6078      	str	r0, [r7, #4]
BlockLink_t *pxBlock, *pxPreviousBlock, *pxNewBlockLink;
void *pvReturn = NULL;
 800686c:	2300      	movs	r3, #0
 800686e:	61fb      	str	r3, [r7, #28]

	vTaskSuspendAll();
 8006870:	f7ff fa10 	bl	8005c94 <vTaskSuspendAll>
	{
		/* If this is the first call to malloc then the heap will require
		initialisation to setup the list of free blocks. */
		if( pxEnd == NULL )
 8006874:	4b57      	ldr	r3, [pc, #348]	; (80069d4 <pvPortMalloc+0x170>)
 8006876:	681b      	ldr	r3, [r3, #0]
 8006878:	2b00      	cmp	r3, #0
 800687a:	d101      	bne.n	8006880 <pvPortMalloc+0x1c>
		{
			prvHeapInit();
 800687c:	f000 f90c 	bl	8006a98 <prvHeapInit>

		/* Check the requested block size is not so large that the top bit is
		set.  The top bit of the block size member of the BlockLink_t structure
		is used to determine who owns the block - the application or the
		kernel, so it must be free. */
		if( ( xWantedSize & xBlockAllocatedBit ) == 0 )
 8006880:	4b55      	ldr	r3, [pc, #340]	; (80069d8 <pvPortMalloc+0x174>)
 8006882:	681a      	ldr	r2, [r3, #0]
 8006884:	687b      	ldr	r3, [r7, #4]
 8006886:	4013      	ands	r3, r2
 8006888:	2b00      	cmp	r3, #0
 800688a:	f040 808c 	bne.w	80069a6 <pvPortMalloc+0x142>
		{
			/* The wanted size is increased so it can contain a BlockLink_t
			structure in addition to the requested amount of bytes. */
			if( xWantedSize > 0 )
 800688e:	687b      	ldr	r3, [r7, #4]
 8006890:	2b00      	cmp	r3, #0
 8006892:	d01c      	beq.n	80068ce <pvPortMalloc+0x6a>
			{
				xWantedSize += xHeapStructSize;
 8006894:	2208      	movs	r2, #8
 8006896:	687b      	ldr	r3, [r7, #4]
 8006898:	4413      	add	r3, r2
 800689a:	607b      	str	r3, [r7, #4]

				/* Ensure that blocks are always aligned to the required number
				of bytes. */
				if( ( xWantedSize & portBYTE_ALIGNMENT_MASK ) != 0x00 )
 800689c:	687b      	ldr	r3, [r7, #4]
 800689e:	f003 0307 	and.w	r3, r3, #7
 80068a2:	2b00      	cmp	r3, #0
 80068a4:	d013      	beq.n	80068ce <pvPortMalloc+0x6a>
				{
					/* Byte alignment required. */
					xWantedSize += ( portBYTE_ALIGNMENT - ( xWantedSize & portBYTE_ALIGNMENT_MASK ) );
 80068a6:	687b      	ldr	r3, [r7, #4]
 80068a8:	f023 0307 	bic.w	r3, r3, #7
 80068ac:	3308      	adds	r3, #8
 80068ae:	607b      	str	r3, [r7, #4]
					configASSERT( ( xWantedSize & portBYTE_ALIGNMENT_MASK ) == 0 );
 80068b0:	687b      	ldr	r3, [r7, #4]
 80068b2:	f003 0307 	and.w	r3, r3, #7
 80068b6:	2b00      	cmp	r3, #0
 80068b8:	d009      	beq.n	80068ce <pvPortMalloc+0x6a>
 80068ba:	f04f 0350 	mov.w	r3, #80	; 0x50
 80068be:	f383 8811 	msr	BASEPRI, r3
 80068c2:	f3bf 8f6f 	isb	sy
 80068c6:	f3bf 8f4f 	dsb	sy
 80068ca:	617b      	str	r3, [r7, #20]
 80068cc:	e7fe      	b.n	80068cc <pvPortMalloc+0x68>
			else
			{
				mtCOVERAGE_TEST_MARKER();
			}

			if( ( xWantedSize > 0 ) && ( xWantedSize <= xFreeBytesRemaining ) )
 80068ce:	687b      	ldr	r3, [r7, #4]
 80068d0:	2b00      	cmp	r3, #0
 80068d2:	d068      	beq.n	80069a6 <pvPortMalloc+0x142>
 80068d4:	4b41      	ldr	r3, [pc, #260]	; (80069dc <pvPortMalloc+0x178>)
 80068d6:	681b      	ldr	r3, [r3, #0]
 80068d8:	687a      	ldr	r2, [r7, #4]
 80068da:	429a      	cmp	r2, r3
 80068dc:	d863      	bhi.n	80069a6 <pvPortMalloc+0x142>
			{
				/* Traverse the list from the start	(lowest address) block until
				one	of adequate size is found. */
				pxPreviousBlock = &xStart;
 80068de:	4b40      	ldr	r3, [pc, #256]	; (80069e0 <pvPortMalloc+0x17c>)
 80068e0:	623b      	str	r3, [r7, #32]
				pxBlock = xStart.pxNextFreeBlock;
 80068e2:	4b3f      	ldr	r3, [pc, #252]	; (80069e0 <pvPortMalloc+0x17c>)
 80068e4:	681b      	ldr	r3, [r3, #0]
 80068e6:	627b      	str	r3, [r7, #36]	; 0x24
				while( ( pxBlock->xBlockSize < xWantedSize ) && ( pxBlock->pxNextFreeBlock != NULL ) )
 80068e8:	e004      	b.n	80068f4 <pvPortMalloc+0x90>
				{
					pxPreviousBlock = pxBlock;
 80068ea:	6a7b      	ldr	r3, [r7, #36]	; 0x24
 80068ec:	623b      	str	r3, [r7, #32]
					pxBlock = pxBlock->pxNextFreeBlock;
 80068ee:	6a7b      	ldr	r3, [r7, #36]	; 0x24
 80068f0:	681b      	ldr	r3, [r3, #0]
 80068f2:	627b      	str	r3, [r7, #36]	; 0x24
				while( ( pxBlock->xBlockSize < xWantedSize ) && ( pxBlock->pxNextFreeBlock != NULL ) )
 80068f4:	6a7b      	ldr	r3, [r7, #36]	; 0x24
 80068f6:	685b      	ldr	r3, [r3, #4]
 80068f8:	687a      	ldr	r2, [r7, #4]
 80068fa:	429a      	cmp	r2, r3
 80068fc:	d903      	bls.n	8006906 <pvPortMalloc+0xa2>
 80068fe:	6a7b      	ldr	r3, [r7, #36]	; 0x24
 8006900:	681b      	ldr	r3, [r3, #0]
 8006902:	2b00      	cmp	r3, #0
 8006904:	d1f1      	bne.n	80068ea <pvPortMalloc+0x86>
				}

				/* If the end marker was reached then a block of adequate size
				was	not found. */
				if( pxBlock != pxEnd )
 8006906:	4b33      	ldr	r3, [pc, #204]	; (80069d4 <pvPortMalloc+0x170>)
 8006908:	681b      	ldr	r3, [r3, #0]
 800690a:	6a7a      	ldr	r2, [r7, #36]	; 0x24
 800690c:	429a      	cmp	r2, r3
 800690e:	d04a      	beq.n	80069a6 <pvPortMalloc+0x142>
				{
					/* Return the memory space pointed to - jumping over the
					BlockLink_t structure at its start. */
					pvReturn = ( void * ) ( ( ( uint8_t * ) pxPreviousBlock->pxNextFreeBlock ) + xHeapStructSize );
 8006910:	6a3b      	ldr	r3, [r7, #32]
 8006912:	681b      	ldr	r3, [r3, #0]
 8006914:	2208      	movs	r2, #8
 8006916:	4413      	add	r3, r2
 8006918:	61fb      	str	r3, [r7, #28]

					/* This block is being returned for use so must be taken out
					of the list of free blocks. */
					pxPreviousBlock->pxNextFreeBlock = pxBlock->pxNextFreeBlock;
 800691a:	6a7b      	ldr	r3, [r7, #36]	; 0x24
 800691c:	681a      	ldr	r2, [r3, #0]
 800691e:	6a3b      	ldr	r3, [r7, #32]
 8006920:	601a      	str	r2, [r3, #0]

					/* If the block is larger than required it can be split into
					two. */
					if( ( pxBlock->xBlockSize - xWantedSize ) > heapMINIMUM_BLOCK_SIZE )
 8006922:	6a7b      	ldr	r3, [r7, #36]	; 0x24
 8006924:	685a      	ldr	r2, [r3, #4]
 8006926:	687b      	ldr	r3, [r7, #4]
 8006928:	1ad2      	subs	r2, r2, r3
 800692a:	2308      	movs	r3, #8
 800692c:	005b      	lsls	r3, r3, #1
 800692e:	429a      	cmp	r2, r3
 8006930:	d91e      	bls.n	8006970 <pvPortMalloc+0x10c>
					{
						/* This block is to be split into two.  Create a new
						block following the number of bytes requested. The void
						cast is used to prevent byte alignment warnings from the
						compiler. */
						pxNewBlockLink = ( void * ) ( ( ( uint8_t * ) pxBlock ) + xWantedSize );
 8006932:	6a7a      	ldr	r2, [r7, #36]	; 0x24
 8006934:	687b      	ldr	r3, [r7, #4]
 8006936:	4413      	add	r3, r2
 8006938:	61bb      	str	r3, [r7, #24]
						configASSERT( ( ( ( size_t ) pxNewBlockLink ) & portBYTE_ALIGNMENT_MASK ) == 0 );
 800693a:	69bb      	ldr	r3, [r7, #24]
 800693c:	f003 0307 	and.w	r3, r3, #7
 8006940:	2b00      	cmp	r3, #0
 8006942:	d009      	beq.n	8006958 <pvPortMalloc+0xf4>
 8006944:	f04f 0350 	mov.w	r3, #80	; 0x50
 8006948:	f383 8811 	msr	BASEPRI, r3
 800694c:	f3bf 8f6f 	isb	sy
 8006950:	f3bf 8f4f 	dsb	sy
 8006954:	613b      	str	r3, [r7, #16]
 8006956:	e7fe      	b.n	8006956 <pvPortMalloc+0xf2>

						/* Calculate the sizes of two blocks split from the
						single block. */
						pxNewBlockLink->xBlockSize = pxBlock->xBlockSize - xWantedSize;
 8006958:	6a7b      	ldr	r3, [r7, #36]	; 0x24
 800695a:	685a      	ldr	r2, [r3, #4]
 800695c:	687b      	ldr	r3, [r7, #4]
 800695e:	1ad2      	subs	r2, r2, r3
 8006960:	69bb      	ldr	r3, [r7, #24]
 8006962:	605a      	str	r2, [r3, #4]
						pxBlock->xBlockSize = xWantedSize;
 8006964:	6a7b      	ldr	r3, [r7, #36]	; 0x24
 8006966:	687a      	ldr	r2, [r7, #4]
 8006968:	605a      	str	r2, [r3, #4]

						/* Insert the new block into the list of free blocks. */
						prvInsertBlockIntoFreeList( pxNewBlockLink );
 800696a:	69b8      	ldr	r0, [r7, #24]
 800696c:	f000 f8f6 	bl	8006b5c <prvInsertBlockIntoFreeList>
					else
					{
						mtCOVERAGE_TEST_MARKER();
					}

					xFreeBytesRemaining -= pxBlock->xBlockSize;
 8006970:	4b1a      	ldr	r3, [pc, #104]	; (80069dc <pvPortMalloc+0x178>)
 8006972:	681a      	ldr	r2, [r3, #0]
 8006974:	6a7b      	ldr	r3, [r7, #36]	; 0x24
 8006976:	685b      	ldr	r3, [r3, #4]
 8006978:	1ad3      	subs	r3, r2, r3
 800697a:	4a18      	ldr	r2, [pc, #96]	; (80069dc <pvPortMalloc+0x178>)
 800697c:	6013      	str	r3, [r2, #0]

					if( xFreeBytesRemaining < xMinimumEverFreeBytesRemaining )
 800697e:	4b17      	ldr	r3, [pc, #92]	; (80069dc <pvPortMalloc+0x178>)
 8006980:	681a      	ldr	r2, [r3, #0]
 8006982:	4b18      	ldr	r3, [pc, #96]	; (80069e4 <pvPortMalloc+0x180>)
 8006984:	681b      	ldr	r3, [r3, #0]
 8006986:	429a      	cmp	r2, r3
 8006988:	d203      	bcs.n	8006992 <pvPortMalloc+0x12e>
					{
						xMinimumEverFreeBytesRemaining = xFreeBytesRemaining;
 800698a:	4b14      	ldr	r3, [pc, #80]	; (80069dc <pvPortMalloc+0x178>)
 800698c:	681b      	ldr	r3, [r3, #0]
 800698e:	4a15      	ldr	r2, [pc, #84]	; (80069e4 <pvPortMalloc+0x180>)
 8006990:	6013      	str	r3, [r2, #0]
						mtCOVERAGE_TEST_MARKER();
					}

					/* The block is being returned - it is allocated and owned
					by the application and has no "next" block. */
					pxBlock->xBlockSize |= xBlockAllocatedBit;
 8006992:	6a7b      	ldr	r3, [r7, #36]	; 0x24
 8006994:	685a      	ldr	r2, [r3, #4]
 8006996:	4b10      	ldr	r3, [pc, #64]	; (80069d8 <pvPortMalloc+0x174>)
 8006998:	681b      	ldr	r3, [r3, #0]
 800699a:	431a      	orrs	r2, r3
 800699c:	6a7b      	ldr	r3, [r7, #36]	; 0x24
 800699e:	605a      	str	r2, [r3, #4]
					pxBlock->pxNextFreeBlock = NULL;
 80069a0:	6a7b      	ldr	r3, [r7, #36]	; 0x24
 80069a2:	2200      	movs	r2, #0
 80069a4:	601a      	str	r2, [r3, #0]
			mtCOVERAGE_TEST_MARKER();
		}

		traceMALLOC( pvReturn, xWantedSize );
	}
	( void ) xTaskResumeAll();
 80069a6:	f7ff f983 	bl	8005cb0 <xTaskResumeAll>
			mtCOVERAGE_TEST_MARKER();
		}
	}
	#endif

	configASSERT( ( ( ( size_t ) pvReturn ) & ( size_t ) portBYTE_ALIGNMENT_MASK ) == 0 );
 80069aa:	69fb      	ldr	r3, [r7, #28]
 80069ac:	f003 0307 	and.w	r3, r3, #7
 80069b0:	2b00      	cmp	r3, #0
 80069b2:	d009      	beq.n	80069c8 <pvPortMalloc+0x164>
 80069b4:	f04f 0350 	mov.w	r3, #80	; 0x50
 80069b8:	f383 8811 	msr	BASEPRI, r3
 80069bc:	f3bf 8f6f 	isb	sy
 80069c0:	f3bf 8f4f 	dsb	sy
 80069c4:	60fb      	str	r3, [r7, #12]
 80069c6:	e7fe      	b.n	80069c6 <pvPortMalloc+0x162>
	return pvReturn;
 80069c8:	69fb      	ldr	r3, [r7, #28]
}
 80069ca:	4618      	mov	r0, r3
 80069cc:	3728      	adds	r7, #40	; 0x28
 80069ce:	46bd      	mov	sp, r7
 80069d0:	bd80      	pop	{r7, pc}
 80069d2:	bf00      	nop
 80069d4:	20003dc4 	.word	0x20003dc4
 80069d8:	20003dd0 	.word	0x20003dd0
 80069dc:	20003dc8 	.word	0x20003dc8
 80069e0:	20003dbc 	.word	0x20003dbc
 80069e4:	20003dcc 	.word	0x20003dcc

080069e8 <vPortFree>:
/*-----------------------------------------------------------*/

void vPortFree( void *pv )
{
 80069e8:	b580      	push	{r7, lr}
 80069ea:	b086      	sub	sp, #24
 80069ec:	af00      	add	r7, sp, #0
 80069ee:	6078      	str	r0, [r7, #4]
uint8_t *puc = ( uint8_t * ) pv;
 80069f0:	687b      	ldr	r3, [r7, #4]
 80069f2:	617b      	str	r3, [r7, #20]
BlockLink_t *pxLink;

	if( pv != NULL )
 80069f4:	687b      	ldr	r3, [r7, #4]
 80069f6:	2b00      	cmp	r3, #0
 80069f8:	d046      	beq.n	8006a88 <vPortFree+0xa0>
	{
		/* The memory being freed will have an BlockLink_t structure immediately
		before it. */
		puc -= xHeapStructSize;
 80069fa:	2308      	movs	r3, #8
 80069fc:	425b      	negs	r3, r3
 80069fe:	697a      	ldr	r2, [r7, #20]
 8006a00:	4413      	add	r3, r2
 8006a02:	617b      	str	r3, [r7, #20]

		/* This casting is to keep the compiler from issuing warnings. */
		pxLink = ( void * ) puc;
 8006a04:	697b      	ldr	r3, [r7, #20]
 8006a06:	613b      	str	r3, [r7, #16]

		/* Check the block is actually allocated. */
		configASSERT( ( pxLink->xBlockSize & xBlockAllocatedBit ) != 0 );
 8006a08:	693b      	ldr	r3, [r7, #16]
 8006a0a:	685a      	ldr	r2, [r3, #4]
 8006a0c:	4b20      	ldr	r3, [pc, #128]	; (8006a90 <vPortFree+0xa8>)
 8006a0e:	681b      	ldr	r3, [r3, #0]
 8006a10:	4013      	ands	r3, r2
 8006a12:	2b00      	cmp	r3, #0
 8006a14:	d109      	bne.n	8006a2a <vPortFree+0x42>
 8006a16:	f04f 0350 	mov.w	r3, #80	; 0x50
 8006a1a:	f383 8811 	msr	BASEPRI, r3
 8006a1e:	f3bf 8f6f 	isb	sy
 8006a22:	f3bf 8f4f 	dsb	sy
 8006a26:	60fb      	str	r3, [r7, #12]
 8006a28:	e7fe      	b.n	8006a28 <vPortFree+0x40>
		configASSERT( pxLink->pxNextFreeBlock == NULL );
 8006a2a:	693b      	ldr	r3, [r7, #16]
 8006a2c:	681b      	ldr	r3, [r3, #0]
 8006a2e:	2b00      	cmp	r3, #0
 8006a30:	d009      	beq.n	8006a46 <vPortFree+0x5e>
 8006a32:	f04f 0350 	mov.w	r3, #80	; 0x50
 8006a36:	f383 8811 	msr	BASEPRI, r3
 8006a3a:	f3bf 8f6f 	isb	sy
 8006a3e:	f3bf 8f4f 	dsb	sy
 8006a42:	60bb      	str	r3, [r7, #8]
 8006a44:	e7fe      	b.n	8006a44 <vPortFree+0x5c>

		if( ( pxLink->xBlockSize & xBlockAllocatedBit ) != 0 )
 8006a46:	693b      	ldr	r3, [r7, #16]
 8006a48:	685a      	ldr	r2, [r3, #4]
 8006a4a:	4b11      	ldr	r3, [pc, #68]	; (8006a90 <vPortFree+0xa8>)
 8006a4c:	681b      	ldr	r3, [r3, #0]
 8006a4e:	4013      	ands	r3, r2
 8006a50:	2b00      	cmp	r3, #0
 8006a52:	d019      	beq.n	8006a88 <vPortFree+0xa0>
		{
			if( pxLink->pxNextFreeBlock == NULL )
 8006a54:	693b      	ldr	r3, [r7, #16]
 8006a56:	681b      	ldr	r3, [r3, #0]
 8006a58:	2b00      	cmp	r3, #0
 8006a5a:	d115      	bne.n	8006a88 <vPortFree+0xa0>
			{
				/* The block is being returned to the heap - it is no longer
				allocated. */
				pxLink->xBlockSize &= ~xBlockAllocatedBit;
 8006a5c:	693b      	ldr	r3, [r7, #16]
 8006a5e:	685a      	ldr	r2, [r3, #4]
 8006a60:	4b0b      	ldr	r3, [pc, #44]	; (8006a90 <vPortFree+0xa8>)
 8006a62:	681b      	ldr	r3, [r3, #0]
 8006a64:	43db      	mvns	r3, r3
 8006a66:	401a      	ands	r2, r3
 8006a68:	693b      	ldr	r3, [r7, #16]
 8006a6a:	605a      	str	r2, [r3, #4]

				vTaskSuspendAll();
 8006a6c:	f7ff f912 	bl	8005c94 <vTaskSuspendAll>
				{
					/* Add this block to the list of free blocks. */
					xFreeBytesRemaining += pxLink->xBlockSize;
 8006a70:	693b      	ldr	r3, [r7, #16]
 8006a72:	685a      	ldr	r2, [r3, #4]
 8006a74:	4b07      	ldr	r3, [pc, #28]	; (8006a94 <vPortFree+0xac>)
 8006a76:	681b      	ldr	r3, [r3, #0]
 8006a78:	4413      	add	r3, r2
 8006a7a:	4a06      	ldr	r2, [pc, #24]	; (8006a94 <vPortFree+0xac>)
 8006a7c:	6013      	str	r3, [r2, #0]
					traceFREE( pv, pxLink->xBlockSize );
					prvInsertBlockIntoFreeList( ( ( BlockLink_t * ) pxLink ) );
 8006a7e:	6938      	ldr	r0, [r7, #16]
 8006a80:	f000 f86c 	bl	8006b5c <prvInsertBlockIntoFreeList>
				}
				( void ) xTaskResumeAll();
 8006a84:	f7ff f914 	bl	8005cb0 <xTaskResumeAll>
		else
		{
			mtCOVERAGE_TEST_MARKER();
		}
	}
}
 8006a88:	bf00      	nop
 8006a8a:	3718      	adds	r7, #24
 8006a8c:	46bd      	mov	sp, r7
 8006a8e:	bd80      	pop	{r7, pc}
 8006a90:	20003dd0 	.word	0x20003dd0
 8006a94:	20003dc8 	.word	0x20003dc8

08006a98 <prvHeapInit>:
	/* This just exists to keep the linker quiet. */
}
/*-----------------------------------------------------------*/

static void prvHeapInit( void )
{
 8006a98:	b480      	push	{r7}
 8006a9a:	b085      	sub	sp, #20
 8006a9c:	af00      	add	r7, sp, #0
BlockLink_t *pxFirstFreeBlock;
uint8_t *pucAlignedHeap;
size_t uxAddress;
size_t xTotalHeapSize = configTOTAL_HEAP_SIZE;
 8006a9e:	f44f 5360 	mov.w	r3, #14336	; 0x3800
 8006aa2:	60bb      	str	r3, [r7, #8]

	/* Ensure the heap starts on a correctly aligned boundary. */
	uxAddress = ( size_t ) ucHeap;
 8006aa4:	4b27      	ldr	r3, [pc, #156]	; (8006b44 <prvHeapInit+0xac>)
 8006aa6:	60fb      	str	r3, [r7, #12]

	if( ( uxAddress & portBYTE_ALIGNMENT_MASK ) != 0 )
 8006aa8:	68fb      	ldr	r3, [r7, #12]
 8006aaa:	f003 0307 	and.w	r3, r3, #7
 8006aae:	2b00      	cmp	r3, #0
 8006ab0:	d00c      	beq.n	8006acc <prvHeapInit+0x34>
	{
		uxAddress += ( portBYTE_ALIGNMENT - 1 );
 8006ab2:	68fb      	ldr	r3, [r7, #12]
 8006ab4:	3307      	adds	r3, #7
 8006ab6:	60fb      	str	r3, [r7, #12]
		uxAddress &= ~( ( size_t ) portBYTE_ALIGNMENT_MASK );
 8006ab8:	68fb      	ldr	r3, [r7, #12]
 8006aba:	f023 0307 	bic.w	r3, r3, #7
 8006abe:	60fb      	str	r3, [r7, #12]
		xTotalHeapSize -= uxAddress - ( size_t ) ucHeap;
 8006ac0:	68ba      	ldr	r2, [r7, #8]
 8006ac2:	68fb      	ldr	r3, [r7, #12]
 8006ac4:	1ad3      	subs	r3, r2, r3
 8006ac6:	4a1f      	ldr	r2, [pc, #124]	; (8006b44 <prvHeapInit+0xac>)
 8006ac8:	4413      	add	r3, r2
 8006aca:	60bb      	str	r3, [r7, #8]
	}

	pucAlignedHeap = ( uint8_t * ) uxAddress;
 8006acc:	68fb      	ldr	r3, [r7, #12]
 8006ace:	607b      	str	r3, [r7, #4]

	/* xStart is used to hold a pointer to the first item in the list of free
	blocks.  The void cast is used to prevent compiler warnings. */
	xStart.pxNextFreeBlock = ( void * ) pucAlignedHeap;
 8006ad0:	4a1d      	ldr	r2, [pc, #116]	; (8006b48 <prvHeapInit+0xb0>)
 8006ad2:	687b      	ldr	r3, [r7, #4]
 8006ad4:	6013      	str	r3, [r2, #0]
	xStart.xBlockSize = ( size_t ) 0;
 8006ad6:	4b1c      	ldr	r3, [pc, #112]	; (8006b48 <prvHeapInit+0xb0>)
 8006ad8:	2200      	movs	r2, #0
 8006ada:	605a      	str	r2, [r3, #4]

	/* pxEnd is used to mark the end of the list of free blocks and is inserted
	at the end of the heap space. */
	uxAddress = ( ( size_t ) pucAlignedHeap ) + xTotalHeapSize;
 8006adc:	687b      	ldr	r3, [r7, #4]
 8006ade:	68ba      	ldr	r2, [r7, #8]
 8006ae0:	4413      	add	r3, r2
 8006ae2:	60fb      	str	r3, [r7, #12]
	uxAddress -= xHeapStructSize;
 8006ae4:	2208      	movs	r2, #8
 8006ae6:	68fb      	ldr	r3, [r7, #12]
 8006ae8:	1a9b      	subs	r3, r3, r2
 8006aea:	60fb      	str	r3, [r7, #12]
	uxAddress &= ~( ( size_t ) portBYTE_ALIGNMENT_MASK );
 8006aec:	68fb      	ldr	r3, [r7, #12]
 8006aee:	f023 0307 	bic.w	r3, r3, #7
 8006af2:	60fb      	str	r3, [r7, #12]
	pxEnd = ( void * ) uxAddress;
 8006af4:	68fb      	ldr	r3, [r7, #12]
 8006af6:	4a15      	ldr	r2, [pc, #84]	; (8006b4c <prvHeapInit+0xb4>)
 8006af8:	6013      	str	r3, [r2, #0]
	pxEnd->xBlockSize = 0;
 8006afa:	4b14      	ldr	r3, [pc, #80]	; (8006b4c <prvHeapInit+0xb4>)
 8006afc:	681b      	ldr	r3, [r3, #0]
 8006afe:	2200      	movs	r2, #0
 8006b00:	605a      	str	r2, [r3, #4]
	pxEnd->pxNextFreeBlock = NULL;
 8006b02:	4b12      	ldr	r3, [pc, #72]	; (8006b4c <prvHeapInit+0xb4>)
 8006b04:	681b      	ldr	r3, [r3, #0]
 8006b06:	2200      	movs	r2, #0
 8006b08:	601a      	str	r2, [r3, #0]

	/* To start with there is a single free block that is sized to take up the
	entire heap space, minus the space taken by pxEnd. */
	pxFirstFreeBlock = ( void * ) pucAlignedHeap;
 8006b0a:	687b      	ldr	r3, [r7, #4]
 8006b0c:	603b      	str	r3, [r7, #0]
	pxFirstFreeBlock->xBlockSize = uxAddress - ( size_t ) pxFirstFreeBlock;
 8006b0e:	683b      	ldr	r3, [r7, #0]
 8006b10:	68fa      	ldr	r2, [r7, #12]
 8006b12:	1ad2      	subs	r2, r2, r3
 8006b14:	683b      	ldr	r3, [r7, #0]
 8006b16:	605a      	str	r2, [r3, #4]
	pxFirstFreeBlock->pxNextFreeBlock = pxEnd;
 8006b18:	4b0c      	ldr	r3, [pc, #48]	; (8006b4c <prvHeapInit+0xb4>)
 8006b1a:	681a      	ldr	r2, [r3, #0]
 8006b1c:	683b      	ldr	r3, [r7, #0]
 8006b1e:	601a      	str	r2, [r3, #0]

	/* Only one block exists - and it covers the entire usable heap space. */
	xMinimumEverFreeBytesRemaining = pxFirstFreeBlock->xBlockSize;
 8006b20:	683b      	ldr	r3, [r7, #0]
 8006b22:	685b      	ldr	r3, [r3, #4]
 8006b24:	4a0a      	ldr	r2, [pc, #40]	; (8006b50 <prvHeapInit+0xb8>)
 8006b26:	6013      	str	r3, [r2, #0]
	xFreeBytesRemaining = pxFirstFreeBlock->xBlockSize;
 8006b28:	683b      	ldr	r3, [r7, #0]
 8006b2a:	685b      	ldr	r3, [r3, #4]
 8006b2c:	4a09      	ldr	r2, [pc, #36]	; (8006b54 <prvHeapInit+0xbc>)
 8006b2e:	6013      	str	r3, [r2, #0]

	/* Work out the position of the top bit in a size_t variable. */
	xBlockAllocatedBit = ( ( size_t ) 1 ) << ( ( sizeof( size_t ) * heapBITS_PER_BYTE ) - 1 );
 8006b30:	4b09      	ldr	r3, [pc, #36]	; (8006b58 <prvHeapInit+0xc0>)
 8006b32:	f04f 4200 	mov.w	r2, #2147483648	; 0x80000000
 8006b36:	601a      	str	r2, [r3, #0]
}
 8006b38:	bf00      	nop
 8006b3a:	3714      	adds	r7, #20
 8006b3c:	46bd      	mov	sp, r7
 8006b3e:	bc80      	pop	{r7}
 8006b40:	4770      	bx	lr
 8006b42:	bf00      	nop
 8006b44:	200005bc 	.word	0x200005bc
 8006b48:	20003dbc 	.word	0x20003dbc
 8006b4c:	20003dc4 	.word	0x20003dc4
 8006b50:	20003dcc 	.word	0x20003dcc
 8006b54:	20003dc8 	.word	0x20003dc8
 8006b58:	20003dd0 	.word	0x20003dd0

08006b5c <prvInsertBlockIntoFreeList>:
/*-----------------------------------------------------------*/

static void prvInsertBlockIntoFreeList( BlockLink_t *pxBlockToInsert )
{
 8006b5c:	b480      	push	{r7}
 8006b5e:	b085      	sub	sp, #20
 8006b60:	af00      	add	r7, sp, #0
 8006b62:	6078      	str	r0, [r7, #4]
BlockLink_t *pxIterator;
uint8_t *puc;

	/* Iterate through the list until a block is found that has a higher address
	than the block being inserted. */
	for( pxIterator = &xStart; pxIterator->pxNextFreeBlock < pxBlockToInsert; pxIterator = pxIterator->pxNextFreeBlock )
 8006b64:	4b27      	ldr	r3, [pc, #156]	; (8006c04 <prvInsertBlockIntoFreeList+0xa8>)
 8006b66:	60fb      	str	r3, [r7, #12]
 8006b68:	e002      	b.n	8006b70 <prvInsertBlockIntoFreeList+0x14>
 8006b6a:	68fb      	ldr	r3, [r7, #12]
 8006b6c:	681b      	ldr	r3, [r3, #0]
 8006b6e:	60fb      	str	r3, [r7, #12]
 8006b70:	68fb      	ldr	r3, [r7, #12]
 8006b72:	681b      	ldr	r3, [r3, #0]
 8006b74:	687a      	ldr	r2, [r7, #4]
 8006b76:	429a      	cmp	r2, r3
 8006b78:	d8f7      	bhi.n	8006b6a <prvInsertBlockIntoFreeList+0xe>
		/* Nothing to do here, just iterate to the right position. */
	}

	/* Do the block being inserted, and the block it is being inserted after
	make a contiguous block of memory? */
	puc = ( uint8_t * ) pxIterator;
 8006b7a:	68fb      	ldr	r3, [r7, #12]
 8006b7c:	60bb      	str	r3, [r7, #8]
	if( ( puc + pxIterator->xBlockSize ) == ( uint8_t * ) pxBlockToInsert )
 8006b7e:	68fb      	ldr	r3, [r7, #12]
 8006b80:	685b      	ldr	r3, [r3, #4]
 8006b82:	68ba      	ldr	r2, [r7, #8]
 8006b84:	4413      	add	r3, r2
 8006b86:	687a      	ldr	r2, [r7, #4]
 8006b88:	429a      	cmp	r2, r3
 8006b8a:	d108      	bne.n	8006b9e <prvInsertBlockIntoFreeList+0x42>
	{
		pxIterator->xBlockSize += pxBlockToInsert->xBlockSize;
 8006b8c:	68fb      	ldr	r3, [r7, #12]
 8006b8e:	685a      	ldr	r2, [r3, #4]
 8006b90:	687b      	ldr	r3, [r7, #4]
 8006b92:	685b      	ldr	r3, [r3, #4]
 8006b94:	441a      	add	r2, r3
 8006b96:	68fb      	ldr	r3, [r7, #12]
 8006b98:	605a      	str	r2, [r3, #4]
		pxBlockToInsert = pxIterator;
 8006b9a:	68fb      	ldr	r3, [r7, #12]
 8006b9c:	607b      	str	r3, [r7, #4]
		mtCOVERAGE_TEST_MARKER();
	}

	/* Do the block being inserted, and the block it is being inserted before
	make a contiguous block of memory? */
	puc = ( uint8_t * ) pxBlockToInsert;
 8006b9e:	687b      	ldr	r3, [r7, #4]
 8006ba0:	60bb      	str	r3, [r7, #8]
	if( ( puc + pxBlockToInsert->xBlockSize ) == ( uint8_t * ) pxIterator->pxNextFreeBlock )
 8006ba2:	687b      	ldr	r3, [r7, #4]
 8006ba4:	685b      	ldr	r3, [r3, #4]
 8006ba6:	68ba      	ldr	r2, [r7, #8]
 8006ba8:	441a      	add	r2, r3
 8006baa:	68fb      	ldr	r3, [r7, #12]
 8006bac:	681b      	ldr	r3, [r3, #0]
 8006bae:	429a      	cmp	r2, r3
 8006bb0:	d118      	bne.n	8006be4 <prvInsertBlockIntoFreeList+0x88>
	{
		if( pxIterator->pxNextFreeBlock != pxEnd )
 8006bb2:	68fb      	ldr	r3, [r7, #12]
 8006bb4:	681a      	ldr	r2, [r3, #0]
 8006bb6:	4b14      	ldr	r3, [pc, #80]	; (8006c08 <prvInsertBlockIntoFreeList+0xac>)
 8006bb8:	681b      	ldr	r3, [r3, #0]
 8006bba:	429a      	cmp	r2, r3
 8006bbc:	d00d      	beq.n	8006bda <prvInsertBlockIntoFreeList+0x7e>
		{
			/* Form one big block from the two blocks. */
			pxBlockToInsert->xBlockSize += pxIterator->pxNextFreeBlock->xBlockSize;
 8006bbe:	687b      	ldr	r3, [r7, #4]
 8006bc0:	685a      	ldr	r2, [r3, #4]
 8006bc2:	68fb      	ldr	r3, [r7, #12]
 8006bc4:	681b      	ldr	r3, [r3, #0]
 8006bc6:	685b      	ldr	r3, [r3, #4]
 8006bc8:	441a      	add	r2, r3
 8006bca:	687b      	ldr	r3, [r7, #4]
 8006bcc:	605a      	str	r2, [r3, #4]
			pxBlockToInsert->pxNextFreeBlock = pxIterator->pxNextFreeBlock->pxNextFreeBlock;
 8006bce:	68fb      	ldr	r3, [r7, #12]
 8006bd0:	681b      	ldr	r3, [r3, #0]
 8006bd2:	681a      	ldr	r2, [r3, #0]
 8006bd4:	687b      	ldr	r3, [r7, #4]
 8006bd6:	601a      	str	r2, [r3, #0]
 8006bd8:	e008      	b.n	8006bec <prvInsertBlockIntoFreeList+0x90>
		}
		else
		{
			pxBlockToInsert->pxNextFreeBlock = pxEnd;
 8006bda:	4b0b      	ldr	r3, [pc, #44]	; (8006c08 <prvInsertBlockIntoFreeList+0xac>)
 8006bdc:	681a      	ldr	r2, [r3, #0]
 8006bde:	687b      	ldr	r3, [r7, #4]
 8006be0:	601a      	str	r2, [r3, #0]
 8006be2:	e003      	b.n	8006bec <prvInsertBlockIntoFreeList+0x90>
		}
	}
	else
	{
		pxBlockToInsert->pxNextFreeBlock = pxIterator->pxNextFreeBlock;
 8006be4:	68fb      	ldr	r3, [r7, #12]
 8006be6:	681a      	ldr	r2, [r3, #0]
 8006be8:	687b      	ldr	r3, [r7, #4]
 8006bea:	601a      	str	r2, [r3, #0]

	/* If the block being inserted plugged a gab, so was merged with the block
	before and the block after, then it's pxNextFreeBlock pointer will have
	already been set, and should not be set here as that would make it point
	to itself. */
	if( pxIterator != pxBlockToInsert )
 8006bec:	68fa      	ldr	r2, [r7, #12]
 8006bee:	687b      	ldr	r3, [r7, #4]
 8006bf0:	429a      	cmp	r2, r3
 8006bf2:	d002      	beq.n	8006bfa <prvInsertBlockIntoFreeList+0x9e>
	{
		pxIterator->pxNextFreeBlock = pxBlockToInsert;
 8006bf4:	68fb      	ldr	r3, [r7, #12]
 8006bf6:	687a      	ldr	r2, [r7, #4]
 8006bf8:	601a      	str	r2, [r3, #0]
	}
	else
	{
		mtCOVERAGE_TEST_MARKER();
	}
}
 8006bfa:	bf00      	nop
 8006bfc:	3714      	adds	r7, #20
 8006bfe:	46bd      	mov	sp, r7
 8006c00:	bc80      	pop	{r7}
 8006c02:	4770      	bx	lr
 8006c04:	20003dbc 	.word	0x20003dbc
 8006c08:	20003dc4 	.word	0x20003dc4

08006c0c <_cbSendSystemDesc>:
*       _cbSendSystemDesc()
*
*  Function description
*    Sends SystemView description strings.
*/
static void _cbSendSystemDesc(void) {
 8006c0c:	b580      	push	{r7, lr}
 8006c0e:	af00      	add	r7, sp, #0
  SEGGER_SYSVIEW_SendSysDesc("N="SYSVIEW_APP_NAME",D="SYSVIEW_DEVICE_NAME",O=FreeRTOS");
 8006c10:	4803      	ldr	r0, [pc, #12]	; (8006c20 <_cbSendSystemDesc+0x14>)
 8006c12:	f001 f9bb 	bl	8007f8c <SEGGER_SYSVIEW_SendSysDesc>
  SEGGER_SYSVIEW_SendSysDesc("I#15=SysTick");
 8006c16:	4803      	ldr	r0, [pc, #12]	; (8006c24 <_cbSendSystemDesc+0x18>)
 8006c18:	f001 f9b8 	bl	8007f8c <SEGGER_SYSVIEW_SendSysDesc>
}
 8006c1c:	bf00      	nop
 8006c1e:	bd80      	pop	{r7, pc}
 8006c20:	08008744 	.word	0x08008744
 8006c24:	08008774 	.word	0x08008774

08006c28 <SEGGER_SYSVIEW_Conf>:
*
*       Global functions
*
**********************************************************************
*/
void SEGGER_SYSVIEW_Conf(void) {
 8006c28:	b580      	push	{r7, lr}
 8006c2a:	af00      	add	r7, sp, #0
  SEGGER_SYSVIEW_Init(SYSVIEW_TIMESTAMP_FREQ, SYSVIEW_CPU_FREQ, 
 8006c2c:	4b06      	ldr	r3, [pc, #24]	; (8006c48 <SEGGER_SYSVIEW_Conf+0x20>)
 8006c2e:	6818      	ldr	r0, [r3, #0]
 8006c30:	4b05      	ldr	r3, [pc, #20]	; (8006c48 <SEGGER_SYSVIEW_Conf+0x20>)
 8006c32:	6819      	ldr	r1, [r3, #0]
 8006c34:	4b05      	ldr	r3, [pc, #20]	; (8006c4c <SEGGER_SYSVIEW_Conf+0x24>)
 8006c36:	4a06      	ldr	r2, [pc, #24]	; (8006c50 <SEGGER_SYSVIEW_Conf+0x28>)
 8006c38:	f000 fdba 	bl	80077b0 <SEGGER_SYSVIEW_Init>
                      &SYSVIEW_X_OS_TraceAPI, _cbSendSystemDesc);
  SEGGER_SYSVIEW_SetRAMBase(SYSVIEW_RAM_BASE);
 8006c3c:	f04f 5080 	mov.w	r0, #268435456	; 0x10000000
 8006c40:	f000 fdfa 	bl	8007838 <SEGGER_SYSVIEW_SetRAMBase>
}
 8006c44:	bf00      	nop
 8006c46:	bd80      	pop	{r7, pc}
 8006c48:	20000004 	.word	0x20000004
 8006c4c:	08006c0d 	.word	0x08006c0d
 8006c50:	08008814 	.word	0x08008814

08006c54 <_cbSendTaskList>:
*  Function description
*    This function is part of the link between FreeRTOS and SYSVIEW.
*    Called from SystemView when asked by the host, it uses SYSVIEW
*    functions to send the entire task list to the host.
*/
static void _cbSendTaskList(void) {
 8006c54:	b5f0      	push	{r4, r5, r6, r7, lr}
 8006c56:	b085      	sub	sp, #20
 8006c58:	af02      	add	r7, sp, #8
  unsigned n;

  for (n = 0; n < _NumTasks; n++) {
 8006c5a:	2300      	movs	r3, #0
 8006c5c:	607b      	str	r3, [r7, #4]
 8006c5e:	e034      	b.n	8006cca <_cbSendTaskList+0x76>
#if INCLUDE_uxTaskGetStackHighWaterMark // Report Task Stack High Watermark
    _aTasks[n].uStackHighWaterMark = uxTaskGetStackHighWaterMark((TaskHandle_t)_aTasks[n].xHandle);
#endif
    SYSVIEW_SendTaskInfo((U32)_aTasks[n].xHandle, _aTasks[n].pcTaskName, (unsigned)_aTasks[n].uxCurrentPriority, (U32)_aTasks[n].pxStack, (unsigned)_aTasks[n].uStackHighWaterMark);
 8006c60:	491e      	ldr	r1, [pc, #120]	; (8006cdc <_cbSendTaskList+0x88>)
 8006c62:	687a      	ldr	r2, [r7, #4]
 8006c64:	4613      	mov	r3, r2
 8006c66:	009b      	lsls	r3, r3, #2
 8006c68:	4413      	add	r3, r2
 8006c6a:	009b      	lsls	r3, r3, #2
 8006c6c:	440b      	add	r3, r1
 8006c6e:	6818      	ldr	r0, [r3, #0]
 8006c70:	491a      	ldr	r1, [pc, #104]	; (8006cdc <_cbSendTaskList+0x88>)
 8006c72:	687a      	ldr	r2, [r7, #4]
 8006c74:	4613      	mov	r3, r2
 8006c76:	009b      	lsls	r3, r3, #2
 8006c78:	4413      	add	r3, r2
 8006c7a:	009b      	lsls	r3, r3, #2
 8006c7c:	440b      	add	r3, r1
 8006c7e:	3304      	adds	r3, #4
 8006c80:	681c      	ldr	r4, [r3, #0]
 8006c82:	4916      	ldr	r1, [pc, #88]	; (8006cdc <_cbSendTaskList+0x88>)
 8006c84:	687a      	ldr	r2, [r7, #4]
 8006c86:	4613      	mov	r3, r2
 8006c88:	009b      	lsls	r3, r3, #2
 8006c8a:	4413      	add	r3, r2
 8006c8c:	009b      	lsls	r3, r3, #2
 8006c8e:	440b      	add	r3, r1
 8006c90:	3308      	adds	r3, #8
 8006c92:	681d      	ldr	r5, [r3, #0]
 8006c94:	4911      	ldr	r1, [pc, #68]	; (8006cdc <_cbSendTaskList+0x88>)
 8006c96:	687a      	ldr	r2, [r7, #4]
 8006c98:	4613      	mov	r3, r2
 8006c9a:	009b      	lsls	r3, r3, #2
 8006c9c:	4413      	add	r3, r2
 8006c9e:	009b      	lsls	r3, r3, #2
 8006ca0:	440b      	add	r3, r1
 8006ca2:	330c      	adds	r3, #12
 8006ca4:	681e      	ldr	r6, [r3, #0]
 8006ca6:	490d      	ldr	r1, [pc, #52]	; (8006cdc <_cbSendTaskList+0x88>)
 8006ca8:	687a      	ldr	r2, [r7, #4]
 8006caa:	4613      	mov	r3, r2
 8006cac:	009b      	lsls	r3, r3, #2
 8006cae:	4413      	add	r3, r2
 8006cb0:	009b      	lsls	r3, r3, #2
 8006cb2:	440b      	add	r3, r1
 8006cb4:	3310      	adds	r3, #16
 8006cb6:	681b      	ldr	r3, [r3, #0]
 8006cb8:	9300      	str	r3, [sp, #0]
 8006cba:	4633      	mov	r3, r6
 8006cbc:	462a      	mov	r2, r5
 8006cbe:	4621      	mov	r1, r4
 8006cc0:	f000 f970 	bl	8006fa4 <SYSVIEW_SendTaskInfo>
  for (n = 0; n < _NumTasks; n++) {
 8006cc4:	687b      	ldr	r3, [r7, #4]
 8006cc6:	3301      	adds	r3, #1
 8006cc8:	607b      	str	r3, [r7, #4]
 8006cca:	4b05      	ldr	r3, [pc, #20]	; (8006ce0 <_cbSendTaskList+0x8c>)
 8006ccc:	681b      	ldr	r3, [r3, #0]
 8006cce:	687a      	ldr	r2, [r7, #4]
 8006cd0:	429a      	cmp	r2, r3
 8006cd2:	d3c5      	bcc.n	8006c60 <_cbSendTaskList+0xc>
  }
}
 8006cd4:	bf00      	nop
 8006cd6:	370c      	adds	r7, #12
 8006cd8:	46bd      	mov	sp, r7
 8006cda:	bdf0      	pop	{r4, r5, r6, r7, pc}
 8006cdc:	20003dd4 	.word	0x20003dd4
 8006ce0:	20003e74 	.word	0x20003e74

08006ce4 <_cbGetTime>:
*  Function description
*    This function is part of the link between FreeRTOS and SYSVIEW.
*    Called from SystemView when asked by the host, returns the
*    current system time in micro seconds.
*/
static U64 _cbGetTime(void) {
 8006ce4:	b5f0      	push	{r4, r5, r6, r7, lr}
 8006ce6:	b083      	sub	sp, #12
 8006ce8:	af00      	add	r7, sp, #0
  U64 Time;

  Time = xTaskGetTickCountFromISR();
 8006cea:	f7ff f88f 	bl	8005e0c <xTaskGetTickCountFromISR>
 8006cee:	4603      	mov	r3, r0
 8006cf0:	f04f 0400 	mov.w	r4, #0
 8006cf4:	e9c7 3400 	strd	r3, r4, [r7]
  Time *= portTICK_PERIOD_MS;
  Time *= 1000;
 8006cf8:	e9d7 5600 	ldrd	r5, r6, [r7]
 8006cfc:	462b      	mov	r3, r5
 8006cfe:	4634      	mov	r4, r6
 8006d00:	f04f 0100 	mov.w	r1, #0
 8006d04:	f04f 0200 	mov.w	r2, #0
 8006d08:	0162      	lsls	r2, r4, #5
 8006d0a:	ea42 62d3 	orr.w	r2, r2, r3, lsr #27
 8006d0e:	0159      	lsls	r1, r3, #5
 8006d10:	460b      	mov	r3, r1
 8006d12:	4614      	mov	r4, r2
 8006d14:	1b5b      	subs	r3, r3, r5
 8006d16:	eb64 0406 	sbc.w	r4, r4, r6
 8006d1a:	f04f 0100 	mov.w	r1, #0
 8006d1e:	f04f 0200 	mov.w	r2, #0
 8006d22:	00a2      	lsls	r2, r4, #2
 8006d24:	ea42 7293 	orr.w	r2, r2, r3, lsr #30
 8006d28:	0099      	lsls	r1, r3, #2
 8006d2a:	460b      	mov	r3, r1
 8006d2c:	4614      	mov	r4, r2
 8006d2e:	195b      	adds	r3, r3, r5
 8006d30:	eb44 0406 	adc.w	r4, r4, r6
 8006d34:	f04f 0100 	mov.w	r1, #0
 8006d38:	f04f 0200 	mov.w	r2, #0
 8006d3c:	00e2      	lsls	r2, r4, #3
 8006d3e:	ea42 7253 	orr.w	r2, r2, r3, lsr #29
 8006d42:	00d9      	lsls	r1, r3, #3
 8006d44:	460b      	mov	r3, r1
 8006d46:	4614      	mov	r4, r2
 8006d48:	e9c7 3400 	strd	r3, r4, [r7]
  return Time;
 8006d4c:	e9d7 3400 	ldrd	r3, r4, [r7]
}
 8006d50:	4618      	mov	r0, r3
 8006d52:	4621      	mov	r1, r4
 8006d54:	370c      	adds	r7, #12
 8006d56:	46bd      	mov	sp, r7
 8006d58:	bdf0      	pop	{r4, r5, r6, r7, pc}
	...

08006d5c <SYSVIEW_AddTask>:
*       SYSVIEW_AddTask()
*
*  Function description
*    Add a task to the internal list and record its information.
*/
void SYSVIEW_AddTask(U32 xHandle, const char* pcTaskName, unsigned uxCurrentPriority, U32  pxStack, unsigned uStackHighWaterMark) {
 8006d5c:	b580      	push	{r7, lr}
 8006d5e:	b086      	sub	sp, #24
 8006d60:	af02      	add	r7, sp, #8
 8006d62:	60f8      	str	r0, [r7, #12]
 8006d64:	60b9      	str	r1, [r7, #8]
 8006d66:	607a      	str	r2, [r7, #4]
 8006d68:	603b      	str	r3, [r7, #0]
  
  if (memcmp(pcTaskName, "IDLE", 5) == 0) {
 8006d6a:	2205      	movs	r2, #5
 8006d6c:	492b      	ldr	r1, [pc, #172]	; (8006e1c <SYSVIEW_AddTask+0xc0>)
 8006d6e:	68b8      	ldr	r0, [r7, #8]
 8006d70:	f001 fc88 	bl	8008684 <memcmp>
 8006d74:	4603      	mov	r3, r0
 8006d76:	2b00      	cmp	r3, #0
 8006d78:	d04b      	beq.n	8006e12 <SYSVIEW_AddTask+0xb6>
    return;
  }
  
  if (_NumTasks >= SYSVIEW_FREERTOS_MAX_NOF_TASKS) {
 8006d7a:	4b29      	ldr	r3, [pc, #164]	; (8006e20 <SYSVIEW_AddTask+0xc4>)
 8006d7c:	681b      	ldr	r3, [r3, #0]
 8006d7e:	2b07      	cmp	r3, #7
 8006d80:	d903      	bls.n	8006d8a <SYSVIEW_AddTask+0x2e>
    SEGGER_SYSVIEW_Warn("SYSTEMVIEW: Could not record task information. Maximum number of tasks reached.");
 8006d82:	4828      	ldr	r0, [pc, #160]	; (8006e24 <SYSVIEW_AddTask+0xc8>)
 8006d84:	f001 fbfe 	bl	8008584 <SEGGER_SYSVIEW_Warn>
    return;
 8006d88:	e044      	b.n	8006e14 <SYSVIEW_AddTask+0xb8>
  }

  _aTasks[_NumTasks].xHandle = xHandle;
 8006d8a:	4b25      	ldr	r3, [pc, #148]	; (8006e20 <SYSVIEW_AddTask+0xc4>)
 8006d8c:	681a      	ldr	r2, [r3, #0]
 8006d8e:	4926      	ldr	r1, [pc, #152]	; (8006e28 <SYSVIEW_AddTask+0xcc>)
 8006d90:	4613      	mov	r3, r2
 8006d92:	009b      	lsls	r3, r3, #2
 8006d94:	4413      	add	r3, r2
 8006d96:	009b      	lsls	r3, r3, #2
 8006d98:	440b      	add	r3, r1
 8006d9a:	68fa      	ldr	r2, [r7, #12]
 8006d9c:	601a      	str	r2, [r3, #0]
  _aTasks[_NumTasks].pcTaskName = pcTaskName;
 8006d9e:	4b20      	ldr	r3, [pc, #128]	; (8006e20 <SYSVIEW_AddTask+0xc4>)
 8006da0:	681a      	ldr	r2, [r3, #0]
 8006da2:	4921      	ldr	r1, [pc, #132]	; (8006e28 <SYSVIEW_AddTask+0xcc>)
 8006da4:	4613      	mov	r3, r2
 8006da6:	009b      	lsls	r3, r3, #2
 8006da8:	4413      	add	r3, r2
 8006daa:	009b      	lsls	r3, r3, #2
 8006dac:	440b      	add	r3, r1
 8006dae:	3304      	adds	r3, #4
 8006db0:	68ba      	ldr	r2, [r7, #8]
 8006db2:	601a      	str	r2, [r3, #0]
  _aTasks[_NumTasks].uxCurrentPriority = uxCurrentPriority;
 8006db4:	4b1a      	ldr	r3, [pc, #104]	; (8006e20 <SYSVIEW_AddTask+0xc4>)
 8006db6:	681a      	ldr	r2, [r3, #0]
 8006db8:	491b      	ldr	r1, [pc, #108]	; (8006e28 <SYSVIEW_AddTask+0xcc>)
 8006dba:	4613      	mov	r3, r2
 8006dbc:	009b      	lsls	r3, r3, #2
 8006dbe:	4413      	add	r3, r2
 8006dc0:	009b      	lsls	r3, r3, #2
 8006dc2:	440b      	add	r3, r1
 8006dc4:	3308      	adds	r3, #8
 8006dc6:	687a      	ldr	r2, [r7, #4]
 8006dc8:	601a      	str	r2, [r3, #0]
  _aTasks[_NumTasks].pxStack = pxStack;
 8006dca:	4b15      	ldr	r3, [pc, #84]	; (8006e20 <SYSVIEW_AddTask+0xc4>)
 8006dcc:	681a      	ldr	r2, [r3, #0]
 8006dce:	4916      	ldr	r1, [pc, #88]	; (8006e28 <SYSVIEW_AddTask+0xcc>)
 8006dd0:	4613      	mov	r3, r2
 8006dd2:	009b      	lsls	r3, r3, #2
 8006dd4:	4413      	add	r3, r2
 8006dd6:	009b      	lsls	r3, r3, #2
 8006dd8:	440b      	add	r3, r1
 8006dda:	330c      	adds	r3, #12
 8006ddc:	683a      	ldr	r2, [r7, #0]
 8006dde:	601a      	str	r2, [r3, #0]
  _aTasks[_NumTasks].uStackHighWaterMark = uStackHighWaterMark;
 8006de0:	4b0f      	ldr	r3, [pc, #60]	; (8006e20 <SYSVIEW_AddTask+0xc4>)
 8006de2:	681a      	ldr	r2, [r3, #0]
 8006de4:	4910      	ldr	r1, [pc, #64]	; (8006e28 <SYSVIEW_AddTask+0xcc>)
 8006de6:	4613      	mov	r3, r2
 8006de8:	009b      	lsls	r3, r3, #2
 8006dea:	4413      	add	r3, r2
 8006dec:	009b      	lsls	r3, r3, #2
 8006dee:	440b      	add	r3, r1
 8006df0:	3310      	adds	r3, #16
 8006df2:	69ba      	ldr	r2, [r7, #24]
 8006df4:	601a      	str	r2, [r3, #0]

  _NumTasks++;
 8006df6:	4b0a      	ldr	r3, [pc, #40]	; (8006e20 <SYSVIEW_AddTask+0xc4>)
 8006df8:	681b      	ldr	r3, [r3, #0]
 8006dfa:	3301      	adds	r3, #1
 8006dfc:	4a08      	ldr	r2, [pc, #32]	; (8006e20 <SYSVIEW_AddTask+0xc4>)
 8006dfe:	6013      	str	r3, [r2, #0]

  SYSVIEW_SendTaskInfo(xHandle, pcTaskName,uxCurrentPriority, pxStack, uStackHighWaterMark);
 8006e00:	69bb      	ldr	r3, [r7, #24]
 8006e02:	9300      	str	r3, [sp, #0]
 8006e04:	683b      	ldr	r3, [r7, #0]
 8006e06:	687a      	ldr	r2, [r7, #4]
 8006e08:	68b9      	ldr	r1, [r7, #8]
 8006e0a:	68f8      	ldr	r0, [r7, #12]
 8006e0c:	f000 f8ca 	bl	8006fa4 <SYSVIEW_SendTaskInfo>
 8006e10:	e000      	b.n	8006e14 <SYSVIEW_AddTask+0xb8>
    return;
 8006e12:	bf00      	nop

}
 8006e14:	3710      	adds	r7, #16
 8006e16:	46bd      	mov	sp, r7
 8006e18:	bd80      	pop	{r7, pc}
 8006e1a:	bf00      	nop
 8006e1c:	08008784 	.word	0x08008784
 8006e20:	20003e74 	.word	0x20003e74
 8006e24:	0800878c 	.word	0x0800878c
 8006e28:	20003dd4 	.word	0x20003dd4

08006e2c <SYSVIEW_DeleteTask>:
*       SYSVIEW_DeleteTask()
*
*  Function description
*    Delete a task from the internal list.
*/
void SYSVIEW_DeleteTask(U32 xHandle) {
 8006e2c:	b580      	push	{r7, lr}
 8006e2e:	b084      	sub	sp, #16
 8006e30:	af00      	add	r7, sp, #0
 8006e32:	6078      	str	r0, [r7, #4]
  unsigned n;
  
  if (_NumTasks == 0) {
 8006e34:	4b59      	ldr	r3, [pc, #356]	; (8006f9c <SYSVIEW_DeleteTask+0x170>)
 8006e36:	681b      	ldr	r3, [r3, #0]
 8006e38:	2b00      	cmp	r3, #0
 8006e3a:	f000 80ab 	beq.w	8006f94 <SYSVIEW_DeleteTask+0x168>
    return; // Early out
  }  
  for (n = 0; n < _NumTasks; n++) {
 8006e3e:	2300      	movs	r3, #0
 8006e40:	60fb      	str	r3, [r7, #12]
 8006e42:	e00d      	b.n	8006e60 <SYSVIEW_DeleteTask+0x34>
    if (_aTasks[n].xHandle == xHandle) {
 8006e44:	4956      	ldr	r1, [pc, #344]	; (8006fa0 <SYSVIEW_DeleteTask+0x174>)
 8006e46:	68fa      	ldr	r2, [r7, #12]
 8006e48:	4613      	mov	r3, r2
 8006e4a:	009b      	lsls	r3, r3, #2
 8006e4c:	4413      	add	r3, r2
 8006e4e:	009b      	lsls	r3, r3, #2
 8006e50:	440b      	add	r3, r1
 8006e52:	681b      	ldr	r3, [r3, #0]
 8006e54:	687a      	ldr	r2, [r7, #4]
 8006e56:	429a      	cmp	r2, r3
 8006e58:	d008      	beq.n	8006e6c <SYSVIEW_DeleteTask+0x40>
  for (n = 0; n < _NumTasks; n++) {
 8006e5a:	68fb      	ldr	r3, [r7, #12]
 8006e5c:	3301      	adds	r3, #1
 8006e5e:	60fb      	str	r3, [r7, #12]
 8006e60:	4b4e      	ldr	r3, [pc, #312]	; (8006f9c <SYSVIEW_DeleteTask+0x170>)
 8006e62:	681b      	ldr	r3, [r3, #0]
 8006e64:	68fa      	ldr	r2, [r7, #12]
 8006e66:	429a      	cmp	r2, r3
 8006e68:	d3ec      	bcc.n	8006e44 <SYSVIEW_DeleteTask+0x18>
 8006e6a:	e000      	b.n	8006e6e <SYSVIEW_DeleteTask+0x42>
      break;
 8006e6c:	bf00      	nop
    }
  }
  if (n == (_NumTasks - 1)) {  
 8006e6e:	4b4b      	ldr	r3, [pc, #300]	; (8006f9c <SYSVIEW_DeleteTask+0x170>)
 8006e70:	681b      	ldr	r3, [r3, #0]
 8006e72:	3b01      	subs	r3, #1
 8006e74:	68fa      	ldr	r2, [r7, #12]
 8006e76:	429a      	cmp	r2, r3
 8006e78:	d111      	bne.n	8006e9e <SYSVIEW_DeleteTask+0x72>
    //
    // Task is last item in list.
    // Simply zero the item and decrement number of tasks.
    //
    memset(&_aTasks[n], 0, sizeof(_aTasks[n]));
 8006e7a:	68fa      	ldr	r2, [r7, #12]
 8006e7c:	4613      	mov	r3, r2
 8006e7e:	009b      	lsls	r3, r3, #2
 8006e80:	4413      	add	r3, r2
 8006e82:	009b      	lsls	r3, r3, #2
 8006e84:	4a46      	ldr	r2, [pc, #280]	; (8006fa0 <SYSVIEW_DeleteTask+0x174>)
 8006e86:	4413      	add	r3, r2
 8006e88:	2214      	movs	r2, #20
 8006e8a:	2100      	movs	r1, #0
 8006e8c:	4618      	mov	r0, r3
 8006e8e:	f001 fc13 	bl	80086b8 <memset>
    _NumTasks--;
 8006e92:	4b42      	ldr	r3, [pc, #264]	; (8006f9c <SYSVIEW_DeleteTask+0x170>)
 8006e94:	681b      	ldr	r3, [r3, #0]
 8006e96:	3b01      	subs	r3, #1
 8006e98:	4a40      	ldr	r2, [pc, #256]	; (8006f9c <SYSVIEW_DeleteTask+0x170>)
 8006e9a:	6013      	str	r3, [r2, #0]
 8006e9c:	e07b      	b.n	8006f96 <SYSVIEW_DeleteTask+0x16a>
  } else if (n < _NumTasks) {
 8006e9e:	4b3f      	ldr	r3, [pc, #252]	; (8006f9c <SYSVIEW_DeleteTask+0x170>)
 8006ea0:	681b      	ldr	r3, [r3, #0]
 8006ea2:	68fa      	ldr	r2, [r7, #12]
 8006ea4:	429a      	cmp	r2, r3
 8006ea6:	d276      	bcs.n	8006f96 <SYSVIEW_DeleteTask+0x16a>
    //
    // Task is in the middle of the list.
    // Move last item to current position and decrement number of tasks.
    // Order of tasks does not really matter, so no need to move all following items.
    //
    _aTasks[n].xHandle             = _aTasks[_NumTasks - 1].xHandle;
 8006ea8:	4b3c      	ldr	r3, [pc, #240]	; (8006f9c <SYSVIEW_DeleteTask+0x170>)
 8006eaa:	681b      	ldr	r3, [r3, #0]
 8006eac:	1e5a      	subs	r2, r3, #1
 8006eae:	493c      	ldr	r1, [pc, #240]	; (8006fa0 <SYSVIEW_DeleteTask+0x174>)
 8006eb0:	4613      	mov	r3, r2
 8006eb2:	009b      	lsls	r3, r3, #2
 8006eb4:	4413      	add	r3, r2
 8006eb6:	009b      	lsls	r3, r3, #2
 8006eb8:	440b      	add	r3, r1
 8006eba:	6819      	ldr	r1, [r3, #0]
 8006ebc:	4838      	ldr	r0, [pc, #224]	; (8006fa0 <SYSVIEW_DeleteTask+0x174>)
 8006ebe:	68fa      	ldr	r2, [r7, #12]
 8006ec0:	4613      	mov	r3, r2
 8006ec2:	009b      	lsls	r3, r3, #2
 8006ec4:	4413      	add	r3, r2
 8006ec6:	009b      	lsls	r3, r3, #2
 8006ec8:	4403      	add	r3, r0
 8006eca:	6019      	str	r1, [r3, #0]
    _aTasks[n].pcTaskName          = _aTasks[_NumTasks - 1].pcTaskName;
 8006ecc:	4b33      	ldr	r3, [pc, #204]	; (8006f9c <SYSVIEW_DeleteTask+0x170>)
 8006ece:	681b      	ldr	r3, [r3, #0]
 8006ed0:	1e5a      	subs	r2, r3, #1
 8006ed2:	4933      	ldr	r1, [pc, #204]	; (8006fa0 <SYSVIEW_DeleteTask+0x174>)
 8006ed4:	4613      	mov	r3, r2
 8006ed6:	009b      	lsls	r3, r3, #2
 8006ed8:	4413      	add	r3, r2
 8006eda:	009b      	lsls	r3, r3, #2
 8006edc:	440b      	add	r3, r1
 8006ede:	3304      	adds	r3, #4
 8006ee0:	6819      	ldr	r1, [r3, #0]
 8006ee2:	482f      	ldr	r0, [pc, #188]	; (8006fa0 <SYSVIEW_DeleteTask+0x174>)
 8006ee4:	68fa      	ldr	r2, [r7, #12]
 8006ee6:	4613      	mov	r3, r2
 8006ee8:	009b      	lsls	r3, r3, #2
 8006eea:	4413      	add	r3, r2
 8006eec:	009b      	lsls	r3, r3, #2
 8006eee:	4403      	add	r3, r0
 8006ef0:	3304      	adds	r3, #4
 8006ef2:	6019      	str	r1, [r3, #0]
    _aTasks[n].uxCurrentPriority   = _aTasks[_NumTasks - 1].uxCurrentPriority;
 8006ef4:	4b29      	ldr	r3, [pc, #164]	; (8006f9c <SYSVIEW_DeleteTask+0x170>)
 8006ef6:	681b      	ldr	r3, [r3, #0]
 8006ef8:	1e5a      	subs	r2, r3, #1
 8006efa:	4929      	ldr	r1, [pc, #164]	; (8006fa0 <SYSVIEW_DeleteTask+0x174>)
 8006efc:	4613      	mov	r3, r2
 8006efe:	009b      	lsls	r3, r3, #2
 8006f00:	4413      	add	r3, r2
 8006f02:	009b      	lsls	r3, r3, #2
 8006f04:	440b      	add	r3, r1
 8006f06:	3308      	adds	r3, #8
 8006f08:	6819      	ldr	r1, [r3, #0]
 8006f0a:	4825      	ldr	r0, [pc, #148]	; (8006fa0 <SYSVIEW_DeleteTask+0x174>)
 8006f0c:	68fa      	ldr	r2, [r7, #12]
 8006f0e:	4613      	mov	r3, r2
 8006f10:	009b      	lsls	r3, r3, #2
 8006f12:	4413      	add	r3, r2
 8006f14:	009b      	lsls	r3, r3, #2
 8006f16:	4403      	add	r3, r0
 8006f18:	3308      	adds	r3, #8
 8006f1a:	6019      	str	r1, [r3, #0]
    _aTasks[n].pxStack             = _aTasks[_NumTasks - 1].pxStack;
 8006f1c:	4b1f      	ldr	r3, [pc, #124]	; (8006f9c <SYSVIEW_DeleteTask+0x170>)
 8006f1e:	681b      	ldr	r3, [r3, #0]
 8006f20:	1e5a      	subs	r2, r3, #1
 8006f22:	491f      	ldr	r1, [pc, #124]	; (8006fa0 <SYSVIEW_DeleteTask+0x174>)
 8006f24:	4613      	mov	r3, r2
 8006f26:	009b      	lsls	r3, r3, #2
 8006f28:	4413      	add	r3, r2
 8006f2a:	009b      	lsls	r3, r3, #2
 8006f2c:	440b      	add	r3, r1
 8006f2e:	330c      	adds	r3, #12
 8006f30:	6819      	ldr	r1, [r3, #0]
 8006f32:	481b      	ldr	r0, [pc, #108]	; (8006fa0 <SYSVIEW_DeleteTask+0x174>)
 8006f34:	68fa      	ldr	r2, [r7, #12]
 8006f36:	4613      	mov	r3, r2
 8006f38:	009b      	lsls	r3, r3, #2
 8006f3a:	4413      	add	r3, r2
 8006f3c:	009b      	lsls	r3, r3, #2
 8006f3e:	4403      	add	r3, r0
 8006f40:	330c      	adds	r3, #12
 8006f42:	6019      	str	r1, [r3, #0]
    _aTasks[n].uStackHighWaterMark = _aTasks[_NumTasks - 1].uStackHighWaterMark;
 8006f44:	4b15      	ldr	r3, [pc, #84]	; (8006f9c <SYSVIEW_DeleteTask+0x170>)
 8006f46:	681b      	ldr	r3, [r3, #0]
 8006f48:	1e5a      	subs	r2, r3, #1
 8006f4a:	4915      	ldr	r1, [pc, #84]	; (8006fa0 <SYSVIEW_DeleteTask+0x174>)
 8006f4c:	4613      	mov	r3, r2
 8006f4e:	009b      	lsls	r3, r3, #2
 8006f50:	4413      	add	r3, r2
 8006f52:	009b      	lsls	r3, r3, #2
 8006f54:	440b      	add	r3, r1
 8006f56:	3310      	adds	r3, #16
 8006f58:	6819      	ldr	r1, [r3, #0]
 8006f5a:	4811      	ldr	r0, [pc, #68]	; (8006fa0 <SYSVIEW_DeleteTask+0x174>)
 8006f5c:	68fa      	ldr	r2, [r7, #12]
 8006f5e:	4613      	mov	r3, r2
 8006f60:	009b      	lsls	r3, r3, #2
 8006f62:	4413      	add	r3, r2
 8006f64:	009b      	lsls	r3, r3, #2
 8006f66:	4403      	add	r3, r0
 8006f68:	3310      	adds	r3, #16
 8006f6a:	6019      	str	r1, [r3, #0]
    memset(&_aTasks[_NumTasks - 1], 0, sizeof(_aTasks[_NumTasks - 1]));
 8006f6c:	4b0b      	ldr	r3, [pc, #44]	; (8006f9c <SYSVIEW_DeleteTask+0x170>)
 8006f6e:	681b      	ldr	r3, [r3, #0]
 8006f70:	1e5a      	subs	r2, r3, #1
 8006f72:	4613      	mov	r3, r2
 8006f74:	009b      	lsls	r3, r3, #2
 8006f76:	4413      	add	r3, r2
 8006f78:	009b      	lsls	r3, r3, #2
 8006f7a:	4a09      	ldr	r2, [pc, #36]	; (8006fa0 <SYSVIEW_DeleteTask+0x174>)
 8006f7c:	4413      	add	r3, r2
 8006f7e:	2214      	movs	r2, #20
 8006f80:	2100      	movs	r1, #0
 8006f82:	4618      	mov	r0, r3
 8006f84:	f001 fb98 	bl	80086b8 <memset>
    _NumTasks--;
 8006f88:	4b04      	ldr	r3, [pc, #16]	; (8006f9c <SYSVIEW_DeleteTask+0x170>)
 8006f8a:	681b      	ldr	r3, [r3, #0]
 8006f8c:	3b01      	subs	r3, #1
 8006f8e:	4a03      	ldr	r2, [pc, #12]	; (8006f9c <SYSVIEW_DeleteTask+0x170>)
 8006f90:	6013      	str	r3, [r2, #0]
 8006f92:	e000      	b.n	8006f96 <SYSVIEW_DeleteTask+0x16a>
    return; // Early out
 8006f94:	bf00      	nop
  }
}
 8006f96:	3710      	adds	r7, #16
 8006f98:	46bd      	mov	sp, r7
 8006f9a:	bd80      	pop	{r7, pc}
 8006f9c:	20003e74 	.word	0x20003e74
 8006fa0:	20003dd4 	.word	0x20003dd4

08006fa4 <SYSVIEW_SendTaskInfo>:
*       SYSVIEW_SendTaskInfo()
*
*  Function description
*    Record task information.
*/
void SYSVIEW_SendTaskInfo(U32 TaskID, const char* sName, unsigned Prio, U32 StackBase, unsigned StackSize) {
 8006fa4:	b580      	push	{r7, lr}
 8006fa6:	b08a      	sub	sp, #40	; 0x28
 8006fa8:	af00      	add	r7, sp, #0
 8006faa:	60f8      	str	r0, [r7, #12]
 8006fac:	60b9      	str	r1, [r7, #8]
 8006fae:	607a      	str	r2, [r7, #4]
 8006fb0:	603b      	str	r3, [r7, #0]
  SEGGER_SYSVIEW_TASKINFO TaskInfo;

  memset(&TaskInfo, 0, sizeof(TaskInfo)); // Fill all elements with 0 to allow extending the structure in future version without breaking the code
 8006fb2:	f107 0314 	add.w	r3, r7, #20
 8006fb6:	2214      	movs	r2, #20
 8006fb8:	2100      	movs	r1, #0
 8006fba:	4618      	mov	r0, r3
 8006fbc:	f001 fb7c 	bl	80086b8 <memset>
  TaskInfo.TaskID     = TaskID;
 8006fc0:	68fb      	ldr	r3, [r7, #12]
 8006fc2:	617b      	str	r3, [r7, #20]
  TaskInfo.sName      = sName;
 8006fc4:	68bb      	ldr	r3, [r7, #8]
 8006fc6:	61bb      	str	r3, [r7, #24]
  TaskInfo.Prio       = Prio;
 8006fc8:	687b      	ldr	r3, [r7, #4]
 8006fca:	61fb      	str	r3, [r7, #28]
  TaskInfo.StackBase  = StackBase;
 8006fcc:	683b      	ldr	r3, [r7, #0]
 8006fce:	623b      	str	r3, [r7, #32]
  TaskInfo.StackSize  = StackSize;
 8006fd0:	6b3b      	ldr	r3, [r7, #48]	; 0x30
 8006fd2:	627b      	str	r3, [r7, #36]	; 0x24
  SEGGER_SYSVIEW_SendTaskInfo(&TaskInfo);
 8006fd4:	f107 0314 	add.w	r3, r7, #20
 8006fd8:	4618      	mov	r0, r3
 8006fda:	f000 fedf 	bl	8007d9c <SEGGER_SYSVIEW_SendTaskInfo>
}
 8006fde:	bf00      	nop
 8006fe0:	3728      	adds	r7, #40	; 0x28
 8006fe2:	46bd      	mov	sp, r7
 8006fe4:	bd80      	pop	{r7, pc}
	...

08006fe8 <_DoInit>:
                      _DoInit();                                                                     \
                    }                                                                                \
                  } while (0);                                                                       \
                }

static void _DoInit(void) {
 8006fe8:	b480      	push	{r7}
 8006fea:	b083      	sub	sp, #12
 8006fec:	af00      	add	r7, sp, #0
  volatile SEGGER_RTT_CB* p;   // Volatile to make sure that compiler cannot change the order of accesses to the control block
  //
  // Initialize control block
  //
  p                     = (volatile SEGGER_RTT_CB*)((char*)&_SEGGER_RTT + SEGGER_RTT_UNCACHED_OFF);  // Access control block uncached so that nothing in the cache ever becomes dirty and all changes are visible in HW directly
 8006fee:	4b21      	ldr	r3, [pc, #132]	; (8007074 <_DoInit+0x8c>)
 8006ff0:	607b      	str	r3, [r7, #4]
  p->MaxNumUpBuffers    = SEGGER_RTT_MAX_NUM_UP_BUFFERS;
 8006ff2:	687b      	ldr	r3, [r7, #4]
 8006ff4:	2203      	movs	r2, #3
 8006ff6:	611a      	str	r2, [r3, #16]
  p->MaxNumDownBuffers  = SEGGER_RTT_MAX_NUM_DOWN_BUFFERS;
 8006ff8:	687b      	ldr	r3, [r7, #4]
 8006ffa:	2203      	movs	r2, #3
 8006ffc:	615a      	str	r2, [r3, #20]
  //
  // Initialize up buffer 0
  //
  p->aUp[0].sName         = "Terminal";
 8006ffe:	687b      	ldr	r3, [r7, #4]
 8007000:	4a1d      	ldr	r2, [pc, #116]	; (8007078 <_DoInit+0x90>)
 8007002:	619a      	str	r2, [r3, #24]
  p->aUp[0].pBuffer       = _acUpBuffer;
 8007004:	687b      	ldr	r3, [r7, #4]
 8007006:	4a1d      	ldr	r2, [pc, #116]	; (800707c <_DoInit+0x94>)
 8007008:	61da      	str	r2, [r3, #28]
  p->aUp[0].SizeOfBuffer  = BUFFER_SIZE_UP;
 800700a:	687b      	ldr	r3, [r7, #4]
 800700c:	f44f 6280 	mov.w	r2, #1024	; 0x400
 8007010:	621a      	str	r2, [r3, #32]
  p->aUp[0].RdOff         = 0u;
 8007012:	687b      	ldr	r3, [r7, #4]
 8007014:	2200      	movs	r2, #0
 8007016:	629a      	str	r2, [r3, #40]	; 0x28
  p->aUp[0].WrOff         = 0u;
 8007018:	687b      	ldr	r3, [r7, #4]
 800701a:	2200      	movs	r2, #0
 800701c:	625a      	str	r2, [r3, #36]	; 0x24
  p->aUp[0].Flags         = SEGGER_RTT_MODE_DEFAULT;
 800701e:	687b      	ldr	r3, [r7, #4]
 8007020:	2200      	movs	r2, #0
 8007022:	62da      	str	r2, [r3, #44]	; 0x2c
  //
  // Initialize down buffer 0
  //
  p->aDown[0].sName         = "Terminal";
 8007024:	687b      	ldr	r3, [r7, #4]
 8007026:	4a14      	ldr	r2, [pc, #80]	; (8007078 <_DoInit+0x90>)
 8007028:	661a      	str	r2, [r3, #96]	; 0x60
  p->aDown[0].pBuffer       = _acDownBuffer;
 800702a:	687b      	ldr	r3, [r7, #4]
 800702c:	4a14      	ldr	r2, [pc, #80]	; (8007080 <_DoInit+0x98>)
 800702e:	665a      	str	r2, [r3, #100]	; 0x64
  p->aDown[0].SizeOfBuffer  = BUFFER_SIZE_DOWN;
 8007030:	687b      	ldr	r3, [r7, #4]
 8007032:	2210      	movs	r2, #16
 8007034:	669a      	str	r2, [r3, #104]	; 0x68
  p->aDown[0].RdOff         = 0u;
 8007036:	687b      	ldr	r3, [r7, #4]
 8007038:	2200      	movs	r2, #0
 800703a:	671a      	str	r2, [r3, #112]	; 0x70
  p->aDown[0].WrOff         = 0u;
 800703c:	687b      	ldr	r3, [r7, #4]
 800703e:	2200      	movs	r2, #0
 8007040:	66da      	str	r2, [r3, #108]	; 0x6c
  p->aDown[0].Flags         = SEGGER_RTT_MODE_DEFAULT;
 8007042:	687b      	ldr	r3, [r7, #4]
 8007044:	2200      	movs	r2, #0
 8007046:	675a      	str	r2, [r3, #116]	; 0x74
  //
  // Finish initialization of the control block.
  // Copy Id string in three steps to make sure "SEGGER RTT" is not found
  // in initializer memory (usually flash) by J-Link
  //
  STRCPY((char*)&p->acID[7], "RTT");
 8007048:	687b      	ldr	r3, [r7, #4]
 800704a:	3307      	adds	r3, #7
 800704c:	4a0d      	ldr	r2, [pc, #52]	; (8007084 <_DoInit+0x9c>)
 800704e:	6810      	ldr	r0, [r2, #0]
 8007050:	6018      	str	r0, [r3, #0]
  RTT__DMB();                       // Force order of memory accessed inside core for cores that allow to change the order
  STRCPY((char*)&p->acID[0], "SEGGER");
 8007052:	687b      	ldr	r3, [r7, #4]
 8007054:	4a0c      	ldr	r2, [pc, #48]	; (8007088 <_DoInit+0xa0>)
 8007056:	6810      	ldr	r0, [r2, #0]
 8007058:	6018      	str	r0, [r3, #0]
 800705a:	8891      	ldrh	r1, [r2, #4]
 800705c:	7992      	ldrb	r2, [r2, #6]
 800705e:	8099      	strh	r1, [r3, #4]
 8007060:	719a      	strb	r2, [r3, #6]
  RTT__DMB();                       // Force order of memory accessed inside core for cores that allow to change the order
  p->acID[6] = ' ';
 8007062:	687b      	ldr	r3, [r7, #4]
 8007064:	2220      	movs	r2, #32
 8007066:	719a      	strb	r2, [r3, #6]
  RTT__DMB();                       // Force order of memory accessed inside core for cores that allow to change the order
}
 8007068:	bf00      	nop
 800706a:	370c      	adds	r7, #12
 800706c:	46bd      	mov	sp, r7
 800706e:	bc80      	pop	{r7}
 8007070:	4770      	bx	lr
 8007072:	bf00      	nop
 8007074:	200046dc 	.word	0x200046dc
 8007078:	080087dc 	.word	0x080087dc
 800707c:	20003e78 	.word	0x20003e78
 8007080:	20004278 	.word	0x20004278
 8007084:	080087e8 	.word	0x080087e8
 8007088:	080087ec 	.word	0x080087ec

0800708c <SEGGER_RTT_ReadNoLock>:
*    BufferSize   Size of the target application buffer.
*
*  Return value
*    Number of bytes that have been read.
*/
unsigned SEGGER_RTT_ReadNoLock(unsigned BufferIndex, void* pData, unsigned BufferSize) {
 800708c:	b580      	push	{r7, lr}
 800708e:	b08c      	sub	sp, #48	; 0x30
 8007090:	af00      	add	r7, sp, #0
 8007092:	60f8      	str	r0, [r7, #12]
 8007094:	60b9      	str	r1, [r7, #8]
 8007096:	607a      	str	r2, [r7, #4]
  unsigned                WrOff;
  unsigned char*          pBuffer;
  SEGGER_RTT_BUFFER_DOWN* pRing;
  volatile char*          pSrc;
  //
  INIT();
 8007098:	4b3e      	ldr	r3, [pc, #248]	; (8007194 <SEGGER_RTT_ReadNoLock+0x108>)
 800709a:	623b      	str	r3, [r7, #32]
 800709c:	6a3b      	ldr	r3, [r7, #32]
 800709e:	781b      	ldrb	r3, [r3, #0]
 80070a0:	b2db      	uxtb	r3, r3
 80070a2:	2b00      	cmp	r3, #0
 80070a4:	d101      	bne.n	80070aa <SEGGER_RTT_ReadNoLock+0x1e>
 80070a6:	f7ff ff9f 	bl	8006fe8 <_DoInit>
  pRing = (SEGGER_RTT_BUFFER_DOWN*)((char*)&_SEGGER_RTT.aDown[BufferIndex] + SEGGER_RTT_UNCACHED_OFF);  // Access uncached to make sure we see changes made by the J-Link side and all of our changes go into HW directly
 80070aa:	68fa      	ldr	r2, [r7, #12]
 80070ac:	4613      	mov	r3, r2
 80070ae:	005b      	lsls	r3, r3, #1
 80070b0:	4413      	add	r3, r2
 80070b2:	00db      	lsls	r3, r3, #3
 80070b4:	3360      	adds	r3, #96	; 0x60
 80070b6:	4a37      	ldr	r2, [pc, #220]	; (8007194 <SEGGER_RTT_ReadNoLock+0x108>)
 80070b8:	4413      	add	r3, r2
 80070ba:	61fb      	str	r3, [r7, #28]
  pBuffer = (unsigned char*)pData;
 80070bc:	68bb      	ldr	r3, [r7, #8]
 80070be:	627b      	str	r3, [r7, #36]	; 0x24
  RdOff = pRing->RdOff;
 80070c0:	69fb      	ldr	r3, [r7, #28]
 80070c2:	691b      	ldr	r3, [r3, #16]
 80070c4:	62bb      	str	r3, [r7, #40]	; 0x28
  WrOff = pRing->WrOff;
 80070c6:	69fb      	ldr	r3, [r7, #28]
 80070c8:	68db      	ldr	r3, [r3, #12]
 80070ca:	61bb      	str	r3, [r7, #24]
  NumBytesRead = 0u;
 80070cc:	2300      	movs	r3, #0
 80070ce:	62fb      	str	r3, [r7, #44]	; 0x2c
  //
  // Read from current read position to wrap-around of buffer, first
  //
  if (RdOff > WrOff) {
 80070d0:	6aba      	ldr	r2, [r7, #40]	; 0x28
 80070d2:	69bb      	ldr	r3, [r7, #24]
 80070d4:	429a      	cmp	r2, r3
 80070d6:	d92b      	bls.n	8007130 <SEGGER_RTT_ReadNoLock+0xa4>
    NumBytesRem = pRing->SizeOfBuffer - RdOff;
 80070d8:	69fb      	ldr	r3, [r7, #28]
 80070da:	689a      	ldr	r2, [r3, #8]
 80070dc:	6abb      	ldr	r3, [r7, #40]	; 0x28
 80070de:	1ad3      	subs	r3, r2, r3
 80070e0:	617b      	str	r3, [r7, #20]
    NumBytesRem = MIN(NumBytesRem, BufferSize);
 80070e2:	697a      	ldr	r2, [r7, #20]
 80070e4:	687b      	ldr	r3, [r7, #4]
 80070e6:	4293      	cmp	r3, r2
 80070e8:	bf28      	it	cs
 80070ea:	4613      	movcs	r3, r2
 80070ec:	617b      	str	r3, [r7, #20]
    pSrc = (pRing->pBuffer + RdOff) + SEGGER_RTT_UNCACHED_OFF;
 80070ee:	69fb      	ldr	r3, [r7, #28]
 80070f0:	685a      	ldr	r2, [r3, #4]
 80070f2:	6abb      	ldr	r3, [r7, #40]	; 0x28
 80070f4:	4413      	add	r3, r2
 80070f6:	613b      	str	r3, [r7, #16]
    RdOff        += NumBytesRem;
    while (NumBytesRem--) {
      *pBuffer++ = *pSrc++;
    };
#else
    SEGGER_RTT_MEMCPY(pBuffer, (void*)pSrc, NumBytesRem);
 80070f8:	697a      	ldr	r2, [r7, #20]
 80070fa:	6939      	ldr	r1, [r7, #16]
 80070fc:	6a78      	ldr	r0, [r7, #36]	; 0x24
 80070fe:	f001 fad0 	bl	80086a2 <memcpy>
    NumBytesRead += NumBytesRem;
 8007102:	6afa      	ldr	r2, [r7, #44]	; 0x2c
 8007104:	697b      	ldr	r3, [r7, #20]
 8007106:	4413      	add	r3, r2
 8007108:	62fb      	str	r3, [r7, #44]	; 0x2c
    pBuffer      += NumBytesRem;
 800710a:	6a7a      	ldr	r2, [r7, #36]	; 0x24
 800710c:	697b      	ldr	r3, [r7, #20]
 800710e:	4413      	add	r3, r2
 8007110:	627b      	str	r3, [r7, #36]	; 0x24
    BufferSize   -= NumBytesRem;
 8007112:	687a      	ldr	r2, [r7, #4]
 8007114:	697b      	ldr	r3, [r7, #20]
 8007116:	1ad3      	subs	r3, r2, r3
 8007118:	607b      	str	r3, [r7, #4]
    RdOff        += NumBytesRem;
 800711a:	6aba      	ldr	r2, [r7, #40]	; 0x28
 800711c:	697b      	ldr	r3, [r7, #20]
 800711e:	4413      	add	r3, r2
 8007120:	62bb      	str	r3, [r7, #40]	; 0x28
#endif
    //
    // Handle wrap-around of buffer
    //
    if (RdOff == pRing->SizeOfBuffer) {
 8007122:	69fb      	ldr	r3, [r7, #28]
 8007124:	689b      	ldr	r3, [r3, #8]
 8007126:	6aba      	ldr	r2, [r7, #40]	; 0x28
 8007128:	429a      	cmp	r2, r3
 800712a:	d101      	bne.n	8007130 <SEGGER_RTT_ReadNoLock+0xa4>
      RdOff = 0u;
 800712c:	2300      	movs	r3, #0
 800712e:	62bb      	str	r3, [r7, #40]	; 0x28
    }
  }
  //
  // Read remaining items of buffer
  //
  NumBytesRem = WrOff - RdOff;
 8007130:	69ba      	ldr	r2, [r7, #24]
 8007132:	6abb      	ldr	r3, [r7, #40]	; 0x28
 8007134:	1ad3      	subs	r3, r2, r3
 8007136:	617b      	str	r3, [r7, #20]
  NumBytesRem = MIN(NumBytesRem, BufferSize);
 8007138:	697a      	ldr	r2, [r7, #20]
 800713a:	687b      	ldr	r3, [r7, #4]
 800713c:	4293      	cmp	r3, r2
 800713e:	bf28      	it	cs
 8007140:	4613      	movcs	r3, r2
 8007142:	617b      	str	r3, [r7, #20]
  if (NumBytesRem > 0u) {
 8007144:	697b      	ldr	r3, [r7, #20]
 8007146:	2b00      	cmp	r3, #0
 8007148:	d019      	beq.n	800717e <SEGGER_RTT_ReadNoLock+0xf2>
    pSrc = (pRing->pBuffer + RdOff) + SEGGER_RTT_UNCACHED_OFF;
 800714a:	69fb      	ldr	r3, [r7, #28]
 800714c:	685a      	ldr	r2, [r3, #4]
 800714e:	6abb      	ldr	r3, [r7, #40]	; 0x28
 8007150:	4413      	add	r3, r2
 8007152:	613b      	str	r3, [r7, #16]
    RdOff        += NumBytesRem;
    while (NumBytesRem--) {
      *pBuffer++ = *pSrc++;
    };
#else
    SEGGER_RTT_MEMCPY(pBuffer, (void*)pSrc, NumBytesRem);
 8007154:	697a      	ldr	r2, [r7, #20]
 8007156:	6939      	ldr	r1, [r7, #16]
 8007158:	6a78      	ldr	r0, [r7, #36]	; 0x24
 800715a:	f001 faa2 	bl	80086a2 <memcpy>
    NumBytesRead += NumBytesRem;
 800715e:	6afa      	ldr	r2, [r7, #44]	; 0x2c
 8007160:	697b      	ldr	r3, [r7, #20]
 8007162:	4413      	add	r3, r2
 8007164:	62fb      	str	r3, [r7, #44]	; 0x2c
    pBuffer      += NumBytesRem;
 8007166:	6a7a      	ldr	r2, [r7, #36]	; 0x24
 8007168:	697b      	ldr	r3, [r7, #20]
 800716a:	4413      	add	r3, r2
 800716c:	627b      	str	r3, [r7, #36]	; 0x24
    BufferSize   -= NumBytesRem;
 800716e:	687a      	ldr	r2, [r7, #4]
 8007170:	697b      	ldr	r3, [r7, #20]
 8007172:	1ad3      	subs	r3, r2, r3
 8007174:	607b      	str	r3, [r7, #4]
    RdOff        += NumBytesRem;
 8007176:	6aba      	ldr	r2, [r7, #40]	; 0x28
 8007178:	697b      	ldr	r3, [r7, #20]
 800717a:	4413      	add	r3, r2
 800717c:	62bb      	str	r3, [r7, #40]	; 0x28
#endif
  }
  if (NumBytesRead) {
 800717e:	6afb      	ldr	r3, [r7, #44]	; 0x2c
 8007180:	2b00      	cmp	r3, #0
 8007182:	d002      	beq.n	800718a <SEGGER_RTT_ReadNoLock+0xfe>
    pRing->RdOff = RdOff;
 8007184:	69fb      	ldr	r3, [r7, #28]
 8007186:	6aba      	ldr	r2, [r7, #40]	; 0x28
 8007188:	611a      	str	r2, [r3, #16]
  }
  //
  return NumBytesRead;
 800718a:	6afb      	ldr	r3, [r7, #44]	; 0x2c
}
 800718c:	4618      	mov	r0, r3
 800718e:	3730      	adds	r7, #48	; 0x30
 8007190:	46bd      	mov	sp, r7
 8007192:	bd80      	pop	{r7, pc}
 8007194:	200046dc 	.word	0x200046dc

08007198 <SEGGER_RTT_AllocUpBuffer>:
*
*  Return value
*    >= 0 - O.K. Buffer Index
*     < 0 - Error
*/
int SEGGER_RTT_AllocUpBuffer(const char* sName, void* pBuffer, unsigned BufferSize, unsigned Flags) {
 8007198:	b580      	push	{r7, lr}
 800719a:	b088      	sub	sp, #32
 800719c:	af00      	add	r7, sp, #0
 800719e:	60f8      	str	r0, [r7, #12]
 80071a0:	60b9      	str	r1, [r7, #8]
 80071a2:	607a      	str	r2, [r7, #4]
 80071a4:	603b      	str	r3, [r7, #0]
  int BufferIndex;
  volatile SEGGER_RTT_CB* pRTTCB;

  INIT();
 80071a6:	4b3c      	ldr	r3, [pc, #240]	; (8007298 <SEGGER_RTT_AllocUpBuffer+0x100>)
 80071a8:	61bb      	str	r3, [r7, #24]
 80071aa:	69bb      	ldr	r3, [r7, #24]
 80071ac:	781b      	ldrb	r3, [r3, #0]
 80071ae:	b2db      	uxtb	r3, r3
 80071b0:	2b00      	cmp	r3, #0
 80071b2:	d101      	bne.n	80071b8 <SEGGER_RTT_AllocUpBuffer+0x20>
 80071b4:	f7ff ff18 	bl	8006fe8 <_DoInit>
  SEGGER_RTT_LOCK();
 80071b8:	f3ef 8311 	mrs	r3, BASEPRI
 80071bc:	f04f 0120 	mov.w	r1, #32
 80071c0:	f381 8811 	msr	BASEPRI, r1
 80071c4:	617b      	str	r3, [r7, #20]
  pRTTCB = (volatile SEGGER_RTT_CB*)((unsigned char*)&_SEGGER_RTT + SEGGER_RTT_UNCACHED_OFF);  // Access RTTCB uncached to make sure we see changes made by the J-Link side and all of our changes go into HW directly
 80071c6:	4b34      	ldr	r3, [pc, #208]	; (8007298 <SEGGER_RTT_AllocUpBuffer+0x100>)
 80071c8:	613b      	str	r3, [r7, #16]
  BufferIndex = 0;
 80071ca:	2300      	movs	r3, #0
 80071cc:	61fb      	str	r3, [r7, #28]
  do {
    if (pRTTCB->aUp[BufferIndex].pBuffer == NULL) {
 80071ce:	6939      	ldr	r1, [r7, #16]
 80071d0:	69fb      	ldr	r3, [r7, #28]
 80071d2:	1c5a      	adds	r2, r3, #1
 80071d4:	4613      	mov	r3, r2
 80071d6:	005b      	lsls	r3, r3, #1
 80071d8:	4413      	add	r3, r2
 80071da:	00db      	lsls	r3, r3, #3
 80071dc:	440b      	add	r3, r1
 80071de:	3304      	adds	r3, #4
 80071e0:	681b      	ldr	r3, [r3, #0]
 80071e2:	2b00      	cmp	r3, #0
 80071e4:	d008      	beq.n	80071f8 <SEGGER_RTT_AllocUpBuffer+0x60>
      break;
    }
    BufferIndex++;
 80071e6:	69fb      	ldr	r3, [r7, #28]
 80071e8:	3301      	adds	r3, #1
 80071ea:	61fb      	str	r3, [r7, #28]
  } while (BufferIndex < pRTTCB->MaxNumUpBuffers);
 80071ec:	693b      	ldr	r3, [r7, #16]
 80071ee:	691b      	ldr	r3, [r3, #16]
 80071f0:	69fa      	ldr	r2, [r7, #28]
 80071f2:	429a      	cmp	r2, r3
 80071f4:	dbeb      	blt.n	80071ce <SEGGER_RTT_AllocUpBuffer+0x36>
 80071f6:	e000      	b.n	80071fa <SEGGER_RTT_AllocUpBuffer+0x62>
      break;
 80071f8:	bf00      	nop
  if (BufferIndex < pRTTCB->MaxNumUpBuffers) {
 80071fa:	693b      	ldr	r3, [r7, #16]
 80071fc:	691b      	ldr	r3, [r3, #16]
 80071fe:	69fa      	ldr	r2, [r7, #28]
 8007200:	429a      	cmp	r2, r3
 8007202:	da3d      	bge.n	8007280 <SEGGER_RTT_AllocUpBuffer+0xe8>
    pRTTCB->aUp[BufferIndex].sName        = sName;
 8007204:	6939      	ldr	r1, [r7, #16]
 8007206:	69fb      	ldr	r3, [r7, #28]
 8007208:	1c5a      	adds	r2, r3, #1
 800720a:	4613      	mov	r3, r2
 800720c:	005b      	lsls	r3, r3, #1
 800720e:	4413      	add	r3, r2
 8007210:	00db      	lsls	r3, r3, #3
 8007212:	440b      	add	r3, r1
 8007214:	68fa      	ldr	r2, [r7, #12]
 8007216:	601a      	str	r2, [r3, #0]
    pRTTCB->aUp[BufferIndex].pBuffer      = (char*)pBuffer;
 8007218:	6939      	ldr	r1, [r7, #16]
 800721a:	69fb      	ldr	r3, [r7, #28]
 800721c:	1c5a      	adds	r2, r3, #1
 800721e:	4613      	mov	r3, r2
 8007220:	005b      	lsls	r3, r3, #1
 8007222:	4413      	add	r3, r2
 8007224:	00db      	lsls	r3, r3, #3
 8007226:	440b      	add	r3, r1
 8007228:	3304      	adds	r3, #4
 800722a:	68ba      	ldr	r2, [r7, #8]
 800722c:	601a      	str	r2, [r3, #0]
    pRTTCB->aUp[BufferIndex].SizeOfBuffer = BufferSize;
 800722e:	6939      	ldr	r1, [r7, #16]
 8007230:	69fa      	ldr	r2, [r7, #28]
 8007232:	4613      	mov	r3, r2
 8007234:	005b      	lsls	r3, r3, #1
 8007236:	4413      	add	r3, r2
 8007238:	00db      	lsls	r3, r3, #3
 800723a:	440b      	add	r3, r1
 800723c:	3320      	adds	r3, #32
 800723e:	687a      	ldr	r2, [r7, #4]
 8007240:	601a      	str	r2, [r3, #0]
    pRTTCB->aUp[BufferIndex].RdOff        = 0u;
 8007242:	6939      	ldr	r1, [r7, #16]
 8007244:	69fa      	ldr	r2, [r7, #28]
 8007246:	4613      	mov	r3, r2
 8007248:	005b      	lsls	r3, r3, #1
 800724a:	4413      	add	r3, r2
 800724c:	00db      	lsls	r3, r3, #3
 800724e:	440b      	add	r3, r1
 8007250:	3328      	adds	r3, #40	; 0x28
 8007252:	2200      	movs	r2, #0
 8007254:	601a      	str	r2, [r3, #0]
    pRTTCB->aUp[BufferIndex].WrOff        = 0u;
 8007256:	6939      	ldr	r1, [r7, #16]
 8007258:	69fa      	ldr	r2, [r7, #28]
 800725a:	4613      	mov	r3, r2
 800725c:	005b      	lsls	r3, r3, #1
 800725e:	4413      	add	r3, r2
 8007260:	00db      	lsls	r3, r3, #3
 8007262:	440b      	add	r3, r1
 8007264:	3324      	adds	r3, #36	; 0x24
 8007266:	2200      	movs	r2, #0
 8007268:	601a      	str	r2, [r3, #0]
    pRTTCB->aUp[BufferIndex].Flags        = Flags;
 800726a:	6939      	ldr	r1, [r7, #16]
 800726c:	69fa      	ldr	r2, [r7, #28]
 800726e:	4613      	mov	r3, r2
 8007270:	005b      	lsls	r3, r3, #1
 8007272:	4413      	add	r3, r2
 8007274:	00db      	lsls	r3, r3, #3
 8007276:	440b      	add	r3, r1
 8007278:	332c      	adds	r3, #44	; 0x2c
 800727a:	683a      	ldr	r2, [r7, #0]
 800727c:	601a      	str	r2, [r3, #0]
 800727e:	e002      	b.n	8007286 <SEGGER_RTT_AllocUpBuffer+0xee>
    RTT__DMB();                     // Force data write to be complete before writing the <WrOff>, in case CPU is allowed to change the order of memory accesses
  } else {
    BufferIndex = -1;
 8007280:	f04f 33ff 	mov.w	r3, #4294967295
 8007284:	61fb      	str	r3, [r7, #28]
  }
  SEGGER_RTT_UNLOCK();
 8007286:	697b      	ldr	r3, [r7, #20]
 8007288:	f383 8811 	msr	BASEPRI, r3
  return BufferIndex;
 800728c:	69fb      	ldr	r3, [r7, #28]
}
 800728e:	4618      	mov	r0, r3
 8007290:	3720      	adds	r7, #32
 8007292:	46bd      	mov	sp, r7
 8007294:	bd80      	pop	{r7, pc}
 8007296:	bf00      	nop
 8007298:	200046dc 	.word	0x200046dc

0800729c <SEGGER_RTT_ConfigDownBuffer>:
*  Additional information
*    Buffer 0 is configured on compile-time.
*    May only be called once per buffer.
*    Buffer name and flags can be reconfigured using the appropriate functions.
*/
int SEGGER_RTT_ConfigDownBuffer(unsigned BufferIndex, const char* sName, void* pBuffer, unsigned BufferSize, unsigned Flags) {
 800729c:	b580      	push	{r7, lr}
 800729e:	b088      	sub	sp, #32
 80072a0:	af00      	add	r7, sp, #0
 80072a2:	60f8      	str	r0, [r7, #12]
 80072a4:	60b9      	str	r1, [r7, #8]
 80072a6:	607a      	str	r2, [r7, #4]
 80072a8:	603b      	str	r3, [r7, #0]
  int r;
  volatile SEGGER_RTT_CB* pRTTCB;

  INIT();
 80072aa:	4b32      	ldr	r3, [pc, #200]	; (8007374 <SEGGER_RTT_ConfigDownBuffer+0xd8>)
 80072ac:	61bb      	str	r3, [r7, #24]
 80072ae:	69bb      	ldr	r3, [r7, #24]
 80072b0:	781b      	ldrb	r3, [r3, #0]
 80072b2:	b2db      	uxtb	r3, r3
 80072b4:	2b00      	cmp	r3, #0
 80072b6:	d101      	bne.n	80072bc <SEGGER_RTT_ConfigDownBuffer+0x20>
 80072b8:	f7ff fe96 	bl	8006fe8 <_DoInit>
  pRTTCB = (volatile SEGGER_RTT_CB*)((unsigned char*)&_SEGGER_RTT + SEGGER_RTT_UNCACHED_OFF);  // Access RTTCB uncached to make sure we see changes made by the J-Link side and all of our changes go into HW directly
 80072bc:	4b2d      	ldr	r3, [pc, #180]	; (8007374 <SEGGER_RTT_ConfigDownBuffer+0xd8>)
 80072be:	617b      	str	r3, [r7, #20]
  if (BufferIndex < (unsigned)pRTTCB->MaxNumDownBuffers) {
 80072c0:	697b      	ldr	r3, [r7, #20]
 80072c2:	695b      	ldr	r3, [r3, #20]
 80072c4:	461a      	mov	r2, r3
 80072c6:	68fb      	ldr	r3, [r7, #12]
 80072c8:	4293      	cmp	r3, r2
 80072ca:	d24b      	bcs.n	8007364 <SEGGER_RTT_ConfigDownBuffer+0xc8>
    SEGGER_RTT_LOCK();
 80072cc:	f3ef 8311 	mrs	r3, BASEPRI
 80072d0:	f04f 0120 	mov.w	r1, #32
 80072d4:	f381 8811 	msr	BASEPRI, r1
 80072d8:	613b      	str	r3, [r7, #16]
    if (BufferIndex > 0u) {
 80072da:	68fb      	ldr	r3, [r7, #12]
 80072dc:	2b00      	cmp	r3, #0
 80072de:	d031      	beq.n	8007344 <SEGGER_RTT_ConfigDownBuffer+0xa8>
      pRTTCB->aDown[BufferIndex].sName        = sName;
 80072e0:	6979      	ldr	r1, [r7, #20]
 80072e2:	68fa      	ldr	r2, [r7, #12]
 80072e4:	4613      	mov	r3, r2
 80072e6:	005b      	lsls	r3, r3, #1
 80072e8:	4413      	add	r3, r2
 80072ea:	00db      	lsls	r3, r3, #3
 80072ec:	440b      	add	r3, r1
 80072ee:	3360      	adds	r3, #96	; 0x60
 80072f0:	68ba      	ldr	r2, [r7, #8]
 80072f2:	601a      	str	r2, [r3, #0]
      pRTTCB->aDown[BufferIndex].pBuffer      = (char*)pBuffer;
 80072f4:	6979      	ldr	r1, [r7, #20]
 80072f6:	68fa      	ldr	r2, [r7, #12]
 80072f8:	4613      	mov	r3, r2
 80072fa:	005b      	lsls	r3, r3, #1
 80072fc:	4413      	add	r3, r2
 80072fe:	00db      	lsls	r3, r3, #3
 8007300:	440b      	add	r3, r1
 8007302:	3364      	adds	r3, #100	; 0x64
 8007304:	687a      	ldr	r2, [r7, #4]
 8007306:	601a      	str	r2, [r3, #0]
      pRTTCB->aDown[BufferIndex].SizeOfBuffer = BufferSize;
 8007308:	6979      	ldr	r1, [r7, #20]
 800730a:	68fa      	ldr	r2, [r7, #12]
 800730c:	4613      	mov	r3, r2
 800730e:	005b      	lsls	r3, r3, #1
 8007310:	4413      	add	r3, r2
 8007312:	00db      	lsls	r3, r3, #3
 8007314:	440b      	add	r3, r1
 8007316:	3368      	adds	r3, #104	; 0x68
 8007318:	683a      	ldr	r2, [r7, #0]
 800731a:	601a      	str	r2, [r3, #0]
      pRTTCB->aDown[BufferIndex].RdOff        = 0u;
 800731c:	6979      	ldr	r1, [r7, #20]
 800731e:	68fa      	ldr	r2, [r7, #12]
 8007320:	4613      	mov	r3, r2
 8007322:	005b      	lsls	r3, r3, #1
 8007324:	4413      	add	r3, r2
 8007326:	00db      	lsls	r3, r3, #3
 8007328:	440b      	add	r3, r1
 800732a:	3370      	adds	r3, #112	; 0x70
 800732c:	2200      	movs	r2, #0
 800732e:	601a      	str	r2, [r3, #0]
      pRTTCB->aDown[BufferIndex].WrOff        = 0u;
 8007330:	6979      	ldr	r1, [r7, #20]
 8007332:	68fa      	ldr	r2, [r7, #12]
 8007334:	4613      	mov	r3, r2
 8007336:	005b      	lsls	r3, r3, #1
 8007338:	4413      	add	r3, r2
 800733a:	00db      	lsls	r3, r3, #3
 800733c:	440b      	add	r3, r1
 800733e:	336c      	adds	r3, #108	; 0x6c
 8007340:	2200      	movs	r2, #0
 8007342:	601a      	str	r2, [r3, #0]
    }
    pRTTCB->aDown[BufferIndex].Flags          = Flags;
 8007344:	6979      	ldr	r1, [r7, #20]
 8007346:	68fa      	ldr	r2, [r7, #12]
 8007348:	4613      	mov	r3, r2
 800734a:	005b      	lsls	r3, r3, #1
 800734c:	4413      	add	r3, r2
 800734e:	00db      	lsls	r3, r3, #3
 8007350:	440b      	add	r3, r1
 8007352:	3374      	adds	r3, #116	; 0x74
 8007354:	6aba      	ldr	r2, [r7, #40]	; 0x28
 8007356:	601a      	str	r2, [r3, #0]
    RTT__DMB();                     // Force data write to be complete before writing the <WrOff>, in case CPU is allowed to change the order of memory accesses
    SEGGER_RTT_UNLOCK();
 8007358:	693b      	ldr	r3, [r7, #16]
 800735a:	f383 8811 	msr	BASEPRI, r3
    r =  0;
 800735e:	2300      	movs	r3, #0
 8007360:	61fb      	str	r3, [r7, #28]
 8007362:	e002      	b.n	800736a <SEGGER_RTT_ConfigDownBuffer+0xce>
  } else {
    r = -1;
 8007364:	f04f 33ff 	mov.w	r3, #4294967295
 8007368:	61fb      	str	r3, [r7, #28]
  }
  return r;
 800736a:	69fb      	ldr	r3, [r7, #28]
}
 800736c:	4618      	mov	r0, r3
 800736e:	3720      	adds	r7, #32
 8007370:	46bd      	mov	sp, r7
 8007372:	bd80      	pop	{r7, pc}
 8007374:	200046dc 	.word	0x200046dc

08007378 <_EncodeStr>:
*  Additional information
*    The string is encoded as a count byte followed by the contents
*    of the string.
*    No more than 1 + Limit bytes will be encoded to the payload.
*/
static U8 *_EncodeStr(U8 *pPayload, const char *pText, unsigned int Limit) {
 8007378:	b480      	push	{r7}
 800737a:	b087      	sub	sp, #28
 800737c:	af00      	add	r7, sp, #0
 800737e:	60f8      	str	r0, [r7, #12]
 8007380:	60b9      	str	r1, [r7, #8]
 8007382:	607a      	str	r2, [r7, #4]
  unsigned int n;
  unsigned int Len;
  //
  // Compute string len
  //
  Len = 0;
 8007384:	2300      	movs	r3, #0
 8007386:	613b      	str	r3, [r7, #16]
  while(*(pText + Len) != 0) {
 8007388:	e002      	b.n	8007390 <_EncodeStr+0x18>
    Len++;
 800738a:	693b      	ldr	r3, [r7, #16]
 800738c:	3301      	adds	r3, #1
 800738e:	613b      	str	r3, [r7, #16]
  while(*(pText + Len) != 0) {
 8007390:	68ba      	ldr	r2, [r7, #8]
 8007392:	693b      	ldr	r3, [r7, #16]
 8007394:	4413      	add	r3, r2
 8007396:	781b      	ldrb	r3, [r3, #0]
 8007398:	2b00      	cmp	r3, #0
 800739a:	d1f6      	bne.n	800738a <_EncodeStr+0x12>
  }
  if (Len > Limit) {
 800739c:	693a      	ldr	r2, [r7, #16]
 800739e:	687b      	ldr	r3, [r7, #4]
 80073a0:	429a      	cmp	r2, r3
 80073a2:	d901      	bls.n	80073a8 <_EncodeStr+0x30>
    Len = Limit;
 80073a4:	687b      	ldr	r3, [r7, #4]
 80073a6:	613b      	str	r3, [r7, #16]
  }
  //
  // Write Len
  //
  if (Len < 255)  {
 80073a8:	693b      	ldr	r3, [r7, #16]
 80073aa:	2bfe      	cmp	r3, #254	; 0xfe
 80073ac:	d806      	bhi.n	80073bc <_EncodeStr+0x44>
    *pPayload++ = Len; 
 80073ae:	68fb      	ldr	r3, [r7, #12]
 80073b0:	1c5a      	adds	r2, r3, #1
 80073b2:	60fa      	str	r2, [r7, #12]
 80073b4:	693a      	ldr	r2, [r7, #16]
 80073b6:	b2d2      	uxtb	r2, r2
 80073b8:	701a      	strb	r2, [r3, #0]
 80073ba:	e011      	b.n	80073e0 <_EncodeStr+0x68>
  } else {
    *pPayload++ = 255;
 80073bc:	68fb      	ldr	r3, [r7, #12]
 80073be:	1c5a      	adds	r2, r3, #1
 80073c0:	60fa      	str	r2, [r7, #12]
 80073c2:	22ff      	movs	r2, #255	; 0xff
 80073c4:	701a      	strb	r2, [r3, #0]
    *pPayload++ = (Len & 255);
 80073c6:	68fb      	ldr	r3, [r7, #12]
 80073c8:	1c5a      	adds	r2, r3, #1
 80073ca:	60fa      	str	r2, [r7, #12]
 80073cc:	693a      	ldr	r2, [r7, #16]
 80073ce:	b2d2      	uxtb	r2, r2
 80073d0:	701a      	strb	r2, [r3, #0]
    *pPayload++ = ((Len >> 8) & 255);
 80073d2:	693b      	ldr	r3, [r7, #16]
 80073d4:	0a19      	lsrs	r1, r3, #8
 80073d6:	68fb      	ldr	r3, [r7, #12]
 80073d8:	1c5a      	adds	r2, r3, #1
 80073da:	60fa      	str	r2, [r7, #12]
 80073dc:	b2ca      	uxtb	r2, r1
 80073de:	701a      	strb	r2, [r3, #0]
  }
  //
  // copy string
  //
  n = 0;
 80073e0:	2300      	movs	r3, #0
 80073e2:	617b      	str	r3, [r7, #20]
  while (n < Len) {
 80073e4:	e00a      	b.n	80073fc <_EncodeStr+0x84>
    *pPayload++ = *pText++;
 80073e6:	68ba      	ldr	r2, [r7, #8]
 80073e8:	1c53      	adds	r3, r2, #1
 80073ea:	60bb      	str	r3, [r7, #8]
 80073ec:	68fb      	ldr	r3, [r7, #12]
 80073ee:	1c59      	adds	r1, r3, #1
 80073f0:	60f9      	str	r1, [r7, #12]
 80073f2:	7812      	ldrb	r2, [r2, #0]
 80073f4:	701a      	strb	r2, [r3, #0]
    n++;
 80073f6:	697b      	ldr	r3, [r7, #20]
 80073f8:	3301      	adds	r3, #1
 80073fa:	617b      	str	r3, [r7, #20]
  while (n < Len) {
 80073fc:	697a      	ldr	r2, [r7, #20]
 80073fe:	693b      	ldr	r3, [r7, #16]
 8007400:	429a      	cmp	r2, r3
 8007402:	d3f0      	bcc.n	80073e6 <_EncodeStr+0x6e>
  }
  return pPayload;
 8007404:	68fb      	ldr	r3, [r7, #12]
}
 8007406:	4618      	mov	r0, r3
 8007408:	371c      	adds	r7, #28
 800740a:	46bd      	mov	sp, r7
 800740c:	bc80      	pop	{r7}
 800740e:	4770      	bx	lr

08007410 <_PreparePacket>:
*  Additional information
*    The payload length and evnetId are not initialized.
*    PreparePacket only reserves space for them and they are
*    computed and filled in by the sending function.
*/
static U8* _PreparePacket(U8* pPacket) {
 8007410:	b480      	push	{r7}
 8007412:	b083      	sub	sp, #12
 8007414:	af00      	add	r7, sp, #0
 8007416:	6078      	str	r0, [r7, #4]
  return pPacket + 4;
 8007418:	687b      	ldr	r3, [r7, #4]
 800741a:	3304      	adds	r3, #4
}
 800741c:	4618      	mov	r0, r3
 800741e:	370c      	adds	r7, #12
 8007420:	46bd      	mov	sp, r7
 8007422:	bc80      	pop	{r7}
 8007424:	4770      	bx	lr
	...

08007428 <_HandleIncomingPacket>:
*    This function is called each time after sending a packet.
*    Processing incoming packets is done asynchronous. SystemView might
*    already have sent event packets after the host has sent a command.
*/
#if (SEGGER_SYSVIEW_POST_MORTEM_MODE != 1)
static void _HandleIncomingPacket(void) {
 8007428:	b580      	push	{r7, lr}
 800742a:	b082      	sub	sp, #8
 800742c:	af00      	add	r7, sp, #0
  U8  Cmd;
  int Status;
  //
  Status = SEGGER_RTT_ReadNoLock(CHANNEL_ID_DOWN, &Cmd, 1);
 800742e:	4b33      	ldr	r3, [pc, #204]	; (80074fc <_HandleIncomingPacket+0xd4>)
 8007430:	7e1b      	ldrb	r3, [r3, #24]
 8007432:	4618      	mov	r0, r3
 8007434:	1cfb      	adds	r3, r7, #3
 8007436:	2201      	movs	r2, #1
 8007438:	4619      	mov	r1, r3
 800743a:	f7ff fe27 	bl	800708c <SEGGER_RTT_ReadNoLock>
 800743e:	4603      	mov	r3, r0
 8007440:	607b      	str	r3, [r7, #4]
  if (Status > 0) {
 8007442:	687b      	ldr	r3, [r7, #4]
 8007444:	2b00      	cmp	r3, #0
 8007446:	dd4d      	ble.n	80074e4 <_HandleIncomingPacket+0xbc>
    switch (Cmd) {
 8007448:	78fb      	ldrb	r3, [r7, #3]
 800744a:	2b05      	cmp	r3, #5
 800744c:	d022      	beq.n	8007494 <_HandleIncomingPacket+0x6c>
 800744e:	2b05      	cmp	r3, #5
 8007450:	dc0b      	bgt.n	800746a <_HandleIncomingPacket+0x42>
 8007452:	2b02      	cmp	r3, #2
 8007454:	d015      	beq.n	8007482 <_HandleIncomingPacket+0x5a>
 8007456:	2b02      	cmp	r3, #2
 8007458:	dc02      	bgt.n	8007460 <_HandleIncomingPacket+0x38>
 800745a:	2b01      	cmp	r3, #1
 800745c:	d00e      	beq.n	800747c <_HandleIncomingPacket+0x54>
 800745e:	e034      	b.n	80074ca <_HandleIncomingPacket+0xa2>
 8007460:	2b03      	cmp	r3, #3
 8007462:	d011      	beq.n	8007488 <_HandleIncomingPacket+0x60>
 8007464:	2b04      	cmp	r3, #4
 8007466:	d012      	beq.n	800748e <_HandleIncomingPacket+0x66>
 8007468:	e02f      	b.n	80074ca <_HandleIncomingPacket+0xa2>
 800746a:	2b07      	cmp	r3, #7
 800746c:	d018      	beq.n	80074a0 <_HandleIncomingPacket+0x78>
 800746e:	2b07      	cmp	r3, #7
 8007470:	db13      	blt.n	800749a <_HandleIncomingPacket+0x72>
 8007472:	2b7f      	cmp	r3, #127	; 0x7f
 8007474:	d038      	beq.n	80074e8 <_HandleIncomingPacket+0xc0>
 8007476:	2b80      	cmp	r3, #128	; 0x80
 8007478:	d015      	beq.n	80074a6 <_HandleIncomingPacket+0x7e>
 800747a:	e026      	b.n	80074ca <_HandleIncomingPacket+0xa2>
    case SEGGER_SYSVIEW_COMMAND_ID_START:
      SEGGER_SYSVIEW_Start();
 800747c:	f000 fb14 	bl	8007aa8 <SEGGER_SYSVIEW_Start>
      break;
 8007480:	e037      	b.n	80074f2 <_HandleIncomingPacket+0xca>
    case SEGGER_SYSVIEW_COMMAND_ID_STOP:
      SEGGER_SYSVIEW_Stop();
 8007482:	f000 fbcb 	bl	8007c1c <SEGGER_SYSVIEW_Stop>
      break;
 8007486:	e034      	b.n	80074f2 <_HandleIncomingPacket+0xca>
    case SEGGER_SYSVIEW_COMMAND_ID_GET_SYSTIME:
      SEGGER_SYSVIEW_RecordSystime();
 8007488:	f000 fda4 	bl	8007fd4 <SEGGER_SYSVIEW_RecordSystime>
      break;
 800748c:	e031      	b.n	80074f2 <_HandleIncomingPacket+0xca>
    case SEGGER_SYSVIEW_COMMAND_ID_GET_TASKLIST:
      SEGGER_SYSVIEW_SendTaskList();
 800748e:	f000 fd69 	bl	8007f64 <SEGGER_SYSVIEW_SendTaskList>
      break;
 8007492:	e02e      	b.n	80074f2 <_HandleIncomingPacket+0xca>
    case SEGGER_SYSVIEW_COMMAND_ID_GET_SYSDESC:
      SEGGER_SYSVIEW_GetSysDesc();
 8007494:	f000 fbe8 	bl	8007c68 <SEGGER_SYSVIEW_GetSysDesc>
      break;
 8007498:	e02b      	b.n	80074f2 <_HandleIncomingPacket+0xca>
    case SEGGER_SYSVIEW_COMMAND_ID_GET_NUMMODULES:
      SEGGER_SYSVIEW_SendNumModules();
 800749a:	f001 f835 	bl	8008508 <SEGGER_SYSVIEW_SendNumModules>
      break;
 800749e:	e028      	b.n	80074f2 <_HandleIncomingPacket+0xca>
    case SEGGER_SYSVIEW_COMMAND_ID_GET_MODULEDESC:
      SEGGER_SYSVIEW_SendModuleDescription();
 80074a0:	f001 f814 	bl	80084cc <SEGGER_SYSVIEW_SendModuleDescription>
      break;
 80074a4:	e025      	b.n	80074f2 <_HandleIncomingPacket+0xca>
    case SEGGER_SYSVIEW_COMMAND_ID_GET_MODULE:
      Status = SEGGER_RTT_ReadNoLock(CHANNEL_ID_DOWN, &Cmd, 1);
 80074a6:	4b15      	ldr	r3, [pc, #84]	; (80074fc <_HandleIncomingPacket+0xd4>)
 80074a8:	7e1b      	ldrb	r3, [r3, #24]
 80074aa:	4618      	mov	r0, r3
 80074ac:	1cfb      	adds	r3, r7, #3
 80074ae:	2201      	movs	r2, #1
 80074b0:	4619      	mov	r1, r3
 80074b2:	f7ff fdeb 	bl	800708c <SEGGER_RTT_ReadNoLock>
 80074b6:	4603      	mov	r3, r0
 80074b8:	607b      	str	r3, [r7, #4]
      if (Status > 0) {
 80074ba:	687b      	ldr	r3, [r7, #4]
 80074bc:	2b00      	cmp	r3, #0
 80074be:	dd15      	ble.n	80074ec <_HandleIncomingPacket+0xc4>
        SEGGER_SYSVIEW_SendModule(Cmd);
 80074c0:	78fb      	ldrb	r3, [r7, #3]
 80074c2:	4618      	mov	r0, r3
 80074c4:	f000 ff82 	bl	80083cc <SEGGER_SYSVIEW_SendModule>
      }
      break;
 80074c8:	e010      	b.n	80074ec <_HandleIncomingPacket+0xc4>
    case SEGGER_SYSVIEW_COMMAND_ID_HEARTBEAT:
      break;
    default:
      if (Cmd >= 128) { // Unknown extended command. Dummy read its parameter.
 80074ca:	78fb      	ldrb	r3, [r7, #3]
 80074cc:	b25b      	sxtb	r3, r3
 80074ce:	2b00      	cmp	r3, #0
 80074d0:	da0e      	bge.n	80074f0 <_HandleIncomingPacket+0xc8>
        SEGGER_RTT_ReadNoLock(CHANNEL_ID_DOWN, &Cmd, 1);
 80074d2:	4b0a      	ldr	r3, [pc, #40]	; (80074fc <_HandleIncomingPacket+0xd4>)
 80074d4:	7e1b      	ldrb	r3, [r3, #24]
 80074d6:	4618      	mov	r0, r3
 80074d8:	1cfb      	adds	r3, r7, #3
 80074da:	2201      	movs	r2, #1
 80074dc:	4619      	mov	r1, r3
 80074de:	f7ff fdd5 	bl	800708c <SEGGER_RTT_ReadNoLock>
      }
      break;
 80074e2:	e005      	b.n	80074f0 <_HandleIncomingPacket+0xc8>
    }
  }
 80074e4:	bf00      	nop
 80074e6:	e004      	b.n	80074f2 <_HandleIncomingPacket+0xca>
      break;
 80074e8:	bf00      	nop
 80074ea:	e002      	b.n	80074f2 <_HandleIncomingPacket+0xca>
      break;
 80074ec:	bf00      	nop
 80074ee:	e000      	b.n	80074f2 <_HandleIncomingPacket+0xca>
      break;
 80074f0:	bf00      	nop
}
 80074f2:	bf00      	nop
 80074f4:	3708      	adds	r7, #8
 80074f6:	46bd      	mov	sp, r7
 80074f8:	bd80      	pop	{r7, pc}
 80074fa:	bf00      	nop
 80074fc:	20004310 	.word	0x20004310

08007500 <_TrySendOverflowPacket>:
*    !=0:  Success, Message sent (stored in RTT-Buffer)
*    ==0:  Buffer full, Message *NOT* stored
*
*/
#if (SEGGER_SYSVIEW_POST_MORTEM_MODE != 1)
static int _TrySendOverflowPacket(void) {
 8007500:	b580      	push	{r7, lr}
 8007502:	b08c      	sub	sp, #48	; 0x30
 8007504:	af00      	add	r7, sp, #0
  I32 Delta;
  int Status;
  U8  aPacket[11];
  U8* pPayload;

  aPacket[0] = SYSVIEW_EVTID_OVERFLOW;      // 1
 8007506:	2301      	movs	r3, #1
 8007508:	713b      	strb	r3, [r7, #4]
  pPayload   = &aPacket[1];
 800750a:	1d3b      	adds	r3, r7, #4
 800750c:	3301      	adds	r3, #1
 800750e:	61fb      	str	r3, [r7, #28]
  ENCODE_U32(pPayload, _SYSVIEW_Globals.DropCount);
 8007510:	69fb      	ldr	r3, [r7, #28]
 8007512:	62fb      	str	r3, [r7, #44]	; 0x2c
 8007514:	4b31      	ldr	r3, [pc, #196]	; (80075dc <_TrySendOverflowPacket+0xdc>)
 8007516:	695b      	ldr	r3, [r3, #20]
 8007518:	62bb      	str	r3, [r7, #40]	; 0x28
 800751a:	e00b      	b.n	8007534 <_TrySendOverflowPacket+0x34>
 800751c:	6abb      	ldr	r3, [r7, #40]	; 0x28
 800751e:	b2da      	uxtb	r2, r3
 8007520:	6afb      	ldr	r3, [r7, #44]	; 0x2c
 8007522:	1c59      	adds	r1, r3, #1
 8007524:	62f9      	str	r1, [r7, #44]	; 0x2c
 8007526:	f062 027f 	orn	r2, r2, #127	; 0x7f
 800752a:	b2d2      	uxtb	r2, r2
 800752c:	701a      	strb	r2, [r3, #0]
 800752e:	6abb      	ldr	r3, [r7, #40]	; 0x28
 8007530:	09db      	lsrs	r3, r3, #7
 8007532:	62bb      	str	r3, [r7, #40]	; 0x28
 8007534:	6abb      	ldr	r3, [r7, #40]	; 0x28
 8007536:	2b7f      	cmp	r3, #127	; 0x7f
 8007538:	d8f0      	bhi.n	800751c <_TrySendOverflowPacket+0x1c>
 800753a:	6afb      	ldr	r3, [r7, #44]	; 0x2c
 800753c:	1c5a      	adds	r2, r3, #1
 800753e:	62fa      	str	r2, [r7, #44]	; 0x2c
 8007540:	6aba      	ldr	r2, [r7, #40]	; 0x28
 8007542:	b2d2      	uxtb	r2, r2
 8007544:	701a      	strb	r2, [r3, #0]
 8007546:	6afb      	ldr	r3, [r7, #44]	; 0x2c
 8007548:	61fb      	str	r3, [r7, #28]
  //
  // Compute time stamp delta and append it to packet.
  //
  TimeStamp  = SEGGER_SYSVIEW_GET_TIMESTAMP();
 800754a:	4b25      	ldr	r3, [pc, #148]	; (80075e0 <_TrySendOverflowPacket+0xe0>)
 800754c:	681b      	ldr	r3, [r3, #0]
 800754e:	61bb      	str	r3, [r7, #24]
  Delta = TimeStamp - _SYSVIEW_Globals.LastTxTimeStamp;
 8007550:	4b22      	ldr	r3, [pc, #136]	; (80075dc <_TrySendOverflowPacket+0xdc>)
 8007552:	68db      	ldr	r3, [r3, #12]
 8007554:	69ba      	ldr	r2, [r7, #24]
 8007556:	1ad3      	subs	r3, r2, r3
 8007558:	617b      	str	r3, [r7, #20]
  MAKE_DELTA_32BIT(Delta);
  ENCODE_U32(pPayload, Delta);
 800755a:	69fb      	ldr	r3, [r7, #28]
 800755c:	627b      	str	r3, [r7, #36]	; 0x24
 800755e:	697b      	ldr	r3, [r7, #20]
 8007560:	623b      	str	r3, [r7, #32]
 8007562:	e00b      	b.n	800757c <_TrySendOverflowPacket+0x7c>
 8007564:	6a3b      	ldr	r3, [r7, #32]
 8007566:	b2da      	uxtb	r2, r3
 8007568:	6a7b      	ldr	r3, [r7, #36]	; 0x24
 800756a:	1c59      	adds	r1, r3, #1
 800756c:	6279      	str	r1, [r7, #36]	; 0x24
 800756e:	f062 027f 	orn	r2, r2, #127	; 0x7f
 8007572:	b2d2      	uxtb	r2, r2
 8007574:	701a      	strb	r2, [r3, #0]
 8007576:	6a3b      	ldr	r3, [r7, #32]
 8007578:	09db      	lsrs	r3, r3, #7
 800757a:	623b      	str	r3, [r7, #32]
 800757c:	6a3b      	ldr	r3, [r7, #32]
 800757e:	2b7f      	cmp	r3, #127	; 0x7f
 8007580:	d8f0      	bhi.n	8007564 <_TrySendOverflowPacket+0x64>
 8007582:	6a7b      	ldr	r3, [r7, #36]	; 0x24
 8007584:	1c5a      	adds	r2, r3, #1
 8007586:	627a      	str	r2, [r7, #36]	; 0x24
 8007588:	6a3a      	ldr	r2, [r7, #32]
 800758a:	b2d2      	uxtb	r2, r2
 800758c:	701a      	strb	r2, [r3, #0]
 800758e:	6a7b      	ldr	r3, [r7, #36]	; 0x24
 8007590:	61fb      	str	r3, [r7, #28]
  //
  // Try to store packet in RTT buffer and update time stamp when this was successful
  //
  Status = SEGGER_RTT_WriteSkipNoLock(CHANNEL_ID_UP, aPacket, pPayload - aPacket);
 8007592:	4b12      	ldr	r3, [pc, #72]	; (80075dc <_TrySendOverflowPacket+0xdc>)
 8007594:	785b      	ldrb	r3, [r3, #1]
 8007596:	4618      	mov	r0, r3
 8007598:	69fa      	ldr	r2, [r7, #28]
 800759a:	1d3b      	adds	r3, r7, #4
 800759c:	1ad3      	subs	r3, r2, r3
 800759e:	461a      	mov	r2, r3
 80075a0:	1d3b      	adds	r3, r7, #4
 80075a2:	4619      	mov	r1, r3
 80075a4:	f7f8 fdd4 	bl	8000150 <SEGGER_RTT_ASM_WriteSkipNoLock>
 80075a8:	4603      	mov	r3, r0
 80075aa:	613b      	str	r3, [r7, #16]
  SEGGER_SYSVIEW_ON_EVENT_RECORDED(pPayload - aPacket);
  if (Status) {
 80075ac:	693b      	ldr	r3, [r7, #16]
 80075ae:	2b00      	cmp	r3, #0
 80075b0:	d009      	beq.n	80075c6 <_TrySendOverflowPacket+0xc6>
    _SYSVIEW_Globals.LastTxTimeStamp = TimeStamp;
 80075b2:	4a0a      	ldr	r2, [pc, #40]	; (80075dc <_TrySendOverflowPacket+0xdc>)
 80075b4:	69bb      	ldr	r3, [r7, #24]
 80075b6:	60d3      	str	r3, [r2, #12]
    _SYSVIEW_Globals.EnableState--; // EnableState has been 2, will be 1. Always.
 80075b8:	4b08      	ldr	r3, [pc, #32]	; (80075dc <_TrySendOverflowPacket+0xdc>)
 80075ba:	781b      	ldrb	r3, [r3, #0]
 80075bc:	3b01      	subs	r3, #1
 80075be:	b2da      	uxtb	r2, r3
 80075c0:	4b06      	ldr	r3, [pc, #24]	; (80075dc <_TrySendOverflowPacket+0xdc>)
 80075c2:	701a      	strb	r2, [r3, #0]
 80075c4:	e004      	b.n	80075d0 <_TrySendOverflowPacket+0xd0>
  } else {
    _SYSVIEW_Globals.DropCount++;
 80075c6:	4b05      	ldr	r3, [pc, #20]	; (80075dc <_TrySendOverflowPacket+0xdc>)
 80075c8:	695b      	ldr	r3, [r3, #20]
 80075ca:	3301      	adds	r3, #1
 80075cc:	4a03      	ldr	r2, [pc, #12]	; (80075dc <_TrySendOverflowPacket+0xdc>)
 80075ce:	6153      	str	r3, [r2, #20]
  }
  //
  return Status;
 80075d0:	693b      	ldr	r3, [r7, #16]
}
 80075d2:	4618      	mov	r0, r3
 80075d4:	3730      	adds	r7, #48	; 0x30
 80075d6:	46bd      	mov	sp, r7
 80075d8:	bd80      	pop	{r7, pc}
 80075da:	bf00      	nop
 80075dc:	20004310 	.word	0x20004310
 80075e0:	e0001004 	.word	0xe0001004

080075e4 <_SendPacket>:
*                   There must be at least 4 bytes free to prepend Id and Length.
*    pEndPacket   - Pointer to end of packet payload.
*    EventId      - Id of the event to send.
*
*/
static void _SendPacket(U8* pStartPacket, U8* pEndPacket, unsigned int EventId) {
 80075e4:	b580      	push	{r7, lr}
 80075e6:	b08a      	sub	sp, #40	; 0x28
 80075e8:	af00      	add	r7, sp, #0
 80075ea:	60f8      	str	r0, [r7, #12]
 80075ec:	60b9      	str	r1, [r7, #8]
 80075ee:	607a      	str	r2, [r7, #4]
#if (SEGGER_SYSVIEW_POST_MORTEM_MODE == 1)
  if (_SYSVIEW_Globals.EnableState == 0) {
    goto SendDone;
  }
#else
  if (_SYSVIEW_Globals.EnableState == 1) {  // Enabled, no dropped packets remaining
 80075f0:	4b6c      	ldr	r3, [pc, #432]	; (80077a4 <_SendPacket+0x1c0>)
 80075f2:	781b      	ldrb	r3, [r3, #0]
 80075f4:	2b01      	cmp	r3, #1
 80075f6:	d010      	beq.n	800761a <_SendPacket+0x36>
    goto Send;
  }
  if (_SYSVIEW_Globals.EnableState == 0) {
 80075f8:	4b6a      	ldr	r3, [pc, #424]	; (80077a4 <_SendPacket+0x1c0>)
 80075fa:	781b      	ldrb	r3, [r3, #0]
 80075fc:	2b00      	cmp	r3, #0
 80075fe:	f000 80a3 	beq.w	8007748 <_SendPacket+0x164>
  //
  // Handle buffer full situations:
  // Have packets been dropped before because buffer was full?
  // In this case try to send and overflow packet.
  //
  if (_SYSVIEW_Globals.EnableState == 2) {
 8007602:	4b68      	ldr	r3, [pc, #416]	; (80077a4 <_SendPacket+0x1c0>)
 8007604:	781b      	ldrb	r3, [r3, #0]
 8007606:	2b02      	cmp	r3, #2
 8007608:	d109      	bne.n	800761e <_SendPacket+0x3a>
    _TrySendOverflowPacket();
 800760a:	f7ff ff79 	bl	8007500 <_TrySendOverflowPacket>
    if (_SYSVIEW_Globals.EnableState != 1) {
 800760e:	4b65      	ldr	r3, [pc, #404]	; (80077a4 <_SendPacket+0x1c0>)
 8007610:	781b      	ldrb	r3, [r3, #0]
 8007612:	2b01      	cmp	r3, #1
 8007614:	f040 809a 	bne.w	800774c <_SendPacket+0x168>
      goto SendDone;
    }
  }
Send:
 8007618:	e001      	b.n	800761e <_SendPacket+0x3a>
    goto Send;
 800761a:	bf00      	nop
 800761c:	e000      	b.n	8007620 <_SendPacket+0x3c>
Send:
 800761e:	bf00      	nop
#endif
  //
  // Check if event is disabled from being recorded.
  //
  if (EventId < 32) {
 8007620:	687b      	ldr	r3, [r7, #4]
 8007622:	2b1f      	cmp	r3, #31
 8007624:	d809      	bhi.n	800763a <_SendPacket+0x56>
    if (_SYSVIEW_Globals.DisabledEvents & ((U32)1u << EventId)) {
 8007626:	4b5f      	ldr	r3, [pc, #380]	; (80077a4 <_SendPacket+0x1c0>)
 8007628:	69da      	ldr	r2, [r3, #28]
 800762a:	687b      	ldr	r3, [r7, #4]
 800762c:	fa22 f303 	lsr.w	r3, r2, r3
 8007630:	f003 0301 	and.w	r3, r3, #1
 8007634:	2b00      	cmp	r3, #0
 8007636:	f040 808b 	bne.w	8007750 <_SendPacket+0x16c>
  //
  // Prepare actual packet.
  // If it is a known packet, prepend eventId only,
  // otherwise prepend packet length and eventId.
  //
  if (EventId < 24) {
 800763a:	687b      	ldr	r3, [r7, #4]
 800763c:	2b17      	cmp	r3, #23
 800763e:	d807      	bhi.n	8007650 <_SendPacket+0x6c>
    *--pStartPacket = EventId;
 8007640:	68fb      	ldr	r3, [r7, #12]
 8007642:	3b01      	subs	r3, #1
 8007644:	60fb      	str	r3, [r7, #12]
 8007646:	687b      	ldr	r3, [r7, #4]
 8007648:	b2da      	uxtb	r2, r3
 800764a:	68fb      	ldr	r3, [r7, #12]
 800764c:	701a      	strb	r2, [r3, #0]
 800764e:	e03d      	b.n	80076cc <_SendPacket+0xe8>
  } else {
    NumBytes = pEndPacket - pStartPacket;
 8007650:	68ba      	ldr	r2, [r7, #8]
 8007652:	68fb      	ldr	r3, [r7, #12]
 8007654:	1ad3      	subs	r3, r2, r3
 8007656:	61fb      	str	r3, [r7, #28]
    if (NumBytes > 127) {
 8007658:	69fb      	ldr	r3, [r7, #28]
 800765a:	2b7f      	cmp	r3, #127	; 0x7f
 800765c:	d912      	bls.n	8007684 <_SendPacket+0xa0>
      *--pStartPacket = (NumBytes >> 7);
 800765e:	69fb      	ldr	r3, [r7, #28]
 8007660:	09da      	lsrs	r2, r3, #7
 8007662:	68fb      	ldr	r3, [r7, #12]
 8007664:	3b01      	subs	r3, #1
 8007666:	60fb      	str	r3, [r7, #12]
 8007668:	b2d2      	uxtb	r2, r2
 800766a:	68fb      	ldr	r3, [r7, #12]
 800766c:	701a      	strb	r2, [r3, #0]
      *--pStartPacket = NumBytes | 0x80;
 800766e:	69fb      	ldr	r3, [r7, #28]
 8007670:	b2db      	uxtb	r3, r3
 8007672:	68fa      	ldr	r2, [r7, #12]
 8007674:	3a01      	subs	r2, #1
 8007676:	60fa      	str	r2, [r7, #12]
 8007678:	f063 037f 	orn	r3, r3, #127	; 0x7f
 800767c:	b2da      	uxtb	r2, r3
 800767e:	68fb      	ldr	r3, [r7, #12]
 8007680:	701a      	strb	r2, [r3, #0]
 8007682:	e006      	b.n	8007692 <_SendPacket+0xae>
    } else {
      *--pStartPacket = NumBytes;
 8007684:	68fb      	ldr	r3, [r7, #12]
 8007686:	3b01      	subs	r3, #1
 8007688:	60fb      	str	r3, [r7, #12]
 800768a:	69fb      	ldr	r3, [r7, #28]
 800768c:	b2da      	uxtb	r2, r3
 800768e:	68fb      	ldr	r3, [r7, #12]
 8007690:	701a      	strb	r2, [r3, #0]
    }
    if (EventId > 127) {
 8007692:	687b      	ldr	r3, [r7, #4]
 8007694:	2b7f      	cmp	r3, #127	; 0x7f
 8007696:	d912      	bls.n	80076be <_SendPacket+0xda>
      *--pStartPacket = (EventId >> 7);
 8007698:	687b      	ldr	r3, [r7, #4]
 800769a:	09da      	lsrs	r2, r3, #7
 800769c:	68fb      	ldr	r3, [r7, #12]
 800769e:	3b01      	subs	r3, #1
 80076a0:	60fb      	str	r3, [r7, #12]
 80076a2:	b2d2      	uxtb	r2, r2
 80076a4:	68fb      	ldr	r3, [r7, #12]
 80076a6:	701a      	strb	r2, [r3, #0]
      *--pStartPacket = EventId | 0x80;
 80076a8:	687b      	ldr	r3, [r7, #4]
 80076aa:	b2db      	uxtb	r3, r3
 80076ac:	68fa      	ldr	r2, [r7, #12]
 80076ae:	3a01      	subs	r2, #1
 80076b0:	60fa      	str	r2, [r7, #12]
 80076b2:	f063 037f 	orn	r3, r3, #127	; 0x7f
 80076b6:	b2da      	uxtb	r2, r3
 80076b8:	68fb      	ldr	r3, [r7, #12]
 80076ba:	701a      	strb	r2, [r3, #0]
 80076bc:	e006      	b.n	80076cc <_SendPacket+0xe8>
    } else {
      *--pStartPacket = EventId;
 80076be:	68fb      	ldr	r3, [r7, #12]
 80076c0:	3b01      	subs	r3, #1
 80076c2:	60fb      	str	r3, [r7, #12]
 80076c4:	687b      	ldr	r3, [r7, #4]
 80076c6:	b2da      	uxtb	r2, r3
 80076c8:	68fb      	ldr	r3, [r7, #12]
 80076ca:	701a      	strb	r2, [r3, #0]
    }
  }
  //
  // Compute time stamp delta and append it to packet.
  //
  TimeStamp  = SEGGER_SYSVIEW_GET_TIMESTAMP();
 80076cc:	4b36      	ldr	r3, [pc, #216]	; (80077a8 <_SendPacket+0x1c4>)
 80076ce:	681b      	ldr	r3, [r3, #0]
 80076d0:	61bb      	str	r3, [r7, #24]
  Delta = TimeStamp - _SYSVIEW_Globals.LastTxTimeStamp;
 80076d2:	4b34      	ldr	r3, [pc, #208]	; (80077a4 <_SendPacket+0x1c0>)
 80076d4:	68db      	ldr	r3, [r3, #12]
 80076d6:	69ba      	ldr	r2, [r7, #24]
 80076d8:	1ad3      	subs	r3, r2, r3
 80076da:	617b      	str	r3, [r7, #20]
  MAKE_DELTA_32BIT(Delta);
  ENCODE_U32(pEndPacket, Delta);
 80076dc:	68bb      	ldr	r3, [r7, #8]
 80076de:	627b      	str	r3, [r7, #36]	; 0x24
 80076e0:	697b      	ldr	r3, [r7, #20]
 80076e2:	623b      	str	r3, [r7, #32]
 80076e4:	e00b      	b.n	80076fe <_SendPacket+0x11a>
 80076e6:	6a3b      	ldr	r3, [r7, #32]
 80076e8:	b2da      	uxtb	r2, r3
 80076ea:	6a7b      	ldr	r3, [r7, #36]	; 0x24
 80076ec:	1c59      	adds	r1, r3, #1
 80076ee:	6279      	str	r1, [r7, #36]	; 0x24
 80076f0:	f062 027f 	orn	r2, r2, #127	; 0x7f
 80076f4:	b2d2      	uxtb	r2, r2
 80076f6:	701a      	strb	r2, [r3, #0]
 80076f8:	6a3b      	ldr	r3, [r7, #32]
 80076fa:	09db      	lsrs	r3, r3, #7
 80076fc:	623b      	str	r3, [r7, #32]
 80076fe:	6a3b      	ldr	r3, [r7, #32]
 8007700:	2b7f      	cmp	r3, #127	; 0x7f
 8007702:	d8f0      	bhi.n	80076e6 <_SendPacket+0x102>
 8007704:	6a7b      	ldr	r3, [r7, #36]	; 0x24
 8007706:	1c5a      	adds	r2, r3, #1
 8007708:	627a      	str	r2, [r7, #36]	; 0x24
 800770a:	6a3a      	ldr	r2, [r7, #32]
 800770c:	b2d2      	uxtb	r2, r2
 800770e:	701a      	strb	r2, [r3, #0]
 8007710:	6a7b      	ldr	r3, [r7, #36]	; 0x24
 8007712:	60bb      	str	r3, [r7, #8]
  _SYSVIEW_Globals.LastTxTimeStamp = TimeStamp;
#else
  //
  // Try to store packet in RTT buffer and update time stamp when this was successful
  //
  Status = SEGGER_RTT_WriteSkipNoLock(CHANNEL_ID_UP, pStartPacket, pEndPacket - pStartPacket);
 8007714:	4b23      	ldr	r3, [pc, #140]	; (80077a4 <_SendPacket+0x1c0>)
 8007716:	785b      	ldrb	r3, [r3, #1]
 8007718:	4618      	mov	r0, r3
 800771a:	68ba      	ldr	r2, [r7, #8]
 800771c:	68fb      	ldr	r3, [r7, #12]
 800771e:	1ad3      	subs	r3, r2, r3
 8007720:	461a      	mov	r2, r3
 8007722:	68f9      	ldr	r1, [r7, #12]
 8007724:	f7f8 fd14 	bl	8000150 <SEGGER_RTT_ASM_WriteSkipNoLock>
 8007728:	4603      	mov	r3, r0
 800772a:	613b      	str	r3, [r7, #16]
  SEGGER_SYSVIEW_ON_EVENT_RECORDED(pEndPacket - pStartPacket);
  if (Status) {
 800772c:	693b      	ldr	r3, [r7, #16]
 800772e:	2b00      	cmp	r3, #0
 8007730:	d003      	beq.n	800773a <_SendPacket+0x156>
    _SYSVIEW_Globals.LastTxTimeStamp = TimeStamp;
 8007732:	4a1c      	ldr	r2, [pc, #112]	; (80077a4 <_SendPacket+0x1c0>)
 8007734:	69bb      	ldr	r3, [r7, #24]
 8007736:	60d3      	str	r3, [r2, #12]
 8007738:	e00b      	b.n	8007752 <_SendPacket+0x16e>
  } else {
    _SYSVIEW_Globals.EnableState++; // EnableState has been 1, will be 2. Always.
 800773a:	4b1a      	ldr	r3, [pc, #104]	; (80077a4 <_SendPacket+0x1c0>)
 800773c:	781b      	ldrb	r3, [r3, #0]
 800773e:	3301      	adds	r3, #1
 8007740:	b2da      	uxtb	r2, r3
 8007742:	4b18      	ldr	r3, [pc, #96]	; (80077a4 <_SendPacket+0x1c0>)
 8007744:	701a      	strb	r2, [r3, #0]
 8007746:	e004      	b.n	8007752 <_SendPacket+0x16e>
    goto SendDone;
 8007748:	bf00      	nop
 800774a:	e002      	b.n	8007752 <_SendPacket+0x16e>
      goto SendDone;
 800774c:	bf00      	nop
 800774e:	e000      	b.n	8007752 <_SendPacket+0x16e>
      goto SendDone;
 8007750:	bf00      	nop
  //
  // Check if host is sending data which needs to be processed.
  // Note that since this code is called for every packet, it is very time critical, so we do
  // only what is really needed here, which is checking if there is any data
  //
  if (SEGGER_RTT_HASDATA(CHANNEL_ID_DOWN)) {
 8007752:	4b14      	ldr	r3, [pc, #80]	; (80077a4 <_SendPacket+0x1c0>)
 8007754:	7e1b      	ldrb	r3, [r3, #24]
 8007756:	4619      	mov	r1, r3
 8007758:	4a14      	ldr	r2, [pc, #80]	; (80077ac <_SendPacket+0x1c8>)
 800775a:	460b      	mov	r3, r1
 800775c:	005b      	lsls	r3, r3, #1
 800775e:	440b      	add	r3, r1
 8007760:	00db      	lsls	r3, r3, #3
 8007762:	4413      	add	r3, r2
 8007764:	336c      	adds	r3, #108	; 0x6c
 8007766:	681a      	ldr	r2, [r3, #0]
 8007768:	4b0e      	ldr	r3, [pc, #56]	; (80077a4 <_SendPacket+0x1c0>)
 800776a:	7e1b      	ldrb	r3, [r3, #24]
 800776c:	4618      	mov	r0, r3
 800776e:	490f      	ldr	r1, [pc, #60]	; (80077ac <_SendPacket+0x1c8>)
 8007770:	4603      	mov	r3, r0
 8007772:	005b      	lsls	r3, r3, #1
 8007774:	4403      	add	r3, r0
 8007776:	00db      	lsls	r3, r3, #3
 8007778:	440b      	add	r3, r1
 800777a:	3370      	adds	r3, #112	; 0x70
 800777c:	681b      	ldr	r3, [r3, #0]
 800777e:	429a      	cmp	r2, r3
 8007780:	d00b      	beq.n	800779a <_SendPacket+0x1b6>
    if (_SYSVIEW_Globals.RecursionCnt == 0) {   // Avoid uncontrolled nesting. This way, this routine can call itself once, but no more often than that.
 8007782:	4b08      	ldr	r3, [pc, #32]	; (80077a4 <_SendPacket+0x1c0>)
 8007784:	789b      	ldrb	r3, [r3, #2]
 8007786:	2b00      	cmp	r3, #0
 8007788:	d107      	bne.n	800779a <_SendPacket+0x1b6>
      _SYSVIEW_Globals.RecursionCnt = 1;
 800778a:	4b06      	ldr	r3, [pc, #24]	; (80077a4 <_SendPacket+0x1c0>)
 800778c:	2201      	movs	r2, #1
 800778e:	709a      	strb	r2, [r3, #2]
      _HandleIncomingPacket();
 8007790:	f7ff fe4a 	bl	8007428 <_HandleIncomingPacket>
      _SYSVIEW_Globals.RecursionCnt = 0;
 8007794:	4b03      	ldr	r3, [pc, #12]	; (80077a4 <_SendPacket+0x1c0>)
 8007796:	2200      	movs	r2, #0
 8007798:	709a      	strb	r2, [r3, #2]
#endif
  //
#if (SEGGER_SYSVIEW_USE_STATIC_BUFFER == 0)
  SEGGER_SYSVIEW_UNLOCK();  // We are done. Unlock and return
#endif
}
 800779a:	bf00      	nop
 800779c:	3728      	adds	r7, #40	; 0x28
 800779e:	46bd      	mov	sp, r7
 80077a0:	bd80      	pop	{r7, pc}
 80077a2:	bf00      	nop
 80077a4:	20004310 	.word	0x20004310
 80077a8:	e0001004 	.word	0xe0001004
 80077ac:	200046dc 	.word	0x200046dc

080077b0 <SEGGER_SYSVIEW_Init>:
*    The channel is assigned the label "SysView" for client software 
*    to identify the SystemView channel.
*
*    The channel is configured with the macro SEGGER_SYSVIEW_RTT_CHANNEL.
*/
void SEGGER_SYSVIEW_Init(U32 SysFreq, U32 CPUFreq, const SEGGER_SYSVIEW_OS_API *pOSAPI, SEGGER_SYSVIEW_SEND_SYS_DESC_FUNC pfSendSysDesc) {
 80077b0:	b580      	push	{r7, lr}
 80077b2:	b086      	sub	sp, #24
 80077b4:	af02      	add	r7, sp, #8
 80077b6:	60f8      	str	r0, [r7, #12]
 80077b8:	60b9      	str	r1, [r7, #8]
 80077ba:	607a      	str	r2, [r7, #4]
 80077bc:	603b      	str	r3, [r7, #0]
#else // (SEGGER_SYSVIEW_POST_MORTEM_MODE == 1)
#if SEGGER_SYSVIEW_RTT_CHANNEL > 0
  SEGGER_RTT_ConfigUpBuffer   (SEGGER_SYSVIEW_RTT_CHANNEL, "SysView", &_UpBuffer[0],   sizeof(_UpBuffer),   SEGGER_RTT_MODE_NO_BLOCK_SKIP);
  SEGGER_RTT_ConfigDownBuffer (SEGGER_SYSVIEW_RTT_CHANNEL, "SysView", &_DownBuffer[0], sizeof(_DownBuffer), SEGGER_RTT_MODE_NO_BLOCK_SKIP);
#else
  _SYSVIEW_Globals.UpChannel = SEGGER_RTT_AllocUpBuffer  ("SysView", &_UpBuffer[0],   sizeof(_UpBuffer),   SEGGER_RTT_MODE_NO_BLOCK_SKIP);
 80077be:	2300      	movs	r3, #0
 80077c0:	2280      	movs	r2, #128	; 0x80
 80077c2:	4918      	ldr	r1, [pc, #96]	; (8007824 <SEGGER_SYSVIEW_Init+0x74>)
 80077c4:	4818      	ldr	r0, [pc, #96]	; (8007828 <SEGGER_SYSVIEW_Init+0x78>)
 80077c6:	f7ff fce7 	bl	8007198 <SEGGER_RTT_AllocUpBuffer>
 80077ca:	4603      	mov	r3, r0
 80077cc:	b2da      	uxtb	r2, r3
 80077ce:	4b17      	ldr	r3, [pc, #92]	; (800782c <SEGGER_SYSVIEW_Init+0x7c>)
 80077d0:	705a      	strb	r2, [r3, #1]
  _SYSVIEW_Globals.DownChannel = _SYSVIEW_Globals.UpChannel;
 80077d2:	4b16      	ldr	r3, [pc, #88]	; (800782c <SEGGER_SYSVIEW_Init+0x7c>)
 80077d4:	785a      	ldrb	r2, [r3, #1]
 80077d6:	4b15      	ldr	r3, [pc, #84]	; (800782c <SEGGER_SYSVIEW_Init+0x7c>)
 80077d8:	761a      	strb	r2, [r3, #24]
  SEGGER_RTT_ConfigDownBuffer (_SYSVIEW_Globals.DownChannel, "SysView", &_DownBuffer[0], sizeof(_DownBuffer), SEGGER_RTT_MODE_NO_BLOCK_SKIP);
 80077da:	4b14      	ldr	r3, [pc, #80]	; (800782c <SEGGER_SYSVIEW_Init+0x7c>)
 80077dc:	7e1b      	ldrb	r3, [r3, #24]
 80077de:	4618      	mov	r0, r3
 80077e0:	2300      	movs	r3, #0
 80077e2:	9300      	str	r3, [sp, #0]
 80077e4:	2308      	movs	r3, #8
 80077e6:	4a12      	ldr	r2, [pc, #72]	; (8007830 <SEGGER_SYSVIEW_Init+0x80>)
 80077e8:	490f      	ldr	r1, [pc, #60]	; (8007828 <SEGGER_SYSVIEW_Init+0x78>)
 80077ea:	f7ff fd57 	bl	800729c <SEGGER_RTT_ConfigDownBuffer>
#endif
  _SYSVIEW_Globals.RAMBaseAddress   = SEGGER_SYSVIEW_ID_BASE;
 80077ee:	4b0f      	ldr	r3, [pc, #60]	; (800782c <SEGGER_SYSVIEW_Init+0x7c>)
 80077f0:	2200      	movs	r2, #0
 80077f2:	611a      	str	r2, [r3, #16]
  _SYSVIEW_Globals.LastTxTimeStamp  = SEGGER_SYSVIEW_GET_TIMESTAMP();
 80077f4:	4b0f      	ldr	r3, [pc, #60]	; (8007834 <SEGGER_SYSVIEW_Init+0x84>)
 80077f6:	681b      	ldr	r3, [r3, #0]
 80077f8:	4a0c      	ldr	r2, [pc, #48]	; (800782c <SEGGER_SYSVIEW_Init+0x7c>)
 80077fa:	60d3      	str	r3, [r2, #12]
  _SYSVIEW_Globals.pOSAPI           = pOSAPI;
 80077fc:	4a0b      	ldr	r2, [pc, #44]	; (800782c <SEGGER_SYSVIEW_Init+0x7c>)
 80077fe:	687b      	ldr	r3, [r7, #4]
 8007800:	6213      	str	r3, [r2, #32]
  _SYSVIEW_Globals.SysFreq          = SysFreq;
 8007802:	4a0a      	ldr	r2, [pc, #40]	; (800782c <SEGGER_SYSVIEW_Init+0x7c>)
 8007804:	68fb      	ldr	r3, [r7, #12]
 8007806:	6053      	str	r3, [r2, #4]
  _SYSVIEW_Globals.CPUFreq          = CPUFreq;
 8007808:	4a08      	ldr	r2, [pc, #32]	; (800782c <SEGGER_SYSVIEW_Init+0x7c>)
 800780a:	68bb      	ldr	r3, [r7, #8]
 800780c:	6093      	str	r3, [r2, #8]
  _SYSVIEW_Globals.pfSendSysDesc    = pfSendSysDesc;
 800780e:	4a07      	ldr	r2, [pc, #28]	; (800782c <SEGGER_SYSVIEW_Init+0x7c>)
 8007810:	683b      	ldr	r3, [r7, #0]
 8007812:	6253      	str	r3, [r2, #36]	; 0x24
  _SYSVIEW_Globals.EnableState      = 0;
 8007814:	4b05      	ldr	r3, [pc, #20]	; (800782c <SEGGER_SYSVIEW_Init+0x7c>)
 8007816:	2200      	movs	r2, #0
 8007818:	701a      	strb	r2, [r3, #0]
#endif  // (SEGGER_SYSVIEW_POST_MORTEM_MODE == 1)
}
 800781a:	bf00      	nop
 800781c:	3710      	adds	r7, #16
 800781e:	46bd      	mov	sp, r7
 8007820:	bd80      	pop	{r7, pc}
 8007822:	bf00      	nop
 8007824:	20004288 	.word	0x20004288
 8007828:	080087f4 	.word	0x080087f4
 800782c:	20004310 	.word	0x20004310
 8007830:	20004308 	.word	0x20004308
 8007834:	e0001004 	.word	0xe0001004

08007838 <SEGGER_SYSVIEW_SetRAMBase>:
*     to save bandwidth.
*
*  Parameters
*    RAMBaseAddress - Lowest RAM Address. (i.e. 0x20000000 on most Cortex-M)
*/
void SEGGER_SYSVIEW_SetRAMBase(U32 RAMBaseAddress) {
 8007838:	b480      	push	{r7}
 800783a:	b083      	sub	sp, #12
 800783c:	af00      	add	r7, sp, #0
 800783e:	6078      	str	r0, [r7, #4]
  _SYSVIEW_Globals.RAMBaseAddress = RAMBaseAddress;
 8007840:	4a03      	ldr	r2, [pc, #12]	; (8007850 <SEGGER_SYSVIEW_SetRAMBase+0x18>)
 8007842:	687b      	ldr	r3, [r7, #4]
 8007844:	6113      	str	r3, [r2, #16]
}
 8007846:	bf00      	nop
 8007848:	370c      	adds	r7, #12
 800784a:	46bd      	mov	sp, r7
 800784c:	bc80      	pop	{r7}
 800784e:	4770      	bx	lr
 8007850:	20004310 	.word	0x20004310

08007854 <SEGGER_SYSVIEW_RecordVoid>:
*    Formats and sends a SystemView packet with an empty payload.
*
*  Parameters
*    EventID - SystemView event ID.
*/
void SEGGER_SYSVIEW_RecordVoid(unsigned int EventID) {
 8007854:	b580      	push	{r7, lr}
 8007856:	b084      	sub	sp, #16
 8007858:	af00      	add	r7, sp, #0
 800785a:	6078      	str	r0, [r7, #4]
  U8* pPayloadStart;
  RECORD_START(SEGGER_SYSVIEW_INFO_SIZE);
 800785c:	f3ef 8311 	mrs	r3, BASEPRI
 8007860:	f04f 0120 	mov.w	r1, #32
 8007864:	f381 8811 	msr	BASEPRI, r1
 8007868:	60fb      	str	r3, [r7, #12]
 800786a:	4808      	ldr	r0, [pc, #32]	; (800788c <SEGGER_SYSVIEW_RecordVoid+0x38>)
 800786c:	f7ff fdd0 	bl	8007410 <_PreparePacket>
 8007870:	60b8      	str	r0, [r7, #8]
  //
  _SendPacket(pPayloadStart, pPayloadStart, EventID);
 8007872:	687a      	ldr	r2, [r7, #4]
 8007874:	68b9      	ldr	r1, [r7, #8]
 8007876:	68b8      	ldr	r0, [r7, #8]
 8007878:	f7ff feb4 	bl	80075e4 <_SendPacket>
  RECORD_END();
 800787c:	68fb      	ldr	r3, [r7, #12]
 800787e:	f383 8811 	msr	BASEPRI, r3
}
 8007882:	bf00      	nop
 8007884:	3710      	adds	r7, #16
 8007886:	46bd      	mov	sp, r7
 8007888:	bd80      	pop	{r7, pc}
 800788a:	bf00      	nop
 800788c:	20004340 	.word	0x20004340

08007890 <SEGGER_SYSVIEW_RecordU32>:
*
*  Parameters
*    EventID - SystemView event ID.
*    Value   - The 32-bit parameter encoded to SystemView packet payload.
*/
void SEGGER_SYSVIEW_RecordU32(unsigned int EventID, U32 Value) {
 8007890:	b580      	push	{r7, lr}
 8007892:	b088      	sub	sp, #32
 8007894:	af00      	add	r7, sp, #0
 8007896:	6078      	str	r0, [r7, #4]
 8007898:	6039      	str	r1, [r7, #0]
  U8* pPayload;
  U8* pPayloadStart;
  RECORD_START(SEGGER_SYSVIEW_INFO_SIZE + SEGGER_SYSVIEW_QUANTA_U32);
 800789a:	f3ef 8311 	mrs	r3, BASEPRI
 800789e:	f04f 0120 	mov.w	r1, #32
 80078a2:	f381 8811 	msr	BASEPRI, r1
 80078a6:	617b      	str	r3, [r7, #20]
 80078a8:	4816      	ldr	r0, [pc, #88]	; (8007904 <SEGGER_SYSVIEW_RecordU32+0x74>)
 80078aa:	f7ff fdb1 	bl	8007410 <_PreparePacket>
 80078ae:	6138      	str	r0, [r7, #16]
  //
  pPayload = pPayloadStart;
 80078b0:	693b      	ldr	r3, [r7, #16]
 80078b2:	60fb      	str	r3, [r7, #12]
  ENCODE_U32(pPayload, Value);
 80078b4:	68fb      	ldr	r3, [r7, #12]
 80078b6:	61fb      	str	r3, [r7, #28]
 80078b8:	683b      	ldr	r3, [r7, #0]
 80078ba:	61bb      	str	r3, [r7, #24]
 80078bc:	e00b      	b.n	80078d6 <SEGGER_SYSVIEW_RecordU32+0x46>
 80078be:	69bb      	ldr	r3, [r7, #24]
 80078c0:	b2da      	uxtb	r2, r3
 80078c2:	69fb      	ldr	r3, [r7, #28]
 80078c4:	1c59      	adds	r1, r3, #1
 80078c6:	61f9      	str	r1, [r7, #28]
 80078c8:	f062 027f 	orn	r2, r2, #127	; 0x7f
 80078cc:	b2d2      	uxtb	r2, r2
 80078ce:	701a      	strb	r2, [r3, #0]
 80078d0:	69bb      	ldr	r3, [r7, #24]
 80078d2:	09db      	lsrs	r3, r3, #7
 80078d4:	61bb      	str	r3, [r7, #24]
 80078d6:	69bb      	ldr	r3, [r7, #24]
 80078d8:	2b7f      	cmp	r3, #127	; 0x7f
 80078da:	d8f0      	bhi.n	80078be <SEGGER_SYSVIEW_RecordU32+0x2e>
 80078dc:	69fb      	ldr	r3, [r7, #28]
 80078de:	1c5a      	adds	r2, r3, #1
 80078e0:	61fa      	str	r2, [r7, #28]
 80078e2:	69ba      	ldr	r2, [r7, #24]
 80078e4:	b2d2      	uxtb	r2, r2
 80078e6:	701a      	strb	r2, [r3, #0]
 80078e8:	69fb      	ldr	r3, [r7, #28]
 80078ea:	60fb      	str	r3, [r7, #12]
  _SendPacket(pPayloadStart, pPayload, EventID);
 80078ec:	687a      	ldr	r2, [r7, #4]
 80078ee:	68f9      	ldr	r1, [r7, #12]
 80078f0:	6938      	ldr	r0, [r7, #16]
 80078f2:	f7ff fe77 	bl	80075e4 <_SendPacket>
  RECORD_END();
 80078f6:	697b      	ldr	r3, [r7, #20]
 80078f8:	f383 8811 	msr	BASEPRI, r3
}
 80078fc:	bf00      	nop
 80078fe:	3720      	adds	r7, #32
 8007900:	46bd      	mov	sp, r7
 8007902:	bd80      	pop	{r7, pc}
 8007904:	20004340 	.word	0x20004340

08007908 <SEGGER_SYSVIEW_RecordU32x2>:
*  Parameters
*    EventID - SystemView event ID.
*    Para0   - The 32-bit parameter encoded to SystemView packet payload.
*    Para1   - The 32-bit parameter encoded to SystemView packet payload.
*/
void SEGGER_SYSVIEW_RecordU32x2(unsigned int EventID, U32 Para0, U32 Para1) {
 8007908:	b580      	push	{r7, lr}
 800790a:	b08c      	sub	sp, #48	; 0x30
 800790c:	af00      	add	r7, sp, #0
 800790e:	60f8      	str	r0, [r7, #12]
 8007910:	60b9      	str	r1, [r7, #8]
 8007912:	607a      	str	r2, [r7, #4]
  U8* pPayload;
  U8* pPayloadStart;
  RECORD_START(SEGGER_SYSVIEW_INFO_SIZE + 2 * SEGGER_SYSVIEW_QUANTA_U32);
 8007914:	f3ef 8311 	mrs	r3, BASEPRI
 8007918:	f04f 0120 	mov.w	r1, #32
 800791c:	f381 8811 	msr	BASEPRI, r1
 8007920:	61fb      	str	r3, [r7, #28]
 8007922:	4825      	ldr	r0, [pc, #148]	; (80079b8 <SEGGER_SYSVIEW_RecordU32x2+0xb0>)
 8007924:	f7ff fd74 	bl	8007410 <_PreparePacket>
 8007928:	61b8      	str	r0, [r7, #24]
  //
  pPayload = pPayloadStart;
 800792a:	69bb      	ldr	r3, [r7, #24]
 800792c:	617b      	str	r3, [r7, #20]
  ENCODE_U32(pPayload, Para0);
 800792e:	697b      	ldr	r3, [r7, #20]
 8007930:	62fb      	str	r3, [r7, #44]	; 0x2c
 8007932:	68bb      	ldr	r3, [r7, #8]
 8007934:	62bb      	str	r3, [r7, #40]	; 0x28
 8007936:	e00b      	b.n	8007950 <SEGGER_SYSVIEW_RecordU32x2+0x48>
 8007938:	6abb      	ldr	r3, [r7, #40]	; 0x28
 800793a:	b2da      	uxtb	r2, r3
 800793c:	6afb      	ldr	r3, [r7, #44]	; 0x2c
 800793e:	1c59      	adds	r1, r3, #1
 8007940:	62f9      	str	r1, [r7, #44]	; 0x2c
 8007942:	f062 027f 	orn	r2, r2, #127	; 0x7f
 8007946:	b2d2      	uxtb	r2, r2
 8007948:	701a      	strb	r2, [r3, #0]
 800794a:	6abb      	ldr	r3, [r7, #40]	; 0x28
 800794c:	09db      	lsrs	r3, r3, #7
 800794e:	62bb      	str	r3, [r7, #40]	; 0x28
 8007950:	6abb      	ldr	r3, [r7, #40]	; 0x28
 8007952:	2b7f      	cmp	r3, #127	; 0x7f
 8007954:	d8f0      	bhi.n	8007938 <SEGGER_SYSVIEW_RecordU32x2+0x30>
 8007956:	6afb      	ldr	r3, [r7, #44]	; 0x2c
 8007958:	1c5a      	adds	r2, r3, #1
 800795a:	62fa      	str	r2, [r7, #44]	; 0x2c
 800795c:	6aba      	ldr	r2, [r7, #40]	; 0x28
 800795e:	b2d2      	uxtb	r2, r2
 8007960:	701a      	strb	r2, [r3, #0]
 8007962:	6afb      	ldr	r3, [r7, #44]	; 0x2c
 8007964:	617b      	str	r3, [r7, #20]
  ENCODE_U32(pPayload, Para1);
 8007966:	697b      	ldr	r3, [r7, #20]
 8007968:	627b      	str	r3, [r7, #36]	; 0x24
 800796a:	687b      	ldr	r3, [r7, #4]
 800796c:	623b      	str	r3, [r7, #32]
 800796e:	e00b      	b.n	8007988 <SEGGER_SYSVIEW_RecordU32x2+0x80>
 8007970:	6a3b      	ldr	r3, [r7, #32]
 8007972:	b2da      	uxtb	r2, r3
 8007974:	6a7b      	ldr	r3, [r7, #36]	; 0x24
 8007976:	1c59      	adds	r1, r3, #1
 8007978:	6279      	str	r1, [r7, #36]	; 0x24
 800797a:	f062 027f 	orn	r2, r2, #127	; 0x7f
 800797e:	b2d2      	uxtb	r2, r2
 8007980:	701a      	strb	r2, [r3, #0]
 8007982:	6a3b      	ldr	r3, [r7, #32]
 8007984:	09db      	lsrs	r3, r3, #7
 8007986:	623b      	str	r3, [r7, #32]
 8007988:	6a3b      	ldr	r3, [r7, #32]
 800798a:	2b7f      	cmp	r3, #127	; 0x7f
 800798c:	d8f0      	bhi.n	8007970 <SEGGER_SYSVIEW_RecordU32x2+0x68>
 800798e:	6a7b      	ldr	r3, [r7, #36]	; 0x24
 8007990:	1c5a      	adds	r2, r3, #1
 8007992:	627a      	str	r2, [r7, #36]	; 0x24
 8007994:	6a3a      	ldr	r2, [r7, #32]
 8007996:	b2d2      	uxtb	r2, r2
 8007998:	701a      	strb	r2, [r3, #0]
 800799a:	6a7b      	ldr	r3, [r7, #36]	; 0x24
 800799c:	617b      	str	r3, [r7, #20]
  _SendPacket(pPayloadStart, pPayload, EventID);
 800799e:	68fa      	ldr	r2, [r7, #12]
 80079a0:	6979      	ldr	r1, [r7, #20]
 80079a2:	69b8      	ldr	r0, [r7, #24]
 80079a4:	f7ff fe1e 	bl	80075e4 <_SendPacket>
  RECORD_END();
 80079a8:	69fb      	ldr	r3, [r7, #28]
 80079aa:	f383 8811 	msr	BASEPRI, r3
}
 80079ae:	bf00      	nop
 80079b0:	3730      	adds	r7, #48	; 0x30
 80079b2:	46bd      	mov	sp, r7
 80079b4:	bd80      	pop	{r7, pc}
 80079b6:	bf00      	nop
 80079b8:	20004340 	.word	0x20004340

080079bc <SEGGER_SYSVIEW_RecordU32x3>:
*    EventID - SystemView event ID.
*    Para0   - The 32-bit parameter encoded to SystemView packet payload.
*    Para1   - The 32-bit parameter encoded to SystemView packet payload.
*    Para2   - The 32-bit parameter encoded to SystemView packet payload.
*/
void SEGGER_SYSVIEW_RecordU32x3(unsigned int EventID, U32 Para0, U32 Para1, U32 Para2) {
 80079bc:	b580      	push	{r7, lr}
 80079be:	b08e      	sub	sp, #56	; 0x38
 80079c0:	af00      	add	r7, sp, #0
 80079c2:	60f8      	str	r0, [r7, #12]
 80079c4:	60b9      	str	r1, [r7, #8]
 80079c6:	607a      	str	r2, [r7, #4]
 80079c8:	603b      	str	r3, [r7, #0]
  U8* pPayload;
  U8* pPayloadStart;
  RECORD_START(SEGGER_SYSVIEW_INFO_SIZE + 3 * SEGGER_SYSVIEW_QUANTA_U32);
 80079ca:	f3ef 8311 	mrs	r3, BASEPRI
 80079ce:	f04f 0120 	mov.w	r1, #32
 80079d2:	f381 8811 	msr	BASEPRI, r1
 80079d6:	61fb      	str	r3, [r7, #28]
 80079d8:	4832      	ldr	r0, [pc, #200]	; (8007aa4 <SEGGER_SYSVIEW_RecordU32x3+0xe8>)
 80079da:	f7ff fd19 	bl	8007410 <_PreparePacket>
 80079de:	61b8      	str	r0, [r7, #24]
  //
  pPayload = pPayloadStart;
 80079e0:	69bb      	ldr	r3, [r7, #24]
 80079e2:	617b      	str	r3, [r7, #20]
  ENCODE_U32(pPayload, Para0);
 80079e4:	697b      	ldr	r3, [r7, #20]
 80079e6:	637b      	str	r3, [r7, #52]	; 0x34
 80079e8:	68bb      	ldr	r3, [r7, #8]
 80079ea:	633b      	str	r3, [r7, #48]	; 0x30
 80079ec:	e00b      	b.n	8007a06 <SEGGER_SYSVIEW_RecordU32x3+0x4a>
 80079ee:	6b3b      	ldr	r3, [r7, #48]	; 0x30
 80079f0:	b2da      	uxtb	r2, r3
 80079f2:	6b7b      	ldr	r3, [r7, #52]	; 0x34
 80079f4:	1c59      	adds	r1, r3, #1
 80079f6:	6379      	str	r1, [r7, #52]	; 0x34
 80079f8:	f062 027f 	orn	r2, r2, #127	; 0x7f
 80079fc:	b2d2      	uxtb	r2, r2
 80079fe:	701a      	strb	r2, [r3, #0]
 8007a00:	6b3b      	ldr	r3, [r7, #48]	; 0x30
 8007a02:	09db      	lsrs	r3, r3, #7
 8007a04:	633b      	str	r3, [r7, #48]	; 0x30
 8007a06:	6b3b      	ldr	r3, [r7, #48]	; 0x30
 8007a08:	2b7f      	cmp	r3, #127	; 0x7f
 8007a0a:	d8f0      	bhi.n	80079ee <SEGGER_SYSVIEW_RecordU32x3+0x32>
 8007a0c:	6b7b      	ldr	r3, [r7, #52]	; 0x34
 8007a0e:	1c5a      	adds	r2, r3, #1
 8007a10:	637a      	str	r2, [r7, #52]	; 0x34
 8007a12:	6b3a      	ldr	r2, [r7, #48]	; 0x30
 8007a14:	b2d2      	uxtb	r2, r2
 8007a16:	701a      	strb	r2, [r3, #0]
 8007a18:	6b7b      	ldr	r3, [r7, #52]	; 0x34
 8007a1a:	617b      	str	r3, [r7, #20]
  ENCODE_U32(pPayload, Para1);
 8007a1c:	697b      	ldr	r3, [r7, #20]
 8007a1e:	62fb      	str	r3, [r7, #44]	; 0x2c
 8007a20:	687b      	ldr	r3, [r7, #4]
 8007a22:	62bb      	str	r3, [r7, #40]	; 0x28
 8007a24:	e00b      	b.n	8007a3e <SEGGER_SYSVIEW_RecordU32x3+0x82>
 8007a26:	6abb      	ldr	r3, [r7, #40]	; 0x28
 8007a28:	b2da      	uxtb	r2, r3
 8007a2a:	6afb      	ldr	r3, [r7, #44]	; 0x2c
 8007a2c:	1c59      	adds	r1, r3, #1
 8007a2e:	62f9      	str	r1, [r7, #44]	; 0x2c
 8007a30:	f062 027f 	orn	r2, r2, #127	; 0x7f
 8007a34:	b2d2      	uxtb	r2, r2
 8007a36:	701a      	strb	r2, [r3, #0]
 8007a38:	6abb      	ldr	r3, [r7, #40]	; 0x28
 8007a3a:	09db      	lsrs	r3, r3, #7
 8007a3c:	62bb      	str	r3, [r7, #40]	; 0x28
 8007a3e:	6abb      	ldr	r3, [r7, #40]	; 0x28
 8007a40:	2b7f      	cmp	r3, #127	; 0x7f
 8007a42:	d8f0      	bhi.n	8007a26 <SEGGER_SYSVIEW_RecordU32x3+0x6a>
 8007a44:	6afb      	ldr	r3, [r7, #44]	; 0x2c
 8007a46:	1c5a      	adds	r2, r3, #1
 8007a48:	62fa      	str	r2, [r7, #44]	; 0x2c
 8007a4a:	6aba      	ldr	r2, [r7, #40]	; 0x28
 8007a4c:	b2d2      	uxtb	r2, r2
 8007a4e:	701a      	strb	r2, [r3, #0]
 8007a50:	6afb      	ldr	r3, [r7, #44]	; 0x2c
 8007a52:	617b      	str	r3, [r7, #20]
  ENCODE_U32(pPayload, Para2);
 8007a54:	697b      	ldr	r3, [r7, #20]
 8007a56:	627b      	str	r3, [r7, #36]	; 0x24
 8007a58:	683b      	ldr	r3, [r7, #0]
 8007a5a:	623b      	str	r3, [r7, #32]
 8007a5c:	e00b      	b.n	8007a76 <SEGGER_SYSVIEW_RecordU32x3+0xba>
 8007a5e:	6a3b      	ldr	r3, [r7, #32]
 8007a60:	b2da      	uxtb	r2, r3
 8007a62:	6a7b      	ldr	r3, [r7, #36]	; 0x24
 8007a64:	1c59      	adds	r1, r3, #1
 8007a66:	6279      	str	r1, [r7, #36]	; 0x24
 8007a68:	f062 027f 	orn	r2, r2, #127	; 0x7f
 8007a6c:	b2d2      	uxtb	r2, r2
 8007a6e:	701a      	strb	r2, [r3, #0]
 8007a70:	6a3b      	ldr	r3, [r7, #32]
 8007a72:	09db      	lsrs	r3, r3, #7
 8007a74:	623b      	str	r3, [r7, #32]
 8007a76:	6a3b      	ldr	r3, [r7, #32]
 8007a78:	2b7f      	cmp	r3, #127	; 0x7f
 8007a7a:	d8f0      	bhi.n	8007a5e <SEGGER_SYSVIEW_RecordU32x3+0xa2>
 8007a7c:	6a7b      	ldr	r3, [r7, #36]	; 0x24
 8007a7e:	1c5a      	adds	r2, r3, #1
 8007a80:	627a      	str	r2, [r7, #36]	; 0x24
 8007a82:	6a3a      	ldr	r2, [r7, #32]
 8007a84:	b2d2      	uxtb	r2, r2
 8007a86:	701a      	strb	r2, [r3, #0]
 8007a88:	6a7b      	ldr	r3, [r7, #36]	; 0x24
 8007a8a:	617b      	str	r3, [r7, #20]
  _SendPacket(pPayloadStart, pPayload, EventID);
 8007a8c:	68fa      	ldr	r2, [r7, #12]
 8007a8e:	6979      	ldr	r1, [r7, #20]
 8007a90:	69b8      	ldr	r0, [r7, #24]
 8007a92:	f7ff fda7 	bl	80075e4 <_SendPacket>
  RECORD_END();
 8007a96:	69fb      	ldr	r3, [r7, #28]
 8007a98:	f383 8811 	msr	BASEPRI, r3
}
 8007a9c:	bf00      	nop
 8007a9e:	3738      	adds	r7, #56	; 0x38
 8007aa0:	46bd      	mov	sp, r7
 8007aa2:	bd80      	pop	{r7, pc}
 8007aa4:	20004340 	.word	0x20004340

08007aa8 <SEGGER_SYSVIEW_Start>:
*    When SEGGER_SYSVIEW_CAN_RESTART is 1, each received start command
*    records the system information. This is required to enable restart
*    of recordings when SystemView unexpectedly disconnects without sending
*    a stop command before.
*/
void SEGGER_SYSVIEW_Start(void) {
 8007aa8:	b580      	push	{r7, lr}
 8007aaa:	b08c      	sub	sp, #48	; 0x30
 8007aac:	af00      	add	r7, sp, #0
#if (SEGGER_SYSVIEW_CAN_RESTART == 0)
  if (_SYSVIEW_Globals.EnableState == 0) {
#endif
    _SYSVIEW_Globals.EnableState = 1;
 8007aae:	4b58      	ldr	r3, [pc, #352]	; (8007c10 <SEGGER_SYSVIEW_Start+0x168>)
 8007ab0:	2201      	movs	r2, #1
 8007ab2:	701a      	strb	r2, [r3, #0]
#if (SEGGER_SYSVIEW_POST_MORTEM_MODE == 1)
    _SendSyncInfo();
#else
    SEGGER_SYSVIEW_LOCK();
 8007ab4:	f3ef 8311 	mrs	r3, BASEPRI
 8007ab8:	f04f 0120 	mov.w	r1, #32
 8007abc:	f381 8811 	msr	BASEPRI, r1
 8007ac0:	60fb      	str	r3, [r7, #12]
    SEGGER_RTT_WriteSkipNoLock(CHANNEL_ID_UP, _abSync, 10);
 8007ac2:	4b53      	ldr	r3, [pc, #332]	; (8007c10 <SEGGER_SYSVIEW_Start+0x168>)
 8007ac4:	785b      	ldrb	r3, [r3, #1]
 8007ac6:	220a      	movs	r2, #10
 8007ac8:	4952      	ldr	r1, [pc, #328]	; (8007c14 <SEGGER_SYSVIEW_Start+0x16c>)
 8007aca:	4618      	mov	r0, r3
 8007acc:	f7f8 fb40 	bl	8000150 <SEGGER_RTT_ASM_WriteSkipNoLock>
    SEGGER_SYSVIEW_UNLOCK();
 8007ad0:	68fb      	ldr	r3, [r7, #12]
 8007ad2:	f383 8811 	msr	BASEPRI, r3
    SEGGER_SYSVIEW_ON_EVENT_RECORDED(10);
    SEGGER_SYSVIEW_RecordVoid(SYSVIEW_EVTID_TRACE_START);
 8007ad6:	200a      	movs	r0, #10
 8007ad8:	f7ff febc 	bl	8007854 <SEGGER_SYSVIEW_RecordVoid>
    {
      U8* pPayload;
      U8* pPayloadStart;
      RECORD_START(SEGGER_SYSVIEW_INFO_SIZE + 4 * SEGGER_SYSVIEW_QUANTA_U32);
 8007adc:	f3ef 8311 	mrs	r3, BASEPRI
 8007ae0:	f04f 0120 	mov.w	r1, #32
 8007ae4:	f381 8811 	msr	BASEPRI, r1
 8007ae8:	60bb      	str	r3, [r7, #8]
 8007aea:	484b      	ldr	r0, [pc, #300]	; (8007c18 <SEGGER_SYSVIEW_Start+0x170>)
 8007aec:	f7ff fc90 	bl	8007410 <_PreparePacket>
 8007af0:	6078      	str	r0, [r7, #4]
      //
      pPayload = pPayloadStart;
 8007af2:	687b      	ldr	r3, [r7, #4]
 8007af4:	603b      	str	r3, [r7, #0]
      ENCODE_U32(pPayload, _SYSVIEW_Globals.SysFreq);
 8007af6:	683b      	ldr	r3, [r7, #0]
 8007af8:	62fb      	str	r3, [r7, #44]	; 0x2c
 8007afa:	4b45      	ldr	r3, [pc, #276]	; (8007c10 <SEGGER_SYSVIEW_Start+0x168>)
 8007afc:	685b      	ldr	r3, [r3, #4]
 8007afe:	62bb      	str	r3, [r7, #40]	; 0x28
 8007b00:	e00b      	b.n	8007b1a <SEGGER_SYSVIEW_Start+0x72>
 8007b02:	6abb      	ldr	r3, [r7, #40]	; 0x28
 8007b04:	b2da      	uxtb	r2, r3
 8007b06:	6afb      	ldr	r3, [r7, #44]	; 0x2c
 8007b08:	1c59      	adds	r1, r3, #1
 8007b0a:	62f9      	str	r1, [r7, #44]	; 0x2c
 8007b0c:	f062 027f 	orn	r2, r2, #127	; 0x7f
 8007b10:	b2d2      	uxtb	r2, r2
 8007b12:	701a      	strb	r2, [r3, #0]
 8007b14:	6abb      	ldr	r3, [r7, #40]	; 0x28
 8007b16:	09db      	lsrs	r3, r3, #7
 8007b18:	62bb      	str	r3, [r7, #40]	; 0x28
 8007b1a:	6abb      	ldr	r3, [r7, #40]	; 0x28
 8007b1c:	2b7f      	cmp	r3, #127	; 0x7f
 8007b1e:	d8f0      	bhi.n	8007b02 <SEGGER_SYSVIEW_Start+0x5a>
 8007b20:	6afb      	ldr	r3, [r7, #44]	; 0x2c
 8007b22:	1c5a      	adds	r2, r3, #1
 8007b24:	62fa      	str	r2, [r7, #44]	; 0x2c
 8007b26:	6aba      	ldr	r2, [r7, #40]	; 0x28
 8007b28:	b2d2      	uxtb	r2, r2
 8007b2a:	701a      	strb	r2, [r3, #0]
 8007b2c:	6afb      	ldr	r3, [r7, #44]	; 0x2c
 8007b2e:	603b      	str	r3, [r7, #0]
      ENCODE_U32(pPayload, _SYSVIEW_Globals.CPUFreq);
 8007b30:	683b      	ldr	r3, [r7, #0]
 8007b32:	627b      	str	r3, [r7, #36]	; 0x24
 8007b34:	4b36      	ldr	r3, [pc, #216]	; (8007c10 <SEGGER_SYSVIEW_Start+0x168>)
 8007b36:	689b      	ldr	r3, [r3, #8]
 8007b38:	623b      	str	r3, [r7, #32]
 8007b3a:	e00b      	b.n	8007b54 <SEGGER_SYSVIEW_Start+0xac>
 8007b3c:	6a3b      	ldr	r3, [r7, #32]
 8007b3e:	b2da      	uxtb	r2, r3
 8007b40:	6a7b      	ldr	r3, [r7, #36]	; 0x24
 8007b42:	1c59      	adds	r1, r3, #1
 8007b44:	6279      	str	r1, [r7, #36]	; 0x24
 8007b46:	f062 027f 	orn	r2, r2, #127	; 0x7f
 8007b4a:	b2d2      	uxtb	r2, r2
 8007b4c:	701a      	strb	r2, [r3, #0]
 8007b4e:	6a3b      	ldr	r3, [r7, #32]
 8007b50:	09db      	lsrs	r3, r3, #7
 8007b52:	623b      	str	r3, [r7, #32]
 8007b54:	6a3b      	ldr	r3, [r7, #32]
 8007b56:	2b7f      	cmp	r3, #127	; 0x7f
 8007b58:	d8f0      	bhi.n	8007b3c <SEGGER_SYSVIEW_Start+0x94>
 8007b5a:	6a7b      	ldr	r3, [r7, #36]	; 0x24
 8007b5c:	1c5a      	adds	r2, r3, #1
 8007b5e:	627a      	str	r2, [r7, #36]	; 0x24
 8007b60:	6a3a      	ldr	r2, [r7, #32]
 8007b62:	b2d2      	uxtb	r2, r2
 8007b64:	701a      	strb	r2, [r3, #0]
 8007b66:	6a7b      	ldr	r3, [r7, #36]	; 0x24
 8007b68:	603b      	str	r3, [r7, #0]
      ENCODE_U32(pPayload, _SYSVIEW_Globals.RAMBaseAddress);
 8007b6a:	683b      	ldr	r3, [r7, #0]
 8007b6c:	61fb      	str	r3, [r7, #28]
 8007b6e:	4b28      	ldr	r3, [pc, #160]	; (8007c10 <SEGGER_SYSVIEW_Start+0x168>)
 8007b70:	691b      	ldr	r3, [r3, #16]
 8007b72:	61bb      	str	r3, [r7, #24]
 8007b74:	e00b      	b.n	8007b8e <SEGGER_SYSVIEW_Start+0xe6>
 8007b76:	69bb      	ldr	r3, [r7, #24]
 8007b78:	b2da      	uxtb	r2, r3
 8007b7a:	69fb      	ldr	r3, [r7, #28]
 8007b7c:	1c59      	adds	r1, r3, #1
 8007b7e:	61f9      	str	r1, [r7, #28]
 8007b80:	f062 027f 	orn	r2, r2, #127	; 0x7f
 8007b84:	b2d2      	uxtb	r2, r2
 8007b86:	701a      	strb	r2, [r3, #0]
 8007b88:	69bb      	ldr	r3, [r7, #24]
 8007b8a:	09db      	lsrs	r3, r3, #7
 8007b8c:	61bb      	str	r3, [r7, #24]
 8007b8e:	69bb      	ldr	r3, [r7, #24]
 8007b90:	2b7f      	cmp	r3, #127	; 0x7f
 8007b92:	d8f0      	bhi.n	8007b76 <SEGGER_SYSVIEW_Start+0xce>
 8007b94:	69fb      	ldr	r3, [r7, #28]
 8007b96:	1c5a      	adds	r2, r3, #1
 8007b98:	61fa      	str	r2, [r7, #28]
 8007b9a:	69ba      	ldr	r2, [r7, #24]
 8007b9c:	b2d2      	uxtb	r2, r2
 8007b9e:	701a      	strb	r2, [r3, #0]
 8007ba0:	69fb      	ldr	r3, [r7, #28]
 8007ba2:	603b      	str	r3, [r7, #0]
      ENCODE_U32(pPayload, SEGGER_SYSVIEW_ID_SHIFT);
 8007ba4:	683b      	ldr	r3, [r7, #0]
 8007ba6:	617b      	str	r3, [r7, #20]
 8007ba8:	2300      	movs	r3, #0
 8007baa:	613b      	str	r3, [r7, #16]
 8007bac:	e00b      	b.n	8007bc6 <SEGGER_SYSVIEW_Start+0x11e>
 8007bae:	693b      	ldr	r3, [r7, #16]
 8007bb0:	b2da      	uxtb	r2, r3
 8007bb2:	697b      	ldr	r3, [r7, #20]
 8007bb4:	1c59      	adds	r1, r3, #1
 8007bb6:	6179      	str	r1, [r7, #20]
 8007bb8:	f062 027f 	orn	r2, r2, #127	; 0x7f
 8007bbc:	b2d2      	uxtb	r2, r2
 8007bbe:	701a      	strb	r2, [r3, #0]
 8007bc0:	693b      	ldr	r3, [r7, #16]
 8007bc2:	09db      	lsrs	r3, r3, #7
 8007bc4:	613b      	str	r3, [r7, #16]
 8007bc6:	693b      	ldr	r3, [r7, #16]
 8007bc8:	2b7f      	cmp	r3, #127	; 0x7f
 8007bca:	d8f0      	bhi.n	8007bae <SEGGER_SYSVIEW_Start+0x106>
 8007bcc:	697b      	ldr	r3, [r7, #20]
 8007bce:	1c5a      	adds	r2, r3, #1
 8007bd0:	617a      	str	r2, [r7, #20]
 8007bd2:	693a      	ldr	r2, [r7, #16]
 8007bd4:	b2d2      	uxtb	r2, r2
 8007bd6:	701a      	strb	r2, [r3, #0]
 8007bd8:	697b      	ldr	r3, [r7, #20]
 8007bda:	603b      	str	r3, [r7, #0]
      _SendPacket(pPayloadStart, pPayload, SYSVIEW_EVTID_INIT);
 8007bdc:	2218      	movs	r2, #24
 8007bde:	6839      	ldr	r1, [r7, #0]
 8007be0:	6878      	ldr	r0, [r7, #4]
 8007be2:	f7ff fcff 	bl	80075e4 <_SendPacket>
      RECORD_END();
 8007be6:	68bb      	ldr	r3, [r7, #8]
 8007be8:	f383 8811 	msr	BASEPRI, r3
    }
    if (_SYSVIEW_Globals.pfSendSysDesc) {
 8007bec:	4b08      	ldr	r3, [pc, #32]	; (8007c10 <SEGGER_SYSVIEW_Start+0x168>)
 8007bee:	6a5b      	ldr	r3, [r3, #36]	; 0x24
 8007bf0:	2b00      	cmp	r3, #0
 8007bf2:	d002      	beq.n	8007bfa <SEGGER_SYSVIEW_Start+0x152>
      _SYSVIEW_Globals.pfSendSysDesc();
 8007bf4:	4b06      	ldr	r3, [pc, #24]	; (8007c10 <SEGGER_SYSVIEW_Start+0x168>)
 8007bf6:	6a5b      	ldr	r3, [r3, #36]	; 0x24
 8007bf8:	4798      	blx	r3
    }
    SEGGER_SYSVIEW_RecordSystime();
 8007bfa:	f000 f9eb 	bl	8007fd4 <SEGGER_SYSVIEW_RecordSystime>
    SEGGER_SYSVIEW_SendTaskList();
 8007bfe:	f000 f9b1 	bl	8007f64 <SEGGER_SYSVIEW_SendTaskList>
    SEGGER_SYSVIEW_SendNumModules();
 8007c02:	f000 fc81 	bl	8008508 <SEGGER_SYSVIEW_SendNumModules>
#endif
#if (SEGGER_SYSVIEW_CAN_RESTART == 0)
  }
#endif
}
 8007c06:	bf00      	nop
 8007c08:	3730      	adds	r7, #48	; 0x30
 8007c0a:	46bd      	mov	sp, r7
 8007c0c:	bd80      	pop	{r7, pc}
 8007c0e:	bf00      	nop
 8007c10:	20004310 	.word	0x20004310
 8007c14:	0800881c 	.word	0x0800881c
 8007c18:	20004340 	.word	0x20004340

08007c1c <SEGGER_SYSVIEW_Stop>:
*    This function disables transmission of SystemView packets recorded
*    by subsequent trace calls.  If transmission is enabled when
*    this function is called, a single SystemView Stop event is recorded
*    to the trace, send, and then trace transmission is halted.
*/
void SEGGER_SYSVIEW_Stop(void) {
 8007c1c:	b580      	push	{r7, lr}
 8007c1e:	b082      	sub	sp, #8
 8007c20:	af00      	add	r7, sp, #0
  U8* pPayloadStart;
  RECORD_START(SEGGER_SYSVIEW_INFO_SIZE);
 8007c22:	f3ef 8311 	mrs	r3, BASEPRI
 8007c26:	f04f 0120 	mov.w	r1, #32
 8007c2a:	f381 8811 	msr	BASEPRI, r1
 8007c2e:	607b      	str	r3, [r7, #4]
 8007c30:	480b      	ldr	r0, [pc, #44]	; (8007c60 <SEGGER_SYSVIEW_Stop+0x44>)
 8007c32:	f7ff fbed 	bl	8007410 <_PreparePacket>
 8007c36:	6038      	str	r0, [r7, #0]
  //
  if (_SYSVIEW_Globals.EnableState) {
 8007c38:	4b0a      	ldr	r3, [pc, #40]	; (8007c64 <SEGGER_SYSVIEW_Stop+0x48>)
 8007c3a:	781b      	ldrb	r3, [r3, #0]
 8007c3c:	2b00      	cmp	r3, #0
 8007c3e:	d007      	beq.n	8007c50 <SEGGER_SYSVIEW_Stop+0x34>
    _SendPacket(pPayloadStart, pPayloadStart, SYSVIEW_EVTID_TRACE_STOP);
 8007c40:	220b      	movs	r2, #11
 8007c42:	6839      	ldr	r1, [r7, #0]
 8007c44:	6838      	ldr	r0, [r7, #0]
 8007c46:	f7ff fccd 	bl	80075e4 <_SendPacket>
    _SYSVIEW_Globals.EnableState = 0;
 8007c4a:	4b06      	ldr	r3, [pc, #24]	; (8007c64 <SEGGER_SYSVIEW_Stop+0x48>)
 8007c4c:	2200      	movs	r2, #0
 8007c4e:	701a      	strb	r2, [r3, #0]
  }
  RECORD_END();
 8007c50:	687b      	ldr	r3, [r7, #4]
 8007c52:	f383 8811 	msr	BASEPRI, r3
}
 8007c56:	bf00      	nop
 8007c58:	3708      	adds	r7, #8
 8007c5a:	46bd      	mov	sp, r7
 8007c5c:	bd80      	pop	{r7, pc}
 8007c5e:	bf00      	nop
 8007c60:	20004340 	.word	0x20004340
 8007c64:	20004310 	.word	0x20004310

08007c68 <SEGGER_SYSVIEW_GetSysDesc>:
*
*  Function description
*    Triggers a send of the system information and description.
*
*/
void SEGGER_SYSVIEW_GetSysDesc(void) {
 8007c68:	b580      	push	{r7, lr}
 8007c6a:	b08c      	sub	sp, #48	; 0x30
 8007c6c:	af00      	add	r7, sp, #0
  U8* pPayload;
  U8* pPayloadStart;
  RECORD_START(SEGGER_SYSVIEW_INFO_SIZE + 4 * SEGGER_SYSVIEW_QUANTA_U32);
 8007c6e:	f3ef 8311 	mrs	r3, BASEPRI
 8007c72:	f04f 0120 	mov.w	r1, #32
 8007c76:	f381 8811 	msr	BASEPRI, r1
 8007c7a:	60fb      	str	r3, [r7, #12]
 8007c7c:	4845      	ldr	r0, [pc, #276]	; (8007d94 <SEGGER_SYSVIEW_GetSysDesc+0x12c>)
 8007c7e:	f7ff fbc7 	bl	8007410 <_PreparePacket>
 8007c82:	60b8      	str	r0, [r7, #8]
  //
  pPayload = pPayloadStart;
 8007c84:	68bb      	ldr	r3, [r7, #8]
 8007c86:	607b      	str	r3, [r7, #4]
  ENCODE_U32(pPayload, _SYSVIEW_Globals.SysFreq);
 8007c88:	687b      	ldr	r3, [r7, #4]
 8007c8a:	62fb      	str	r3, [r7, #44]	; 0x2c
 8007c8c:	4b42      	ldr	r3, [pc, #264]	; (8007d98 <SEGGER_SYSVIEW_GetSysDesc+0x130>)
 8007c8e:	685b      	ldr	r3, [r3, #4]
 8007c90:	62bb      	str	r3, [r7, #40]	; 0x28
 8007c92:	e00b      	b.n	8007cac <SEGGER_SYSVIEW_GetSysDesc+0x44>
 8007c94:	6abb      	ldr	r3, [r7, #40]	; 0x28
 8007c96:	b2da      	uxtb	r2, r3
 8007c98:	6afb      	ldr	r3, [r7, #44]	; 0x2c
 8007c9a:	1c59      	adds	r1, r3, #1
 8007c9c:	62f9      	str	r1, [r7, #44]	; 0x2c
 8007c9e:	f062 027f 	orn	r2, r2, #127	; 0x7f
 8007ca2:	b2d2      	uxtb	r2, r2
 8007ca4:	701a      	strb	r2, [r3, #0]
 8007ca6:	6abb      	ldr	r3, [r7, #40]	; 0x28
 8007ca8:	09db      	lsrs	r3, r3, #7
 8007caa:	62bb      	str	r3, [r7, #40]	; 0x28
 8007cac:	6abb      	ldr	r3, [r7, #40]	; 0x28
 8007cae:	2b7f      	cmp	r3, #127	; 0x7f
 8007cb0:	d8f0      	bhi.n	8007c94 <SEGGER_SYSVIEW_GetSysDesc+0x2c>
 8007cb2:	6afb      	ldr	r3, [r7, #44]	; 0x2c
 8007cb4:	1c5a      	adds	r2, r3, #1
 8007cb6:	62fa      	str	r2, [r7, #44]	; 0x2c
 8007cb8:	6aba      	ldr	r2, [r7, #40]	; 0x28
 8007cba:	b2d2      	uxtb	r2, r2
 8007cbc:	701a      	strb	r2, [r3, #0]
 8007cbe:	6afb      	ldr	r3, [r7, #44]	; 0x2c
 8007cc0:	607b      	str	r3, [r7, #4]
  ENCODE_U32(pPayload, _SYSVIEW_Globals.CPUFreq);
 8007cc2:	687b      	ldr	r3, [r7, #4]
 8007cc4:	627b      	str	r3, [r7, #36]	; 0x24
 8007cc6:	4b34      	ldr	r3, [pc, #208]	; (8007d98 <SEGGER_SYSVIEW_GetSysDesc+0x130>)
 8007cc8:	689b      	ldr	r3, [r3, #8]
 8007cca:	623b      	str	r3, [r7, #32]
 8007ccc:	e00b      	b.n	8007ce6 <SEGGER_SYSVIEW_GetSysDesc+0x7e>
 8007cce:	6a3b      	ldr	r3, [r7, #32]
 8007cd0:	b2da      	uxtb	r2, r3
 8007cd2:	6a7b      	ldr	r3, [r7, #36]	; 0x24
 8007cd4:	1c59      	adds	r1, r3, #1
 8007cd6:	6279      	str	r1, [r7, #36]	; 0x24
 8007cd8:	f062 027f 	orn	r2, r2, #127	; 0x7f
 8007cdc:	b2d2      	uxtb	r2, r2
 8007cde:	701a      	strb	r2, [r3, #0]
 8007ce0:	6a3b      	ldr	r3, [r7, #32]
 8007ce2:	09db      	lsrs	r3, r3, #7
 8007ce4:	623b      	str	r3, [r7, #32]
 8007ce6:	6a3b      	ldr	r3, [r7, #32]
 8007ce8:	2b7f      	cmp	r3, #127	; 0x7f
 8007cea:	d8f0      	bhi.n	8007cce <SEGGER_SYSVIEW_GetSysDesc+0x66>
 8007cec:	6a7b      	ldr	r3, [r7, #36]	; 0x24
 8007cee:	1c5a      	adds	r2, r3, #1
 8007cf0:	627a      	str	r2, [r7, #36]	; 0x24
 8007cf2:	6a3a      	ldr	r2, [r7, #32]
 8007cf4:	b2d2      	uxtb	r2, r2
 8007cf6:	701a      	strb	r2, [r3, #0]
 8007cf8:	6a7b      	ldr	r3, [r7, #36]	; 0x24
 8007cfa:	607b      	str	r3, [r7, #4]
  ENCODE_U32(pPayload, _SYSVIEW_Globals.RAMBaseAddress);
 8007cfc:	687b      	ldr	r3, [r7, #4]
 8007cfe:	61fb      	str	r3, [r7, #28]
 8007d00:	4b25      	ldr	r3, [pc, #148]	; (8007d98 <SEGGER_SYSVIEW_GetSysDesc+0x130>)
 8007d02:	691b      	ldr	r3, [r3, #16]
 8007d04:	61bb      	str	r3, [r7, #24]
 8007d06:	e00b      	b.n	8007d20 <SEGGER_SYSVIEW_GetSysDesc+0xb8>
 8007d08:	69bb      	ldr	r3, [r7, #24]
 8007d0a:	b2da      	uxtb	r2, r3
 8007d0c:	69fb      	ldr	r3, [r7, #28]
 8007d0e:	1c59      	adds	r1, r3, #1
 8007d10:	61f9      	str	r1, [r7, #28]
 8007d12:	f062 027f 	orn	r2, r2, #127	; 0x7f
 8007d16:	b2d2      	uxtb	r2, r2
 8007d18:	701a      	strb	r2, [r3, #0]
 8007d1a:	69bb      	ldr	r3, [r7, #24]
 8007d1c:	09db      	lsrs	r3, r3, #7
 8007d1e:	61bb      	str	r3, [r7, #24]
 8007d20:	69bb      	ldr	r3, [r7, #24]
 8007d22:	2b7f      	cmp	r3, #127	; 0x7f
 8007d24:	d8f0      	bhi.n	8007d08 <SEGGER_SYSVIEW_GetSysDesc+0xa0>
 8007d26:	69fb      	ldr	r3, [r7, #28]
 8007d28:	1c5a      	adds	r2, r3, #1
 8007d2a:	61fa      	str	r2, [r7, #28]
 8007d2c:	69ba      	ldr	r2, [r7, #24]
 8007d2e:	b2d2      	uxtb	r2, r2
 8007d30:	701a      	strb	r2, [r3, #0]
 8007d32:	69fb      	ldr	r3, [r7, #28]
 8007d34:	607b      	str	r3, [r7, #4]
  ENCODE_U32(pPayload, SEGGER_SYSVIEW_ID_SHIFT);
 8007d36:	687b      	ldr	r3, [r7, #4]
 8007d38:	617b      	str	r3, [r7, #20]
 8007d3a:	2300      	movs	r3, #0
 8007d3c:	613b      	str	r3, [r7, #16]
 8007d3e:	e00b      	b.n	8007d58 <SEGGER_SYSVIEW_GetSysDesc+0xf0>
 8007d40:	693b      	ldr	r3, [r7, #16]
 8007d42:	b2da      	uxtb	r2, r3
 8007d44:	697b      	ldr	r3, [r7, #20]
 8007d46:	1c59      	adds	r1, r3, #1
 8007d48:	6179      	str	r1, [r7, #20]
 8007d4a:	f062 027f 	orn	r2, r2, #127	; 0x7f
 8007d4e:	b2d2      	uxtb	r2, r2
 8007d50:	701a      	strb	r2, [r3, #0]
 8007d52:	693b      	ldr	r3, [r7, #16]
 8007d54:	09db      	lsrs	r3, r3, #7
 8007d56:	613b      	str	r3, [r7, #16]
 8007d58:	693b      	ldr	r3, [r7, #16]
 8007d5a:	2b7f      	cmp	r3, #127	; 0x7f
 8007d5c:	d8f0      	bhi.n	8007d40 <SEGGER_SYSVIEW_GetSysDesc+0xd8>
 8007d5e:	697b      	ldr	r3, [r7, #20]
 8007d60:	1c5a      	adds	r2, r3, #1
 8007d62:	617a      	str	r2, [r7, #20]
 8007d64:	693a      	ldr	r2, [r7, #16]
 8007d66:	b2d2      	uxtb	r2, r2
 8007d68:	701a      	strb	r2, [r3, #0]
 8007d6a:	697b      	ldr	r3, [r7, #20]
 8007d6c:	607b      	str	r3, [r7, #4]
  _SendPacket(pPayloadStart, pPayload, SYSVIEW_EVTID_INIT);
 8007d6e:	2218      	movs	r2, #24
 8007d70:	6879      	ldr	r1, [r7, #4]
 8007d72:	68b8      	ldr	r0, [r7, #8]
 8007d74:	f7ff fc36 	bl	80075e4 <_SendPacket>
  RECORD_END();
 8007d78:	68fb      	ldr	r3, [r7, #12]
 8007d7a:	f383 8811 	msr	BASEPRI, r3
  if (_SYSVIEW_Globals.pfSendSysDesc) {
 8007d7e:	4b06      	ldr	r3, [pc, #24]	; (8007d98 <SEGGER_SYSVIEW_GetSysDesc+0x130>)
 8007d80:	6a5b      	ldr	r3, [r3, #36]	; 0x24
 8007d82:	2b00      	cmp	r3, #0
 8007d84:	d002      	beq.n	8007d8c <SEGGER_SYSVIEW_GetSysDesc+0x124>
    _SYSVIEW_Globals.pfSendSysDesc();
 8007d86:	4b04      	ldr	r3, [pc, #16]	; (8007d98 <SEGGER_SYSVIEW_GetSysDesc+0x130>)
 8007d88:	6a5b      	ldr	r3, [r3, #36]	; 0x24
 8007d8a:	4798      	blx	r3
  }
}
 8007d8c:	bf00      	nop
 8007d8e:	3730      	adds	r7, #48	; 0x30
 8007d90:	46bd      	mov	sp, r7
 8007d92:	bd80      	pop	{r7, pc}
 8007d94:	20004340 	.word	0x20004340
 8007d98:	20004310 	.word	0x20004310

08007d9c <SEGGER_SYSVIEW_SendTaskInfo>:
*    task priority and task name.
*
*  Parameters
*    pInfo - Pointer to task information to send.
*/
void SEGGER_SYSVIEW_SendTaskInfo(const SEGGER_SYSVIEW_TASKINFO *pInfo) {
 8007d9c:	b580      	push	{r7, lr}
 8007d9e:	b092      	sub	sp, #72	; 0x48
 8007da0:	af00      	add	r7, sp, #0
 8007da2:	6078      	str	r0, [r7, #4]
  U8* pPayload;
  U8* pPayloadStart;
  RECORD_START(SEGGER_SYSVIEW_INFO_SIZE + SEGGER_SYSVIEW_QUANTA_U32 + 1 + 32);
 8007da4:	f3ef 8311 	mrs	r3, BASEPRI
 8007da8:	f04f 0120 	mov.w	r1, #32
 8007dac:	f381 8811 	msr	BASEPRI, r1
 8007db0:	617b      	str	r3, [r7, #20]
 8007db2:	486a      	ldr	r0, [pc, #424]	; (8007f5c <SEGGER_SYSVIEW_SendTaskInfo+0x1c0>)
 8007db4:	f7ff fb2c 	bl	8007410 <_PreparePacket>
 8007db8:	6138      	str	r0, [r7, #16]
  //
  pPayload = pPayloadStart;
 8007dba:	693b      	ldr	r3, [r7, #16]
 8007dbc:	60fb      	str	r3, [r7, #12]
  ENCODE_U32(pPayload, SHRINK_ID(pInfo->TaskID));
 8007dbe:	68fb      	ldr	r3, [r7, #12]
 8007dc0:	647b      	str	r3, [r7, #68]	; 0x44
 8007dc2:	687b      	ldr	r3, [r7, #4]
 8007dc4:	681a      	ldr	r2, [r3, #0]
 8007dc6:	4b66      	ldr	r3, [pc, #408]	; (8007f60 <SEGGER_SYSVIEW_SendTaskInfo+0x1c4>)
 8007dc8:	691b      	ldr	r3, [r3, #16]
 8007dca:	1ad3      	subs	r3, r2, r3
 8007dcc:	643b      	str	r3, [r7, #64]	; 0x40
 8007dce:	e00b      	b.n	8007de8 <SEGGER_SYSVIEW_SendTaskInfo+0x4c>
 8007dd0:	6c3b      	ldr	r3, [r7, #64]	; 0x40
 8007dd2:	b2da      	uxtb	r2, r3
 8007dd4:	6c7b      	ldr	r3, [r7, #68]	; 0x44
 8007dd6:	1c59      	adds	r1, r3, #1
 8007dd8:	6479      	str	r1, [r7, #68]	; 0x44
 8007dda:	f062 027f 	orn	r2, r2, #127	; 0x7f
 8007dde:	b2d2      	uxtb	r2, r2
 8007de0:	701a      	strb	r2, [r3, #0]
 8007de2:	6c3b      	ldr	r3, [r7, #64]	; 0x40
 8007de4:	09db      	lsrs	r3, r3, #7
 8007de6:	643b      	str	r3, [r7, #64]	; 0x40
 8007de8:	6c3b      	ldr	r3, [r7, #64]	; 0x40
 8007dea:	2b7f      	cmp	r3, #127	; 0x7f
 8007dec:	d8f0      	bhi.n	8007dd0 <SEGGER_SYSVIEW_SendTaskInfo+0x34>
 8007dee:	6c7b      	ldr	r3, [r7, #68]	; 0x44
 8007df0:	1c5a      	adds	r2, r3, #1
 8007df2:	647a      	str	r2, [r7, #68]	; 0x44
 8007df4:	6c3a      	ldr	r2, [r7, #64]	; 0x40
 8007df6:	b2d2      	uxtb	r2, r2
 8007df8:	701a      	strb	r2, [r3, #0]
 8007dfa:	6c7b      	ldr	r3, [r7, #68]	; 0x44
 8007dfc:	60fb      	str	r3, [r7, #12]
  ENCODE_U32(pPayload, pInfo->Prio);
 8007dfe:	68fb      	ldr	r3, [r7, #12]
 8007e00:	63fb      	str	r3, [r7, #60]	; 0x3c
 8007e02:	687b      	ldr	r3, [r7, #4]
 8007e04:	689b      	ldr	r3, [r3, #8]
 8007e06:	63bb      	str	r3, [r7, #56]	; 0x38
 8007e08:	e00b      	b.n	8007e22 <SEGGER_SYSVIEW_SendTaskInfo+0x86>
 8007e0a:	6bbb      	ldr	r3, [r7, #56]	; 0x38
 8007e0c:	b2da      	uxtb	r2, r3
 8007e0e:	6bfb      	ldr	r3, [r7, #60]	; 0x3c
 8007e10:	1c59      	adds	r1, r3, #1
 8007e12:	63f9      	str	r1, [r7, #60]	; 0x3c
 8007e14:	f062 027f 	orn	r2, r2, #127	; 0x7f
 8007e18:	b2d2      	uxtb	r2, r2
 8007e1a:	701a      	strb	r2, [r3, #0]
 8007e1c:	6bbb      	ldr	r3, [r7, #56]	; 0x38
 8007e1e:	09db      	lsrs	r3, r3, #7
 8007e20:	63bb      	str	r3, [r7, #56]	; 0x38
 8007e22:	6bbb      	ldr	r3, [r7, #56]	; 0x38
 8007e24:	2b7f      	cmp	r3, #127	; 0x7f
 8007e26:	d8f0      	bhi.n	8007e0a <SEGGER_SYSVIEW_SendTaskInfo+0x6e>
 8007e28:	6bfb      	ldr	r3, [r7, #60]	; 0x3c
 8007e2a:	1c5a      	adds	r2, r3, #1
 8007e2c:	63fa      	str	r2, [r7, #60]	; 0x3c
 8007e2e:	6bba      	ldr	r2, [r7, #56]	; 0x38
 8007e30:	b2d2      	uxtb	r2, r2
 8007e32:	701a      	strb	r2, [r3, #0]
 8007e34:	6bfb      	ldr	r3, [r7, #60]	; 0x3c
 8007e36:	60fb      	str	r3, [r7, #12]
  pPayload = _EncodeStr(pPayload, pInfo->sName, 32);
 8007e38:	687b      	ldr	r3, [r7, #4]
 8007e3a:	685b      	ldr	r3, [r3, #4]
 8007e3c:	2220      	movs	r2, #32
 8007e3e:	4619      	mov	r1, r3
 8007e40:	68f8      	ldr	r0, [r7, #12]
 8007e42:	f7ff fa99 	bl	8007378 <_EncodeStr>
 8007e46:	60f8      	str	r0, [r7, #12]
  _SendPacket(pPayloadStart, pPayload, SYSVIEW_EVTID_TASK_INFO);
 8007e48:	2209      	movs	r2, #9
 8007e4a:	68f9      	ldr	r1, [r7, #12]
 8007e4c:	6938      	ldr	r0, [r7, #16]
 8007e4e:	f7ff fbc9 	bl	80075e4 <_SendPacket>
  //
  pPayload = pPayloadStart;
 8007e52:	693b      	ldr	r3, [r7, #16]
 8007e54:	60fb      	str	r3, [r7, #12]
  ENCODE_U32(pPayload, SHRINK_ID(pInfo->TaskID));
 8007e56:	68fb      	ldr	r3, [r7, #12]
 8007e58:	637b      	str	r3, [r7, #52]	; 0x34
 8007e5a:	687b      	ldr	r3, [r7, #4]
 8007e5c:	681a      	ldr	r2, [r3, #0]
 8007e5e:	4b40      	ldr	r3, [pc, #256]	; (8007f60 <SEGGER_SYSVIEW_SendTaskInfo+0x1c4>)
 8007e60:	691b      	ldr	r3, [r3, #16]
 8007e62:	1ad3      	subs	r3, r2, r3
 8007e64:	633b      	str	r3, [r7, #48]	; 0x30
 8007e66:	e00b      	b.n	8007e80 <SEGGER_SYSVIEW_SendTaskInfo+0xe4>
 8007e68:	6b3b      	ldr	r3, [r7, #48]	; 0x30
 8007e6a:	b2da      	uxtb	r2, r3
 8007e6c:	6b7b      	ldr	r3, [r7, #52]	; 0x34
 8007e6e:	1c59      	adds	r1, r3, #1
 8007e70:	6379      	str	r1, [r7, #52]	; 0x34
 8007e72:	f062 027f 	orn	r2, r2, #127	; 0x7f
 8007e76:	b2d2      	uxtb	r2, r2
 8007e78:	701a      	strb	r2, [r3, #0]
 8007e7a:	6b3b      	ldr	r3, [r7, #48]	; 0x30
 8007e7c:	09db      	lsrs	r3, r3, #7
 8007e7e:	633b      	str	r3, [r7, #48]	; 0x30
 8007e80:	6b3b      	ldr	r3, [r7, #48]	; 0x30
 8007e82:	2b7f      	cmp	r3, #127	; 0x7f
 8007e84:	d8f0      	bhi.n	8007e68 <SEGGER_SYSVIEW_SendTaskInfo+0xcc>
 8007e86:	6b7b      	ldr	r3, [r7, #52]	; 0x34
 8007e88:	1c5a      	adds	r2, r3, #1
 8007e8a:	637a      	str	r2, [r7, #52]	; 0x34
 8007e8c:	6b3a      	ldr	r2, [r7, #48]	; 0x30
 8007e8e:	b2d2      	uxtb	r2, r2
 8007e90:	701a      	strb	r2, [r3, #0]
 8007e92:	6b7b      	ldr	r3, [r7, #52]	; 0x34
 8007e94:	60fb      	str	r3, [r7, #12]
  ENCODE_U32(pPayload, pInfo->StackBase);
 8007e96:	68fb      	ldr	r3, [r7, #12]
 8007e98:	62fb      	str	r3, [r7, #44]	; 0x2c
 8007e9a:	687b      	ldr	r3, [r7, #4]
 8007e9c:	68db      	ldr	r3, [r3, #12]
 8007e9e:	62bb      	str	r3, [r7, #40]	; 0x28
 8007ea0:	e00b      	b.n	8007eba <SEGGER_SYSVIEW_SendTaskInfo+0x11e>
 8007ea2:	6abb      	ldr	r3, [r7, #40]	; 0x28
 8007ea4:	b2da      	uxtb	r2, r3
 8007ea6:	6afb      	ldr	r3, [r7, #44]	; 0x2c
 8007ea8:	1c59      	adds	r1, r3, #1
 8007eaa:	62f9      	str	r1, [r7, #44]	; 0x2c
 8007eac:	f062 027f 	orn	r2, r2, #127	; 0x7f
 8007eb0:	b2d2      	uxtb	r2, r2
 8007eb2:	701a      	strb	r2, [r3, #0]
 8007eb4:	6abb      	ldr	r3, [r7, #40]	; 0x28
 8007eb6:	09db      	lsrs	r3, r3, #7
 8007eb8:	62bb      	str	r3, [r7, #40]	; 0x28
 8007eba:	6abb      	ldr	r3, [r7, #40]	; 0x28
 8007ebc:	2b7f      	cmp	r3, #127	; 0x7f
 8007ebe:	d8f0      	bhi.n	8007ea2 <SEGGER_SYSVIEW_SendTaskInfo+0x106>
 8007ec0:	6afb      	ldr	r3, [r7, #44]	; 0x2c
 8007ec2:	1c5a      	adds	r2, r3, #1
 8007ec4:	62fa      	str	r2, [r7, #44]	; 0x2c
 8007ec6:	6aba      	ldr	r2, [r7, #40]	; 0x28
 8007ec8:	b2d2      	uxtb	r2, r2
 8007eca:	701a      	strb	r2, [r3, #0]
 8007ecc:	6afb      	ldr	r3, [r7, #44]	; 0x2c
 8007ece:	60fb      	str	r3, [r7, #12]
  ENCODE_U32(pPayload, pInfo->StackSize);
 8007ed0:	68fb      	ldr	r3, [r7, #12]
 8007ed2:	627b      	str	r3, [r7, #36]	; 0x24
 8007ed4:	687b      	ldr	r3, [r7, #4]
 8007ed6:	691b      	ldr	r3, [r3, #16]
 8007ed8:	623b      	str	r3, [r7, #32]
 8007eda:	e00b      	b.n	8007ef4 <SEGGER_SYSVIEW_SendTaskInfo+0x158>
 8007edc:	6a3b      	ldr	r3, [r7, #32]
 8007ede:	b2da      	uxtb	r2, r3
 8007ee0:	6a7b      	ldr	r3, [r7, #36]	; 0x24
 8007ee2:	1c59      	adds	r1, r3, #1
 8007ee4:	6279      	str	r1, [r7, #36]	; 0x24
 8007ee6:	f062 027f 	orn	r2, r2, #127	; 0x7f
 8007eea:	b2d2      	uxtb	r2, r2
 8007eec:	701a      	strb	r2, [r3, #0]
 8007eee:	6a3b      	ldr	r3, [r7, #32]
 8007ef0:	09db      	lsrs	r3, r3, #7
 8007ef2:	623b      	str	r3, [r7, #32]
 8007ef4:	6a3b      	ldr	r3, [r7, #32]
 8007ef6:	2b7f      	cmp	r3, #127	; 0x7f
 8007ef8:	d8f0      	bhi.n	8007edc <SEGGER_SYSVIEW_SendTaskInfo+0x140>
 8007efa:	6a7b      	ldr	r3, [r7, #36]	; 0x24
 8007efc:	1c5a      	adds	r2, r3, #1
 8007efe:	627a      	str	r2, [r7, #36]	; 0x24
 8007f00:	6a3a      	ldr	r2, [r7, #32]
 8007f02:	b2d2      	uxtb	r2, r2
 8007f04:	701a      	strb	r2, [r3, #0]
 8007f06:	6a7b      	ldr	r3, [r7, #36]	; 0x24
 8007f08:	60fb      	str	r3, [r7, #12]
  ENCODE_U32(pPayload, 0); // Stack End, future use
 8007f0a:	68fb      	ldr	r3, [r7, #12]
 8007f0c:	61fb      	str	r3, [r7, #28]
 8007f0e:	2300      	movs	r3, #0
 8007f10:	61bb      	str	r3, [r7, #24]
 8007f12:	e00b      	b.n	8007f2c <SEGGER_SYSVIEW_SendTaskInfo+0x190>
 8007f14:	69bb      	ldr	r3, [r7, #24]
 8007f16:	b2da      	uxtb	r2, r3
 8007f18:	69fb      	ldr	r3, [r7, #28]
 8007f1a:	1c59      	adds	r1, r3, #1
 8007f1c:	61f9      	str	r1, [r7, #28]
 8007f1e:	f062 027f 	orn	r2, r2, #127	; 0x7f
 8007f22:	b2d2      	uxtb	r2, r2
 8007f24:	701a      	strb	r2, [r3, #0]
 8007f26:	69bb      	ldr	r3, [r7, #24]
 8007f28:	09db      	lsrs	r3, r3, #7
 8007f2a:	61bb      	str	r3, [r7, #24]
 8007f2c:	69bb      	ldr	r3, [r7, #24]
 8007f2e:	2b7f      	cmp	r3, #127	; 0x7f
 8007f30:	d8f0      	bhi.n	8007f14 <SEGGER_SYSVIEW_SendTaskInfo+0x178>
 8007f32:	69fb      	ldr	r3, [r7, #28]
 8007f34:	1c5a      	adds	r2, r3, #1
 8007f36:	61fa      	str	r2, [r7, #28]
 8007f38:	69ba      	ldr	r2, [r7, #24]
 8007f3a:	b2d2      	uxtb	r2, r2
 8007f3c:	701a      	strb	r2, [r3, #0]
 8007f3e:	69fb      	ldr	r3, [r7, #28]
 8007f40:	60fb      	str	r3, [r7, #12]
  _SendPacket(pPayloadStart, pPayload, SYSVIEW_EVTID_STACK_INFO);
 8007f42:	2215      	movs	r2, #21
 8007f44:	68f9      	ldr	r1, [r7, #12]
 8007f46:	6938      	ldr	r0, [r7, #16]
 8007f48:	f7ff fb4c 	bl	80075e4 <_SendPacket>
  RECORD_END();
 8007f4c:	697b      	ldr	r3, [r7, #20]
 8007f4e:	f383 8811 	msr	BASEPRI, r3
}
 8007f52:	bf00      	nop
 8007f54:	3748      	adds	r7, #72	; 0x48
 8007f56:	46bd      	mov	sp, r7
 8007f58:	bd80      	pop	{r7, pc}
 8007f5a:	bf00      	nop
 8007f5c:	20004340 	.word	0x20004340
 8007f60:	20004310 	.word	0x20004310

08007f64 <SEGGER_SYSVIEW_SendTaskList>:
*       SEGGER_SYSVIEW_SendTaskList()
*
*  Function description
*    Send all tasks descriptors to the host.
*/
void SEGGER_SYSVIEW_SendTaskList(void) {
 8007f64:	b580      	push	{r7, lr}
 8007f66:	af00      	add	r7, sp, #0
  if (_SYSVIEW_Globals.pOSAPI && _SYSVIEW_Globals.pOSAPI->pfSendTaskList) {
 8007f68:	4b07      	ldr	r3, [pc, #28]	; (8007f88 <SEGGER_SYSVIEW_SendTaskList+0x24>)
 8007f6a:	6a1b      	ldr	r3, [r3, #32]
 8007f6c:	2b00      	cmp	r3, #0
 8007f6e:	d008      	beq.n	8007f82 <SEGGER_SYSVIEW_SendTaskList+0x1e>
 8007f70:	4b05      	ldr	r3, [pc, #20]	; (8007f88 <SEGGER_SYSVIEW_SendTaskList+0x24>)
 8007f72:	6a1b      	ldr	r3, [r3, #32]
 8007f74:	685b      	ldr	r3, [r3, #4]
 8007f76:	2b00      	cmp	r3, #0
 8007f78:	d003      	beq.n	8007f82 <SEGGER_SYSVIEW_SendTaskList+0x1e>
    _SYSVIEW_Globals.pOSAPI->pfSendTaskList();
 8007f7a:	4b03      	ldr	r3, [pc, #12]	; (8007f88 <SEGGER_SYSVIEW_SendTaskList+0x24>)
 8007f7c:	6a1b      	ldr	r3, [r3, #32]
 8007f7e:	685b      	ldr	r3, [r3, #4]
 8007f80:	4798      	blx	r3
  }
}
 8007f82:	bf00      	nop
 8007f84:	bd80      	pop	{r7, pc}
 8007f86:	bf00      	nop
 8007f88:	20004310 	.word	0x20004310

08007f8c <SEGGER_SYSVIEW_SendSysDesc>:
*
*    The Following items can be described in a system description string.
*    Each item is identified by its identifier, followed by '=' and the value.
*    Items are separated by ','.
*/
void SEGGER_SYSVIEW_SendSysDesc(const char *sSysDesc) {
 8007f8c:	b580      	push	{r7, lr}
 8007f8e:	b086      	sub	sp, #24
 8007f90:	af00      	add	r7, sp, #0
 8007f92:	6078      	str	r0, [r7, #4]
  U8* pPayload;
  U8* pPayloadStart;
  RECORD_START(SEGGER_SYSVIEW_INFO_SIZE + 1 + SEGGER_SYSVIEW_MAX_STRING_LEN);
 8007f94:	f3ef 8311 	mrs	r3, BASEPRI
 8007f98:	f04f 0120 	mov.w	r1, #32
 8007f9c:	f381 8811 	msr	BASEPRI, r1
 8007fa0:	617b      	str	r3, [r7, #20]
 8007fa2:	480b      	ldr	r0, [pc, #44]	; (8007fd0 <SEGGER_SYSVIEW_SendSysDesc+0x44>)
 8007fa4:	f7ff fa34 	bl	8007410 <_PreparePacket>
 8007fa8:	6138      	str	r0, [r7, #16]
  //
  pPayload = _EncodeStr(pPayloadStart, sSysDesc, SEGGER_SYSVIEW_MAX_STRING_LEN);
 8007faa:	2280      	movs	r2, #128	; 0x80
 8007fac:	6879      	ldr	r1, [r7, #4]
 8007fae:	6938      	ldr	r0, [r7, #16]
 8007fb0:	f7ff f9e2 	bl	8007378 <_EncodeStr>
 8007fb4:	60f8      	str	r0, [r7, #12]
  _SendPacket(pPayloadStart, pPayload, SYSVIEW_EVTID_SYSDESC);
 8007fb6:	220e      	movs	r2, #14
 8007fb8:	68f9      	ldr	r1, [r7, #12]
 8007fba:	6938      	ldr	r0, [r7, #16]
 8007fbc:	f7ff fb12 	bl	80075e4 <_SendPacket>
  RECORD_END();
 8007fc0:	697b      	ldr	r3, [r7, #20]
 8007fc2:	f383 8811 	msr	BASEPRI, r3
}
 8007fc6:	bf00      	nop
 8007fc8:	3718      	adds	r7, #24
 8007fca:	46bd      	mov	sp, r7
 8007fcc:	bd80      	pop	{r7, pc}
 8007fce:	bf00      	nop
 8007fd0:	20004340 	.word	0x20004340

08007fd4 <SEGGER_SYSVIEW_RecordSystime>:
*
*  Function description
*    Formats and sends a SystemView Systime containing a single U64 or U32
*    parameter payload.
*/
void SEGGER_SYSVIEW_RecordSystime(void) {
 8007fd4:	b590      	push	{r4, r7, lr}
 8007fd6:	b083      	sub	sp, #12
 8007fd8:	af00      	add	r7, sp, #0
  U64 Systime;

  if (_SYSVIEW_Globals.pOSAPI && _SYSVIEW_Globals.pOSAPI->pfGetTime) {
 8007fda:	4b14      	ldr	r3, [pc, #80]	; (800802c <SEGGER_SYSVIEW_RecordSystime+0x58>)
 8007fdc:	6a1b      	ldr	r3, [r3, #32]
 8007fde:	2b00      	cmp	r3, #0
 8007fe0:	d019      	beq.n	8008016 <SEGGER_SYSVIEW_RecordSystime+0x42>
 8007fe2:	4b12      	ldr	r3, [pc, #72]	; (800802c <SEGGER_SYSVIEW_RecordSystime+0x58>)
 8007fe4:	6a1b      	ldr	r3, [r3, #32]
 8007fe6:	681b      	ldr	r3, [r3, #0]
 8007fe8:	2b00      	cmp	r3, #0
 8007fea:	d014      	beq.n	8008016 <SEGGER_SYSVIEW_RecordSystime+0x42>
    Systime = _SYSVIEW_Globals.pOSAPI->pfGetTime();
 8007fec:	4b0f      	ldr	r3, [pc, #60]	; (800802c <SEGGER_SYSVIEW_RecordSystime+0x58>)
 8007fee:	6a1b      	ldr	r3, [r3, #32]
 8007ff0:	681b      	ldr	r3, [r3, #0]
 8007ff2:	4798      	blx	r3
 8007ff4:	e9c7 0100 	strd	r0, r1, [r7]
    SEGGER_SYSVIEW_RecordU32x2(SYSVIEW_EVTID_SYSTIME_US,
 8007ff8:	6838      	ldr	r0, [r7, #0]
                               (U32)(Systime),
                               (U32)(Systime >> 32));
 8007ffa:	e9d7 1200 	ldrd	r1, r2, [r7]
 8007ffe:	f04f 0300 	mov.w	r3, #0
 8008002:	f04f 0400 	mov.w	r4, #0
 8008006:	0013      	movs	r3, r2
 8008008:	2400      	movs	r4, #0
    SEGGER_SYSVIEW_RecordU32x2(SYSVIEW_EVTID_SYSTIME_US,
 800800a:	461a      	mov	r2, r3
 800800c:	4601      	mov	r1, r0
 800800e:	200d      	movs	r0, #13
 8008010:	f7ff fc7a 	bl	8007908 <SEGGER_SYSVIEW_RecordU32x2>
 8008014:	e005      	b.n	8008022 <SEGGER_SYSVIEW_RecordSystime+0x4e>
  } else {
    SEGGER_SYSVIEW_RecordU32(SYSVIEW_EVTID_SYSTIME_CYCLES, SEGGER_SYSVIEW_GET_TIMESTAMP());
 8008016:	4b06      	ldr	r3, [pc, #24]	; (8008030 <SEGGER_SYSVIEW_RecordSystime+0x5c>)
 8008018:	681b      	ldr	r3, [r3, #0]
 800801a:	4619      	mov	r1, r3
 800801c:	200c      	movs	r0, #12
 800801e:	f7ff fc37 	bl	8007890 <SEGGER_SYSVIEW_RecordU32>
  }
}
 8008022:	bf00      	nop
 8008024:	370c      	adds	r7, #12
 8008026:	46bd      	mov	sp, r7
 8008028:	bd90      	pop	{r4, r7, pc}
 800802a:	bf00      	nop
 800802c:	20004310 	.word	0x20004310
 8008030:	e0001004 	.word	0xe0001004

08008034 <SEGGER_SYSVIEW_RecordEnterISR>:
*
*  Additional information
*    Example packets sent
*      02 0F 50              // ISR(15) Enter. Timestamp is 80 (0x50)
*/
void SEGGER_SYSVIEW_RecordEnterISR(void) {
 8008034:	b580      	push	{r7, lr}
 8008036:	b086      	sub	sp, #24
 8008038:	af00      	add	r7, sp, #0
  unsigned v;
  U8* pPayload;
  U8* pPayloadStart;
  RECORD_START(SEGGER_SYSVIEW_INFO_SIZE + SEGGER_SYSVIEW_QUANTA_U32);
 800803a:	f3ef 8311 	mrs	r3, BASEPRI
 800803e:	f04f 0120 	mov.w	r1, #32
 8008042:	f381 8811 	msr	BASEPRI, r1
 8008046:	60fb      	str	r3, [r7, #12]
 8008048:	4819      	ldr	r0, [pc, #100]	; (80080b0 <SEGGER_SYSVIEW_RecordEnterISR+0x7c>)
 800804a:	f7ff f9e1 	bl	8007410 <_PreparePacket>
 800804e:	60b8      	str	r0, [r7, #8]
  //
  pPayload = pPayloadStart;
 8008050:	68bb      	ldr	r3, [r7, #8]
 8008052:	607b      	str	r3, [r7, #4]
  v = SEGGER_SYSVIEW_GET_INTERRUPT_ID();
 8008054:	4b17      	ldr	r3, [pc, #92]	; (80080b4 <SEGGER_SYSVIEW_RecordEnterISR+0x80>)
 8008056:	681b      	ldr	r3, [r3, #0]
 8008058:	f3c3 0308 	ubfx	r3, r3, #0, #9
 800805c:	603b      	str	r3, [r7, #0]
  ENCODE_U32(pPayload, v);
 800805e:	687b      	ldr	r3, [r7, #4]
 8008060:	617b      	str	r3, [r7, #20]
 8008062:	683b      	ldr	r3, [r7, #0]
 8008064:	613b      	str	r3, [r7, #16]
 8008066:	e00b      	b.n	8008080 <SEGGER_SYSVIEW_RecordEnterISR+0x4c>
 8008068:	693b      	ldr	r3, [r7, #16]
 800806a:	b2da      	uxtb	r2, r3
 800806c:	697b      	ldr	r3, [r7, #20]
 800806e:	1c59      	adds	r1, r3, #1
 8008070:	6179      	str	r1, [r7, #20]
 8008072:	f062 027f 	orn	r2, r2, #127	; 0x7f
 8008076:	b2d2      	uxtb	r2, r2
 8008078:	701a      	strb	r2, [r3, #0]
 800807a:	693b      	ldr	r3, [r7, #16]
 800807c:	09db      	lsrs	r3, r3, #7
 800807e:	613b      	str	r3, [r7, #16]
 8008080:	693b      	ldr	r3, [r7, #16]
 8008082:	2b7f      	cmp	r3, #127	; 0x7f
 8008084:	d8f0      	bhi.n	8008068 <SEGGER_SYSVIEW_RecordEnterISR+0x34>
 8008086:	697b      	ldr	r3, [r7, #20]
 8008088:	1c5a      	adds	r2, r3, #1
 800808a:	617a      	str	r2, [r7, #20]
 800808c:	693a      	ldr	r2, [r7, #16]
 800808e:	b2d2      	uxtb	r2, r2
 8008090:	701a      	strb	r2, [r3, #0]
 8008092:	697b      	ldr	r3, [r7, #20]
 8008094:	607b      	str	r3, [r7, #4]
  _SendPacket(pPayloadStart, pPayload, SYSVIEW_EVTID_ISR_ENTER);
 8008096:	2202      	movs	r2, #2
 8008098:	6879      	ldr	r1, [r7, #4]
 800809a:	68b8      	ldr	r0, [r7, #8]
 800809c:	f7ff faa2 	bl	80075e4 <_SendPacket>
  RECORD_END();
 80080a0:	68fb      	ldr	r3, [r7, #12]
 80080a2:	f383 8811 	msr	BASEPRI, r3
}
 80080a6:	bf00      	nop
 80080a8:	3718      	adds	r7, #24
 80080aa:	46bd      	mov	sp, r7
 80080ac:	bd80      	pop	{r7, pc}
 80080ae:	bf00      	nop
 80080b0:	20004340 	.word	0x20004340
 80080b4:	e000ed04 	.word	0xe000ed04

080080b8 <SEGGER_SYSVIEW_RecordExitISR>:
*      03 <TimeStamp>        // Max. packet len is 6
*
*    Example packets sent
*      03 20                // ISR Exit. Timestamp is 32 (0x20)
*/
void SEGGER_SYSVIEW_RecordExitISR(void) {
 80080b8:	b580      	push	{r7, lr}
 80080ba:	b082      	sub	sp, #8
 80080bc:	af00      	add	r7, sp, #0
  U8* pPayloadStart;
  RECORD_START(SEGGER_SYSVIEW_INFO_SIZE);
 80080be:	f3ef 8311 	mrs	r3, BASEPRI
 80080c2:	f04f 0120 	mov.w	r1, #32
 80080c6:	f381 8811 	msr	BASEPRI, r1
 80080ca:	607b      	str	r3, [r7, #4]
 80080cc:	4807      	ldr	r0, [pc, #28]	; (80080ec <SEGGER_SYSVIEW_RecordExitISR+0x34>)
 80080ce:	f7ff f99f 	bl	8007410 <_PreparePacket>
 80080d2:	6038      	str	r0, [r7, #0]
  //
  _SendPacket(pPayloadStart, pPayloadStart, SYSVIEW_EVTID_ISR_EXIT);
 80080d4:	2203      	movs	r2, #3
 80080d6:	6839      	ldr	r1, [r7, #0]
 80080d8:	6838      	ldr	r0, [r7, #0]
 80080da:	f7ff fa83 	bl	80075e4 <_SendPacket>
  RECORD_END();
 80080de:	687b      	ldr	r3, [r7, #4]
 80080e0:	f383 8811 	msr	BASEPRI, r3
}
 80080e4:	bf00      	nop
 80080e6:	3708      	adds	r7, #8
 80080e8:	46bd      	mov	sp, r7
 80080ea:	bd80      	pop	{r7, pc}
 80080ec:	20004340 	.word	0x20004340

080080f0 <SEGGER_SYSVIEW_RecordExitISRToScheduler>:
*      18 <TimeStamp>        // Max. packet len is 6
*
*    Example packets sent
*      18 20                // ISR Exit to Scheduler. Timestamp is 32 (0x20)
*/
void SEGGER_SYSVIEW_RecordExitISRToScheduler(void) {
 80080f0:	b580      	push	{r7, lr}
 80080f2:	b082      	sub	sp, #8
 80080f4:	af00      	add	r7, sp, #0
  U8* pPayloadStart;
  RECORD_START(SEGGER_SYSVIEW_INFO_SIZE);
 80080f6:	f3ef 8311 	mrs	r3, BASEPRI
 80080fa:	f04f 0120 	mov.w	r1, #32
 80080fe:	f381 8811 	msr	BASEPRI, r1
 8008102:	607b      	str	r3, [r7, #4]
 8008104:	4807      	ldr	r0, [pc, #28]	; (8008124 <SEGGER_SYSVIEW_RecordExitISRToScheduler+0x34>)
 8008106:	f7ff f983 	bl	8007410 <_PreparePacket>
 800810a:	6038      	str	r0, [r7, #0]
  //
  _SendPacket(pPayloadStart, pPayloadStart, SYSVIEW_EVTID_ISR_TO_SCHEDULER);
 800810c:	2212      	movs	r2, #18
 800810e:	6839      	ldr	r1, [r7, #0]
 8008110:	6838      	ldr	r0, [r7, #0]
 8008112:	f7ff fa67 	bl	80075e4 <_SendPacket>
  RECORD_END();
 8008116:	687b      	ldr	r3, [r7, #4]
 8008118:	f383 8811 	msr	BASEPRI, r3
}
 800811c:	bf00      	nop
 800811e:	3708      	adds	r7, #8
 8008120:	46bd      	mov	sp, r7
 8008122:	bd80      	pop	{r7, pc}
 8008124:	20004340 	.word	0x20004340

08008128 <SEGGER_SYSVIEW_OnIdle>:
*       SEGGER_SYSVIEW_OnIdle()
*
*  Function description
*    Record an Idle event.
*/
void SEGGER_SYSVIEW_OnIdle(void) {
 8008128:	b580      	push	{r7, lr}
 800812a:	b082      	sub	sp, #8
 800812c:	af00      	add	r7, sp, #0
  U8* pPayloadStart;
  RECORD_START(SEGGER_SYSVIEW_INFO_SIZE);
 800812e:	f3ef 8311 	mrs	r3, BASEPRI
 8008132:	f04f 0120 	mov.w	r1, #32
 8008136:	f381 8811 	msr	BASEPRI, r1
 800813a:	607b      	str	r3, [r7, #4]
 800813c:	4807      	ldr	r0, [pc, #28]	; (800815c <SEGGER_SYSVIEW_OnIdle+0x34>)
 800813e:	f7ff f967 	bl	8007410 <_PreparePacket>
 8008142:	6038      	str	r0, [r7, #0]
  //
  _SendPacket(pPayloadStart, pPayloadStart, SYSVIEW_EVTID_IDLE);
 8008144:	2211      	movs	r2, #17
 8008146:	6839      	ldr	r1, [r7, #0]
 8008148:	6838      	ldr	r0, [r7, #0]
 800814a:	f7ff fa4b 	bl	80075e4 <_SendPacket>
  RECORD_END();
 800814e:	687b      	ldr	r3, [r7, #4]
 8008150:	f383 8811 	msr	BASEPRI, r3
}
 8008154:	bf00      	nop
 8008156:	3708      	adds	r7, #8
 8008158:	46bd      	mov	sp, r7
 800815a:	bd80      	pop	{r7, pc}
 800815c:	20004340 	.word	0x20004340

08008160 <SEGGER_SYSVIEW_OnTaskCreate>:
*    to creating a task in the OS.
*
*  Parameters
*    TaskId        - Task ID of created task.
*/
void SEGGER_SYSVIEW_OnTaskCreate(U32 TaskId) {
 8008160:	b580      	push	{r7, lr}
 8008162:	b088      	sub	sp, #32
 8008164:	af00      	add	r7, sp, #0
 8008166:	6078      	str	r0, [r7, #4]
  U8* pPayload;
  U8* pPayloadStart;
  RECORD_START(SEGGER_SYSVIEW_INFO_SIZE + SEGGER_SYSVIEW_QUANTA_U32);
 8008168:	f3ef 8311 	mrs	r3, BASEPRI
 800816c:	f04f 0120 	mov.w	r1, #32
 8008170:	f381 8811 	msr	BASEPRI, r1
 8008174:	617b      	str	r3, [r7, #20]
 8008176:	4819      	ldr	r0, [pc, #100]	; (80081dc <SEGGER_SYSVIEW_OnTaskCreate+0x7c>)
 8008178:	f7ff f94a 	bl	8007410 <_PreparePacket>
 800817c:	6138      	str	r0, [r7, #16]
  //
  pPayload = pPayloadStart;
 800817e:	693b      	ldr	r3, [r7, #16]
 8008180:	60fb      	str	r3, [r7, #12]
  TaskId = SHRINK_ID(TaskId);
 8008182:	4b17      	ldr	r3, [pc, #92]	; (80081e0 <SEGGER_SYSVIEW_OnTaskCreate+0x80>)
 8008184:	691b      	ldr	r3, [r3, #16]
 8008186:	687a      	ldr	r2, [r7, #4]
 8008188:	1ad3      	subs	r3, r2, r3
 800818a:	607b      	str	r3, [r7, #4]
  ENCODE_U32(pPayload, TaskId);
 800818c:	68fb      	ldr	r3, [r7, #12]
 800818e:	61fb      	str	r3, [r7, #28]
 8008190:	687b      	ldr	r3, [r7, #4]
 8008192:	61bb      	str	r3, [r7, #24]
 8008194:	e00b      	b.n	80081ae <SEGGER_SYSVIEW_OnTaskCreate+0x4e>
 8008196:	69bb      	ldr	r3, [r7, #24]
 8008198:	b2da      	uxtb	r2, r3
 800819a:	69fb      	ldr	r3, [r7, #28]
 800819c:	1c59      	adds	r1, r3, #1
 800819e:	61f9      	str	r1, [r7, #28]
 80081a0:	f062 027f 	orn	r2, r2, #127	; 0x7f
 80081a4:	b2d2      	uxtb	r2, r2
 80081a6:	701a      	strb	r2, [r3, #0]
 80081a8:	69bb      	ldr	r3, [r7, #24]
 80081aa:	09db      	lsrs	r3, r3, #7
 80081ac:	61bb      	str	r3, [r7, #24]
 80081ae:	69bb      	ldr	r3, [r7, #24]
 80081b0:	2b7f      	cmp	r3, #127	; 0x7f
 80081b2:	d8f0      	bhi.n	8008196 <SEGGER_SYSVIEW_OnTaskCreate+0x36>
 80081b4:	69fb      	ldr	r3, [r7, #28]
 80081b6:	1c5a      	adds	r2, r3, #1
 80081b8:	61fa      	str	r2, [r7, #28]
 80081ba:	69ba      	ldr	r2, [r7, #24]
 80081bc:	b2d2      	uxtb	r2, r2
 80081be:	701a      	strb	r2, [r3, #0]
 80081c0:	69fb      	ldr	r3, [r7, #28]
 80081c2:	60fb      	str	r3, [r7, #12]
  _SendPacket(pPayloadStart, pPayload, SYSVIEW_EVTID_TASK_CREATE);
 80081c4:	2208      	movs	r2, #8
 80081c6:	68f9      	ldr	r1, [r7, #12]
 80081c8:	6938      	ldr	r0, [r7, #16]
 80081ca:	f7ff fa0b 	bl	80075e4 <_SendPacket>
  RECORD_END();
 80081ce:	697b      	ldr	r3, [r7, #20]
 80081d0:	f383 8811 	msr	BASEPRI, r3
}
 80081d4:	bf00      	nop
 80081d6:	3720      	adds	r7, #32
 80081d8:	46bd      	mov	sp, r7
 80081da:	bd80      	pop	{r7, pc}
 80081dc:	20004340 	.word	0x20004340
 80081e0:	20004310 	.word	0x20004310

080081e4 <SEGGER_SYSVIEW_OnTaskStartExec>:
*    when it is ready to execute.
*
*  Parameters
*    TaskId - Task ID of task that started to execute.
*/
void SEGGER_SYSVIEW_OnTaskStartExec(U32 TaskId) {
 80081e4:	b580      	push	{r7, lr}
 80081e6:	b088      	sub	sp, #32
 80081e8:	af00      	add	r7, sp, #0
 80081ea:	6078      	str	r0, [r7, #4]
  U8* pPayload;
  U8* pPayloadStart;
  RECORD_START(SEGGER_SYSVIEW_INFO_SIZE + SEGGER_SYSVIEW_QUANTA_U32);
 80081ec:	f3ef 8311 	mrs	r3, BASEPRI
 80081f0:	f04f 0120 	mov.w	r1, #32
 80081f4:	f381 8811 	msr	BASEPRI, r1
 80081f8:	617b      	str	r3, [r7, #20]
 80081fa:	4819      	ldr	r0, [pc, #100]	; (8008260 <SEGGER_SYSVIEW_OnTaskStartExec+0x7c>)
 80081fc:	f7ff f908 	bl	8007410 <_PreparePacket>
 8008200:	6138      	str	r0, [r7, #16]
  //
  pPayload = pPayloadStart;
 8008202:	693b      	ldr	r3, [r7, #16]
 8008204:	60fb      	str	r3, [r7, #12]
  TaskId = SHRINK_ID(TaskId);
 8008206:	4b17      	ldr	r3, [pc, #92]	; (8008264 <SEGGER_SYSVIEW_OnTaskStartExec+0x80>)
 8008208:	691b      	ldr	r3, [r3, #16]
 800820a:	687a      	ldr	r2, [r7, #4]
 800820c:	1ad3      	subs	r3, r2, r3
 800820e:	607b      	str	r3, [r7, #4]
  ENCODE_U32(pPayload, TaskId);
 8008210:	68fb      	ldr	r3, [r7, #12]
 8008212:	61fb      	str	r3, [r7, #28]
 8008214:	687b      	ldr	r3, [r7, #4]
 8008216:	61bb      	str	r3, [r7, #24]
 8008218:	e00b      	b.n	8008232 <SEGGER_SYSVIEW_OnTaskStartExec+0x4e>
 800821a:	69bb      	ldr	r3, [r7, #24]
 800821c:	b2da      	uxtb	r2, r3
 800821e:	69fb      	ldr	r3, [r7, #28]
 8008220:	1c59      	adds	r1, r3, #1
 8008222:	61f9      	str	r1, [r7, #28]
 8008224:	f062 027f 	orn	r2, r2, #127	; 0x7f
 8008228:	b2d2      	uxtb	r2, r2
 800822a:	701a      	strb	r2, [r3, #0]
 800822c:	69bb      	ldr	r3, [r7, #24]
 800822e:	09db      	lsrs	r3, r3, #7
 8008230:	61bb      	str	r3, [r7, #24]
 8008232:	69bb      	ldr	r3, [r7, #24]
 8008234:	2b7f      	cmp	r3, #127	; 0x7f
 8008236:	d8f0      	bhi.n	800821a <SEGGER_SYSVIEW_OnTaskStartExec+0x36>
 8008238:	69fb      	ldr	r3, [r7, #28]
 800823a:	1c5a      	adds	r2, r3, #1
 800823c:	61fa      	str	r2, [r7, #28]
 800823e:	69ba      	ldr	r2, [r7, #24]
 8008240:	b2d2      	uxtb	r2, r2
 8008242:	701a      	strb	r2, [r3, #0]
 8008244:	69fb      	ldr	r3, [r7, #28]
 8008246:	60fb      	str	r3, [r7, #12]
  _SendPacket(pPayloadStart, pPayload, SYSVIEW_EVTID_TASK_START_EXEC);
 8008248:	2204      	movs	r2, #4
 800824a:	68f9      	ldr	r1, [r7, #12]
 800824c:	6938      	ldr	r0, [r7, #16]
 800824e:	f7ff f9c9 	bl	80075e4 <_SendPacket>
  RECORD_END();
 8008252:	697b      	ldr	r3, [r7, #20]
 8008254:	f383 8811 	msr	BASEPRI, r3
}
 8008258:	bf00      	nop
 800825a:	3720      	adds	r7, #32
 800825c:	46bd      	mov	sp, r7
 800825e:	bd80      	pop	{r7, pc}
 8008260:	20004340 	.word	0x20004340
 8008264:	20004310 	.word	0x20004310

08008268 <SEGGER_SYSVIEW_OnTaskStartReady>:
*    Record a Task Start Ready event.
*
*  Parameters
*    TaskId - Task ID of task that started to execute.
*/
void SEGGER_SYSVIEW_OnTaskStartReady(U32 TaskId) {
 8008268:	b580      	push	{r7, lr}
 800826a:	b088      	sub	sp, #32
 800826c:	af00      	add	r7, sp, #0
 800826e:	6078      	str	r0, [r7, #4]
  U8* pPayload;
  U8* pPayloadStart;
  RECORD_START(SEGGER_SYSVIEW_INFO_SIZE + SEGGER_SYSVIEW_QUANTA_U32);
 8008270:	f3ef 8311 	mrs	r3, BASEPRI
 8008274:	f04f 0120 	mov.w	r1, #32
 8008278:	f381 8811 	msr	BASEPRI, r1
 800827c:	617b      	str	r3, [r7, #20]
 800827e:	4819      	ldr	r0, [pc, #100]	; (80082e4 <SEGGER_SYSVIEW_OnTaskStartReady+0x7c>)
 8008280:	f7ff f8c6 	bl	8007410 <_PreparePacket>
 8008284:	6138      	str	r0, [r7, #16]
  //
  pPayload = pPayloadStart;
 8008286:	693b      	ldr	r3, [r7, #16]
 8008288:	60fb      	str	r3, [r7, #12]
  TaskId = SHRINK_ID(TaskId);
 800828a:	4b17      	ldr	r3, [pc, #92]	; (80082e8 <SEGGER_SYSVIEW_OnTaskStartReady+0x80>)
 800828c:	691b      	ldr	r3, [r3, #16]
 800828e:	687a      	ldr	r2, [r7, #4]
 8008290:	1ad3      	subs	r3, r2, r3
 8008292:	607b      	str	r3, [r7, #4]
  ENCODE_U32(pPayload, TaskId);
 8008294:	68fb      	ldr	r3, [r7, #12]
 8008296:	61fb      	str	r3, [r7, #28]
 8008298:	687b      	ldr	r3, [r7, #4]
 800829a:	61bb      	str	r3, [r7, #24]
 800829c:	e00b      	b.n	80082b6 <SEGGER_SYSVIEW_OnTaskStartReady+0x4e>
 800829e:	69bb      	ldr	r3, [r7, #24]
 80082a0:	b2da      	uxtb	r2, r3
 80082a2:	69fb      	ldr	r3, [r7, #28]
 80082a4:	1c59      	adds	r1, r3, #1
 80082a6:	61f9      	str	r1, [r7, #28]
 80082a8:	f062 027f 	orn	r2, r2, #127	; 0x7f
 80082ac:	b2d2      	uxtb	r2, r2
 80082ae:	701a      	strb	r2, [r3, #0]
 80082b0:	69bb      	ldr	r3, [r7, #24]
 80082b2:	09db      	lsrs	r3, r3, #7
 80082b4:	61bb      	str	r3, [r7, #24]
 80082b6:	69bb      	ldr	r3, [r7, #24]
 80082b8:	2b7f      	cmp	r3, #127	; 0x7f
 80082ba:	d8f0      	bhi.n	800829e <SEGGER_SYSVIEW_OnTaskStartReady+0x36>
 80082bc:	69fb      	ldr	r3, [r7, #28]
 80082be:	1c5a      	adds	r2, r3, #1
 80082c0:	61fa      	str	r2, [r7, #28]
 80082c2:	69ba      	ldr	r2, [r7, #24]
 80082c4:	b2d2      	uxtb	r2, r2
 80082c6:	701a      	strb	r2, [r3, #0]
 80082c8:	69fb      	ldr	r3, [r7, #28]
 80082ca:	60fb      	str	r3, [r7, #12]
  _SendPacket(pPayloadStart, pPayload, SYSVIEW_EVTID_TASK_START_READY);
 80082cc:	2206      	movs	r2, #6
 80082ce:	68f9      	ldr	r1, [r7, #12]
 80082d0:	6938      	ldr	r0, [r7, #16]
 80082d2:	f7ff f987 	bl	80075e4 <_SendPacket>
  RECORD_END();
 80082d6:	697b      	ldr	r3, [r7, #20]
 80082d8:	f383 8811 	msr	BASEPRI, r3
}
 80082dc:	bf00      	nop
 80082de:	3720      	adds	r7, #32
 80082e0:	46bd      	mov	sp, r7
 80082e2:	bd80      	pop	{r7, pc}
 80082e4:	20004340 	.word	0x20004340
 80082e8:	20004310 	.word	0x20004310

080082ec <SEGGER_SYSVIEW_OnTaskStopReady>:
*
*  Parameters
*    TaskId - Task ID of task that completed execution.
*    Cause  - Reason for task to stop (i.e. Idle/Sleep)
*/
void SEGGER_SYSVIEW_OnTaskStopReady(U32 TaskId, unsigned int Cause) {
 80082ec:	b580      	push	{r7, lr}
 80082ee:	b08a      	sub	sp, #40	; 0x28
 80082f0:	af00      	add	r7, sp, #0
 80082f2:	6078      	str	r0, [r7, #4]
 80082f4:	6039      	str	r1, [r7, #0]
  U8* pPayload;
  U8* pPayloadStart;
  RECORD_START(SEGGER_SYSVIEW_INFO_SIZE + 2 * SEGGER_SYSVIEW_QUANTA_U32);
 80082f6:	f3ef 8311 	mrs	r3, BASEPRI
 80082fa:	f04f 0120 	mov.w	r1, #32
 80082fe:	f381 8811 	msr	BASEPRI, r1
 8008302:	617b      	str	r3, [r7, #20]
 8008304:	4827      	ldr	r0, [pc, #156]	; (80083a4 <SEGGER_SYSVIEW_OnTaskStopReady+0xb8>)
 8008306:	f7ff f883 	bl	8007410 <_PreparePacket>
 800830a:	6138      	str	r0, [r7, #16]
  //
  pPayload = pPayloadStart;
 800830c:	693b      	ldr	r3, [r7, #16]
 800830e:	60fb      	str	r3, [r7, #12]
  TaskId = SHRINK_ID(TaskId);
 8008310:	4b25      	ldr	r3, [pc, #148]	; (80083a8 <SEGGER_SYSVIEW_OnTaskStopReady+0xbc>)
 8008312:	691b      	ldr	r3, [r3, #16]
 8008314:	687a      	ldr	r2, [r7, #4]
 8008316:	1ad3      	subs	r3, r2, r3
 8008318:	607b      	str	r3, [r7, #4]
  ENCODE_U32(pPayload, TaskId);
 800831a:	68fb      	ldr	r3, [r7, #12]
 800831c:	627b      	str	r3, [r7, #36]	; 0x24
 800831e:	687b      	ldr	r3, [r7, #4]
 8008320:	623b      	str	r3, [r7, #32]
 8008322:	e00b      	b.n	800833c <SEGGER_SYSVIEW_OnTaskStopReady+0x50>
 8008324:	6a3b      	ldr	r3, [r7, #32]
 8008326:	b2da      	uxtb	r2, r3
 8008328:	6a7b      	ldr	r3, [r7, #36]	; 0x24
 800832a:	1c59      	adds	r1, r3, #1
 800832c:	6279      	str	r1, [r7, #36]	; 0x24
 800832e:	f062 027f 	orn	r2, r2, #127	; 0x7f
 8008332:	b2d2      	uxtb	r2, r2
 8008334:	701a      	strb	r2, [r3, #0]
 8008336:	6a3b      	ldr	r3, [r7, #32]
 8008338:	09db      	lsrs	r3, r3, #7
 800833a:	623b      	str	r3, [r7, #32]
 800833c:	6a3b      	ldr	r3, [r7, #32]
 800833e:	2b7f      	cmp	r3, #127	; 0x7f
 8008340:	d8f0      	bhi.n	8008324 <SEGGER_SYSVIEW_OnTaskStopReady+0x38>
 8008342:	6a7b      	ldr	r3, [r7, #36]	; 0x24
 8008344:	1c5a      	adds	r2, r3, #1
 8008346:	627a      	str	r2, [r7, #36]	; 0x24
 8008348:	6a3a      	ldr	r2, [r7, #32]
 800834a:	b2d2      	uxtb	r2, r2
 800834c:	701a      	strb	r2, [r3, #0]
 800834e:	6a7b      	ldr	r3, [r7, #36]	; 0x24
 8008350:	60fb      	str	r3, [r7, #12]
  ENCODE_U32(pPayload, Cause);
 8008352:	68fb      	ldr	r3, [r7, #12]
 8008354:	61fb      	str	r3, [r7, #28]
 8008356:	683b      	ldr	r3, [r7, #0]
 8008358:	61bb      	str	r3, [r7, #24]
 800835a:	e00b      	b.n	8008374 <SEGGER_SYSVIEW_OnTaskStopReady+0x88>
 800835c:	69bb      	ldr	r3, [r7, #24]
 800835e:	b2da      	uxtb	r2, r3
 8008360:	69fb      	ldr	r3, [r7, #28]
 8008362:	1c59      	adds	r1, r3, #1
 8008364:	61f9      	str	r1, [r7, #28]
 8008366:	f062 027f 	orn	r2, r2, #127	; 0x7f
 800836a:	b2d2      	uxtb	r2, r2
 800836c:	701a      	strb	r2, [r3, #0]
 800836e:	69bb      	ldr	r3, [r7, #24]
 8008370:	09db      	lsrs	r3, r3, #7
 8008372:	61bb      	str	r3, [r7, #24]
 8008374:	69bb      	ldr	r3, [r7, #24]
 8008376:	2b7f      	cmp	r3, #127	; 0x7f
 8008378:	d8f0      	bhi.n	800835c <SEGGER_SYSVIEW_OnTaskStopReady+0x70>
 800837a:	69fb      	ldr	r3, [r7, #28]
 800837c:	1c5a      	adds	r2, r3, #1
 800837e:	61fa      	str	r2, [r7, #28]
 8008380:	69ba      	ldr	r2, [r7, #24]
 8008382:	b2d2      	uxtb	r2, r2
 8008384:	701a      	strb	r2, [r3, #0]
 8008386:	69fb      	ldr	r3, [r7, #28]
 8008388:	60fb      	str	r3, [r7, #12]
  _SendPacket(pPayloadStart, pPayload, SYSVIEW_EVTID_TASK_STOP_READY);
 800838a:	2207      	movs	r2, #7
 800838c:	68f9      	ldr	r1, [r7, #12]
 800838e:	6938      	ldr	r0, [r7, #16]
 8008390:	f7ff f928 	bl	80075e4 <_SendPacket>
  RECORD_END();
 8008394:	697b      	ldr	r3, [r7, #20]
 8008396:	f383 8811 	msr	BASEPRI, r3
}
 800839a:	bf00      	nop
 800839c:	3728      	adds	r7, #40	; 0x28
 800839e:	46bd      	mov	sp, r7
 80083a0:	bd80      	pop	{r7, pc}
 80083a2:	bf00      	nop
 80083a4:	20004340 	.word	0x20004340
 80083a8:	20004310 	.word	0x20004310

080083ac <SEGGER_SYSVIEW_ShrinkId>:
*     SEGGER_SYSVIEW_ID_BASE: Lowest Id reported by the application.
*       (i.e. 0x20000000 when all Ids are an address in this RAM)
*     SEGGER_SYSVIEW_ID_SHIFT: Number of bits to shift the Id to
*       save bandwidth. (i.e. 2 when Ids are 4 byte aligned)
*/
U32 SEGGER_SYSVIEW_ShrinkId(U32 Id) {
 80083ac:	b480      	push	{r7}
 80083ae:	b083      	sub	sp, #12
 80083b0:	af00      	add	r7, sp, #0
 80083b2:	6078      	str	r0, [r7, #4]
  return SHRINK_ID(Id);
 80083b4:	4b04      	ldr	r3, [pc, #16]	; (80083c8 <SEGGER_SYSVIEW_ShrinkId+0x1c>)
 80083b6:	691b      	ldr	r3, [r3, #16]
 80083b8:	687a      	ldr	r2, [r7, #4]
 80083ba:	1ad3      	subs	r3, r2, r3
}
 80083bc:	4618      	mov	r0, r3
 80083be:	370c      	adds	r7, #12
 80083c0:	46bd      	mov	sp, r7
 80083c2:	bc80      	pop	{r7}
 80083c4:	4770      	bx	lr
 80083c6:	bf00      	nop
 80083c8:	20004310 	.word	0x20004310

080083cc <SEGGER_SYSVIEW_SendModule>:
*    Sends the information of a registered module to the host.
*
*  Parameters
*    ModuleId   - Id of the requested module.
*/
void SEGGER_SYSVIEW_SendModule(U8 ModuleId) {
 80083cc:	b580      	push	{r7, lr}
 80083ce:	b08c      	sub	sp, #48	; 0x30
 80083d0:	af00      	add	r7, sp, #0
 80083d2:	4603      	mov	r3, r0
 80083d4:	71fb      	strb	r3, [r7, #7]
  SEGGER_SYSVIEW_MODULE* pModule;
  U32 n;

  if (_pFirstModule != 0) {
 80083d6:	4b3b      	ldr	r3, [pc, #236]	; (80084c4 <SEGGER_SYSVIEW_SendModule+0xf8>)
 80083d8:	681b      	ldr	r3, [r3, #0]
 80083da:	2b00      	cmp	r3, #0
 80083dc:	d06d      	beq.n	80084ba <SEGGER_SYSVIEW_SendModule+0xee>
    pModule = _pFirstModule;
 80083de:	4b39      	ldr	r3, [pc, #228]	; (80084c4 <SEGGER_SYSVIEW_SendModule+0xf8>)
 80083e0:	681b      	ldr	r3, [r3, #0]
 80083e2:	62fb      	str	r3, [r7, #44]	; 0x2c
    for (n = 0; n < ModuleId; n++) {
 80083e4:	2300      	movs	r3, #0
 80083e6:	62bb      	str	r3, [r7, #40]	; 0x28
 80083e8:	e008      	b.n	80083fc <SEGGER_SYSVIEW_SendModule+0x30>
      pModule = pModule->pNext;
 80083ea:	6afb      	ldr	r3, [r7, #44]	; 0x2c
 80083ec:	691b      	ldr	r3, [r3, #16]
 80083ee:	62fb      	str	r3, [r7, #44]	; 0x2c
      if (pModule == 0) {
 80083f0:	6afb      	ldr	r3, [r7, #44]	; 0x2c
 80083f2:	2b00      	cmp	r3, #0
 80083f4:	d007      	beq.n	8008406 <SEGGER_SYSVIEW_SendModule+0x3a>
    for (n = 0; n < ModuleId; n++) {
 80083f6:	6abb      	ldr	r3, [r7, #40]	; 0x28
 80083f8:	3301      	adds	r3, #1
 80083fa:	62bb      	str	r3, [r7, #40]	; 0x28
 80083fc:	79fb      	ldrb	r3, [r7, #7]
 80083fe:	6aba      	ldr	r2, [r7, #40]	; 0x28
 8008400:	429a      	cmp	r2, r3
 8008402:	d3f2      	bcc.n	80083ea <SEGGER_SYSVIEW_SendModule+0x1e>
 8008404:	e000      	b.n	8008408 <SEGGER_SYSVIEW_SendModule+0x3c>
        break;
 8008406:	bf00      	nop
      }
    }
    if (pModule != 0) {
 8008408:	6afb      	ldr	r3, [r7, #44]	; 0x2c
 800840a:	2b00      	cmp	r3, #0
 800840c:	d055      	beq.n	80084ba <SEGGER_SYSVIEW_SendModule+0xee>
      U8* pPayload;
      U8* pPayloadStart;
      RECORD_START(SEGGER_SYSVIEW_INFO_SIZE + 2 * SEGGER_SYSVIEW_QUANTA_U32 + 1 + SEGGER_SYSVIEW_MAX_STRING_LEN);
 800840e:	f3ef 8311 	mrs	r3, BASEPRI
 8008412:	f04f 0120 	mov.w	r1, #32
 8008416:	f381 8811 	msr	BASEPRI, r1
 800841a:	617b      	str	r3, [r7, #20]
 800841c:	482a      	ldr	r0, [pc, #168]	; (80084c8 <SEGGER_SYSVIEW_SendModule+0xfc>)
 800841e:	f7fe fff7 	bl	8007410 <_PreparePacket>
 8008422:	6138      	str	r0, [r7, #16]
      //
      pPayload = pPayloadStart;
 8008424:	693b      	ldr	r3, [r7, #16]
 8008426:	60fb      	str	r3, [r7, #12]
      //
      // Send module description
      // Send event offset and number of events
      //
      ENCODE_U32(pPayload, ModuleId);
 8008428:	68fb      	ldr	r3, [r7, #12]
 800842a:	627b      	str	r3, [r7, #36]	; 0x24
 800842c:	79fb      	ldrb	r3, [r7, #7]
 800842e:	623b      	str	r3, [r7, #32]
 8008430:	e00b      	b.n	800844a <SEGGER_SYSVIEW_SendModule+0x7e>
 8008432:	6a3b      	ldr	r3, [r7, #32]
 8008434:	b2da      	uxtb	r2, r3
 8008436:	6a7b      	ldr	r3, [r7, #36]	; 0x24
 8008438:	1c59      	adds	r1, r3, #1
 800843a:	6279      	str	r1, [r7, #36]	; 0x24
 800843c:	f062 027f 	orn	r2, r2, #127	; 0x7f
 8008440:	b2d2      	uxtb	r2, r2
 8008442:	701a      	strb	r2, [r3, #0]
 8008444:	6a3b      	ldr	r3, [r7, #32]
 8008446:	09db      	lsrs	r3, r3, #7
 8008448:	623b      	str	r3, [r7, #32]
 800844a:	6a3b      	ldr	r3, [r7, #32]
 800844c:	2b7f      	cmp	r3, #127	; 0x7f
 800844e:	d8f0      	bhi.n	8008432 <SEGGER_SYSVIEW_SendModule+0x66>
 8008450:	6a7b      	ldr	r3, [r7, #36]	; 0x24
 8008452:	1c5a      	adds	r2, r3, #1
 8008454:	627a      	str	r2, [r7, #36]	; 0x24
 8008456:	6a3a      	ldr	r2, [r7, #32]
 8008458:	b2d2      	uxtb	r2, r2
 800845a:	701a      	strb	r2, [r3, #0]
 800845c:	6a7b      	ldr	r3, [r7, #36]	; 0x24
 800845e:	60fb      	str	r3, [r7, #12]
      ENCODE_U32(pPayload, (pModule->EventOffset));
 8008460:	68fb      	ldr	r3, [r7, #12]
 8008462:	61fb      	str	r3, [r7, #28]
 8008464:	6afb      	ldr	r3, [r7, #44]	; 0x2c
 8008466:	689b      	ldr	r3, [r3, #8]
 8008468:	61bb      	str	r3, [r7, #24]
 800846a:	e00b      	b.n	8008484 <SEGGER_SYSVIEW_SendModule+0xb8>
 800846c:	69bb      	ldr	r3, [r7, #24]
 800846e:	b2da      	uxtb	r2, r3
 8008470:	69fb      	ldr	r3, [r7, #28]
 8008472:	1c59      	adds	r1, r3, #1
 8008474:	61f9      	str	r1, [r7, #28]
 8008476:	f062 027f 	orn	r2, r2, #127	; 0x7f
 800847a:	b2d2      	uxtb	r2, r2
 800847c:	701a      	strb	r2, [r3, #0]
 800847e:	69bb      	ldr	r3, [r7, #24]
 8008480:	09db      	lsrs	r3, r3, #7
 8008482:	61bb      	str	r3, [r7, #24]
 8008484:	69bb      	ldr	r3, [r7, #24]
 8008486:	2b7f      	cmp	r3, #127	; 0x7f
 8008488:	d8f0      	bhi.n	800846c <SEGGER_SYSVIEW_SendModule+0xa0>
 800848a:	69fb      	ldr	r3, [r7, #28]
 800848c:	1c5a      	adds	r2, r3, #1
 800848e:	61fa      	str	r2, [r7, #28]
 8008490:	69ba      	ldr	r2, [r7, #24]
 8008492:	b2d2      	uxtb	r2, r2
 8008494:	701a      	strb	r2, [r3, #0]
 8008496:	69fb      	ldr	r3, [r7, #28]
 8008498:	60fb      	str	r3, [r7, #12]
      pPayload = _EncodeStr(pPayload, pModule->sModule, SEGGER_SYSVIEW_MAX_STRING_LEN);
 800849a:	6afb      	ldr	r3, [r7, #44]	; 0x2c
 800849c:	681b      	ldr	r3, [r3, #0]
 800849e:	2280      	movs	r2, #128	; 0x80
 80084a0:	4619      	mov	r1, r3
 80084a2:	68f8      	ldr	r0, [r7, #12]
 80084a4:	f7fe ff68 	bl	8007378 <_EncodeStr>
 80084a8:	60f8      	str	r0, [r7, #12]
      _SendPacket(pPayloadStart, pPayload, SYSVIEW_EVTID_MODULEDESC);
 80084aa:	2216      	movs	r2, #22
 80084ac:	68f9      	ldr	r1, [r7, #12]
 80084ae:	6938      	ldr	r0, [r7, #16]
 80084b0:	f7ff f898 	bl	80075e4 <_SendPacket>
      RECORD_END();
 80084b4:	697b      	ldr	r3, [r7, #20]
 80084b6:	f383 8811 	msr	BASEPRI, r3
    }
  }
}
 80084ba:	bf00      	nop
 80084bc:	3730      	adds	r7, #48	; 0x30
 80084be:	46bd      	mov	sp, r7
 80084c0:	bd80      	pop	{r7, pc}
 80084c2:	bf00      	nop
 80084c4:	20004338 	.word	0x20004338
 80084c8:	20004340 	.word	0x20004340

080084cc <SEGGER_SYSVIEW_SendModuleDescription>:
*
*  Function description
*    Triggers a send of the registered module descriptions.
*
*/
void SEGGER_SYSVIEW_SendModuleDescription(void) {
 80084cc:	b580      	push	{r7, lr}
 80084ce:	b082      	sub	sp, #8
 80084d0:	af00      	add	r7, sp, #0
  SEGGER_SYSVIEW_MODULE* pModule;

  if (_pFirstModule != 0) {
 80084d2:	4b0c      	ldr	r3, [pc, #48]	; (8008504 <SEGGER_SYSVIEW_SendModuleDescription+0x38>)
 80084d4:	681b      	ldr	r3, [r3, #0]
 80084d6:	2b00      	cmp	r3, #0
 80084d8:	d00f      	beq.n	80084fa <SEGGER_SYSVIEW_SendModuleDescription+0x2e>
    pModule = _pFirstModule;
 80084da:	4b0a      	ldr	r3, [pc, #40]	; (8008504 <SEGGER_SYSVIEW_SendModuleDescription+0x38>)
 80084dc:	681b      	ldr	r3, [r3, #0]
 80084de:	607b      	str	r3, [r7, #4]
    do {
      if (pModule->pfSendModuleDesc) {
 80084e0:	687b      	ldr	r3, [r7, #4]
 80084e2:	68db      	ldr	r3, [r3, #12]
 80084e4:	2b00      	cmp	r3, #0
 80084e6:	d002      	beq.n	80084ee <SEGGER_SYSVIEW_SendModuleDescription+0x22>
        pModule->pfSendModuleDesc();
 80084e8:	687b      	ldr	r3, [r7, #4]
 80084ea:	68db      	ldr	r3, [r3, #12]
 80084ec:	4798      	blx	r3
      }
      pModule = pModule->pNext;
 80084ee:	687b      	ldr	r3, [r7, #4]
 80084f0:	691b      	ldr	r3, [r3, #16]
 80084f2:	607b      	str	r3, [r7, #4]
    } while (pModule);
 80084f4:	687b      	ldr	r3, [r7, #4]
 80084f6:	2b00      	cmp	r3, #0
 80084f8:	d1f2      	bne.n	80084e0 <SEGGER_SYSVIEW_SendModuleDescription+0x14>
  }
}
 80084fa:	bf00      	nop
 80084fc:	3708      	adds	r7, #8
 80084fe:	46bd      	mov	sp, r7
 8008500:	bd80      	pop	{r7, pc}
 8008502:	bf00      	nop
 8008504:	20004338 	.word	0x20004338

08008508 <SEGGER_SYSVIEW_SendNumModules>:
*       SEGGER_SYSVIEW_SendNumModules()
*
*  Function description
*    Send the number of registered modules to the host.
*/
void SEGGER_SYSVIEW_SendNumModules(void) {
 8008508:	b580      	push	{r7, lr}
 800850a:	b086      	sub	sp, #24
 800850c:	af00      	add	r7, sp, #0
  U8* pPayload;
  U8* pPayloadStart;
  RECORD_START(SEGGER_SYSVIEW_INFO_SIZE + 2*SEGGER_SYSVIEW_QUANTA_U32);
 800850e:	f3ef 8311 	mrs	r3, BASEPRI
 8008512:	f04f 0120 	mov.w	r1, #32
 8008516:	f381 8811 	msr	BASEPRI, r1
 800851a:	60fb      	str	r3, [r7, #12]
 800851c:	4817      	ldr	r0, [pc, #92]	; (800857c <SEGGER_SYSVIEW_SendNumModules+0x74>)
 800851e:	f7fe ff77 	bl	8007410 <_PreparePacket>
 8008522:	60b8      	str	r0, [r7, #8]
  pPayload = pPayloadStart;
 8008524:	68bb      	ldr	r3, [r7, #8]
 8008526:	607b      	str	r3, [r7, #4]
  ENCODE_U32(pPayload, _NumModules);
 8008528:	687b      	ldr	r3, [r7, #4]
 800852a:	617b      	str	r3, [r7, #20]
 800852c:	4b14      	ldr	r3, [pc, #80]	; (8008580 <SEGGER_SYSVIEW_SendNumModules+0x78>)
 800852e:	781b      	ldrb	r3, [r3, #0]
 8008530:	613b      	str	r3, [r7, #16]
 8008532:	e00b      	b.n	800854c <SEGGER_SYSVIEW_SendNumModules+0x44>
 8008534:	693b      	ldr	r3, [r7, #16]
 8008536:	b2da      	uxtb	r2, r3
 8008538:	697b      	ldr	r3, [r7, #20]
 800853a:	1c59      	adds	r1, r3, #1
 800853c:	6179      	str	r1, [r7, #20]
 800853e:	f062 027f 	orn	r2, r2, #127	; 0x7f
 8008542:	b2d2      	uxtb	r2, r2
 8008544:	701a      	strb	r2, [r3, #0]
 8008546:	693b      	ldr	r3, [r7, #16]
 8008548:	09db      	lsrs	r3, r3, #7
 800854a:	613b      	str	r3, [r7, #16]
 800854c:	693b      	ldr	r3, [r7, #16]
 800854e:	2b7f      	cmp	r3, #127	; 0x7f
 8008550:	d8f0      	bhi.n	8008534 <SEGGER_SYSVIEW_SendNumModules+0x2c>
 8008552:	697b      	ldr	r3, [r7, #20]
 8008554:	1c5a      	adds	r2, r3, #1
 8008556:	617a      	str	r2, [r7, #20]
 8008558:	693a      	ldr	r2, [r7, #16]
 800855a:	b2d2      	uxtb	r2, r2
 800855c:	701a      	strb	r2, [r3, #0]
 800855e:	697b      	ldr	r3, [r7, #20]
 8008560:	607b      	str	r3, [r7, #4]
  _SendPacket(pPayloadStart, pPayload, SYSVIEW_EVTID_NUMMODULES);
 8008562:	221b      	movs	r2, #27
 8008564:	6879      	ldr	r1, [r7, #4]
 8008566:	68b8      	ldr	r0, [r7, #8]
 8008568:	f7ff f83c 	bl	80075e4 <_SendPacket>
  RECORD_END();
 800856c:	68fb      	ldr	r3, [r7, #12]
 800856e:	f383 8811 	msr	BASEPRI, r3
}
 8008572:	bf00      	nop
 8008574:	3718      	adds	r7, #24
 8008576:	46bd      	mov	sp, r7
 8008578:	bd80      	pop	{r7, pc}
 800857a:	bf00      	nop
 800857c:	20004340 	.word	0x20004340
 8008580:	2000433c 	.word	0x2000433c

08008584 <SEGGER_SYSVIEW_Warn>:
*    Print a warning string to the host.
*
*  Parameters
*    s        - String to sent.
*/
void SEGGER_SYSVIEW_Warn(const char* s) {
 8008584:	b580      	push	{r7, lr}
 8008586:	b08a      	sub	sp, #40	; 0x28
 8008588:	af00      	add	r7, sp, #0
 800858a:	6078      	str	r0, [r7, #4]
  U8* pPayload;
  U8* pPayloadStart;
  RECORD_START(SEGGER_SYSVIEW_INFO_SIZE + 2 * SEGGER_SYSVIEW_QUANTA_U32 + SEGGER_SYSVIEW_MAX_STRING_LEN);
 800858c:	f3ef 8311 	mrs	r3, BASEPRI
 8008590:	f04f 0120 	mov.w	r1, #32
 8008594:	f381 8811 	msr	BASEPRI, r1
 8008598:	617b      	str	r3, [r7, #20]
 800859a:	4827      	ldr	r0, [pc, #156]	; (8008638 <SEGGER_SYSVIEW_Warn+0xb4>)
 800859c:	f7fe ff38 	bl	8007410 <_PreparePacket>
 80085a0:	6138      	str	r0, [r7, #16]
  //
  pPayload = _EncodeStr(pPayloadStart, s, SEGGER_SYSVIEW_MAX_STRING_LEN);
 80085a2:	2280      	movs	r2, #128	; 0x80
 80085a4:	6879      	ldr	r1, [r7, #4]
 80085a6:	6938      	ldr	r0, [r7, #16]
 80085a8:	f7fe fee6 	bl	8007378 <_EncodeStr>
 80085ac:	60f8      	str	r0, [r7, #12]
  ENCODE_U32(pPayload, SEGGER_SYSVIEW_WARNING);
 80085ae:	68fb      	ldr	r3, [r7, #12]
 80085b0:	627b      	str	r3, [r7, #36]	; 0x24
 80085b2:	2301      	movs	r3, #1
 80085b4:	623b      	str	r3, [r7, #32]
 80085b6:	e00b      	b.n	80085d0 <SEGGER_SYSVIEW_Warn+0x4c>
 80085b8:	6a3b      	ldr	r3, [r7, #32]
 80085ba:	b2da      	uxtb	r2, r3
 80085bc:	6a7b      	ldr	r3, [r7, #36]	; 0x24
 80085be:	1c59      	adds	r1, r3, #1
 80085c0:	6279      	str	r1, [r7, #36]	; 0x24
 80085c2:	f062 027f 	orn	r2, r2, #127	; 0x7f
 80085c6:	b2d2      	uxtb	r2, r2
 80085c8:	701a      	strb	r2, [r3, #0]
 80085ca:	6a3b      	ldr	r3, [r7, #32]
 80085cc:	09db      	lsrs	r3, r3, #7
 80085ce:	623b      	str	r3, [r7, #32]
 80085d0:	6a3b      	ldr	r3, [r7, #32]
 80085d2:	2b7f      	cmp	r3, #127	; 0x7f
 80085d4:	d8f0      	bhi.n	80085b8 <SEGGER_SYSVIEW_Warn+0x34>
 80085d6:	6a7b      	ldr	r3, [r7, #36]	; 0x24
 80085d8:	1c5a      	adds	r2, r3, #1
 80085da:	627a      	str	r2, [r7, #36]	; 0x24
 80085dc:	6a3a      	ldr	r2, [r7, #32]
 80085de:	b2d2      	uxtb	r2, r2
 80085e0:	701a      	strb	r2, [r3, #0]
 80085e2:	6a7b      	ldr	r3, [r7, #36]	; 0x24
 80085e4:	60fb      	str	r3, [r7, #12]
  ENCODE_U32(pPayload, 0);
 80085e6:	68fb      	ldr	r3, [r7, #12]
 80085e8:	61fb      	str	r3, [r7, #28]
 80085ea:	2300      	movs	r3, #0
 80085ec:	61bb      	str	r3, [r7, #24]
 80085ee:	e00b      	b.n	8008608 <SEGGER_SYSVIEW_Warn+0x84>
 80085f0:	69bb      	ldr	r3, [r7, #24]
 80085f2:	b2da      	uxtb	r2, r3
 80085f4:	69fb      	ldr	r3, [r7, #28]
 80085f6:	1c59      	adds	r1, r3, #1
 80085f8:	61f9      	str	r1, [r7, #28]
 80085fa:	f062 027f 	orn	r2, r2, #127	; 0x7f
 80085fe:	b2d2      	uxtb	r2, r2
 8008600:	701a      	strb	r2, [r3, #0]
 8008602:	69bb      	ldr	r3, [r7, #24]
 8008604:	09db      	lsrs	r3, r3, #7
 8008606:	61bb      	str	r3, [r7, #24]
 8008608:	69bb      	ldr	r3, [r7, #24]
 800860a:	2b7f      	cmp	r3, #127	; 0x7f
 800860c:	d8f0      	bhi.n	80085f0 <SEGGER_SYSVIEW_Warn+0x6c>
 800860e:	69fb      	ldr	r3, [r7, #28]
 8008610:	1c5a      	adds	r2, r3, #1
 8008612:	61fa      	str	r2, [r7, #28]
 8008614:	69ba      	ldr	r2, [r7, #24]
 8008616:	b2d2      	uxtb	r2, r2
 8008618:	701a      	strb	r2, [r3, #0]
 800861a:	69fb      	ldr	r3, [r7, #28]
 800861c:	60fb      	str	r3, [r7, #12]
  _SendPacket(pPayloadStart, pPayload, SYSVIEW_EVTID_PRINT_FORMATTED);
 800861e:	221a      	movs	r2, #26
 8008620:	68f9      	ldr	r1, [r7, #12]
 8008622:	6938      	ldr	r0, [r7, #16]
 8008624:	f7fe ffde 	bl	80075e4 <_SendPacket>
  RECORD_END();
 8008628:	697b      	ldr	r3, [r7, #20]
 800862a:	f383 8811 	msr	BASEPRI, r3
}
 800862e:	bf00      	nop
 8008630:	3728      	adds	r7, #40	; 0x28
 8008632:	46bd      	mov	sp, r7
 8008634:	bd80      	pop	{r7, pc}
 8008636:	bf00      	nop
 8008638:	20004340 	.word	0x20004340

0800863c <__libc_init_array>:
 800863c:	b570      	push	{r4, r5, r6, lr}
 800863e:	2500      	movs	r5, #0
 8008640:	4e0c      	ldr	r6, [pc, #48]	; (8008674 <__libc_init_array+0x38>)
 8008642:	4c0d      	ldr	r4, [pc, #52]	; (8008678 <__libc_init_array+0x3c>)
 8008644:	1ba4      	subs	r4, r4, r6
 8008646:	10a4      	asrs	r4, r4, #2
 8008648:	42a5      	cmp	r5, r4
 800864a:	d109      	bne.n	8008660 <__libc_init_array+0x24>
 800864c:	f000 f83c 	bl	80086c8 <_init>
 8008650:	2500      	movs	r5, #0
 8008652:	4e0a      	ldr	r6, [pc, #40]	; (800867c <__libc_init_array+0x40>)
 8008654:	4c0a      	ldr	r4, [pc, #40]	; (8008680 <__libc_init_array+0x44>)
 8008656:	1ba4      	subs	r4, r4, r6
 8008658:	10a4      	asrs	r4, r4, #2
 800865a:	42a5      	cmp	r5, r4
 800865c:	d105      	bne.n	800866a <__libc_init_array+0x2e>
 800865e:	bd70      	pop	{r4, r5, r6, pc}
 8008660:	f856 3025 	ldr.w	r3, [r6, r5, lsl #2]
 8008664:	4798      	blx	r3
 8008666:	3501      	adds	r5, #1
 8008668:	e7ee      	b.n	8008648 <__libc_init_array+0xc>
 800866a:	f856 3025 	ldr.w	r3, [r6, r5, lsl #2]
 800866e:	4798      	blx	r3
 8008670:	3501      	adds	r5, #1
 8008672:	e7f2      	b.n	800865a <__libc_init_array+0x1e>
 8008674:	08008828 	.word	0x08008828
 8008678:	08008828 	.word	0x08008828
 800867c:	08008828 	.word	0x08008828
 8008680:	0800882c 	.word	0x0800882c

08008684 <memcmp>:
 8008684:	b530      	push	{r4, r5, lr}
 8008686:	2400      	movs	r4, #0
 8008688:	42a2      	cmp	r2, r4
 800868a:	d101      	bne.n	8008690 <memcmp+0xc>
 800868c:	2000      	movs	r0, #0
 800868e:	e007      	b.n	80086a0 <memcmp+0x1c>
 8008690:	5d03      	ldrb	r3, [r0, r4]
 8008692:	3401      	adds	r4, #1
 8008694:	190d      	adds	r5, r1, r4
 8008696:	f815 5c01 	ldrb.w	r5, [r5, #-1]
 800869a:	42ab      	cmp	r3, r5
 800869c:	d0f4      	beq.n	8008688 <memcmp+0x4>
 800869e:	1b58      	subs	r0, r3, r5
 80086a0:	bd30      	pop	{r4, r5, pc}

080086a2 <memcpy>:
 80086a2:	b510      	push	{r4, lr}
 80086a4:	1e43      	subs	r3, r0, #1
 80086a6:	440a      	add	r2, r1
 80086a8:	4291      	cmp	r1, r2
 80086aa:	d100      	bne.n	80086ae <memcpy+0xc>
 80086ac:	bd10      	pop	{r4, pc}
 80086ae:	f811 4b01 	ldrb.w	r4, [r1], #1
 80086b2:	f803 4f01 	strb.w	r4, [r3, #1]!
 80086b6:	e7f7      	b.n	80086a8 <memcpy+0x6>

080086b8 <memset>:
 80086b8:	4603      	mov	r3, r0
 80086ba:	4402      	add	r2, r0
 80086bc:	4293      	cmp	r3, r2
 80086be:	d100      	bne.n	80086c2 <memset+0xa>
 80086c0:	4770      	bx	lr
 80086c2:	f803 1b01 	strb.w	r1, [r3], #1
 80086c6:	e7f9      	b.n	80086bc <memset+0x4>

080086c8 <_init>:
 80086c8:	b5f8      	push	{r3, r4, r5, r6, r7, lr}
 80086ca:	bf00      	nop
 80086cc:	bcf8      	pop	{r3, r4, r5, r6, r7}
 80086ce:	bc08      	pop	{r3}
 80086d0:	469e      	mov	lr, r3
 80086d2:	4770      	bx	lr

080086d4 <_fini>:
 80086d4:	b5f8      	push	{r3, r4, r5, r6, r7, lr}
 80086d6:	bf00      	nop
 80086d8:	bcf8      	pop	{r3, r4, r5, r6, r7}
 80086da:	bc08      	pop	{r3}
 80086dc:	469e      	mov	lr, r3
 80086de:	4770      	bx	lr
