
Rear_ECU.elf:     file format elf32-littlearm

Sections:
Idx Name          Size      VMA       LMA       File off  Algn
  0 .isr_vector   0000010c  08000000  08000000  00010000  2**0
                  CONTENTS, ALLOC, LOAD, READONLY, DATA
  1 .text         000083cc  08000110  08000110  00010110  2**4
                  CONTENTS, ALLOC, LOAD, READONLY, CODE
  2 .rodata       000000f8  080084dc  080084dc  000184dc  2**2
                  CONTENTS, ALLOC, LOAD, READONLY, DATA
  3 .ARM.extab    00000000  080085d4  080085d4  00020010  2**0
                  CONTENTS
  4 .ARM          00000000  080085d4  080085d4  00020010  2**0
                  CONTENTS
  5 .preinit_array 00000000  080085d4  080085d4  00020010  2**0
                  CONTENTS, ALLOC, LOAD, DATA
  6 .init_array   00000004  080085d4  080085d4  000185d4  2**2
                  CONTENTS, ALLOC, LOAD, DATA
  7 .fini_array   00000004  080085d8  080085d8  000185d8  2**2
                  CONTENTS, ALLOC, LOAD, DATA
  8 .data         00000010  20000000  080085dc  00020000  2**2
                  CONTENTS, ALLOC, LOAD, DATA
  9 .bss          000023a4  20000010  080085ec  00020010  2**2
                  ALLOC
 10 ._user_heap_stack 00000604  200023b4  080085ec  000223b4  2**0
                  ALLOC
 11 .ARM.attributes 00000029  00000000  00000000  00020010  2**0
                  CONTENTS, READONLY
 12 .debug_info   0001af26  00000000  00000000  00020039  2**0
                  CONTENTS, READONLY, DEBUGGING
 13 .debug_abbrev 000035ec  00000000  00000000  0003af5f  2**0
                  CONTENTS, READONLY, DEBUGGING
 14 .debug_aranges 00001728  00000000  00000000  0003e550  2**3
                  CONTENTS, READONLY, DEBUGGING
 15 .debug_ranges 00001590  00000000  00000000  0003fc78  2**3
                  CONTENTS, READONLY, DEBUGGING
 16 .debug_macro  000049d5  00000000  00000000  00041208  2**0
                  CONTENTS, READONLY, DEBUGGING
 17 .debug_line   00012882  00000000  00000000  00045bdd  2**0
                  CONTENTS, READONLY, DEBUGGING
 18 .debug_str    000864a6  00000000  00000000  0005845f  2**0
                  CONTENTS, READONLY, DEBUGGING
 19 .comment      0000007b  00000000  00000000  000de905  2**0
                  CONTENTS, READONLY
 20 .debug_frame  00006398  00000000  00000000  000de980  2**2
                  CONTENTS, READONLY, DEBUGGING

Disassembly of section .text:

08000110 <__do_global_dtors_aux>:
 8000110:	b510      	push	{r4, lr}
 8000112:	4c05      	ldr	r4, [pc, #20]	; (8000128 <__do_global_dtors_aux+0x18>)
 8000114:	7823      	ldrb	r3, [r4, #0]
 8000116:	b933      	cbnz	r3, 8000126 <__do_global_dtors_aux+0x16>
 8000118:	4b04      	ldr	r3, [pc, #16]	; (800012c <__do_global_dtors_aux+0x1c>)
 800011a:	b113      	cbz	r3, 8000122 <__do_global_dtors_aux+0x12>
 800011c:	4804      	ldr	r0, [pc, #16]	; (8000130 <__do_global_dtors_aux+0x20>)
 800011e:	f3af 8000 	nop.w
 8000122:	2301      	movs	r3, #1
 8000124:	7023      	strb	r3, [r4, #0]
 8000126:	bd10      	pop	{r4, pc}
 8000128:	20000010 	.word	0x20000010
 800012c:	00000000 	.word	0x00000000
 8000130:	080084c4 	.word	0x080084c4

08000134 <frame_dummy>:
 8000134:	b508      	push	{r3, lr}
 8000136:	4b03      	ldr	r3, [pc, #12]	; (8000144 <frame_dummy+0x10>)
 8000138:	b11b      	cbz	r3, 8000142 <frame_dummy+0xe>
 800013a:	4903      	ldr	r1, [pc, #12]	; (8000148 <frame_dummy+0x14>)
 800013c:	4803      	ldr	r0, [pc, #12]	; (800014c <frame_dummy+0x18>)
 800013e:	f3af 8000 	nop.w
 8000142:	bd08      	pop	{r3, pc}
 8000144:	00000000 	.word	0x00000000
 8000148:	20000014 	.word	0x20000014
 800014c:	080084c4 	.word	0x080084c4

08000150 <SEGGER_RTT_ASM_WriteSkipNoLock>:
        //   R4 <Rem>
        //   R5 pRing->pBuffer
        //   R6 pRing (Points to active struct SEGGER_RTT_BUFFER_DOWN)
        //   R7 WrOff
        //
        PUSH     {R4-R7}
 8000150:	b4f0      	push	{r4, r5, r6, r7}
        ADD      R3,R0,R0, LSL #+1
 8000152:	eb00 0340 	add.w	r3, r0, r0, lsl #1
        LDR.W    R0,=_SEGGER_RTT                 // pRing = &_SEGGER_RTT.aUp[BufferIndex];
 8000156:	f8df 0080 	ldr.w	r0, [pc, #128]	; 80001d8 <_Case3+0x6>
        ADD      R0,R0,R3, LSL #+3
 800015a:	eb00 00c3 	add.w	r0, r0, r3, lsl #3
        ADD      R6,R0,#+24
 800015e:	f100 0618 	add.w	r6, r0, #24
        LDR      R0,[R6, #+16]                   // RdOff = pRing->RdOff;
 8000162:	6930      	ldr	r0, [r6, #16]
        LDR      R7,[R6, #+12]                   // WrOff = pRing->WrOff;
 8000164:	68f7      	ldr	r7, [r6, #12]
        LDR      R5,[R6, #+4]                    // pRing->pBuffer
 8000166:	6875      	ldr	r5, [r6, #4]
        CMP      R7,R0
 8000168:	4287      	cmp	r7, r0
        BCC.N    _CheckCase4                     // if (RdOff <= WrOff) {                           => Case 1), 2) or 3)
 800016a:	d32e      	bcc.n	80001ca <_CheckCase4>
        //
        // Handling for case 1, later on identical to case 4
        //
        LDR      R3,[R6, #+8]                    //  Avail = pRing->SizeOfBuffer - WrOff - 1u;      => Space until wrap-around (assume 1 byte not usable for case that RdOff == 0)
 800016c:	68b3      	ldr	r3, [r6, #8]
        SUBS     R4,R3,R7                        // <Rem> (Used in case we jump into case 2 afterwards)
 800016e:	1bdc      	subs	r4, r3, r7
        SUBS     R3,R4,#+1                       // <Avail>
 8000170:	1e63      	subs	r3, r4, #1
        CMP      R3,R2
 8000172:	4293      	cmp	r3, r2
        BCC.N    _CheckCase2                     // if (Avail >= NumBytes) {  => Case 1)?
 8000174:	d312      	bcc.n	800019c <_CheckCase2>

08000176 <_Case4>:
_Case4:
        ADDS     R5,R7,R5                        // pBuffer += WrOff
 8000176:	197d      	adds	r5, r7, r5
        ADDS     R0,R2,R7                        // v = WrOff + NumBytes
 8000178:	19d0      	adds	r0, r2, r7
 800017a:	bf00      	nop

0800017c <_LoopCopyStraight>:
        // 2x unrolling for the copy loop that is used most of the time
        // This is a special optimization for small SystemView packets and makes them even faster
        //
        _ALIGN(2)
_LoopCopyStraight:                               // memcpy(pRing->pBuffer + WrOff, pData, NumBytes);
        LDRB     R3,[R1], #+1
 800017c:	f811 3b01 	ldrb.w	r3, [r1], #1
        STRB     R3,[R5], #+1                    // *pDest++ = *pSrc++
 8000180:	f805 3b01 	strb.w	r3, [r5], #1
        SUBS     R2,R2,#+1
 8000184:	3a01      	subs	r2, #1
        BEQ      _CSDone
 8000186:	d005      	beq.n	8000194 <_CSDone>
        LDRB     R3,[R1], #+1
 8000188:	f811 3b01 	ldrb.w	r3, [r1], #1
        STRB     R3,[R5], #+1                    // *pDest++ = *pSrc++
 800018c:	f805 3b01 	strb.w	r3, [r5], #1
        SUBS     R2,R2,#+1
 8000190:	3a01      	subs	r2, #1
        BNE      _LoopCopyStraight
 8000192:	d1f3      	bne.n	800017c <_LoopCopyStraight>

08000194 <_CSDone>:
_CSDone:
#if _CORE_NEEDS_DMB                              // Do not slow down cores that do not need a DMB instruction here
        DMB                                      // Cortex-M7 may delay memory writes and also change the order in which the writes happen. Therefore, make sure that all buffer writes are finished, before updating the <WrOff> in the struct
#endif
        STR      R0,[R6, #+12]                   // pRing->WrOff = WrOff + NumBytes;
 8000194:	60f0      	str	r0, [r6, #12]
        MOVS     R0,#+1
 8000196:	2001      	movs	r0, #1
        POP      {R4-R7}
 8000198:	bcf0      	pop	{r4, r5, r6, r7}
        BX       LR                              // Return 1
 800019a:	4770      	bx	lr

0800019c <_CheckCase2>:
_CheckCase2:
        ADDS     R0,R0,R3                        // Avail += RdOff; => Space incl. wrap-around
 800019c:	18c0      	adds	r0, r0, r3
        CMP      R0,R2
 800019e:	4290      	cmp	r0, r2
        BCC.N    _Case3                          // if (Avail >= NumBytes) {           => Case 2? => If not, we have case 3) (does not fit)
 80001a0:	d317      	bcc.n	80001d2 <_Case3>
        //
        // Handling for case 2
        //
        ADDS     R0,R7,R5                        // v = pRing->pBuffer + WrOff => Do not change pRing->pBuffer here because 2nd chunk needs org. value
 80001a2:	1978      	adds	r0, r7, r5
        SUBS     R2,R2,R4                        // NumBytes -= Rem;  (Rem = pRing->SizeOfBuffer - WrOff; => Space until end of buffer)
 80001a4:	1b12      	subs	r2, r2, r4

080001a6 <_LoopCopyBeforeWrapAround>:
_LoopCopyBeforeWrapAround:                       // memcpy(pRing->pBuffer + WrOff, pData, Rem); => Copy 1st chunk
        LDRB     R3,[R1], #+1
 80001a6:	f811 3b01 	ldrb.w	r3, [r1], #1
        STRB     R3,[R0], #+1                    // *pDest++ = *pSrc++
 80001aa:	f800 3b01 	strb.w	r3, [r0], #1
        SUBS     R4,R4,#+1
 80001ae:	3c01      	subs	r4, #1
        BNE      _LoopCopyBeforeWrapAround
 80001b0:	d1f9      	bne.n	80001a6 <_LoopCopyBeforeWrapAround>
        // Special case: First check that assumed RdOff == 0 calculated that last element before wrap-around could not be used
        // But 2nd check (considering space until wrap-around and until RdOff) revealed that RdOff is not 0, so we can use the last element
        // In this case, we may use a copy straight until buffer end anyway without needing to copy 2 chunks
        // Therefore, check if 2nd memcpy is necessary at all
        //
        ADDS     R4,R2,#+0                       // Save <NumBytes> (needed as counter in loop but must be written to <WrOff> after the loop). Also use this inst to update the flags to skip 2nd loop if possible
 80001b2:	1c14      	adds	r4, r2, #0
        BEQ.N    _No2ChunkNeeded                 // if (NumBytes) {
 80001b4:	d005      	beq.n	80001c2 <_No2ChunkNeeded>

080001b6 <_LoopCopyAfterWrapAround>:
_LoopCopyAfterWrapAround:                        // memcpy(pRing->pBuffer, pData + Rem, NumBytes);
        LDRB     R3,[R1], #+1                    // pData already points to the next src byte due to copy loop increment before this loop
 80001b6:	f811 3b01 	ldrb.w	r3, [r1], #1
        STRB     R3,[R5], #+1                    // *pDest++ = *pSrc++
 80001ba:	f805 3b01 	strb.w	r3, [r5], #1
        SUBS     R2,R2,#+1
 80001be:	3a01      	subs	r2, #1
        BNE      _LoopCopyAfterWrapAround
 80001c0:	d1f9      	bne.n	80001b6 <_LoopCopyAfterWrapAround>

080001c2 <_No2ChunkNeeded>:
_No2ChunkNeeded:
#if _CORE_NEEDS_DMB                              // Do not slow down cores that do not need a DMB instruction here
        DMB                                      // Cortex-M7 may delay memory writes and also change the order in which the writes happen. Therefore, make sure that all buffer writes are finished, before updating the <WrOff> in the struct
#endif
        STR      R4,[R6, #+12]                   // pRing->WrOff = NumBytes; => Must be written after copying data because J-Link may read control block asynchronously while writing into buffer
 80001c2:	60f4      	str	r4, [r6, #12]
        MOVS     R0,#+1
 80001c4:	2001      	movs	r0, #1
        POP      {R4-R7}
 80001c6:	bcf0      	pop	{r4, r5, r6, r7}
        BX       LR                              // Return 1
 80001c8:	4770      	bx	lr

080001ca <_CheckCase4>:
_CheckCase4:
        SUBS     R0,R0,R7
 80001ca:	1bc0      	subs	r0, r0, r7
        SUBS     R0,R0,#+1                       // Avail = RdOff - WrOff - 1u;
 80001cc:	3801      	subs	r0, #1
        CMP      R0,R2
 80001ce:	4290      	cmp	r0, r2
        BCS.N    _Case4                          // if (Avail >= NumBytes) {      => Case 4) == 1) ? => If not, we have case 5) == 3) (does not fit)
 80001d0:	d2d1      	bcs.n	8000176 <_Case4>

080001d2 <_Case3>:
_Case3:
        MOVS     R0,#+0
 80001d2:	2000      	movs	r0, #0
        POP      {R4-R7}
 80001d4:	bcf0      	pop	{r4, r5, r6, r7}
        BX       LR                              // Return 0
 80001d6:	4770      	bx	lr
        LDR.W    R0,=_SEGGER_RTT                 // pRing = &_SEGGER_RTT.aUp[BufferIndex];
 80001d8:	2000230c 	.word	0x2000230c

080001dc <__aeabi_drsub>:
 80001dc:	f081 4100 	eor.w	r1, r1, #2147483648	; 0x80000000
 80001e0:	e002      	b.n	80001e8 <__adddf3>
 80001e2:	bf00      	nop

080001e4 <__aeabi_dsub>:
 80001e4:	f083 4300 	eor.w	r3, r3, #2147483648	; 0x80000000

080001e8 <__adddf3>:
 80001e8:	b530      	push	{r4, r5, lr}
 80001ea:	ea4f 0441 	mov.w	r4, r1, lsl #1
 80001ee:	ea4f 0543 	mov.w	r5, r3, lsl #1
 80001f2:	ea94 0f05 	teq	r4, r5
 80001f6:	bf08      	it	eq
 80001f8:	ea90 0f02 	teqeq	r0, r2
 80001fc:	bf1f      	itttt	ne
 80001fe:	ea54 0c00 	orrsne.w	ip, r4, r0
 8000202:	ea55 0c02 	orrsne.w	ip, r5, r2
 8000206:	ea7f 5c64 	mvnsne.w	ip, r4, asr #21
 800020a:	ea7f 5c65 	mvnsne.w	ip, r5, asr #21
 800020e:	f000 80e2 	beq.w	80003d6 <__adddf3+0x1ee>
 8000212:	ea4f 5454 	mov.w	r4, r4, lsr #21
 8000216:	ebd4 5555 	rsbs	r5, r4, r5, lsr #21
 800021a:	bfb8      	it	lt
 800021c:	426d      	neglt	r5, r5
 800021e:	dd0c      	ble.n	800023a <__adddf3+0x52>
 8000220:	442c      	add	r4, r5
 8000222:	ea80 0202 	eor.w	r2, r0, r2
 8000226:	ea81 0303 	eor.w	r3, r1, r3
 800022a:	ea82 0000 	eor.w	r0, r2, r0
 800022e:	ea83 0101 	eor.w	r1, r3, r1
 8000232:	ea80 0202 	eor.w	r2, r0, r2
 8000236:	ea81 0303 	eor.w	r3, r1, r3
 800023a:	2d36      	cmp	r5, #54	; 0x36
 800023c:	bf88      	it	hi
 800023e:	bd30      	pophi	{r4, r5, pc}
 8000240:	f011 4f00 	tst.w	r1, #2147483648	; 0x80000000
 8000244:	ea4f 3101 	mov.w	r1, r1, lsl #12
 8000248:	f44f 1c80 	mov.w	ip, #1048576	; 0x100000
 800024c:	ea4c 3111 	orr.w	r1, ip, r1, lsr #12
 8000250:	d002      	beq.n	8000258 <__adddf3+0x70>
 8000252:	4240      	negs	r0, r0
 8000254:	eb61 0141 	sbc.w	r1, r1, r1, lsl #1
 8000258:	f013 4f00 	tst.w	r3, #2147483648	; 0x80000000
 800025c:	ea4f 3303 	mov.w	r3, r3, lsl #12
 8000260:	ea4c 3313 	orr.w	r3, ip, r3, lsr #12
 8000264:	d002      	beq.n	800026c <__adddf3+0x84>
 8000266:	4252      	negs	r2, r2
 8000268:	eb63 0343 	sbc.w	r3, r3, r3, lsl #1
 800026c:	ea94 0f05 	teq	r4, r5
 8000270:	f000 80a7 	beq.w	80003c2 <__adddf3+0x1da>
 8000274:	f1a4 0401 	sub.w	r4, r4, #1
 8000278:	f1d5 0e20 	rsbs	lr, r5, #32
 800027c:	db0d      	blt.n	800029a <__adddf3+0xb2>
 800027e:	fa02 fc0e 	lsl.w	ip, r2, lr
 8000282:	fa22 f205 	lsr.w	r2, r2, r5
 8000286:	1880      	adds	r0, r0, r2
 8000288:	f141 0100 	adc.w	r1, r1, #0
 800028c:	fa03 f20e 	lsl.w	r2, r3, lr
 8000290:	1880      	adds	r0, r0, r2
 8000292:	fa43 f305 	asr.w	r3, r3, r5
 8000296:	4159      	adcs	r1, r3
 8000298:	e00e      	b.n	80002b8 <__adddf3+0xd0>
 800029a:	f1a5 0520 	sub.w	r5, r5, #32
 800029e:	f10e 0e20 	add.w	lr, lr, #32
 80002a2:	2a01      	cmp	r2, #1
 80002a4:	fa03 fc0e 	lsl.w	ip, r3, lr
 80002a8:	bf28      	it	cs
 80002aa:	f04c 0c02 	orrcs.w	ip, ip, #2
 80002ae:	fa43 f305 	asr.w	r3, r3, r5
 80002b2:	18c0      	adds	r0, r0, r3
 80002b4:	eb51 71e3 	adcs.w	r1, r1, r3, asr #31
 80002b8:	f001 4500 	and.w	r5, r1, #2147483648	; 0x80000000
 80002bc:	d507      	bpl.n	80002ce <__adddf3+0xe6>
 80002be:	f04f 0e00 	mov.w	lr, #0
 80002c2:	f1dc 0c00 	rsbs	ip, ip, #0
 80002c6:	eb7e 0000 	sbcs.w	r0, lr, r0
 80002ca:	eb6e 0101 	sbc.w	r1, lr, r1
 80002ce:	f5b1 1f80 	cmp.w	r1, #1048576	; 0x100000
 80002d2:	d31b      	bcc.n	800030c <__adddf3+0x124>
 80002d4:	f5b1 1f00 	cmp.w	r1, #2097152	; 0x200000
 80002d8:	d30c      	bcc.n	80002f4 <__adddf3+0x10c>
 80002da:	0849      	lsrs	r1, r1, #1
 80002dc:	ea5f 0030 	movs.w	r0, r0, rrx
 80002e0:	ea4f 0c3c 	mov.w	ip, ip, rrx
 80002e4:	f104 0401 	add.w	r4, r4, #1
 80002e8:	ea4f 5244 	mov.w	r2, r4, lsl #21
 80002ec:	f512 0f80 	cmn.w	r2, #4194304	; 0x400000
 80002f0:	f080 809a 	bcs.w	8000428 <__adddf3+0x240>
 80002f4:	f1bc 4f00 	cmp.w	ip, #2147483648	; 0x80000000
 80002f8:	bf08      	it	eq
 80002fa:	ea5f 0c50 	movseq.w	ip, r0, lsr #1
 80002fe:	f150 0000 	adcs.w	r0, r0, #0
 8000302:	eb41 5104 	adc.w	r1, r1, r4, lsl #20
 8000306:	ea41 0105 	orr.w	r1, r1, r5
 800030a:	bd30      	pop	{r4, r5, pc}
 800030c:	ea5f 0c4c 	movs.w	ip, ip, lsl #1
 8000310:	4140      	adcs	r0, r0
 8000312:	eb41 0101 	adc.w	r1, r1, r1
 8000316:	f411 1f80 	tst.w	r1, #1048576	; 0x100000
 800031a:	f1a4 0401 	sub.w	r4, r4, #1
 800031e:	d1e9      	bne.n	80002f4 <__adddf3+0x10c>
 8000320:	f091 0f00 	teq	r1, #0
 8000324:	bf04      	itt	eq
 8000326:	4601      	moveq	r1, r0
 8000328:	2000      	moveq	r0, #0
 800032a:	fab1 f381 	clz	r3, r1
 800032e:	bf08      	it	eq
 8000330:	3320      	addeq	r3, #32
 8000332:	f1a3 030b 	sub.w	r3, r3, #11
 8000336:	f1b3 0220 	subs.w	r2, r3, #32
 800033a:	da0c      	bge.n	8000356 <__adddf3+0x16e>
 800033c:	320c      	adds	r2, #12
 800033e:	dd08      	ble.n	8000352 <__adddf3+0x16a>
 8000340:	f102 0c14 	add.w	ip, r2, #20
 8000344:	f1c2 020c 	rsb	r2, r2, #12
 8000348:	fa01 f00c 	lsl.w	r0, r1, ip
 800034c:	fa21 f102 	lsr.w	r1, r1, r2
 8000350:	e00c      	b.n	800036c <__adddf3+0x184>
 8000352:	f102 0214 	add.w	r2, r2, #20
 8000356:	bfd8      	it	le
 8000358:	f1c2 0c20 	rsble	ip, r2, #32
 800035c:	fa01 f102 	lsl.w	r1, r1, r2
 8000360:	fa20 fc0c 	lsr.w	ip, r0, ip
 8000364:	bfdc      	itt	le
 8000366:	ea41 010c 	orrle.w	r1, r1, ip
 800036a:	4090      	lslle	r0, r2
 800036c:	1ae4      	subs	r4, r4, r3
 800036e:	bfa2      	ittt	ge
 8000370:	eb01 5104 	addge.w	r1, r1, r4, lsl #20
 8000374:	4329      	orrge	r1, r5
 8000376:	bd30      	popge	{r4, r5, pc}
 8000378:	ea6f 0404 	mvn.w	r4, r4
 800037c:	3c1f      	subs	r4, #31
 800037e:	da1c      	bge.n	80003ba <__adddf3+0x1d2>
 8000380:	340c      	adds	r4, #12
 8000382:	dc0e      	bgt.n	80003a2 <__adddf3+0x1ba>
 8000384:	f104 0414 	add.w	r4, r4, #20
 8000388:	f1c4 0220 	rsb	r2, r4, #32
 800038c:	fa20 f004 	lsr.w	r0, r0, r4
 8000390:	fa01 f302 	lsl.w	r3, r1, r2
 8000394:	ea40 0003 	orr.w	r0, r0, r3
 8000398:	fa21 f304 	lsr.w	r3, r1, r4
 800039c:	ea45 0103 	orr.w	r1, r5, r3
 80003a0:	bd30      	pop	{r4, r5, pc}
 80003a2:	f1c4 040c 	rsb	r4, r4, #12
 80003a6:	f1c4 0220 	rsb	r2, r4, #32
 80003aa:	fa20 f002 	lsr.w	r0, r0, r2
 80003ae:	fa01 f304 	lsl.w	r3, r1, r4
 80003b2:	ea40 0003 	orr.w	r0, r0, r3
 80003b6:	4629      	mov	r1, r5
 80003b8:	bd30      	pop	{r4, r5, pc}
 80003ba:	fa21 f004 	lsr.w	r0, r1, r4
 80003be:	4629      	mov	r1, r5
 80003c0:	bd30      	pop	{r4, r5, pc}
 80003c2:	f094 0f00 	teq	r4, #0
 80003c6:	f483 1380 	eor.w	r3, r3, #1048576	; 0x100000
 80003ca:	bf06      	itte	eq
 80003cc:	f481 1180 	eoreq.w	r1, r1, #1048576	; 0x100000
 80003d0:	3401      	addeq	r4, #1
 80003d2:	3d01      	subne	r5, #1
 80003d4:	e74e      	b.n	8000274 <__adddf3+0x8c>
 80003d6:	ea7f 5c64 	mvns.w	ip, r4, asr #21
 80003da:	bf18      	it	ne
 80003dc:	ea7f 5c65 	mvnsne.w	ip, r5, asr #21
 80003e0:	d029      	beq.n	8000436 <__adddf3+0x24e>
 80003e2:	ea94 0f05 	teq	r4, r5
 80003e6:	bf08      	it	eq
 80003e8:	ea90 0f02 	teqeq	r0, r2
 80003ec:	d005      	beq.n	80003fa <__adddf3+0x212>
 80003ee:	ea54 0c00 	orrs.w	ip, r4, r0
 80003f2:	bf04      	itt	eq
 80003f4:	4619      	moveq	r1, r3
 80003f6:	4610      	moveq	r0, r2
 80003f8:	bd30      	pop	{r4, r5, pc}
 80003fa:	ea91 0f03 	teq	r1, r3
 80003fe:	bf1e      	ittt	ne
 8000400:	2100      	movne	r1, #0
 8000402:	2000      	movne	r0, #0
 8000404:	bd30      	popne	{r4, r5, pc}
 8000406:	ea5f 5c54 	movs.w	ip, r4, lsr #21
 800040a:	d105      	bne.n	8000418 <__adddf3+0x230>
 800040c:	0040      	lsls	r0, r0, #1
 800040e:	4149      	adcs	r1, r1
 8000410:	bf28      	it	cs
 8000412:	f041 4100 	orrcs.w	r1, r1, #2147483648	; 0x80000000
 8000416:	bd30      	pop	{r4, r5, pc}
 8000418:	f514 0480 	adds.w	r4, r4, #4194304	; 0x400000
 800041c:	bf3c      	itt	cc
 800041e:	f501 1180 	addcc.w	r1, r1, #1048576	; 0x100000
 8000422:	bd30      	popcc	{r4, r5, pc}
 8000424:	f001 4500 	and.w	r5, r1, #2147483648	; 0x80000000
 8000428:	f045 41fe 	orr.w	r1, r5, #2130706432	; 0x7f000000
 800042c:	f441 0170 	orr.w	r1, r1, #15728640	; 0xf00000
 8000430:	f04f 0000 	mov.w	r0, #0
 8000434:	bd30      	pop	{r4, r5, pc}
 8000436:	ea7f 5c64 	mvns.w	ip, r4, asr #21
 800043a:	bf1a      	itte	ne
 800043c:	4619      	movne	r1, r3
 800043e:	4610      	movne	r0, r2
 8000440:	ea7f 5c65 	mvnseq.w	ip, r5, asr #21
 8000444:	bf1c      	itt	ne
 8000446:	460b      	movne	r3, r1
 8000448:	4602      	movne	r2, r0
 800044a:	ea50 3401 	orrs.w	r4, r0, r1, lsl #12
 800044e:	bf06      	itte	eq
 8000450:	ea52 3503 	orrseq.w	r5, r2, r3, lsl #12
 8000454:	ea91 0f03 	teqeq	r1, r3
 8000458:	f441 2100 	orrne.w	r1, r1, #524288	; 0x80000
 800045c:	bd30      	pop	{r4, r5, pc}
 800045e:	bf00      	nop

08000460 <__aeabi_ui2d>:
 8000460:	f090 0f00 	teq	r0, #0
 8000464:	bf04      	itt	eq
 8000466:	2100      	moveq	r1, #0
 8000468:	4770      	bxeq	lr
 800046a:	b530      	push	{r4, r5, lr}
 800046c:	f44f 6480 	mov.w	r4, #1024	; 0x400
 8000470:	f104 0432 	add.w	r4, r4, #50	; 0x32
 8000474:	f04f 0500 	mov.w	r5, #0
 8000478:	f04f 0100 	mov.w	r1, #0
 800047c:	e750      	b.n	8000320 <__adddf3+0x138>
 800047e:	bf00      	nop

08000480 <__aeabi_i2d>:
 8000480:	f090 0f00 	teq	r0, #0
 8000484:	bf04      	itt	eq
 8000486:	2100      	moveq	r1, #0
 8000488:	4770      	bxeq	lr
 800048a:	b530      	push	{r4, r5, lr}
 800048c:	f44f 6480 	mov.w	r4, #1024	; 0x400
 8000490:	f104 0432 	add.w	r4, r4, #50	; 0x32
 8000494:	f010 4500 	ands.w	r5, r0, #2147483648	; 0x80000000
 8000498:	bf48      	it	mi
 800049a:	4240      	negmi	r0, r0
 800049c:	f04f 0100 	mov.w	r1, #0
 80004a0:	e73e      	b.n	8000320 <__adddf3+0x138>
 80004a2:	bf00      	nop

080004a4 <__aeabi_f2d>:
 80004a4:	0042      	lsls	r2, r0, #1
 80004a6:	ea4f 01e2 	mov.w	r1, r2, asr #3
 80004aa:	ea4f 0131 	mov.w	r1, r1, rrx
 80004ae:	ea4f 7002 	mov.w	r0, r2, lsl #28
 80004b2:	bf1f      	itttt	ne
 80004b4:	f012 437f 	andsne.w	r3, r2, #4278190080	; 0xff000000
 80004b8:	f093 4f7f 	teqne	r3, #4278190080	; 0xff000000
 80004bc:	f081 5160 	eorne.w	r1, r1, #939524096	; 0x38000000
 80004c0:	4770      	bxne	lr
 80004c2:	f032 427f 	bics.w	r2, r2, #4278190080	; 0xff000000
 80004c6:	bf08      	it	eq
 80004c8:	4770      	bxeq	lr
 80004ca:	f093 4f7f 	teq	r3, #4278190080	; 0xff000000
 80004ce:	bf04      	itt	eq
 80004d0:	f441 2100 	orreq.w	r1, r1, #524288	; 0x80000
 80004d4:	4770      	bxeq	lr
 80004d6:	b530      	push	{r4, r5, lr}
 80004d8:	f44f 7460 	mov.w	r4, #896	; 0x380
 80004dc:	f001 4500 	and.w	r5, r1, #2147483648	; 0x80000000
 80004e0:	f021 4100 	bic.w	r1, r1, #2147483648	; 0x80000000
 80004e4:	e71c      	b.n	8000320 <__adddf3+0x138>
 80004e6:	bf00      	nop

080004e8 <__aeabi_ul2d>:
 80004e8:	ea50 0201 	orrs.w	r2, r0, r1
 80004ec:	bf08      	it	eq
 80004ee:	4770      	bxeq	lr
 80004f0:	b530      	push	{r4, r5, lr}
 80004f2:	f04f 0500 	mov.w	r5, #0
 80004f6:	e00a      	b.n	800050e <__aeabi_l2d+0x16>

080004f8 <__aeabi_l2d>:
 80004f8:	ea50 0201 	orrs.w	r2, r0, r1
 80004fc:	bf08      	it	eq
 80004fe:	4770      	bxeq	lr
 8000500:	b530      	push	{r4, r5, lr}
 8000502:	f011 4500 	ands.w	r5, r1, #2147483648	; 0x80000000
 8000506:	d502      	bpl.n	800050e <__aeabi_l2d+0x16>
 8000508:	4240      	negs	r0, r0
 800050a:	eb61 0141 	sbc.w	r1, r1, r1, lsl #1
 800050e:	f44f 6480 	mov.w	r4, #1024	; 0x400
 8000512:	f104 0432 	add.w	r4, r4, #50	; 0x32
 8000516:	ea5f 5c91 	movs.w	ip, r1, lsr #22
 800051a:	f43f aed8 	beq.w	80002ce <__adddf3+0xe6>
 800051e:	f04f 0203 	mov.w	r2, #3
 8000522:	ea5f 0cdc 	movs.w	ip, ip, lsr #3
 8000526:	bf18      	it	ne
 8000528:	3203      	addne	r2, #3
 800052a:	ea5f 0cdc 	movs.w	ip, ip, lsr #3
 800052e:	bf18      	it	ne
 8000530:	3203      	addne	r2, #3
 8000532:	eb02 02dc 	add.w	r2, r2, ip, lsr #3
 8000536:	f1c2 0320 	rsb	r3, r2, #32
 800053a:	fa00 fc03 	lsl.w	ip, r0, r3
 800053e:	fa20 f002 	lsr.w	r0, r0, r2
 8000542:	fa01 fe03 	lsl.w	lr, r1, r3
 8000546:	ea40 000e 	orr.w	r0, r0, lr
 800054a:	fa21 f102 	lsr.w	r1, r1, r2
 800054e:	4414      	add	r4, r2
 8000550:	e6bd      	b.n	80002ce <__adddf3+0xe6>
 8000552:	bf00      	nop

08000554 <__aeabi_dmul>:
 8000554:	b570      	push	{r4, r5, r6, lr}
 8000556:	f04f 0cff 	mov.w	ip, #255	; 0xff
 800055a:	f44c 6ce0 	orr.w	ip, ip, #1792	; 0x700
 800055e:	ea1c 5411 	ands.w	r4, ip, r1, lsr #20
 8000562:	bf1d      	ittte	ne
 8000564:	ea1c 5513 	andsne.w	r5, ip, r3, lsr #20
 8000568:	ea94 0f0c 	teqne	r4, ip
 800056c:	ea95 0f0c 	teqne	r5, ip
 8000570:	f000 f8de 	bleq	8000730 <__aeabi_dmul+0x1dc>
 8000574:	442c      	add	r4, r5
 8000576:	ea81 0603 	eor.w	r6, r1, r3
 800057a:	ea21 514c 	bic.w	r1, r1, ip, lsl #21
 800057e:	ea23 534c 	bic.w	r3, r3, ip, lsl #21
 8000582:	ea50 3501 	orrs.w	r5, r0, r1, lsl #12
 8000586:	bf18      	it	ne
 8000588:	ea52 3503 	orrsne.w	r5, r2, r3, lsl #12
 800058c:	f441 1180 	orr.w	r1, r1, #1048576	; 0x100000
 8000590:	f443 1380 	orr.w	r3, r3, #1048576	; 0x100000
 8000594:	d038      	beq.n	8000608 <__aeabi_dmul+0xb4>
 8000596:	fba0 ce02 	umull	ip, lr, r0, r2
 800059a:	f04f 0500 	mov.w	r5, #0
 800059e:	fbe1 e502 	umlal	lr, r5, r1, r2
 80005a2:	f006 4200 	and.w	r2, r6, #2147483648	; 0x80000000
 80005a6:	fbe0 e503 	umlal	lr, r5, r0, r3
 80005aa:	f04f 0600 	mov.w	r6, #0
 80005ae:	fbe1 5603 	umlal	r5, r6, r1, r3
 80005b2:	f09c 0f00 	teq	ip, #0
 80005b6:	bf18      	it	ne
 80005b8:	f04e 0e01 	orrne.w	lr, lr, #1
 80005bc:	f1a4 04ff 	sub.w	r4, r4, #255	; 0xff
 80005c0:	f5b6 7f00 	cmp.w	r6, #512	; 0x200
 80005c4:	f564 7440 	sbc.w	r4, r4, #768	; 0x300
 80005c8:	d204      	bcs.n	80005d4 <__aeabi_dmul+0x80>
 80005ca:	ea5f 0e4e 	movs.w	lr, lr, lsl #1
 80005ce:	416d      	adcs	r5, r5
 80005d0:	eb46 0606 	adc.w	r6, r6, r6
 80005d4:	ea42 21c6 	orr.w	r1, r2, r6, lsl #11
 80005d8:	ea41 5155 	orr.w	r1, r1, r5, lsr #21
 80005dc:	ea4f 20c5 	mov.w	r0, r5, lsl #11
 80005e0:	ea40 505e 	orr.w	r0, r0, lr, lsr #21
 80005e4:	ea4f 2ece 	mov.w	lr, lr, lsl #11
 80005e8:	f1b4 0cfd 	subs.w	ip, r4, #253	; 0xfd
 80005ec:	bf88      	it	hi
 80005ee:	f5bc 6fe0 	cmphi.w	ip, #1792	; 0x700
 80005f2:	d81e      	bhi.n	8000632 <__aeabi_dmul+0xde>
 80005f4:	f1be 4f00 	cmp.w	lr, #2147483648	; 0x80000000
 80005f8:	bf08      	it	eq
 80005fa:	ea5f 0e50 	movseq.w	lr, r0, lsr #1
 80005fe:	f150 0000 	adcs.w	r0, r0, #0
 8000602:	eb41 5104 	adc.w	r1, r1, r4, lsl #20
 8000606:	bd70      	pop	{r4, r5, r6, pc}
 8000608:	f006 4600 	and.w	r6, r6, #2147483648	; 0x80000000
 800060c:	ea46 0101 	orr.w	r1, r6, r1
 8000610:	ea40 0002 	orr.w	r0, r0, r2
 8000614:	ea81 0103 	eor.w	r1, r1, r3
 8000618:	ebb4 045c 	subs.w	r4, r4, ip, lsr #1
 800061c:	bfc2      	ittt	gt
 800061e:	ebd4 050c 	rsbsgt	r5, r4, ip
 8000622:	ea41 5104 	orrgt.w	r1, r1, r4, lsl #20
 8000626:	bd70      	popgt	{r4, r5, r6, pc}
 8000628:	f441 1180 	orr.w	r1, r1, #1048576	; 0x100000
 800062c:	f04f 0e00 	mov.w	lr, #0
 8000630:	3c01      	subs	r4, #1
 8000632:	f300 80ab 	bgt.w	800078c <__aeabi_dmul+0x238>
 8000636:	f114 0f36 	cmn.w	r4, #54	; 0x36
 800063a:	bfde      	ittt	le
 800063c:	2000      	movle	r0, #0
 800063e:	f001 4100 	andle.w	r1, r1, #2147483648	; 0x80000000
 8000642:	bd70      	pople	{r4, r5, r6, pc}
 8000644:	f1c4 0400 	rsb	r4, r4, #0
 8000648:	3c20      	subs	r4, #32
 800064a:	da35      	bge.n	80006b8 <__aeabi_dmul+0x164>
 800064c:	340c      	adds	r4, #12
 800064e:	dc1b      	bgt.n	8000688 <__aeabi_dmul+0x134>
 8000650:	f104 0414 	add.w	r4, r4, #20
 8000654:	f1c4 0520 	rsb	r5, r4, #32
 8000658:	fa00 f305 	lsl.w	r3, r0, r5
 800065c:	fa20 f004 	lsr.w	r0, r0, r4
 8000660:	fa01 f205 	lsl.w	r2, r1, r5
 8000664:	ea40 0002 	orr.w	r0, r0, r2
 8000668:	f001 4200 	and.w	r2, r1, #2147483648	; 0x80000000
 800066c:	f021 4100 	bic.w	r1, r1, #2147483648	; 0x80000000
 8000670:	eb10 70d3 	adds.w	r0, r0, r3, lsr #31
 8000674:	fa21 f604 	lsr.w	r6, r1, r4
 8000678:	eb42 0106 	adc.w	r1, r2, r6
 800067c:	ea5e 0e43 	orrs.w	lr, lr, r3, lsl #1
 8000680:	bf08      	it	eq
 8000682:	ea20 70d3 	biceq.w	r0, r0, r3, lsr #31
 8000686:	bd70      	pop	{r4, r5, r6, pc}
 8000688:	f1c4 040c 	rsb	r4, r4, #12
 800068c:	f1c4 0520 	rsb	r5, r4, #32
 8000690:	fa00 f304 	lsl.w	r3, r0, r4
 8000694:	fa20 f005 	lsr.w	r0, r0, r5
 8000698:	fa01 f204 	lsl.w	r2, r1, r4
 800069c:	ea40 0002 	orr.w	r0, r0, r2
 80006a0:	f001 4100 	and.w	r1, r1, #2147483648	; 0x80000000
 80006a4:	eb10 70d3 	adds.w	r0, r0, r3, lsr #31
 80006a8:	f141 0100 	adc.w	r1, r1, #0
 80006ac:	ea5e 0e43 	orrs.w	lr, lr, r3, lsl #1
 80006b0:	bf08      	it	eq
 80006b2:	ea20 70d3 	biceq.w	r0, r0, r3, lsr #31
 80006b6:	bd70      	pop	{r4, r5, r6, pc}
 80006b8:	f1c4 0520 	rsb	r5, r4, #32
 80006bc:	fa00 f205 	lsl.w	r2, r0, r5
 80006c0:	ea4e 0e02 	orr.w	lr, lr, r2
 80006c4:	fa20 f304 	lsr.w	r3, r0, r4
 80006c8:	fa01 f205 	lsl.w	r2, r1, r5
 80006cc:	ea43 0302 	orr.w	r3, r3, r2
 80006d0:	fa21 f004 	lsr.w	r0, r1, r4
 80006d4:	f001 4100 	and.w	r1, r1, #2147483648	; 0x80000000
 80006d8:	fa21 f204 	lsr.w	r2, r1, r4
 80006dc:	ea20 0002 	bic.w	r0, r0, r2
 80006e0:	eb00 70d3 	add.w	r0, r0, r3, lsr #31
 80006e4:	ea5e 0e43 	orrs.w	lr, lr, r3, lsl #1
 80006e8:	bf08      	it	eq
 80006ea:	ea20 70d3 	biceq.w	r0, r0, r3, lsr #31
 80006ee:	bd70      	pop	{r4, r5, r6, pc}
 80006f0:	f094 0f00 	teq	r4, #0
 80006f4:	d10f      	bne.n	8000716 <__aeabi_dmul+0x1c2>
 80006f6:	f001 4600 	and.w	r6, r1, #2147483648	; 0x80000000
 80006fa:	0040      	lsls	r0, r0, #1
 80006fc:	eb41 0101 	adc.w	r1, r1, r1
 8000700:	f411 1f80 	tst.w	r1, #1048576	; 0x100000
 8000704:	bf08      	it	eq
 8000706:	3c01      	subeq	r4, #1
 8000708:	d0f7      	beq.n	80006fa <__aeabi_dmul+0x1a6>
 800070a:	ea41 0106 	orr.w	r1, r1, r6
 800070e:	f095 0f00 	teq	r5, #0
 8000712:	bf18      	it	ne
 8000714:	4770      	bxne	lr
 8000716:	f003 4600 	and.w	r6, r3, #2147483648	; 0x80000000
 800071a:	0052      	lsls	r2, r2, #1
 800071c:	eb43 0303 	adc.w	r3, r3, r3
 8000720:	f413 1f80 	tst.w	r3, #1048576	; 0x100000
 8000724:	bf08      	it	eq
 8000726:	3d01      	subeq	r5, #1
 8000728:	d0f7      	beq.n	800071a <__aeabi_dmul+0x1c6>
 800072a:	ea43 0306 	orr.w	r3, r3, r6
 800072e:	4770      	bx	lr
 8000730:	ea94 0f0c 	teq	r4, ip
 8000734:	ea0c 5513 	and.w	r5, ip, r3, lsr #20
 8000738:	bf18      	it	ne
 800073a:	ea95 0f0c 	teqne	r5, ip
 800073e:	d00c      	beq.n	800075a <__aeabi_dmul+0x206>
 8000740:	ea50 0641 	orrs.w	r6, r0, r1, lsl #1
 8000744:	bf18      	it	ne
 8000746:	ea52 0643 	orrsne.w	r6, r2, r3, lsl #1
 800074a:	d1d1      	bne.n	80006f0 <__aeabi_dmul+0x19c>
 800074c:	ea81 0103 	eor.w	r1, r1, r3
 8000750:	f001 4100 	and.w	r1, r1, #2147483648	; 0x80000000
 8000754:	f04f 0000 	mov.w	r0, #0
 8000758:	bd70      	pop	{r4, r5, r6, pc}
 800075a:	ea50 0641 	orrs.w	r6, r0, r1, lsl #1
 800075e:	bf06      	itte	eq
 8000760:	4610      	moveq	r0, r2
 8000762:	4619      	moveq	r1, r3
 8000764:	ea52 0643 	orrsne.w	r6, r2, r3, lsl #1
 8000768:	d019      	beq.n	800079e <__aeabi_dmul+0x24a>
 800076a:	ea94 0f0c 	teq	r4, ip
 800076e:	d102      	bne.n	8000776 <__aeabi_dmul+0x222>
 8000770:	ea50 3601 	orrs.w	r6, r0, r1, lsl #12
 8000774:	d113      	bne.n	800079e <__aeabi_dmul+0x24a>
 8000776:	ea95 0f0c 	teq	r5, ip
 800077a:	d105      	bne.n	8000788 <__aeabi_dmul+0x234>
 800077c:	ea52 3603 	orrs.w	r6, r2, r3, lsl #12
 8000780:	bf1c      	itt	ne
 8000782:	4610      	movne	r0, r2
 8000784:	4619      	movne	r1, r3
 8000786:	d10a      	bne.n	800079e <__aeabi_dmul+0x24a>
 8000788:	ea81 0103 	eor.w	r1, r1, r3
 800078c:	f001 4100 	and.w	r1, r1, #2147483648	; 0x80000000
 8000790:	f041 41fe 	orr.w	r1, r1, #2130706432	; 0x7f000000
 8000794:	f441 0170 	orr.w	r1, r1, #15728640	; 0xf00000
 8000798:	f04f 0000 	mov.w	r0, #0
 800079c:	bd70      	pop	{r4, r5, r6, pc}
 800079e:	f041 41fe 	orr.w	r1, r1, #2130706432	; 0x7f000000
 80007a2:	f441 0178 	orr.w	r1, r1, #16252928	; 0xf80000
 80007a6:	bd70      	pop	{r4, r5, r6, pc}

080007a8 <__aeabi_ddiv>:
 80007a8:	b570      	push	{r4, r5, r6, lr}
 80007aa:	f04f 0cff 	mov.w	ip, #255	; 0xff
 80007ae:	f44c 6ce0 	orr.w	ip, ip, #1792	; 0x700
 80007b2:	ea1c 5411 	ands.w	r4, ip, r1, lsr #20
 80007b6:	bf1d      	ittte	ne
 80007b8:	ea1c 5513 	andsne.w	r5, ip, r3, lsr #20
 80007bc:	ea94 0f0c 	teqne	r4, ip
 80007c0:	ea95 0f0c 	teqne	r5, ip
 80007c4:	f000 f8a7 	bleq	8000916 <__aeabi_ddiv+0x16e>
 80007c8:	eba4 0405 	sub.w	r4, r4, r5
 80007cc:	ea81 0e03 	eor.w	lr, r1, r3
 80007d0:	ea52 3503 	orrs.w	r5, r2, r3, lsl #12
 80007d4:	ea4f 3101 	mov.w	r1, r1, lsl #12
 80007d8:	f000 8088 	beq.w	80008ec <__aeabi_ddiv+0x144>
 80007dc:	ea4f 3303 	mov.w	r3, r3, lsl #12
 80007e0:	f04f 5580 	mov.w	r5, #268435456	; 0x10000000
 80007e4:	ea45 1313 	orr.w	r3, r5, r3, lsr #4
 80007e8:	ea43 6312 	orr.w	r3, r3, r2, lsr #24
 80007ec:	ea4f 2202 	mov.w	r2, r2, lsl #8
 80007f0:	ea45 1511 	orr.w	r5, r5, r1, lsr #4
 80007f4:	ea45 6510 	orr.w	r5, r5, r0, lsr #24
 80007f8:	ea4f 2600 	mov.w	r6, r0, lsl #8
 80007fc:	f00e 4100 	and.w	r1, lr, #2147483648	; 0x80000000
 8000800:	429d      	cmp	r5, r3
 8000802:	bf08      	it	eq
 8000804:	4296      	cmpeq	r6, r2
 8000806:	f144 04fd 	adc.w	r4, r4, #253	; 0xfd
 800080a:	f504 7440 	add.w	r4, r4, #768	; 0x300
 800080e:	d202      	bcs.n	8000816 <__aeabi_ddiv+0x6e>
 8000810:	085b      	lsrs	r3, r3, #1
 8000812:	ea4f 0232 	mov.w	r2, r2, rrx
 8000816:	1ab6      	subs	r6, r6, r2
 8000818:	eb65 0503 	sbc.w	r5, r5, r3
 800081c:	085b      	lsrs	r3, r3, #1
 800081e:	ea4f 0232 	mov.w	r2, r2, rrx
 8000822:	f44f 1080 	mov.w	r0, #1048576	; 0x100000
 8000826:	f44f 2c00 	mov.w	ip, #524288	; 0x80000
 800082a:	ebb6 0e02 	subs.w	lr, r6, r2
 800082e:	eb75 0e03 	sbcs.w	lr, r5, r3
 8000832:	bf22      	ittt	cs
 8000834:	1ab6      	subcs	r6, r6, r2
 8000836:	4675      	movcs	r5, lr
 8000838:	ea40 000c 	orrcs.w	r0, r0, ip
 800083c:	085b      	lsrs	r3, r3, #1
 800083e:	ea4f 0232 	mov.w	r2, r2, rrx
 8000842:	ebb6 0e02 	subs.w	lr, r6, r2
 8000846:	eb75 0e03 	sbcs.w	lr, r5, r3
 800084a:	bf22      	ittt	cs
 800084c:	1ab6      	subcs	r6, r6, r2
 800084e:	4675      	movcs	r5, lr
 8000850:	ea40 005c 	orrcs.w	r0, r0, ip, lsr #1
 8000854:	085b      	lsrs	r3, r3, #1
 8000856:	ea4f 0232 	mov.w	r2, r2, rrx
 800085a:	ebb6 0e02 	subs.w	lr, r6, r2
 800085e:	eb75 0e03 	sbcs.w	lr, r5, r3
 8000862:	bf22      	ittt	cs
 8000864:	1ab6      	subcs	r6, r6, r2
 8000866:	4675      	movcs	r5, lr
 8000868:	ea40 009c 	orrcs.w	r0, r0, ip, lsr #2
 800086c:	085b      	lsrs	r3, r3, #1
 800086e:	ea4f 0232 	mov.w	r2, r2, rrx
 8000872:	ebb6 0e02 	subs.w	lr, r6, r2
 8000876:	eb75 0e03 	sbcs.w	lr, r5, r3
 800087a:	bf22      	ittt	cs
 800087c:	1ab6      	subcs	r6, r6, r2
 800087e:	4675      	movcs	r5, lr
 8000880:	ea40 00dc 	orrcs.w	r0, r0, ip, lsr #3
 8000884:	ea55 0e06 	orrs.w	lr, r5, r6
 8000888:	d018      	beq.n	80008bc <__aeabi_ddiv+0x114>
 800088a:	ea4f 1505 	mov.w	r5, r5, lsl #4
 800088e:	ea45 7516 	orr.w	r5, r5, r6, lsr #28
 8000892:	ea4f 1606 	mov.w	r6, r6, lsl #4
 8000896:	ea4f 03c3 	mov.w	r3, r3, lsl #3
 800089a:	ea43 7352 	orr.w	r3, r3, r2, lsr #29
 800089e:	ea4f 02c2 	mov.w	r2, r2, lsl #3
 80008a2:	ea5f 1c1c 	movs.w	ip, ip, lsr #4
 80008a6:	d1c0      	bne.n	800082a <__aeabi_ddiv+0x82>
 80008a8:	f411 1f80 	tst.w	r1, #1048576	; 0x100000
 80008ac:	d10b      	bne.n	80008c6 <__aeabi_ddiv+0x11e>
 80008ae:	ea41 0100 	orr.w	r1, r1, r0
 80008b2:	f04f 0000 	mov.w	r0, #0
 80008b6:	f04f 4c00 	mov.w	ip, #2147483648	; 0x80000000
 80008ba:	e7b6      	b.n	800082a <__aeabi_ddiv+0x82>
 80008bc:	f411 1f80 	tst.w	r1, #1048576	; 0x100000
 80008c0:	bf04      	itt	eq
 80008c2:	4301      	orreq	r1, r0
 80008c4:	2000      	moveq	r0, #0
 80008c6:	f1b4 0cfd 	subs.w	ip, r4, #253	; 0xfd
 80008ca:	bf88      	it	hi
 80008cc:	f5bc 6fe0 	cmphi.w	ip, #1792	; 0x700
 80008d0:	f63f aeaf 	bhi.w	8000632 <__aeabi_dmul+0xde>
 80008d4:	ebb5 0c03 	subs.w	ip, r5, r3
 80008d8:	bf04      	itt	eq
 80008da:	ebb6 0c02 	subseq.w	ip, r6, r2
 80008de:	ea5f 0c50 	movseq.w	ip, r0, lsr #1
 80008e2:	f150 0000 	adcs.w	r0, r0, #0
 80008e6:	eb41 5104 	adc.w	r1, r1, r4, lsl #20
 80008ea:	bd70      	pop	{r4, r5, r6, pc}
 80008ec:	f00e 4e00 	and.w	lr, lr, #2147483648	; 0x80000000
 80008f0:	ea4e 3111 	orr.w	r1, lr, r1, lsr #12
 80008f4:	eb14 045c 	adds.w	r4, r4, ip, lsr #1
 80008f8:	bfc2      	ittt	gt
 80008fa:	ebd4 050c 	rsbsgt	r5, r4, ip
 80008fe:	ea41 5104 	orrgt.w	r1, r1, r4, lsl #20
 8000902:	bd70      	popgt	{r4, r5, r6, pc}
 8000904:	f441 1180 	orr.w	r1, r1, #1048576	; 0x100000
 8000908:	f04f 0e00 	mov.w	lr, #0
 800090c:	3c01      	subs	r4, #1
 800090e:	e690      	b.n	8000632 <__aeabi_dmul+0xde>
 8000910:	ea45 0e06 	orr.w	lr, r5, r6
 8000914:	e68d      	b.n	8000632 <__aeabi_dmul+0xde>
 8000916:	ea0c 5513 	and.w	r5, ip, r3, lsr #20
 800091a:	ea94 0f0c 	teq	r4, ip
 800091e:	bf08      	it	eq
 8000920:	ea95 0f0c 	teqeq	r5, ip
 8000924:	f43f af3b 	beq.w	800079e <__aeabi_dmul+0x24a>
 8000928:	ea94 0f0c 	teq	r4, ip
 800092c:	d10a      	bne.n	8000944 <__aeabi_ddiv+0x19c>
 800092e:	ea50 3401 	orrs.w	r4, r0, r1, lsl #12
 8000932:	f47f af34 	bne.w	800079e <__aeabi_dmul+0x24a>
 8000936:	ea95 0f0c 	teq	r5, ip
 800093a:	f47f af25 	bne.w	8000788 <__aeabi_dmul+0x234>
 800093e:	4610      	mov	r0, r2
 8000940:	4619      	mov	r1, r3
 8000942:	e72c      	b.n	800079e <__aeabi_dmul+0x24a>
 8000944:	ea95 0f0c 	teq	r5, ip
 8000948:	d106      	bne.n	8000958 <__aeabi_ddiv+0x1b0>
 800094a:	ea52 3503 	orrs.w	r5, r2, r3, lsl #12
 800094e:	f43f aefd 	beq.w	800074c <__aeabi_dmul+0x1f8>
 8000952:	4610      	mov	r0, r2
 8000954:	4619      	mov	r1, r3
 8000956:	e722      	b.n	800079e <__aeabi_dmul+0x24a>
 8000958:	ea50 0641 	orrs.w	r6, r0, r1, lsl #1
 800095c:	bf18      	it	ne
 800095e:	ea52 0643 	orrsne.w	r6, r2, r3, lsl #1
 8000962:	f47f aec5 	bne.w	80006f0 <__aeabi_dmul+0x19c>
 8000966:	ea50 0441 	orrs.w	r4, r0, r1, lsl #1
 800096a:	f47f af0d 	bne.w	8000788 <__aeabi_dmul+0x234>
 800096e:	ea52 0543 	orrs.w	r5, r2, r3, lsl #1
 8000972:	f47f aeeb 	bne.w	800074c <__aeabi_dmul+0x1f8>
 8000976:	e712      	b.n	800079e <__aeabi_dmul+0x24a>

08000978 <__aeabi_d2f>:
 8000978:	ea4f 0241 	mov.w	r2, r1, lsl #1
 800097c:	f1b2 43e0 	subs.w	r3, r2, #1879048192	; 0x70000000
 8000980:	bf24      	itt	cs
 8000982:	f5b3 1c00 	subscs.w	ip, r3, #2097152	; 0x200000
 8000986:	f1dc 5cfe 	rsbscs	ip, ip, #532676608	; 0x1fc00000
 800098a:	d90d      	bls.n	80009a8 <__aeabi_d2f+0x30>
 800098c:	f001 4c00 	and.w	ip, r1, #2147483648	; 0x80000000
 8000990:	ea4f 02c0 	mov.w	r2, r0, lsl #3
 8000994:	ea4c 7050 	orr.w	r0, ip, r0, lsr #29
 8000998:	f1b2 4f00 	cmp.w	r2, #2147483648	; 0x80000000
 800099c:	eb40 0083 	adc.w	r0, r0, r3, lsl #2
 80009a0:	bf08      	it	eq
 80009a2:	f020 0001 	biceq.w	r0, r0, #1
 80009a6:	4770      	bx	lr
 80009a8:	f011 4f80 	tst.w	r1, #1073741824	; 0x40000000
 80009ac:	d121      	bne.n	80009f2 <__aeabi_d2f+0x7a>
 80009ae:	f113 7238 	adds.w	r2, r3, #48234496	; 0x2e00000
 80009b2:	bfbc      	itt	lt
 80009b4:	f001 4000 	andlt.w	r0, r1, #2147483648	; 0x80000000
 80009b8:	4770      	bxlt	lr
 80009ba:	f441 1180 	orr.w	r1, r1, #1048576	; 0x100000
 80009be:	ea4f 5252 	mov.w	r2, r2, lsr #21
 80009c2:	f1c2 0218 	rsb	r2, r2, #24
 80009c6:	f1c2 0c20 	rsb	ip, r2, #32
 80009ca:	fa10 f30c 	lsls.w	r3, r0, ip
 80009ce:	fa20 f002 	lsr.w	r0, r0, r2
 80009d2:	bf18      	it	ne
 80009d4:	f040 0001 	orrne.w	r0, r0, #1
 80009d8:	ea4f 23c1 	mov.w	r3, r1, lsl #11
 80009dc:	ea4f 23d3 	mov.w	r3, r3, lsr #11
 80009e0:	fa03 fc0c 	lsl.w	ip, r3, ip
 80009e4:	ea40 000c 	orr.w	r0, r0, ip
 80009e8:	fa23 f302 	lsr.w	r3, r3, r2
 80009ec:	ea4f 0343 	mov.w	r3, r3, lsl #1
 80009f0:	e7cc      	b.n	800098c <__aeabi_d2f+0x14>
 80009f2:	ea7f 5362 	mvns.w	r3, r2, asr #21
 80009f6:	d107      	bne.n	8000a08 <__aeabi_d2f+0x90>
 80009f8:	ea50 3301 	orrs.w	r3, r0, r1, lsl #12
 80009fc:	bf1e      	ittt	ne
 80009fe:	f04f 40fe 	movne.w	r0, #2130706432	; 0x7f000000
 8000a02:	f440 0040 	orrne.w	r0, r0, #12582912	; 0xc00000
 8000a06:	4770      	bxne	lr
 8000a08:	f001 4000 	and.w	r0, r1, #2147483648	; 0x80000000
 8000a0c:	f040 40fe 	orr.w	r0, r0, #2130706432	; 0x7f000000
 8000a10:	f440 0000 	orr.w	r0, r0, #8388608	; 0x800000
 8000a14:	4770      	bx	lr
 8000a16:	bf00      	nop

08000a18 <__aeabi_frsub>:
 8000a18:	f080 4000 	eor.w	r0, r0, #2147483648	; 0x80000000
 8000a1c:	e002      	b.n	8000a24 <__addsf3>
 8000a1e:	bf00      	nop

08000a20 <__aeabi_fsub>:
 8000a20:	f081 4100 	eor.w	r1, r1, #2147483648	; 0x80000000

08000a24 <__addsf3>:
 8000a24:	0042      	lsls	r2, r0, #1
 8000a26:	bf1f      	itttt	ne
 8000a28:	ea5f 0341 	movsne.w	r3, r1, lsl #1
 8000a2c:	ea92 0f03 	teqne	r2, r3
 8000a30:	ea7f 6c22 	mvnsne.w	ip, r2, asr #24
 8000a34:	ea7f 6c23 	mvnsne.w	ip, r3, asr #24
 8000a38:	d06a      	beq.n	8000b10 <__addsf3+0xec>
 8000a3a:	ea4f 6212 	mov.w	r2, r2, lsr #24
 8000a3e:	ebd2 6313 	rsbs	r3, r2, r3, lsr #24
 8000a42:	bfc1      	itttt	gt
 8000a44:	18d2      	addgt	r2, r2, r3
 8000a46:	4041      	eorgt	r1, r0
 8000a48:	4048      	eorgt	r0, r1
 8000a4a:	4041      	eorgt	r1, r0
 8000a4c:	bfb8      	it	lt
 8000a4e:	425b      	neglt	r3, r3
 8000a50:	2b19      	cmp	r3, #25
 8000a52:	bf88      	it	hi
 8000a54:	4770      	bxhi	lr
 8000a56:	f010 4f00 	tst.w	r0, #2147483648	; 0x80000000
 8000a5a:	f440 0000 	orr.w	r0, r0, #8388608	; 0x800000
 8000a5e:	f020 407f 	bic.w	r0, r0, #4278190080	; 0xff000000
 8000a62:	bf18      	it	ne
 8000a64:	4240      	negne	r0, r0
 8000a66:	f011 4f00 	tst.w	r1, #2147483648	; 0x80000000
 8000a6a:	f441 0100 	orr.w	r1, r1, #8388608	; 0x800000
 8000a6e:	f021 417f 	bic.w	r1, r1, #4278190080	; 0xff000000
 8000a72:	bf18      	it	ne
 8000a74:	4249      	negne	r1, r1
 8000a76:	ea92 0f03 	teq	r2, r3
 8000a7a:	d03f      	beq.n	8000afc <__addsf3+0xd8>
 8000a7c:	f1a2 0201 	sub.w	r2, r2, #1
 8000a80:	fa41 fc03 	asr.w	ip, r1, r3
 8000a84:	eb10 000c 	adds.w	r0, r0, ip
 8000a88:	f1c3 0320 	rsb	r3, r3, #32
 8000a8c:	fa01 f103 	lsl.w	r1, r1, r3
 8000a90:	f000 4300 	and.w	r3, r0, #2147483648	; 0x80000000
 8000a94:	d502      	bpl.n	8000a9c <__addsf3+0x78>
 8000a96:	4249      	negs	r1, r1
 8000a98:	eb60 0040 	sbc.w	r0, r0, r0, lsl #1
 8000a9c:	f5b0 0f00 	cmp.w	r0, #8388608	; 0x800000
 8000aa0:	d313      	bcc.n	8000aca <__addsf3+0xa6>
 8000aa2:	f1b0 7f80 	cmp.w	r0, #16777216	; 0x1000000
 8000aa6:	d306      	bcc.n	8000ab6 <__addsf3+0x92>
 8000aa8:	0840      	lsrs	r0, r0, #1
 8000aaa:	ea4f 0131 	mov.w	r1, r1, rrx
 8000aae:	f102 0201 	add.w	r2, r2, #1
 8000ab2:	2afe      	cmp	r2, #254	; 0xfe
 8000ab4:	d251      	bcs.n	8000b5a <__addsf3+0x136>
 8000ab6:	f1b1 4f00 	cmp.w	r1, #2147483648	; 0x80000000
 8000aba:	eb40 50c2 	adc.w	r0, r0, r2, lsl #23
 8000abe:	bf08      	it	eq
 8000ac0:	f020 0001 	biceq.w	r0, r0, #1
 8000ac4:	ea40 0003 	orr.w	r0, r0, r3
 8000ac8:	4770      	bx	lr
 8000aca:	0049      	lsls	r1, r1, #1
 8000acc:	eb40 0000 	adc.w	r0, r0, r0
 8000ad0:	f410 0f00 	tst.w	r0, #8388608	; 0x800000
 8000ad4:	f1a2 0201 	sub.w	r2, r2, #1
 8000ad8:	d1ed      	bne.n	8000ab6 <__addsf3+0x92>
 8000ada:	fab0 fc80 	clz	ip, r0
 8000ade:	f1ac 0c08 	sub.w	ip, ip, #8
 8000ae2:	ebb2 020c 	subs.w	r2, r2, ip
 8000ae6:	fa00 f00c 	lsl.w	r0, r0, ip
 8000aea:	bfaa      	itet	ge
 8000aec:	eb00 50c2 	addge.w	r0, r0, r2, lsl #23
 8000af0:	4252      	neglt	r2, r2
 8000af2:	4318      	orrge	r0, r3
 8000af4:	bfbc      	itt	lt
 8000af6:	40d0      	lsrlt	r0, r2
 8000af8:	4318      	orrlt	r0, r3
 8000afa:	4770      	bx	lr
 8000afc:	f092 0f00 	teq	r2, #0
 8000b00:	f481 0100 	eor.w	r1, r1, #8388608	; 0x800000
 8000b04:	bf06      	itte	eq
 8000b06:	f480 0000 	eoreq.w	r0, r0, #8388608	; 0x800000
 8000b0a:	3201      	addeq	r2, #1
 8000b0c:	3b01      	subne	r3, #1
 8000b0e:	e7b5      	b.n	8000a7c <__addsf3+0x58>
 8000b10:	ea4f 0341 	mov.w	r3, r1, lsl #1
 8000b14:	ea7f 6c22 	mvns.w	ip, r2, asr #24
 8000b18:	bf18      	it	ne
 8000b1a:	ea7f 6c23 	mvnsne.w	ip, r3, asr #24
 8000b1e:	d021      	beq.n	8000b64 <__addsf3+0x140>
 8000b20:	ea92 0f03 	teq	r2, r3
 8000b24:	d004      	beq.n	8000b30 <__addsf3+0x10c>
 8000b26:	f092 0f00 	teq	r2, #0
 8000b2a:	bf08      	it	eq
 8000b2c:	4608      	moveq	r0, r1
 8000b2e:	4770      	bx	lr
 8000b30:	ea90 0f01 	teq	r0, r1
 8000b34:	bf1c      	itt	ne
 8000b36:	2000      	movne	r0, #0
 8000b38:	4770      	bxne	lr
 8000b3a:	f012 4f7f 	tst.w	r2, #4278190080	; 0xff000000
 8000b3e:	d104      	bne.n	8000b4a <__addsf3+0x126>
 8000b40:	0040      	lsls	r0, r0, #1
 8000b42:	bf28      	it	cs
 8000b44:	f040 4000 	orrcs.w	r0, r0, #2147483648	; 0x80000000
 8000b48:	4770      	bx	lr
 8000b4a:	f112 7200 	adds.w	r2, r2, #33554432	; 0x2000000
 8000b4e:	bf3c      	itt	cc
 8000b50:	f500 0000 	addcc.w	r0, r0, #8388608	; 0x800000
 8000b54:	4770      	bxcc	lr
 8000b56:	f000 4300 	and.w	r3, r0, #2147483648	; 0x80000000
 8000b5a:	f043 40fe 	orr.w	r0, r3, #2130706432	; 0x7f000000
 8000b5e:	f440 0000 	orr.w	r0, r0, #8388608	; 0x800000
 8000b62:	4770      	bx	lr
 8000b64:	ea7f 6222 	mvns.w	r2, r2, asr #24
 8000b68:	bf16      	itet	ne
 8000b6a:	4608      	movne	r0, r1
 8000b6c:	ea7f 6323 	mvnseq.w	r3, r3, asr #24
 8000b70:	4601      	movne	r1, r0
 8000b72:	0242      	lsls	r2, r0, #9
 8000b74:	bf06      	itte	eq
 8000b76:	ea5f 2341 	movseq.w	r3, r1, lsl #9
 8000b7a:	ea90 0f01 	teqeq	r0, r1
 8000b7e:	f440 0080 	orrne.w	r0, r0, #4194304	; 0x400000
 8000b82:	4770      	bx	lr

08000b84 <__aeabi_ui2f>:
 8000b84:	f04f 0300 	mov.w	r3, #0
 8000b88:	e004      	b.n	8000b94 <__aeabi_i2f+0x8>
 8000b8a:	bf00      	nop

08000b8c <__aeabi_i2f>:
 8000b8c:	f010 4300 	ands.w	r3, r0, #2147483648	; 0x80000000
 8000b90:	bf48      	it	mi
 8000b92:	4240      	negmi	r0, r0
 8000b94:	ea5f 0c00 	movs.w	ip, r0
 8000b98:	bf08      	it	eq
 8000b9a:	4770      	bxeq	lr
 8000b9c:	f043 4396 	orr.w	r3, r3, #1258291200	; 0x4b000000
 8000ba0:	4601      	mov	r1, r0
 8000ba2:	f04f 0000 	mov.w	r0, #0
 8000ba6:	e01c      	b.n	8000be2 <__aeabi_l2f+0x2a>

08000ba8 <__aeabi_ul2f>:
 8000ba8:	ea50 0201 	orrs.w	r2, r0, r1
 8000bac:	bf08      	it	eq
 8000bae:	4770      	bxeq	lr
 8000bb0:	f04f 0300 	mov.w	r3, #0
 8000bb4:	e00a      	b.n	8000bcc <__aeabi_l2f+0x14>
 8000bb6:	bf00      	nop

08000bb8 <__aeabi_l2f>:
 8000bb8:	ea50 0201 	orrs.w	r2, r0, r1
 8000bbc:	bf08      	it	eq
 8000bbe:	4770      	bxeq	lr
 8000bc0:	f011 4300 	ands.w	r3, r1, #2147483648	; 0x80000000
 8000bc4:	d502      	bpl.n	8000bcc <__aeabi_l2f+0x14>
 8000bc6:	4240      	negs	r0, r0
 8000bc8:	eb61 0141 	sbc.w	r1, r1, r1, lsl #1
 8000bcc:	ea5f 0c01 	movs.w	ip, r1
 8000bd0:	bf02      	ittt	eq
 8000bd2:	4684      	moveq	ip, r0
 8000bd4:	4601      	moveq	r1, r0
 8000bd6:	2000      	moveq	r0, #0
 8000bd8:	f043 43b6 	orr.w	r3, r3, #1526726656	; 0x5b000000
 8000bdc:	bf08      	it	eq
 8000bde:	f1a3 5380 	subeq.w	r3, r3, #268435456	; 0x10000000
 8000be2:	f5a3 0300 	sub.w	r3, r3, #8388608	; 0x800000
 8000be6:	fabc f28c 	clz	r2, ip
 8000bea:	3a08      	subs	r2, #8
 8000bec:	eba3 53c2 	sub.w	r3, r3, r2, lsl #23
 8000bf0:	db10      	blt.n	8000c14 <__aeabi_l2f+0x5c>
 8000bf2:	fa01 fc02 	lsl.w	ip, r1, r2
 8000bf6:	4463      	add	r3, ip
 8000bf8:	fa00 fc02 	lsl.w	ip, r0, r2
 8000bfc:	f1c2 0220 	rsb	r2, r2, #32
 8000c00:	f1bc 4f00 	cmp.w	ip, #2147483648	; 0x80000000
 8000c04:	fa20 f202 	lsr.w	r2, r0, r2
 8000c08:	eb43 0002 	adc.w	r0, r3, r2
 8000c0c:	bf08      	it	eq
 8000c0e:	f020 0001 	biceq.w	r0, r0, #1
 8000c12:	4770      	bx	lr
 8000c14:	f102 0220 	add.w	r2, r2, #32
 8000c18:	fa01 fc02 	lsl.w	ip, r1, r2
 8000c1c:	f1c2 0220 	rsb	r2, r2, #32
 8000c20:	ea50 004c 	orrs.w	r0, r0, ip, lsl #1
 8000c24:	fa21 f202 	lsr.w	r2, r1, r2
 8000c28:	eb43 0002 	adc.w	r0, r3, r2
 8000c2c:	bf08      	it	eq
 8000c2e:	ea20 70dc 	biceq.w	r0, r0, ip, lsr #31
 8000c32:	4770      	bx	lr

08000c34 <__aeabi_fmul>:
 8000c34:	f04f 0cff 	mov.w	ip, #255	; 0xff
 8000c38:	ea1c 52d0 	ands.w	r2, ip, r0, lsr #23
 8000c3c:	bf1e      	ittt	ne
 8000c3e:	ea1c 53d1 	andsne.w	r3, ip, r1, lsr #23
 8000c42:	ea92 0f0c 	teqne	r2, ip
 8000c46:	ea93 0f0c 	teqne	r3, ip
 8000c4a:	d06f      	beq.n	8000d2c <__aeabi_fmul+0xf8>
 8000c4c:	441a      	add	r2, r3
 8000c4e:	ea80 0c01 	eor.w	ip, r0, r1
 8000c52:	0240      	lsls	r0, r0, #9
 8000c54:	bf18      	it	ne
 8000c56:	ea5f 2141 	movsne.w	r1, r1, lsl #9
 8000c5a:	d01e      	beq.n	8000c9a <__aeabi_fmul+0x66>
 8000c5c:	f04f 6300 	mov.w	r3, #134217728	; 0x8000000
 8000c60:	ea43 1050 	orr.w	r0, r3, r0, lsr #5
 8000c64:	ea43 1151 	orr.w	r1, r3, r1, lsr #5
 8000c68:	fba0 3101 	umull	r3, r1, r0, r1
 8000c6c:	f00c 4000 	and.w	r0, ip, #2147483648	; 0x80000000
 8000c70:	f5b1 0f00 	cmp.w	r1, #8388608	; 0x800000
 8000c74:	bf3e      	ittt	cc
 8000c76:	0049      	lslcc	r1, r1, #1
 8000c78:	ea41 71d3 	orrcc.w	r1, r1, r3, lsr #31
 8000c7c:	005b      	lslcc	r3, r3, #1
 8000c7e:	ea40 0001 	orr.w	r0, r0, r1
 8000c82:	f162 027f 	sbc.w	r2, r2, #127	; 0x7f
 8000c86:	2afd      	cmp	r2, #253	; 0xfd
 8000c88:	d81d      	bhi.n	8000cc6 <__aeabi_fmul+0x92>
 8000c8a:	f1b3 4f00 	cmp.w	r3, #2147483648	; 0x80000000
 8000c8e:	eb40 50c2 	adc.w	r0, r0, r2, lsl #23
 8000c92:	bf08      	it	eq
 8000c94:	f020 0001 	biceq.w	r0, r0, #1
 8000c98:	4770      	bx	lr
 8000c9a:	f090 0f00 	teq	r0, #0
 8000c9e:	f00c 4c00 	and.w	ip, ip, #2147483648	; 0x80000000
 8000ca2:	bf08      	it	eq
 8000ca4:	0249      	lsleq	r1, r1, #9
 8000ca6:	ea4c 2050 	orr.w	r0, ip, r0, lsr #9
 8000caa:	ea40 2051 	orr.w	r0, r0, r1, lsr #9
 8000cae:	3a7f      	subs	r2, #127	; 0x7f
 8000cb0:	bfc2      	ittt	gt
 8000cb2:	f1d2 03ff 	rsbsgt	r3, r2, #255	; 0xff
 8000cb6:	ea40 50c2 	orrgt.w	r0, r0, r2, lsl #23
 8000cba:	4770      	bxgt	lr
 8000cbc:	f440 0000 	orr.w	r0, r0, #8388608	; 0x800000
 8000cc0:	f04f 0300 	mov.w	r3, #0
 8000cc4:	3a01      	subs	r2, #1
 8000cc6:	dc5d      	bgt.n	8000d84 <__aeabi_fmul+0x150>
 8000cc8:	f112 0f19 	cmn.w	r2, #25
 8000ccc:	bfdc      	itt	le
 8000cce:	f000 4000 	andle.w	r0, r0, #2147483648	; 0x80000000
 8000cd2:	4770      	bxle	lr
 8000cd4:	f1c2 0200 	rsb	r2, r2, #0
 8000cd8:	0041      	lsls	r1, r0, #1
 8000cda:	fa21 f102 	lsr.w	r1, r1, r2
 8000cde:	f1c2 0220 	rsb	r2, r2, #32
 8000ce2:	fa00 fc02 	lsl.w	ip, r0, r2
 8000ce6:	ea5f 0031 	movs.w	r0, r1, rrx
 8000cea:	f140 0000 	adc.w	r0, r0, #0
 8000cee:	ea53 034c 	orrs.w	r3, r3, ip, lsl #1
 8000cf2:	bf08      	it	eq
 8000cf4:	ea20 70dc 	biceq.w	r0, r0, ip, lsr #31
 8000cf8:	4770      	bx	lr
 8000cfa:	f092 0f00 	teq	r2, #0
 8000cfe:	f000 4c00 	and.w	ip, r0, #2147483648	; 0x80000000
 8000d02:	bf02      	ittt	eq
 8000d04:	0040      	lsleq	r0, r0, #1
 8000d06:	f410 0f00 	tsteq.w	r0, #8388608	; 0x800000
 8000d0a:	3a01      	subeq	r2, #1
 8000d0c:	d0f9      	beq.n	8000d02 <__aeabi_fmul+0xce>
 8000d0e:	ea40 000c 	orr.w	r0, r0, ip
 8000d12:	f093 0f00 	teq	r3, #0
 8000d16:	f001 4c00 	and.w	ip, r1, #2147483648	; 0x80000000
 8000d1a:	bf02      	ittt	eq
 8000d1c:	0049      	lsleq	r1, r1, #1
 8000d1e:	f411 0f00 	tsteq.w	r1, #8388608	; 0x800000
 8000d22:	3b01      	subeq	r3, #1
 8000d24:	d0f9      	beq.n	8000d1a <__aeabi_fmul+0xe6>
 8000d26:	ea41 010c 	orr.w	r1, r1, ip
 8000d2a:	e78f      	b.n	8000c4c <__aeabi_fmul+0x18>
 8000d2c:	ea0c 53d1 	and.w	r3, ip, r1, lsr #23
 8000d30:	ea92 0f0c 	teq	r2, ip
 8000d34:	bf18      	it	ne
 8000d36:	ea93 0f0c 	teqne	r3, ip
 8000d3a:	d00a      	beq.n	8000d52 <__aeabi_fmul+0x11e>
 8000d3c:	f030 4c00 	bics.w	ip, r0, #2147483648	; 0x80000000
 8000d40:	bf18      	it	ne
 8000d42:	f031 4c00 	bicsne.w	ip, r1, #2147483648	; 0x80000000
 8000d46:	d1d8      	bne.n	8000cfa <__aeabi_fmul+0xc6>
 8000d48:	ea80 0001 	eor.w	r0, r0, r1
 8000d4c:	f000 4000 	and.w	r0, r0, #2147483648	; 0x80000000
 8000d50:	4770      	bx	lr
 8000d52:	f090 0f00 	teq	r0, #0
 8000d56:	bf17      	itett	ne
 8000d58:	f090 4f00 	teqne	r0, #2147483648	; 0x80000000
 8000d5c:	4608      	moveq	r0, r1
 8000d5e:	f091 0f00 	teqne	r1, #0
 8000d62:	f091 4f00 	teqne	r1, #2147483648	; 0x80000000
 8000d66:	d014      	beq.n	8000d92 <__aeabi_fmul+0x15e>
 8000d68:	ea92 0f0c 	teq	r2, ip
 8000d6c:	d101      	bne.n	8000d72 <__aeabi_fmul+0x13e>
 8000d6e:	0242      	lsls	r2, r0, #9
 8000d70:	d10f      	bne.n	8000d92 <__aeabi_fmul+0x15e>
 8000d72:	ea93 0f0c 	teq	r3, ip
 8000d76:	d103      	bne.n	8000d80 <__aeabi_fmul+0x14c>
 8000d78:	024b      	lsls	r3, r1, #9
 8000d7a:	bf18      	it	ne
 8000d7c:	4608      	movne	r0, r1
 8000d7e:	d108      	bne.n	8000d92 <__aeabi_fmul+0x15e>
 8000d80:	ea80 0001 	eor.w	r0, r0, r1
 8000d84:	f000 4000 	and.w	r0, r0, #2147483648	; 0x80000000
 8000d88:	f040 40fe 	orr.w	r0, r0, #2130706432	; 0x7f000000
 8000d8c:	f440 0000 	orr.w	r0, r0, #8388608	; 0x800000
 8000d90:	4770      	bx	lr
 8000d92:	f040 40fe 	orr.w	r0, r0, #2130706432	; 0x7f000000
 8000d96:	f440 0040 	orr.w	r0, r0, #12582912	; 0xc00000
 8000d9a:	4770      	bx	lr

08000d9c <__aeabi_fdiv>:
 8000d9c:	f04f 0cff 	mov.w	ip, #255	; 0xff
 8000da0:	ea1c 52d0 	ands.w	r2, ip, r0, lsr #23
 8000da4:	bf1e      	ittt	ne
 8000da6:	ea1c 53d1 	andsne.w	r3, ip, r1, lsr #23
 8000daa:	ea92 0f0c 	teqne	r2, ip
 8000dae:	ea93 0f0c 	teqne	r3, ip
 8000db2:	d069      	beq.n	8000e88 <__aeabi_fdiv+0xec>
 8000db4:	eba2 0203 	sub.w	r2, r2, r3
 8000db8:	ea80 0c01 	eor.w	ip, r0, r1
 8000dbc:	0249      	lsls	r1, r1, #9
 8000dbe:	ea4f 2040 	mov.w	r0, r0, lsl #9
 8000dc2:	d037      	beq.n	8000e34 <__aeabi_fdiv+0x98>
 8000dc4:	f04f 5380 	mov.w	r3, #268435456	; 0x10000000
 8000dc8:	ea43 1111 	orr.w	r1, r3, r1, lsr #4
 8000dcc:	ea43 1310 	orr.w	r3, r3, r0, lsr #4
 8000dd0:	f00c 4000 	and.w	r0, ip, #2147483648	; 0x80000000
 8000dd4:	428b      	cmp	r3, r1
 8000dd6:	bf38      	it	cc
 8000dd8:	005b      	lslcc	r3, r3, #1
 8000dda:	f142 027d 	adc.w	r2, r2, #125	; 0x7d
 8000dde:	f44f 0c00 	mov.w	ip, #8388608	; 0x800000
 8000de2:	428b      	cmp	r3, r1
 8000de4:	bf24      	itt	cs
 8000de6:	1a5b      	subcs	r3, r3, r1
 8000de8:	ea40 000c 	orrcs.w	r0, r0, ip
 8000dec:	ebb3 0f51 	cmp.w	r3, r1, lsr #1
 8000df0:	bf24      	itt	cs
 8000df2:	eba3 0351 	subcs.w	r3, r3, r1, lsr #1
 8000df6:	ea40 005c 	orrcs.w	r0, r0, ip, lsr #1
 8000dfa:	ebb3 0f91 	cmp.w	r3, r1, lsr #2
 8000dfe:	bf24      	itt	cs
 8000e00:	eba3 0391 	subcs.w	r3, r3, r1, lsr #2
 8000e04:	ea40 009c 	orrcs.w	r0, r0, ip, lsr #2
 8000e08:	ebb3 0fd1 	cmp.w	r3, r1, lsr #3
 8000e0c:	bf24      	itt	cs
 8000e0e:	eba3 03d1 	subcs.w	r3, r3, r1, lsr #3
 8000e12:	ea40 00dc 	orrcs.w	r0, r0, ip, lsr #3
 8000e16:	011b      	lsls	r3, r3, #4
 8000e18:	bf18      	it	ne
 8000e1a:	ea5f 1c1c 	movsne.w	ip, ip, lsr #4
 8000e1e:	d1e0      	bne.n	8000de2 <__aeabi_fdiv+0x46>
 8000e20:	2afd      	cmp	r2, #253	; 0xfd
 8000e22:	f63f af50 	bhi.w	8000cc6 <__aeabi_fmul+0x92>
 8000e26:	428b      	cmp	r3, r1
 8000e28:	eb40 50c2 	adc.w	r0, r0, r2, lsl #23
 8000e2c:	bf08      	it	eq
 8000e2e:	f020 0001 	biceq.w	r0, r0, #1
 8000e32:	4770      	bx	lr
 8000e34:	f00c 4c00 	and.w	ip, ip, #2147483648	; 0x80000000
 8000e38:	ea4c 2050 	orr.w	r0, ip, r0, lsr #9
 8000e3c:	327f      	adds	r2, #127	; 0x7f
 8000e3e:	bfc2      	ittt	gt
 8000e40:	f1d2 03ff 	rsbsgt	r3, r2, #255	; 0xff
 8000e44:	ea40 50c2 	orrgt.w	r0, r0, r2, lsl #23
 8000e48:	4770      	bxgt	lr
 8000e4a:	f440 0000 	orr.w	r0, r0, #8388608	; 0x800000
 8000e4e:	f04f 0300 	mov.w	r3, #0
 8000e52:	3a01      	subs	r2, #1
 8000e54:	e737      	b.n	8000cc6 <__aeabi_fmul+0x92>
 8000e56:	f092 0f00 	teq	r2, #0
 8000e5a:	f000 4c00 	and.w	ip, r0, #2147483648	; 0x80000000
 8000e5e:	bf02      	ittt	eq
 8000e60:	0040      	lsleq	r0, r0, #1
 8000e62:	f410 0f00 	tsteq.w	r0, #8388608	; 0x800000
 8000e66:	3a01      	subeq	r2, #1
 8000e68:	d0f9      	beq.n	8000e5e <__aeabi_fdiv+0xc2>
 8000e6a:	ea40 000c 	orr.w	r0, r0, ip
 8000e6e:	f093 0f00 	teq	r3, #0
 8000e72:	f001 4c00 	and.w	ip, r1, #2147483648	; 0x80000000
 8000e76:	bf02      	ittt	eq
 8000e78:	0049      	lsleq	r1, r1, #1
 8000e7a:	f411 0f00 	tsteq.w	r1, #8388608	; 0x800000
 8000e7e:	3b01      	subeq	r3, #1
 8000e80:	d0f9      	beq.n	8000e76 <__aeabi_fdiv+0xda>
 8000e82:	ea41 010c 	orr.w	r1, r1, ip
 8000e86:	e795      	b.n	8000db4 <__aeabi_fdiv+0x18>
 8000e88:	ea0c 53d1 	and.w	r3, ip, r1, lsr #23
 8000e8c:	ea92 0f0c 	teq	r2, ip
 8000e90:	d108      	bne.n	8000ea4 <__aeabi_fdiv+0x108>
 8000e92:	0242      	lsls	r2, r0, #9
 8000e94:	f47f af7d 	bne.w	8000d92 <__aeabi_fmul+0x15e>
 8000e98:	ea93 0f0c 	teq	r3, ip
 8000e9c:	f47f af70 	bne.w	8000d80 <__aeabi_fmul+0x14c>
 8000ea0:	4608      	mov	r0, r1
 8000ea2:	e776      	b.n	8000d92 <__aeabi_fmul+0x15e>
 8000ea4:	ea93 0f0c 	teq	r3, ip
 8000ea8:	d104      	bne.n	8000eb4 <__aeabi_fdiv+0x118>
 8000eaa:	024b      	lsls	r3, r1, #9
 8000eac:	f43f af4c 	beq.w	8000d48 <__aeabi_fmul+0x114>
 8000eb0:	4608      	mov	r0, r1
 8000eb2:	e76e      	b.n	8000d92 <__aeabi_fmul+0x15e>
 8000eb4:	f030 4c00 	bics.w	ip, r0, #2147483648	; 0x80000000
 8000eb8:	bf18      	it	ne
 8000eba:	f031 4c00 	bicsne.w	ip, r1, #2147483648	; 0x80000000
 8000ebe:	d1ca      	bne.n	8000e56 <__aeabi_fdiv+0xba>
 8000ec0:	f030 4200 	bics.w	r2, r0, #2147483648	; 0x80000000
 8000ec4:	f47f af5c 	bne.w	8000d80 <__aeabi_fmul+0x14c>
 8000ec8:	f031 4300 	bics.w	r3, r1, #2147483648	; 0x80000000
 8000ecc:	f47f af3c 	bne.w	8000d48 <__aeabi_fmul+0x114>
 8000ed0:	e75f      	b.n	8000d92 <__aeabi_fmul+0x15e>
 8000ed2:	bf00      	nop

08000ed4 <__aeabi_f2uiz>:
 8000ed4:	0042      	lsls	r2, r0, #1
 8000ed6:	d20e      	bcs.n	8000ef6 <__aeabi_f2uiz+0x22>
 8000ed8:	f1b2 4ffe 	cmp.w	r2, #2130706432	; 0x7f000000
 8000edc:	d30b      	bcc.n	8000ef6 <__aeabi_f2uiz+0x22>
 8000ede:	f04f 039e 	mov.w	r3, #158	; 0x9e
 8000ee2:	ebb3 6212 	subs.w	r2, r3, r2, lsr #24
 8000ee6:	d409      	bmi.n	8000efc <__aeabi_f2uiz+0x28>
 8000ee8:	ea4f 2300 	mov.w	r3, r0, lsl #8
 8000eec:	f043 4300 	orr.w	r3, r3, #2147483648	; 0x80000000
 8000ef0:	fa23 f002 	lsr.w	r0, r3, r2
 8000ef4:	4770      	bx	lr
 8000ef6:	f04f 0000 	mov.w	r0, #0
 8000efa:	4770      	bx	lr
 8000efc:	f112 0f61 	cmn.w	r2, #97	; 0x61
 8000f00:	d101      	bne.n	8000f06 <__aeabi_f2uiz+0x32>
 8000f02:	0242      	lsls	r2, r0, #9
 8000f04:	d102      	bne.n	8000f0c <__aeabi_f2uiz+0x38>
 8000f06:	f04f 30ff 	mov.w	r0, #4294967295
 8000f0a:	4770      	bx	lr
 8000f0c:	f04f 0000 	mov.w	r0, #0
 8000f10:	4770      	bx	lr
 8000f12:	bf00      	nop

08000f14 <vApplicationGetIdleTaskMemory>:
/* USER CODE BEGIN GET_IDLE_TASK_MEMORY */
static StaticTask_t xIdleTaskTCBBuffer;
static StackType_t xIdleStack[configMINIMAL_STACK_SIZE];
  
void vApplicationGetIdleTaskMemory( StaticTask_t **ppxIdleTaskTCBBuffer, StackType_t **ppxIdleTaskStackBuffer, uint32_t *pulIdleTaskStackSize )
{
 8000f14:	b480      	push	{r7}
 8000f16:	b085      	sub	sp, #20
 8000f18:	af00      	add	r7, sp, #0
 8000f1a:	60f8      	str	r0, [r7, #12]
 8000f1c:	60b9      	str	r1, [r7, #8]
 8000f1e:	607a      	str	r2, [r7, #4]
  *ppxIdleTaskTCBBuffer = &xIdleTaskTCBBuffer;
 8000f20:	68fb      	ldr	r3, [r7, #12]
 8000f22:	4a06      	ldr	r2, [pc, #24]	; (8000f3c <vApplicationGetIdleTaskMemory+0x28>)
 8000f24:	601a      	str	r2, [r3, #0]
  *ppxIdleTaskStackBuffer = &xIdleStack[0];
 8000f26:	68bb      	ldr	r3, [r7, #8]
 8000f28:	4a05      	ldr	r2, [pc, #20]	; (8000f40 <vApplicationGetIdleTaskMemory+0x2c>)
 8000f2a:	601a      	str	r2, [r3, #0]
  *pulIdleTaskStackSize = configMINIMAL_STACK_SIZE;
 8000f2c:	687b      	ldr	r3, [r7, #4]
 8000f2e:	2280      	movs	r2, #128	; 0x80
 8000f30:	601a      	str	r2, [r3, #0]
  /* place for user code */
}                   
 8000f32:	bf00      	nop
 8000f34:	3714      	adds	r7, #20
 8000f36:	46bd      	mov	sp, r7
 8000f38:	bc80      	pop	{r7}
 8000f3a:	4770      	bx	lr
 8000f3c:	2000002c 	.word	0x2000002c
 8000f40:	20000080 	.word	0x20000080

08000f44 <main>:

/**
 * @brief  The application entry point.
 * @retval int
 */
int main(void) {
 8000f44:	b580      	push	{r7, lr}
 8000f46:	b082      	sub	sp, #8
 8000f48:	af02      	add	r7, sp, #8
  \details Enables IRQ interrupts by clearing the I-bit in the CPSR.
           Can only be executed in Privileged modes.
 */
__STATIC_FORCEINLINE void __enable_irq(void)
{
  __ASM volatile ("cpsie i" : : : "memory");
 8000f4a:	b662      	cpsie	i
	/* MCU Configuration--------------------------------------------------------*/
	__enable_irq();
	/* Reset of all peripherals, Initializes the Flash interface and the Systick. */
	HAL_Init();
 8000f4c:	f001 f924 	bl	8002198 <HAL_Init>

	HAL_Delay(2000);
 8000f50:	f44f 60fa 	mov.w	r0, #2000	; 0x7d0
 8000f54:	f001 f952 	bl	80021fc <HAL_Delay>
	/* Configure the system clock */
	SystemClock_Config();
 8000f58:	f000 f848 	bl	8000fec <SystemClock_Config>

	/* Initialize all configured peripherals */
	MX_GPIO_Init();
 8000f5c:	f000 f98e 	bl	800127c <MX_GPIO_Init>
	MX_DMA_Init();
 8000f60:	f000 f96e 	bl	8001240 <MX_DMA_Init>
	MX_ADC1_Init();
 8000f64:	f000 f89e 	bl	80010a4 <MX_ADC1_Init>
	MX_CAN_Init();
 8000f68:	f000 f906 	bl	8001178 <MX_CAN_Init>

	/* USER CODE BEGIN 0 */
	MX_I2C2_Init();
 8000f6c:	f000 f93a 	bl	80011e4 <MX_I2C2_Init>

	DWT_CTRL |= (1 << 0);
 8000f70:	4b17      	ldr	r3, [pc, #92]	; (8000fd0 <main+0x8c>)
 8000f72:	681b      	ldr	r3, [r3, #0]
 8000f74:	4a16      	ldr	r2, [pc, #88]	; (8000fd0 <main+0x8c>)
 8000f76:	f043 0301 	orr.w	r3, r3, #1
 8000f7a:	6013      	str	r3, [r2, #0]

	//OD = Flash_Read_NUM(0x0801FC00);

	CAN_Filter_Config();
 8000f7c:	f000 fa62 	bl	8001444 <CAN_Filter_Config>

	if (HAL_CAN_ActivateNotification(&hcan,
 8000f80:	f240 4101 	movw	r1, #1025	; 0x401
 8000f84:	4813      	ldr	r0, [pc, #76]	; (8000fd4 <main+0x90>)
 8000f86:	f001 fff9 	bl	8002f7c <HAL_CAN_ActivateNotification>
 8000f8a:	4603      	mov	r3, r0
 8000f8c:	2b00      	cmp	r3, #0
 8000f8e:	d001      	beq.n	8000f94 <main+0x50>
	CAN_IT_TX_MAILBOX_EMPTY /*| CAN_IT_RX_FIFO0_MSG_PENDING*/| CAN_IT_BUSOFF)
			!= HAL_OK) {
		Error_Handler();
 8000f90:	f000 fea4 	bl	8001cdc <Error_Handler>
	}

	if (HAL_CAN_Start(&hcan)) {
 8000f94:	480f      	ldr	r0, [pc, #60]	; (8000fd4 <main+0x90>)
 8000f96:	f001 fed3 	bl	8002d40 <HAL_CAN_Start>
 8000f9a:	4603      	mov	r3, r0
 8000f9c:	2b00      	cmp	r3, #0
 8000f9e:	d001      	beq.n	8000fa4 <main+0x60>
		Error_Handler();
 8000fa0:	f000 fe9c 	bl	8001cdc <Error_Handler>
	}

	HAL_ADC_Start_DMA(&hadc1, (uint32_t*) analog, 4);
 8000fa4:	2204      	movs	r2, #4
 8000fa6:	490c      	ldr	r1, [pc, #48]	; (8000fd8 <main+0x94>)
 8000fa8:	480c      	ldr	r0, [pc, #48]	; (8000fdc <main+0x98>)
 8000faa:	f001 fa21 	bl	80023f0 <HAL_ADC_Start_DMA>

	//SEGGER_SYSVIEW_Conf();
	//SEGGER_SYSVIEW_Start();

	xTaskCreate(Start_taskF, "StartTask", 128, NULL, 7, &Start_Task);
 8000fae:	4b0c      	ldr	r3, [pc, #48]	; (8000fe0 <main+0x9c>)
 8000fb0:	9301      	str	r3, [sp, #4]
 8000fb2:	2307      	movs	r3, #7
 8000fb4:	9300      	str	r3, [sp, #0]
 8000fb6:	2300      	movs	r3, #0
 8000fb8:	2280      	movs	r2, #128	; 0x80
 8000fba:	490a      	ldr	r1, [pc, #40]	; (8000fe4 <main+0xa0>)
 8000fbc:	480a      	ldr	r0, [pc, #40]	; (8000fe8 <main+0xa4>)
 8000fbe:	f004 fcc2 	bl	8005946 <xTaskCreate>

	vTaskStartScheduler();
 8000fc2:	f004 ff5d 	bl	8005e80 <vTaskStartScheduler>
	/* USER CODE END 0 */

	/* We should never get here as control is now taken by the scheduler */
	/* Infinite loop */
	while (1) {
		HAL_Delay(1); /*JUST IN CASE*/
 8000fc6:	2001      	movs	r0, #1
 8000fc8:	f001 f918 	bl	80021fc <HAL_Delay>
 8000fcc:	e7fb      	b.n	8000fc6 <main+0x82>
 8000fce:	bf00      	nop
 8000fd0:	e0001000 	.word	0xe0001000
 8000fd4:	20002214 	.word	0x20002214
 8000fd8:	200021a8 	.word	0x200021a8
 8000fdc:	20002244 	.word	0x20002244
 8000fe0:	200022c4 	.word	0x200022c4
 8000fe4:	080084dc 	.word	0x080084dc
 8000fe8:	08001491 	.word	0x08001491

08000fec <SystemClock_Config>:

/**
 * @brief System Clock Configuration
 * @retval None
 */
void SystemClock_Config(void) {
 8000fec:	b580      	push	{r7, lr}
 8000fee:	b094      	sub	sp, #80	; 0x50
 8000ff0:	af00      	add	r7, sp, #0
	RCC_OscInitTypeDef RCC_OscInitStruct = { 0 };
 8000ff2:	f107 0328 	add.w	r3, r7, #40	; 0x28
 8000ff6:	2228      	movs	r2, #40	; 0x28
 8000ff8:	2100      	movs	r1, #0
 8000ffa:	4618      	mov	r0, r3
 8000ffc:	f007 fa5a 	bl	80084b4 <memset>
	RCC_ClkInitTypeDef RCC_ClkInitStruct = { 0 };
 8001000:	f107 0314 	add.w	r3, r7, #20
 8001004:	2200      	movs	r2, #0
 8001006:	601a      	str	r2, [r3, #0]
 8001008:	605a      	str	r2, [r3, #4]
 800100a:	609a      	str	r2, [r3, #8]
 800100c:	60da      	str	r2, [r3, #12]
 800100e:	611a      	str	r2, [r3, #16]
	RCC_PeriphCLKInitTypeDef PeriphClkInit = { 0 };
 8001010:	1d3b      	adds	r3, r7, #4
 8001012:	2200      	movs	r2, #0
 8001014:	601a      	str	r2, [r3, #0]
 8001016:	605a      	str	r2, [r3, #4]
 8001018:	609a      	str	r2, [r3, #8]
 800101a:	60da      	str	r2, [r3, #12]

	/** Initializes the CPU, AHB and APB busses clocks
	 */
	RCC_OscInitStruct.OscillatorType = RCC_OSCILLATORTYPE_HSE;
 800101c:	2301      	movs	r3, #1
 800101e:	62bb      	str	r3, [r7, #40]	; 0x28
	RCC_OscInitStruct.HSEState = RCC_HSE_ON;
 8001020:	f44f 3380 	mov.w	r3, #65536	; 0x10000
 8001024:	62fb      	str	r3, [r7, #44]	; 0x2c
	RCC_OscInitStruct.HSEPredivValue = RCC_HSE_PREDIV_DIV1;
 8001026:	2300      	movs	r3, #0
 8001028:	633b      	str	r3, [r7, #48]	; 0x30
	RCC_OscInitStruct.HSIState = RCC_HSI_ON;
 800102a:	2301      	movs	r3, #1
 800102c:	63bb      	str	r3, [r7, #56]	; 0x38
	RCC_OscInitStruct.PLL.PLLState = RCC_PLL_ON;
 800102e:	2302      	movs	r3, #2
 8001030:	647b      	str	r3, [r7, #68]	; 0x44
	RCC_OscInitStruct.PLL.PLLSource = RCC_PLLSOURCE_HSE;
 8001032:	f44f 3380 	mov.w	r3, #65536	; 0x10000
 8001036:	64bb      	str	r3, [r7, #72]	; 0x48
	RCC_OscInitStruct.PLL.PLLMUL = RCC_PLL_MUL9;
 8001038:	f44f 13e0 	mov.w	r3, #1835008	; 0x1c0000
 800103c:	64fb      	str	r3, [r7, #76]	; 0x4c
	if (HAL_RCC_OscConfig(&RCC_OscInitStruct) != HAL_OK) {
 800103e:	f107 0328 	add.w	r3, r7, #40	; 0x28
 8001042:	4618      	mov	r0, r3
 8001044:	f003 fb8e 	bl	8004764 <HAL_RCC_OscConfig>
 8001048:	4603      	mov	r3, r0
 800104a:	2b00      	cmp	r3, #0
 800104c:	d001      	beq.n	8001052 <SystemClock_Config+0x66>
		Error_Handler();
 800104e:	f000 fe45 	bl	8001cdc <Error_Handler>
	}
	/** Initializes the CPU, AHB and APB busses clocks
	 */
	RCC_ClkInitStruct.ClockType = RCC_CLOCKTYPE_HCLK | RCC_CLOCKTYPE_SYSCLK
 8001052:	230f      	movs	r3, #15
 8001054:	617b      	str	r3, [r7, #20]
			| RCC_CLOCKTYPE_PCLK1 | RCC_CLOCKTYPE_PCLK2;
	RCC_ClkInitStruct.SYSCLKSource = RCC_SYSCLKSOURCE_PLLCLK;
 8001056:	2302      	movs	r3, #2
 8001058:	61bb      	str	r3, [r7, #24]
	RCC_ClkInitStruct.AHBCLKDivider = RCC_SYSCLK_DIV1;
 800105a:	2300      	movs	r3, #0
 800105c:	61fb      	str	r3, [r7, #28]
	RCC_ClkInitStruct.APB1CLKDivider = RCC_HCLK_DIV2;
 800105e:	f44f 6380 	mov.w	r3, #1024	; 0x400
 8001062:	623b      	str	r3, [r7, #32]
	RCC_ClkInitStruct.APB2CLKDivider = RCC_HCLK_DIV1;
 8001064:	2300      	movs	r3, #0
 8001066:	627b      	str	r3, [r7, #36]	; 0x24

	if (HAL_RCC_ClockConfig(&RCC_ClkInitStruct, FLASH_LATENCY_2) != HAL_OK) {
 8001068:	f107 0314 	add.w	r3, r7, #20
 800106c:	2102      	movs	r1, #2
 800106e:	4618      	mov	r0, r3
 8001070:	f003 fdf8 	bl	8004c64 <HAL_RCC_ClockConfig>
 8001074:	4603      	mov	r3, r0
 8001076:	2b00      	cmp	r3, #0
 8001078:	d001      	beq.n	800107e <SystemClock_Config+0x92>
		Error_Handler();
 800107a:	f000 fe2f 	bl	8001cdc <Error_Handler>
	}
	PeriphClkInit.PeriphClockSelection = RCC_PERIPHCLK_ADC;
 800107e:	2302      	movs	r3, #2
 8001080:	607b      	str	r3, [r7, #4]
	PeriphClkInit.AdcClockSelection = RCC_ADCPCLK2_DIV6;
 8001082:	f44f 4300 	mov.w	r3, #32768	; 0x8000
 8001086:	60fb      	str	r3, [r7, #12]
	if (HAL_RCCEx_PeriphCLKConfig(&PeriphClkInit) != HAL_OK) {
 8001088:	1d3b      	adds	r3, r7, #4
 800108a:	4618      	mov	r0, r3
 800108c:	f003 ffb6 	bl	8004ffc <HAL_RCCEx_PeriphCLKConfig>
 8001090:	4603      	mov	r3, r0
 8001092:	2b00      	cmp	r3, #0
 8001094:	d001      	beq.n	800109a <SystemClock_Config+0xae>
		Error_Handler();
 8001096:	f000 fe21 	bl	8001cdc <Error_Handler>
	}
}
 800109a:	bf00      	nop
 800109c:	3750      	adds	r7, #80	; 0x50
 800109e:	46bd      	mov	sp, r7
 80010a0:	bd80      	pop	{r7, pc}
	...

080010a4 <MX_ADC1_Init>:
/**
 * @brief ADC1 Initialization Function
 * @param None
 * @retval None
 */
static void MX_ADC1_Init(void) {
 80010a4:	b580      	push	{r7, lr}
 80010a6:	b084      	sub	sp, #16
 80010a8:	af00      	add	r7, sp, #0
	ADC_ChannelConfTypeDef sConfig = { 0 };
 80010aa:	1d3b      	adds	r3, r7, #4
 80010ac:	2200      	movs	r2, #0
 80010ae:	601a      	str	r2, [r3, #0]
 80010b0:	605a      	str	r2, [r3, #4]
 80010b2:	609a      	str	r2, [r3, #8]

	/** Common config
	 */
	hadc1.Instance = ADC1;
 80010b4:	4b2e      	ldr	r3, [pc, #184]	; (8001170 <MX_ADC1_Init+0xcc>)
 80010b6:	4a2f      	ldr	r2, [pc, #188]	; (8001174 <MX_ADC1_Init+0xd0>)
 80010b8:	601a      	str	r2, [r3, #0]
	hadc1.Init.ScanConvMode = ADC_SCAN_ENABLE;
 80010ba:	4b2d      	ldr	r3, [pc, #180]	; (8001170 <MX_ADC1_Init+0xcc>)
 80010bc:	f44f 7280 	mov.w	r2, #256	; 0x100
 80010c0:	609a      	str	r2, [r3, #8]
	hadc1.Init.ContinuousConvMode = ENABLE;
 80010c2:	4b2b      	ldr	r3, [pc, #172]	; (8001170 <MX_ADC1_Init+0xcc>)
 80010c4:	2201      	movs	r2, #1
 80010c6:	731a      	strb	r2, [r3, #12]
	hadc1.Init.DiscontinuousConvMode = DISABLE;
 80010c8:	4b29      	ldr	r3, [pc, #164]	; (8001170 <MX_ADC1_Init+0xcc>)
 80010ca:	2200      	movs	r2, #0
 80010cc:	751a      	strb	r2, [r3, #20]
	hadc1.Init.ExternalTrigConv = ADC_SOFTWARE_START;
 80010ce:	4b28      	ldr	r3, [pc, #160]	; (8001170 <MX_ADC1_Init+0xcc>)
 80010d0:	f44f 2260 	mov.w	r2, #917504	; 0xe0000
 80010d4:	61da      	str	r2, [r3, #28]
	hadc1.Init.DataAlign = ADC_DATAALIGN_RIGHT;
 80010d6:	4b26      	ldr	r3, [pc, #152]	; (8001170 <MX_ADC1_Init+0xcc>)
 80010d8:	2200      	movs	r2, #0
 80010da:	605a      	str	r2, [r3, #4]
	hadc1.Init.NbrOfConversion = 4;
 80010dc:	4b24      	ldr	r3, [pc, #144]	; (8001170 <MX_ADC1_Init+0xcc>)
 80010de:	2204      	movs	r2, #4
 80010e0:	611a      	str	r2, [r3, #16]
	if (HAL_ADC_Init(&hadc1) != HAL_OK) {
 80010e2:	4823      	ldr	r0, [pc, #140]	; (8001170 <MX_ADC1_Init+0xcc>)
 80010e4:	f001 f8ac 	bl	8002240 <HAL_ADC_Init>
 80010e8:	4603      	mov	r3, r0
 80010ea:	2b00      	cmp	r3, #0
 80010ec:	d001      	beq.n	80010f2 <MX_ADC1_Init+0x4e>
		Error_Handler();
 80010ee:	f000 fdf5 	bl	8001cdc <Error_Handler>
	}
	/** Configure Regular Channel
	 */
	sConfig.Channel = ADC_CHANNEL_0;
 80010f2:	2300      	movs	r3, #0
 80010f4:	607b      	str	r3, [r7, #4]
	sConfig.Rank = ADC_REGULAR_RANK_1;
 80010f6:	2301      	movs	r3, #1
 80010f8:	60bb      	str	r3, [r7, #8]
	sConfig.SamplingTime = ADC_SAMPLETIME_71CYCLES_5;
 80010fa:	2306      	movs	r3, #6
 80010fc:	60fb      	str	r3, [r7, #12]
	if (HAL_ADC_ConfigChannel(&hadc1, &sConfig) != HAL_OK) {
 80010fe:	1d3b      	adds	r3, r7, #4
 8001100:	4619      	mov	r1, r3
 8001102:	481b      	ldr	r0, [pc, #108]	; (8001170 <MX_ADC1_Init+0xcc>)
 8001104:	f001 fa6e 	bl	80025e4 <HAL_ADC_ConfigChannel>
 8001108:	4603      	mov	r3, r0
 800110a:	2b00      	cmp	r3, #0
 800110c:	d001      	beq.n	8001112 <MX_ADC1_Init+0x6e>
		Error_Handler();
 800110e:	f000 fde5 	bl	8001cdc <Error_Handler>
	}
	/** Configure Regular Channel
	 */
	sConfig.Channel = ADC_CHANNEL_1;
 8001112:	2301      	movs	r3, #1
 8001114:	607b      	str	r3, [r7, #4]
	sConfig.Rank = ADC_REGULAR_RANK_2;
 8001116:	2302      	movs	r3, #2
 8001118:	60bb      	str	r3, [r7, #8]
	if (HAL_ADC_ConfigChannel(&hadc1, &sConfig) != HAL_OK) {
 800111a:	1d3b      	adds	r3, r7, #4
 800111c:	4619      	mov	r1, r3
 800111e:	4814      	ldr	r0, [pc, #80]	; (8001170 <MX_ADC1_Init+0xcc>)
 8001120:	f001 fa60 	bl	80025e4 <HAL_ADC_ConfigChannel>
 8001124:	4603      	mov	r3, r0
 8001126:	2b00      	cmp	r3, #0
 8001128:	d001      	beq.n	800112e <MX_ADC1_Init+0x8a>
		Error_Handler();
 800112a:	f000 fdd7 	bl	8001cdc <Error_Handler>
	}
	/** Configure Regular Channel
	 */
	sConfig.Channel = ADC_CHANNEL_8;
 800112e:	2308      	movs	r3, #8
 8001130:	607b      	str	r3, [r7, #4]
	sConfig.Rank = ADC_REGULAR_RANK_3;
 8001132:	2303      	movs	r3, #3
 8001134:	60bb      	str	r3, [r7, #8]
	if (HAL_ADC_ConfigChannel(&hadc1, &sConfig) != HAL_OK) {
 8001136:	1d3b      	adds	r3, r7, #4
 8001138:	4619      	mov	r1, r3
 800113a:	480d      	ldr	r0, [pc, #52]	; (8001170 <MX_ADC1_Init+0xcc>)
 800113c:	f001 fa52 	bl	80025e4 <HAL_ADC_ConfigChannel>
 8001140:	4603      	mov	r3, r0
 8001142:	2b00      	cmp	r3, #0
 8001144:	d001      	beq.n	800114a <MX_ADC1_Init+0xa6>
		Error_Handler();
 8001146:	f000 fdc9 	bl	8001cdc <Error_Handler>
	}
	/** Configure Regular Channel
	 */
	sConfig.Channel = ADC_CHANNEL_9;
 800114a:	2309      	movs	r3, #9
 800114c:	607b      	str	r3, [r7, #4]
	sConfig.Rank = ADC_REGULAR_RANK_4;
 800114e:	2304      	movs	r3, #4
 8001150:	60bb      	str	r3, [r7, #8]
	if (HAL_ADC_ConfigChannel(&hadc1, &sConfig) != HAL_OK) {
 8001152:	1d3b      	adds	r3, r7, #4
 8001154:	4619      	mov	r1, r3
 8001156:	4806      	ldr	r0, [pc, #24]	; (8001170 <MX_ADC1_Init+0xcc>)
 8001158:	f001 fa44 	bl	80025e4 <HAL_ADC_ConfigChannel>
 800115c:	4603      	mov	r3, r0
 800115e:	2b00      	cmp	r3, #0
 8001160:	d001      	beq.n	8001166 <MX_ADC1_Init+0xc2>
		Error_Handler();
 8001162:	f000 fdbb 	bl	8001cdc <Error_Handler>
	}
}
 8001166:	bf00      	nop
 8001168:	3710      	adds	r7, #16
 800116a:	46bd      	mov	sp, r7
 800116c:	bd80      	pop	{r7, pc}
 800116e:	bf00      	nop
 8001170:	20002244 	.word	0x20002244
 8001174:	40012400 	.word	0x40012400

08001178 <MX_CAN_Init>:
/**
 * @brief CAN Initialization Function
 * @param None
 * @retval None
 */
static void MX_CAN_Init(void) {
 8001178:	b580      	push	{r7, lr}
 800117a:	af00      	add	r7, sp, #0
	hcan.Instance = CAN1;
 800117c:	4b17      	ldr	r3, [pc, #92]	; (80011dc <MX_CAN_Init+0x64>)
 800117e:	4a18      	ldr	r2, [pc, #96]	; (80011e0 <MX_CAN_Init+0x68>)
 8001180:	601a      	str	r2, [r3, #0]
	hcan.Init.Prescaler = 9;
 8001182:	4b16      	ldr	r3, [pc, #88]	; (80011dc <MX_CAN_Init+0x64>)
 8001184:	2209      	movs	r2, #9
 8001186:	605a      	str	r2, [r3, #4]
	hcan.Init.Mode = CAN_MODE_NORMAL;
 8001188:	4b14      	ldr	r3, [pc, #80]	; (80011dc <MX_CAN_Init+0x64>)
 800118a:	2200      	movs	r2, #0
 800118c:	609a      	str	r2, [r3, #8]
	hcan.Init.SyncJumpWidth = CAN_SJW_1TQ;
 800118e:	4b13      	ldr	r3, [pc, #76]	; (80011dc <MX_CAN_Init+0x64>)
 8001190:	2200      	movs	r2, #0
 8001192:	60da      	str	r2, [r3, #12]
	hcan.Init.TimeSeg1 = CAN_BS1_12TQ;
 8001194:	4b11      	ldr	r3, [pc, #68]	; (80011dc <MX_CAN_Init+0x64>)
 8001196:	f44f 2230 	mov.w	r2, #720896	; 0xb0000
 800119a:	611a      	str	r2, [r3, #16]
	hcan.Init.TimeSeg2 = CAN_BS2_3TQ;
 800119c:	4b0f      	ldr	r3, [pc, #60]	; (80011dc <MX_CAN_Init+0x64>)
 800119e:	f44f 1200 	mov.w	r2, #2097152	; 0x200000
 80011a2:	615a      	str	r2, [r3, #20]
	hcan.Init.TimeTriggeredMode = DISABLE;
 80011a4:	4b0d      	ldr	r3, [pc, #52]	; (80011dc <MX_CAN_Init+0x64>)
 80011a6:	2200      	movs	r2, #0
 80011a8:	761a      	strb	r2, [r3, #24]
	hcan.Init.AutoBusOff = ENABLE;
 80011aa:	4b0c      	ldr	r3, [pc, #48]	; (80011dc <MX_CAN_Init+0x64>)
 80011ac:	2201      	movs	r2, #1
 80011ae:	765a      	strb	r2, [r3, #25]
	hcan.Init.AutoWakeUp = DISABLE;
 80011b0:	4b0a      	ldr	r3, [pc, #40]	; (80011dc <MX_CAN_Init+0x64>)
 80011b2:	2200      	movs	r2, #0
 80011b4:	769a      	strb	r2, [r3, #26]
	hcan.Init.AutoRetransmission = ENABLE;
 80011b6:	4b09      	ldr	r3, [pc, #36]	; (80011dc <MX_CAN_Init+0x64>)
 80011b8:	2201      	movs	r2, #1
 80011ba:	76da      	strb	r2, [r3, #27]
	hcan.Init.ReceiveFifoLocked = DISABLE;
 80011bc:	4b07      	ldr	r3, [pc, #28]	; (80011dc <MX_CAN_Init+0x64>)
 80011be:	2200      	movs	r2, #0
 80011c0:	771a      	strb	r2, [r3, #28]
	hcan.Init.TransmitFifoPriority = DISABLE;
 80011c2:	4b06      	ldr	r3, [pc, #24]	; (80011dc <MX_CAN_Init+0x64>)
 80011c4:	2200      	movs	r2, #0
 80011c6:	775a      	strb	r2, [r3, #29]
	if (HAL_CAN_Init(&hcan) != HAL_OK) {
 80011c8:	4804      	ldr	r0, [pc, #16]	; (80011dc <MX_CAN_Init+0x64>)
 80011ca:	f001 fbf5 	bl	80029b8 <HAL_CAN_Init>
 80011ce:	4603      	mov	r3, r0
 80011d0:	2b00      	cmp	r3, #0
 80011d2:	d001      	beq.n	80011d8 <MX_CAN_Init+0x60>
		Error_Handler();
 80011d4:	f000 fd82 	bl	8001cdc <Error_Handler>
	}
}
 80011d8:	bf00      	nop
 80011da:	bd80      	pop	{r7, pc}
 80011dc:	20002214 	.word	0x20002214
 80011e0:	40006400 	.word	0x40006400

080011e4 <MX_I2C2_Init>:
/**
 * @brief I2C1 Initialization Function
 * @param None
 * @retval None
 */
static void MX_I2C2_Init(void) {
 80011e4:	b580      	push	{r7, lr}
 80011e6:	af00      	add	r7, sp, #0
	/* USER CODE END I2C1_Init 0 */

	/* USER CODE BEGIN I2C1_Init 1 */

	/* USER CODE END I2C1_Init 1 */
	hi2c2.Instance = I2C2;
 80011e8:	4b12      	ldr	r3, [pc, #72]	; (8001234 <MX_I2C2_Init+0x50>)
 80011ea:	4a13      	ldr	r2, [pc, #76]	; (8001238 <MX_I2C2_Init+0x54>)
 80011ec:	601a      	str	r2, [r3, #0]
	hi2c2.Init.ClockSpeed = 100000;
 80011ee:	4b11      	ldr	r3, [pc, #68]	; (8001234 <MX_I2C2_Init+0x50>)
 80011f0:	4a12      	ldr	r2, [pc, #72]	; (800123c <MX_I2C2_Init+0x58>)
 80011f2:	605a      	str	r2, [r3, #4]
	hi2c2.Init.DutyCycle = I2C_DUTYCYCLE_2;
 80011f4:	4b0f      	ldr	r3, [pc, #60]	; (8001234 <MX_I2C2_Init+0x50>)
 80011f6:	2200      	movs	r2, #0
 80011f8:	609a      	str	r2, [r3, #8]
	hi2c2.Init.OwnAddress1 = 0;
 80011fa:	4b0e      	ldr	r3, [pc, #56]	; (8001234 <MX_I2C2_Init+0x50>)
 80011fc:	2200      	movs	r2, #0
 80011fe:	60da      	str	r2, [r3, #12]
	hi2c2.Init.AddressingMode = I2C_ADDRESSINGMODE_7BIT;
 8001200:	4b0c      	ldr	r3, [pc, #48]	; (8001234 <MX_I2C2_Init+0x50>)
 8001202:	f44f 4280 	mov.w	r2, #16384	; 0x4000
 8001206:	611a      	str	r2, [r3, #16]
	hi2c2.Init.DualAddressMode = I2C_DUALADDRESS_DISABLE;
 8001208:	4b0a      	ldr	r3, [pc, #40]	; (8001234 <MX_I2C2_Init+0x50>)
 800120a:	2200      	movs	r2, #0
 800120c:	615a      	str	r2, [r3, #20]
	hi2c2.Init.OwnAddress2 = 0;
 800120e:	4b09      	ldr	r3, [pc, #36]	; (8001234 <MX_I2C2_Init+0x50>)
 8001210:	2200      	movs	r2, #0
 8001212:	619a      	str	r2, [r3, #24]
	hi2c2.Init.GeneralCallMode = I2C_GENERALCALL_DISABLE;
 8001214:	4b07      	ldr	r3, [pc, #28]	; (8001234 <MX_I2C2_Init+0x50>)
 8001216:	2200      	movs	r2, #0
 8001218:	61da      	str	r2, [r3, #28]
	hi2c2.Init.NoStretchMode = I2C_NOSTRETCH_ENABLE;
 800121a:	4b06      	ldr	r3, [pc, #24]	; (8001234 <MX_I2C2_Init+0x50>)
 800121c:	2280      	movs	r2, #128	; 0x80
 800121e:	621a      	str	r2, [r3, #32]
	if (HAL_I2C_Init(&hi2c2) != HAL_OK) {
 8001220:	4804      	ldr	r0, [pc, #16]	; (8001234 <MX_I2C2_Init+0x50>)
 8001222:	f002 fd67 	bl	8003cf4 <HAL_I2C_Init>
 8001226:	4603      	mov	r3, r0
 8001228:	2b00      	cmp	r3, #0
 800122a:	d001      	beq.n	8001230 <MX_I2C2_Init+0x4c>
		Error_Handler();
 800122c:	f000 fd56 	bl	8001cdc <Error_Handler>
	}
	/* USER CODE BEGIN I2C1_Init 2 */

	/* USER CODE END I2C1_Init 2 */

}
 8001230:	bf00      	nop
 8001232:	bd80      	pop	{r7, pc}
 8001234:	200021b4 	.word	0x200021b4
 8001238:	40005800 	.word	0x40005800
 800123c:	000186a0 	.word	0x000186a0

08001240 <MX_DMA_Init>:

/**
 * Enable DMA controller clock
 */
static void MX_DMA_Init(void) {
 8001240:	b580      	push	{r7, lr}
 8001242:	b082      	sub	sp, #8
 8001244:	af00      	add	r7, sp, #0
	__HAL_RCC_DMA1_CLK_ENABLE();
 8001246:	4b0c      	ldr	r3, [pc, #48]	; (8001278 <MX_DMA_Init+0x38>)
 8001248:	695b      	ldr	r3, [r3, #20]
 800124a:	4a0b      	ldr	r2, [pc, #44]	; (8001278 <MX_DMA_Init+0x38>)
 800124c:	f043 0301 	orr.w	r3, r3, #1
 8001250:	6153      	str	r3, [r2, #20]
 8001252:	4b09      	ldr	r3, [pc, #36]	; (8001278 <MX_DMA_Init+0x38>)
 8001254:	695b      	ldr	r3, [r3, #20]
 8001256:	f003 0301 	and.w	r3, r3, #1
 800125a:	607b      	str	r3, [r7, #4]
 800125c:	687b      	ldr	r3, [r7, #4]

	/* DMA interrupt init */
	/* DMA1_Channel1_IRQn interrupt configuration */
	HAL_NVIC_SetPriority(DMA1_Channel1_IRQn, 5, 0);
 800125e:	2200      	movs	r2, #0
 8001260:	2105      	movs	r1, #5
 8001262:	200b      	movs	r0, #11
 8001264:	f002 f98b 	bl	800357e <HAL_NVIC_SetPriority>
	HAL_NVIC_EnableIRQ(DMA1_Channel1_IRQn);
 8001268:	200b      	movs	r0, #11
 800126a:	f002 f9a4 	bl	80035b6 <HAL_NVIC_EnableIRQ>

}
 800126e:	bf00      	nop
 8001270:	3708      	adds	r7, #8
 8001272:	46bd      	mov	sp, r7
 8001274:	bd80      	pop	{r7, pc}
 8001276:	bf00      	nop
 8001278:	40021000 	.word	0x40021000

0800127c <MX_GPIO_Init>:
/**
 * @brief GPIO Initialization Function
 * @param None
 * @retval None
 */
static void MX_GPIO_Init(void) {
 800127c:	b580      	push	{r7, lr}
 800127e:	b088      	sub	sp, #32
 8001280:	af00      	add	r7, sp, #0
	GPIO_InitTypeDef GPIO_InitStruct = { 0 };
 8001282:	f107 0310 	add.w	r3, r7, #16
 8001286:	2200      	movs	r2, #0
 8001288:	601a      	str	r2, [r3, #0]
 800128a:	605a      	str	r2, [r3, #4]
 800128c:	609a      	str	r2, [r3, #8]
 800128e:	60da      	str	r2, [r3, #12]

	/* GPIO Ports Clock Enable */
	__HAL_RCC_GPIOC_CLK_ENABLE();
 8001290:	4b67      	ldr	r3, [pc, #412]	; (8001430 <MX_GPIO_Init+0x1b4>)
 8001292:	699b      	ldr	r3, [r3, #24]
 8001294:	4a66      	ldr	r2, [pc, #408]	; (8001430 <MX_GPIO_Init+0x1b4>)
 8001296:	f043 0310 	orr.w	r3, r3, #16
 800129a:	6193      	str	r3, [r2, #24]
 800129c:	4b64      	ldr	r3, [pc, #400]	; (8001430 <MX_GPIO_Init+0x1b4>)
 800129e:	699b      	ldr	r3, [r3, #24]
 80012a0:	f003 0310 	and.w	r3, r3, #16
 80012a4:	60fb      	str	r3, [r7, #12]
 80012a6:	68fb      	ldr	r3, [r7, #12]
	__HAL_RCC_GPIOD_CLK_ENABLE();
 80012a8:	4b61      	ldr	r3, [pc, #388]	; (8001430 <MX_GPIO_Init+0x1b4>)
 80012aa:	699b      	ldr	r3, [r3, #24]
 80012ac:	4a60      	ldr	r2, [pc, #384]	; (8001430 <MX_GPIO_Init+0x1b4>)
 80012ae:	f043 0320 	orr.w	r3, r3, #32
 80012b2:	6193      	str	r3, [r2, #24]
 80012b4:	4b5e      	ldr	r3, [pc, #376]	; (8001430 <MX_GPIO_Init+0x1b4>)
 80012b6:	699b      	ldr	r3, [r3, #24]
 80012b8:	f003 0320 	and.w	r3, r3, #32
 80012bc:	60bb      	str	r3, [r7, #8]
 80012be:	68bb      	ldr	r3, [r7, #8]
	__HAL_RCC_GPIOA_CLK_ENABLE();
 80012c0:	4b5b      	ldr	r3, [pc, #364]	; (8001430 <MX_GPIO_Init+0x1b4>)
 80012c2:	699b      	ldr	r3, [r3, #24]
 80012c4:	4a5a      	ldr	r2, [pc, #360]	; (8001430 <MX_GPIO_Init+0x1b4>)
 80012c6:	f043 0304 	orr.w	r3, r3, #4
 80012ca:	6193      	str	r3, [r2, #24]
 80012cc:	4b58      	ldr	r3, [pc, #352]	; (8001430 <MX_GPIO_Init+0x1b4>)
 80012ce:	699b      	ldr	r3, [r3, #24]
 80012d0:	f003 0304 	and.w	r3, r3, #4
 80012d4:	607b      	str	r3, [r7, #4]
 80012d6:	687b      	ldr	r3, [r7, #4]
	__HAL_RCC_GPIOB_CLK_ENABLE();
 80012d8:	4b55      	ldr	r3, [pc, #340]	; (8001430 <MX_GPIO_Init+0x1b4>)
 80012da:	699b      	ldr	r3, [r3, #24]
 80012dc:	4a54      	ldr	r2, [pc, #336]	; (8001430 <MX_GPIO_Init+0x1b4>)
 80012de:	f043 0308 	orr.w	r3, r3, #8
 80012e2:	6193      	str	r3, [r2, #24]
 80012e4:	4b52      	ldr	r3, [pc, #328]	; (8001430 <MX_GPIO_Init+0x1b4>)
 80012e6:	699b      	ldr	r3, [r3, #24]
 80012e8:	f003 0308 	and.w	r3, r3, #8
 80012ec:	603b      	str	r3, [r7, #0]
 80012ee:	683b      	ldr	r3, [r7, #0]

	/*Configure GPIO pin Output Level */
	HAL_GPIO_WritePin(GPIOC, GPIO_PIN_13, GPIO_PIN_RESET);
 80012f0:	2200      	movs	r2, #0
 80012f2:	f44f 5100 	mov.w	r1, #8192	; 0x2000
 80012f6:	484f      	ldr	r0, [pc, #316]	; (8001434 <MX_GPIO_Init+0x1b8>)
 80012f8:	f002 fccb 	bl	8003c92 <HAL_GPIO_WritePin>
	HAL_GPIO_WritePin(GPIOC, GPIO_PIN_14, GPIO_PIN_RESET);
 80012fc:	2200      	movs	r2, #0
 80012fe:	f44f 4180 	mov.w	r1, #16384	; 0x4000
 8001302:	484c      	ldr	r0, [pc, #304]	; (8001434 <MX_GPIO_Init+0x1b8>)
 8001304:	f002 fcc5 	bl	8003c92 <HAL_GPIO_WritePin>
	/*Configure GPIO pin Output Level */
	HAL_GPIO_WritePin(GPIOA, GPIO_PIN_15, GPIO_PIN_RESET);
 8001308:	2200      	movs	r2, #0
 800130a:	f44f 4100 	mov.w	r1, #32768	; 0x8000
 800130e:	484a      	ldr	r0, [pc, #296]	; (8001438 <MX_GPIO_Init+0x1bc>)
 8001310:	f002 fcbf 	bl	8003c92 <HAL_GPIO_WritePin>

	/*Configure GPIO pin Output Level */
	HAL_GPIO_WritePin(GPIOB, GPIO_PIN_3, GPIO_PIN_RESET);
 8001314:	2200      	movs	r2, #0
 8001316:	2108      	movs	r1, #8
 8001318:	4848      	ldr	r0, [pc, #288]	; (800143c <MX_GPIO_Init+0x1c0>)
 800131a:	f002 fcba 	bl	8003c92 <HAL_GPIO_WritePin>
	HAL_GPIO_WritePin(GPIOB, GPIO_PIN_6, GPIO_PIN_RESET);
 800131e:	2200      	movs	r2, #0
 8001320:	2140      	movs	r1, #64	; 0x40
 8001322:	4846      	ldr	r0, [pc, #280]	; (800143c <MX_GPIO_Init+0x1c0>)
 8001324:	f002 fcb5 	bl	8003c92 <HAL_GPIO_WritePin>
	/*Configure GPIO pin : PC13 */
	GPIO_InitStruct.Pin = GPIO_PIN_13;
 8001328:	f44f 5300 	mov.w	r3, #8192	; 0x2000
 800132c:	613b      	str	r3, [r7, #16]
	GPIO_InitStruct.Mode = GPIO_MODE_OUTPUT_PP;
 800132e:	2301      	movs	r3, #1
 8001330:	617b      	str	r3, [r7, #20]
	GPIO_InitStruct.Pull = GPIO_NOPULL;
 8001332:	2300      	movs	r3, #0
 8001334:	61bb      	str	r3, [r7, #24]
	GPIO_InitStruct.Speed = GPIO_SPEED_FREQ_LOW;
 8001336:	2302      	movs	r3, #2
 8001338:	61fb      	str	r3, [r7, #28]
	HAL_GPIO_Init(GPIOC, &GPIO_InitStruct);
 800133a:	f107 0310 	add.w	r3, r7, #16
 800133e:	4619      	mov	r1, r3
 8001340:	483c      	ldr	r0, [pc, #240]	; (8001434 <MX_GPIO_Init+0x1b8>)
 8001342:	f002 fb35 	bl	80039b0 <HAL_GPIO_Init>

	GPIO_InitStruct.Pin = GPIO_PIN_14;
 8001346:	f44f 4380 	mov.w	r3, #16384	; 0x4000
 800134a:	613b      	str	r3, [r7, #16]
	GPIO_InitStruct.Mode = GPIO_MODE_OUTPUT_PP;
 800134c:	2301      	movs	r3, #1
 800134e:	617b      	str	r3, [r7, #20]
	GPIO_InitStruct.Pull = GPIO_NOPULL;
 8001350:	2300      	movs	r3, #0
 8001352:	61bb      	str	r3, [r7, #24]
	GPIO_InitStruct.Speed = GPIO_SPEED_FREQ_LOW;
 8001354:	2302      	movs	r3, #2
 8001356:	61fb      	str	r3, [r7, #28]
	HAL_GPIO_Init(GPIOC, &GPIO_InitStruct);
 8001358:	f107 0310 	add.w	r3, r7, #16
 800135c:	4619      	mov	r1, r3
 800135e:	4835      	ldr	r0, [pc, #212]	; (8001434 <MX_GPIO_Init+0x1b8>)
 8001360:	f002 fb26 	bl	80039b0 <HAL_GPIO_Init>

	/*Configure GPIO pin : PA15 */
	GPIO_InitStruct.Pin = GPIO_PIN_15;
 8001364:	f44f 4300 	mov.w	r3, #32768	; 0x8000
 8001368:	613b      	str	r3, [r7, #16]
	GPIO_InitStruct.Mode = GPIO_MODE_OUTPUT_PP;
 800136a:	2301      	movs	r3, #1
 800136c:	617b      	str	r3, [r7, #20]
	GPIO_InitStruct.Pull = GPIO_NOPULL;
 800136e:	2300      	movs	r3, #0
 8001370:	61bb      	str	r3, [r7, #24]
	GPIO_InitStruct.Speed = GPIO_SPEED_FREQ_LOW;
 8001372:	2302      	movs	r3, #2
 8001374:	61fb      	str	r3, [r7, #28]
	HAL_GPIO_Init(GPIOA, &GPIO_InitStruct);
 8001376:	f107 0310 	add.w	r3, r7, #16
 800137a:	4619      	mov	r1, r3
 800137c:	482e      	ldr	r0, [pc, #184]	; (8001438 <MX_GPIO_Init+0x1bc>)
 800137e:	f002 fb17 	bl	80039b0 <HAL_GPIO_Init>

	/*Configure GPIO pin : PA12 */
	GPIO_InitStruct.Pin = GPIO_PIN_12;
 8001382:	f44f 5380 	mov.w	r3, #4096	; 0x1000
 8001386:	613b      	str	r3, [r7, #16]
	GPIO_InitStruct.Mode = GPIO_MODE_IT_FALLING;
 8001388:	4b2d      	ldr	r3, [pc, #180]	; (8001440 <MX_GPIO_Init+0x1c4>)
 800138a:	617b      	str	r3, [r7, #20]
	GPIO_InitStruct.Pull = GPIO_PULLUP;
 800138c:	2301      	movs	r3, #1
 800138e:	61bb      	str	r3, [r7, #24]
	HAL_GPIO_Init(GPIOA, &GPIO_InitStruct);
 8001390:	f107 0310 	add.w	r3, r7, #16
 8001394:	4619      	mov	r1, r3
 8001396:	4828      	ldr	r0, [pc, #160]	; (8001438 <MX_GPIO_Init+0x1bc>)
 8001398:	f002 fb0a 	bl	80039b0 <HAL_GPIO_Init>
	/*Configure GPIO pin INTERRUPT : PA12 */
	HAL_NVIC_SetPriority(EXTI15_10_IRQn, 15, 0);
 800139c:	2200      	movs	r2, #0
 800139e:	210f      	movs	r1, #15
 80013a0:	2028      	movs	r0, #40	; 0x28
 80013a2:	f002 f8ec 	bl	800357e <HAL_NVIC_SetPriority>
	HAL_NVIC_EnableIRQ(EXTI15_10_IRQn);
 80013a6:	2028      	movs	r0, #40	; 0x28
 80013a8:	f002 f905 	bl	80035b6 <HAL_NVIC_EnableIRQ>

	GPIO_InitStruct.Pin = GPIO_PIN_8;
 80013ac:	f44f 7380 	mov.w	r3, #256	; 0x100
 80013b0:	613b      	str	r3, [r7, #16]
	GPIO_InitStruct.Mode = GPIO_MODE_IT_FALLING;
 80013b2:	4b23      	ldr	r3, [pc, #140]	; (8001440 <MX_GPIO_Init+0x1c4>)
 80013b4:	617b      	str	r3, [r7, #20]
	GPIO_InitStruct.Pull = GPIO_PULLUP;
 80013b6:	2301      	movs	r3, #1
 80013b8:	61bb      	str	r3, [r7, #24]
	HAL_GPIO_Init(GPIOA, &GPIO_InitStruct);
 80013ba:	f107 0310 	add.w	r3, r7, #16
 80013be:	4619      	mov	r1, r3
 80013c0:	481d      	ldr	r0, [pc, #116]	; (8001438 <MX_GPIO_Init+0x1bc>)
 80013c2:	f002 faf5 	bl	80039b0 <HAL_GPIO_Init>
	/*Configure GPIO pin INTERRUPT : PA12 */
	HAL_NVIC_SetPriority(EXTI9_5_IRQn, 15, 0);
 80013c6:	2200      	movs	r2, #0
 80013c8:	210f      	movs	r1, #15
 80013ca:	2017      	movs	r0, #23
 80013cc:	f002 f8d7 	bl	800357e <HAL_NVIC_SetPriority>
	HAL_NVIC_EnableIRQ(EXTI9_5_IRQn);
 80013d0:	2017      	movs	r0, #23
 80013d2:	f002 f8f0 	bl	80035b6 <HAL_NVIC_EnableIRQ>

	/*Configure GPIO pin : PB3 */
	GPIO_InitStruct.Pin = GPIO_PIN_3;
 80013d6:	2308      	movs	r3, #8
 80013d8:	613b      	str	r3, [r7, #16]
	GPIO_InitStruct.Mode = GPIO_MODE_OUTPUT_PP;
 80013da:	2301      	movs	r3, #1
 80013dc:	617b      	str	r3, [r7, #20]
	GPIO_InitStruct.Pull = GPIO_NOPULL;
 80013de:	2300      	movs	r3, #0
 80013e0:	61bb      	str	r3, [r7, #24]
	GPIO_InitStruct.Speed = GPIO_SPEED_FREQ_LOW;
 80013e2:	2302      	movs	r3, #2
 80013e4:	61fb      	str	r3, [r7, #28]
	HAL_GPIO_Init(GPIOB, &GPIO_InitStruct);
 80013e6:	f107 0310 	add.w	r3, r7, #16
 80013ea:	4619      	mov	r1, r3
 80013ec:	4813      	ldr	r0, [pc, #76]	; (800143c <MX_GPIO_Init+0x1c0>)
 80013ee:	f002 fadf 	bl	80039b0 <HAL_GPIO_Init>

	GPIO_InitStruct.Pin = GPIO_PIN_6;
 80013f2:	2340      	movs	r3, #64	; 0x40
 80013f4:	613b      	str	r3, [r7, #16]
	GPIO_InitStruct.Mode = GPIO_MODE_OUTPUT_PP;
 80013f6:	2301      	movs	r3, #1
 80013f8:	617b      	str	r3, [r7, #20]
	GPIO_InitStruct.Pull = GPIO_NOPULL;
 80013fa:	2300      	movs	r3, #0
 80013fc:	61bb      	str	r3, [r7, #24]
	GPIO_InitStruct.Speed = GPIO_SPEED_FREQ_LOW;
 80013fe:	2302      	movs	r3, #2
 8001400:	61fb      	str	r3, [r7, #28]
	HAL_GPIO_Init(GPIOB, &GPIO_InitStruct);
 8001402:	f107 0310 	add.w	r3, r7, #16
 8001406:	4619      	mov	r1, r3
 8001408:	480c      	ldr	r0, [pc, #48]	; (800143c <MX_GPIO_Init+0x1c0>)
 800140a:	f002 fad1 	bl	80039b0 <HAL_GPIO_Init>

	/*Configure GPIO pin : PB4 */
	GPIO_InitStruct.Pin = GPIO_PIN_4;
 800140e:	2310      	movs	r3, #16
 8001410:	613b      	str	r3, [r7, #16]
	GPIO_InitStruct.Mode = GPIO_MODE_INPUT;
 8001412:	2300      	movs	r3, #0
 8001414:	617b      	str	r3, [r7, #20]
	GPIO_InitStruct.Pull = GPIO_NOPULL;
 8001416:	2300      	movs	r3, #0
 8001418:	61bb      	str	r3, [r7, #24]
	HAL_GPIO_Init(GPIOB, &GPIO_InitStruct);
 800141a:	f107 0310 	add.w	r3, r7, #16
 800141e:	4619      	mov	r1, r3
 8001420:	4806      	ldr	r0, [pc, #24]	; (800143c <MX_GPIO_Init+0x1c0>)
 8001422:	f002 fac5 	bl	80039b0 <HAL_GPIO_Init>

}
 8001426:	bf00      	nop
 8001428:	3720      	adds	r7, #32
 800142a:	46bd      	mov	sp, r7
 800142c:	bd80      	pop	{r7, pc}
 800142e:	bf00      	nop
 8001430:	40021000 	.word	0x40021000
 8001434:	40011000 	.word	0x40011000
 8001438:	40010800 	.word	0x40010800
 800143c:	40010c00 	.word	0x40010c00
 8001440:	10210000 	.word	0x10210000

08001444 <CAN_Filter_Config>:
//	HAL_GPIO_EXTI_IRQHandler(GPIO_PIN_8);
//	p_rpm += 1;
//}

/*Configure can filters */
void CAN_Filter_Config(void) {
 8001444:	b580      	push	{r7, lr}
 8001446:	b08a      	sub	sp, #40	; 0x28
 8001448:	af00      	add	r7, sp, #0
	CAN_FilterTypeDef can_filt;
	can_filt.FilterActivation = ENABLE;
 800144a:	2301      	movs	r3, #1
 800144c:	623b      	str	r3, [r7, #32]
	can_filt.FilterBank = 0;
 800144e:	2300      	movs	r3, #0
 8001450:	617b      	str	r3, [r7, #20]
	can_filt.FilterFIFOAssignment = CAN_RX_FIFO0;
 8001452:	2300      	movs	r3, #0
 8001454:	613b      	str	r3, [r7, #16]
	can_filt.FilterIdHigh = 0x0000;
 8001456:	2300      	movs	r3, #0
 8001458:	603b      	str	r3, [r7, #0]
	can_filt.FilterIdLow = 0x0000;
 800145a:	2300      	movs	r3, #0
 800145c:	607b      	str	r3, [r7, #4]
	can_filt.FilterMaskIdHigh = 0x0000;
 800145e:	2300      	movs	r3, #0
 8001460:	60bb      	str	r3, [r7, #8]
	can_filt.FilterMaskIdLow = 0x0000;
 8001462:	2300      	movs	r3, #0
 8001464:	60fb      	str	r3, [r7, #12]
	can_filt.FilterMode = CAN_FILTERMODE_IDMASK;
 8001466:	2300      	movs	r3, #0
 8001468:	61bb      	str	r3, [r7, #24]
	can_filt.FilterScale = CAN_FILTERSCALE_32BIT;
 800146a:	2301      	movs	r3, #1
 800146c:	61fb      	str	r3, [r7, #28]

	if (HAL_CAN_ConfigFilter(&hcan, &can_filt) != HAL_OK) {
 800146e:	463b      	mov	r3, r7
 8001470:	4619      	mov	r1, r3
 8001472:	4806      	ldr	r0, [pc, #24]	; (800148c <CAN_Filter_Config+0x48>)
 8001474:	f001 fb9b 	bl	8002bae <HAL_CAN_ConfigFilter>
 8001478:	4603      	mov	r3, r0
 800147a:	2b00      	cmp	r3, #0
 800147c:	d001      	beq.n	8001482 <CAN_Filter_Config+0x3e>
		Error_Handler();
 800147e:	f000 fc2d 	bl	8001cdc <Error_Handler>
	}
}
 8001482:	bf00      	nop
 8001484:	3728      	adds	r7, #40	; 0x28
 8001486:	46bd      	mov	sp, r7
 8001488:	bd80      	pop	{r7, pc}
 800148a:	bf00      	nop
 800148c:	20002214 	.word	0x20002214

08001490 <Start_taskF>:

void Start_taskF(void *pvParameters) {
 8001490:	b580      	push	{r7, lr}
 8001492:	b084      	sub	sp, #16
 8001494:	af02      	add	r7, sp, #8
 8001496:	6078      	str	r0, [r7, #4]

	xSemaphore = xSemaphoreCreateBinary();
 8001498:	2203      	movs	r2, #3
 800149a:	2100      	movs	r1, #0
 800149c:	2001      	movs	r0, #1
 800149e:	f004 f997 	bl	80057d0 <xQueueGenericCreate>
 80014a2:	4602      	mov	r2, r0
 80014a4:	4b2e      	ldr	r3, [pc, #184]	; (8001560 <Start_taskF+0xd0>)
 80014a6:	601a      	str	r2, [r3, #0]
	vTaskDelay(1);
 80014a8:	2001      	movs	r0, #1
 80014aa:	f004 fcb1 	bl	8005e10 <vTaskDelay>
	xTaskCreate(Bat_taskF, "BatTask", 128, NULL, 4, &Bat_Task);
 80014ae:	4b2d      	ldr	r3, [pc, #180]	; (8001564 <Start_taskF+0xd4>)
 80014b0:	9301      	str	r3, [sp, #4]
 80014b2:	2304      	movs	r3, #4
 80014b4:	9300      	str	r3, [sp, #0]
 80014b6:	2300      	movs	r3, #0
 80014b8:	2280      	movs	r2, #128	; 0x80
 80014ba:	492b      	ldr	r1, [pc, #172]	; (8001568 <Start_taskF+0xd8>)
 80014bc:	482b      	ldr	r0, [pc, #172]	; (800156c <Start_taskF+0xdc>)
 80014be:	f004 fa42 	bl	8005946 <xTaskCreate>
	vTaskDelay(1);
 80014c2:	2001      	movs	r0, #1
 80014c4:	f004 fca4 	bl	8005e10 <vTaskDelay>
	xTaskCreate(Fuel_taskF, "FuelTask", 128, NULL, 4, &Fuel_Task);
 80014c8:	4b29      	ldr	r3, [pc, #164]	; (8001570 <Start_taskF+0xe0>)
 80014ca:	9301      	str	r3, [sp, #4]
 80014cc:	2304      	movs	r3, #4
 80014ce:	9300      	str	r3, [sp, #0]
 80014d0:	2300      	movs	r3, #0
 80014d2:	2280      	movs	r2, #128	; 0x80
 80014d4:	4927      	ldr	r1, [pc, #156]	; (8001574 <Start_taskF+0xe4>)
 80014d6:	4828      	ldr	r0, [pc, #160]	; (8001578 <Start_taskF+0xe8>)
 80014d8:	f004 fa35 	bl	8005946 <xTaskCreate>
	vTaskDelay(1);
 80014dc:	2001      	movs	r0, #1
 80014de:	f004 fc97 	bl	8005e10 <vTaskDelay>
	xTaskCreate(Speed_taskF, "SpeedTask", 128, NULL, 4, &Speed_Task);
 80014e2:	4b26      	ldr	r3, [pc, #152]	; (800157c <Start_taskF+0xec>)
 80014e4:	9301      	str	r3, [sp, #4]
 80014e6:	2304      	movs	r3, #4
 80014e8:	9300      	str	r3, [sp, #0]
 80014ea:	2300      	movs	r3, #0
 80014ec:	2280      	movs	r2, #128	; 0x80
 80014ee:	4924      	ldr	r1, [pc, #144]	; (8001580 <Start_taskF+0xf0>)
 80014f0:	4824      	ldr	r0, [pc, #144]	; (8001584 <Start_taskF+0xf4>)
 80014f2:	f004 fa28 	bl	8005946 <xTaskCreate>
	vTaskDelay(1);
 80014f6:	2001      	movs	r0, #1
 80014f8:	f004 fc8a 	bl	8005e10 <vTaskDelay>
	xTaskCreate(Temp_taskF, "TempTask", 128, NULL, 5, &Temp_Task);
 80014fc:	4b22      	ldr	r3, [pc, #136]	; (8001588 <Start_taskF+0xf8>)
 80014fe:	9301      	str	r3, [sp, #4]
 8001500:	2305      	movs	r3, #5
 8001502:	9300      	str	r3, [sp, #0]
 8001504:	2300      	movs	r3, #0
 8001506:	2280      	movs	r2, #128	; 0x80
 8001508:	4920      	ldr	r1, [pc, #128]	; (800158c <Start_taskF+0xfc>)
 800150a:	4821      	ldr	r0, [pc, #132]	; (8001590 <Start_taskF+0x100>)
 800150c:	f004 fa1b 	bl	8005946 <xTaskCreate>
	vTaskDelay(1);
 8001510:	2001      	movs	r0, #1
 8001512:	f004 fc7d 	bl	8005e10 <vTaskDelay>
	xTaskCreate(RPM_taskF, "RPMTask", 128, NULL, 4, &RPM_Task);
 8001516:	4b1f      	ldr	r3, [pc, #124]	; (8001594 <Start_taskF+0x104>)
 8001518:	9301      	str	r3, [sp, #4]
 800151a:	2304      	movs	r3, #4
 800151c:	9300      	str	r3, [sp, #0]
 800151e:	2300      	movs	r3, #0
 8001520:	2280      	movs	r2, #128	; 0x80
 8001522:	491d      	ldr	r1, [pc, #116]	; (8001598 <Start_taskF+0x108>)
 8001524:	481d      	ldr	r0, [pc, #116]	; (800159c <Start_taskF+0x10c>)
 8001526:	f004 fa0e 	bl	8005946 <xTaskCreate>
	vTaskDelay(1);
 800152a:	2001      	movs	r0, #1
 800152c:	f004 fc70 	bl	8005e10 <vTaskDelay>
	xTaskCreate(OD_taskF, "ODTask", 128, NULL, 2, &OD_Task);
 8001530:	4b1b      	ldr	r3, [pc, #108]	; (80015a0 <Start_taskF+0x110>)
 8001532:	9301      	str	r3, [sp, #4]
 8001534:	2302      	movs	r3, #2
 8001536:	9300      	str	r3, [sp, #0]
 8001538:	2300      	movs	r3, #0
 800153a:	2280      	movs	r2, #128	; 0x80
 800153c:	4919      	ldr	r1, [pc, #100]	; (80015a4 <Start_taskF+0x114>)
 800153e:	481a      	ldr	r0, [pc, #104]	; (80015a8 <Start_taskF+0x118>)
 8001540:	f004 fa01 	bl	8005946 <xTaskCreate>

	if (Start_Task != NULL) {
 8001544:	4b19      	ldr	r3, [pc, #100]	; (80015ac <Start_taskF+0x11c>)
 8001546:	681b      	ldr	r3, [r3, #0]
 8001548:	2b00      	cmp	r3, #0
 800154a:	d004      	beq.n	8001556 <Start_taskF+0xc6>
		vTaskDelete(Start_Task);
 800154c:	4b17      	ldr	r3, [pc, #92]	; (80015ac <Start_taskF+0x11c>)
 800154e:	681b      	ldr	r3, [r3, #0]
 8001550:	4618      	mov	r0, r3
 8001552:	f004 fb43 	bl	8005bdc <vTaskDelete>
	}

}
 8001556:	bf00      	nop
 8001558:	3708      	adds	r7, #8
 800155a:	46bd      	mov	sp, r7
 800155c:	bd80      	pop	{r7, pc}
 800155e:	bf00      	nop
 8001560:	20002210 	.word	0x20002210
 8001564:	2000223c 	.word	0x2000223c
 8001568:	080084e8 	.word	0x080084e8
 800156c:	080015b1 	.word	0x080015b1
 8001570:	2000220c 	.word	0x2000220c
 8001574:	080084f0 	.word	0x080084f0
 8001578:	08001681 	.word	0x08001681
 800157c:	20002240 	.word	0x20002240
 8001580:	080084fc 	.word	0x080084fc
 8001584:	0800190d 	.word	0x0800190d
 8001588:	200022c0 	.word	0x200022c0
 800158c:	08008508 	.word	0x08008508
 8001590:	08001a79 	.word	0x08001a79
 8001594:	20002208 	.word	0x20002208
 8001598:	08008514 	.word	0x08008514
 800159c:	080019cd 	.word	0x080019cd
 80015a0:	200021b0 	.word	0x200021b0
 80015a4:	0800851c 	.word	0x0800851c
 80015a8:	08001c55 	.word	0x08001c55
 80015ac:	200022c4 	.word	0x200022c4

080015b0 <Bat_taskF>:

/*Battery level read task */
void Bat_taskF(void *pvParameters) {
 80015b0:	b580      	push	{r7, lr}
 80015b2:	b092      	sub	sp, #72	; 0x48
 80015b4:	af00      	add	r7, sp, #0
 80015b6:	6078      	str	r0, [r7, #4]
	TickType_t xLastWakeTime;
	const TickType_t xFrequency = 1000;  //Ticks to wait since routine starts
 80015b8:	f44f 737a 	mov.w	r3, #1000	; 0x3e8
 80015bc:	647b      	str	r3, [r7, #68]	; 0x44
	xLastWakeTime = xTaskGetTickCount();
 80015be:	f004 fd6b 	bl	8006098 <xTaskGetTickCount>
 80015c2:	4603      	mov	r3, r0
 80015c4:	62fb      	str	r3, [r7, #44]	; 0x2c
	while (1) {
		uint8_t batbuff[2];
		uint16_t batAD = analog[0];
 80015c6:	4b28      	ldr	r3, [pc, #160]	; (8001668 <Bat_taskF+0xb8>)
 80015c8:	881b      	ldrh	r3, [r3, #0]
 80015ca:	f8a7 3042 	strh.w	r3, [r7, #66]	; 0x42
		float bat_a = 0.0004502626;
 80015ce:	4b27      	ldr	r3, [pc, #156]	; (800166c <Bat_taskF+0xbc>)
 80015d0:	63fb      	str	r3, [r7, #60]	; 0x3c
		float bat_b = 2.4948762146;
 80015d2:	4b27      	ldr	r3, [pc, #156]	; (8001670 <Bat_taskF+0xc0>)
 80015d4:	63bb      	str	r3, [r7, #56]	; 0x38
		float bat_v =  30*(((float)batAD * bat_a) + bat_b);
 80015d6:	f8b7 3042 	ldrh.w	r3, [r7, #66]	; 0x42
 80015da:	4618      	mov	r0, r3
 80015dc:	f7ff fad2 	bl	8000b84 <__aeabi_ui2f>
 80015e0:	4603      	mov	r3, r0
 80015e2:	6bf9      	ldr	r1, [r7, #60]	; 0x3c
 80015e4:	4618      	mov	r0, r3
 80015e6:	f7ff fb25 	bl	8000c34 <__aeabi_fmul>
 80015ea:	4603      	mov	r3, r0
 80015ec:	6bb9      	ldr	r1, [r7, #56]	; 0x38
 80015ee:	4618      	mov	r0, r3
 80015f0:	f7ff fa18 	bl	8000a24 <__addsf3>
 80015f4:	4603      	mov	r3, r0
 80015f6:	491f      	ldr	r1, [pc, #124]	; (8001674 <Bat_taskF+0xc4>)
 80015f8:	4618      	mov	r0, r3
 80015fa:	f7ff fb1b 	bl	8000c34 <__aeabi_fmul>
 80015fe:	4603      	mov	r3, r0
 8001600:	637b      	str	r3, [r7, #52]	; 0x34
		uint16_t batCAN = (uint16_t) bat_v;
 8001602:	6b78      	ldr	r0, [r7, #52]	; 0x34
 8001604:	f7ff fc66 	bl	8000ed4 <__aeabi_f2uiz>
 8001608:	4603      	mov	r3, r0
 800160a:	867b      	strh	r3, [r7, #50]	; 0x32

		batbuff[0] = (uint8_t) (batCAN >> 8) & 0xFF;
 800160c:	8e7b      	ldrh	r3, [r7, #50]	; 0x32
 800160e:	0a1b      	lsrs	r3, r3, #8
 8001610:	b29b      	uxth	r3, r3
 8001612:	b2db      	uxtb	r3, r3
 8001614:	f887 3028 	strb.w	r3, [r7, #40]	; 0x28
		batbuff[1] = (uint8_t) batCAN & 0xFF;
 8001618:	8e7b      	ldrh	r3, [r7, #50]	; 0x32
 800161a:	b2db      	uxtb	r3, r3
 800161c:	f887 3029 	strb.w	r3, [r7, #41]	; 0x29

		uint32_t TxMailbox;
		CAN_TxHeaderTypeDef BatHeader;

		BatHeader.DLC = 2;
 8001620:	2302      	movs	r3, #2
 8001622:	61fb      	str	r3, [r7, #28]
		BatHeader.StdId = 0x650;
 8001624:	f44f 63ca 	mov.w	r3, #1616	; 0x650
 8001628:	60fb      	str	r3, [r7, #12]
		BatHeader.IDE = CAN_ID_STD;
 800162a:	2300      	movs	r3, #0
 800162c:	617b      	str	r3, [r7, #20]
		BatHeader.RTR = CAN_RTR_DATA;
 800162e:	2300      	movs	r3, #0
 8001630:	61bb      	str	r3, [r7, #24]

		if (HAL_CAN_AddTxMessage(&hcan, &BatHeader, batbuff, &TxMailbox)
 8001632:	f107 0324 	add.w	r3, r7, #36	; 0x24
 8001636:	f107 0228 	add.w	r2, r7, #40	; 0x28
 800163a:	f107 010c 	add.w	r1, r7, #12
 800163e:	480e      	ldr	r0, [pc, #56]	; (8001678 <Bat_taskF+0xc8>)
 8001640:	f001 fbc2 	bl	8002dc8 <HAL_CAN_AddTxMessage>
 8001644:	4603      	mov	r3, r0
 8001646:	2b00      	cmp	r3, #0
 8001648:	d001      	beq.n	800164e <Bat_taskF+0x9e>
				!= HAL_OK) {
			Error_Handler();
 800164a:	f000 fb47 	bl	8001cdc <Error_Handler>
		}
		HAL_GPIO_TogglePin(GPIOC, GPIO_PIN_13);
 800164e:	f44f 5100 	mov.w	r1, #8192	; 0x2000
 8001652:	480a      	ldr	r0, [pc, #40]	; (800167c <Bat_taskF+0xcc>)
 8001654:	f002 fb35 	bl	8003cc2 <HAL_GPIO_TogglePin>
		vTaskDelayUntil(&xLastWakeTime, xFrequency); /*1Hz frequency*/
 8001658:	f107 032c 	add.w	r3, r7, #44	; 0x2c
 800165c:	6c79      	ldr	r1, [r7, #68]	; 0x44
 800165e:	4618      	mov	r0, r3
 8001660:	f004 fb58 	bl	8005d14 <vTaskDelayUntil>
	while (1) {
 8001664:	e7af      	b.n	80015c6 <Bat_taskF+0x16>
 8001666:	bf00      	nop
 8001668:	200021a8 	.word	0x200021a8
 800166c:	39ec1139 	.word	0x39ec1139
 8001670:	401fac0d 	.word	0x401fac0d
 8001674:	41f00000 	.word	0x41f00000
 8001678:	20002214 	.word	0x20002214
 800167c:	40011000 	.word	0x40011000

08001680 <Fuel_taskF>:
	}
}

/*Fuel level read task */
void Fuel_taskF(void *pvParameters) {
 8001680:	b5b0      	push	{r4, r5, r7, lr}
 8001682:	b0a0      	sub	sp, #128	; 0x80
 8001684:	af00      	add	r7, sp, #0
 8001686:	6078      	str	r0, [r7, #4]
	TickType_t xLastWakeTime;
	const TickType_t xFrequency = 20;  //Ticks to wait since routine starts
 8001688:	2314      	movs	r3, #20
 800168a:	67fb      	str	r3, [r7, #124]	; 0x7c
	xLastWakeTime = xTaskGetTickCount();
 800168c:	f004 fd04 	bl	8006098 <xTaskGetTickCount>
 8001690:	4603      	mov	r3, r0
 8001692:	66fb      	str	r3, [r7, #108]	; 0x6c
	while (1) {
		uint8_t fuelbuff[2];
		uint8_t fuelbuff1[4];
		uint8_t fuelbuff2[4];

		uint16_t fuel_a = analog[1];
 8001694:	4b98      	ldr	r3, [pc, #608]	; (80018f8 <Fuel_taskF+0x278>)
 8001696:	885b      	ldrh	r3, [r3, #2]
 8001698:	f8a7 307a 	strh.w	r3, [r7, #122]	; 0x7a
		fuel_f =  0.998744152176286*fuel_f  + (1-0.998744152176286) * (float)fuel_a;
 800169c:	4b97      	ldr	r3, [pc, #604]	; (80018fc <Fuel_taskF+0x27c>)
 800169e:	681b      	ldr	r3, [r3, #0]
 80016a0:	4618      	mov	r0, r3
 80016a2:	f7fe feff 	bl	80004a4 <__aeabi_f2d>
 80016a6:	a388      	add	r3, pc, #544	; (adr r3, 80018c8 <Fuel_taskF+0x248>)
 80016a8:	e9d3 2300 	ldrd	r2, r3, [r3]
 80016ac:	f7fe ff52 	bl	8000554 <__aeabi_dmul>
 80016b0:	4603      	mov	r3, r0
 80016b2:	460c      	mov	r4, r1
 80016b4:	4625      	mov	r5, r4
 80016b6:	461c      	mov	r4, r3
 80016b8:	f8b7 307a 	ldrh.w	r3, [r7, #122]	; 0x7a
 80016bc:	4618      	mov	r0, r3
 80016be:	f7ff fa61 	bl	8000b84 <__aeabi_ui2f>
 80016c2:	4603      	mov	r3, r0
 80016c4:	4618      	mov	r0, r3
 80016c6:	f7fe feed 	bl	80004a4 <__aeabi_f2d>
 80016ca:	a381      	add	r3, pc, #516	; (adr r3, 80018d0 <Fuel_taskF+0x250>)
 80016cc:	e9d3 2300 	ldrd	r2, r3, [r3]
 80016d0:	f7fe ff40 	bl	8000554 <__aeabi_dmul>
 80016d4:	4602      	mov	r2, r0
 80016d6:	460b      	mov	r3, r1
 80016d8:	4620      	mov	r0, r4
 80016da:	4629      	mov	r1, r5
 80016dc:	f7fe fd84 	bl	80001e8 <__adddf3>
 80016e0:	4603      	mov	r3, r0
 80016e2:	460c      	mov	r4, r1
 80016e4:	4618      	mov	r0, r3
 80016e6:	4621      	mov	r1, r4
 80016e8:	f7ff f946 	bl	8000978 <__aeabi_d2f>
 80016ec:	4602      	mov	r2, r0
 80016ee:	4b83      	ldr	r3, [pc, #524]	; (80018fc <Fuel_taskF+0x27c>)
 80016f0:	601a      	str	r2, [r3, #0]
		fuel_f1 = 0.999874344189209*fuel_f1 + (1-0.999874344189209) * (float)fuel_a;
 80016f2:	4b83      	ldr	r3, [pc, #524]	; (8001900 <Fuel_taskF+0x280>)
 80016f4:	681b      	ldr	r3, [r3, #0]
 80016f6:	4618      	mov	r0, r3
 80016f8:	f7fe fed4 	bl	80004a4 <__aeabi_f2d>
 80016fc:	a376      	add	r3, pc, #472	; (adr r3, 80018d8 <Fuel_taskF+0x258>)
 80016fe:	e9d3 2300 	ldrd	r2, r3, [r3]
 8001702:	f7fe ff27 	bl	8000554 <__aeabi_dmul>
 8001706:	4603      	mov	r3, r0
 8001708:	460c      	mov	r4, r1
 800170a:	4625      	mov	r5, r4
 800170c:	461c      	mov	r4, r3
 800170e:	f8b7 307a 	ldrh.w	r3, [r7, #122]	; 0x7a
 8001712:	4618      	mov	r0, r3
 8001714:	f7ff fa36 	bl	8000b84 <__aeabi_ui2f>
 8001718:	4603      	mov	r3, r0
 800171a:	4618      	mov	r0, r3
 800171c:	f7fe fec2 	bl	80004a4 <__aeabi_f2d>
 8001720:	a36f      	add	r3, pc, #444	; (adr r3, 80018e0 <Fuel_taskF+0x260>)
 8001722:	e9d3 2300 	ldrd	r2, r3, [r3]
 8001726:	f7fe ff15 	bl	8000554 <__aeabi_dmul>
 800172a:	4602      	mov	r2, r0
 800172c:	460b      	mov	r3, r1
 800172e:	4620      	mov	r0, r4
 8001730:	4629      	mov	r1, r5
 8001732:	f7fe fd59 	bl	80001e8 <__adddf3>
 8001736:	4603      	mov	r3, r0
 8001738:	460c      	mov	r4, r1
 800173a:	4618      	mov	r0, r3
 800173c:	4621      	mov	r1, r4
 800173e:	f7ff f91b 	bl	8000978 <__aeabi_d2f>
 8001742:	4602      	mov	r2, r0
 8001744:	4b6e      	ldr	r3, [pc, #440]	; (8001900 <Fuel_taskF+0x280>)
 8001746:	601a      	str	r2, [r3, #0]
		fuel_f2 = 0.999987433708342*fuel_f2 + (1-0.999987433708342) * (float)fuel_a;
 8001748:	4b6e      	ldr	r3, [pc, #440]	; (8001904 <Fuel_taskF+0x284>)
 800174a:	681b      	ldr	r3, [r3, #0]
 800174c:	4618      	mov	r0, r3
 800174e:	f7fe fea9 	bl	80004a4 <__aeabi_f2d>
 8001752:	a365      	add	r3, pc, #404	; (adr r3, 80018e8 <Fuel_taskF+0x268>)
 8001754:	e9d3 2300 	ldrd	r2, r3, [r3]
 8001758:	f7fe fefc 	bl	8000554 <__aeabi_dmul>
 800175c:	4603      	mov	r3, r0
 800175e:	460c      	mov	r4, r1
 8001760:	4625      	mov	r5, r4
 8001762:	461c      	mov	r4, r3
 8001764:	f8b7 307a 	ldrh.w	r3, [r7, #122]	; 0x7a
 8001768:	4618      	mov	r0, r3
 800176a:	f7ff fa0b 	bl	8000b84 <__aeabi_ui2f>
 800176e:	4603      	mov	r3, r0
 8001770:	4618      	mov	r0, r3
 8001772:	f7fe fe97 	bl	80004a4 <__aeabi_f2d>
 8001776:	a35e      	add	r3, pc, #376	; (adr r3, 80018f0 <Fuel_taskF+0x270>)
 8001778:	e9d3 2300 	ldrd	r2, r3, [r3]
 800177c:	f7fe feea 	bl	8000554 <__aeabi_dmul>
 8001780:	4602      	mov	r2, r0
 8001782:	460b      	mov	r3, r1
 8001784:	4620      	mov	r0, r4
 8001786:	4629      	mov	r1, r5
 8001788:	f7fe fd2e 	bl	80001e8 <__adddf3>
 800178c:	4603      	mov	r3, r0
 800178e:	460c      	mov	r4, r1
 8001790:	4618      	mov	r0, r3
 8001792:	4621      	mov	r1, r4
 8001794:	f7ff f8f0 	bl	8000978 <__aeabi_d2f>
 8001798:	4602      	mov	r2, r0
 800179a:	4b5a      	ldr	r3, [pc, #360]	; (8001904 <Fuel_taskF+0x284>)
 800179c:	601a      	str	r2, [r3, #0]

		uint16_t fuel_c = (uint16_t)fuel_f;
 800179e:	4b57      	ldr	r3, [pc, #348]	; (80018fc <Fuel_taskF+0x27c>)
 80017a0:	681b      	ldr	r3, [r3, #0]
 80017a2:	4618      	mov	r0, r3
 80017a4:	f7ff fb96 	bl	8000ed4 <__aeabi_f2uiz>
 80017a8:	4603      	mov	r3, r0
 80017aa:	f8a7 3078 	strh.w	r3, [r7, #120]	; 0x78
		uint32_t fuel_c1 = (uint32_t)fuel_f1;
 80017ae:	4b54      	ldr	r3, [pc, #336]	; (8001900 <Fuel_taskF+0x280>)
 80017b0:	681b      	ldr	r3, [r3, #0]
 80017b2:	4618      	mov	r0, r3
 80017b4:	f7ff fb8e 	bl	8000ed4 <__aeabi_f2uiz>
 80017b8:	4603      	mov	r3, r0
 80017ba:	677b      	str	r3, [r7, #116]	; 0x74
		uint32_t fuel_c2 = (uint32_t)fuel_f2;
 80017bc:	4b51      	ldr	r3, [pc, #324]	; (8001904 <Fuel_taskF+0x284>)
 80017be:	681b      	ldr	r3, [r3, #0]
 80017c0:	4618      	mov	r0, r3
 80017c2:	f7ff fb87 	bl	8000ed4 <__aeabi_f2uiz>
 80017c6:	4603      	mov	r3, r0
 80017c8:	673b      	str	r3, [r7, #112]	; 0x70

		fuelbuff[0] = (uint8_t) (fuel_c >> 8) & 0xFF;
 80017ca:	f8b7 3078 	ldrh.w	r3, [r7, #120]	; 0x78
 80017ce:	0a1b      	lsrs	r3, r3, #8
 80017d0:	b29b      	uxth	r3, r3
 80017d2:	b2db      	uxtb	r3, r3
 80017d4:	f887 3068 	strb.w	r3, [r7, #104]	; 0x68
		fuelbuff[1] = (uint8_t) fuel_c & 0xFF;
 80017d8:	f8b7 3078 	ldrh.w	r3, [r7, #120]	; 0x78
 80017dc:	b2db      	uxtb	r3, r3
 80017de:	f887 3069 	strb.w	r3, [r7, #105]	; 0x69

		fuelbuff1[0] = (uint8_t) (fuel_c1 >> 24);
 80017e2:	6f7b      	ldr	r3, [r7, #116]	; 0x74
 80017e4:	0e1b      	lsrs	r3, r3, #24
 80017e6:	b2db      	uxtb	r3, r3
 80017e8:	f887 3064 	strb.w	r3, [r7, #100]	; 0x64
		fuelbuff1[1] = (uint8_t) (fuel_c1 >> 16);
 80017ec:	6f7b      	ldr	r3, [r7, #116]	; 0x74
 80017ee:	0c1b      	lsrs	r3, r3, #16
 80017f0:	b2db      	uxtb	r3, r3
 80017f2:	f887 3065 	strb.w	r3, [r7, #101]	; 0x65
		fuelbuff1[2] = (uint8_t) (fuel_c1 >> 8);
 80017f6:	6f7b      	ldr	r3, [r7, #116]	; 0x74
 80017f8:	0a1b      	lsrs	r3, r3, #8
 80017fa:	b2db      	uxtb	r3, r3
 80017fc:	f887 3066 	strb.w	r3, [r7, #102]	; 0x66
		fuelbuff1[3] = (uint8_t) fuel_c1;
 8001800:	6f7b      	ldr	r3, [r7, #116]	; 0x74
 8001802:	b2db      	uxtb	r3, r3
 8001804:	f887 3067 	strb.w	r3, [r7, #103]	; 0x67

		fuelbuff2[0] = (uint8_t) (fuel_c2 >> 24);
 8001808:	6f3b      	ldr	r3, [r7, #112]	; 0x70
 800180a:	0e1b      	lsrs	r3, r3, #24
 800180c:	b2db      	uxtb	r3, r3
 800180e:	f887 3060 	strb.w	r3, [r7, #96]	; 0x60
	    fuelbuff2[1] = (uint8_t) (fuel_c2 >> 16);
 8001812:	6f3b      	ldr	r3, [r7, #112]	; 0x70
 8001814:	0c1b      	lsrs	r3, r3, #16
 8001816:	b2db      	uxtb	r3, r3
 8001818:	f887 3061 	strb.w	r3, [r7, #97]	; 0x61
		fuelbuff2[2] = (uint8_t) (fuel_c2 >> 8);
 800181c:	6f3b      	ldr	r3, [r7, #112]	; 0x70
 800181e:	0a1b      	lsrs	r3, r3, #8
 8001820:	b2db      	uxtb	r3, r3
 8001822:	f887 3062 	strb.w	r3, [r7, #98]	; 0x62
		fuelbuff2[3] = (uint8_t) fuel_c2;
 8001826:	6f3b      	ldr	r3, [r7, #112]	; 0x70
 8001828:	b2db      	uxtb	r3, r3
 800182a:	f887 3063 	strb.w	r3, [r7, #99]	; 0x63

		uint32_t TxMailbox;

		CAN_TxHeaderTypeDef FuelHeader;

		FuelHeader.DLC = 2;
 800182e:	2302      	movs	r3, #2
 8001830:	657b      	str	r3, [r7, #84]	; 0x54
		FuelHeader.StdId = 0x652;
 8001832:	f240 6352 	movw	r3, #1618	; 0x652
 8001836:	647b      	str	r3, [r7, #68]	; 0x44
		FuelHeader.IDE = CAN_ID_STD;
 8001838:	2300      	movs	r3, #0
 800183a:	64fb      	str	r3, [r7, #76]	; 0x4c
		FuelHeader.RTR = CAN_RTR_DATA;
 800183c:	2300      	movs	r3, #0
 800183e:	653b      	str	r3, [r7, #80]	; 0x50

		if (HAL_CAN_AddTxMessage(&hcan, &FuelHeader, fuelbuff, &TxMailbox)
 8001840:	f107 035c 	add.w	r3, r7, #92	; 0x5c
 8001844:	f107 0268 	add.w	r2, r7, #104	; 0x68
 8001848:	f107 0144 	add.w	r1, r7, #68	; 0x44
 800184c:	482e      	ldr	r0, [pc, #184]	; (8001908 <Fuel_taskF+0x288>)
 800184e:	f001 fabb 	bl	8002dc8 <HAL_CAN_AddTxMessage>
 8001852:	4603      	mov	r3, r0
 8001854:	2b00      	cmp	r3, #0
 8001856:	d001      	beq.n	800185c <Fuel_taskF+0x1dc>
				!= HAL_OK) {
			Error_Handler();
 8001858:	f000 fa40 	bl	8001cdc <Error_Handler>

		uint32_t TxMailbox1;

		CAN_TxHeaderTypeDef FuelHeader1;

		FuelHeader.DLC = 4;
 800185c:	2304      	movs	r3, #4
 800185e:	657b      	str	r3, [r7, #84]	; 0x54
		FuelHeader.StdId = 0x668;
 8001860:	f44f 63cd 	mov.w	r3, #1640	; 0x668
 8001864:	647b      	str	r3, [r7, #68]	; 0x44
		FuelHeader.IDE = CAN_ID_STD;
 8001866:	2300      	movs	r3, #0
 8001868:	64fb      	str	r3, [r7, #76]	; 0x4c
		FuelHeader.RTR = CAN_RTR_DATA;
 800186a:	2300      	movs	r3, #0
 800186c:	653b      	str	r3, [r7, #80]	; 0x50

		if (HAL_CAN_AddTxMessage(&hcan, &FuelHeader1, fuelbuff1, &TxMailbox1)
 800186e:	f107 0340 	add.w	r3, r7, #64	; 0x40
 8001872:	f107 0264 	add.w	r2, r7, #100	; 0x64
 8001876:	f107 0128 	add.w	r1, r7, #40	; 0x28
 800187a:	4823      	ldr	r0, [pc, #140]	; (8001908 <Fuel_taskF+0x288>)
 800187c:	f001 faa4 	bl	8002dc8 <HAL_CAN_AddTxMessage>
 8001880:	4603      	mov	r3, r0
 8001882:	2b00      	cmp	r3, #0
 8001884:	d001      	beq.n	800188a <Fuel_taskF+0x20a>
				!= HAL_OK) {
			Error_Handler();
 8001886:	f000 fa29 	bl	8001cdc <Error_Handler>

		uint32_t TxMailbox2;

		CAN_TxHeaderTypeDef FuelHeader2;

		FuelHeader.DLC = 4;
 800188a:	2304      	movs	r3, #4
 800188c:	657b      	str	r3, [r7, #84]	; 0x54
		FuelHeader.StdId = 0x669;
 800188e:	f240 6369 	movw	r3, #1641	; 0x669
 8001892:	647b      	str	r3, [r7, #68]	; 0x44
		FuelHeader.IDE = CAN_ID_STD;
 8001894:	2300      	movs	r3, #0
 8001896:	64fb      	str	r3, [r7, #76]	; 0x4c
		FuelHeader.RTR = CAN_RTR_DATA;
 8001898:	2300      	movs	r3, #0
 800189a:	653b      	str	r3, [r7, #80]	; 0x50

		if (HAL_CAN_AddTxMessage(&hcan, &FuelHeader2, fuelbuff2, &TxMailbox2)
 800189c:	f107 0324 	add.w	r3, r7, #36	; 0x24
 80018a0:	f107 0260 	add.w	r2, r7, #96	; 0x60
 80018a4:	f107 010c 	add.w	r1, r7, #12
 80018a8:	4817      	ldr	r0, [pc, #92]	; (8001908 <Fuel_taskF+0x288>)
 80018aa:	f001 fa8d 	bl	8002dc8 <HAL_CAN_AddTxMessage>
 80018ae:	4603      	mov	r3, r0
 80018b0:	2b00      	cmp	r3, #0
 80018b2:	d001      	beq.n	80018b8 <Fuel_taskF+0x238>
				!= HAL_OK) {
			Error_Handler();
 80018b4:	f000 fa12 	bl	8001cdc <Error_Handler>
		}
		vTaskDelayUntil(&xLastWakeTime, xFrequency); /*50Hz frequency*/
 80018b8:	f107 036c 	add.w	r3, r7, #108	; 0x6c
 80018bc:	6ff9      	ldr	r1, [r7, #124]	; 0x7c
 80018be:	4618      	mov	r0, r3
 80018c0:	f004 fa28 	bl	8005d14 <vTaskDelayUntil>
	while (1) {
 80018c4:	e6e6      	b.n	8001694 <Fuel_taskF+0x14>
 80018c6:	bf00      	nop
 80018c8:	4bd5637f 	.word	0x4bd5637f
 80018cc:	3feff5b6 	.word	0x3feff5b6
 80018d0:	55390200 	.word	0x55390200
 80018d4:	3f549368 	.word	0x3f549368
 80018d8:	7b0cde01 	.word	0x7b0cde01
 80018dc:	3feffef8 	.word	0x3feffef8
 80018e0:	321ff000 	.word	0x321ff000
 80018e4:	3f20784f 	.word	0x3f20784f
 80018e8:	a5860687 	.word	0xa5860687
 80018ec:	3fefffe5 	.word	0x3fefffe5
 80018f0:	f9790000 	.word	0xf9790000
 80018f4:	3eea5a79 	.word	0x3eea5a79
 80018f8:	200021a8 	.word	0x200021a8
 80018fc:	20000280 	.word	0x20000280
 8001900:	20000284 	.word	0x20000284
 8001904:	20000288 	.word	0x20000288
 8001908:	20002214 	.word	0x20002214

0800190c <Speed_taskF>:
	}
}

/*Speed read task */
void Speed_taskF(void *pvParameters) {
 800190c:	b580      	push	{r7, lr}
 800190e:	b090      	sub	sp, #64	; 0x40
 8001910:	af02      	add	r7, sp, #8
 8001912:	6078      	str	r0, [r7, #4]
	TickType_t xLastWakeTime;
	const TickType_t xFrequency = 20;  //Ticks to wait since routine starts
 8001914:	2314      	movs	r3, #20
 8001916:	637b      	str	r3, [r7, #52]	; 0x34
	xLastWakeTime = xTaskGetTickCount();
 8001918:	f004 fbbe 	bl	8006098 <xTaskGetTickCount>
 800191c:	4603      	mov	r3, r0
 800191e:	633b      	str	r3, [r7, #48]	; 0x30
	while (1) {
		uint8_t speedbuff[2];
		uint8_t test[1];
		uint8_t dump[1];
		HAL_I2C_Master_Receive(&hi2c2, (0x4 << 1), &test[0], 1, 100);
 8001920:	f107 0228 	add.w	r2, r7, #40	; 0x28
 8001924:	2364      	movs	r3, #100	; 0x64
 8001926:	9300      	str	r3, [sp, #0]
 8001928:	2301      	movs	r3, #1
 800192a:	2108      	movs	r1, #8
 800192c:	4824      	ldr	r0, [pc, #144]	; (80019c0 <Speed_taskF+0xb4>)
 800192e:	f002 fb09 	bl	8003f44 <HAL_I2C_Master_Receive>
		if (test[0] != 0xAA) {
 8001932:	f897 3028 	ldrb.w	r3, [r7, #40]	; 0x28
 8001936:	2baa      	cmp	r3, #170	; 0xaa
 8001938:	d008      	beq.n	800194c <Speed_taskF+0x40>
			HAL_I2C_Master_Receive(&hi2c2, (0x4 << 1), &dump[0], 1, 100);
 800193a:	f107 0224 	add.w	r2, r7, #36	; 0x24
 800193e:	2364      	movs	r3, #100	; 0x64
 8001940:	9300      	str	r3, [sp, #0]
 8001942:	2301      	movs	r3, #1
 8001944:	2108      	movs	r1, #8
 8001946:	481e      	ldr	r0, [pc, #120]	; (80019c0 <Speed_taskF+0xb4>)
 8001948:	f002 fafc 	bl	8003f44 <HAL_I2C_Master_Receive>
		}
		HAL_I2C_Master_Receive(&hi2c2, (0x4 << 1), &speedbuff[0], 1, 100);
 800194c:	f107 022c 	add.w	r2, r7, #44	; 0x2c
 8001950:	2364      	movs	r3, #100	; 0x64
 8001952:	9300      	str	r3, [sp, #0]
 8001954:	2301      	movs	r3, #1
 8001956:	2108      	movs	r1, #8
 8001958:	4819      	ldr	r0, [pc, #100]	; (80019c0 <Speed_taskF+0xb4>)
 800195a:	f002 faf3 	bl	8003f44 <HAL_I2C_Master_Receive>
		HAL_I2C_Master_Receive(&hi2c2, (0x4 << 1), &speedbuff[1], 1, 100);
 800195e:	f107 032c 	add.w	r3, r7, #44	; 0x2c
 8001962:	1c5a      	adds	r2, r3, #1
 8001964:	2364      	movs	r3, #100	; 0x64
 8001966:	9300      	str	r3, [sp, #0]
 8001968:	2301      	movs	r3, #1
 800196a:	2108      	movs	r1, #8
 800196c:	4814      	ldr	r0, [pc, #80]	; (80019c0 <Speed_taskF+0xb4>)
 800196e:	f002 fae9 	bl	8003f44 <HAL_I2C_Master_Receive>
		//HAL_I2C_Master_Receive(&hi2c2, (0x4 << 1), &rpmbuff[0], 1, 100);
		//HAL_I2C_Master_Receive(&hi2c2, (0x4 << 1), &rpmbuff[1], 1, 100);
		HAL_I2C_Master_Receive(&hi2c2, (0x4 << 1), &odbuff[0], 1, 100);
 8001972:	2364      	movs	r3, #100	; 0x64
 8001974:	9300      	str	r3, [sp, #0]
 8001976:	2301      	movs	r3, #1
 8001978:	4a12      	ldr	r2, [pc, #72]	; (80019c4 <Speed_taskF+0xb8>)
 800197a:	2108      	movs	r1, #8
 800197c:	4810      	ldr	r0, [pc, #64]	; (80019c0 <Speed_taskF+0xb4>)
 800197e:	f002 fae1 	bl	8003f44 <HAL_I2C_Master_Receive>
		uint32_t TxMailbox;

		CAN_TxHeaderTypeDef SpeedHeader;

		SpeedHeader.DLC = 2;
 8001982:	2302      	movs	r3, #2
 8001984:	61bb      	str	r3, [r7, #24]
		SpeedHeader.StdId = 0x653;
 8001986:	f240 6353 	movw	r3, #1619	; 0x653
 800198a:	60bb      	str	r3, [r7, #8]
		SpeedHeader.IDE = CAN_ID_STD;
 800198c:	2300      	movs	r3, #0
 800198e:	613b      	str	r3, [r7, #16]
		SpeedHeader.RTR = CAN_RTR_DATA;
 8001990:	2300      	movs	r3, #0
 8001992:	617b      	str	r3, [r7, #20]

		if (HAL_CAN_AddTxMessage(&hcan, &SpeedHeader, speedbuff, &TxMailbox)
 8001994:	f107 0320 	add.w	r3, r7, #32
 8001998:	f107 022c 	add.w	r2, r7, #44	; 0x2c
 800199c:	f107 0108 	add.w	r1, r7, #8
 80019a0:	4809      	ldr	r0, [pc, #36]	; (80019c8 <Speed_taskF+0xbc>)
 80019a2:	f001 fa11 	bl	8002dc8 <HAL_CAN_AddTxMessage>
 80019a6:	4603      	mov	r3, r0
 80019a8:	2b00      	cmp	r3, #0
 80019aa:	d001      	beq.n	80019b0 <Speed_taskF+0xa4>
				!= HAL_OK) {
			Error_Handler();
 80019ac:	f000 f996 	bl	8001cdc <Error_Handler>
		}

		vTaskDelayUntil(&xLastWakeTime, xFrequency); /*100Hz frequency*/
 80019b0:	f107 0330 	add.w	r3, r7, #48	; 0x30
 80019b4:	6b79      	ldr	r1, [r7, #52]	; 0x34
 80019b6:	4618      	mov	r0, r3
 80019b8:	f004 f9ac 	bl	8005d14 <vTaskDelayUntil>
	while (1) {
 80019bc:	e7b0      	b.n	8001920 <Speed_taskF+0x14>
 80019be:	bf00      	nop
 80019c0:	200021b4 	.word	0x200021b4
 80019c4:	200022bc 	.word	0x200022bc
 80019c8:	20002214 	.word	0x20002214

080019cc <RPM_taskF>:
	}
}

/*RPM read task */
void RPM_taskF(void *pvParameters) {
 80019cc:	b580      	push	{r7, lr}
 80019ce:	b090      	sub	sp, #64	; 0x40
 80019d0:	af02      	add	r7, sp, #8
 80019d2:	6078      	str	r0, [r7, #4]
	TickType_t xLastWakeTime;
	const TickType_t xFrequency = 20;  //Ticks to wait since routine starts
 80019d4:	2314      	movs	r3, #20
 80019d6:	637b      	str	r3, [r7, #52]	; 0x34
	xLastWakeTime = xTaskGetTickCount();
 80019d8:	f004 fb5e 	bl	8006098 <xTaskGetTickCount>
 80019dc:	4603      	mov	r3, r0
 80019de:	633b      	str	r3, [r7, #48]	; 0x30
	while (1) {

		uint8_t test[1];
		uint8_t dump[1];
		HAL_I2C_Master_Receive(&hi2c2, (0x5 << 1), &test[0], 1, 10);
 80019e0:	f107 022c 	add.w	r2, r7, #44	; 0x2c
 80019e4:	230a      	movs	r3, #10
 80019e6:	9300      	str	r3, [sp, #0]
 80019e8:	2301      	movs	r3, #1
 80019ea:	210a      	movs	r1, #10
 80019ec:	481e      	ldr	r0, [pc, #120]	; (8001a68 <RPM_taskF+0x9c>)
 80019ee:	f002 faa9 	bl	8003f44 <HAL_I2C_Master_Receive>
		if (test[0] != 0x55){
 80019f2:	f897 302c 	ldrb.w	r3, [r7, #44]	; 0x2c
 80019f6:	2b55      	cmp	r3, #85	; 0x55
 80019f8:	d008      	beq.n	8001a0c <RPM_taskF+0x40>
			HAL_I2C_Master_Receive(&hi2c2, (0x5 << 1), &dump[0], 1, 10);
 80019fa:	f107 0228 	add.w	r2, r7, #40	; 0x28
 80019fe:	230a      	movs	r3, #10
 8001a00:	9300      	str	r3, [sp, #0]
 8001a02:	2301      	movs	r3, #1
 8001a04:	210a      	movs	r1, #10
 8001a06:	4818      	ldr	r0, [pc, #96]	; (8001a68 <RPM_taskF+0x9c>)
 8001a08:	f002 fa9c 	bl	8003f44 <HAL_I2C_Master_Receive>
		}

		HAL_I2C_Master_Receive(&hi2c2, (0x5 << 1), &rpmbuff[0], 1, 10);
 8001a0c:	230a      	movs	r3, #10
 8001a0e:	9300      	str	r3, [sp, #0]
 8001a10:	2301      	movs	r3, #1
 8001a12:	4a16      	ldr	r2, [pc, #88]	; (8001a6c <RPM_taskF+0xa0>)
 8001a14:	210a      	movs	r1, #10
 8001a16:	4814      	ldr	r0, [pc, #80]	; (8001a68 <RPM_taskF+0x9c>)
 8001a18:	f002 fa94 	bl	8003f44 <HAL_I2C_Master_Receive>
		HAL_I2C_Master_Receive(&hi2c2, (0x5 << 1), &rpmbuff[1], 1, 10);
 8001a1c:	230a      	movs	r3, #10
 8001a1e:	9300      	str	r3, [sp, #0]
 8001a20:	2301      	movs	r3, #1
 8001a22:	4a13      	ldr	r2, [pc, #76]	; (8001a70 <RPM_taskF+0xa4>)
 8001a24:	210a      	movs	r1, #10
 8001a26:	4810      	ldr	r0, [pc, #64]	; (8001a68 <RPM_taskF+0x9c>)
 8001a28:	f002 fa8c 	bl	8003f44 <HAL_I2C_Master_Receive>
		uint32_t TxMailbox;


		CAN_TxHeaderTypeDef RPMHeader;

		RPMHeader.DLC = 2;
 8001a2c:	2302      	movs	r3, #2
 8001a2e:	61fb      	str	r3, [r7, #28]
		RPMHeader.StdId = 0x654;
 8001a30:	f240 6354 	movw	r3, #1620	; 0x654
 8001a34:	60fb      	str	r3, [r7, #12]
		RPMHeader.IDE = CAN_ID_STD;
 8001a36:	2300      	movs	r3, #0
 8001a38:	617b      	str	r3, [r7, #20]
		RPMHeader.RTR = CAN_RTR_DATA;
 8001a3a:	2300      	movs	r3, #0
 8001a3c:	61bb      	str	r3, [r7, #24]

		if (HAL_CAN_AddTxMessage(&hcan, &RPMHeader, rpmbuff, &TxMailbox)
 8001a3e:	f107 0324 	add.w	r3, r7, #36	; 0x24
 8001a42:	f107 010c 	add.w	r1, r7, #12
 8001a46:	4a09      	ldr	r2, [pc, #36]	; (8001a6c <RPM_taskF+0xa0>)
 8001a48:	480a      	ldr	r0, [pc, #40]	; (8001a74 <RPM_taskF+0xa8>)
 8001a4a:	f001 f9bd 	bl	8002dc8 <HAL_CAN_AddTxMessage>
 8001a4e:	4603      	mov	r3, r0
 8001a50:	2b00      	cmp	r3, #0
 8001a52:	d001      	beq.n	8001a58 <RPM_taskF+0x8c>
				!= HAL_OK) {
			Error_Handler();
 8001a54:	f000 f942 	bl	8001cdc <Error_Handler>
		}

		vTaskDelayUntil(&xLastWakeTime, xFrequency); /*5Hz frequency*/
 8001a58:	f107 0330 	add.w	r3, r7, #48	; 0x30
 8001a5c:	6b79      	ldr	r1, [r7, #52]	; 0x34
 8001a5e:	4618      	mov	r0, r3
 8001a60:	f004 f958 	bl	8005d14 <vTaskDelayUntil>
	while (1) {
 8001a64:	e7bc      	b.n	80019e0 <RPM_taskF+0x14>
 8001a66:	bf00      	nop
 8001a68:	200021b4 	.word	0x200021b4
 8001a6c:	200021a4 	.word	0x200021a4
 8001a70:	200021a5 	.word	0x200021a5
 8001a74:	20002214 	.word	0x20002214

08001a78 <Temp_taskF>:
	}
}

/*Temperature read task */
void Temp_taskF(void *pvParameters) {
 8001a78:	b5b0      	push	{r4, r5, r7, lr}
 8001a7a:	b092      	sub	sp, #72	; 0x48
 8001a7c:	af00      	add	r7, sp, #0
 8001a7e:	6078      	str	r0, [r7, #4]
	TickType_t xLastWakeTime;
	const TickType_t xFrequency = 200;  //Ticks to wait since routine starts
 8001a80:	23c8      	movs	r3, #200	; 0xc8
 8001a82:	643b      	str	r3, [r7, #64]	; 0x40
	xLastWakeTime = xTaskGetTickCount();
 8001a84:	f004 fb08 	bl	8006098 <xTaskGetTickCount>
 8001a88:	4603      	mov	r3, r0
 8001a8a:	63bb      	str	r3, [r7, #56]	; 0x38
	while (1) {
		uint8_t tempdata[16];

		CSen
 8001a8c:	2200      	movs	r2, #0
 8001a8e:	f44f 4100 	mov.w	r1, #32768	; 0x8000
 8001a92:	486b      	ldr	r0, [pc, #428]	; (8001c40 <Temp_taskF+0x1c8>)
 8001a94:	f002 f8fd 	bl	8003c92 <HAL_GPIO_WritePin>
		for (int i = 0; i < 16; i++) {
 8001a98:	2300      	movs	r3, #0
 8001a9a:	647b      	str	r3, [r7, #68]	; 0x44
 8001a9c:	e018      	b.n	8001ad0 <Temp_taskF+0x58>
			SCK_H
 8001a9e:	2200      	movs	r2, #0
 8001aa0:	2108      	movs	r1, #8
 8001aa2:	4868      	ldr	r0, [pc, #416]	; (8001c44 <Temp_taskF+0x1cc>)
 8001aa4:	f002 f8f5 	bl	8003c92 <HAL_GPIO_WritePin>
			tempdata[i] = HAL_GPIO_ReadPin(GPIOB, GPIO_PIN_4);
 8001aa8:	2110      	movs	r1, #16
 8001aaa:	4866      	ldr	r0, [pc, #408]	; (8001c44 <Temp_taskF+0x1cc>)
 8001aac:	f002 f8da 	bl	8003c64 <HAL_GPIO_ReadPin>
 8001ab0:	4603      	mov	r3, r0
 8001ab2:	4619      	mov	r1, r3
 8001ab4:	f107 0228 	add.w	r2, r7, #40	; 0x28
 8001ab8:	6c7b      	ldr	r3, [r7, #68]	; 0x44
 8001aba:	4413      	add	r3, r2
 8001abc:	460a      	mov	r2, r1
 8001abe:	701a      	strb	r2, [r3, #0]
			SCK_L
 8001ac0:	2201      	movs	r2, #1
 8001ac2:	2108      	movs	r1, #8
 8001ac4:	485f      	ldr	r0, [pc, #380]	; (8001c44 <Temp_taskF+0x1cc>)
 8001ac6:	f002 f8e4 	bl	8003c92 <HAL_GPIO_WritePin>
		for (int i = 0; i < 16; i++) {
 8001aca:	6c7b      	ldr	r3, [r7, #68]	; 0x44
 8001acc:	3301      	adds	r3, #1
 8001ace:	647b      	str	r3, [r7, #68]	; 0x44
 8001ad0:	6c7b      	ldr	r3, [r7, #68]	; 0x44
 8001ad2:	2b0f      	cmp	r3, #15
 8001ad4:	dde3      	ble.n	8001a9e <Temp_taskF+0x26>
		}
		CSdis
 8001ad6:	2201      	movs	r2, #1
 8001ad8:	f44f 4100 	mov.w	r1, #32768	; 0x8000
 8001adc:	4858      	ldr	r0, [pc, #352]	; (8001c40 <Temp_taskF+0x1c8>)
 8001ade:	f002 f8d8 	bl	8003c92 <HAL_GPIO_WritePin>

		if (tempdata[13] == 0) {
 8001ae2:	f897 3035 	ldrb.w	r3, [r7, #53]	; 0x35
 8001ae6:	2b00      	cmp	r3, #0
 8001ae8:	d146      	bne.n	8001b78 <Temp_taskF+0x100>
			temp16 = tempdata[1] * 2048 + tempdata[2] * 1024 + tempdata[3] * 512
 8001aea:	f897 3029 	ldrb.w	r3, [r7, #41]	; 0x29
 8001aee:	005b      	lsls	r3, r3, #1
 8001af0:	f897 202a 	ldrb.w	r2, [r7, #42]	; 0x2a
 8001af4:	4413      	add	r3, r2
 8001af6:	005b      	lsls	r3, r3, #1
 8001af8:	f897 202b 	ldrb.w	r2, [r7, #43]	; 0x2b
 8001afc:	4413      	add	r3, r2
					+ tempdata[4] * 256 + tempdata[5] * 128 + tempdata[6] * 64;
 8001afe:	005b      	lsls	r3, r3, #1
 8001b00:	f897 202c 	ldrb.w	r2, [r7, #44]	; 0x2c
 8001b04:	4413      	add	r3, r2
 8001b06:	005b      	lsls	r3, r3, #1
 8001b08:	f897 202d 	ldrb.w	r2, [r7, #45]	; 0x2d
 8001b0c:	4413      	add	r3, r2
 8001b0e:	005b      	lsls	r3, r3, #1
 8001b10:	f897 202e 	ldrb.w	r2, [r7, #46]	; 0x2e
 8001b14:	4413      	add	r3, r2
			temp16 = tempdata[1] * 2048 + tempdata[2] * 1024 + tempdata[3] * 512
 8001b16:	b29b      	uxth	r3, r3
 8001b18:	019b      	lsls	r3, r3, #6
 8001b1a:	b29a      	uxth	r2, r3
 8001b1c:	4b4a      	ldr	r3, [pc, #296]	; (8001c48 <Temp_taskF+0x1d0>)
 8001b1e:	801a      	strh	r2, [r3, #0]
			temp16 = temp16 + tempdata[7] * 32 + tempdata[8] * 16
 8001b20:	f897 302f 	ldrb.w	r3, [r7, #47]	; 0x2f
 8001b24:	b29b      	uxth	r3, r3
 8001b26:	005b      	lsls	r3, r3, #1
 8001b28:	b29a      	uxth	r2, r3
 8001b2a:	f897 3030 	ldrb.w	r3, [r7, #48]	; 0x30
 8001b2e:	b29b      	uxth	r3, r3
 8001b30:	4413      	add	r3, r2
 8001b32:	b29b      	uxth	r3, r3
					+ tempdata[9] * 8 + tempdata[10] * 4 + tempdata[11] * 2
 8001b34:	005b      	lsls	r3, r3, #1
 8001b36:	b29a      	uxth	r2, r3
 8001b38:	f897 3031 	ldrb.w	r3, [r7, #49]	; 0x31
 8001b3c:	b29b      	uxth	r3, r3
 8001b3e:	4413      	add	r3, r2
 8001b40:	b29b      	uxth	r3, r3
 8001b42:	005b      	lsls	r3, r3, #1
 8001b44:	b29a      	uxth	r2, r3
 8001b46:	f897 3032 	ldrb.w	r3, [r7, #50]	; 0x32
 8001b4a:	b29b      	uxth	r3, r3
 8001b4c:	4413      	add	r3, r2
 8001b4e:	b29b      	uxth	r3, r3
 8001b50:	005b      	lsls	r3, r3, #1
 8001b52:	b29a      	uxth	r2, r3
 8001b54:	f897 3033 	ldrb.w	r3, [r7, #51]	; 0x33
 8001b58:	b29b      	uxth	r3, r3
 8001b5a:	4413      	add	r3, r2
 8001b5c:	b29b      	uxth	r3, r3
 8001b5e:	005b      	lsls	r3, r3, #1
 8001b60:	b29a      	uxth	r2, r3
 8001b62:	4b39      	ldr	r3, [pc, #228]	; (8001c48 <Temp_taskF+0x1d0>)
 8001b64:	881b      	ldrh	r3, [r3, #0]
 8001b66:	4413      	add	r3, r2
 8001b68:	b29a      	uxth	r2, r3
					+ tempdata[12];
 8001b6a:	f897 3034 	ldrb.w	r3, [r7, #52]	; 0x34
 8001b6e:	b29b      	uxth	r3, r3
 8001b70:	4413      	add	r3, r2
 8001b72:	b29a      	uxth	r2, r3
			temp16 = temp16 + tempdata[7] * 32 + tempdata[8] * 16
 8001b74:	4b34      	ldr	r3, [pc, #208]	; (8001c48 <Temp_taskF+0x1d0>)
 8001b76:	801a      	strh	r2, [r3, #0]
			//for (int n = 1; n < 13; n++) {
			//	temp16 += tempdata[n] * (2048 / (1 << (n - 1)));
			//}
		}
		temp_f = 0.7152892160251179* temp_f + (1-0.7152892160251179) * (float)temp16;
 8001b78:	4b34      	ldr	r3, [pc, #208]	; (8001c4c <Temp_taskF+0x1d4>)
 8001b7a:	681b      	ldr	r3, [r3, #0]
 8001b7c:	4618      	mov	r0, r3
 8001b7e:	f7fe fc91 	bl	80004a4 <__aeabi_f2d>
 8001b82:	a32b      	add	r3, pc, #172	; (adr r3, 8001c30 <Temp_taskF+0x1b8>)
 8001b84:	e9d3 2300 	ldrd	r2, r3, [r3]
 8001b88:	f7fe fce4 	bl	8000554 <__aeabi_dmul>
 8001b8c:	4603      	mov	r3, r0
 8001b8e:	460c      	mov	r4, r1
 8001b90:	4625      	mov	r5, r4
 8001b92:	461c      	mov	r4, r3
 8001b94:	4b2c      	ldr	r3, [pc, #176]	; (8001c48 <Temp_taskF+0x1d0>)
 8001b96:	881b      	ldrh	r3, [r3, #0]
 8001b98:	4618      	mov	r0, r3
 8001b9a:	f7fe fff3 	bl	8000b84 <__aeabi_ui2f>
 8001b9e:	4603      	mov	r3, r0
 8001ba0:	4618      	mov	r0, r3
 8001ba2:	f7fe fc7f 	bl	80004a4 <__aeabi_f2d>
 8001ba6:	a324      	add	r3, pc, #144	; (adr r3, 8001c38 <Temp_taskF+0x1c0>)
 8001ba8:	e9d3 2300 	ldrd	r2, r3, [r3]
 8001bac:	f7fe fcd2 	bl	8000554 <__aeabi_dmul>
 8001bb0:	4602      	mov	r2, r0
 8001bb2:	460b      	mov	r3, r1
 8001bb4:	4620      	mov	r0, r4
 8001bb6:	4629      	mov	r1, r5
 8001bb8:	f7fe fb16 	bl	80001e8 <__adddf3>
 8001bbc:	4603      	mov	r3, r0
 8001bbe:	460c      	mov	r4, r1
 8001bc0:	4618      	mov	r0, r3
 8001bc2:	4621      	mov	r1, r4
 8001bc4:	f7fe fed8 	bl	8000978 <__aeabi_d2f>
 8001bc8:	4602      	mov	r2, r0
 8001bca:	4b20      	ldr	r3, [pc, #128]	; (8001c4c <Temp_taskF+0x1d4>)
 8001bcc:	601a      	str	r2, [r3, #0]
		uint16_t tempRx = (uint16_t) temp_f;
 8001bce:	4b1f      	ldr	r3, [pc, #124]	; (8001c4c <Temp_taskF+0x1d4>)
 8001bd0:	681b      	ldr	r3, [r3, #0]
 8001bd2:	4618      	mov	r0, r3
 8001bd4:	f7ff f97e 	bl	8000ed4 <__aeabi_f2uiz>
 8001bd8:	4603      	mov	r3, r0
 8001bda:	87fb      	strh	r3, [r7, #62]	; 0x3e

		uint8_t tempbuff[2];
		tempbuff[0] = (uint8_t) (tempRx >> 8) & 0xFF;
 8001bdc:	8ffb      	ldrh	r3, [r7, #62]	; 0x3e
 8001bde:	0a1b      	lsrs	r3, r3, #8
 8001be0:	b29b      	uxth	r3, r3
 8001be2:	b2db      	uxtb	r3, r3
 8001be4:	f887 3024 	strb.w	r3, [r7, #36]	; 0x24
		tempbuff[1] = (uint8_t) tempRx & 0xFF;
 8001be8:	8ffb      	ldrh	r3, [r7, #62]	; 0x3e
 8001bea:	b2db      	uxtb	r3, r3
 8001bec:	f887 3025 	strb.w	r3, [r7, #37]	; 0x25

		uint32_t TxMailbox;

		CAN_TxHeaderTypeDef TempHeader;

		TempHeader.DLC = 2;
 8001bf0:	2302      	movs	r3, #2
 8001bf2:	61bb      	str	r3, [r7, #24]
		TempHeader.StdId = 0x651;
 8001bf4:	f240 6351 	movw	r3, #1617	; 0x651
 8001bf8:	60bb      	str	r3, [r7, #8]
		TempHeader.IDE = CAN_ID_STD;
 8001bfa:	2300      	movs	r3, #0
 8001bfc:	613b      	str	r3, [r7, #16]
		TempHeader.RTR = CAN_RTR_DATA;
 8001bfe:	2300      	movs	r3, #0
 8001c00:	617b      	str	r3, [r7, #20]

		if (HAL_CAN_AddTxMessage(&hcan, &TempHeader, tempbuff, &TxMailbox)
 8001c02:	f107 0320 	add.w	r3, r7, #32
 8001c06:	f107 0224 	add.w	r2, r7, #36	; 0x24
 8001c0a:	f107 0108 	add.w	r1, r7, #8
 8001c0e:	4810      	ldr	r0, [pc, #64]	; (8001c50 <Temp_taskF+0x1d8>)
 8001c10:	f001 f8da 	bl	8002dc8 <HAL_CAN_AddTxMessage>
 8001c14:	4603      	mov	r3, r0
 8001c16:	2b00      	cmp	r3, #0
 8001c18:	d001      	beq.n	8001c1e <Temp_taskF+0x1a6>
				!= HAL_OK) {
			Error_Handler();
 8001c1a:	f000 f85f 	bl	8001cdc <Error_Handler>
		}

		vTaskDelayUntil(&xLastWakeTime, xFrequency); /*5Hz frequency*/
 8001c1e:	f107 0338 	add.w	r3, r7, #56	; 0x38
 8001c22:	6c39      	ldr	r1, [r7, #64]	; 0x40
 8001c24:	4618      	mov	r0, r3
 8001c26:	f004 f875 	bl	8005d14 <vTaskDelayUntil>
	while (1) {
 8001c2a:	e72f      	b.n	8001a8c <Temp_taskF+0x14>
 8001c2c:	f3af 8000 	nop.w
 8001c30:	35c04cae 	.word	0x35c04cae
 8001c34:	3fe6e3a6 	.word	0x3fe6e3a6
 8001c38:	947f66a4 	.word	0x947f66a4
 8001c3c:	3fd238b3 	.word	0x3fd238b3
 8001c40:	40010800 	.word	0x40010800
 8001c44:	40010c00 	.word	0x40010c00
 8001c48:	20002274 	.word	0x20002274
 8001c4c:	2000028c 	.word	0x2000028c
 8001c50:	20002214 	.word	0x20002214

08001c54 <OD_taskF>:
	}
}

/*Odometer read write task */
void OD_taskF(void *pvParameters) {
 8001c54:	b580      	push	{r7, lr}
 8001c56:	b08c      	sub	sp, #48	; 0x30
 8001c58:	af00      	add	r7, sp, #0
 8001c5a:	6078      	str	r0, [r7, #4]
	TickType_t xLastWakeTime;
		const TickType_t xFrequency = 100;  //Ticks to wait since routine starts
 8001c5c:	2364      	movs	r3, #100	; 0x64
 8001c5e:	62fb      	str	r3, [r7, #44]	; 0x2c
		xLastWakeTime = xTaskGetTickCount();
 8001c60:	f004 fa1a 	bl	8006098 <xTaskGetTickCount>
 8001c64:	4603      	mov	r3, r0
 8001c66:	62bb      	str	r3, [r7, #40]	; 0x28
		while (1) {

			uint32_t TxMailbox;
			CAN_TxHeaderTypeDef odHeader;

			odHeader.DLC = 1;
 8001c68:	2301      	movs	r3, #1
 8001c6a:	61fb      	str	r3, [r7, #28]
			odHeader.StdId = 0x666;
 8001c6c:	f240 6366 	movw	r3, #1638	; 0x666
 8001c70:	60fb      	str	r3, [r7, #12]
			odHeader.IDE = CAN_ID_STD;
 8001c72:	2300      	movs	r3, #0
 8001c74:	617b      	str	r3, [r7, #20]
			odHeader.RTR = CAN_RTR_DATA;
 8001c76:	2300      	movs	r3, #0
 8001c78:	61bb      	str	r3, [r7, #24]

			if (HAL_CAN_AddTxMessage(&hcan, &odHeader, odbuff, &TxMailbox)
 8001c7a:	f107 0324 	add.w	r3, r7, #36	; 0x24
 8001c7e:	f107 010c 	add.w	r1, r7, #12
 8001c82:	4a0a      	ldr	r2, [pc, #40]	; (8001cac <OD_taskF+0x58>)
 8001c84:	480a      	ldr	r0, [pc, #40]	; (8001cb0 <OD_taskF+0x5c>)
 8001c86:	f001 f89f 	bl	8002dc8 <HAL_CAN_AddTxMessage>
 8001c8a:	4603      	mov	r3, r0
 8001c8c:	2b00      	cmp	r3, #0
 8001c8e:	d001      	beq.n	8001c94 <OD_taskF+0x40>
					!= HAL_OK) {
				Error_Handler();
 8001c90:	f000 f824 	bl	8001cdc <Error_Handler>
			}
			HAL_GPIO_TogglePin(GPIOB, GPIO_PIN_6);
 8001c94:	2140      	movs	r1, #64	; 0x40
 8001c96:	4807      	ldr	r0, [pc, #28]	; (8001cb4 <OD_taskF+0x60>)
 8001c98:	f002 f813 	bl	8003cc2 <HAL_GPIO_TogglePin>
			vTaskDelayUntil(&xLastWakeTime, xFrequency); /*10Hz frequency*/
 8001c9c:	f107 0328 	add.w	r3, r7, #40	; 0x28
 8001ca0:	6af9      	ldr	r1, [r7, #44]	; 0x2c
 8001ca2:	4618      	mov	r0, r3
 8001ca4:	f004 f836 	bl	8005d14 <vTaskDelayUntil>
		while (1) {
 8001ca8:	e7de      	b.n	8001c68 <OD_taskF+0x14>
 8001caa:	bf00      	nop
 8001cac:	200022bc 	.word	0x200022bc
 8001cb0:	20002214 	.word	0x20002214
 8001cb4:	40010c00 	.word	0x40010c00

08001cb8 <HAL_TIM_PeriodElapsedCallback>:
 * HAL_TIM_IRQHandler(). It makes a direct call to HAL_IncTick() to increment
 * a global variable "uwTick" used as application time base.
 * @param  htim : TIM handle
 * @retval None
 */
void HAL_TIM_PeriodElapsedCallback(TIM_HandleTypeDef *htim) {
 8001cb8:	b580      	push	{r7, lr}
 8001cba:	b082      	sub	sp, #8
 8001cbc:	af00      	add	r7, sp, #0
 8001cbe:	6078      	str	r0, [r7, #4]
	/* USER CODE BEGIN Callback 0 */

	/* USER CODE END Callback 0 */
	if (htim->Instance == TIM1) {
 8001cc0:	687b      	ldr	r3, [r7, #4]
 8001cc2:	681b      	ldr	r3, [r3, #0]
 8001cc4:	4a04      	ldr	r2, [pc, #16]	; (8001cd8 <HAL_TIM_PeriodElapsedCallback+0x20>)
 8001cc6:	4293      	cmp	r3, r2
 8001cc8:	d101      	bne.n	8001cce <HAL_TIM_PeriodElapsedCallback+0x16>
		HAL_IncTick();
 8001cca:	f000 fa7b 	bl	80021c4 <HAL_IncTick>
	}
	/* USER CODE BEGIN Callback 1 */

	/* USER CODE END Callback 1 */
}
 8001cce:	bf00      	nop
 8001cd0:	3708      	adds	r7, #8
 8001cd2:	46bd      	mov	sp, r7
 8001cd4:	bd80      	pop	{r7, pc}
 8001cd6:	bf00      	nop
 8001cd8:	40012c00 	.word	0x40012c00

08001cdc <Error_Handler>:

/**
 * @brief  This function is executed in case of error occurrence.
 * @retval None
 */
void Error_Handler(void) {
 8001cdc:	b480      	push	{r7}
 8001cde:	af00      	add	r7, sp, #0
	/* USER CODE BEGIN Error_Handler_Debug */
	/* User can add his own implementation to report the HAL error return state */

	/* USER CODE END Error_Handler_Debug */
}
 8001ce0:	bf00      	nop
 8001ce2:	46bd      	mov	sp, r7
 8001ce4:	bc80      	pop	{r7}
 8001ce6:	4770      	bx	lr

08001ce8 <HAL_MspInit>:
/* USER CODE END 0 */
/**
  * Initializes the Global MSP.
  */
void HAL_MspInit(void)
{
 8001ce8:	b580      	push	{r7, lr}
 8001cea:	b084      	sub	sp, #16
 8001cec:	af00      	add	r7, sp, #0
  /* USER CODE BEGIN MspInit 0 */

  /* USER CODE END MspInit 0 */

  __HAL_RCC_AFIO_CLK_ENABLE();
 8001cee:	4b19      	ldr	r3, [pc, #100]	; (8001d54 <HAL_MspInit+0x6c>)
 8001cf0:	699b      	ldr	r3, [r3, #24]
 8001cf2:	4a18      	ldr	r2, [pc, #96]	; (8001d54 <HAL_MspInit+0x6c>)
 8001cf4:	f043 0301 	orr.w	r3, r3, #1
 8001cf8:	6193      	str	r3, [r2, #24]
 8001cfa:	4b16      	ldr	r3, [pc, #88]	; (8001d54 <HAL_MspInit+0x6c>)
 8001cfc:	699b      	ldr	r3, [r3, #24]
 8001cfe:	f003 0301 	and.w	r3, r3, #1
 8001d02:	60bb      	str	r3, [r7, #8]
 8001d04:	68bb      	ldr	r3, [r7, #8]
  __HAL_RCC_PWR_CLK_ENABLE();
 8001d06:	4b13      	ldr	r3, [pc, #76]	; (8001d54 <HAL_MspInit+0x6c>)
 8001d08:	69db      	ldr	r3, [r3, #28]
 8001d0a:	4a12      	ldr	r2, [pc, #72]	; (8001d54 <HAL_MspInit+0x6c>)
 8001d0c:	f043 5380 	orr.w	r3, r3, #268435456	; 0x10000000
 8001d10:	61d3      	str	r3, [r2, #28]
 8001d12:	4b10      	ldr	r3, [pc, #64]	; (8001d54 <HAL_MspInit+0x6c>)
 8001d14:	69db      	ldr	r3, [r3, #28]
 8001d16:	f003 5380 	and.w	r3, r3, #268435456	; 0x10000000
 8001d1a:	607b      	str	r3, [r7, #4]
 8001d1c:	687b      	ldr	r3, [r7, #4]

  /* System interrupt init*/
  /* PendSV_IRQn interrupt configuration */
  HAL_NVIC_SetPriority(PendSV_IRQn, 15, 0);
 8001d1e:	2200      	movs	r2, #0
 8001d20:	210f      	movs	r1, #15
 8001d22:	f06f 0001 	mvn.w	r0, #1
 8001d26:	f001 fc2a 	bl	800357e <HAL_NVIC_SetPriority>

  /** NOJTAG: JTAG-DP Disabled and SW-DP Enabled
  */
  __HAL_AFIO_REMAP_SWJ_NOJTAG();
 8001d2a:	4b0b      	ldr	r3, [pc, #44]	; (8001d58 <HAL_MspInit+0x70>)
 8001d2c:	685b      	ldr	r3, [r3, #4]
 8001d2e:	60fb      	str	r3, [r7, #12]
 8001d30:	68fb      	ldr	r3, [r7, #12]
 8001d32:	f023 63e0 	bic.w	r3, r3, #117440512	; 0x7000000
 8001d36:	60fb      	str	r3, [r7, #12]
 8001d38:	68fb      	ldr	r3, [r7, #12]
 8001d3a:	f043 7300 	orr.w	r3, r3, #33554432	; 0x2000000
 8001d3e:	60fb      	str	r3, [r7, #12]
 8001d40:	4a05      	ldr	r2, [pc, #20]	; (8001d58 <HAL_MspInit+0x70>)
 8001d42:	68fb      	ldr	r3, [r7, #12]
 8001d44:	6053      	str	r3, [r2, #4]

  /* USER CODE BEGIN MspInit 1 */
  vInitPrioGroupValue();
 8001d46:	f004 fd7f 	bl	8006848 <vInitPrioGroupValue>
  /* USER CODE END MspInit 1 */
}
 8001d4a:	bf00      	nop
 8001d4c:	3710      	adds	r7, #16
 8001d4e:	46bd      	mov	sp, r7
 8001d50:	bd80      	pop	{r7, pc}
 8001d52:	bf00      	nop
 8001d54:	40021000 	.word	0x40021000
 8001d58:	40010000 	.word	0x40010000

08001d5c <HAL_I2C_MspInit>:
* This function configures the hardware resources used in this example
* @param hi2c: I2C handle pointer
* @retval None
*/
void HAL_I2C_MspInit(I2C_HandleTypeDef* hi2c)
{
 8001d5c:	b580      	push	{r7, lr}
 8001d5e:	b088      	sub	sp, #32
 8001d60:	af00      	add	r7, sp, #0
 8001d62:	6078      	str	r0, [r7, #4]
  GPIO_InitTypeDef GPIO_InitStruct = {0};
 8001d64:	f107 0310 	add.w	r3, r7, #16
 8001d68:	2200      	movs	r2, #0
 8001d6a:	601a      	str	r2, [r3, #0]
 8001d6c:	605a      	str	r2, [r3, #4]
 8001d6e:	609a      	str	r2, [r3, #8]
 8001d70:	60da      	str	r2, [r3, #12]
  if(hi2c->Instance==I2C2)
 8001d72:	687b      	ldr	r3, [r7, #4]
 8001d74:	681b      	ldr	r3, [r3, #0]
 8001d76:	4a16      	ldr	r2, [pc, #88]	; (8001dd0 <HAL_I2C_MspInit+0x74>)
 8001d78:	4293      	cmp	r3, r2
 8001d7a:	d124      	bne.n	8001dc6 <HAL_I2C_MspInit+0x6a>
  {
  /* USER CODE BEGIN I2C1_MspInit 0 */
	    /* Peripheral clock enable */
	    __HAL_RCC_I2C2_CLK_ENABLE();
 8001d7c:	4b15      	ldr	r3, [pc, #84]	; (8001dd4 <HAL_I2C_MspInit+0x78>)
 8001d7e:	69db      	ldr	r3, [r3, #28]
 8001d80:	4a14      	ldr	r2, [pc, #80]	; (8001dd4 <HAL_I2C_MspInit+0x78>)
 8001d82:	f443 0380 	orr.w	r3, r3, #4194304	; 0x400000
 8001d86:	61d3      	str	r3, [r2, #28]
 8001d88:	4b12      	ldr	r3, [pc, #72]	; (8001dd4 <HAL_I2C_MspInit+0x78>)
 8001d8a:	69db      	ldr	r3, [r3, #28]
 8001d8c:	f403 0380 	and.w	r3, r3, #4194304	; 0x400000
 8001d90:	60fb      	str	r3, [r7, #12]
 8001d92:	68fb      	ldr	r3, [r7, #12]
  /* USER CODE END I2C1_MspInit 0 */

    __HAL_RCC_GPIOB_CLK_ENABLE();
 8001d94:	4b0f      	ldr	r3, [pc, #60]	; (8001dd4 <HAL_I2C_MspInit+0x78>)
 8001d96:	699b      	ldr	r3, [r3, #24]
 8001d98:	4a0e      	ldr	r2, [pc, #56]	; (8001dd4 <HAL_I2C_MspInit+0x78>)
 8001d9a:	f043 0308 	orr.w	r3, r3, #8
 8001d9e:	6193      	str	r3, [r2, #24]
 8001da0:	4b0c      	ldr	r3, [pc, #48]	; (8001dd4 <HAL_I2C_MspInit+0x78>)
 8001da2:	699b      	ldr	r3, [r3, #24]
 8001da4:	f003 0308 	and.w	r3, r3, #8
 8001da8:	60bb      	str	r3, [r7, #8]
 8001daa:	68bb      	ldr	r3, [r7, #8]
    /**I2C1 GPIO Configuration
    PB6     ------> I2C1_SCL
    PB7     ------> I2C1_SDA
    */
    GPIO_InitStruct.Pin = GPIO_PIN_10|GPIO_PIN_11;
 8001dac:	f44f 6340 	mov.w	r3, #3072	; 0xc00
 8001db0:	613b      	str	r3, [r7, #16]
    GPIO_InitStruct.Mode = GPIO_MODE_AF_OD;
 8001db2:	2312      	movs	r3, #18
 8001db4:	617b      	str	r3, [r7, #20]
    GPIO_InitStruct.Speed = GPIO_SPEED_FREQ_HIGH;
 8001db6:	2303      	movs	r3, #3
 8001db8:	61fb      	str	r3, [r7, #28]
    HAL_GPIO_Init(GPIOB, &GPIO_InitStruct);
 8001dba:	f107 0310 	add.w	r3, r7, #16
 8001dbe:	4619      	mov	r1, r3
 8001dc0:	4805      	ldr	r0, [pc, #20]	; (8001dd8 <HAL_I2C_MspInit+0x7c>)
 8001dc2:	f001 fdf5 	bl	80039b0 <HAL_GPIO_Init>
  /* USER CODE BEGIN I2C1_MspInit 1 */

  /* USER CODE END I2C1_MspInit 1 */
  }

}
 8001dc6:	bf00      	nop
 8001dc8:	3720      	adds	r7, #32
 8001dca:	46bd      	mov	sp, r7
 8001dcc:	bd80      	pop	{r7, pc}
 8001dce:	bf00      	nop
 8001dd0:	40005800 	.word	0x40005800
 8001dd4:	40021000 	.word	0x40021000
 8001dd8:	40010c00 	.word	0x40010c00

08001ddc <HAL_ADC_MspInit>:
* This function configures the hardware resources used in this example
* @param hadc: ADC handle pointer
* @retval None
*/
void HAL_ADC_MspInit(ADC_HandleTypeDef* hadc)
{
 8001ddc:	b580      	push	{r7, lr}
 8001dde:	b08a      	sub	sp, #40	; 0x28
 8001de0:	af00      	add	r7, sp, #0
 8001de2:	6078      	str	r0, [r7, #4]
  GPIO_InitTypeDef GPIO_InitStruct = {0};
 8001de4:	f107 0318 	add.w	r3, r7, #24
 8001de8:	2200      	movs	r2, #0
 8001dea:	601a      	str	r2, [r3, #0]
 8001dec:	605a      	str	r2, [r3, #4]
 8001dee:	609a      	str	r2, [r3, #8]
 8001df0:	60da      	str	r2, [r3, #12]
  if(hadc->Instance==ADC1)
 8001df2:	687b      	ldr	r3, [r7, #4]
 8001df4:	681b      	ldr	r3, [r3, #0]
 8001df6:	4a33      	ldr	r2, [pc, #204]	; (8001ec4 <HAL_ADC_MspInit+0xe8>)
 8001df8:	4293      	cmp	r3, r2
 8001dfa:	d15f      	bne.n	8001ebc <HAL_ADC_MspInit+0xe0>
  {
  /* USER CODE BEGIN ADC1_MspInit 0 */

  /* USER CODE END ADC1_MspInit 0 */
    /* Peripheral clock enable */
    __HAL_RCC_ADC1_CLK_ENABLE();
 8001dfc:	4b32      	ldr	r3, [pc, #200]	; (8001ec8 <HAL_ADC_MspInit+0xec>)
 8001dfe:	699b      	ldr	r3, [r3, #24]
 8001e00:	4a31      	ldr	r2, [pc, #196]	; (8001ec8 <HAL_ADC_MspInit+0xec>)
 8001e02:	f443 7300 	orr.w	r3, r3, #512	; 0x200
 8001e06:	6193      	str	r3, [r2, #24]
 8001e08:	4b2f      	ldr	r3, [pc, #188]	; (8001ec8 <HAL_ADC_MspInit+0xec>)
 8001e0a:	699b      	ldr	r3, [r3, #24]
 8001e0c:	f403 7300 	and.w	r3, r3, #512	; 0x200
 8001e10:	617b      	str	r3, [r7, #20]
 8001e12:	697b      	ldr	r3, [r7, #20]

    __HAL_RCC_GPIOA_CLK_ENABLE();
 8001e14:	4b2c      	ldr	r3, [pc, #176]	; (8001ec8 <HAL_ADC_MspInit+0xec>)
 8001e16:	699b      	ldr	r3, [r3, #24]
 8001e18:	4a2b      	ldr	r2, [pc, #172]	; (8001ec8 <HAL_ADC_MspInit+0xec>)
 8001e1a:	f043 0304 	orr.w	r3, r3, #4
 8001e1e:	6193      	str	r3, [r2, #24]
 8001e20:	4b29      	ldr	r3, [pc, #164]	; (8001ec8 <HAL_ADC_MspInit+0xec>)
 8001e22:	699b      	ldr	r3, [r3, #24]
 8001e24:	f003 0304 	and.w	r3, r3, #4
 8001e28:	613b      	str	r3, [r7, #16]
 8001e2a:	693b      	ldr	r3, [r7, #16]
    __HAL_RCC_GPIOB_CLK_ENABLE();
 8001e2c:	4b26      	ldr	r3, [pc, #152]	; (8001ec8 <HAL_ADC_MspInit+0xec>)
 8001e2e:	699b      	ldr	r3, [r3, #24]
 8001e30:	4a25      	ldr	r2, [pc, #148]	; (8001ec8 <HAL_ADC_MspInit+0xec>)
 8001e32:	f043 0308 	orr.w	r3, r3, #8
 8001e36:	6193      	str	r3, [r2, #24]
 8001e38:	4b23      	ldr	r3, [pc, #140]	; (8001ec8 <HAL_ADC_MspInit+0xec>)
 8001e3a:	699b      	ldr	r3, [r3, #24]
 8001e3c:	f003 0308 	and.w	r3, r3, #8
 8001e40:	60fb      	str	r3, [r7, #12]
 8001e42:	68fb      	ldr	r3, [r7, #12]
    PA2     ------> ADC1_IN2
    PA3     ------> ADC1_IN3
    PB0     ------> ADC1_IN8
    PB1     ------> ADC1_IN9
    */
    GPIO_InitStruct.Pin = GPIO_PIN_0|GPIO_PIN_1;
 8001e44:	2303      	movs	r3, #3
 8001e46:	61bb      	str	r3, [r7, #24]
    GPIO_InitStruct.Mode = GPIO_MODE_ANALOG;
 8001e48:	2303      	movs	r3, #3
 8001e4a:	61fb      	str	r3, [r7, #28]
    HAL_GPIO_Init(GPIOA, &GPIO_InitStruct);
 8001e4c:	f107 0318 	add.w	r3, r7, #24
 8001e50:	4619      	mov	r1, r3
 8001e52:	481e      	ldr	r0, [pc, #120]	; (8001ecc <HAL_ADC_MspInit+0xf0>)
 8001e54:	f001 fdac 	bl	80039b0 <HAL_GPIO_Init>

    GPIO_InitStruct.Pin = GPIO_PIN_0|GPIO_PIN_1;
 8001e58:	2303      	movs	r3, #3
 8001e5a:	61bb      	str	r3, [r7, #24]
    GPIO_InitStruct.Mode = GPIO_MODE_ANALOG;
 8001e5c:	2303      	movs	r3, #3
 8001e5e:	61fb      	str	r3, [r7, #28]
    HAL_GPIO_Init(GPIOB, &GPIO_InitStruct);
 8001e60:	f107 0318 	add.w	r3, r7, #24
 8001e64:	4619      	mov	r1, r3
 8001e66:	481a      	ldr	r0, [pc, #104]	; (8001ed0 <HAL_ADC_MspInit+0xf4>)
 8001e68:	f001 fda2 	bl	80039b0 <HAL_GPIO_Init>

    /* ADC1 DMA Init */
    /* ADC1 Init */
    hdma_adc1.Instance = DMA1_Channel1;
 8001e6c:	4b19      	ldr	r3, [pc, #100]	; (8001ed4 <HAL_ADC_MspInit+0xf8>)
 8001e6e:	4a1a      	ldr	r2, [pc, #104]	; (8001ed8 <HAL_ADC_MspInit+0xfc>)
 8001e70:	601a      	str	r2, [r3, #0]
    hdma_adc1.Init.Direction = DMA_PERIPH_TO_MEMORY;
 8001e72:	4b18      	ldr	r3, [pc, #96]	; (8001ed4 <HAL_ADC_MspInit+0xf8>)
 8001e74:	2200      	movs	r2, #0
 8001e76:	605a      	str	r2, [r3, #4]
    hdma_adc1.Init.PeriphInc = DMA_PINC_DISABLE;
 8001e78:	4b16      	ldr	r3, [pc, #88]	; (8001ed4 <HAL_ADC_MspInit+0xf8>)
 8001e7a:	2200      	movs	r2, #0
 8001e7c:	609a      	str	r2, [r3, #8]
    hdma_adc1.Init.MemInc = DMA_MINC_ENABLE;
 8001e7e:	4b15      	ldr	r3, [pc, #84]	; (8001ed4 <HAL_ADC_MspInit+0xf8>)
 8001e80:	2280      	movs	r2, #128	; 0x80
 8001e82:	60da      	str	r2, [r3, #12]
    hdma_adc1.Init.PeriphDataAlignment = DMA_PDATAALIGN_HALFWORD;
 8001e84:	4b13      	ldr	r3, [pc, #76]	; (8001ed4 <HAL_ADC_MspInit+0xf8>)
 8001e86:	f44f 7280 	mov.w	r2, #256	; 0x100
 8001e8a:	611a      	str	r2, [r3, #16]
    hdma_adc1.Init.MemDataAlignment = DMA_MDATAALIGN_HALFWORD;
 8001e8c:	4b11      	ldr	r3, [pc, #68]	; (8001ed4 <HAL_ADC_MspInit+0xf8>)
 8001e8e:	f44f 6280 	mov.w	r2, #1024	; 0x400
 8001e92:	615a      	str	r2, [r3, #20]
    hdma_adc1.Init.Mode = DMA_CIRCULAR;
 8001e94:	4b0f      	ldr	r3, [pc, #60]	; (8001ed4 <HAL_ADC_MspInit+0xf8>)
 8001e96:	2220      	movs	r2, #32
 8001e98:	619a      	str	r2, [r3, #24]
    hdma_adc1.Init.Priority = DMA_PRIORITY_LOW;
 8001e9a:	4b0e      	ldr	r3, [pc, #56]	; (8001ed4 <HAL_ADC_MspInit+0xf8>)
 8001e9c:	2200      	movs	r2, #0
 8001e9e:	61da      	str	r2, [r3, #28]
    if (HAL_DMA_Init(&hdma_adc1) != HAL_OK)
 8001ea0:	480c      	ldr	r0, [pc, #48]	; (8001ed4 <HAL_ADC_MspInit+0xf8>)
 8001ea2:	f001 fb97 	bl	80035d4 <HAL_DMA_Init>
 8001ea6:	4603      	mov	r3, r0
 8001ea8:	2b00      	cmp	r3, #0
 8001eaa:	d001      	beq.n	8001eb0 <HAL_ADC_MspInit+0xd4>
    {
      Error_Handler();
 8001eac:	f7ff ff16 	bl	8001cdc <Error_Handler>
    }

    __HAL_LINKDMA(hadc,DMA_Handle,hdma_adc1);
 8001eb0:	687b      	ldr	r3, [r7, #4]
 8001eb2:	4a08      	ldr	r2, [pc, #32]	; (8001ed4 <HAL_ADC_MspInit+0xf8>)
 8001eb4:	621a      	str	r2, [r3, #32]
 8001eb6:	4a07      	ldr	r2, [pc, #28]	; (8001ed4 <HAL_ADC_MspInit+0xf8>)
 8001eb8:	687b      	ldr	r3, [r7, #4]
 8001eba:	6253      	str	r3, [r2, #36]	; 0x24
  /* USER CODE BEGIN ADC1_MspInit 1 */

  /* USER CODE END ADC1_MspInit 1 */
  }

}
 8001ebc:	bf00      	nop
 8001ebe:	3728      	adds	r7, #40	; 0x28
 8001ec0:	46bd      	mov	sp, r7
 8001ec2:	bd80      	pop	{r7, pc}
 8001ec4:	40012400 	.word	0x40012400
 8001ec8:	40021000 	.word	0x40021000
 8001ecc:	40010800 	.word	0x40010800
 8001ed0:	40010c00 	.word	0x40010c00
 8001ed4:	20002278 	.word	0x20002278
 8001ed8:	40020008 	.word	0x40020008

08001edc <HAL_CAN_MspInit>:
* This function configures the hardware resources used in this example
* @param hcan: CAN handle pointer
* @retval None
*/
void HAL_CAN_MspInit(CAN_HandleTypeDef* hcan)
{
 8001edc:	b580      	push	{r7, lr}
 8001ede:	b08a      	sub	sp, #40	; 0x28
 8001ee0:	af00      	add	r7, sp, #0
 8001ee2:	6078      	str	r0, [r7, #4]
  GPIO_InitTypeDef GPIO_InitStruct = {0};
 8001ee4:	f107 0314 	add.w	r3, r7, #20
 8001ee8:	2200      	movs	r2, #0
 8001eea:	601a      	str	r2, [r3, #0]
 8001eec:	605a      	str	r2, [r3, #4]
 8001eee:	609a      	str	r2, [r3, #8]
 8001ef0:	60da      	str	r2, [r3, #12]
  if(hcan->Instance==CAN1)
 8001ef2:	687b      	ldr	r3, [r7, #4]
 8001ef4:	681b      	ldr	r3, [r3, #0]
 8001ef6:	4a35      	ldr	r2, [pc, #212]	; (8001fcc <HAL_CAN_MspInit+0xf0>)
 8001ef8:	4293      	cmp	r3, r2
 8001efa:	d163      	bne.n	8001fc4 <HAL_CAN_MspInit+0xe8>
  {
  /* USER CODE BEGIN CAN1_MspInit 0 */

  /* USER CODE END CAN1_MspInit 0 */
    /* Peripheral clock enable */
    __HAL_RCC_CAN1_CLK_ENABLE();
 8001efc:	4b34      	ldr	r3, [pc, #208]	; (8001fd0 <HAL_CAN_MspInit+0xf4>)
 8001efe:	69db      	ldr	r3, [r3, #28]
 8001f00:	4a33      	ldr	r2, [pc, #204]	; (8001fd0 <HAL_CAN_MspInit+0xf4>)
 8001f02:	f043 7300 	orr.w	r3, r3, #33554432	; 0x2000000
 8001f06:	61d3      	str	r3, [r2, #28]
 8001f08:	4b31      	ldr	r3, [pc, #196]	; (8001fd0 <HAL_CAN_MspInit+0xf4>)
 8001f0a:	69db      	ldr	r3, [r3, #28]
 8001f0c:	f003 7300 	and.w	r3, r3, #33554432	; 0x2000000
 8001f10:	613b      	str	r3, [r7, #16]
 8001f12:	693b      	ldr	r3, [r7, #16]

    __HAL_RCC_GPIOB_CLK_ENABLE();
 8001f14:	4b2e      	ldr	r3, [pc, #184]	; (8001fd0 <HAL_CAN_MspInit+0xf4>)
 8001f16:	699b      	ldr	r3, [r3, #24]
 8001f18:	4a2d      	ldr	r2, [pc, #180]	; (8001fd0 <HAL_CAN_MspInit+0xf4>)
 8001f1a:	f043 0308 	orr.w	r3, r3, #8
 8001f1e:	6193      	str	r3, [r2, #24]
 8001f20:	4b2b      	ldr	r3, [pc, #172]	; (8001fd0 <HAL_CAN_MspInit+0xf4>)
 8001f22:	699b      	ldr	r3, [r3, #24]
 8001f24:	f003 0308 	and.w	r3, r3, #8
 8001f28:	60fb      	str	r3, [r7, #12]
 8001f2a:	68fb      	ldr	r3, [r7, #12]
    /**CAN GPIO Configuration
    PB8     ------> CAN_RX
    PB9     ------> CAN_TX
    */
    GPIO_InitStruct.Pin = GPIO_PIN_8;
 8001f2c:	f44f 7380 	mov.w	r3, #256	; 0x100
 8001f30:	617b      	str	r3, [r7, #20]
    GPIO_InitStruct.Mode = GPIO_MODE_INPUT;
 8001f32:	2300      	movs	r3, #0
 8001f34:	61bb      	str	r3, [r7, #24]
    GPIO_InitStruct.Pull = GPIO_NOPULL;
 8001f36:	2300      	movs	r3, #0
 8001f38:	61fb      	str	r3, [r7, #28]
    HAL_GPIO_Init(GPIOB, &GPIO_InitStruct);
 8001f3a:	f107 0314 	add.w	r3, r7, #20
 8001f3e:	4619      	mov	r1, r3
 8001f40:	4824      	ldr	r0, [pc, #144]	; (8001fd4 <HAL_CAN_MspInit+0xf8>)
 8001f42:	f001 fd35 	bl	80039b0 <HAL_GPIO_Init>

    GPIO_InitStruct.Pin = GPIO_PIN_9;
 8001f46:	f44f 7300 	mov.w	r3, #512	; 0x200
 8001f4a:	617b      	str	r3, [r7, #20]
    GPIO_InitStruct.Mode = GPIO_MODE_AF_PP;
 8001f4c:	2302      	movs	r3, #2
 8001f4e:	61bb      	str	r3, [r7, #24]
    GPIO_InitStruct.Speed = GPIO_SPEED_FREQ_HIGH;
 8001f50:	2303      	movs	r3, #3
 8001f52:	623b      	str	r3, [r7, #32]
    HAL_GPIO_Init(GPIOB, &GPIO_InitStruct);
 8001f54:	f107 0314 	add.w	r3, r7, #20
 8001f58:	4619      	mov	r1, r3
 8001f5a:	481e      	ldr	r0, [pc, #120]	; (8001fd4 <HAL_CAN_MspInit+0xf8>)
 8001f5c:	f001 fd28 	bl	80039b0 <HAL_GPIO_Init>

    __HAL_AFIO_REMAP_CAN1_2();
 8001f60:	4b1d      	ldr	r3, [pc, #116]	; (8001fd8 <HAL_CAN_MspInit+0xfc>)
 8001f62:	685b      	ldr	r3, [r3, #4]
 8001f64:	627b      	str	r3, [r7, #36]	; 0x24
 8001f66:	6a7b      	ldr	r3, [r7, #36]	; 0x24
 8001f68:	f423 43c0 	bic.w	r3, r3, #24576	; 0x6000
 8001f6c:	627b      	str	r3, [r7, #36]	; 0x24
 8001f6e:	6a7b      	ldr	r3, [r7, #36]	; 0x24
 8001f70:	f043 63e0 	orr.w	r3, r3, #117440512	; 0x7000000
 8001f74:	627b      	str	r3, [r7, #36]	; 0x24
 8001f76:	6a7b      	ldr	r3, [r7, #36]	; 0x24
 8001f78:	f443 4380 	orr.w	r3, r3, #16384	; 0x4000
 8001f7c:	627b      	str	r3, [r7, #36]	; 0x24
 8001f7e:	4a16      	ldr	r2, [pc, #88]	; (8001fd8 <HAL_CAN_MspInit+0xfc>)
 8001f80:	6a7b      	ldr	r3, [r7, #36]	; 0x24
 8001f82:	6053      	str	r3, [r2, #4]

    /* CAN1 interrupt Init */
    HAL_NVIC_SetPriority(USB_HP_CAN1_TX_IRQn, 5, 0);
 8001f84:	2200      	movs	r2, #0
 8001f86:	2105      	movs	r1, #5
 8001f88:	2013      	movs	r0, #19
 8001f8a:	f001 faf8 	bl	800357e <HAL_NVIC_SetPriority>
    HAL_NVIC_EnableIRQ(USB_HP_CAN1_TX_IRQn);
 8001f8e:	2013      	movs	r0, #19
 8001f90:	f001 fb11 	bl	80035b6 <HAL_NVIC_EnableIRQ>
    HAL_NVIC_SetPriority(USB_LP_CAN1_RX0_IRQn, 5, 0);
 8001f94:	2200      	movs	r2, #0
 8001f96:	2105      	movs	r1, #5
 8001f98:	2014      	movs	r0, #20
 8001f9a:	f001 faf0 	bl	800357e <HAL_NVIC_SetPriority>
    HAL_NVIC_EnableIRQ(USB_LP_CAN1_RX0_IRQn);
 8001f9e:	2014      	movs	r0, #20
 8001fa0:	f001 fb09 	bl	80035b6 <HAL_NVIC_EnableIRQ>
    HAL_NVIC_SetPriority(CAN1_RX1_IRQn, 5, 0);
 8001fa4:	2200      	movs	r2, #0
 8001fa6:	2105      	movs	r1, #5
 8001fa8:	2015      	movs	r0, #21
 8001faa:	f001 fae8 	bl	800357e <HAL_NVIC_SetPriority>
    HAL_NVIC_EnableIRQ(CAN1_RX1_IRQn);
 8001fae:	2015      	movs	r0, #21
 8001fb0:	f001 fb01 	bl	80035b6 <HAL_NVIC_EnableIRQ>
    HAL_NVIC_SetPriority(CAN1_SCE_IRQn, 5, 0);
 8001fb4:	2200      	movs	r2, #0
 8001fb6:	2105      	movs	r1, #5
 8001fb8:	2016      	movs	r0, #22
 8001fba:	f001 fae0 	bl	800357e <HAL_NVIC_SetPriority>
    HAL_NVIC_EnableIRQ(CAN1_SCE_IRQn);
 8001fbe:	2016      	movs	r0, #22
 8001fc0:	f001 faf9 	bl	80035b6 <HAL_NVIC_EnableIRQ>
  /* USER CODE BEGIN CAN1_MspInit 1 */

  /* USER CODE END CAN1_MspInit 1 */
  }

}
 8001fc4:	bf00      	nop
 8001fc6:	3728      	adds	r7, #40	; 0x28
 8001fc8:	46bd      	mov	sp, r7
 8001fca:	bd80      	pop	{r7, pc}
 8001fcc:	40006400 	.word	0x40006400
 8001fd0:	40021000 	.word	0x40021000
 8001fd4:	40010c00 	.word	0x40010c00
 8001fd8:	40010000 	.word	0x40010000

08001fdc <HAL_InitTick>:
  *         reset by HAL_Init() or at any time when clock is configured, by HAL_RCC_ClockConfig().
  * @param  TickPriority: Tick interrupt priority.
  * @retval HAL status
  */
HAL_StatusTypeDef HAL_InitTick(uint32_t TickPriority)
{
 8001fdc:	b580      	push	{r7, lr}
 8001fde:	b08c      	sub	sp, #48	; 0x30
 8001fe0:	af00      	add	r7, sp, #0
 8001fe2:	6078      	str	r0, [r7, #4]
  RCC_ClkInitTypeDef    clkconfig;
  uint32_t              uwTimclock = 0;
 8001fe4:	2300      	movs	r3, #0
 8001fe6:	62fb      	str	r3, [r7, #44]	; 0x2c
  uint32_t              uwPrescalerValue = 0;
 8001fe8:	2300      	movs	r3, #0
 8001fea:	62bb      	str	r3, [r7, #40]	; 0x28
  uint32_t              pFLatency;

  /*Configure the TIM1 IRQ priority */
  HAL_NVIC_SetPriority(TIM1_UP_IRQn, TickPriority ,0);
 8001fec:	2200      	movs	r2, #0
 8001fee:	6879      	ldr	r1, [r7, #4]
 8001ff0:	2019      	movs	r0, #25
 8001ff2:	f001 fac4 	bl	800357e <HAL_NVIC_SetPriority>

  /* Enable the TIM1 global Interrupt */
  HAL_NVIC_EnableIRQ(TIM1_UP_IRQn);
 8001ff6:	2019      	movs	r0, #25
 8001ff8:	f001 fadd 	bl	80035b6 <HAL_NVIC_EnableIRQ>

  /* Enable TIM1 clock */
  __HAL_RCC_TIM1_CLK_ENABLE();
 8001ffc:	4b1e      	ldr	r3, [pc, #120]	; (8002078 <HAL_InitTick+0x9c>)
 8001ffe:	699b      	ldr	r3, [r3, #24]
 8002000:	4a1d      	ldr	r2, [pc, #116]	; (8002078 <HAL_InitTick+0x9c>)
 8002002:	f443 6300 	orr.w	r3, r3, #2048	; 0x800
 8002006:	6193      	str	r3, [r2, #24]
 8002008:	4b1b      	ldr	r3, [pc, #108]	; (8002078 <HAL_InitTick+0x9c>)
 800200a:	699b      	ldr	r3, [r3, #24]
 800200c:	f403 6300 	and.w	r3, r3, #2048	; 0x800
 8002010:	60fb      	str	r3, [r7, #12]
 8002012:	68fb      	ldr	r3, [r7, #12]

  /* Get clock configuration */
  HAL_RCC_GetClockConfig(&clkconfig, &pFLatency);
 8002014:	f107 0210 	add.w	r2, r7, #16
 8002018:	f107 0314 	add.w	r3, r7, #20
 800201c:	4611      	mov	r1, r2
 800201e:	4618      	mov	r0, r3
 8002020:	f002 ff9e 	bl	8004f60 <HAL_RCC_GetClockConfig>

  /* Compute TIM1 clock */
  uwTimclock = HAL_RCC_GetPCLK2Freq();
 8002024:	f002 ff88 	bl	8004f38 <HAL_RCC_GetPCLK2Freq>
 8002028:	62f8      	str	r0, [r7, #44]	; 0x2c

  /* Compute the prescaler value to have TIM1 counter clock equal to 1MHz */
  uwPrescalerValue = (uint32_t) ((uwTimclock / 1000000) - 1);
 800202a:	6afb      	ldr	r3, [r7, #44]	; 0x2c
 800202c:	4a13      	ldr	r2, [pc, #76]	; (800207c <HAL_InitTick+0xa0>)
 800202e:	fba2 2303 	umull	r2, r3, r2, r3
 8002032:	0c9b      	lsrs	r3, r3, #18
 8002034:	3b01      	subs	r3, #1
 8002036:	62bb      	str	r3, [r7, #40]	; 0x28

  /* Initialize TIM1 */
  htim1.Instance = TIM1;
 8002038:	4b11      	ldr	r3, [pc, #68]	; (8002080 <HAL_InitTick+0xa4>)
 800203a:	4a12      	ldr	r2, [pc, #72]	; (8002084 <HAL_InitTick+0xa8>)
 800203c:	601a      	str	r2, [r3, #0]
  + Period = [(TIM1CLK/1000) - 1]. to have a (1/1000) s time base.
  + Prescaler = (uwTimclock/1000000 - 1) to have a 1MHz counter clock.
  + ClockDivision = 0
  + Counter direction = Up
  */
  htim1.Init.Period = (1000000 / 1000) - 1;
 800203e:	4b10      	ldr	r3, [pc, #64]	; (8002080 <HAL_InitTick+0xa4>)
 8002040:	f240 32e7 	movw	r2, #999	; 0x3e7
 8002044:	60da      	str	r2, [r3, #12]
  htim1.Init.Prescaler = uwPrescalerValue;
 8002046:	4a0e      	ldr	r2, [pc, #56]	; (8002080 <HAL_InitTick+0xa4>)
 8002048:	6abb      	ldr	r3, [r7, #40]	; 0x28
 800204a:	6053      	str	r3, [r2, #4]
  htim1.Init.ClockDivision = 0;
 800204c:	4b0c      	ldr	r3, [pc, #48]	; (8002080 <HAL_InitTick+0xa4>)
 800204e:	2200      	movs	r2, #0
 8002050:	611a      	str	r2, [r3, #16]
  htim1.Init.CounterMode = TIM_COUNTERMODE_UP;
 8002052:	4b0b      	ldr	r3, [pc, #44]	; (8002080 <HAL_InitTick+0xa4>)
 8002054:	2200      	movs	r2, #0
 8002056:	609a      	str	r2, [r3, #8]
  if(HAL_TIM_Base_Init(&htim1) == HAL_OK)
 8002058:	4809      	ldr	r0, [pc, #36]	; (8002080 <HAL_InitTick+0xa4>)
 800205a:	f003 f885 	bl	8005168 <HAL_TIM_Base_Init>
 800205e:	4603      	mov	r3, r0
 8002060:	2b00      	cmp	r3, #0
 8002062:	d104      	bne.n	800206e <HAL_InitTick+0x92>
  {
    /* Start the TIM time Base generation in interrupt mode */
    return HAL_TIM_Base_Start_IT(&htim1);
 8002064:	4806      	ldr	r0, [pc, #24]	; (8002080 <HAL_InitTick+0xa4>)
 8002066:	f003 f8b3 	bl	80051d0 <HAL_TIM_Base_Start_IT>
 800206a:	4603      	mov	r3, r0
 800206c:	e000      	b.n	8002070 <HAL_InitTick+0x94>
  }

  /* Return function status */
  return HAL_ERROR;
 800206e:	2301      	movs	r3, #1
}
 8002070:	4618      	mov	r0, r3
 8002072:	3730      	adds	r7, #48	; 0x30
 8002074:	46bd      	mov	sp, r7
 8002076:	bd80      	pop	{r7, pc}
 8002078:	40021000 	.word	0x40021000
 800207c:	431bde83 	.word	0x431bde83
 8002080:	200022c8 	.word	0x200022c8
 8002084:	40012c00 	.word	0x40012c00

08002088 <NMI_Handler>:
/******************************************************************************/
/**
  * @brief This function handles Non maskable interrupt.
  */
void NMI_Handler(void)
{
 8002088:	b480      	push	{r7}
 800208a:	af00      	add	r7, sp, #0

  /* USER CODE END NonMaskableInt_IRQn 0 */
  /* USER CODE BEGIN NonMaskableInt_IRQn 1 */

  /* USER CODE END NonMaskableInt_IRQn 1 */
}
 800208c:	bf00      	nop
 800208e:	46bd      	mov	sp, r7
 8002090:	bc80      	pop	{r7}
 8002092:	4770      	bx	lr

08002094 <HardFault_Handler>:

/**
  * @brief This function handles Hard fault interrupt.
  */
void HardFault_Handler(void)
{
 8002094:	b480      	push	{r7}
 8002096:	af00      	add	r7, sp, #0
  /* USER CODE BEGIN HardFault_IRQn 0 */

  /* USER CODE END HardFault_IRQn 0 */
  while (1)
 8002098:	e7fe      	b.n	8002098 <HardFault_Handler+0x4>

0800209a <MemManage_Handler>:

/**
  * @brief This function handles Memory management fault.
  */
void MemManage_Handler(void)
{
 800209a:	b480      	push	{r7}
 800209c:	af00      	add	r7, sp, #0
  /* USER CODE BEGIN MemoryManagement_IRQn 0 */

  /* USER CODE END MemoryManagement_IRQn 0 */
  while (1)
 800209e:	e7fe      	b.n	800209e <MemManage_Handler+0x4>

080020a0 <BusFault_Handler>:

/**
  * @brief This function handles Prefetch fault, memory access fault.
  */
void BusFault_Handler(void)
{
 80020a0:	b480      	push	{r7}
 80020a2:	af00      	add	r7, sp, #0
  /* USER CODE BEGIN BusFault_IRQn 0 */

  /* USER CODE END BusFault_IRQn 0 */
  while (1)
 80020a4:	e7fe      	b.n	80020a4 <BusFault_Handler+0x4>

080020a6 <UsageFault_Handler>:

/**
  * @brief This function handles Undefined instruction or illegal state.
  */
void UsageFault_Handler(void)
{
 80020a6:	b480      	push	{r7}
 80020a8:	af00      	add	r7, sp, #0
  /* USER CODE BEGIN UsageFault_IRQn 0 */

  /* USER CODE END UsageFault_IRQn 0 */
  while (1)
 80020aa:	e7fe      	b.n	80020aa <UsageFault_Handler+0x4>

080020ac <DebugMon_Handler>:

/**
  * @brief This function handles Debug monitor.
  */
void DebugMon_Handler(void)
{
 80020ac:	b480      	push	{r7}
 80020ae:	af00      	add	r7, sp, #0

  /* USER CODE END DebugMonitor_IRQn 0 */
  /* USER CODE BEGIN DebugMonitor_IRQn 1 */

  /* USER CODE END DebugMonitor_IRQn 1 */
}
 80020b0:	bf00      	nop
 80020b2:	46bd      	mov	sp, r7
 80020b4:	bc80      	pop	{r7}
 80020b6:	4770      	bx	lr

080020b8 <DMA1_Channel1_IRQHandler>:

/**
  * @brief This function handles DMA1 channel1 global interrupt.
  */
void DMA1_Channel1_IRQHandler(void)
{
 80020b8:	b580      	push	{r7, lr}
 80020ba:	af00      	add	r7, sp, #0
  /* USER CODE BEGIN DMA1_Channel1_IRQn 0 */

  /* USER CODE END DMA1_Channel1_IRQn 0 */
  HAL_DMA_IRQHandler(&hdma_adc1);
 80020bc:	4802      	ldr	r0, [pc, #8]	; (80020c8 <DMA1_Channel1_IRQHandler+0x10>)
 80020be:	f001 fb43 	bl	8003748 <HAL_DMA_IRQHandler>
  /* USER CODE BEGIN DMA1_Channel1_IRQn 1 */

  /* USER CODE END DMA1_Channel1_IRQn 1 */
}
 80020c2:	bf00      	nop
 80020c4:	bd80      	pop	{r7, pc}
 80020c6:	bf00      	nop
 80020c8:	20002278 	.word	0x20002278

080020cc <USB_HP_CAN1_TX_IRQHandler>:

/**
  * @brief This function handles USB high priority or CAN TX interrupts.
  */
void USB_HP_CAN1_TX_IRQHandler(void)
{
 80020cc:	b580      	push	{r7, lr}
 80020ce:	af00      	add	r7, sp, #0
  /* USER CODE BEGIN USB_HP_CAN1_TX_IRQn 0 */

  /* USER CODE END USB_HP_CAN1_TX_IRQn 0 */
  HAL_CAN_IRQHandler(&hcan);
 80020d0:	4802      	ldr	r0, [pc, #8]	; (80020dc <USB_HP_CAN1_TX_IRQHandler+0x10>)
 80020d2:	f000 ff78 	bl	8002fc6 <HAL_CAN_IRQHandler>
  /* USER CODE BEGIN USB_HP_CAN1_TX_IRQn 1 */

  /* USER CODE END USB_HP_CAN1_TX_IRQn 1 */
}
 80020d6:	bf00      	nop
 80020d8:	bd80      	pop	{r7, pc}
 80020da:	bf00      	nop
 80020dc:	20002214 	.word	0x20002214

080020e0 <USB_LP_CAN1_RX0_IRQHandler>:

/**
  * @brief This function handles USB low priority or CAN RX0 interrupts.
  */
void USB_LP_CAN1_RX0_IRQHandler(void)
{
 80020e0:	b580      	push	{r7, lr}
 80020e2:	af00      	add	r7, sp, #0
  /* USER CODE BEGIN USB_LP_CAN1_RX0_IRQn 0 */

  /* USER CODE END USB_LP_CAN1_RX0_IRQn 0 */
  HAL_CAN_IRQHandler(&hcan);
 80020e4:	4802      	ldr	r0, [pc, #8]	; (80020f0 <USB_LP_CAN1_RX0_IRQHandler+0x10>)
 80020e6:	f000 ff6e 	bl	8002fc6 <HAL_CAN_IRQHandler>
  /* USER CODE BEGIN USB_LP_CAN1_RX0_IRQn 1 */

  /* USER CODE END USB_LP_CAN1_RX0_IRQn 1 */
}
 80020ea:	bf00      	nop
 80020ec:	bd80      	pop	{r7, pc}
 80020ee:	bf00      	nop
 80020f0:	20002214 	.word	0x20002214

080020f4 <CAN1_RX1_IRQHandler>:

/**
  * @brief This function handles CAN RX1 interrupt.
  */
void CAN1_RX1_IRQHandler(void)
{
 80020f4:	b580      	push	{r7, lr}
 80020f6:	af00      	add	r7, sp, #0
  /* USER CODE BEGIN CAN1_RX1_IRQn 0 */

  /* USER CODE END CAN1_RX1_IRQn 0 */
  HAL_CAN_IRQHandler(&hcan);
 80020f8:	4802      	ldr	r0, [pc, #8]	; (8002104 <CAN1_RX1_IRQHandler+0x10>)
 80020fa:	f000 ff64 	bl	8002fc6 <HAL_CAN_IRQHandler>
  /* USER CODE BEGIN CAN1_RX1_IRQn 1 */

  /* USER CODE END CAN1_RX1_IRQn 1 */
}
 80020fe:	bf00      	nop
 8002100:	bd80      	pop	{r7, pc}
 8002102:	bf00      	nop
 8002104:	20002214 	.word	0x20002214

08002108 <CAN1_SCE_IRQHandler>:

/**
  * @brief This function handles CAN SCE interrupt.
  */
void CAN1_SCE_IRQHandler(void)
{
 8002108:	b580      	push	{r7, lr}
 800210a:	af00      	add	r7, sp, #0
  /* USER CODE BEGIN CAN1_SCE_IRQn 0 */

  /* USER CODE END CAN1_SCE_IRQn 0 */
  HAL_CAN_IRQHandler(&hcan);
 800210c:	4802      	ldr	r0, [pc, #8]	; (8002118 <CAN1_SCE_IRQHandler+0x10>)
 800210e:	f000 ff5a 	bl	8002fc6 <HAL_CAN_IRQHandler>
  /* USER CODE BEGIN CAN1_SCE_IRQn 1 */

  /* USER CODE END CAN1_SCE_IRQn 1 */
}
 8002112:	bf00      	nop
 8002114:	bd80      	pop	{r7, pc}
 8002116:	bf00      	nop
 8002118:	20002214 	.word	0x20002214

0800211c <TIM1_UP_IRQHandler>:

/**
  * @brief This function handles TIM1 update interrupt.
  */
void TIM1_UP_IRQHandler(void)
{
 800211c:	b580      	push	{r7, lr}
 800211e:	af00      	add	r7, sp, #0
  /* USER CODE BEGIN TIM1_UP_IRQn 0 */

  /* USER CODE END TIM1_UP_IRQn 0 */
  HAL_TIM_IRQHandler(&htim1);
 8002120:	4802      	ldr	r0, [pc, #8]	; (800212c <TIM1_UP_IRQHandler+0x10>)
 8002122:	f003 f878 	bl	8005216 <HAL_TIM_IRQHandler>
  /* USER CODE BEGIN TIM1_UP_IRQn 1 */

  /* USER CODE END TIM1_UP_IRQn 1 */
}
 8002126:	bf00      	nop
 8002128:	bd80      	pop	{r7, pc}
 800212a:	bf00      	nop
 800212c:	200022c8 	.word	0x200022c8

08002130 <SystemInit>:
  * @note   This function should be used only after reset.
  * @param  None
  * @retval None
  */
void SystemInit (void)
{
 8002130:	b480      	push	{r7}
 8002132:	af00      	add	r7, sp, #0
  /* Reset the RCC clock configuration to the default reset state(for debug purpose) */
  /* Set HSION bit */
  RCC->CR |= 0x00000001U;
 8002134:	4b15      	ldr	r3, [pc, #84]	; (800218c <SystemInit+0x5c>)
 8002136:	681b      	ldr	r3, [r3, #0]
 8002138:	4a14      	ldr	r2, [pc, #80]	; (800218c <SystemInit+0x5c>)
 800213a:	f043 0301 	orr.w	r3, r3, #1
 800213e:	6013      	str	r3, [r2, #0]

  /* Reset SW, HPRE, PPRE1, PPRE2, ADCPRE and MCO bits */
#if !defined(STM32F105xC) && !defined(STM32F107xC)
  RCC->CFGR &= 0xF8FF0000U;
 8002140:	4b12      	ldr	r3, [pc, #72]	; (800218c <SystemInit+0x5c>)
 8002142:	685a      	ldr	r2, [r3, #4]
 8002144:	4911      	ldr	r1, [pc, #68]	; (800218c <SystemInit+0x5c>)
 8002146:	4b12      	ldr	r3, [pc, #72]	; (8002190 <SystemInit+0x60>)
 8002148:	4013      	ands	r3, r2
 800214a:	604b      	str	r3, [r1, #4]
#else
  RCC->CFGR &= 0xF0FF0000U;
#endif /* STM32F105xC */   
  
  /* Reset HSEON, CSSON and PLLON bits */
  RCC->CR &= 0xFEF6FFFFU;
 800214c:	4b0f      	ldr	r3, [pc, #60]	; (800218c <SystemInit+0x5c>)
 800214e:	681b      	ldr	r3, [r3, #0]
 8002150:	4a0e      	ldr	r2, [pc, #56]	; (800218c <SystemInit+0x5c>)
 8002152:	f023 7384 	bic.w	r3, r3, #17301504	; 0x1080000
 8002156:	f423 3380 	bic.w	r3, r3, #65536	; 0x10000
 800215a:	6013      	str	r3, [r2, #0]

  /* Reset HSEBYP bit */
  RCC->CR &= 0xFFFBFFFFU;
 800215c:	4b0b      	ldr	r3, [pc, #44]	; (800218c <SystemInit+0x5c>)
 800215e:	681b      	ldr	r3, [r3, #0]
 8002160:	4a0a      	ldr	r2, [pc, #40]	; (800218c <SystemInit+0x5c>)
 8002162:	f423 2380 	bic.w	r3, r3, #262144	; 0x40000
 8002166:	6013      	str	r3, [r2, #0]

  /* Reset PLLSRC, PLLXTPRE, PLLMUL and USBPRE/OTGFSPRE bits */
  RCC->CFGR &= 0xFF80FFFFU;
 8002168:	4b08      	ldr	r3, [pc, #32]	; (800218c <SystemInit+0x5c>)
 800216a:	685b      	ldr	r3, [r3, #4]
 800216c:	4a07      	ldr	r2, [pc, #28]	; (800218c <SystemInit+0x5c>)
 800216e:	f423 03fe 	bic.w	r3, r3, #8323072	; 0x7f0000
 8002172:	6053      	str	r3, [r2, #4]

  /* Reset CFGR2 register */
  RCC->CFGR2 = 0x00000000U;      
#else
  /* Disable all interrupts and clear pending bits  */
  RCC->CIR = 0x009F0000U;
 8002174:	4b05      	ldr	r3, [pc, #20]	; (800218c <SystemInit+0x5c>)
 8002176:	f44f 021f 	mov.w	r2, #10420224	; 0x9f0000
 800217a:	609a      	str	r2, [r3, #8]
#endif 

#ifdef VECT_TAB_SRAM
  SCB->VTOR = SRAM_BASE | VECT_TAB_OFFSET; /* Vector Table Relocation in Internal SRAM. */
#else
  SCB->VTOR = FLASH_BASE | VECT_TAB_OFFSET; /* Vector Table Relocation in Internal FLASH. */
 800217c:	4b05      	ldr	r3, [pc, #20]	; (8002194 <SystemInit+0x64>)
 800217e:	f04f 6200 	mov.w	r2, #134217728	; 0x8000000
 8002182:	609a      	str	r2, [r3, #8]
#endif 
}
 8002184:	bf00      	nop
 8002186:	46bd      	mov	sp, r7
 8002188:	bc80      	pop	{r7}
 800218a:	4770      	bx	lr
 800218c:	40021000 	.word	0x40021000
 8002190:	f8ff0000 	.word	0xf8ff0000
 8002194:	e000ed00 	.word	0xe000ed00

08002198 <HAL_Init>:
  *         need to ensure that the SysTick time base is always set to 1 millisecond
  *         to have correct HAL operation.
  * @retval HAL status
  */
HAL_StatusTypeDef HAL_Init(void)
{
 8002198:	b580      	push	{r7, lr}
 800219a:	af00      	add	r7, sp, #0
    defined(STM32F102x6) || defined(STM32F102xB) || \
    defined(STM32F103x6) || defined(STM32F103xB) || defined(STM32F103xE) || defined(STM32F103xG) || \
    defined(STM32F105xC) || defined(STM32F107xC)

  /* Prefetch buffer is not available on value line devices */
  __HAL_FLASH_PREFETCH_BUFFER_ENABLE();
 800219c:	4b08      	ldr	r3, [pc, #32]	; (80021c0 <HAL_Init+0x28>)
 800219e:	681b      	ldr	r3, [r3, #0]
 80021a0:	4a07      	ldr	r2, [pc, #28]	; (80021c0 <HAL_Init+0x28>)
 80021a2:	f043 0310 	orr.w	r3, r3, #16
 80021a6:	6013      	str	r3, [r2, #0]
#endif
#endif /* PREFETCH_ENABLE */

  /* Set Interrupt Group Priority */
  HAL_NVIC_SetPriorityGrouping(NVIC_PRIORITYGROUP_4);
 80021a8:	2003      	movs	r0, #3
 80021aa:	f001 f9dd 	bl	8003568 <HAL_NVIC_SetPriorityGrouping>

  /* Use systick as time base source and configure 1ms tick (default clock after Reset is HSI) */
  HAL_InitTick(TICK_INT_PRIORITY);
 80021ae:	2000      	movs	r0, #0
 80021b0:	f7ff ff14 	bl	8001fdc <HAL_InitTick>

  /* Init the low level hardware */
  HAL_MspInit();
 80021b4:	f7ff fd98 	bl	8001ce8 <HAL_MspInit>

  /* Return function status */
  return HAL_OK;
 80021b8:	2300      	movs	r3, #0
}
 80021ba:	4618      	mov	r0, r3
 80021bc:	bd80      	pop	{r7, pc}
 80021be:	bf00      	nop
 80021c0:	40022000 	.word	0x40022000

080021c4 <HAL_IncTick>:
  * @note This function is declared as __weak to be overwritten in case of other
  *      implementations in user file.
  * @retval None
  */
__weak void HAL_IncTick(void)
{
 80021c4:	b480      	push	{r7}
 80021c6:	af00      	add	r7, sp, #0
  uwTick += uwTickFreq;
 80021c8:	4b05      	ldr	r3, [pc, #20]	; (80021e0 <HAL_IncTick+0x1c>)
 80021ca:	781b      	ldrb	r3, [r3, #0]
 80021cc:	461a      	mov	r2, r3
 80021ce:	4b05      	ldr	r3, [pc, #20]	; (80021e4 <HAL_IncTick+0x20>)
 80021d0:	681b      	ldr	r3, [r3, #0]
 80021d2:	4413      	add	r3, r2
 80021d4:	4a03      	ldr	r2, [pc, #12]	; (80021e4 <HAL_IncTick+0x20>)
 80021d6:	6013      	str	r3, [r2, #0]
}
 80021d8:	bf00      	nop
 80021da:	46bd      	mov	sp, r7
 80021dc:	bc80      	pop	{r7}
 80021de:	4770      	bx	lr
 80021e0:	20000008 	.word	0x20000008
 80021e4:	20002308 	.word	0x20002308

080021e8 <HAL_GetTick>:
  * @note  This function is declared as __weak to be overwritten in case of other
  *       implementations in user file.
  * @retval tick value
  */
__weak uint32_t HAL_GetTick(void)
{
 80021e8:	b480      	push	{r7}
 80021ea:	af00      	add	r7, sp, #0
  return uwTick;
 80021ec:	4b02      	ldr	r3, [pc, #8]	; (80021f8 <HAL_GetTick+0x10>)
 80021ee:	681b      	ldr	r3, [r3, #0]
}
 80021f0:	4618      	mov	r0, r3
 80021f2:	46bd      	mov	sp, r7
 80021f4:	bc80      	pop	{r7}
 80021f6:	4770      	bx	lr
 80021f8:	20002308 	.word	0x20002308

080021fc <HAL_Delay>:
  *       implementations in user file.
  * @param Delay specifies the delay time length, in milliseconds.
  * @retval None
  */
__weak void HAL_Delay(uint32_t Delay)
{
 80021fc:	b580      	push	{r7, lr}
 80021fe:	b084      	sub	sp, #16
 8002200:	af00      	add	r7, sp, #0
 8002202:	6078      	str	r0, [r7, #4]
  uint32_t tickstart = HAL_GetTick();
 8002204:	f7ff fff0 	bl	80021e8 <HAL_GetTick>
 8002208:	60b8      	str	r0, [r7, #8]
  uint32_t wait = Delay;
 800220a:	687b      	ldr	r3, [r7, #4]
 800220c:	60fb      	str	r3, [r7, #12]

  /* Add a freq to guarantee minimum wait */
  if (wait < HAL_MAX_DELAY)
 800220e:	68fb      	ldr	r3, [r7, #12]
 8002210:	f1b3 3fff 	cmp.w	r3, #4294967295
 8002214:	d005      	beq.n	8002222 <HAL_Delay+0x26>
  {
    wait += (uint32_t)(uwTickFreq);
 8002216:	4b09      	ldr	r3, [pc, #36]	; (800223c <HAL_Delay+0x40>)
 8002218:	781b      	ldrb	r3, [r3, #0]
 800221a:	461a      	mov	r2, r3
 800221c:	68fb      	ldr	r3, [r7, #12]
 800221e:	4413      	add	r3, r2
 8002220:	60fb      	str	r3, [r7, #12]
  }

  while ((HAL_GetTick() - tickstart) < wait)
 8002222:	bf00      	nop
 8002224:	f7ff ffe0 	bl	80021e8 <HAL_GetTick>
 8002228:	4602      	mov	r2, r0
 800222a:	68bb      	ldr	r3, [r7, #8]
 800222c:	1ad3      	subs	r3, r2, r3
 800222e:	68fa      	ldr	r2, [r7, #12]
 8002230:	429a      	cmp	r2, r3
 8002232:	d8f7      	bhi.n	8002224 <HAL_Delay+0x28>
  {
  }
}
 8002234:	bf00      	nop
 8002236:	3710      	adds	r7, #16
 8002238:	46bd      	mov	sp, r7
 800223a:	bd80      	pop	{r7, pc}
 800223c:	20000008 	.word	0x20000008

08002240 <HAL_ADC_Init>:
  *         of structure "ADC_InitTypeDef".
  * @param  hadc: ADC handle
  * @retval HAL status
  */
HAL_StatusTypeDef HAL_ADC_Init(ADC_HandleTypeDef* hadc)
{
 8002240:	b580      	push	{r7, lr}
 8002242:	b086      	sub	sp, #24
 8002244:	af00      	add	r7, sp, #0
 8002246:	6078      	str	r0, [r7, #4]
  HAL_StatusTypeDef tmp_hal_status = HAL_OK;
 8002248:	2300      	movs	r3, #0
 800224a:	75fb      	strb	r3, [r7, #23]
  uint32_t tmp_cr1 = 0U;
 800224c:	2300      	movs	r3, #0
 800224e:	613b      	str	r3, [r7, #16]
  uint32_t tmp_cr2 = 0U;
 8002250:	2300      	movs	r3, #0
 8002252:	60bb      	str	r3, [r7, #8]
  uint32_t tmp_sqr1 = 0U;
 8002254:	2300      	movs	r3, #0
 8002256:	60fb      	str	r3, [r7, #12]
  
  /* Check ADC handle */
  if(hadc == NULL)
 8002258:	687b      	ldr	r3, [r7, #4]
 800225a:	2b00      	cmp	r3, #0
 800225c:	d101      	bne.n	8002262 <HAL_ADC_Init+0x22>
  {
    return HAL_ERROR;
 800225e:	2301      	movs	r3, #1
 8002260:	e0be      	b.n	80023e0 <HAL_ADC_Init+0x1a0>
  assert_param(IS_ADC_DATA_ALIGN(hadc->Init.DataAlign));
  assert_param(IS_ADC_SCAN_MODE(hadc->Init.ScanConvMode));
  assert_param(IS_FUNCTIONAL_STATE(hadc->Init.ContinuousConvMode));
  assert_param(IS_ADC_EXTTRIG(hadc->Init.ExternalTrigConv));
  
  if(hadc->Init.ScanConvMode != ADC_SCAN_DISABLE)
 8002262:	687b      	ldr	r3, [r7, #4]
 8002264:	689b      	ldr	r3, [r3, #8]
 8002266:	2b00      	cmp	r3, #0
  /* Refer to header of this file for more details on clock enabling          */
  /* procedure.                                                               */

  /* Actions performed only if ADC is coming from state reset:                */
  /* - Initialization of ADC MSP                                              */
  if (hadc->State == HAL_ADC_STATE_RESET)
 8002268:	687b      	ldr	r3, [r7, #4]
 800226a:	6a9b      	ldr	r3, [r3, #40]	; 0x28
 800226c:	2b00      	cmp	r3, #0
 800226e:	d109      	bne.n	8002284 <HAL_ADC_Init+0x44>
  {
    /* Initialize ADC error code */
    ADC_CLEAR_ERRORCODE(hadc);
 8002270:	687b      	ldr	r3, [r7, #4]
 8002272:	2200      	movs	r2, #0
 8002274:	62da      	str	r2, [r3, #44]	; 0x2c
    
    /* Allocate lock resource and initialize it */
    hadc->Lock = HAL_UNLOCKED;
 8002276:	687b      	ldr	r3, [r7, #4]
 8002278:	2200      	movs	r2, #0
 800227a:	f883 2024 	strb.w	r2, [r3, #36]	; 0x24
    
    /* Init the low level hardware */
    hadc->MspInitCallback(hadc);
#else
    /* Init the low level hardware */
    HAL_ADC_MspInit(hadc);
 800227e:	6878      	ldr	r0, [r7, #4]
 8002280:	f7ff fdac 	bl	8001ddc <HAL_ADC_MspInit>
  /* Stop potential conversion on going, on regular and injected groups */
  /* Disable ADC peripheral */
  /* Note: In case of ADC already enabled, precaution to not launch an        */
  /*       unwanted conversion while modifying register CR2 by writing 1 to   */
  /*       bit ADON.                                                          */
  tmp_hal_status = ADC_ConversionStop_Disable(hadc);
 8002284:	6878      	ldr	r0, [r7, #4]
 8002286:	f000 faf7 	bl	8002878 <ADC_ConversionStop_Disable>
 800228a:	4603      	mov	r3, r0
 800228c:	75fb      	strb	r3, [r7, #23]
  
  
  /* Configuration of ADC parameters if previous preliminary actions are      */ 
  /* correctly completed.                                                     */
  if (HAL_IS_BIT_CLR(hadc->State, HAL_ADC_STATE_ERROR_INTERNAL) &&
 800228e:	687b      	ldr	r3, [r7, #4]
 8002290:	6a9b      	ldr	r3, [r3, #40]	; 0x28
 8002292:	f003 0310 	and.w	r3, r3, #16
 8002296:	2b00      	cmp	r3, #0
 8002298:	f040 8099 	bne.w	80023ce <HAL_ADC_Init+0x18e>
 800229c:	7dfb      	ldrb	r3, [r7, #23]
 800229e:	2b00      	cmp	r3, #0
 80022a0:	f040 8095 	bne.w	80023ce <HAL_ADC_Init+0x18e>
      (tmp_hal_status == HAL_OK)                                  )
  {
    /* Set ADC state */
    ADC_STATE_CLR_SET(hadc->State,
 80022a4:	687b      	ldr	r3, [r7, #4]
 80022a6:	6a9b      	ldr	r3, [r3, #40]	; 0x28
 80022a8:	f423 5388 	bic.w	r3, r3, #4352	; 0x1100
 80022ac:	f023 0302 	bic.w	r3, r3, #2
 80022b0:	f043 0202 	orr.w	r2, r3, #2
 80022b4:	687b      	ldr	r3, [r7, #4]
 80022b6:	629a      	str	r2, [r3, #40]	; 0x28
    /*  - continuous conversion mode                                          */
    /* Note: External trigger polarity (ADC_CR2_EXTTRIG) is set into          */
    /*       HAL_ADC_Start_xxx functions because if set in this function,     */
    /*       a conversion on injected group would start a conversion also on  */
    /*       regular group after ADC enabling.                                */
    tmp_cr2 |= (hadc->Init.DataAlign                                          |
 80022b8:	687b      	ldr	r3, [r7, #4]
 80022ba:	685a      	ldr	r2, [r3, #4]
                ADC_CFGR_EXTSEL(hadc, hadc->Init.ExternalTrigConv)            |
 80022bc:	687b      	ldr	r3, [r7, #4]
 80022be:	69db      	ldr	r3, [r3, #28]
    tmp_cr2 |= (hadc->Init.DataAlign                                          |
 80022c0:	431a      	orrs	r2, r3
                ADC_CR2_CONTINUOUS((uint32_t)hadc->Init.ContinuousConvMode)   );
 80022c2:	687b      	ldr	r3, [r7, #4]
 80022c4:	7b1b      	ldrb	r3, [r3, #12]
 80022c6:	005b      	lsls	r3, r3, #1
                ADC_CFGR_EXTSEL(hadc, hadc->Init.ExternalTrigConv)            |
 80022c8:	4313      	orrs	r3, r2
    tmp_cr2 |= (hadc->Init.DataAlign                                          |
 80022ca:	68ba      	ldr	r2, [r7, #8]
 80022cc:	4313      	orrs	r3, r2
 80022ce:	60bb      	str	r3, [r7, #8]

    /* Configuration of ADC:                                                  */
    /*  - scan mode                                                           */
    /*  - discontinuous mode disable/enable                                   */
    /*  - discontinuous mode number of conversions                            */
    tmp_cr1 |= (ADC_CR1_SCAN_SET(hadc->Init.ScanConvMode));
 80022d0:	687b      	ldr	r3, [r7, #4]
 80022d2:	689b      	ldr	r3, [r3, #8]
 80022d4:	f5b3 7f80 	cmp.w	r3, #256	; 0x100
 80022d8:	d003      	beq.n	80022e2 <HAL_ADC_Init+0xa2>
 80022da:	687b      	ldr	r3, [r7, #4]
 80022dc:	689b      	ldr	r3, [r3, #8]
 80022de:	2b01      	cmp	r3, #1
 80022e0:	d102      	bne.n	80022e8 <HAL_ADC_Init+0xa8>
 80022e2:	f44f 7380 	mov.w	r3, #256	; 0x100
 80022e6:	e000      	b.n	80022ea <HAL_ADC_Init+0xaa>
 80022e8:	2300      	movs	r3, #0
 80022ea:	693a      	ldr	r2, [r7, #16]
 80022ec:	4313      	orrs	r3, r2
 80022ee:	613b      	str	r3, [r7, #16]
    
    /* Enable discontinuous mode only if continuous mode is disabled */
    /* Note: If parameter "Init.ScanConvMode" is set to disable, parameter    */
    /*       discontinuous is set anyway, but will have no effect on ADC HW.  */
    if (hadc->Init.DiscontinuousConvMode == ENABLE)
 80022f0:	687b      	ldr	r3, [r7, #4]
 80022f2:	7d1b      	ldrb	r3, [r3, #20]
 80022f4:	2b01      	cmp	r3, #1
 80022f6:	d119      	bne.n	800232c <HAL_ADC_Init+0xec>
    {
      if (hadc->Init.ContinuousConvMode == DISABLE)
 80022f8:	687b      	ldr	r3, [r7, #4]
 80022fa:	7b1b      	ldrb	r3, [r3, #12]
 80022fc:	2b00      	cmp	r3, #0
 80022fe:	d109      	bne.n	8002314 <HAL_ADC_Init+0xd4>
      {
        /* Enable the selected ADC regular discontinuous mode */
        /* Set the number of channels to be converted in discontinuous mode */
        SET_BIT(tmp_cr1, ADC_CR1_DISCEN                                            |
 8002300:	687b      	ldr	r3, [r7, #4]
 8002302:	699b      	ldr	r3, [r3, #24]
 8002304:	3b01      	subs	r3, #1
 8002306:	035a      	lsls	r2, r3, #13
 8002308:	693b      	ldr	r3, [r7, #16]
 800230a:	4313      	orrs	r3, r2
 800230c:	f443 6300 	orr.w	r3, r3, #2048	; 0x800
 8002310:	613b      	str	r3, [r7, #16]
 8002312:	e00b      	b.n	800232c <HAL_ADC_Init+0xec>
      {
        /* ADC regular group settings continuous and sequencer discontinuous*/
        /* cannot be enabled simultaneously.                                */
        
        /* Update ADC state machine to error */
        SET_BIT(hadc->State, HAL_ADC_STATE_ERROR_CONFIG);
 8002314:	687b      	ldr	r3, [r7, #4]
 8002316:	6a9b      	ldr	r3, [r3, #40]	; 0x28
 8002318:	f043 0220 	orr.w	r2, r3, #32
 800231c:	687b      	ldr	r3, [r7, #4]
 800231e:	629a      	str	r2, [r3, #40]	; 0x28
        
        /* Set ADC error code to ADC IP internal error */
        SET_BIT(hadc->ErrorCode, HAL_ADC_ERROR_INTERNAL);
 8002320:	687b      	ldr	r3, [r7, #4]
 8002322:	6adb      	ldr	r3, [r3, #44]	; 0x2c
 8002324:	f043 0201 	orr.w	r2, r3, #1
 8002328:	687b      	ldr	r3, [r7, #4]
 800232a:	62da      	str	r2, [r3, #44]	; 0x2c
      }
    }
    
    /* Update ADC configuration register CR1 with previous settings */
      MODIFY_REG(hadc->Instance->CR1,
 800232c:	687b      	ldr	r3, [r7, #4]
 800232e:	681b      	ldr	r3, [r3, #0]
 8002330:	685b      	ldr	r3, [r3, #4]
 8002332:	f423 4169 	bic.w	r1, r3, #59648	; 0xe900
 8002336:	687b      	ldr	r3, [r7, #4]
 8002338:	681b      	ldr	r3, [r3, #0]
 800233a:	693a      	ldr	r2, [r7, #16]
 800233c:	430a      	orrs	r2, r1
 800233e:	605a      	str	r2, [r3, #4]
                 ADC_CR1_DISCEN  |
                 ADC_CR1_DISCNUM    ,
                 tmp_cr1             );
    
    /* Update ADC configuration register CR2 with previous settings */
      MODIFY_REG(hadc->Instance->CR2,
 8002340:	687b      	ldr	r3, [r7, #4]
 8002342:	681b      	ldr	r3, [r3, #0]
 8002344:	689a      	ldr	r2, [r3, #8]
 8002346:	4b28      	ldr	r3, [pc, #160]	; (80023e8 <HAL_ADC_Init+0x1a8>)
 8002348:	4013      	ands	r3, r2
 800234a:	687a      	ldr	r2, [r7, #4]
 800234c:	6812      	ldr	r2, [r2, #0]
 800234e:	68b9      	ldr	r1, [r7, #8]
 8002350:	430b      	orrs	r3, r1
 8002352:	6093      	str	r3, [r2, #8]
    /*   Note: Scan mode is present by hardware on this device and, if        */
    /*   disabled, discards automatically nb of conversions. Anyway, nb of    */
    /*   conversions is forced to 0x00 for alignment over all STM32 devices.  */
    /* - if scan mode is enabled, regular channels sequence length is set to  */
    /*   parameter "NbrOfConversion"                                          */
    if (ADC_CR1_SCAN_SET(hadc->Init.ScanConvMode) == ADC_SCAN_ENABLE)
 8002354:	687b      	ldr	r3, [r7, #4]
 8002356:	689b      	ldr	r3, [r3, #8]
 8002358:	f5b3 7f80 	cmp.w	r3, #256	; 0x100
 800235c:	d003      	beq.n	8002366 <HAL_ADC_Init+0x126>
 800235e:	687b      	ldr	r3, [r7, #4]
 8002360:	689b      	ldr	r3, [r3, #8]
 8002362:	2b01      	cmp	r3, #1
 8002364:	d104      	bne.n	8002370 <HAL_ADC_Init+0x130>
    {
      tmp_sqr1 = ADC_SQR1_L_SHIFT(hadc->Init.NbrOfConversion);
 8002366:	687b      	ldr	r3, [r7, #4]
 8002368:	691b      	ldr	r3, [r3, #16]
 800236a:	3b01      	subs	r3, #1
 800236c:	051b      	lsls	r3, r3, #20
 800236e:	60fb      	str	r3, [r7, #12]
    }
      
    MODIFY_REG(hadc->Instance->SQR1,
 8002370:	687b      	ldr	r3, [r7, #4]
 8002372:	681b      	ldr	r3, [r3, #0]
 8002374:	6adb      	ldr	r3, [r3, #44]	; 0x2c
 8002376:	f423 0170 	bic.w	r1, r3, #15728640	; 0xf00000
 800237a:	687b      	ldr	r3, [r7, #4]
 800237c:	681b      	ldr	r3, [r3, #0]
 800237e:	68fa      	ldr	r2, [r7, #12]
 8002380:	430a      	orrs	r2, r1
 8002382:	62da      	str	r2, [r3, #44]	; 0x2c
    /* ensure of no potential problem of ADC core IP clocking.                */
    /* Check through register CR2 (excluding bits set in other functions:     */
    /* execution control bits (ADON, JSWSTART, SWSTART), regular group bits   */
    /* (DMA), injected group bits (JEXTTRIG and JEXTSEL), channel internal    */
    /* measurement path bit (TSVREFE).                                        */
    if (READ_BIT(hadc->Instance->CR2, ~(ADC_CR2_ADON | ADC_CR2_DMA |
 8002384:	687b      	ldr	r3, [r7, #4]
 8002386:	681b      	ldr	r3, [r3, #0]
 8002388:	689a      	ldr	r2, [r3, #8]
 800238a:	4b18      	ldr	r3, [pc, #96]	; (80023ec <HAL_ADC_Init+0x1ac>)
 800238c:	4013      	ands	r3, r2
 800238e:	68ba      	ldr	r2, [r7, #8]
 8002390:	429a      	cmp	r2, r3
 8002392:	d10b      	bne.n	80023ac <HAL_ADC_Init+0x16c>
                                        ADC_CR2_JEXTTRIG | ADC_CR2_JEXTSEL |
                                        ADC_CR2_TSVREFE                     ))
         == tmp_cr2)
    {
      /* Set ADC error code to none */
      ADC_CLEAR_ERRORCODE(hadc);
 8002394:	687b      	ldr	r3, [r7, #4]
 8002396:	2200      	movs	r2, #0
 8002398:	62da      	str	r2, [r3, #44]	; 0x2c
      
      /* Set the ADC state */
      ADC_STATE_CLR_SET(hadc->State,
 800239a:	687b      	ldr	r3, [r7, #4]
 800239c:	6a9b      	ldr	r3, [r3, #40]	; 0x28
 800239e:	f023 0303 	bic.w	r3, r3, #3
 80023a2:	f043 0201 	orr.w	r2, r3, #1
 80023a6:	687b      	ldr	r3, [r7, #4]
 80023a8:	629a      	str	r2, [r3, #40]	; 0x28
    if (READ_BIT(hadc->Instance->CR2, ~(ADC_CR2_ADON | ADC_CR2_DMA |
 80023aa:	e018      	b.n	80023de <HAL_ADC_Init+0x19e>
                        HAL_ADC_STATE_READY);
    }
    else
    {
      /* Update ADC state machine to error */
      ADC_STATE_CLR_SET(hadc->State,
 80023ac:	687b      	ldr	r3, [r7, #4]
 80023ae:	6a9b      	ldr	r3, [r3, #40]	; 0x28
 80023b0:	f023 0312 	bic.w	r3, r3, #18
 80023b4:	f043 0210 	orr.w	r2, r3, #16
 80023b8:	687b      	ldr	r3, [r7, #4]
 80023ba:	629a      	str	r2, [r3, #40]	; 0x28
                        HAL_ADC_STATE_BUSY_INTERNAL,
                        HAL_ADC_STATE_ERROR_INTERNAL);
      
      /* Set ADC error code to ADC IP internal error */
      SET_BIT(hadc->ErrorCode, HAL_ADC_ERROR_INTERNAL);
 80023bc:	687b      	ldr	r3, [r7, #4]
 80023be:	6adb      	ldr	r3, [r3, #44]	; 0x2c
 80023c0:	f043 0201 	orr.w	r2, r3, #1
 80023c4:	687b      	ldr	r3, [r7, #4]
 80023c6:	62da      	str	r2, [r3, #44]	; 0x2c
      
      tmp_hal_status = HAL_ERROR;
 80023c8:	2301      	movs	r3, #1
 80023ca:	75fb      	strb	r3, [r7, #23]
    if (READ_BIT(hadc->Instance->CR2, ~(ADC_CR2_ADON | ADC_CR2_DMA |
 80023cc:	e007      	b.n	80023de <HAL_ADC_Init+0x19e>
  
  }
  else
  {
    /* Update ADC state machine to error */
    SET_BIT(hadc->State, HAL_ADC_STATE_ERROR_INTERNAL);
 80023ce:	687b      	ldr	r3, [r7, #4]
 80023d0:	6a9b      	ldr	r3, [r3, #40]	; 0x28
 80023d2:	f043 0210 	orr.w	r2, r3, #16
 80023d6:	687b      	ldr	r3, [r7, #4]
 80023d8:	629a      	str	r2, [r3, #40]	; 0x28
        
    tmp_hal_status = HAL_ERROR;
 80023da:	2301      	movs	r3, #1
 80023dc:	75fb      	strb	r3, [r7, #23]
  }
  
  /* Return function status */
  return tmp_hal_status;
 80023de:	7dfb      	ldrb	r3, [r7, #23]
}
 80023e0:	4618      	mov	r0, r3
 80023e2:	3718      	adds	r7, #24
 80023e4:	46bd      	mov	sp, r7
 80023e6:	bd80      	pop	{r7, pc}
 80023e8:	ffe1f7fd 	.word	0xffe1f7fd
 80023ec:	ff1f0efe 	.word	0xff1f0efe

080023f0 <HAL_ADC_Start_DMA>:
  * @param  pData: The destination Buffer address.
  * @param  Length: The length of data to be transferred from ADC peripheral to memory.
  * @retval None
  */
HAL_StatusTypeDef HAL_ADC_Start_DMA(ADC_HandleTypeDef* hadc, uint32_t* pData, uint32_t Length)
{
 80023f0:	b580      	push	{r7, lr}
 80023f2:	b086      	sub	sp, #24
 80023f4:	af00      	add	r7, sp, #0
 80023f6:	60f8      	str	r0, [r7, #12]
 80023f8:	60b9      	str	r1, [r7, #8]
 80023fa:	607a      	str	r2, [r7, #4]
  HAL_StatusTypeDef tmp_hal_status = HAL_OK;
 80023fc:	2300      	movs	r3, #0
 80023fe:	75fb      	strb	r3, [r7, #23]
  assert_param(IS_ADC_DMA_CAPABILITY_INSTANCE(hadc->Instance));
    
  /* Verification if multimode is disabled (for devices with several ADC)     */
  /* If multimode is enabled, dedicated function multimode conversion         */
  /* start DMA must be used.                                                  */
  if(ADC_MULTIMODE_IS_ENABLE(hadc) == RESET)
 8002400:	68fb      	ldr	r3, [r7, #12]
 8002402:	681b      	ldr	r3, [r3, #0]
 8002404:	4a64      	ldr	r2, [pc, #400]	; (8002598 <HAL_ADC_Start_DMA+0x1a8>)
 8002406:	4293      	cmp	r3, r2
 8002408:	d004      	beq.n	8002414 <HAL_ADC_Start_DMA+0x24>
 800240a:	68fb      	ldr	r3, [r7, #12]
 800240c:	681b      	ldr	r3, [r3, #0]
 800240e:	4a63      	ldr	r2, [pc, #396]	; (800259c <HAL_ADC_Start_DMA+0x1ac>)
 8002410:	4293      	cmp	r3, r2
 8002412:	d106      	bne.n	8002422 <HAL_ADC_Start_DMA+0x32>
 8002414:	4b60      	ldr	r3, [pc, #384]	; (8002598 <HAL_ADC_Start_DMA+0x1a8>)
 8002416:	685b      	ldr	r3, [r3, #4]
 8002418:	f403 2370 	and.w	r3, r3, #983040	; 0xf0000
 800241c:	2b00      	cmp	r3, #0
 800241e:	f040 80b3 	bne.w	8002588 <HAL_ADC_Start_DMA+0x198>
  {
    /* Process locked */
    __HAL_LOCK(hadc);
 8002422:	68fb      	ldr	r3, [r7, #12]
 8002424:	f893 3024 	ldrb.w	r3, [r3, #36]	; 0x24
 8002428:	2b01      	cmp	r3, #1
 800242a:	d101      	bne.n	8002430 <HAL_ADC_Start_DMA+0x40>
 800242c:	2302      	movs	r3, #2
 800242e:	e0ae      	b.n	800258e <HAL_ADC_Start_DMA+0x19e>
 8002430:	68fb      	ldr	r3, [r7, #12]
 8002432:	2201      	movs	r2, #1
 8002434:	f883 2024 	strb.w	r2, [r3, #36]	; 0x24
    
    /* Enable the ADC peripheral */
    tmp_hal_status = ADC_Enable(hadc);
 8002438:	68f8      	ldr	r0, [r7, #12]
 800243a:	f000 f9cb 	bl	80027d4 <ADC_Enable>
 800243e:	4603      	mov	r3, r0
 8002440:	75fb      	strb	r3, [r7, #23]
    
    /* Start conversion if ADC is effectively enabled */
    if (tmp_hal_status == HAL_OK)
 8002442:	7dfb      	ldrb	r3, [r7, #23]
 8002444:	2b00      	cmp	r3, #0
 8002446:	f040 809a 	bne.w	800257e <HAL_ADC_Start_DMA+0x18e>
    {
      /* Set ADC state                                                        */
      /* - Clear state bitfield related to regular group conversion results   */
      /* - Set state bitfield related to regular operation                    */
      ADC_STATE_CLR_SET(hadc->State,
 800244a:	68fb      	ldr	r3, [r7, #12]
 800244c:	6a9b      	ldr	r3, [r3, #40]	; 0x28
 800244e:	f423 6370 	bic.w	r3, r3, #3840	; 0xf00
 8002452:	f023 0301 	bic.w	r3, r3, #1
 8002456:	f443 7280 	orr.w	r2, r3, #256	; 0x100
 800245a:	68fb      	ldr	r3, [r7, #12]
 800245c:	629a      	str	r2, [r3, #40]	; 0x28
                        HAL_ADC_STATE_REG_BUSY);
    
    /* Set group injected state (from auto-injection) and multimode state     */
    /* for all cases of multimode: independent mode, multimode ADC master     */
    /* or multimode ADC slave (for devices with several ADCs):                */
    if (ADC_NONMULTIMODE_OR_MULTIMODEMASTER(hadc))
 800245e:	68fb      	ldr	r3, [r7, #12]
 8002460:	681b      	ldr	r3, [r3, #0]
 8002462:	4a4e      	ldr	r2, [pc, #312]	; (800259c <HAL_ADC_Start_DMA+0x1ac>)
 8002464:	4293      	cmp	r3, r2
 8002466:	d105      	bne.n	8002474 <HAL_ADC_Start_DMA+0x84>
 8002468:	4b4b      	ldr	r3, [pc, #300]	; (8002598 <HAL_ADC_Start_DMA+0x1a8>)
 800246a:	685b      	ldr	r3, [r3, #4]
 800246c:	f403 2370 	and.w	r3, r3, #983040	; 0xf0000
 8002470:	2b00      	cmp	r3, #0
 8002472:	d115      	bne.n	80024a0 <HAL_ADC_Start_DMA+0xb0>
    {
      /* Set ADC state (ADC independent or master) */
      CLEAR_BIT(hadc->State, HAL_ADC_STATE_MULTIMODE_SLAVE);
 8002474:	68fb      	ldr	r3, [r7, #12]
 8002476:	6a9b      	ldr	r3, [r3, #40]	; 0x28
 8002478:	f423 1280 	bic.w	r2, r3, #1048576	; 0x100000
 800247c:	68fb      	ldr	r3, [r7, #12]
 800247e:	629a      	str	r2, [r3, #40]	; 0x28
      
      /* If conversions on group regular are also triggering group injected,  */
      /* update ADC state.                                                    */
      if (READ_BIT(hadc->Instance->CR1, ADC_CR1_JAUTO) != RESET)
 8002480:	68fb      	ldr	r3, [r7, #12]
 8002482:	681b      	ldr	r3, [r3, #0]
 8002484:	685b      	ldr	r3, [r3, #4]
 8002486:	f403 6380 	and.w	r3, r3, #1024	; 0x400
 800248a:	2b00      	cmp	r3, #0
 800248c:	d026      	beq.n	80024dc <HAL_ADC_Start_DMA+0xec>
      {
        ADC_STATE_CLR_SET(hadc->State, HAL_ADC_STATE_INJ_EOC, HAL_ADC_STATE_INJ_BUSY);  
 800248e:	68fb      	ldr	r3, [r7, #12]
 8002490:	6a9b      	ldr	r3, [r3, #40]	; 0x28
 8002492:	f423 5340 	bic.w	r3, r3, #12288	; 0x3000
 8002496:	f443 5280 	orr.w	r2, r3, #4096	; 0x1000
 800249a:	68fb      	ldr	r3, [r7, #12]
 800249c:	629a      	str	r2, [r3, #40]	; 0x28
      if (READ_BIT(hadc->Instance->CR1, ADC_CR1_JAUTO) != RESET)
 800249e:	e01d      	b.n	80024dc <HAL_ADC_Start_DMA+0xec>
      }
    }
    else
    {
      /* Set ADC state (ADC slave) */
      SET_BIT(hadc->State, HAL_ADC_STATE_MULTIMODE_SLAVE);
 80024a0:	68fb      	ldr	r3, [r7, #12]
 80024a2:	6a9b      	ldr	r3, [r3, #40]	; 0x28
 80024a4:	f443 1280 	orr.w	r2, r3, #1048576	; 0x100000
 80024a8:	68fb      	ldr	r3, [r7, #12]
 80024aa:	629a      	str	r2, [r3, #40]	; 0x28
      
      /* If conversions on group regular are also triggering group injected,  */
      /* update ADC state.                                                    */
      if (ADC_MULTIMODE_AUTO_INJECTED(hadc))
 80024ac:	68fb      	ldr	r3, [r7, #12]
 80024ae:	681b      	ldr	r3, [r3, #0]
 80024b0:	4a39      	ldr	r2, [pc, #228]	; (8002598 <HAL_ADC_Start_DMA+0x1a8>)
 80024b2:	4293      	cmp	r3, r2
 80024b4:	d004      	beq.n	80024c0 <HAL_ADC_Start_DMA+0xd0>
 80024b6:	68fb      	ldr	r3, [r7, #12]
 80024b8:	681b      	ldr	r3, [r3, #0]
 80024ba:	4a38      	ldr	r2, [pc, #224]	; (800259c <HAL_ADC_Start_DMA+0x1ac>)
 80024bc:	4293      	cmp	r3, r2
 80024be:	d10d      	bne.n	80024dc <HAL_ADC_Start_DMA+0xec>
 80024c0:	4b35      	ldr	r3, [pc, #212]	; (8002598 <HAL_ADC_Start_DMA+0x1a8>)
 80024c2:	685b      	ldr	r3, [r3, #4]
 80024c4:	f403 6380 	and.w	r3, r3, #1024	; 0x400
 80024c8:	2b00      	cmp	r3, #0
 80024ca:	d007      	beq.n	80024dc <HAL_ADC_Start_DMA+0xec>
      {
        ADC_STATE_CLR_SET(hadc->State, HAL_ADC_STATE_INJ_EOC, HAL_ADC_STATE_INJ_BUSY);
 80024cc:	68fb      	ldr	r3, [r7, #12]
 80024ce:	6a9b      	ldr	r3, [r3, #40]	; 0x28
 80024d0:	f423 5340 	bic.w	r3, r3, #12288	; 0x3000
 80024d4:	f443 5280 	orr.w	r2, r3, #4096	; 0x1000
 80024d8:	68fb      	ldr	r3, [r7, #12]
 80024da:	629a      	str	r2, [r3, #40]	; 0x28
      }
    }
      
      /* State machine update: Check if an injected conversion is ongoing */
      if (HAL_IS_BIT_SET(hadc->State, HAL_ADC_STATE_INJ_BUSY))
 80024dc:	68fb      	ldr	r3, [r7, #12]
 80024de:	6a9b      	ldr	r3, [r3, #40]	; 0x28
 80024e0:	f403 5380 	and.w	r3, r3, #4096	; 0x1000
 80024e4:	2b00      	cmp	r3, #0
 80024e6:	d006      	beq.n	80024f6 <HAL_ADC_Start_DMA+0x106>
      {
        /* Reset ADC error code fields related to conversions on group regular */
        CLEAR_BIT(hadc->ErrorCode, (HAL_ADC_ERROR_OVR | HAL_ADC_ERROR_DMA));         
 80024e8:	68fb      	ldr	r3, [r7, #12]
 80024ea:	6adb      	ldr	r3, [r3, #44]	; 0x2c
 80024ec:	f023 0206 	bic.w	r2, r3, #6
 80024f0:	68fb      	ldr	r3, [r7, #12]
 80024f2:	62da      	str	r2, [r3, #44]	; 0x2c
 80024f4:	e002      	b.n	80024fc <HAL_ADC_Start_DMA+0x10c>
      }
      else
      {
        /* Reset ADC all error code fields */
        ADC_CLEAR_ERRORCODE(hadc);
 80024f6:	68fb      	ldr	r3, [r7, #12]
 80024f8:	2200      	movs	r2, #0
 80024fa:	62da      	str	r2, [r3, #44]	; 0x2c
      }
      
      /* Process unlocked */
      /* Unlock before starting ADC conversions: in case of potential         */
      /* interruption, to let the process to ADC IRQ Handler.                 */
      __HAL_UNLOCK(hadc);
 80024fc:	68fb      	ldr	r3, [r7, #12]
 80024fe:	2200      	movs	r2, #0
 8002500:	f883 2024 	strb.w	r2, [r3, #36]	; 0x24
      
      /* Set the DMA transfer complete callback */
      hadc->DMA_Handle->XferCpltCallback = ADC_DMAConvCplt;
 8002504:	68fb      	ldr	r3, [r7, #12]
 8002506:	6a1b      	ldr	r3, [r3, #32]
 8002508:	4a25      	ldr	r2, [pc, #148]	; (80025a0 <HAL_ADC_Start_DMA+0x1b0>)
 800250a:	629a      	str	r2, [r3, #40]	; 0x28

      /* Set the DMA half transfer complete callback */
      hadc->DMA_Handle->XferHalfCpltCallback = ADC_DMAHalfConvCplt;
 800250c:	68fb      	ldr	r3, [r7, #12]
 800250e:	6a1b      	ldr	r3, [r3, #32]
 8002510:	4a24      	ldr	r2, [pc, #144]	; (80025a4 <HAL_ADC_Start_DMA+0x1b4>)
 8002512:	62da      	str	r2, [r3, #44]	; 0x2c
      
      /* Set the DMA error callback */
      hadc->DMA_Handle->XferErrorCallback = ADC_DMAError;
 8002514:	68fb      	ldr	r3, [r7, #12]
 8002516:	6a1b      	ldr	r3, [r3, #32]
 8002518:	4a23      	ldr	r2, [pc, #140]	; (80025a8 <HAL_ADC_Start_DMA+0x1b8>)
 800251a:	631a      	str	r2, [r3, #48]	; 0x30
      /* start (in case of SW start):                                         */
      
      /* Clear regular group conversion flag and overrun flag */
      /* (To ensure of no unknown state from potential previous ADC           */
      /* operations)                                                          */
      __HAL_ADC_CLEAR_FLAG(hadc, ADC_FLAG_EOC);
 800251c:	68fb      	ldr	r3, [r7, #12]
 800251e:	681b      	ldr	r3, [r3, #0]
 8002520:	f06f 0202 	mvn.w	r2, #2
 8002524:	601a      	str	r2, [r3, #0]
      
      /* Enable ADC DMA mode */
      SET_BIT(hadc->Instance->CR2, ADC_CR2_DMA);
 8002526:	68fb      	ldr	r3, [r7, #12]
 8002528:	681b      	ldr	r3, [r3, #0]
 800252a:	689a      	ldr	r2, [r3, #8]
 800252c:	68fb      	ldr	r3, [r7, #12]
 800252e:	681b      	ldr	r3, [r3, #0]
 8002530:	f442 7280 	orr.w	r2, r2, #256	; 0x100
 8002534:	609a      	str	r2, [r3, #8]
      
      /* Start the DMA channel */
      HAL_DMA_Start_IT(hadc->DMA_Handle, (uint32_t)&hadc->Instance->DR, (uint32_t)pData, Length);
 8002536:	68fb      	ldr	r3, [r7, #12]
 8002538:	6a18      	ldr	r0, [r3, #32]
 800253a:	68fb      	ldr	r3, [r7, #12]
 800253c:	681b      	ldr	r3, [r3, #0]
 800253e:	334c      	adds	r3, #76	; 0x4c
 8002540:	4619      	mov	r1, r3
 8002542:	68ba      	ldr	r2, [r7, #8]
 8002544:	687b      	ldr	r3, [r7, #4]
 8002546:	f001 f89f 	bl	8003688 <HAL_DMA_Start_IT>
      
      /* Enable conversion of regular group.                                  */
      /* If software start has been selected, conversion starts immediately.  */
      /* If external trigger has been selected, conversion will start at next */
      /* trigger event.                                                       */
      if (ADC_IS_SOFTWARE_START_REGULAR(hadc))
 800254a:	68fb      	ldr	r3, [r7, #12]
 800254c:	681b      	ldr	r3, [r3, #0]
 800254e:	689b      	ldr	r3, [r3, #8]
 8002550:	f403 2360 	and.w	r3, r3, #917504	; 0xe0000
 8002554:	f5b3 2f60 	cmp.w	r3, #917504	; 0xe0000
 8002558:	d108      	bne.n	800256c <HAL_ADC_Start_DMA+0x17c>
      {
        /* Start ADC conversion on regular group with SW start */
        SET_BIT(hadc->Instance->CR2, (ADC_CR2_SWSTART | ADC_CR2_EXTTRIG));
 800255a:	68fb      	ldr	r3, [r7, #12]
 800255c:	681b      	ldr	r3, [r3, #0]
 800255e:	689a      	ldr	r2, [r3, #8]
 8002560:	68fb      	ldr	r3, [r7, #12]
 8002562:	681b      	ldr	r3, [r3, #0]
 8002564:	f442 02a0 	orr.w	r2, r2, #5242880	; 0x500000
 8002568:	609a      	str	r2, [r3, #8]
    if (tmp_hal_status == HAL_OK)
 800256a:	e00f      	b.n	800258c <HAL_ADC_Start_DMA+0x19c>
      }
      else
      {
        /* Start ADC conversion on regular group with external trigger */
        SET_BIT(hadc->Instance->CR2, ADC_CR2_EXTTRIG);
 800256c:	68fb      	ldr	r3, [r7, #12]
 800256e:	681b      	ldr	r3, [r3, #0]
 8002570:	689a      	ldr	r2, [r3, #8]
 8002572:	68fb      	ldr	r3, [r7, #12]
 8002574:	681b      	ldr	r3, [r3, #0]
 8002576:	f442 1280 	orr.w	r2, r2, #1048576	; 0x100000
 800257a:	609a      	str	r2, [r3, #8]
    if (tmp_hal_status == HAL_OK)
 800257c:	e006      	b.n	800258c <HAL_ADC_Start_DMA+0x19c>
      }
    }
    else
    {
      /* Process unlocked */
      __HAL_UNLOCK(hadc);
 800257e:	68fb      	ldr	r3, [r7, #12]
 8002580:	2200      	movs	r2, #0
 8002582:	f883 2024 	strb.w	r2, [r3, #36]	; 0x24
    if (tmp_hal_status == HAL_OK)
 8002586:	e001      	b.n	800258c <HAL_ADC_Start_DMA+0x19c>
    }
  }
  else
  {
    tmp_hal_status = HAL_ERROR;
 8002588:	2301      	movs	r3, #1
 800258a:	75fb      	strb	r3, [r7, #23]
  }
  
  /* Return function status */
  return tmp_hal_status;
 800258c:	7dfb      	ldrb	r3, [r7, #23]
}
 800258e:	4618      	mov	r0, r3
 8002590:	3718      	adds	r7, #24
 8002592:	46bd      	mov	sp, r7
 8002594:	bd80      	pop	{r7, pc}
 8002596:	bf00      	nop
 8002598:	40012400 	.word	0x40012400
 800259c:	40012800 	.word	0x40012800
 80025a0:	080028ed 	.word	0x080028ed
 80025a4:	08002969 	.word	0x08002969
 80025a8:	08002985 	.word	0x08002985

080025ac <HAL_ADC_ConvCpltCallback>:
  * @brief  Conversion complete callback in non blocking mode 
  * @param  hadc: ADC handle
  * @retval None
  */
__weak void HAL_ADC_ConvCpltCallback(ADC_HandleTypeDef* hadc)
{
 80025ac:	b480      	push	{r7}
 80025ae:	b083      	sub	sp, #12
 80025b0:	af00      	add	r7, sp, #0
 80025b2:	6078      	str	r0, [r7, #4]
  /* Prevent unused argument(s) compilation warning */
  UNUSED(hadc);
  /* NOTE : This function should not be modified. When the callback is needed,
            function HAL_ADC_ConvCpltCallback must be implemented in the user file.
   */
}
 80025b4:	bf00      	nop
 80025b6:	370c      	adds	r7, #12
 80025b8:	46bd      	mov	sp, r7
 80025ba:	bc80      	pop	{r7}
 80025bc:	4770      	bx	lr

080025be <HAL_ADC_ConvHalfCpltCallback>:
  * @brief  Conversion DMA half-transfer callback in non blocking mode 
  * @param  hadc: ADC handle
  * @retval None
  */
__weak void HAL_ADC_ConvHalfCpltCallback(ADC_HandleTypeDef* hadc)
{
 80025be:	b480      	push	{r7}
 80025c0:	b083      	sub	sp, #12
 80025c2:	af00      	add	r7, sp, #0
 80025c4:	6078      	str	r0, [r7, #4]
  /* Prevent unused argument(s) compilation warning */
  UNUSED(hadc);
  /* NOTE : This function should not be modified. When the callback is needed,
            function HAL_ADC_ConvHalfCpltCallback must be implemented in the user file.
  */
}
 80025c6:	bf00      	nop
 80025c8:	370c      	adds	r7, #12
 80025ca:	46bd      	mov	sp, r7
 80025cc:	bc80      	pop	{r7}
 80025ce:	4770      	bx	lr

080025d0 <HAL_ADC_ErrorCallback>:
  *        (ADC conversion with interruption or transfer by DMA)
  * @param  hadc: ADC handle
  * @retval None
  */
__weak void HAL_ADC_ErrorCallback(ADC_HandleTypeDef *hadc)
{
 80025d0:	b480      	push	{r7}
 80025d2:	b083      	sub	sp, #12
 80025d4:	af00      	add	r7, sp, #0
 80025d6:	6078      	str	r0, [r7, #4]
  /* Prevent unused argument(s) compilation warning */
  UNUSED(hadc);
  /* NOTE : This function should not be modified. When the callback is needed,
            function HAL_ADC_ErrorCallback must be implemented in the user file.
  */
}
 80025d8:	bf00      	nop
 80025da:	370c      	adds	r7, #12
 80025dc:	46bd      	mov	sp, r7
 80025de:	bc80      	pop	{r7}
 80025e0:	4770      	bx	lr
	...

080025e4 <HAL_ADC_ConfigChannel>:
  * @param  hadc: ADC handle
  * @param  sConfig: Structure of ADC channel for regular group.
  * @retval HAL status
  */
HAL_StatusTypeDef HAL_ADC_ConfigChannel(ADC_HandleTypeDef* hadc, ADC_ChannelConfTypeDef* sConfig)
{ 
 80025e4:	b480      	push	{r7}
 80025e6:	b085      	sub	sp, #20
 80025e8:	af00      	add	r7, sp, #0
 80025ea:	6078      	str	r0, [r7, #4]
 80025ec:	6039      	str	r1, [r7, #0]
  HAL_StatusTypeDef tmp_hal_status = HAL_OK;
 80025ee:	2300      	movs	r3, #0
 80025f0:	73fb      	strb	r3, [r7, #15]
  __IO uint32_t wait_loop_index = 0U;
 80025f2:	2300      	movs	r3, #0
 80025f4:	60bb      	str	r3, [r7, #8]
  assert_param(IS_ADC_CHANNEL(sConfig->Channel));
  assert_param(IS_ADC_REGULAR_RANK(sConfig->Rank));
  assert_param(IS_ADC_SAMPLE_TIME(sConfig->SamplingTime));
  
  /* Process locked */
  __HAL_LOCK(hadc);
 80025f6:	687b      	ldr	r3, [r7, #4]
 80025f8:	f893 3024 	ldrb.w	r3, [r3, #36]	; 0x24
 80025fc:	2b01      	cmp	r3, #1
 80025fe:	d101      	bne.n	8002604 <HAL_ADC_ConfigChannel+0x20>
 8002600:	2302      	movs	r3, #2
 8002602:	e0dc      	b.n	80027be <HAL_ADC_ConfigChannel+0x1da>
 8002604:	687b      	ldr	r3, [r7, #4]
 8002606:	2201      	movs	r2, #1
 8002608:	f883 2024 	strb.w	r2, [r3, #36]	; 0x24
  
  
  /* Regular sequence configuration */
  /* For Rank 1 to 6 */
  if (sConfig->Rank < 7U)
 800260c:	683b      	ldr	r3, [r7, #0]
 800260e:	685b      	ldr	r3, [r3, #4]
 8002610:	2b06      	cmp	r3, #6
 8002612:	d81c      	bhi.n	800264e <HAL_ADC_ConfigChannel+0x6a>
  {
    MODIFY_REG(hadc->Instance->SQR3                        ,
 8002614:	687b      	ldr	r3, [r7, #4]
 8002616:	681b      	ldr	r3, [r3, #0]
 8002618:	6b59      	ldr	r1, [r3, #52]	; 0x34
 800261a:	683b      	ldr	r3, [r7, #0]
 800261c:	685a      	ldr	r2, [r3, #4]
 800261e:	4613      	mov	r3, r2
 8002620:	009b      	lsls	r3, r3, #2
 8002622:	4413      	add	r3, r2
 8002624:	3b05      	subs	r3, #5
 8002626:	221f      	movs	r2, #31
 8002628:	fa02 f303 	lsl.w	r3, r2, r3
 800262c:	43db      	mvns	r3, r3
 800262e:	4019      	ands	r1, r3
 8002630:	683b      	ldr	r3, [r7, #0]
 8002632:	6818      	ldr	r0, [r3, #0]
 8002634:	683b      	ldr	r3, [r7, #0]
 8002636:	685a      	ldr	r2, [r3, #4]
 8002638:	4613      	mov	r3, r2
 800263a:	009b      	lsls	r3, r3, #2
 800263c:	4413      	add	r3, r2
 800263e:	3b05      	subs	r3, #5
 8002640:	fa00 f203 	lsl.w	r2, r0, r3
 8002644:	687b      	ldr	r3, [r7, #4]
 8002646:	681b      	ldr	r3, [r3, #0]
 8002648:	430a      	orrs	r2, r1
 800264a:	635a      	str	r2, [r3, #52]	; 0x34
 800264c:	e03c      	b.n	80026c8 <HAL_ADC_ConfigChannel+0xe4>
               ADC_SQR3_RK(ADC_SQR3_SQ1, sConfig->Rank)    ,
               ADC_SQR3_RK(sConfig->Channel, sConfig->Rank) );
  }
  /* For Rank 7 to 12 */
  else if (sConfig->Rank < 13U)
 800264e:	683b      	ldr	r3, [r7, #0]
 8002650:	685b      	ldr	r3, [r3, #4]
 8002652:	2b0c      	cmp	r3, #12
 8002654:	d81c      	bhi.n	8002690 <HAL_ADC_ConfigChannel+0xac>
  {
    MODIFY_REG(hadc->Instance->SQR2                        ,
 8002656:	687b      	ldr	r3, [r7, #4]
 8002658:	681b      	ldr	r3, [r3, #0]
 800265a:	6b19      	ldr	r1, [r3, #48]	; 0x30
 800265c:	683b      	ldr	r3, [r7, #0]
 800265e:	685a      	ldr	r2, [r3, #4]
 8002660:	4613      	mov	r3, r2
 8002662:	009b      	lsls	r3, r3, #2
 8002664:	4413      	add	r3, r2
 8002666:	3b23      	subs	r3, #35	; 0x23
 8002668:	221f      	movs	r2, #31
 800266a:	fa02 f303 	lsl.w	r3, r2, r3
 800266e:	43db      	mvns	r3, r3
 8002670:	4019      	ands	r1, r3
 8002672:	683b      	ldr	r3, [r7, #0]
 8002674:	6818      	ldr	r0, [r3, #0]
 8002676:	683b      	ldr	r3, [r7, #0]
 8002678:	685a      	ldr	r2, [r3, #4]
 800267a:	4613      	mov	r3, r2
 800267c:	009b      	lsls	r3, r3, #2
 800267e:	4413      	add	r3, r2
 8002680:	3b23      	subs	r3, #35	; 0x23
 8002682:	fa00 f203 	lsl.w	r2, r0, r3
 8002686:	687b      	ldr	r3, [r7, #4]
 8002688:	681b      	ldr	r3, [r3, #0]
 800268a:	430a      	orrs	r2, r1
 800268c:	631a      	str	r2, [r3, #48]	; 0x30
 800268e:	e01b      	b.n	80026c8 <HAL_ADC_ConfigChannel+0xe4>
               ADC_SQR2_RK(sConfig->Channel, sConfig->Rank) );
  }
  /* For Rank 13 to 16 */
  else
  {
    MODIFY_REG(hadc->Instance->SQR1                        ,
 8002690:	687b      	ldr	r3, [r7, #4]
 8002692:	681b      	ldr	r3, [r3, #0]
 8002694:	6ad9      	ldr	r1, [r3, #44]	; 0x2c
 8002696:	683b      	ldr	r3, [r7, #0]
 8002698:	685a      	ldr	r2, [r3, #4]
 800269a:	4613      	mov	r3, r2
 800269c:	009b      	lsls	r3, r3, #2
 800269e:	4413      	add	r3, r2
 80026a0:	3b41      	subs	r3, #65	; 0x41
 80026a2:	221f      	movs	r2, #31
 80026a4:	fa02 f303 	lsl.w	r3, r2, r3
 80026a8:	43db      	mvns	r3, r3
 80026aa:	4019      	ands	r1, r3
 80026ac:	683b      	ldr	r3, [r7, #0]
 80026ae:	6818      	ldr	r0, [r3, #0]
 80026b0:	683b      	ldr	r3, [r7, #0]
 80026b2:	685a      	ldr	r2, [r3, #4]
 80026b4:	4613      	mov	r3, r2
 80026b6:	009b      	lsls	r3, r3, #2
 80026b8:	4413      	add	r3, r2
 80026ba:	3b41      	subs	r3, #65	; 0x41
 80026bc:	fa00 f203 	lsl.w	r2, r0, r3
 80026c0:	687b      	ldr	r3, [r7, #4]
 80026c2:	681b      	ldr	r3, [r3, #0]
 80026c4:	430a      	orrs	r2, r1
 80026c6:	62da      	str	r2, [r3, #44]	; 0x2c
  }
  
  
  /* Channel sampling time configuration */
  /* For channels 10 to 17 */
  if (sConfig->Channel >= ADC_CHANNEL_10)
 80026c8:	683b      	ldr	r3, [r7, #0]
 80026ca:	681b      	ldr	r3, [r3, #0]
 80026cc:	2b09      	cmp	r3, #9
 80026ce:	d91c      	bls.n	800270a <HAL_ADC_ConfigChannel+0x126>
  {
    MODIFY_REG(hadc->Instance->SMPR1                             ,
 80026d0:	687b      	ldr	r3, [r7, #4]
 80026d2:	681b      	ldr	r3, [r3, #0]
 80026d4:	68d9      	ldr	r1, [r3, #12]
 80026d6:	683b      	ldr	r3, [r7, #0]
 80026d8:	681a      	ldr	r2, [r3, #0]
 80026da:	4613      	mov	r3, r2
 80026dc:	005b      	lsls	r3, r3, #1
 80026de:	4413      	add	r3, r2
 80026e0:	3b1e      	subs	r3, #30
 80026e2:	2207      	movs	r2, #7
 80026e4:	fa02 f303 	lsl.w	r3, r2, r3
 80026e8:	43db      	mvns	r3, r3
 80026ea:	4019      	ands	r1, r3
 80026ec:	683b      	ldr	r3, [r7, #0]
 80026ee:	6898      	ldr	r0, [r3, #8]
 80026f0:	683b      	ldr	r3, [r7, #0]
 80026f2:	681a      	ldr	r2, [r3, #0]
 80026f4:	4613      	mov	r3, r2
 80026f6:	005b      	lsls	r3, r3, #1
 80026f8:	4413      	add	r3, r2
 80026fa:	3b1e      	subs	r3, #30
 80026fc:	fa00 f203 	lsl.w	r2, r0, r3
 8002700:	687b      	ldr	r3, [r7, #4]
 8002702:	681b      	ldr	r3, [r3, #0]
 8002704:	430a      	orrs	r2, r1
 8002706:	60da      	str	r2, [r3, #12]
 8002708:	e019      	b.n	800273e <HAL_ADC_ConfigChannel+0x15a>
               ADC_SMPR1(ADC_SMPR1_SMP10, sConfig->Channel)      ,
               ADC_SMPR1(sConfig->SamplingTime, sConfig->Channel) );
  }
  else /* For channels 0 to 9 */
  {
    MODIFY_REG(hadc->Instance->SMPR2                             ,
 800270a:	687b      	ldr	r3, [r7, #4]
 800270c:	681b      	ldr	r3, [r3, #0]
 800270e:	6919      	ldr	r1, [r3, #16]
 8002710:	683b      	ldr	r3, [r7, #0]
 8002712:	681a      	ldr	r2, [r3, #0]
 8002714:	4613      	mov	r3, r2
 8002716:	005b      	lsls	r3, r3, #1
 8002718:	4413      	add	r3, r2
 800271a:	2207      	movs	r2, #7
 800271c:	fa02 f303 	lsl.w	r3, r2, r3
 8002720:	43db      	mvns	r3, r3
 8002722:	4019      	ands	r1, r3
 8002724:	683b      	ldr	r3, [r7, #0]
 8002726:	6898      	ldr	r0, [r3, #8]
 8002728:	683b      	ldr	r3, [r7, #0]
 800272a:	681a      	ldr	r2, [r3, #0]
 800272c:	4613      	mov	r3, r2
 800272e:	005b      	lsls	r3, r3, #1
 8002730:	4413      	add	r3, r2
 8002732:	fa00 f203 	lsl.w	r2, r0, r3
 8002736:	687b      	ldr	r3, [r7, #4]
 8002738:	681b      	ldr	r3, [r3, #0]
 800273a:	430a      	orrs	r2, r1
 800273c:	611a      	str	r2, [r3, #16]
               ADC_SMPR2(sConfig->SamplingTime, sConfig->Channel) );
  }
  
  /* If ADC1 Channel_16 or Channel_17 is selected, enable Temperature sensor  */
  /* and VREFINT measurement path.                                            */
  if ((sConfig->Channel == ADC_CHANNEL_TEMPSENSOR) ||
 800273e:	683b      	ldr	r3, [r7, #0]
 8002740:	681b      	ldr	r3, [r3, #0]
 8002742:	2b10      	cmp	r3, #16
 8002744:	d003      	beq.n	800274e <HAL_ADC_ConfigChannel+0x16a>
      (sConfig->Channel == ADC_CHANNEL_VREFINT)      )
 8002746:	683b      	ldr	r3, [r7, #0]
 8002748:	681b      	ldr	r3, [r3, #0]
  if ((sConfig->Channel == ADC_CHANNEL_TEMPSENSOR) ||
 800274a:	2b11      	cmp	r3, #17
 800274c:	d132      	bne.n	80027b4 <HAL_ADC_ConfigChannel+0x1d0>
  {
    /* For STM32F1 devices with several ADC: Only ADC1 can access internal    */
    /* measurement channels (VrefInt/TempSensor). If these channels are       */
    /* intended to be set on other ADC instances, an error is reported.       */
    if (hadc->Instance == ADC1)
 800274e:	687b      	ldr	r3, [r7, #4]
 8002750:	681b      	ldr	r3, [r3, #0]
 8002752:	4a1d      	ldr	r2, [pc, #116]	; (80027c8 <HAL_ADC_ConfigChannel+0x1e4>)
 8002754:	4293      	cmp	r3, r2
 8002756:	d125      	bne.n	80027a4 <HAL_ADC_ConfigChannel+0x1c0>
    {
      if (READ_BIT(hadc->Instance->CR2, ADC_CR2_TSVREFE) == RESET)
 8002758:	687b      	ldr	r3, [r7, #4]
 800275a:	681b      	ldr	r3, [r3, #0]
 800275c:	689b      	ldr	r3, [r3, #8]
 800275e:	f403 0300 	and.w	r3, r3, #8388608	; 0x800000
 8002762:	2b00      	cmp	r3, #0
 8002764:	d126      	bne.n	80027b4 <HAL_ADC_ConfigChannel+0x1d0>
      {
        SET_BIT(hadc->Instance->CR2, ADC_CR2_TSVREFE);
 8002766:	687b      	ldr	r3, [r7, #4]
 8002768:	681b      	ldr	r3, [r3, #0]
 800276a:	689a      	ldr	r2, [r3, #8]
 800276c:	687b      	ldr	r3, [r7, #4]
 800276e:	681b      	ldr	r3, [r3, #0]
 8002770:	f442 0200 	orr.w	r2, r2, #8388608	; 0x800000
 8002774:	609a      	str	r2, [r3, #8]
        
        if ((sConfig->Channel == ADC_CHANNEL_TEMPSENSOR))
 8002776:	683b      	ldr	r3, [r7, #0]
 8002778:	681b      	ldr	r3, [r3, #0]
 800277a:	2b10      	cmp	r3, #16
 800277c:	d11a      	bne.n	80027b4 <HAL_ADC_ConfigChannel+0x1d0>
        {
          /* Delay for temperature sensor stabilization time */
          /* Compute number of CPU cycles to wait for */
          wait_loop_index = (ADC_TEMPSENSOR_DELAY_US * (SystemCoreClock / 1000000U));
 800277e:	4b13      	ldr	r3, [pc, #76]	; (80027cc <HAL_ADC_ConfigChannel+0x1e8>)
 8002780:	681b      	ldr	r3, [r3, #0]
 8002782:	4a13      	ldr	r2, [pc, #76]	; (80027d0 <HAL_ADC_ConfigChannel+0x1ec>)
 8002784:	fba2 2303 	umull	r2, r3, r2, r3
 8002788:	0c9a      	lsrs	r2, r3, #18
 800278a:	4613      	mov	r3, r2
 800278c:	009b      	lsls	r3, r3, #2
 800278e:	4413      	add	r3, r2
 8002790:	005b      	lsls	r3, r3, #1
 8002792:	60bb      	str	r3, [r7, #8]
          while(wait_loop_index != 0U)
 8002794:	e002      	b.n	800279c <HAL_ADC_ConfigChannel+0x1b8>
          {
            wait_loop_index--;
 8002796:	68bb      	ldr	r3, [r7, #8]
 8002798:	3b01      	subs	r3, #1
 800279a:	60bb      	str	r3, [r7, #8]
          while(wait_loop_index != 0U)
 800279c:	68bb      	ldr	r3, [r7, #8]
 800279e:	2b00      	cmp	r3, #0
 80027a0:	d1f9      	bne.n	8002796 <HAL_ADC_ConfigChannel+0x1b2>
 80027a2:	e007      	b.n	80027b4 <HAL_ADC_ConfigChannel+0x1d0>
      }
    }
    else
    {
      /* Update ADC state machine to error */
      SET_BIT(hadc->State, HAL_ADC_STATE_ERROR_CONFIG);
 80027a4:	687b      	ldr	r3, [r7, #4]
 80027a6:	6a9b      	ldr	r3, [r3, #40]	; 0x28
 80027a8:	f043 0220 	orr.w	r2, r3, #32
 80027ac:	687b      	ldr	r3, [r7, #4]
 80027ae:	629a      	str	r2, [r3, #40]	; 0x28
      
      tmp_hal_status = HAL_ERROR;
 80027b0:	2301      	movs	r3, #1
 80027b2:	73fb      	strb	r3, [r7, #15]
    }
  }
  
  /* Process unlocked */
  __HAL_UNLOCK(hadc);
 80027b4:	687b      	ldr	r3, [r7, #4]
 80027b6:	2200      	movs	r2, #0
 80027b8:	f883 2024 	strb.w	r2, [r3, #36]	; 0x24
  
  /* Return function status */
  return tmp_hal_status;
 80027bc:	7bfb      	ldrb	r3, [r7, #15]
}
 80027be:	4618      	mov	r0, r3
 80027c0:	3714      	adds	r7, #20
 80027c2:	46bd      	mov	sp, r7
 80027c4:	bc80      	pop	{r7}
 80027c6:	4770      	bx	lr
 80027c8:	40012400 	.word	0x40012400
 80027cc:	20000000 	.word	0x20000000
 80027d0:	431bde83 	.word	0x431bde83

080027d4 <ADC_Enable>:
  *         and voltage regulator must be enabled (done into HAL_ADC_Init()).
  * @param  hadc: ADC handle
  * @retval HAL status.
  */
HAL_StatusTypeDef ADC_Enable(ADC_HandleTypeDef* hadc)
{
 80027d4:	b580      	push	{r7, lr}
 80027d6:	b084      	sub	sp, #16
 80027d8:	af00      	add	r7, sp, #0
 80027da:	6078      	str	r0, [r7, #4]
  uint32_t tickstart = 0U;
 80027dc:	2300      	movs	r3, #0
 80027de:	60fb      	str	r3, [r7, #12]
  __IO uint32_t wait_loop_index = 0U;
 80027e0:	2300      	movs	r3, #0
 80027e2:	60bb      	str	r3, [r7, #8]
  
  /* ADC enable and wait for ADC ready (in case of ADC is disabled or         */
  /* enabling phase not yet completed: flag ADC ready not yet set).           */
  /* Timeout implemented to not be stuck if ADC cannot be enabled (possible   */
  /* causes: ADC clock not running, ...).                                     */
  if (ADC_IS_ENABLE(hadc) == RESET)
 80027e4:	687b      	ldr	r3, [r7, #4]
 80027e6:	681b      	ldr	r3, [r3, #0]
 80027e8:	689b      	ldr	r3, [r3, #8]
 80027ea:	f003 0301 	and.w	r3, r3, #1
 80027ee:	2b01      	cmp	r3, #1
 80027f0:	d039      	beq.n	8002866 <ADC_Enable+0x92>
  {
    /* Enable the Peripheral */
    __HAL_ADC_ENABLE(hadc);
 80027f2:	687b      	ldr	r3, [r7, #4]
 80027f4:	681b      	ldr	r3, [r3, #0]
 80027f6:	689a      	ldr	r2, [r3, #8]
 80027f8:	687b      	ldr	r3, [r7, #4]
 80027fa:	681b      	ldr	r3, [r3, #0]
 80027fc:	f042 0201 	orr.w	r2, r2, #1
 8002800:	609a      	str	r2, [r3, #8]
    
    /* Delay for ADC stabilization time */
    /* Compute number of CPU cycles to wait for */
    wait_loop_index = (ADC_STAB_DELAY_US * (SystemCoreClock / 1000000U));
 8002802:	4b1b      	ldr	r3, [pc, #108]	; (8002870 <ADC_Enable+0x9c>)
 8002804:	681b      	ldr	r3, [r3, #0]
 8002806:	4a1b      	ldr	r2, [pc, #108]	; (8002874 <ADC_Enable+0xa0>)
 8002808:	fba2 2303 	umull	r2, r3, r2, r3
 800280c:	0c9b      	lsrs	r3, r3, #18
 800280e:	60bb      	str	r3, [r7, #8]
    while(wait_loop_index != 0U)
 8002810:	e002      	b.n	8002818 <ADC_Enable+0x44>
    {
      wait_loop_index--;
 8002812:	68bb      	ldr	r3, [r7, #8]
 8002814:	3b01      	subs	r3, #1
 8002816:	60bb      	str	r3, [r7, #8]
    while(wait_loop_index != 0U)
 8002818:	68bb      	ldr	r3, [r7, #8]
 800281a:	2b00      	cmp	r3, #0
 800281c:	d1f9      	bne.n	8002812 <ADC_Enable+0x3e>
    }
    
    /* Get tick count */
    tickstart = HAL_GetTick();
 800281e:	f7ff fce3 	bl	80021e8 <HAL_GetTick>
 8002822:	60f8      	str	r0, [r7, #12]

    /* Wait for ADC effectively enabled */
    while(ADC_IS_ENABLE(hadc) == RESET)
 8002824:	e018      	b.n	8002858 <ADC_Enable+0x84>
    {
      if((HAL_GetTick() - tickstart) > ADC_ENABLE_TIMEOUT)
 8002826:	f7ff fcdf 	bl	80021e8 <HAL_GetTick>
 800282a:	4602      	mov	r2, r0
 800282c:	68fb      	ldr	r3, [r7, #12]
 800282e:	1ad3      	subs	r3, r2, r3
 8002830:	2b02      	cmp	r3, #2
 8002832:	d911      	bls.n	8002858 <ADC_Enable+0x84>
      {
        /* Update ADC state machine to error */
        SET_BIT(hadc->State, HAL_ADC_STATE_ERROR_INTERNAL);
 8002834:	687b      	ldr	r3, [r7, #4]
 8002836:	6a9b      	ldr	r3, [r3, #40]	; 0x28
 8002838:	f043 0210 	orr.w	r2, r3, #16
 800283c:	687b      	ldr	r3, [r7, #4]
 800283e:	629a      	str	r2, [r3, #40]	; 0x28
      
        /* Set ADC error code to ADC IP internal error */
        SET_BIT(hadc->ErrorCode, HAL_ADC_ERROR_INTERNAL);
 8002840:	687b      	ldr	r3, [r7, #4]
 8002842:	6adb      	ldr	r3, [r3, #44]	; 0x2c
 8002844:	f043 0201 	orr.w	r2, r3, #1
 8002848:	687b      	ldr	r3, [r7, #4]
 800284a:	62da      	str	r2, [r3, #44]	; 0x2c
        
        /* Process unlocked */
        __HAL_UNLOCK(hadc);
 800284c:	687b      	ldr	r3, [r7, #4]
 800284e:	2200      	movs	r2, #0
 8002850:	f883 2024 	strb.w	r2, [r3, #36]	; 0x24
      
        return HAL_ERROR;
 8002854:	2301      	movs	r3, #1
 8002856:	e007      	b.n	8002868 <ADC_Enable+0x94>
    while(ADC_IS_ENABLE(hadc) == RESET)
 8002858:	687b      	ldr	r3, [r7, #4]
 800285a:	681b      	ldr	r3, [r3, #0]
 800285c:	689b      	ldr	r3, [r3, #8]
 800285e:	f003 0301 	and.w	r3, r3, #1
 8002862:	2b01      	cmp	r3, #1
 8002864:	d1df      	bne.n	8002826 <ADC_Enable+0x52>
      }
    }
  }
   
  /* Return HAL status */
  return HAL_OK;
 8002866:	2300      	movs	r3, #0
}
 8002868:	4618      	mov	r0, r3
 800286a:	3710      	adds	r7, #16
 800286c:	46bd      	mov	sp, r7
 800286e:	bd80      	pop	{r7, pc}
 8002870:	20000000 	.word	0x20000000
 8002874:	431bde83 	.word	0x431bde83

08002878 <ADC_ConversionStop_Disable>:
  *         stopped to disable the ADC.
  * @param  hadc: ADC handle
  * @retval HAL status.
  */
HAL_StatusTypeDef ADC_ConversionStop_Disable(ADC_HandleTypeDef* hadc)
{
 8002878:	b580      	push	{r7, lr}
 800287a:	b084      	sub	sp, #16
 800287c:	af00      	add	r7, sp, #0
 800287e:	6078      	str	r0, [r7, #4]
  uint32_t tickstart = 0U;
 8002880:	2300      	movs	r3, #0
 8002882:	60fb      	str	r3, [r7, #12]
  
  /* Verification if ADC is not already disabled */
  if (ADC_IS_ENABLE(hadc) != RESET)
 8002884:	687b      	ldr	r3, [r7, #4]
 8002886:	681b      	ldr	r3, [r3, #0]
 8002888:	689b      	ldr	r3, [r3, #8]
 800288a:	f003 0301 	and.w	r3, r3, #1
 800288e:	2b01      	cmp	r3, #1
 8002890:	d127      	bne.n	80028e2 <ADC_ConversionStop_Disable+0x6a>
  {
    /* Disable the ADC peripheral */
    __HAL_ADC_DISABLE(hadc);
 8002892:	687b      	ldr	r3, [r7, #4]
 8002894:	681b      	ldr	r3, [r3, #0]
 8002896:	689a      	ldr	r2, [r3, #8]
 8002898:	687b      	ldr	r3, [r7, #4]
 800289a:	681b      	ldr	r3, [r3, #0]
 800289c:	f022 0201 	bic.w	r2, r2, #1
 80028a0:	609a      	str	r2, [r3, #8]
     
    /* Get tick count */
    tickstart = HAL_GetTick();
 80028a2:	f7ff fca1 	bl	80021e8 <HAL_GetTick>
 80028a6:	60f8      	str	r0, [r7, #12]
    
    /* Wait for ADC effectively disabled */
    while(ADC_IS_ENABLE(hadc) != RESET)
 80028a8:	e014      	b.n	80028d4 <ADC_ConversionStop_Disable+0x5c>
    {
      if((HAL_GetTick() - tickstart) > ADC_DISABLE_TIMEOUT)
 80028aa:	f7ff fc9d 	bl	80021e8 <HAL_GetTick>
 80028ae:	4602      	mov	r2, r0
 80028b0:	68fb      	ldr	r3, [r7, #12]
 80028b2:	1ad3      	subs	r3, r2, r3
 80028b4:	2b02      	cmp	r3, #2
 80028b6:	d90d      	bls.n	80028d4 <ADC_ConversionStop_Disable+0x5c>
      {
        /* Update ADC state machine to error */
        SET_BIT(hadc->State, HAL_ADC_STATE_ERROR_INTERNAL);
 80028b8:	687b      	ldr	r3, [r7, #4]
 80028ba:	6a9b      	ldr	r3, [r3, #40]	; 0x28
 80028bc:	f043 0210 	orr.w	r2, r3, #16
 80028c0:	687b      	ldr	r3, [r7, #4]
 80028c2:	629a      	str	r2, [r3, #40]	; 0x28
        
        /* Set ADC error code to ADC IP internal error */
        SET_BIT(hadc->ErrorCode, HAL_ADC_ERROR_INTERNAL);
 80028c4:	687b      	ldr	r3, [r7, #4]
 80028c6:	6adb      	ldr	r3, [r3, #44]	; 0x2c
 80028c8:	f043 0201 	orr.w	r2, r3, #1
 80028cc:	687b      	ldr	r3, [r7, #4]
 80028ce:	62da      	str	r2, [r3, #44]	; 0x2c
        
        return HAL_ERROR;
 80028d0:	2301      	movs	r3, #1
 80028d2:	e007      	b.n	80028e4 <ADC_ConversionStop_Disable+0x6c>
    while(ADC_IS_ENABLE(hadc) != RESET)
 80028d4:	687b      	ldr	r3, [r7, #4]
 80028d6:	681b      	ldr	r3, [r3, #0]
 80028d8:	689b      	ldr	r3, [r3, #8]
 80028da:	f003 0301 	and.w	r3, r3, #1
 80028de:	2b01      	cmp	r3, #1
 80028e0:	d0e3      	beq.n	80028aa <ADC_ConversionStop_Disable+0x32>
      }
    }
  }
  
  /* Return HAL status */
  return HAL_OK;
 80028e2:	2300      	movs	r3, #0
}
 80028e4:	4618      	mov	r0, r3
 80028e6:	3710      	adds	r7, #16
 80028e8:	46bd      	mov	sp, r7
 80028ea:	bd80      	pop	{r7, pc}

080028ec <ADC_DMAConvCplt>:
  * @brief  DMA transfer complete callback. 
  * @param  hdma: pointer to DMA handle.
  * @retval None
  */
void ADC_DMAConvCplt(DMA_HandleTypeDef *hdma)
{
 80028ec:	b580      	push	{r7, lr}
 80028ee:	b084      	sub	sp, #16
 80028f0:	af00      	add	r7, sp, #0
 80028f2:	6078      	str	r0, [r7, #4]
  /* Retrieve ADC handle corresponding to current DMA handle */
  ADC_HandleTypeDef* hadc = ( ADC_HandleTypeDef* )((DMA_HandleTypeDef* )hdma)->Parent;
 80028f4:	687b      	ldr	r3, [r7, #4]
 80028f6:	6a5b      	ldr	r3, [r3, #36]	; 0x24
 80028f8:	60fb      	str	r3, [r7, #12]
 
  /* Update state machine on conversion status if not in error state */
  if (HAL_IS_BIT_CLR(hadc->State, HAL_ADC_STATE_ERROR_INTERNAL | HAL_ADC_STATE_ERROR_DMA))
 80028fa:	68fb      	ldr	r3, [r7, #12]
 80028fc:	6a9b      	ldr	r3, [r3, #40]	; 0x28
 80028fe:	f003 0350 	and.w	r3, r3, #80	; 0x50
 8002902:	2b00      	cmp	r3, #0
 8002904:	d127      	bne.n	8002956 <ADC_DMAConvCplt+0x6a>
  {
    /* Update ADC state machine */
    SET_BIT(hadc->State, HAL_ADC_STATE_REG_EOC);
 8002906:	68fb      	ldr	r3, [r7, #12]
 8002908:	6a9b      	ldr	r3, [r3, #40]	; 0x28
 800290a:	f443 7200 	orr.w	r2, r3, #512	; 0x200
 800290e:	68fb      	ldr	r3, [r7, #12]
 8002910:	629a      	str	r2, [r3, #40]	; 0x28
    /* Determine whether any further conversion upcoming on group regular     */
    /* by external trigger, continuous mode or scan sequence on going.        */
    /* Note: On STM32F1 devices, in case of sequencer enabled                 */
    /*       (several ranks selected), end of conversion flag is raised       */
    /*       at the end of the sequence.                                      */
    if(ADC_IS_SOFTWARE_START_REGULAR(hadc)        && 
 8002912:	68fb      	ldr	r3, [r7, #12]
 8002914:	681b      	ldr	r3, [r3, #0]
 8002916:	689b      	ldr	r3, [r3, #8]
 8002918:	f403 2360 	and.w	r3, r3, #917504	; 0xe0000
 800291c:	f5b3 2f60 	cmp.w	r3, #917504	; 0xe0000
 8002920:	d115      	bne.n	800294e <ADC_DMAConvCplt+0x62>
       (hadc->Init.ContinuousConvMode == DISABLE)   )
 8002922:	68fb      	ldr	r3, [r7, #12]
 8002924:	7b1b      	ldrb	r3, [r3, #12]
    if(ADC_IS_SOFTWARE_START_REGULAR(hadc)        && 
 8002926:	2b00      	cmp	r3, #0
 8002928:	d111      	bne.n	800294e <ADC_DMAConvCplt+0x62>
    {
      /* Set ADC state */
      CLEAR_BIT(hadc->State, HAL_ADC_STATE_REG_BUSY);   
 800292a:	68fb      	ldr	r3, [r7, #12]
 800292c:	6a9b      	ldr	r3, [r3, #40]	; 0x28
 800292e:	f423 7280 	bic.w	r2, r3, #256	; 0x100
 8002932:	68fb      	ldr	r3, [r7, #12]
 8002934:	629a      	str	r2, [r3, #40]	; 0x28
      
      if (HAL_IS_BIT_CLR(hadc->State, HAL_ADC_STATE_INJ_BUSY))
 8002936:	68fb      	ldr	r3, [r7, #12]
 8002938:	6a9b      	ldr	r3, [r3, #40]	; 0x28
 800293a:	f403 5380 	and.w	r3, r3, #4096	; 0x1000
 800293e:	2b00      	cmp	r3, #0
 8002940:	d105      	bne.n	800294e <ADC_DMAConvCplt+0x62>
      {
        SET_BIT(hadc->State, HAL_ADC_STATE_READY);
 8002942:	68fb      	ldr	r3, [r7, #12]
 8002944:	6a9b      	ldr	r3, [r3, #40]	; 0x28
 8002946:	f043 0201 	orr.w	r2, r3, #1
 800294a:	68fb      	ldr	r3, [r7, #12]
 800294c:	629a      	str	r2, [r3, #40]	; 0x28
    
    /* Conversion complete callback */
#if (USE_HAL_ADC_REGISTER_CALLBACKS == 1)
    hadc->ConvCpltCallback(hadc);
#else
    HAL_ADC_ConvCpltCallback(hadc);
 800294e:	68f8      	ldr	r0, [r7, #12]
 8002950:	f7ff fe2c 	bl	80025ac <HAL_ADC_ConvCpltCallback>
  else
  {
    /* Call DMA error callback */
    hadc->DMA_Handle->XferErrorCallback(hdma);
  }
}
 8002954:	e004      	b.n	8002960 <ADC_DMAConvCplt+0x74>
    hadc->DMA_Handle->XferErrorCallback(hdma);
 8002956:	68fb      	ldr	r3, [r7, #12]
 8002958:	6a1b      	ldr	r3, [r3, #32]
 800295a:	6b1b      	ldr	r3, [r3, #48]	; 0x30
 800295c:	6878      	ldr	r0, [r7, #4]
 800295e:	4798      	blx	r3
}
 8002960:	bf00      	nop
 8002962:	3710      	adds	r7, #16
 8002964:	46bd      	mov	sp, r7
 8002966:	bd80      	pop	{r7, pc}

08002968 <ADC_DMAHalfConvCplt>:
  * @brief  DMA half transfer complete callback. 
  * @param  hdma: pointer to DMA handle.
  * @retval None
  */
void ADC_DMAHalfConvCplt(DMA_HandleTypeDef *hdma)   
{
 8002968:	b580      	push	{r7, lr}
 800296a:	b084      	sub	sp, #16
 800296c:	af00      	add	r7, sp, #0
 800296e:	6078      	str	r0, [r7, #4]
  /* Retrieve ADC handle corresponding to current DMA handle */
  ADC_HandleTypeDef* hadc = ( ADC_HandleTypeDef* )((DMA_HandleTypeDef* )hdma)->Parent;
 8002970:	687b      	ldr	r3, [r7, #4]
 8002972:	6a5b      	ldr	r3, [r3, #36]	; 0x24
 8002974:	60fb      	str	r3, [r7, #12]
  
  /* Half conversion callback */
#if (USE_HAL_ADC_REGISTER_CALLBACKS == 1)
    hadc->ConvHalfCpltCallback(hadc);
#else
  HAL_ADC_ConvHalfCpltCallback(hadc);
 8002976:	68f8      	ldr	r0, [r7, #12]
 8002978:	f7ff fe21 	bl	80025be <HAL_ADC_ConvHalfCpltCallback>
#endif /* USE_HAL_ADC_REGISTER_CALLBACKS */
}
 800297c:	bf00      	nop
 800297e:	3710      	adds	r7, #16
 8002980:	46bd      	mov	sp, r7
 8002982:	bd80      	pop	{r7, pc}

08002984 <ADC_DMAError>:
  * @brief  DMA error callback 
  * @param  hdma: pointer to DMA handle.
  * @retval None
  */
void ADC_DMAError(DMA_HandleTypeDef *hdma)   
{
 8002984:	b580      	push	{r7, lr}
 8002986:	b084      	sub	sp, #16
 8002988:	af00      	add	r7, sp, #0
 800298a:	6078      	str	r0, [r7, #4]
  /* Retrieve ADC handle corresponding to current DMA handle */
  ADC_HandleTypeDef* hadc = ( ADC_HandleTypeDef* )((DMA_HandleTypeDef* )hdma)->Parent;
 800298c:	687b      	ldr	r3, [r7, #4]
 800298e:	6a5b      	ldr	r3, [r3, #36]	; 0x24
 8002990:	60fb      	str	r3, [r7, #12]
  
  /* Set ADC state */
  SET_BIT(hadc->State, HAL_ADC_STATE_ERROR_DMA);
 8002992:	68fb      	ldr	r3, [r7, #12]
 8002994:	6a9b      	ldr	r3, [r3, #40]	; 0x28
 8002996:	f043 0240 	orr.w	r2, r3, #64	; 0x40
 800299a:	68fb      	ldr	r3, [r7, #12]
 800299c:	629a      	str	r2, [r3, #40]	; 0x28
  
  /* Set ADC error code to DMA error */
  SET_BIT(hadc->ErrorCode, HAL_ADC_ERROR_DMA);
 800299e:	68fb      	ldr	r3, [r7, #12]
 80029a0:	6adb      	ldr	r3, [r3, #44]	; 0x2c
 80029a2:	f043 0204 	orr.w	r2, r3, #4
 80029a6:	68fb      	ldr	r3, [r7, #12]
 80029a8:	62da      	str	r2, [r3, #44]	; 0x2c
  
  /* Error callback */
#if (USE_HAL_ADC_REGISTER_CALLBACKS == 1)
  hadc->ErrorCallback(hadc);
#else
  HAL_ADC_ErrorCallback(hadc);
 80029aa:	68f8      	ldr	r0, [r7, #12]
 80029ac:	f7ff fe10 	bl	80025d0 <HAL_ADC_ErrorCallback>
#endif /* USE_HAL_ADC_REGISTER_CALLBACKS */
}
 80029b0:	bf00      	nop
 80029b2:	3710      	adds	r7, #16
 80029b4:	46bd      	mov	sp, r7
 80029b6:	bd80      	pop	{r7, pc}

080029b8 <HAL_CAN_Init>:
  * @param  hcan pointer to a CAN_HandleTypeDef structure that contains
  *         the configuration information for the specified CAN.
  * @retval HAL status
  */
HAL_StatusTypeDef HAL_CAN_Init(CAN_HandleTypeDef *hcan)
{
 80029b8:	b580      	push	{r7, lr}
 80029ba:	b084      	sub	sp, #16
 80029bc:	af00      	add	r7, sp, #0
 80029be:	6078      	str	r0, [r7, #4]
  uint32_t tickstart;

  /* Check CAN handle */
  if (hcan == NULL)
 80029c0:	687b      	ldr	r3, [r7, #4]
 80029c2:	2b00      	cmp	r3, #0
 80029c4:	d101      	bne.n	80029ca <HAL_CAN_Init+0x12>
  {
    return HAL_ERROR;
 80029c6:	2301      	movs	r3, #1
 80029c8:	e0ed      	b.n	8002ba6 <HAL_CAN_Init+0x1ee>
    /* Init the low level hardware: CLOCK, NVIC */
    hcan->MspInitCallback(hcan);
  }

#else
  if (hcan->State == HAL_CAN_STATE_RESET)
 80029ca:	687b      	ldr	r3, [r7, #4]
 80029cc:	f893 3020 	ldrb.w	r3, [r3, #32]
 80029d0:	b2db      	uxtb	r3, r3
 80029d2:	2b00      	cmp	r3, #0
 80029d4:	d102      	bne.n	80029dc <HAL_CAN_Init+0x24>
  {
    /* Init the low level hardware: CLOCK, NVIC */
    HAL_CAN_MspInit(hcan);
 80029d6:	6878      	ldr	r0, [r7, #4]
 80029d8:	f7ff fa80 	bl	8001edc <HAL_CAN_MspInit>
  }
#endif /* (USE_HAL_CAN_REGISTER_CALLBACKS) */

  /* Exit from sleep mode */
  CLEAR_BIT(hcan->Instance->MCR, CAN_MCR_SLEEP);
 80029dc:	687b      	ldr	r3, [r7, #4]
 80029de:	681b      	ldr	r3, [r3, #0]
 80029e0:	681a      	ldr	r2, [r3, #0]
 80029e2:	687b      	ldr	r3, [r7, #4]
 80029e4:	681b      	ldr	r3, [r3, #0]
 80029e6:	f022 0202 	bic.w	r2, r2, #2
 80029ea:	601a      	str	r2, [r3, #0]

  /* Get tick */
  tickstart = HAL_GetTick();
 80029ec:	f7ff fbfc 	bl	80021e8 <HAL_GetTick>
 80029f0:	60f8      	str	r0, [r7, #12]

  /* Check Sleep mode leave acknowledge */
  while ((hcan->Instance->MSR & CAN_MSR_SLAK) != 0U)
 80029f2:	e012      	b.n	8002a1a <HAL_CAN_Init+0x62>
  {
    if ((HAL_GetTick() - tickstart) > CAN_TIMEOUT_VALUE)
 80029f4:	f7ff fbf8 	bl	80021e8 <HAL_GetTick>
 80029f8:	4602      	mov	r2, r0
 80029fa:	68fb      	ldr	r3, [r7, #12]
 80029fc:	1ad3      	subs	r3, r2, r3
 80029fe:	2b0a      	cmp	r3, #10
 8002a00:	d90b      	bls.n	8002a1a <HAL_CAN_Init+0x62>
    {
      /* Update error code */
      hcan->ErrorCode |= HAL_CAN_ERROR_TIMEOUT;
 8002a02:	687b      	ldr	r3, [r7, #4]
 8002a04:	6a5b      	ldr	r3, [r3, #36]	; 0x24
 8002a06:	f443 3200 	orr.w	r2, r3, #131072	; 0x20000
 8002a0a:	687b      	ldr	r3, [r7, #4]
 8002a0c:	625a      	str	r2, [r3, #36]	; 0x24

      /* Change CAN state */
      hcan->State = HAL_CAN_STATE_ERROR;
 8002a0e:	687b      	ldr	r3, [r7, #4]
 8002a10:	2205      	movs	r2, #5
 8002a12:	f883 2020 	strb.w	r2, [r3, #32]

      return HAL_ERROR;
 8002a16:	2301      	movs	r3, #1
 8002a18:	e0c5      	b.n	8002ba6 <HAL_CAN_Init+0x1ee>
  while ((hcan->Instance->MSR & CAN_MSR_SLAK) != 0U)
 8002a1a:	687b      	ldr	r3, [r7, #4]
 8002a1c:	681b      	ldr	r3, [r3, #0]
 8002a1e:	685b      	ldr	r3, [r3, #4]
 8002a20:	f003 0302 	and.w	r3, r3, #2
 8002a24:	2b00      	cmp	r3, #0
 8002a26:	d1e5      	bne.n	80029f4 <HAL_CAN_Init+0x3c>
    }
  }

  /* Request initialisation */
  SET_BIT(hcan->Instance->MCR, CAN_MCR_INRQ);
 8002a28:	687b      	ldr	r3, [r7, #4]
 8002a2a:	681b      	ldr	r3, [r3, #0]
 8002a2c:	681a      	ldr	r2, [r3, #0]
 8002a2e:	687b      	ldr	r3, [r7, #4]
 8002a30:	681b      	ldr	r3, [r3, #0]
 8002a32:	f042 0201 	orr.w	r2, r2, #1
 8002a36:	601a      	str	r2, [r3, #0]

  /* Get tick */
  tickstart = HAL_GetTick();
 8002a38:	f7ff fbd6 	bl	80021e8 <HAL_GetTick>
 8002a3c:	60f8      	str	r0, [r7, #12]

  /* Wait initialisation acknowledge */
  while ((hcan->Instance->MSR & CAN_MSR_INAK) == 0U)
 8002a3e:	e012      	b.n	8002a66 <HAL_CAN_Init+0xae>
  {
    if ((HAL_GetTick() - tickstart) > CAN_TIMEOUT_VALUE)
 8002a40:	f7ff fbd2 	bl	80021e8 <HAL_GetTick>
 8002a44:	4602      	mov	r2, r0
 8002a46:	68fb      	ldr	r3, [r7, #12]
 8002a48:	1ad3      	subs	r3, r2, r3
 8002a4a:	2b0a      	cmp	r3, #10
 8002a4c:	d90b      	bls.n	8002a66 <HAL_CAN_Init+0xae>
    {
      /* Update error code */
      hcan->ErrorCode |= HAL_CAN_ERROR_TIMEOUT;
 8002a4e:	687b      	ldr	r3, [r7, #4]
 8002a50:	6a5b      	ldr	r3, [r3, #36]	; 0x24
 8002a52:	f443 3200 	orr.w	r2, r3, #131072	; 0x20000
 8002a56:	687b      	ldr	r3, [r7, #4]
 8002a58:	625a      	str	r2, [r3, #36]	; 0x24

      /* Change CAN state */
      hcan->State = HAL_CAN_STATE_ERROR;
 8002a5a:	687b      	ldr	r3, [r7, #4]
 8002a5c:	2205      	movs	r2, #5
 8002a5e:	f883 2020 	strb.w	r2, [r3, #32]

      return HAL_ERROR;
 8002a62:	2301      	movs	r3, #1
 8002a64:	e09f      	b.n	8002ba6 <HAL_CAN_Init+0x1ee>
  while ((hcan->Instance->MSR & CAN_MSR_INAK) == 0U)
 8002a66:	687b      	ldr	r3, [r7, #4]
 8002a68:	681b      	ldr	r3, [r3, #0]
 8002a6a:	685b      	ldr	r3, [r3, #4]
 8002a6c:	f003 0301 	and.w	r3, r3, #1
 8002a70:	2b00      	cmp	r3, #0
 8002a72:	d0e5      	beq.n	8002a40 <HAL_CAN_Init+0x88>
    }
  }

  /* Set the time triggered communication mode */
  if (hcan->Init.TimeTriggeredMode == ENABLE)
 8002a74:	687b      	ldr	r3, [r7, #4]
 8002a76:	7e1b      	ldrb	r3, [r3, #24]
 8002a78:	2b01      	cmp	r3, #1
 8002a7a:	d108      	bne.n	8002a8e <HAL_CAN_Init+0xd6>
  {
    SET_BIT(hcan->Instance->MCR, CAN_MCR_TTCM);
 8002a7c:	687b      	ldr	r3, [r7, #4]
 8002a7e:	681b      	ldr	r3, [r3, #0]
 8002a80:	681a      	ldr	r2, [r3, #0]
 8002a82:	687b      	ldr	r3, [r7, #4]
 8002a84:	681b      	ldr	r3, [r3, #0]
 8002a86:	f042 0280 	orr.w	r2, r2, #128	; 0x80
 8002a8a:	601a      	str	r2, [r3, #0]
 8002a8c:	e007      	b.n	8002a9e <HAL_CAN_Init+0xe6>
  }
  else
  {
    CLEAR_BIT(hcan->Instance->MCR, CAN_MCR_TTCM);
 8002a8e:	687b      	ldr	r3, [r7, #4]
 8002a90:	681b      	ldr	r3, [r3, #0]
 8002a92:	681a      	ldr	r2, [r3, #0]
 8002a94:	687b      	ldr	r3, [r7, #4]
 8002a96:	681b      	ldr	r3, [r3, #0]
 8002a98:	f022 0280 	bic.w	r2, r2, #128	; 0x80
 8002a9c:	601a      	str	r2, [r3, #0]
  }

  /* Set the automatic bus-off management */
  if (hcan->Init.AutoBusOff == ENABLE)
 8002a9e:	687b      	ldr	r3, [r7, #4]
 8002aa0:	7e5b      	ldrb	r3, [r3, #25]
 8002aa2:	2b01      	cmp	r3, #1
 8002aa4:	d108      	bne.n	8002ab8 <HAL_CAN_Init+0x100>
  {
    SET_BIT(hcan->Instance->MCR, CAN_MCR_ABOM);
 8002aa6:	687b      	ldr	r3, [r7, #4]
 8002aa8:	681b      	ldr	r3, [r3, #0]
 8002aaa:	681a      	ldr	r2, [r3, #0]
 8002aac:	687b      	ldr	r3, [r7, #4]
 8002aae:	681b      	ldr	r3, [r3, #0]
 8002ab0:	f042 0240 	orr.w	r2, r2, #64	; 0x40
 8002ab4:	601a      	str	r2, [r3, #0]
 8002ab6:	e007      	b.n	8002ac8 <HAL_CAN_Init+0x110>
  }
  else
  {
    CLEAR_BIT(hcan->Instance->MCR, CAN_MCR_ABOM);
 8002ab8:	687b      	ldr	r3, [r7, #4]
 8002aba:	681b      	ldr	r3, [r3, #0]
 8002abc:	681a      	ldr	r2, [r3, #0]
 8002abe:	687b      	ldr	r3, [r7, #4]
 8002ac0:	681b      	ldr	r3, [r3, #0]
 8002ac2:	f022 0240 	bic.w	r2, r2, #64	; 0x40
 8002ac6:	601a      	str	r2, [r3, #0]
  }

  /* Set the automatic wake-up mode */
  if (hcan->Init.AutoWakeUp == ENABLE)
 8002ac8:	687b      	ldr	r3, [r7, #4]
 8002aca:	7e9b      	ldrb	r3, [r3, #26]
 8002acc:	2b01      	cmp	r3, #1
 8002ace:	d108      	bne.n	8002ae2 <HAL_CAN_Init+0x12a>
  {
    SET_BIT(hcan->Instance->MCR, CAN_MCR_AWUM);
 8002ad0:	687b      	ldr	r3, [r7, #4]
 8002ad2:	681b      	ldr	r3, [r3, #0]
 8002ad4:	681a      	ldr	r2, [r3, #0]
 8002ad6:	687b      	ldr	r3, [r7, #4]
 8002ad8:	681b      	ldr	r3, [r3, #0]
 8002ada:	f042 0220 	orr.w	r2, r2, #32
 8002ade:	601a      	str	r2, [r3, #0]
 8002ae0:	e007      	b.n	8002af2 <HAL_CAN_Init+0x13a>
  }
  else
  {
    CLEAR_BIT(hcan->Instance->MCR, CAN_MCR_AWUM);
 8002ae2:	687b      	ldr	r3, [r7, #4]
 8002ae4:	681b      	ldr	r3, [r3, #0]
 8002ae6:	681a      	ldr	r2, [r3, #0]
 8002ae8:	687b      	ldr	r3, [r7, #4]
 8002aea:	681b      	ldr	r3, [r3, #0]
 8002aec:	f022 0220 	bic.w	r2, r2, #32
 8002af0:	601a      	str	r2, [r3, #0]
  }

  /* Set the automatic retransmission */
  if (hcan->Init.AutoRetransmission == ENABLE)
 8002af2:	687b      	ldr	r3, [r7, #4]
 8002af4:	7edb      	ldrb	r3, [r3, #27]
 8002af6:	2b01      	cmp	r3, #1
 8002af8:	d108      	bne.n	8002b0c <HAL_CAN_Init+0x154>
  {
    CLEAR_BIT(hcan->Instance->MCR, CAN_MCR_NART);
 8002afa:	687b      	ldr	r3, [r7, #4]
 8002afc:	681b      	ldr	r3, [r3, #0]
 8002afe:	681a      	ldr	r2, [r3, #0]
 8002b00:	687b      	ldr	r3, [r7, #4]
 8002b02:	681b      	ldr	r3, [r3, #0]
 8002b04:	f022 0210 	bic.w	r2, r2, #16
 8002b08:	601a      	str	r2, [r3, #0]
 8002b0a:	e007      	b.n	8002b1c <HAL_CAN_Init+0x164>
  }
  else
  {
    SET_BIT(hcan->Instance->MCR, CAN_MCR_NART);
 8002b0c:	687b      	ldr	r3, [r7, #4]
 8002b0e:	681b      	ldr	r3, [r3, #0]
 8002b10:	681a      	ldr	r2, [r3, #0]
 8002b12:	687b      	ldr	r3, [r7, #4]
 8002b14:	681b      	ldr	r3, [r3, #0]
 8002b16:	f042 0210 	orr.w	r2, r2, #16
 8002b1a:	601a      	str	r2, [r3, #0]
  }

  /* Set the receive FIFO locked mode */
  if (hcan->Init.ReceiveFifoLocked == ENABLE)
 8002b1c:	687b      	ldr	r3, [r7, #4]
 8002b1e:	7f1b      	ldrb	r3, [r3, #28]
 8002b20:	2b01      	cmp	r3, #1
 8002b22:	d108      	bne.n	8002b36 <HAL_CAN_Init+0x17e>
  {
    SET_BIT(hcan->Instance->MCR, CAN_MCR_RFLM);
 8002b24:	687b      	ldr	r3, [r7, #4]
 8002b26:	681b      	ldr	r3, [r3, #0]
 8002b28:	681a      	ldr	r2, [r3, #0]
 8002b2a:	687b      	ldr	r3, [r7, #4]
 8002b2c:	681b      	ldr	r3, [r3, #0]
 8002b2e:	f042 0208 	orr.w	r2, r2, #8
 8002b32:	601a      	str	r2, [r3, #0]
 8002b34:	e007      	b.n	8002b46 <HAL_CAN_Init+0x18e>
  }
  else
  {
    CLEAR_BIT(hcan->Instance->MCR, CAN_MCR_RFLM);
 8002b36:	687b      	ldr	r3, [r7, #4]
 8002b38:	681b      	ldr	r3, [r3, #0]
 8002b3a:	681a      	ldr	r2, [r3, #0]
 8002b3c:	687b      	ldr	r3, [r7, #4]
 8002b3e:	681b      	ldr	r3, [r3, #0]
 8002b40:	f022 0208 	bic.w	r2, r2, #8
 8002b44:	601a      	str	r2, [r3, #0]
  }

  /* Set the transmit FIFO priority */
  if (hcan->Init.TransmitFifoPriority == ENABLE)
 8002b46:	687b      	ldr	r3, [r7, #4]
 8002b48:	7f5b      	ldrb	r3, [r3, #29]
 8002b4a:	2b01      	cmp	r3, #1
 8002b4c:	d108      	bne.n	8002b60 <HAL_CAN_Init+0x1a8>
  {
    SET_BIT(hcan->Instance->MCR, CAN_MCR_TXFP);
 8002b4e:	687b      	ldr	r3, [r7, #4]
 8002b50:	681b      	ldr	r3, [r3, #0]
 8002b52:	681a      	ldr	r2, [r3, #0]
 8002b54:	687b      	ldr	r3, [r7, #4]
 8002b56:	681b      	ldr	r3, [r3, #0]
 8002b58:	f042 0204 	orr.w	r2, r2, #4
 8002b5c:	601a      	str	r2, [r3, #0]
 8002b5e:	e007      	b.n	8002b70 <HAL_CAN_Init+0x1b8>
  }
  else
  {
    CLEAR_BIT(hcan->Instance->MCR, CAN_MCR_TXFP);
 8002b60:	687b      	ldr	r3, [r7, #4]
 8002b62:	681b      	ldr	r3, [r3, #0]
 8002b64:	681a      	ldr	r2, [r3, #0]
 8002b66:	687b      	ldr	r3, [r7, #4]
 8002b68:	681b      	ldr	r3, [r3, #0]
 8002b6a:	f022 0204 	bic.w	r2, r2, #4
 8002b6e:	601a      	str	r2, [r3, #0]
  }

  /* Set the bit timing register */
  WRITE_REG(hcan->Instance->BTR, (uint32_t)(hcan->Init.Mode           |
 8002b70:	687b      	ldr	r3, [r7, #4]
 8002b72:	689a      	ldr	r2, [r3, #8]
 8002b74:	687b      	ldr	r3, [r7, #4]
 8002b76:	68db      	ldr	r3, [r3, #12]
 8002b78:	431a      	orrs	r2, r3
 8002b7a:	687b      	ldr	r3, [r7, #4]
 8002b7c:	691b      	ldr	r3, [r3, #16]
 8002b7e:	431a      	orrs	r2, r3
 8002b80:	687b      	ldr	r3, [r7, #4]
 8002b82:	695b      	ldr	r3, [r3, #20]
 8002b84:	ea42 0103 	orr.w	r1, r2, r3
 8002b88:	687b      	ldr	r3, [r7, #4]
 8002b8a:	685b      	ldr	r3, [r3, #4]
 8002b8c:	1e5a      	subs	r2, r3, #1
 8002b8e:	687b      	ldr	r3, [r7, #4]
 8002b90:	681b      	ldr	r3, [r3, #0]
 8002b92:	430a      	orrs	r2, r1
 8002b94:	61da      	str	r2, [r3, #28]
                                            hcan->Init.TimeSeg1       |
                                            hcan->Init.TimeSeg2       |
                                            (hcan->Init.Prescaler - 1U)));

  /* Initialize the error code */
  hcan->ErrorCode = HAL_CAN_ERROR_NONE;
 8002b96:	687b      	ldr	r3, [r7, #4]
 8002b98:	2200      	movs	r2, #0
 8002b9a:	625a      	str	r2, [r3, #36]	; 0x24

  /* Initialize the CAN state */
  hcan->State = HAL_CAN_STATE_READY;
 8002b9c:	687b      	ldr	r3, [r7, #4]
 8002b9e:	2201      	movs	r2, #1
 8002ba0:	f883 2020 	strb.w	r2, [r3, #32]

  /* Return function status */
  return HAL_OK;
 8002ba4:	2300      	movs	r3, #0
}
 8002ba6:	4618      	mov	r0, r3
 8002ba8:	3710      	adds	r7, #16
 8002baa:	46bd      	mov	sp, r7
 8002bac:	bd80      	pop	{r7, pc}

08002bae <HAL_CAN_ConfigFilter>:
  * @param  sFilterConfig pointer to a CAN_FilterTypeDef structure that
  *         contains the filter configuration information.
  * @retval None
  */
HAL_StatusTypeDef HAL_CAN_ConfigFilter(CAN_HandleTypeDef *hcan, CAN_FilterTypeDef *sFilterConfig)
{
 8002bae:	b480      	push	{r7}
 8002bb0:	b087      	sub	sp, #28
 8002bb2:	af00      	add	r7, sp, #0
 8002bb4:	6078      	str	r0, [r7, #4]
 8002bb6:	6039      	str	r1, [r7, #0]
  uint32_t filternbrbitpos;
  CAN_TypeDef *can_ip = hcan->Instance;
 8002bb8:	687b      	ldr	r3, [r7, #4]
 8002bba:	681b      	ldr	r3, [r3, #0]
 8002bbc:	617b      	str	r3, [r7, #20]
  HAL_CAN_StateTypeDef state = hcan->State;
 8002bbe:	687b      	ldr	r3, [r7, #4]
 8002bc0:	f893 3020 	ldrb.w	r3, [r3, #32]
 8002bc4:	74fb      	strb	r3, [r7, #19]

  if ((state == HAL_CAN_STATE_READY) ||
 8002bc6:	7cfb      	ldrb	r3, [r7, #19]
 8002bc8:	2b01      	cmp	r3, #1
 8002bca:	d003      	beq.n	8002bd4 <HAL_CAN_ConfigFilter+0x26>
 8002bcc:	7cfb      	ldrb	r3, [r7, #19]
 8002bce:	2b02      	cmp	r3, #2
 8002bd0:	f040 80aa 	bne.w	8002d28 <HAL_CAN_ConfigFilter+0x17a>
    /* Check the parameters */
    assert_param(IS_CAN_FILTER_BANK_SINGLE(sFilterConfig->FilterBank));
#endif

    /* Initialisation mode for the filter */
    SET_BIT(can_ip->FMR, CAN_FMR_FINIT);
 8002bd4:	697b      	ldr	r3, [r7, #20]
 8002bd6:	f8d3 3200 	ldr.w	r3, [r3, #512]	; 0x200
 8002bda:	f043 0201 	orr.w	r2, r3, #1
 8002bde:	697b      	ldr	r3, [r7, #20]
 8002be0:	f8c3 2200 	str.w	r2, [r3, #512]	; 0x200
    CLEAR_BIT(can_ip->FMR, CAN_FMR_CAN2SB);
    SET_BIT(can_ip->FMR, sFilterConfig->SlaveStartFilterBank << CAN_FMR_CAN2SB_Pos);

#endif
    /* Convert filter number into bit position */
    filternbrbitpos = (uint32_t)1 << (sFilterConfig->FilterBank & 0x1FU);
 8002be4:	683b      	ldr	r3, [r7, #0]
 8002be6:	695b      	ldr	r3, [r3, #20]
 8002be8:	f003 031f 	and.w	r3, r3, #31
 8002bec:	2201      	movs	r2, #1
 8002bee:	fa02 f303 	lsl.w	r3, r2, r3
 8002bf2:	60fb      	str	r3, [r7, #12]

    /* Filter Deactivation */
    CLEAR_BIT(can_ip->FA1R, filternbrbitpos);
 8002bf4:	697b      	ldr	r3, [r7, #20]
 8002bf6:	f8d3 221c 	ldr.w	r2, [r3, #540]	; 0x21c
 8002bfa:	68fb      	ldr	r3, [r7, #12]
 8002bfc:	43db      	mvns	r3, r3
 8002bfe:	401a      	ands	r2, r3
 8002c00:	697b      	ldr	r3, [r7, #20]
 8002c02:	f8c3 221c 	str.w	r2, [r3, #540]	; 0x21c

    /* Filter Scale */
    if (sFilterConfig->FilterScale == CAN_FILTERSCALE_16BIT)
 8002c06:	683b      	ldr	r3, [r7, #0]
 8002c08:	69db      	ldr	r3, [r3, #28]
 8002c0a:	2b00      	cmp	r3, #0
 8002c0c:	d123      	bne.n	8002c56 <HAL_CAN_ConfigFilter+0xa8>
    {
      /* 16-bit scale for the filter */
      CLEAR_BIT(can_ip->FS1R, filternbrbitpos);
 8002c0e:	697b      	ldr	r3, [r7, #20]
 8002c10:	f8d3 220c 	ldr.w	r2, [r3, #524]	; 0x20c
 8002c14:	68fb      	ldr	r3, [r7, #12]
 8002c16:	43db      	mvns	r3, r3
 8002c18:	401a      	ands	r2, r3
 8002c1a:	697b      	ldr	r3, [r7, #20]
 8002c1c:	f8c3 220c 	str.w	r2, [r3, #524]	; 0x20c

      /* First 16-bit identifier and First 16-bit mask */
      /* Or First 16-bit identifier and Second 16-bit identifier */
      can_ip->sFilterRegister[sFilterConfig->FilterBank].FR1 =
        ((0x0000FFFFU & (uint32_t)sFilterConfig->FilterMaskIdLow) << 16U) |
 8002c20:	683b      	ldr	r3, [r7, #0]
 8002c22:	68db      	ldr	r3, [r3, #12]
 8002c24:	0419      	lsls	r1, r3, #16
        (0x0000FFFFU & (uint32_t)sFilterConfig->FilterIdLow);
 8002c26:	683b      	ldr	r3, [r7, #0]
 8002c28:	685b      	ldr	r3, [r3, #4]
 8002c2a:	b29b      	uxth	r3, r3
      can_ip->sFilterRegister[sFilterConfig->FilterBank].FR1 =
 8002c2c:	683a      	ldr	r2, [r7, #0]
 8002c2e:	6952      	ldr	r2, [r2, #20]
        ((0x0000FFFFU & (uint32_t)sFilterConfig->FilterMaskIdLow) << 16U) |
 8002c30:	4319      	orrs	r1, r3
      can_ip->sFilterRegister[sFilterConfig->FilterBank].FR1 =
 8002c32:	697b      	ldr	r3, [r7, #20]
 8002c34:	3248      	adds	r2, #72	; 0x48
 8002c36:	f843 1032 	str.w	r1, [r3, r2, lsl #3]

      /* Second 16-bit identifier and Second 16-bit mask */
      /* Or Third 16-bit identifier and Fourth 16-bit identifier */
      can_ip->sFilterRegister[sFilterConfig->FilterBank].FR2 =
        ((0x0000FFFFU & (uint32_t)sFilterConfig->FilterMaskIdHigh) << 16U) |
 8002c3a:	683b      	ldr	r3, [r7, #0]
 8002c3c:	689b      	ldr	r3, [r3, #8]
 8002c3e:	0419      	lsls	r1, r3, #16
        (0x0000FFFFU & (uint32_t)sFilterConfig->FilterIdHigh);
 8002c40:	683b      	ldr	r3, [r7, #0]
 8002c42:	681b      	ldr	r3, [r3, #0]
 8002c44:	b29a      	uxth	r2, r3
      can_ip->sFilterRegister[sFilterConfig->FilterBank].FR2 =
 8002c46:	683b      	ldr	r3, [r7, #0]
 8002c48:	695b      	ldr	r3, [r3, #20]
        ((0x0000FFFFU & (uint32_t)sFilterConfig->FilterMaskIdHigh) << 16U) |
 8002c4a:	430a      	orrs	r2, r1
      can_ip->sFilterRegister[sFilterConfig->FilterBank].FR2 =
 8002c4c:	6979      	ldr	r1, [r7, #20]
 8002c4e:	3348      	adds	r3, #72	; 0x48
 8002c50:	00db      	lsls	r3, r3, #3
 8002c52:	440b      	add	r3, r1
 8002c54:	605a      	str	r2, [r3, #4]
    }

    if (sFilterConfig->FilterScale == CAN_FILTERSCALE_32BIT)
 8002c56:	683b      	ldr	r3, [r7, #0]
 8002c58:	69db      	ldr	r3, [r3, #28]
 8002c5a:	2b01      	cmp	r3, #1
 8002c5c:	d122      	bne.n	8002ca4 <HAL_CAN_ConfigFilter+0xf6>
    {
      /* 32-bit scale for the filter */
      SET_BIT(can_ip->FS1R, filternbrbitpos);
 8002c5e:	697b      	ldr	r3, [r7, #20]
 8002c60:	f8d3 220c 	ldr.w	r2, [r3, #524]	; 0x20c
 8002c64:	68fb      	ldr	r3, [r7, #12]
 8002c66:	431a      	orrs	r2, r3
 8002c68:	697b      	ldr	r3, [r7, #20]
 8002c6a:	f8c3 220c 	str.w	r2, [r3, #524]	; 0x20c

      /* 32-bit identifier or First 32-bit identifier */
      can_ip->sFilterRegister[sFilterConfig->FilterBank].FR1 =
        ((0x0000FFFFU & (uint32_t)sFilterConfig->FilterIdHigh) << 16U) |
 8002c6e:	683b      	ldr	r3, [r7, #0]
 8002c70:	681b      	ldr	r3, [r3, #0]
 8002c72:	0419      	lsls	r1, r3, #16
        (0x0000FFFFU & (uint32_t)sFilterConfig->FilterIdLow);
 8002c74:	683b      	ldr	r3, [r7, #0]
 8002c76:	685b      	ldr	r3, [r3, #4]
 8002c78:	b29b      	uxth	r3, r3
      can_ip->sFilterRegister[sFilterConfig->FilterBank].FR1 =
 8002c7a:	683a      	ldr	r2, [r7, #0]
 8002c7c:	6952      	ldr	r2, [r2, #20]
        ((0x0000FFFFU & (uint32_t)sFilterConfig->FilterIdHigh) << 16U) |
 8002c7e:	4319      	orrs	r1, r3
      can_ip->sFilterRegister[sFilterConfig->FilterBank].FR1 =
 8002c80:	697b      	ldr	r3, [r7, #20]
 8002c82:	3248      	adds	r2, #72	; 0x48
 8002c84:	f843 1032 	str.w	r1, [r3, r2, lsl #3]

      /* 32-bit mask or Second 32-bit identifier */
      can_ip->sFilterRegister[sFilterConfig->FilterBank].FR2 =
        ((0x0000FFFFU & (uint32_t)sFilterConfig->FilterMaskIdHigh) << 16U) |
 8002c88:	683b      	ldr	r3, [r7, #0]
 8002c8a:	689b      	ldr	r3, [r3, #8]
 8002c8c:	0419      	lsls	r1, r3, #16
        (0x0000FFFFU & (uint32_t)sFilterConfig->FilterMaskIdLow);
 8002c8e:	683b      	ldr	r3, [r7, #0]
 8002c90:	68db      	ldr	r3, [r3, #12]
 8002c92:	b29a      	uxth	r2, r3
      can_ip->sFilterRegister[sFilterConfig->FilterBank].FR2 =
 8002c94:	683b      	ldr	r3, [r7, #0]
 8002c96:	695b      	ldr	r3, [r3, #20]
        ((0x0000FFFFU & (uint32_t)sFilterConfig->FilterMaskIdHigh) << 16U) |
 8002c98:	430a      	orrs	r2, r1
      can_ip->sFilterRegister[sFilterConfig->FilterBank].FR2 =
 8002c9a:	6979      	ldr	r1, [r7, #20]
 8002c9c:	3348      	adds	r3, #72	; 0x48
 8002c9e:	00db      	lsls	r3, r3, #3
 8002ca0:	440b      	add	r3, r1
 8002ca2:	605a      	str	r2, [r3, #4]
    }

    /* Filter Mode */
    if (sFilterConfig->FilterMode == CAN_FILTERMODE_IDMASK)
 8002ca4:	683b      	ldr	r3, [r7, #0]
 8002ca6:	699b      	ldr	r3, [r3, #24]
 8002ca8:	2b00      	cmp	r3, #0
 8002caa:	d109      	bne.n	8002cc0 <HAL_CAN_ConfigFilter+0x112>
    {
      /* Id/Mask mode for the filter*/
      CLEAR_BIT(can_ip->FM1R, filternbrbitpos);
 8002cac:	697b      	ldr	r3, [r7, #20]
 8002cae:	f8d3 2204 	ldr.w	r2, [r3, #516]	; 0x204
 8002cb2:	68fb      	ldr	r3, [r7, #12]
 8002cb4:	43db      	mvns	r3, r3
 8002cb6:	401a      	ands	r2, r3
 8002cb8:	697b      	ldr	r3, [r7, #20]
 8002cba:	f8c3 2204 	str.w	r2, [r3, #516]	; 0x204
 8002cbe:	e007      	b.n	8002cd0 <HAL_CAN_ConfigFilter+0x122>
    }
    else /* CAN_FilterInitStruct->CAN_FilterMode == CAN_FilterMode_IdList */
    {
      /* Identifier list mode for the filter*/
      SET_BIT(can_ip->FM1R, filternbrbitpos);
 8002cc0:	697b      	ldr	r3, [r7, #20]
 8002cc2:	f8d3 2204 	ldr.w	r2, [r3, #516]	; 0x204
 8002cc6:	68fb      	ldr	r3, [r7, #12]
 8002cc8:	431a      	orrs	r2, r3
 8002cca:	697b      	ldr	r3, [r7, #20]
 8002ccc:	f8c3 2204 	str.w	r2, [r3, #516]	; 0x204
    }

    /* Filter FIFO assignment */
    if (sFilterConfig->FilterFIFOAssignment == CAN_FILTER_FIFO0)
 8002cd0:	683b      	ldr	r3, [r7, #0]
 8002cd2:	691b      	ldr	r3, [r3, #16]
 8002cd4:	2b00      	cmp	r3, #0
 8002cd6:	d109      	bne.n	8002cec <HAL_CAN_ConfigFilter+0x13e>
    {
      /* FIFO 0 assignation for the filter */
      CLEAR_BIT(can_ip->FFA1R, filternbrbitpos);
 8002cd8:	697b      	ldr	r3, [r7, #20]
 8002cda:	f8d3 2214 	ldr.w	r2, [r3, #532]	; 0x214
 8002cde:	68fb      	ldr	r3, [r7, #12]
 8002ce0:	43db      	mvns	r3, r3
 8002ce2:	401a      	ands	r2, r3
 8002ce4:	697b      	ldr	r3, [r7, #20]
 8002ce6:	f8c3 2214 	str.w	r2, [r3, #532]	; 0x214
 8002cea:	e007      	b.n	8002cfc <HAL_CAN_ConfigFilter+0x14e>
    }
    else
    {
      /* FIFO 1 assignation for the filter */
      SET_BIT(can_ip->FFA1R, filternbrbitpos);
 8002cec:	697b      	ldr	r3, [r7, #20]
 8002cee:	f8d3 2214 	ldr.w	r2, [r3, #532]	; 0x214
 8002cf2:	68fb      	ldr	r3, [r7, #12]
 8002cf4:	431a      	orrs	r2, r3
 8002cf6:	697b      	ldr	r3, [r7, #20]
 8002cf8:	f8c3 2214 	str.w	r2, [r3, #532]	; 0x214
    }

    /* Filter activation */
    if (sFilterConfig->FilterActivation == CAN_FILTER_ENABLE)
 8002cfc:	683b      	ldr	r3, [r7, #0]
 8002cfe:	6a1b      	ldr	r3, [r3, #32]
 8002d00:	2b01      	cmp	r3, #1
 8002d02:	d107      	bne.n	8002d14 <HAL_CAN_ConfigFilter+0x166>
    {
      SET_BIT(can_ip->FA1R, filternbrbitpos);
 8002d04:	697b      	ldr	r3, [r7, #20]
 8002d06:	f8d3 221c 	ldr.w	r2, [r3, #540]	; 0x21c
 8002d0a:	68fb      	ldr	r3, [r7, #12]
 8002d0c:	431a      	orrs	r2, r3
 8002d0e:	697b      	ldr	r3, [r7, #20]
 8002d10:	f8c3 221c 	str.w	r2, [r3, #540]	; 0x21c
    }

    /* Leave the initialisation mode for the filter */
    CLEAR_BIT(can_ip->FMR, CAN_FMR_FINIT);
 8002d14:	697b      	ldr	r3, [r7, #20]
 8002d16:	f8d3 3200 	ldr.w	r3, [r3, #512]	; 0x200
 8002d1a:	f023 0201 	bic.w	r2, r3, #1
 8002d1e:	697b      	ldr	r3, [r7, #20]
 8002d20:	f8c3 2200 	str.w	r2, [r3, #512]	; 0x200

    /* Return function status */
    return HAL_OK;
 8002d24:	2300      	movs	r3, #0
 8002d26:	e006      	b.n	8002d36 <HAL_CAN_ConfigFilter+0x188>
  }
  else
  {
    /* Update error code */
    hcan->ErrorCode |= HAL_CAN_ERROR_NOT_INITIALIZED;
 8002d28:	687b      	ldr	r3, [r7, #4]
 8002d2a:	6a5b      	ldr	r3, [r3, #36]	; 0x24
 8002d2c:	f443 2280 	orr.w	r2, r3, #262144	; 0x40000
 8002d30:	687b      	ldr	r3, [r7, #4]
 8002d32:	625a      	str	r2, [r3, #36]	; 0x24

    return HAL_ERROR;
 8002d34:	2301      	movs	r3, #1
  }
}
 8002d36:	4618      	mov	r0, r3
 8002d38:	371c      	adds	r7, #28
 8002d3a:	46bd      	mov	sp, r7
 8002d3c:	bc80      	pop	{r7}
 8002d3e:	4770      	bx	lr

08002d40 <HAL_CAN_Start>:
  * @param  hcan pointer to an CAN_HandleTypeDef structure that contains
  *         the configuration information for the specified CAN.
  * @retval HAL status
  */
HAL_StatusTypeDef HAL_CAN_Start(CAN_HandleTypeDef *hcan)
{
 8002d40:	b580      	push	{r7, lr}
 8002d42:	b084      	sub	sp, #16
 8002d44:	af00      	add	r7, sp, #0
 8002d46:	6078      	str	r0, [r7, #4]
  uint32_t tickstart;

  if (hcan->State == HAL_CAN_STATE_READY)
 8002d48:	687b      	ldr	r3, [r7, #4]
 8002d4a:	f893 3020 	ldrb.w	r3, [r3, #32]
 8002d4e:	b2db      	uxtb	r3, r3
 8002d50:	2b01      	cmp	r3, #1
 8002d52:	d12e      	bne.n	8002db2 <HAL_CAN_Start+0x72>
  {
    /* Change CAN peripheral state */
    hcan->State = HAL_CAN_STATE_LISTENING;
 8002d54:	687b      	ldr	r3, [r7, #4]
 8002d56:	2202      	movs	r2, #2
 8002d58:	f883 2020 	strb.w	r2, [r3, #32]

    /* Request leave initialisation */
    CLEAR_BIT(hcan->Instance->MCR, CAN_MCR_INRQ);
 8002d5c:	687b      	ldr	r3, [r7, #4]
 8002d5e:	681b      	ldr	r3, [r3, #0]
 8002d60:	681a      	ldr	r2, [r3, #0]
 8002d62:	687b      	ldr	r3, [r7, #4]
 8002d64:	681b      	ldr	r3, [r3, #0]
 8002d66:	f022 0201 	bic.w	r2, r2, #1
 8002d6a:	601a      	str	r2, [r3, #0]

    /* Get tick */
    tickstart = HAL_GetTick();
 8002d6c:	f7ff fa3c 	bl	80021e8 <HAL_GetTick>
 8002d70:	60f8      	str	r0, [r7, #12]

    /* Wait the acknowledge */
    while ((hcan->Instance->MSR & CAN_MSR_INAK) != 0U)
 8002d72:	e012      	b.n	8002d9a <HAL_CAN_Start+0x5a>
    {
      /* Check for the Timeout */
      if ((HAL_GetTick() - tickstart) > CAN_TIMEOUT_VALUE)
 8002d74:	f7ff fa38 	bl	80021e8 <HAL_GetTick>
 8002d78:	4602      	mov	r2, r0
 8002d7a:	68fb      	ldr	r3, [r7, #12]
 8002d7c:	1ad3      	subs	r3, r2, r3
 8002d7e:	2b0a      	cmp	r3, #10
 8002d80:	d90b      	bls.n	8002d9a <HAL_CAN_Start+0x5a>
      {
        /* Update error code */
        hcan->ErrorCode |= HAL_CAN_ERROR_TIMEOUT;
 8002d82:	687b      	ldr	r3, [r7, #4]
 8002d84:	6a5b      	ldr	r3, [r3, #36]	; 0x24
 8002d86:	f443 3200 	orr.w	r2, r3, #131072	; 0x20000
 8002d8a:	687b      	ldr	r3, [r7, #4]
 8002d8c:	625a      	str	r2, [r3, #36]	; 0x24

        /* Change CAN state */
        hcan->State = HAL_CAN_STATE_ERROR;
 8002d8e:	687b      	ldr	r3, [r7, #4]
 8002d90:	2205      	movs	r2, #5
 8002d92:	f883 2020 	strb.w	r2, [r3, #32]

        return HAL_ERROR;
 8002d96:	2301      	movs	r3, #1
 8002d98:	e012      	b.n	8002dc0 <HAL_CAN_Start+0x80>
    while ((hcan->Instance->MSR & CAN_MSR_INAK) != 0U)
 8002d9a:	687b      	ldr	r3, [r7, #4]
 8002d9c:	681b      	ldr	r3, [r3, #0]
 8002d9e:	685b      	ldr	r3, [r3, #4]
 8002da0:	f003 0301 	and.w	r3, r3, #1
 8002da4:	2b00      	cmp	r3, #0
 8002da6:	d1e5      	bne.n	8002d74 <HAL_CAN_Start+0x34>
      }
    }

    /* Reset the CAN ErrorCode */
    hcan->ErrorCode = HAL_CAN_ERROR_NONE;
 8002da8:	687b      	ldr	r3, [r7, #4]
 8002daa:	2200      	movs	r2, #0
 8002dac:	625a      	str	r2, [r3, #36]	; 0x24

    /* Return function status */
    return HAL_OK;
 8002dae:	2300      	movs	r3, #0
 8002db0:	e006      	b.n	8002dc0 <HAL_CAN_Start+0x80>
  }
  else
  {
    /* Update error code */
    hcan->ErrorCode |= HAL_CAN_ERROR_NOT_READY;
 8002db2:	687b      	ldr	r3, [r7, #4]
 8002db4:	6a5b      	ldr	r3, [r3, #36]	; 0x24
 8002db6:	f443 2200 	orr.w	r2, r3, #524288	; 0x80000
 8002dba:	687b      	ldr	r3, [r7, #4]
 8002dbc:	625a      	str	r2, [r3, #36]	; 0x24

    return HAL_ERROR;
 8002dbe:	2301      	movs	r3, #1
  }
}
 8002dc0:	4618      	mov	r0, r3
 8002dc2:	3710      	adds	r7, #16
 8002dc4:	46bd      	mov	sp, r7
 8002dc6:	bd80      	pop	{r7, pc}

08002dc8 <HAL_CAN_AddTxMessage>:
  *         the TxMailbox used to store the Tx message.
  *         This parameter can be a value of @arg CAN_Tx_Mailboxes.
  * @retval HAL status
  */
HAL_StatusTypeDef HAL_CAN_AddTxMessage(CAN_HandleTypeDef *hcan, CAN_TxHeaderTypeDef *pHeader, uint8_t aData[], uint32_t *pTxMailbox)
{
 8002dc8:	b480      	push	{r7}
 8002dca:	b089      	sub	sp, #36	; 0x24
 8002dcc:	af00      	add	r7, sp, #0
 8002dce:	60f8      	str	r0, [r7, #12]
 8002dd0:	60b9      	str	r1, [r7, #8]
 8002dd2:	607a      	str	r2, [r7, #4]
 8002dd4:	603b      	str	r3, [r7, #0]
  uint32_t transmitmailbox;
  HAL_CAN_StateTypeDef state = hcan->State;
 8002dd6:	68fb      	ldr	r3, [r7, #12]
 8002dd8:	f893 3020 	ldrb.w	r3, [r3, #32]
 8002ddc:	77fb      	strb	r3, [r7, #31]
  uint32_t tsr = READ_REG(hcan->Instance->TSR);
 8002dde:	68fb      	ldr	r3, [r7, #12]
 8002de0:	681b      	ldr	r3, [r3, #0]
 8002de2:	689b      	ldr	r3, [r3, #8]
 8002de4:	61bb      	str	r3, [r7, #24]
  {
    assert_param(IS_CAN_EXTID(pHeader->ExtId));
  }
  assert_param(IS_FUNCTIONAL_STATE(pHeader->TransmitGlobalTime));

  if ((state == HAL_CAN_STATE_READY) ||
 8002de6:	7ffb      	ldrb	r3, [r7, #31]
 8002de8:	2b01      	cmp	r3, #1
 8002dea:	d003      	beq.n	8002df4 <HAL_CAN_AddTxMessage+0x2c>
 8002dec:	7ffb      	ldrb	r3, [r7, #31]
 8002dee:	2b02      	cmp	r3, #2
 8002df0:	f040 80b8 	bne.w	8002f64 <HAL_CAN_AddTxMessage+0x19c>
      (state == HAL_CAN_STATE_LISTENING))
  {
    /* Check that all the Tx mailboxes are not full */
    if (((tsr & CAN_TSR_TME0) != 0U) ||
 8002df4:	69bb      	ldr	r3, [r7, #24]
 8002df6:	f003 6380 	and.w	r3, r3, #67108864	; 0x4000000
 8002dfa:	2b00      	cmp	r3, #0
 8002dfc:	d10a      	bne.n	8002e14 <HAL_CAN_AddTxMessage+0x4c>
        ((tsr & CAN_TSR_TME1) != 0U) ||
 8002dfe:	69bb      	ldr	r3, [r7, #24]
 8002e00:	f003 6300 	and.w	r3, r3, #134217728	; 0x8000000
    if (((tsr & CAN_TSR_TME0) != 0U) ||
 8002e04:	2b00      	cmp	r3, #0
 8002e06:	d105      	bne.n	8002e14 <HAL_CAN_AddTxMessage+0x4c>
        ((tsr & CAN_TSR_TME2) != 0U))
 8002e08:	69bb      	ldr	r3, [r7, #24]
 8002e0a:	f003 5380 	and.w	r3, r3, #268435456	; 0x10000000
        ((tsr & CAN_TSR_TME1) != 0U) ||
 8002e0e:	2b00      	cmp	r3, #0
 8002e10:	f000 80a0 	beq.w	8002f54 <HAL_CAN_AddTxMessage+0x18c>
    {
      /* Select an empty transmit mailbox */
      transmitmailbox = (tsr & CAN_TSR_CODE) >> CAN_TSR_CODE_Pos;
 8002e14:	69bb      	ldr	r3, [r7, #24]
 8002e16:	0e1b      	lsrs	r3, r3, #24
 8002e18:	f003 0303 	and.w	r3, r3, #3
 8002e1c:	617b      	str	r3, [r7, #20]

      /* Check transmit mailbox value */
      if (transmitmailbox > 2U)
 8002e1e:	697b      	ldr	r3, [r7, #20]
 8002e20:	2b02      	cmp	r3, #2
 8002e22:	d907      	bls.n	8002e34 <HAL_CAN_AddTxMessage+0x6c>
      {
        /* Update error code */
        hcan->ErrorCode |= HAL_CAN_ERROR_INTERNAL;
 8002e24:	68fb      	ldr	r3, [r7, #12]
 8002e26:	6a5b      	ldr	r3, [r3, #36]	; 0x24
 8002e28:	f443 0200 	orr.w	r2, r3, #8388608	; 0x800000
 8002e2c:	68fb      	ldr	r3, [r7, #12]
 8002e2e:	625a      	str	r2, [r3, #36]	; 0x24

        return HAL_ERROR;
 8002e30:	2301      	movs	r3, #1
 8002e32:	e09e      	b.n	8002f72 <HAL_CAN_AddTxMessage+0x1aa>
      }

      /* Store the Tx mailbox */
      *pTxMailbox = (uint32_t)1 << transmitmailbox;
 8002e34:	2201      	movs	r2, #1
 8002e36:	697b      	ldr	r3, [r7, #20]
 8002e38:	409a      	lsls	r2, r3
 8002e3a:	683b      	ldr	r3, [r7, #0]
 8002e3c:	601a      	str	r2, [r3, #0]

      /* Set up the Id */
      if (pHeader->IDE == CAN_ID_STD)
 8002e3e:	68bb      	ldr	r3, [r7, #8]
 8002e40:	689b      	ldr	r3, [r3, #8]
 8002e42:	2b00      	cmp	r3, #0
 8002e44:	d10d      	bne.n	8002e62 <HAL_CAN_AddTxMessage+0x9a>
      {
        hcan->Instance->sTxMailBox[transmitmailbox].TIR = ((pHeader->StdId << CAN_TI0R_STID_Pos) |
 8002e46:	68bb      	ldr	r3, [r7, #8]
 8002e48:	681b      	ldr	r3, [r3, #0]
 8002e4a:	055a      	lsls	r2, r3, #21
                                                           pHeader->RTR);
 8002e4c:	68bb      	ldr	r3, [r7, #8]
 8002e4e:	68db      	ldr	r3, [r3, #12]
        hcan->Instance->sTxMailBox[transmitmailbox].TIR = ((pHeader->StdId << CAN_TI0R_STID_Pos) |
 8002e50:	68f9      	ldr	r1, [r7, #12]
 8002e52:	6809      	ldr	r1, [r1, #0]
 8002e54:	431a      	orrs	r2, r3
 8002e56:	697b      	ldr	r3, [r7, #20]
 8002e58:	3318      	adds	r3, #24
 8002e5a:	011b      	lsls	r3, r3, #4
 8002e5c:	440b      	add	r3, r1
 8002e5e:	601a      	str	r2, [r3, #0]
 8002e60:	e00f      	b.n	8002e82 <HAL_CAN_AddTxMessage+0xba>
      }
      else
      {
        hcan->Instance->sTxMailBox[transmitmailbox].TIR = ((pHeader->ExtId << CAN_TI0R_EXID_Pos) |
 8002e62:	68bb      	ldr	r3, [r7, #8]
 8002e64:	685b      	ldr	r3, [r3, #4]
 8002e66:	00da      	lsls	r2, r3, #3
                                                           pHeader->IDE |
 8002e68:	68bb      	ldr	r3, [r7, #8]
 8002e6a:	689b      	ldr	r3, [r3, #8]
        hcan->Instance->sTxMailBox[transmitmailbox].TIR = ((pHeader->ExtId << CAN_TI0R_EXID_Pos) |
 8002e6c:	431a      	orrs	r2, r3
                                                           pHeader->RTR);
 8002e6e:	68bb      	ldr	r3, [r7, #8]
 8002e70:	68db      	ldr	r3, [r3, #12]
        hcan->Instance->sTxMailBox[transmitmailbox].TIR = ((pHeader->ExtId << CAN_TI0R_EXID_Pos) |
 8002e72:	68f9      	ldr	r1, [r7, #12]
 8002e74:	6809      	ldr	r1, [r1, #0]
                                                           pHeader->IDE |
 8002e76:	431a      	orrs	r2, r3
        hcan->Instance->sTxMailBox[transmitmailbox].TIR = ((pHeader->ExtId << CAN_TI0R_EXID_Pos) |
 8002e78:	697b      	ldr	r3, [r7, #20]
 8002e7a:	3318      	adds	r3, #24
 8002e7c:	011b      	lsls	r3, r3, #4
 8002e7e:	440b      	add	r3, r1
 8002e80:	601a      	str	r2, [r3, #0]
      }

      /* Set up the DLC */
      hcan->Instance->sTxMailBox[transmitmailbox].TDTR = (pHeader->DLC);
 8002e82:	68fb      	ldr	r3, [r7, #12]
 8002e84:	6819      	ldr	r1, [r3, #0]
 8002e86:	68bb      	ldr	r3, [r7, #8]
 8002e88:	691a      	ldr	r2, [r3, #16]
 8002e8a:	697b      	ldr	r3, [r7, #20]
 8002e8c:	3318      	adds	r3, #24
 8002e8e:	011b      	lsls	r3, r3, #4
 8002e90:	440b      	add	r3, r1
 8002e92:	3304      	adds	r3, #4
 8002e94:	601a      	str	r2, [r3, #0]

      /* Set up the Transmit Global Time mode */
      if (pHeader->TransmitGlobalTime == ENABLE)
 8002e96:	68bb      	ldr	r3, [r7, #8]
 8002e98:	7d1b      	ldrb	r3, [r3, #20]
 8002e9a:	2b01      	cmp	r3, #1
 8002e9c:	d111      	bne.n	8002ec2 <HAL_CAN_AddTxMessage+0xfa>
      {
        SET_BIT(hcan->Instance->sTxMailBox[transmitmailbox].TDTR, CAN_TDT0R_TGT);
 8002e9e:	68fb      	ldr	r3, [r7, #12]
 8002ea0:	681a      	ldr	r2, [r3, #0]
 8002ea2:	697b      	ldr	r3, [r7, #20]
 8002ea4:	3318      	adds	r3, #24
 8002ea6:	011b      	lsls	r3, r3, #4
 8002ea8:	4413      	add	r3, r2
 8002eaa:	3304      	adds	r3, #4
 8002eac:	681b      	ldr	r3, [r3, #0]
 8002eae:	68fa      	ldr	r2, [r7, #12]
 8002eb0:	6811      	ldr	r1, [r2, #0]
 8002eb2:	f443 7280 	orr.w	r2, r3, #256	; 0x100
 8002eb6:	697b      	ldr	r3, [r7, #20]
 8002eb8:	3318      	adds	r3, #24
 8002eba:	011b      	lsls	r3, r3, #4
 8002ebc:	440b      	add	r3, r1
 8002ebe:	3304      	adds	r3, #4
 8002ec0:	601a      	str	r2, [r3, #0]
      }

      /* Set up the data field */
      WRITE_REG(hcan->Instance->sTxMailBox[transmitmailbox].TDHR,
 8002ec2:	687b      	ldr	r3, [r7, #4]
 8002ec4:	3307      	adds	r3, #7
 8002ec6:	781b      	ldrb	r3, [r3, #0]
 8002ec8:	061a      	lsls	r2, r3, #24
 8002eca:	687b      	ldr	r3, [r7, #4]
 8002ecc:	3306      	adds	r3, #6
 8002ece:	781b      	ldrb	r3, [r3, #0]
 8002ed0:	041b      	lsls	r3, r3, #16
 8002ed2:	431a      	orrs	r2, r3
 8002ed4:	687b      	ldr	r3, [r7, #4]
 8002ed6:	3305      	adds	r3, #5
 8002ed8:	781b      	ldrb	r3, [r3, #0]
 8002eda:	021b      	lsls	r3, r3, #8
 8002edc:	4313      	orrs	r3, r2
 8002ede:	687a      	ldr	r2, [r7, #4]
 8002ee0:	3204      	adds	r2, #4
 8002ee2:	7812      	ldrb	r2, [r2, #0]
 8002ee4:	4610      	mov	r0, r2
 8002ee6:	68fa      	ldr	r2, [r7, #12]
 8002ee8:	6811      	ldr	r1, [r2, #0]
 8002eea:	ea43 0200 	orr.w	r2, r3, r0
 8002eee:	697b      	ldr	r3, [r7, #20]
 8002ef0:	011b      	lsls	r3, r3, #4
 8002ef2:	440b      	add	r3, r1
 8002ef4:	f503 73c6 	add.w	r3, r3, #396	; 0x18c
 8002ef8:	601a      	str	r2, [r3, #0]
                ((uint32_t)aData[7] << CAN_TDH0R_DATA7_Pos) |
                ((uint32_t)aData[6] << CAN_TDH0R_DATA6_Pos) |
                ((uint32_t)aData[5] << CAN_TDH0R_DATA5_Pos) |
                ((uint32_t)aData[4] << CAN_TDH0R_DATA4_Pos));
      WRITE_REG(hcan->Instance->sTxMailBox[transmitmailbox].TDLR,
 8002efa:	687b      	ldr	r3, [r7, #4]
 8002efc:	3303      	adds	r3, #3
 8002efe:	781b      	ldrb	r3, [r3, #0]
 8002f00:	061a      	lsls	r2, r3, #24
 8002f02:	687b      	ldr	r3, [r7, #4]
 8002f04:	3302      	adds	r3, #2
 8002f06:	781b      	ldrb	r3, [r3, #0]
 8002f08:	041b      	lsls	r3, r3, #16
 8002f0a:	431a      	orrs	r2, r3
 8002f0c:	687b      	ldr	r3, [r7, #4]
 8002f0e:	3301      	adds	r3, #1
 8002f10:	781b      	ldrb	r3, [r3, #0]
 8002f12:	021b      	lsls	r3, r3, #8
 8002f14:	4313      	orrs	r3, r2
 8002f16:	687a      	ldr	r2, [r7, #4]
 8002f18:	7812      	ldrb	r2, [r2, #0]
 8002f1a:	4610      	mov	r0, r2
 8002f1c:	68fa      	ldr	r2, [r7, #12]
 8002f1e:	6811      	ldr	r1, [r2, #0]
 8002f20:	ea43 0200 	orr.w	r2, r3, r0
 8002f24:	697b      	ldr	r3, [r7, #20]
 8002f26:	011b      	lsls	r3, r3, #4
 8002f28:	440b      	add	r3, r1
 8002f2a:	f503 73c4 	add.w	r3, r3, #392	; 0x188
 8002f2e:	601a      	str	r2, [r3, #0]
                ((uint32_t)aData[2] << CAN_TDL0R_DATA2_Pos) |
                ((uint32_t)aData[1] << CAN_TDL0R_DATA1_Pos) |
                ((uint32_t)aData[0] << CAN_TDL0R_DATA0_Pos));

      /* Request transmission */
      SET_BIT(hcan->Instance->sTxMailBox[transmitmailbox].TIR, CAN_TI0R_TXRQ);
 8002f30:	68fb      	ldr	r3, [r7, #12]
 8002f32:	681a      	ldr	r2, [r3, #0]
 8002f34:	697b      	ldr	r3, [r7, #20]
 8002f36:	3318      	adds	r3, #24
 8002f38:	011b      	lsls	r3, r3, #4
 8002f3a:	4413      	add	r3, r2
 8002f3c:	681b      	ldr	r3, [r3, #0]
 8002f3e:	68fa      	ldr	r2, [r7, #12]
 8002f40:	6811      	ldr	r1, [r2, #0]
 8002f42:	f043 0201 	orr.w	r2, r3, #1
 8002f46:	697b      	ldr	r3, [r7, #20]
 8002f48:	3318      	adds	r3, #24
 8002f4a:	011b      	lsls	r3, r3, #4
 8002f4c:	440b      	add	r3, r1
 8002f4e:	601a      	str	r2, [r3, #0]

      /* Return function status */
      return HAL_OK;
 8002f50:	2300      	movs	r3, #0
 8002f52:	e00e      	b.n	8002f72 <HAL_CAN_AddTxMessage+0x1aa>
    }
    else
    {
      /* Update error code */
      hcan->ErrorCode |= HAL_CAN_ERROR_PARAM;
 8002f54:	68fb      	ldr	r3, [r7, #12]
 8002f56:	6a5b      	ldr	r3, [r3, #36]	; 0x24
 8002f58:	f443 1200 	orr.w	r2, r3, #2097152	; 0x200000
 8002f5c:	68fb      	ldr	r3, [r7, #12]
 8002f5e:	625a      	str	r2, [r3, #36]	; 0x24

      return HAL_ERROR;
 8002f60:	2301      	movs	r3, #1
 8002f62:	e006      	b.n	8002f72 <HAL_CAN_AddTxMessage+0x1aa>
    }
  }
  else
  {
    /* Update error code */
    hcan->ErrorCode |= HAL_CAN_ERROR_NOT_INITIALIZED;
 8002f64:	68fb      	ldr	r3, [r7, #12]
 8002f66:	6a5b      	ldr	r3, [r3, #36]	; 0x24
 8002f68:	f443 2280 	orr.w	r2, r3, #262144	; 0x40000
 8002f6c:	68fb      	ldr	r3, [r7, #12]
 8002f6e:	625a      	str	r2, [r3, #36]	; 0x24

    return HAL_ERROR;
 8002f70:	2301      	movs	r3, #1
  }
}
 8002f72:	4618      	mov	r0, r3
 8002f74:	3724      	adds	r7, #36	; 0x24
 8002f76:	46bd      	mov	sp, r7
 8002f78:	bc80      	pop	{r7}
 8002f7a:	4770      	bx	lr

08002f7c <HAL_CAN_ActivateNotification>:
  * @param  ActiveITs indicates which interrupts will be enabled.
  *         This parameter can be any combination of @arg CAN_Interrupts.
  * @retval HAL status
  */
HAL_StatusTypeDef HAL_CAN_ActivateNotification(CAN_HandleTypeDef *hcan, uint32_t ActiveITs)
{
 8002f7c:	b480      	push	{r7}
 8002f7e:	b085      	sub	sp, #20
 8002f80:	af00      	add	r7, sp, #0
 8002f82:	6078      	str	r0, [r7, #4]
 8002f84:	6039      	str	r1, [r7, #0]
  HAL_CAN_StateTypeDef state = hcan->State;
 8002f86:	687b      	ldr	r3, [r7, #4]
 8002f88:	f893 3020 	ldrb.w	r3, [r3, #32]
 8002f8c:	73fb      	strb	r3, [r7, #15]

  /* Check function parameters */
  assert_param(IS_CAN_IT(ActiveITs));

  if ((state == HAL_CAN_STATE_READY) ||
 8002f8e:	7bfb      	ldrb	r3, [r7, #15]
 8002f90:	2b01      	cmp	r3, #1
 8002f92:	d002      	beq.n	8002f9a <HAL_CAN_ActivateNotification+0x1e>
 8002f94:	7bfb      	ldrb	r3, [r7, #15]
 8002f96:	2b02      	cmp	r3, #2
 8002f98:	d109      	bne.n	8002fae <HAL_CAN_ActivateNotification+0x32>
      (state == HAL_CAN_STATE_LISTENING))
  {
    /* Enable the selected interrupts */
    __HAL_CAN_ENABLE_IT(hcan, ActiveITs);
 8002f9a:	687b      	ldr	r3, [r7, #4]
 8002f9c:	681b      	ldr	r3, [r3, #0]
 8002f9e:	6959      	ldr	r1, [r3, #20]
 8002fa0:	687b      	ldr	r3, [r7, #4]
 8002fa2:	681b      	ldr	r3, [r3, #0]
 8002fa4:	683a      	ldr	r2, [r7, #0]
 8002fa6:	430a      	orrs	r2, r1
 8002fa8:	615a      	str	r2, [r3, #20]

    /* Return function status */
    return HAL_OK;
 8002faa:	2300      	movs	r3, #0
 8002fac:	e006      	b.n	8002fbc <HAL_CAN_ActivateNotification+0x40>
  }
  else
  {
    /* Update error code */
    hcan->ErrorCode |= HAL_CAN_ERROR_NOT_INITIALIZED;
 8002fae:	687b      	ldr	r3, [r7, #4]
 8002fb0:	6a5b      	ldr	r3, [r3, #36]	; 0x24
 8002fb2:	f443 2280 	orr.w	r2, r3, #262144	; 0x40000
 8002fb6:	687b      	ldr	r3, [r7, #4]
 8002fb8:	625a      	str	r2, [r3, #36]	; 0x24

    return HAL_ERROR;
 8002fba:	2301      	movs	r3, #1
  }
}
 8002fbc:	4618      	mov	r0, r3
 8002fbe:	3714      	adds	r7, #20
 8002fc0:	46bd      	mov	sp, r7
 8002fc2:	bc80      	pop	{r7}
 8002fc4:	4770      	bx	lr

08002fc6 <HAL_CAN_IRQHandler>:
  * @param  hcan pointer to a CAN_HandleTypeDef structure that contains
  *         the configuration information for the specified CAN.
  * @retval None
  */
void HAL_CAN_IRQHandler(CAN_HandleTypeDef *hcan)
{
 8002fc6:	b580      	push	{r7, lr}
 8002fc8:	b08a      	sub	sp, #40	; 0x28
 8002fca:	af00      	add	r7, sp, #0
 8002fcc:	6078      	str	r0, [r7, #4]
  uint32_t errorcode = HAL_CAN_ERROR_NONE;
 8002fce:	2300      	movs	r3, #0
 8002fd0:	627b      	str	r3, [r7, #36]	; 0x24
  uint32_t interrupts = READ_REG(hcan->Instance->IER);
 8002fd2:	687b      	ldr	r3, [r7, #4]
 8002fd4:	681b      	ldr	r3, [r3, #0]
 8002fd6:	695b      	ldr	r3, [r3, #20]
 8002fd8:	623b      	str	r3, [r7, #32]
  uint32_t msrflags = READ_REG(hcan->Instance->MSR);
 8002fda:	687b      	ldr	r3, [r7, #4]
 8002fdc:	681b      	ldr	r3, [r3, #0]
 8002fde:	685b      	ldr	r3, [r3, #4]
 8002fe0:	61fb      	str	r3, [r7, #28]
  uint32_t tsrflags = READ_REG(hcan->Instance->TSR);
 8002fe2:	687b      	ldr	r3, [r7, #4]
 8002fe4:	681b      	ldr	r3, [r3, #0]
 8002fe6:	689b      	ldr	r3, [r3, #8]
 8002fe8:	61bb      	str	r3, [r7, #24]
  uint32_t rf0rflags = READ_REG(hcan->Instance->RF0R);
 8002fea:	687b      	ldr	r3, [r7, #4]
 8002fec:	681b      	ldr	r3, [r3, #0]
 8002fee:	68db      	ldr	r3, [r3, #12]
 8002ff0:	617b      	str	r3, [r7, #20]
  uint32_t rf1rflags = READ_REG(hcan->Instance->RF1R);
 8002ff2:	687b      	ldr	r3, [r7, #4]
 8002ff4:	681b      	ldr	r3, [r3, #0]
 8002ff6:	691b      	ldr	r3, [r3, #16]
 8002ff8:	613b      	str	r3, [r7, #16]
  uint32_t esrflags = READ_REG(hcan->Instance->ESR);
 8002ffa:	687b      	ldr	r3, [r7, #4]
 8002ffc:	681b      	ldr	r3, [r3, #0]
 8002ffe:	699b      	ldr	r3, [r3, #24]
 8003000:	60fb      	str	r3, [r7, #12]

  /* Transmit Mailbox empty interrupt management *****************************/
  if ((interrupts & CAN_IT_TX_MAILBOX_EMPTY) != 0U)
 8003002:	6a3b      	ldr	r3, [r7, #32]
 8003004:	f003 0301 	and.w	r3, r3, #1
 8003008:	2b00      	cmp	r3, #0
 800300a:	d07c      	beq.n	8003106 <HAL_CAN_IRQHandler+0x140>
  {
    /* Transmit Mailbox 0 management *****************************************/
    if ((tsrflags & CAN_TSR_RQCP0) != 0U)
 800300c:	69bb      	ldr	r3, [r7, #24]
 800300e:	f003 0301 	and.w	r3, r3, #1
 8003012:	2b00      	cmp	r3, #0
 8003014:	d023      	beq.n	800305e <HAL_CAN_IRQHandler+0x98>
    {
      /* Clear the Transmission Complete flag (and TXOK0,ALST0,TERR0 bits) */
      __HAL_CAN_CLEAR_FLAG(hcan, CAN_FLAG_RQCP0);
 8003016:	687b      	ldr	r3, [r7, #4]
 8003018:	681b      	ldr	r3, [r3, #0]
 800301a:	2201      	movs	r2, #1
 800301c:	609a      	str	r2, [r3, #8]

      if ((tsrflags & CAN_TSR_TXOK0) != 0U)
 800301e:	69bb      	ldr	r3, [r7, #24]
 8003020:	f003 0302 	and.w	r3, r3, #2
 8003024:	2b00      	cmp	r3, #0
 8003026:	d003      	beq.n	8003030 <HAL_CAN_IRQHandler+0x6a>
#if USE_HAL_CAN_REGISTER_CALLBACKS == 1
        /* Call registered callback*/
        hcan->TxMailbox0CompleteCallback(hcan);
#else
        /* Call weak (surcharged) callback */
        HAL_CAN_TxMailbox0CompleteCallback(hcan);
 8003028:	6878      	ldr	r0, [r7, #4]
 800302a:	f000 f97d 	bl	8003328 <HAL_CAN_TxMailbox0CompleteCallback>
 800302e:	e016      	b.n	800305e <HAL_CAN_IRQHandler+0x98>
#endif /* USE_HAL_CAN_REGISTER_CALLBACKS */
      }
      else
      {
        if ((tsrflags & CAN_TSR_ALST0) != 0U)
 8003030:	69bb      	ldr	r3, [r7, #24]
 8003032:	f003 0304 	and.w	r3, r3, #4
 8003036:	2b00      	cmp	r3, #0
 8003038:	d004      	beq.n	8003044 <HAL_CAN_IRQHandler+0x7e>
        {
          /* Update error code */
          errorcode |= HAL_CAN_ERROR_TX_ALST0;
 800303a:	6a7b      	ldr	r3, [r7, #36]	; 0x24
 800303c:	f443 6300 	orr.w	r3, r3, #2048	; 0x800
 8003040:	627b      	str	r3, [r7, #36]	; 0x24
 8003042:	e00c      	b.n	800305e <HAL_CAN_IRQHandler+0x98>
        }
        else if ((tsrflags & CAN_TSR_TERR0) != 0U)
 8003044:	69bb      	ldr	r3, [r7, #24]
 8003046:	f003 0308 	and.w	r3, r3, #8
 800304a:	2b00      	cmp	r3, #0
 800304c:	d004      	beq.n	8003058 <HAL_CAN_IRQHandler+0x92>
        {
          /* Update error code */
          errorcode |= HAL_CAN_ERROR_TX_TERR0;
 800304e:	6a7b      	ldr	r3, [r7, #36]	; 0x24
 8003050:	f443 5380 	orr.w	r3, r3, #4096	; 0x1000
 8003054:	627b      	str	r3, [r7, #36]	; 0x24
 8003056:	e002      	b.n	800305e <HAL_CAN_IRQHandler+0x98>
#if USE_HAL_CAN_REGISTER_CALLBACKS == 1
          /* Call registered callback*/
          hcan->TxMailbox0AbortCallback(hcan);
#else
          /* Call weak (surcharged) callback */
          HAL_CAN_TxMailbox0AbortCallback(hcan);
 8003058:	6878      	ldr	r0, [r7, #4]
 800305a:	f000 f980 	bl	800335e <HAL_CAN_TxMailbox0AbortCallback>
        }
      }
    }

    /* Transmit Mailbox 1 management *****************************************/
    if ((tsrflags & CAN_TSR_RQCP1) != 0U)
 800305e:	69bb      	ldr	r3, [r7, #24]
 8003060:	f403 7380 	and.w	r3, r3, #256	; 0x100
 8003064:	2b00      	cmp	r3, #0
 8003066:	d024      	beq.n	80030b2 <HAL_CAN_IRQHandler+0xec>
    {
      /* Clear the Transmission Complete flag (and TXOK1,ALST1,TERR1 bits) */
      __HAL_CAN_CLEAR_FLAG(hcan, CAN_FLAG_RQCP1);
 8003068:	687b      	ldr	r3, [r7, #4]
 800306a:	681b      	ldr	r3, [r3, #0]
 800306c:	f44f 7280 	mov.w	r2, #256	; 0x100
 8003070:	609a      	str	r2, [r3, #8]

      if ((tsrflags & CAN_TSR_TXOK1) != 0U)
 8003072:	69bb      	ldr	r3, [r7, #24]
 8003074:	f403 7300 	and.w	r3, r3, #512	; 0x200
 8003078:	2b00      	cmp	r3, #0
 800307a:	d003      	beq.n	8003084 <HAL_CAN_IRQHandler+0xbe>
#if USE_HAL_CAN_REGISTER_CALLBACKS == 1
        /* Call registered callback*/
        hcan->TxMailbox1CompleteCallback(hcan);
#else
        /* Call weak (surcharged) callback */
        HAL_CAN_TxMailbox1CompleteCallback(hcan);
 800307c:	6878      	ldr	r0, [r7, #4]
 800307e:	f000 f95c 	bl	800333a <HAL_CAN_TxMailbox1CompleteCallback>
 8003082:	e016      	b.n	80030b2 <HAL_CAN_IRQHandler+0xec>
#endif /* USE_HAL_CAN_REGISTER_CALLBACKS */
      }
      else
      {
        if ((tsrflags & CAN_TSR_ALST1) != 0U)
 8003084:	69bb      	ldr	r3, [r7, #24]
 8003086:	f403 6380 	and.w	r3, r3, #1024	; 0x400
 800308a:	2b00      	cmp	r3, #0
 800308c:	d004      	beq.n	8003098 <HAL_CAN_IRQHandler+0xd2>
        {
          /* Update error code */
          errorcode |= HAL_CAN_ERROR_TX_ALST1;
 800308e:	6a7b      	ldr	r3, [r7, #36]	; 0x24
 8003090:	f443 5300 	orr.w	r3, r3, #8192	; 0x2000
 8003094:	627b      	str	r3, [r7, #36]	; 0x24
 8003096:	e00c      	b.n	80030b2 <HAL_CAN_IRQHandler+0xec>
        }
        else if ((tsrflags & CAN_TSR_TERR1) != 0U)
 8003098:	69bb      	ldr	r3, [r7, #24]
 800309a:	f403 6300 	and.w	r3, r3, #2048	; 0x800
 800309e:	2b00      	cmp	r3, #0
 80030a0:	d004      	beq.n	80030ac <HAL_CAN_IRQHandler+0xe6>
        {
          /* Update error code */
          errorcode |= HAL_CAN_ERROR_TX_TERR1;
 80030a2:	6a7b      	ldr	r3, [r7, #36]	; 0x24
 80030a4:	f443 4380 	orr.w	r3, r3, #16384	; 0x4000
 80030a8:	627b      	str	r3, [r7, #36]	; 0x24
 80030aa:	e002      	b.n	80030b2 <HAL_CAN_IRQHandler+0xec>
#if USE_HAL_CAN_REGISTER_CALLBACKS == 1
          /* Call registered callback*/
          hcan->TxMailbox1AbortCallback(hcan);
#else
          /* Call weak (surcharged) callback */
          HAL_CAN_TxMailbox1AbortCallback(hcan);
 80030ac:	6878      	ldr	r0, [r7, #4]
 80030ae:	f000 f95f 	bl	8003370 <HAL_CAN_TxMailbox1AbortCallback>
        }
      }
    }

    /* Transmit Mailbox 2 management *****************************************/
    if ((tsrflags & CAN_TSR_RQCP2) != 0U)
 80030b2:	69bb      	ldr	r3, [r7, #24]
 80030b4:	f403 3380 	and.w	r3, r3, #65536	; 0x10000
 80030b8:	2b00      	cmp	r3, #0
 80030ba:	d024      	beq.n	8003106 <HAL_CAN_IRQHandler+0x140>
    {
      /* Clear the Transmission Complete flag (and TXOK2,ALST2,TERR2 bits) */
      __HAL_CAN_CLEAR_FLAG(hcan, CAN_FLAG_RQCP2);
 80030bc:	687b      	ldr	r3, [r7, #4]
 80030be:	681b      	ldr	r3, [r3, #0]
 80030c0:	f44f 3280 	mov.w	r2, #65536	; 0x10000
 80030c4:	609a      	str	r2, [r3, #8]

      if ((tsrflags & CAN_TSR_TXOK2) != 0U)
 80030c6:	69bb      	ldr	r3, [r7, #24]
 80030c8:	f403 3300 	and.w	r3, r3, #131072	; 0x20000
 80030cc:	2b00      	cmp	r3, #0
 80030ce:	d003      	beq.n	80030d8 <HAL_CAN_IRQHandler+0x112>
#if USE_HAL_CAN_REGISTER_CALLBACKS == 1
        /* Call registered callback*/
        hcan->TxMailbox2CompleteCallback(hcan);
#else
        /* Call weak (surcharged) callback */
        HAL_CAN_TxMailbox2CompleteCallback(hcan);
 80030d0:	6878      	ldr	r0, [r7, #4]
 80030d2:	f000 f93b 	bl	800334c <HAL_CAN_TxMailbox2CompleteCallback>
 80030d6:	e016      	b.n	8003106 <HAL_CAN_IRQHandler+0x140>
#endif /* USE_HAL_CAN_REGISTER_CALLBACKS */
      }
      else
      {
        if ((tsrflags & CAN_TSR_ALST2) != 0U)
 80030d8:	69bb      	ldr	r3, [r7, #24]
 80030da:	f403 2380 	and.w	r3, r3, #262144	; 0x40000
 80030de:	2b00      	cmp	r3, #0
 80030e0:	d004      	beq.n	80030ec <HAL_CAN_IRQHandler+0x126>
        {
          /* Update error code */
          errorcode |= HAL_CAN_ERROR_TX_ALST2;
 80030e2:	6a7b      	ldr	r3, [r7, #36]	; 0x24
 80030e4:	f443 4300 	orr.w	r3, r3, #32768	; 0x8000
 80030e8:	627b      	str	r3, [r7, #36]	; 0x24
 80030ea:	e00c      	b.n	8003106 <HAL_CAN_IRQHandler+0x140>
        }
        else if ((tsrflags & CAN_TSR_TERR2) != 0U)
 80030ec:	69bb      	ldr	r3, [r7, #24]
 80030ee:	f403 2300 	and.w	r3, r3, #524288	; 0x80000
 80030f2:	2b00      	cmp	r3, #0
 80030f4:	d004      	beq.n	8003100 <HAL_CAN_IRQHandler+0x13a>
        {
          /* Update error code */
          errorcode |= HAL_CAN_ERROR_TX_TERR2;
 80030f6:	6a7b      	ldr	r3, [r7, #36]	; 0x24
 80030f8:	f443 3380 	orr.w	r3, r3, #65536	; 0x10000
 80030fc:	627b      	str	r3, [r7, #36]	; 0x24
 80030fe:	e002      	b.n	8003106 <HAL_CAN_IRQHandler+0x140>
#if USE_HAL_CAN_REGISTER_CALLBACKS == 1
          /* Call registered callback*/
          hcan->TxMailbox2AbortCallback(hcan);
#else
          /* Call weak (surcharged) callback */
          HAL_CAN_TxMailbox2AbortCallback(hcan);
 8003100:	6878      	ldr	r0, [r7, #4]
 8003102:	f000 f93e 	bl	8003382 <HAL_CAN_TxMailbox2AbortCallback>
      }
    }
  }

  /* Receive FIFO 0 overrun interrupt management *****************************/
  if ((interrupts & CAN_IT_RX_FIFO0_OVERRUN) != 0U)
 8003106:	6a3b      	ldr	r3, [r7, #32]
 8003108:	f003 0308 	and.w	r3, r3, #8
 800310c:	2b00      	cmp	r3, #0
 800310e:	d00c      	beq.n	800312a <HAL_CAN_IRQHandler+0x164>
  {
    if ((rf0rflags & CAN_RF0R_FOVR0) != 0U)
 8003110:	697b      	ldr	r3, [r7, #20]
 8003112:	f003 0310 	and.w	r3, r3, #16
 8003116:	2b00      	cmp	r3, #0
 8003118:	d007      	beq.n	800312a <HAL_CAN_IRQHandler+0x164>
    {
      /* Set CAN error code to Rx Fifo 0 overrun error */
      errorcode |= HAL_CAN_ERROR_RX_FOV0;
 800311a:	6a7b      	ldr	r3, [r7, #36]	; 0x24
 800311c:	f443 7300 	orr.w	r3, r3, #512	; 0x200
 8003120:	627b      	str	r3, [r7, #36]	; 0x24

      /* Clear FIFO0 Overrun Flag */
      __HAL_CAN_CLEAR_FLAG(hcan, CAN_FLAG_FOV0);
 8003122:	687b      	ldr	r3, [r7, #4]
 8003124:	681b      	ldr	r3, [r3, #0]
 8003126:	2210      	movs	r2, #16
 8003128:	60da      	str	r2, [r3, #12]
    }
  }

  /* Receive FIFO 0 full interrupt management ********************************/
  if ((interrupts & CAN_IT_RX_FIFO0_FULL) != 0U)
 800312a:	6a3b      	ldr	r3, [r7, #32]
 800312c:	f003 0304 	and.w	r3, r3, #4
 8003130:	2b00      	cmp	r3, #0
 8003132:	d00b      	beq.n	800314c <HAL_CAN_IRQHandler+0x186>
  {
    if ((rf0rflags & CAN_RF0R_FULL0) != 0U)
 8003134:	697b      	ldr	r3, [r7, #20]
 8003136:	f003 0308 	and.w	r3, r3, #8
 800313a:	2b00      	cmp	r3, #0
 800313c:	d006      	beq.n	800314c <HAL_CAN_IRQHandler+0x186>
    {
      /* Clear FIFO 0 full Flag */
      __HAL_CAN_CLEAR_FLAG(hcan, CAN_FLAG_FF0);
 800313e:	687b      	ldr	r3, [r7, #4]
 8003140:	681b      	ldr	r3, [r3, #0]
 8003142:	2208      	movs	r2, #8
 8003144:	60da      	str	r2, [r3, #12]
#if USE_HAL_CAN_REGISTER_CALLBACKS == 1
      /* Call registered callback*/
      hcan->RxFifo0FullCallback(hcan);
#else
      /* Call weak (surcharged) callback */
      HAL_CAN_RxFifo0FullCallback(hcan);
 8003146:	6878      	ldr	r0, [r7, #4]
 8003148:	f000 f92d 	bl	80033a6 <HAL_CAN_RxFifo0FullCallback>
#endif /* USE_HAL_CAN_REGISTER_CALLBACKS */
    }
  }

  /* Receive FIFO 0 message pending interrupt management *********************/
  if ((interrupts & CAN_IT_RX_FIFO0_MSG_PENDING) != 0U)
 800314c:	6a3b      	ldr	r3, [r7, #32]
 800314e:	f003 0302 	and.w	r3, r3, #2
 8003152:	2b00      	cmp	r3, #0
 8003154:	d009      	beq.n	800316a <HAL_CAN_IRQHandler+0x1a4>
  {
    /* Check if message is still pending */
    if ((hcan->Instance->RF0R & CAN_RF0R_FMP0) != 0U)
 8003156:	687b      	ldr	r3, [r7, #4]
 8003158:	681b      	ldr	r3, [r3, #0]
 800315a:	68db      	ldr	r3, [r3, #12]
 800315c:	f003 0303 	and.w	r3, r3, #3
 8003160:	2b00      	cmp	r3, #0
 8003162:	d002      	beq.n	800316a <HAL_CAN_IRQHandler+0x1a4>
#if USE_HAL_CAN_REGISTER_CALLBACKS == 1
      /* Call registered callback*/
      hcan->RxFifo0MsgPendingCallback(hcan);
#else
      /* Call weak (surcharged) callback */
      HAL_CAN_RxFifo0MsgPendingCallback(hcan);
 8003164:	6878      	ldr	r0, [r7, #4]
 8003166:	f000 f915 	bl	8003394 <HAL_CAN_RxFifo0MsgPendingCallback>
#endif /* USE_HAL_CAN_REGISTER_CALLBACKS */
    }
  }

  /* Receive FIFO 1 overrun interrupt management *****************************/
  if ((interrupts & CAN_IT_RX_FIFO1_OVERRUN) != 0U)
 800316a:	6a3b      	ldr	r3, [r7, #32]
 800316c:	f003 0340 	and.w	r3, r3, #64	; 0x40
 8003170:	2b00      	cmp	r3, #0
 8003172:	d00c      	beq.n	800318e <HAL_CAN_IRQHandler+0x1c8>
  {
    if ((rf1rflags & CAN_RF1R_FOVR1) != 0U)
 8003174:	693b      	ldr	r3, [r7, #16]
 8003176:	f003 0310 	and.w	r3, r3, #16
 800317a:	2b00      	cmp	r3, #0
 800317c:	d007      	beq.n	800318e <HAL_CAN_IRQHandler+0x1c8>
    {
      /* Set CAN error code to Rx Fifo 1 overrun error */
      errorcode |= HAL_CAN_ERROR_RX_FOV1;
 800317e:	6a7b      	ldr	r3, [r7, #36]	; 0x24
 8003180:	f443 6380 	orr.w	r3, r3, #1024	; 0x400
 8003184:	627b      	str	r3, [r7, #36]	; 0x24

      /* Clear FIFO1 Overrun Flag */
      __HAL_CAN_CLEAR_FLAG(hcan, CAN_FLAG_FOV1);
 8003186:	687b      	ldr	r3, [r7, #4]
 8003188:	681b      	ldr	r3, [r3, #0]
 800318a:	2210      	movs	r2, #16
 800318c:	611a      	str	r2, [r3, #16]
    }
  }

  /* Receive FIFO 1 full interrupt management ********************************/
  if ((interrupts & CAN_IT_RX_FIFO1_FULL) != 0U)
 800318e:	6a3b      	ldr	r3, [r7, #32]
 8003190:	f003 0320 	and.w	r3, r3, #32
 8003194:	2b00      	cmp	r3, #0
 8003196:	d00b      	beq.n	80031b0 <HAL_CAN_IRQHandler+0x1ea>
  {
    if ((rf1rflags & CAN_RF1R_FULL1) != 0U)
 8003198:	693b      	ldr	r3, [r7, #16]
 800319a:	f003 0308 	and.w	r3, r3, #8
 800319e:	2b00      	cmp	r3, #0
 80031a0:	d006      	beq.n	80031b0 <HAL_CAN_IRQHandler+0x1ea>
    {
      /* Clear FIFO 1 full Flag */
      __HAL_CAN_CLEAR_FLAG(hcan, CAN_FLAG_FF1);
 80031a2:	687b      	ldr	r3, [r7, #4]
 80031a4:	681b      	ldr	r3, [r3, #0]
 80031a6:	2208      	movs	r2, #8
 80031a8:	611a      	str	r2, [r3, #16]
#if USE_HAL_CAN_REGISTER_CALLBACKS == 1
      /* Call registered callback*/
      hcan->RxFifo1FullCallback(hcan);
#else
      /* Call weak (surcharged) callback */
      HAL_CAN_RxFifo1FullCallback(hcan);
 80031aa:	6878      	ldr	r0, [r7, #4]
 80031ac:	f000 f90d 	bl	80033ca <HAL_CAN_RxFifo1FullCallback>
#endif /* USE_HAL_CAN_REGISTER_CALLBACKS */
    }
  }

  /* Receive FIFO 1 message pending interrupt management *********************/
  if ((interrupts & CAN_IT_RX_FIFO1_MSG_PENDING) != 0U)
 80031b0:	6a3b      	ldr	r3, [r7, #32]
 80031b2:	f003 0310 	and.w	r3, r3, #16
 80031b6:	2b00      	cmp	r3, #0
 80031b8:	d009      	beq.n	80031ce <HAL_CAN_IRQHandler+0x208>
  {
    /* Check if message is still pending */
    if ((hcan->Instance->RF1R & CAN_RF1R_FMP1) != 0U)
 80031ba:	687b      	ldr	r3, [r7, #4]
 80031bc:	681b      	ldr	r3, [r3, #0]
 80031be:	691b      	ldr	r3, [r3, #16]
 80031c0:	f003 0303 	and.w	r3, r3, #3
 80031c4:	2b00      	cmp	r3, #0
 80031c6:	d002      	beq.n	80031ce <HAL_CAN_IRQHandler+0x208>
#if USE_HAL_CAN_REGISTER_CALLBACKS == 1
      /* Call registered callback*/
      hcan->RxFifo1MsgPendingCallback(hcan);
#else
      /* Call weak (surcharged) callback */
      HAL_CAN_RxFifo1MsgPendingCallback(hcan);
 80031c8:	6878      	ldr	r0, [r7, #4]
 80031ca:	f000 f8f5 	bl	80033b8 <HAL_CAN_RxFifo1MsgPendingCallback>
#endif /* USE_HAL_CAN_REGISTER_CALLBACKS */
    }
  }

  /* Sleep interrupt management *********************************************/
  if ((interrupts & CAN_IT_SLEEP_ACK) != 0U)
 80031ce:	6a3b      	ldr	r3, [r7, #32]
 80031d0:	f403 3300 	and.w	r3, r3, #131072	; 0x20000
 80031d4:	2b00      	cmp	r3, #0
 80031d6:	d00b      	beq.n	80031f0 <HAL_CAN_IRQHandler+0x22a>
  {
    if ((msrflags & CAN_MSR_SLAKI) != 0U)
 80031d8:	69fb      	ldr	r3, [r7, #28]
 80031da:	f003 0310 	and.w	r3, r3, #16
 80031de:	2b00      	cmp	r3, #0
 80031e0:	d006      	beq.n	80031f0 <HAL_CAN_IRQHandler+0x22a>
    {
      /* Clear Sleep interrupt Flag */
      __HAL_CAN_CLEAR_FLAG(hcan, CAN_FLAG_SLAKI);
 80031e2:	687b      	ldr	r3, [r7, #4]
 80031e4:	681b      	ldr	r3, [r3, #0]
 80031e6:	2210      	movs	r2, #16
 80031e8:	605a      	str	r2, [r3, #4]
#if USE_HAL_CAN_REGISTER_CALLBACKS == 1
      /* Call registered callback*/
      hcan->SleepCallback(hcan);
#else
      /* Call weak (surcharged) callback */
      HAL_CAN_SleepCallback(hcan);
 80031ea:	6878      	ldr	r0, [r7, #4]
 80031ec:	f000 f8f6 	bl	80033dc <HAL_CAN_SleepCallback>
#endif /* USE_HAL_CAN_REGISTER_CALLBACKS */
    }
  }

  /* WakeUp interrupt management *********************************************/
  if ((interrupts & CAN_IT_WAKEUP) != 0U)
 80031f0:	6a3b      	ldr	r3, [r7, #32]
 80031f2:	f403 3380 	and.w	r3, r3, #65536	; 0x10000
 80031f6:	2b00      	cmp	r3, #0
 80031f8:	d00b      	beq.n	8003212 <HAL_CAN_IRQHandler+0x24c>
  {
    if ((msrflags & CAN_MSR_WKUI) != 0U)
 80031fa:	69fb      	ldr	r3, [r7, #28]
 80031fc:	f003 0308 	and.w	r3, r3, #8
 8003200:	2b00      	cmp	r3, #0
 8003202:	d006      	beq.n	8003212 <HAL_CAN_IRQHandler+0x24c>
    {
      /* Clear WakeUp Flag */
      __HAL_CAN_CLEAR_FLAG(hcan, CAN_FLAG_WKU);
 8003204:	687b      	ldr	r3, [r7, #4]
 8003206:	681b      	ldr	r3, [r3, #0]
 8003208:	2208      	movs	r2, #8
 800320a:	605a      	str	r2, [r3, #4]
#if USE_HAL_CAN_REGISTER_CALLBACKS == 1
      /* Call registered callback*/
      hcan->WakeUpFromRxMsgCallback(hcan);
#else
      /* Call weak (surcharged) callback */
      HAL_CAN_WakeUpFromRxMsgCallback(hcan);
 800320c:	6878      	ldr	r0, [r7, #4]
 800320e:	f000 f8ee 	bl	80033ee <HAL_CAN_WakeUpFromRxMsgCallback>
#endif /* USE_HAL_CAN_REGISTER_CALLBACKS */
    }
  }

  /* Error interrupts management *********************************************/
  if ((interrupts & CAN_IT_ERROR) != 0U)
 8003212:	6a3b      	ldr	r3, [r7, #32]
 8003214:	f403 4300 	and.w	r3, r3, #32768	; 0x8000
 8003218:	2b00      	cmp	r3, #0
 800321a:	d075      	beq.n	8003308 <HAL_CAN_IRQHandler+0x342>
  {
    if ((msrflags & CAN_MSR_ERRI) != 0U)
 800321c:	69fb      	ldr	r3, [r7, #28]
 800321e:	f003 0304 	and.w	r3, r3, #4
 8003222:	2b00      	cmp	r3, #0
 8003224:	d06c      	beq.n	8003300 <HAL_CAN_IRQHandler+0x33a>
    {
      /* Check Error Warning Flag */
      if (((interrupts & CAN_IT_ERROR_WARNING) != 0U) &&
 8003226:	6a3b      	ldr	r3, [r7, #32]
 8003228:	f403 7380 	and.w	r3, r3, #256	; 0x100
 800322c:	2b00      	cmp	r3, #0
 800322e:	d008      	beq.n	8003242 <HAL_CAN_IRQHandler+0x27c>
          ((esrflags & CAN_ESR_EWGF) != 0U))
 8003230:	68fb      	ldr	r3, [r7, #12]
 8003232:	f003 0301 	and.w	r3, r3, #1
      if (((interrupts & CAN_IT_ERROR_WARNING) != 0U) &&
 8003236:	2b00      	cmp	r3, #0
 8003238:	d003      	beq.n	8003242 <HAL_CAN_IRQHandler+0x27c>
      {
        /* Set CAN error code to Error Warning */
        errorcode |= HAL_CAN_ERROR_EWG;
 800323a:	6a7b      	ldr	r3, [r7, #36]	; 0x24
 800323c:	f043 0301 	orr.w	r3, r3, #1
 8003240:	627b      	str	r3, [r7, #36]	; 0x24

        /* No need for clear of Error Warning Flag as read-only */
      }

      /* Check Error Passive Flag */
      if (((interrupts & CAN_IT_ERROR_PASSIVE) != 0U) &&
 8003242:	6a3b      	ldr	r3, [r7, #32]
 8003244:	f403 7300 	and.w	r3, r3, #512	; 0x200
 8003248:	2b00      	cmp	r3, #0
 800324a:	d008      	beq.n	800325e <HAL_CAN_IRQHandler+0x298>
          ((esrflags & CAN_ESR_EPVF) != 0U))
 800324c:	68fb      	ldr	r3, [r7, #12]
 800324e:	f003 0302 	and.w	r3, r3, #2
      if (((interrupts & CAN_IT_ERROR_PASSIVE) != 0U) &&
 8003252:	2b00      	cmp	r3, #0
 8003254:	d003      	beq.n	800325e <HAL_CAN_IRQHandler+0x298>
      {
        /* Set CAN error code to Error Passive */
        errorcode |= HAL_CAN_ERROR_EPV;
 8003256:	6a7b      	ldr	r3, [r7, #36]	; 0x24
 8003258:	f043 0302 	orr.w	r3, r3, #2
 800325c:	627b      	str	r3, [r7, #36]	; 0x24

        /* No need for clear of Error Passive Flag as read-only */
      }

      /* Check Bus-off Flag */
      if (((interrupts & CAN_IT_BUSOFF) != 0U) &&
 800325e:	6a3b      	ldr	r3, [r7, #32]
 8003260:	f403 6380 	and.w	r3, r3, #1024	; 0x400
 8003264:	2b00      	cmp	r3, #0
 8003266:	d008      	beq.n	800327a <HAL_CAN_IRQHandler+0x2b4>
          ((esrflags & CAN_ESR_BOFF) != 0U))
 8003268:	68fb      	ldr	r3, [r7, #12]
 800326a:	f003 0304 	and.w	r3, r3, #4
      if (((interrupts & CAN_IT_BUSOFF) != 0U) &&
 800326e:	2b00      	cmp	r3, #0
 8003270:	d003      	beq.n	800327a <HAL_CAN_IRQHandler+0x2b4>
      {
        /* Set CAN error code to Bus-Off */
        errorcode |= HAL_CAN_ERROR_BOF;
 8003272:	6a7b      	ldr	r3, [r7, #36]	; 0x24
 8003274:	f043 0304 	orr.w	r3, r3, #4
 8003278:	627b      	str	r3, [r7, #36]	; 0x24

        /* No need for clear of Error Bus-Off as read-only */
      }

      /* Check Last Error Code Flag */
      if (((interrupts & CAN_IT_LAST_ERROR_CODE) != 0U) &&
 800327a:	6a3b      	ldr	r3, [r7, #32]
 800327c:	f403 6300 	and.w	r3, r3, #2048	; 0x800
 8003280:	2b00      	cmp	r3, #0
 8003282:	d03d      	beq.n	8003300 <HAL_CAN_IRQHandler+0x33a>
          ((esrflags & CAN_ESR_LEC) != 0U))
 8003284:	68fb      	ldr	r3, [r7, #12]
 8003286:	f003 0370 	and.w	r3, r3, #112	; 0x70
      if (((interrupts & CAN_IT_LAST_ERROR_CODE) != 0U) &&
 800328a:	2b00      	cmp	r3, #0
 800328c:	d038      	beq.n	8003300 <HAL_CAN_IRQHandler+0x33a>
      {
        switch (esrflags & CAN_ESR_LEC)
 800328e:	68fb      	ldr	r3, [r7, #12]
 8003290:	f003 0370 	and.w	r3, r3, #112	; 0x70
 8003294:	2b30      	cmp	r3, #48	; 0x30
 8003296:	d017      	beq.n	80032c8 <HAL_CAN_IRQHandler+0x302>
 8003298:	2b30      	cmp	r3, #48	; 0x30
 800329a:	d804      	bhi.n	80032a6 <HAL_CAN_IRQHandler+0x2e0>
 800329c:	2b10      	cmp	r3, #16
 800329e:	d009      	beq.n	80032b4 <HAL_CAN_IRQHandler+0x2ee>
 80032a0:	2b20      	cmp	r3, #32
 80032a2:	d00c      	beq.n	80032be <HAL_CAN_IRQHandler+0x2f8>
          case (CAN_ESR_LEC_2 | CAN_ESR_LEC_1):
            /* Set CAN error code to CRC error */
            errorcode |= HAL_CAN_ERROR_CRC;
            break;
          default:
            break;
 80032a4:	e024      	b.n	80032f0 <HAL_CAN_IRQHandler+0x32a>
        switch (esrflags & CAN_ESR_LEC)
 80032a6:	2b50      	cmp	r3, #80	; 0x50
 80032a8:	d018      	beq.n	80032dc <HAL_CAN_IRQHandler+0x316>
 80032aa:	2b60      	cmp	r3, #96	; 0x60
 80032ac:	d01b      	beq.n	80032e6 <HAL_CAN_IRQHandler+0x320>
 80032ae:	2b40      	cmp	r3, #64	; 0x40
 80032b0:	d00f      	beq.n	80032d2 <HAL_CAN_IRQHandler+0x30c>
            break;
 80032b2:	e01d      	b.n	80032f0 <HAL_CAN_IRQHandler+0x32a>
            errorcode |= HAL_CAN_ERROR_STF;
 80032b4:	6a7b      	ldr	r3, [r7, #36]	; 0x24
 80032b6:	f043 0308 	orr.w	r3, r3, #8
 80032ba:	627b      	str	r3, [r7, #36]	; 0x24
            break;
 80032bc:	e018      	b.n	80032f0 <HAL_CAN_IRQHandler+0x32a>
            errorcode |= HAL_CAN_ERROR_FOR;
 80032be:	6a7b      	ldr	r3, [r7, #36]	; 0x24
 80032c0:	f043 0310 	orr.w	r3, r3, #16
 80032c4:	627b      	str	r3, [r7, #36]	; 0x24
            break;
 80032c6:	e013      	b.n	80032f0 <HAL_CAN_IRQHandler+0x32a>
            errorcode |= HAL_CAN_ERROR_ACK;
 80032c8:	6a7b      	ldr	r3, [r7, #36]	; 0x24
 80032ca:	f043 0320 	orr.w	r3, r3, #32
 80032ce:	627b      	str	r3, [r7, #36]	; 0x24
            break;
 80032d0:	e00e      	b.n	80032f0 <HAL_CAN_IRQHandler+0x32a>
            errorcode |= HAL_CAN_ERROR_BR;
 80032d2:	6a7b      	ldr	r3, [r7, #36]	; 0x24
 80032d4:	f043 0340 	orr.w	r3, r3, #64	; 0x40
 80032d8:	627b      	str	r3, [r7, #36]	; 0x24
            break;
 80032da:	e009      	b.n	80032f0 <HAL_CAN_IRQHandler+0x32a>
            errorcode |= HAL_CAN_ERROR_BD;
 80032dc:	6a7b      	ldr	r3, [r7, #36]	; 0x24
 80032de:	f043 0380 	orr.w	r3, r3, #128	; 0x80
 80032e2:	627b      	str	r3, [r7, #36]	; 0x24
            break;
 80032e4:	e004      	b.n	80032f0 <HAL_CAN_IRQHandler+0x32a>
            errorcode |= HAL_CAN_ERROR_CRC;
 80032e6:	6a7b      	ldr	r3, [r7, #36]	; 0x24
 80032e8:	f443 7380 	orr.w	r3, r3, #256	; 0x100
 80032ec:	627b      	str	r3, [r7, #36]	; 0x24
            break;
 80032ee:	bf00      	nop
        }

        /* Clear Last error code Flag */
        CLEAR_BIT(hcan->Instance->ESR, CAN_ESR_LEC);
 80032f0:	687b      	ldr	r3, [r7, #4]
 80032f2:	681b      	ldr	r3, [r3, #0]
 80032f4:	699a      	ldr	r2, [r3, #24]
 80032f6:	687b      	ldr	r3, [r7, #4]
 80032f8:	681b      	ldr	r3, [r3, #0]
 80032fa:	f022 0270 	bic.w	r2, r2, #112	; 0x70
 80032fe:	619a      	str	r2, [r3, #24]
      }
    }

    /* Clear ERRI Flag */
    __HAL_CAN_CLEAR_FLAG(hcan, CAN_FLAG_ERRI);
 8003300:	687b      	ldr	r3, [r7, #4]
 8003302:	681b      	ldr	r3, [r3, #0]
 8003304:	2204      	movs	r2, #4
 8003306:	605a      	str	r2, [r3, #4]
  }

  /* Call the Error call Back in case of Errors */
  if (errorcode != HAL_CAN_ERROR_NONE)
 8003308:	6a7b      	ldr	r3, [r7, #36]	; 0x24
 800330a:	2b00      	cmp	r3, #0
 800330c:	d008      	beq.n	8003320 <HAL_CAN_IRQHandler+0x35a>
  {
    /* Update error code in handle */
    hcan->ErrorCode |= errorcode;
 800330e:	687b      	ldr	r3, [r7, #4]
 8003310:	6a5a      	ldr	r2, [r3, #36]	; 0x24
 8003312:	6a7b      	ldr	r3, [r7, #36]	; 0x24
 8003314:	431a      	orrs	r2, r3
 8003316:	687b      	ldr	r3, [r7, #4]
 8003318:	625a      	str	r2, [r3, #36]	; 0x24
#if USE_HAL_CAN_REGISTER_CALLBACKS == 1
    /* Call registered callback*/
    hcan->ErrorCallback(hcan);
#else
    /* Call weak (surcharged) callback */
    HAL_CAN_ErrorCallback(hcan);
 800331a:	6878      	ldr	r0, [r7, #4]
 800331c:	f000 f870 	bl	8003400 <HAL_CAN_ErrorCallback>
#endif /* USE_HAL_CAN_REGISTER_CALLBACKS */
  }
}
 8003320:	bf00      	nop
 8003322:	3728      	adds	r7, #40	; 0x28
 8003324:	46bd      	mov	sp, r7
 8003326:	bd80      	pop	{r7, pc}

08003328 <HAL_CAN_TxMailbox0CompleteCallback>:
  * @param  hcan pointer to a CAN_HandleTypeDef structure that contains
  *         the configuration information for the specified CAN.
  * @retval None
  */
__weak void HAL_CAN_TxMailbox0CompleteCallback(CAN_HandleTypeDef *hcan)
{
 8003328:	b480      	push	{r7}
 800332a:	b083      	sub	sp, #12
 800332c:	af00      	add	r7, sp, #0
 800332e:	6078      	str	r0, [r7, #4]

  /* NOTE : This function Should not be modified, when the callback is needed,
            the HAL_CAN_TxMailbox0CompleteCallback could be implemented in the
            user file
   */
}
 8003330:	bf00      	nop
 8003332:	370c      	adds	r7, #12
 8003334:	46bd      	mov	sp, r7
 8003336:	bc80      	pop	{r7}
 8003338:	4770      	bx	lr

0800333a <HAL_CAN_TxMailbox1CompleteCallback>:
  * @param  hcan pointer to a CAN_HandleTypeDef structure that contains
  *         the configuration information for the specified CAN.
  * @retval None
  */
__weak void HAL_CAN_TxMailbox1CompleteCallback(CAN_HandleTypeDef *hcan)
{
 800333a:	b480      	push	{r7}
 800333c:	b083      	sub	sp, #12
 800333e:	af00      	add	r7, sp, #0
 8003340:	6078      	str	r0, [r7, #4]

  /* NOTE : This function Should not be modified, when the callback is needed,
            the HAL_CAN_TxMailbox1CompleteCallback could be implemented in the
            user file
   */
}
 8003342:	bf00      	nop
 8003344:	370c      	adds	r7, #12
 8003346:	46bd      	mov	sp, r7
 8003348:	bc80      	pop	{r7}
 800334a:	4770      	bx	lr

0800334c <HAL_CAN_TxMailbox2CompleteCallback>:
  * @param  hcan pointer to a CAN_HandleTypeDef structure that contains
  *         the configuration information for the specified CAN.
  * @retval None
  */
__weak void HAL_CAN_TxMailbox2CompleteCallback(CAN_HandleTypeDef *hcan)
{
 800334c:	b480      	push	{r7}
 800334e:	b083      	sub	sp, #12
 8003350:	af00      	add	r7, sp, #0
 8003352:	6078      	str	r0, [r7, #4]

  /* NOTE : This function Should not be modified, when the callback is needed,
            the HAL_CAN_TxMailbox2CompleteCallback could be implemented in the
            user file
   */
}
 8003354:	bf00      	nop
 8003356:	370c      	adds	r7, #12
 8003358:	46bd      	mov	sp, r7
 800335a:	bc80      	pop	{r7}
 800335c:	4770      	bx	lr

0800335e <HAL_CAN_TxMailbox0AbortCallback>:
  * @param  hcan pointer to an CAN_HandleTypeDef structure that contains
  *         the configuration information for the specified CAN.
  * @retval None
  */
__weak void HAL_CAN_TxMailbox0AbortCallback(CAN_HandleTypeDef *hcan)
{
 800335e:	b480      	push	{r7}
 8003360:	b083      	sub	sp, #12
 8003362:	af00      	add	r7, sp, #0
 8003364:	6078      	str	r0, [r7, #4]

  /* NOTE : This function Should not be modified, when the callback is needed,
            the HAL_CAN_TxMailbox0AbortCallback could be implemented in the
            user file
   */
}
 8003366:	bf00      	nop
 8003368:	370c      	adds	r7, #12
 800336a:	46bd      	mov	sp, r7
 800336c:	bc80      	pop	{r7}
 800336e:	4770      	bx	lr

08003370 <HAL_CAN_TxMailbox1AbortCallback>:
  * @param  hcan pointer to an CAN_HandleTypeDef structure that contains
  *         the configuration information for the specified CAN.
  * @retval None
  */
__weak void HAL_CAN_TxMailbox1AbortCallback(CAN_HandleTypeDef *hcan)
{
 8003370:	b480      	push	{r7}
 8003372:	b083      	sub	sp, #12
 8003374:	af00      	add	r7, sp, #0
 8003376:	6078      	str	r0, [r7, #4]

  /* NOTE : This function Should not be modified, when the callback is needed,
            the HAL_CAN_TxMailbox1AbortCallback could be implemented in the
            user file
   */
}
 8003378:	bf00      	nop
 800337a:	370c      	adds	r7, #12
 800337c:	46bd      	mov	sp, r7
 800337e:	bc80      	pop	{r7}
 8003380:	4770      	bx	lr

08003382 <HAL_CAN_TxMailbox2AbortCallback>:
  * @param  hcan pointer to an CAN_HandleTypeDef structure that contains
  *         the configuration information for the specified CAN.
  * @retval None
  */
__weak void HAL_CAN_TxMailbox2AbortCallback(CAN_HandleTypeDef *hcan)
{
 8003382:	b480      	push	{r7}
 8003384:	b083      	sub	sp, #12
 8003386:	af00      	add	r7, sp, #0
 8003388:	6078      	str	r0, [r7, #4]

  /* NOTE : This function Should not be modified, when the callback is needed,
            the HAL_CAN_TxMailbox2AbortCallback could be implemented in the
            user file
   */
}
 800338a:	bf00      	nop
 800338c:	370c      	adds	r7, #12
 800338e:	46bd      	mov	sp, r7
 8003390:	bc80      	pop	{r7}
 8003392:	4770      	bx	lr

08003394 <HAL_CAN_RxFifo0MsgPendingCallback>:
  * @param  hcan pointer to a CAN_HandleTypeDef structure that contains
  *         the configuration information for the specified CAN.
  * @retval None
  */
__weak void HAL_CAN_RxFifo0MsgPendingCallback(CAN_HandleTypeDef *hcan)
{
 8003394:	b480      	push	{r7}
 8003396:	b083      	sub	sp, #12
 8003398:	af00      	add	r7, sp, #0
 800339a:	6078      	str	r0, [r7, #4]

  /* NOTE : This function Should not be modified, when the callback is needed,
            the HAL_CAN_RxFifo0MsgPendingCallback could be implemented in the
            user file
   */
}
 800339c:	bf00      	nop
 800339e:	370c      	adds	r7, #12
 80033a0:	46bd      	mov	sp, r7
 80033a2:	bc80      	pop	{r7}
 80033a4:	4770      	bx	lr

080033a6 <HAL_CAN_RxFifo0FullCallback>:
  * @param  hcan pointer to a CAN_HandleTypeDef structure that contains
  *         the configuration information for the specified CAN.
  * @retval None
  */
__weak void HAL_CAN_RxFifo0FullCallback(CAN_HandleTypeDef *hcan)
{
 80033a6:	b480      	push	{r7}
 80033a8:	b083      	sub	sp, #12
 80033aa:	af00      	add	r7, sp, #0
 80033ac:	6078      	str	r0, [r7, #4]

  /* NOTE : This function Should not be modified, when the callback is needed,
            the HAL_CAN_RxFifo0FullCallback could be implemented in the user
            file
   */
}
 80033ae:	bf00      	nop
 80033b0:	370c      	adds	r7, #12
 80033b2:	46bd      	mov	sp, r7
 80033b4:	bc80      	pop	{r7}
 80033b6:	4770      	bx	lr

080033b8 <HAL_CAN_RxFifo1MsgPendingCallback>:
  * @param  hcan pointer to a CAN_HandleTypeDef structure that contains
  *         the configuration information for the specified CAN.
  * @retval None
  */
__weak void HAL_CAN_RxFifo1MsgPendingCallback(CAN_HandleTypeDef *hcan)
{
 80033b8:	b480      	push	{r7}
 80033ba:	b083      	sub	sp, #12
 80033bc:	af00      	add	r7, sp, #0
 80033be:	6078      	str	r0, [r7, #4]

  /* NOTE : This function Should not be modified, when the callback is needed,
            the HAL_CAN_RxFifo1MsgPendingCallback could be implemented in the
            user file
   */
}
 80033c0:	bf00      	nop
 80033c2:	370c      	adds	r7, #12
 80033c4:	46bd      	mov	sp, r7
 80033c6:	bc80      	pop	{r7}
 80033c8:	4770      	bx	lr

080033ca <HAL_CAN_RxFifo1FullCallback>:
  * @param  hcan pointer to a CAN_HandleTypeDef structure that contains
  *         the configuration information for the specified CAN.
  * @retval None
  */
__weak void HAL_CAN_RxFifo1FullCallback(CAN_HandleTypeDef *hcan)
{
 80033ca:	b480      	push	{r7}
 80033cc:	b083      	sub	sp, #12
 80033ce:	af00      	add	r7, sp, #0
 80033d0:	6078      	str	r0, [r7, #4]

  /* NOTE : This function Should not be modified, when the callback is needed,
            the HAL_CAN_RxFifo1FullCallback could be implemented in the user
            file
   */
}
 80033d2:	bf00      	nop
 80033d4:	370c      	adds	r7, #12
 80033d6:	46bd      	mov	sp, r7
 80033d8:	bc80      	pop	{r7}
 80033da:	4770      	bx	lr

080033dc <HAL_CAN_SleepCallback>:
  * @param  hcan pointer to a CAN_HandleTypeDef structure that contains
  *         the configuration information for the specified CAN.
  * @retval None
  */
__weak void HAL_CAN_SleepCallback(CAN_HandleTypeDef *hcan)
{
 80033dc:	b480      	push	{r7}
 80033de:	b083      	sub	sp, #12
 80033e0:	af00      	add	r7, sp, #0
 80033e2:	6078      	str	r0, [r7, #4]
  UNUSED(hcan);

  /* NOTE : This function Should not be modified, when the callback is needed,
            the HAL_CAN_SleepCallback could be implemented in the user file
   */
}
 80033e4:	bf00      	nop
 80033e6:	370c      	adds	r7, #12
 80033e8:	46bd      	mov	sp, r7
 80033ea:	bc80      	pop	{r7}
 80033ec:	4770      	bx	lr

080033ee <HAL_CAN_WakeUpFromRxMsgCallback>:
  * @param  hcan pointer to a CAN_HandleTypeDef structure that contains
  *         the configuration information for the specified CAN.
  * @retval None
  */
__weak void HAL_CAN_WakeUpFromRxMsgCallback(CAN_HandleTypeDef *hcan)
{
 80033ee:	b480      	push	{r7}
 80033f0:	b083      	sub	sp, #12
 80033f2:	af00      	add	r7, sp, #0
 80033f4:	6078      	str	r0, [r7, #4]

  /* NOTE : This function Should not be modified, when the callback is needed,
            the HAL_CAN_WakeUpFromRxMsgCallback could be implemented in the
            user file
   */
}
 80033f6:	bf00      	nop
 80033f8:	370c      	adds	r7, #12
 80033fa:	46bd      	mov	sp, r7
 80033fc:	bc80      	pop	{r7}
 80033fe:	4770      	bx	lr

08003400 <HAL_CAN_ErrorCallback>:
  * @param  hcan pointer to a CAN_HandleTypeDef structure that contains
  *         the configuration information for the specified CAN.
  * @retval None
  */
__weak void HAL_CAN_ErrorCallback(CAN_HandleTypeDef *hcan)
{
 8003400:	b480      	push	{r7}
 8003402:	b083      	sub	sp, #12
 8003404:	af00      	add	r7, sp, #0
 8003406:	6078      	str	r0, [r7, #4]
  UNUSED(hcan);

  /* NOTE : This function Should not be modified, when the callback is needed,
            the HAL_CAN_ErrorCallback could be implemented in the user file
   */
}
 8003408:	bf00      	nop
 800340a:	370c      	adds	r7, #12
 800340c:	46bd      	mov	sp, r7
 800340e:	bc80      	pop	{r7}
 8003410:	4770      	bx	lr
	...

08003414 <__NVIC_SetPriorityGrouping>:
           In case of a conflict between priority grouping and available
           priority bits (__NVIC_PRIO_BITS), the smallest possible priority group is set.
  \param [in]      PriorityGroup  Priority grouping field.
 */
__STATIC_INLINE void __NVIC_SetPriorityGrouping(uint32_t PriorityGroup)
{
 8003414:	b480      	push	{r7}
 8003416:	b085      	sub	sp, #20
 8003418:	af00      	add	r7, sp, #0
 800341a:	6078      	str	r0, [r7, #4]
  uint32_t reg_value;
  uint32_t PriorityGroupTmp = (PriorityGroup & (uint32_t)0x07UL);             /* only values 0..7 are used          */
 800341c:	687b      	ldr	r3, [r7, #4]
 800341e:	f003 0307 	and.w	r3, r3, #7
 8003422:	60fb      	str	r3, [r7, #12]

  reg_value  =  SCB->AIRCR;                                                   /* read old register configuration    */
 8003424:	4b0c      	ldr	r3, [pc, #48]	; (8003458 <__NVIC_SetPriorityGrouping+0x44>)
 8003426:	68db      	ldr	r3, [r3, #12]
 8003428:	60bb      	str	r3, [r7, #8]
  reg_value &= ~((uint32_t)(SCB_AIRCR_VECTKEY_Msk | SCB_AIRCR_PRIGROUP_Msk)); /* clear bits to change               */
 800342a:	68ba      	ldr	r2, [r7, #8]
 800342c:	f64f 03ff 	movw	r3, #63743	; 0xf8ff
 8003430:	4013      	ands	r3, r2
 8003432:	60bb      	str	r3, [r7, #8]
  reg_value  =  (reg_value                                   |
                ((uint32_t)0x5FAUL << SCB_AIRCR_VECTKEY_Pos) |
                (PriorityGroupTmp << SCB_AIRCR_PRIGROUP_Pos) );               /* Insert write key and priority group */
 8003434:	68fb      	ldr	r3, [r7, #12]
 8003436:	021a      	lsls	r2, r3, #8
                ((uint32_t)0x5FAUL << SCB_AIRCR_VECTKEY_Pos) |
 8003438:	68bb      	ldr	r3, [r7, #8]
 800343a:	4313      	orrs	r3, r2
  reg_value  =  (reg_value                                   |
 800343c:	f043 63bf 	orr.w	r3, r3, #100139008	; 0x5f80000
 8003440:	f443 3300 	orr.w	r3, r3, #131072	; 0x20000
 8003444:	60bb      	str	r3, [r7, #8]
  SCB->AIRCR =  reg_value;
 8003446:	4a04      	ldr	r2, [pc, #16]	; (8003458 <__NVIC_SetPriorityGrouping+0x44>)
 8003448:	68bb      	ldr	r3, [r7, #8]
 800344a:	60d3      	str	r3, [r2, #12]
}
 800344c:	bf00      	nop
 800344e:	3714      	adds	r7, #20
 8003450:	46bd      	mov	sp, r7
 8003452:	bc80      	pop	{r7}
 8003454:	4770      	bx	lr
 8003456:	bf00      	nop
 8003458:	e000ed00 	.word	0xe000ed00

0800345c <__NVIC_GetPriorityGrouping>:
  \brief   Get Priority Grouping
  \details Reads the priority grouping field from the NVIC Interrupt Controller.
  \return                Priority grouping field (SCB->AIRCR [10:8] PRIGROUP field).
 */
__STATIC_INLINE uint32_t __NVIC_GetPriorityGrouping(void)
{
 800345c:	b480      	push	{r7}
 800345e:	af00      	add	r7, sp, #0
  return ((uint32_t)((SCB->AIRCR & SCB_AIRCR_PRIGROUP_Msk) >> SCB_AIRCR_PRIGROUP_Pos));
 8003460:	4b04      	ldr	r3, [pc, #16]	; (8003474 <__NVIC_GetPriorityGrouping+0x18>)
 8003462:	68db      	ldr	r3, [r3, #12]
 8003464:	0a1b      	lsrs	r3, r3, #8
 8003466:	f003 0307 	and.w	r3, r3, #7
}
 800346a:	4618      	mov	r0, r3
 800346c:	46bd      	mov	sp, r7
 800346e:	bc80      	pop	{r7}
 8003470:	4770      	bx	lr
 8003472:	bf00      	nop
 8003474:	e000ed00 	.word	0xe000ed00

08003478 <__NVIC_EnableIRQ>:
  \details Enables a device specific interrupt in the NVIC interrupt controller.
  \param [in]      IRQn  Device specific interrupt number.
  \note    IRQn must not be negative.
 */
__STATIC_INLINE void __NVIC_EnableIRQ(IRQn_Type IRQn)
{
 8003478:	b480      	push	{r7}
 800347a:	b083      	sub	sp, #12
 800347c:	af00      	add	r7, sp, #0
 800347e:	4603      	mov	r3, r0
 8003480:	71fb      	strb	r3, [r7, #7]
  if ((int32_t)(IRQn) >= 0)
 8003482:	f997 3007 	ldrsb.w	r3, [r7, #7]
 8003486:	2b00      	cmp	r3, #0
 8003488:	db0b      	blt.n	80034a2 <__NVIC_EnableIRQ+0x2a>
  {
    NVIC->ISER[(((uint32_t)IRQn) >> 5UL)] = (uint32_t)(1UL << (((uint32_t)IRQn) & 0x1FUL));
 800348a:	79fb      	ldrb	r3, [r7, #7]
 800348c:	f003 021f 	and.w	r2, r3, #31
 8003490:	4906      	ldr	r1, [pc, #24]	; (80034ac <__NVIC_EnableIRQ+0x34>)
 8003492:	f997 3007 	ldrsb.w	r3, [r7, #7]
 8003496:	095b      	lsrs	r3, r3, #5
 8003498:	2001      	movs	r0, #1
 800349a:	fa00 f202 	lsl.w	r2, r0, r2
 800349e:	f841 2023 	str.w	r2, [r1, r3, lsl #2]
  }
}
 80034a2:	bf00      	nop
 80034a4:	370c      	adds	r7, #12
 80034a6:	46bd      	mov	sp, r7
 80034a8:	bc80      	pop	{r7}
 80034aa:	4770      	bx	lr
 80034ac:	e000e100 	.word	0xe000e100

080034b0 <__NVIC_SetPriority>:
  \param [in]      IRQn  Interrupt number.
  \param [in]  priority  Priority to set.
  \note    The priority cannot be set for every processor exception.
 */
__STATIC_INLINE void __NVIC_SetPriority(IRQn_Type IRQn, uint32_t priority)
{
 80034b0:	b480      	push	{r7}
 80034b2:	b083      	sub	sp, #12
 80034b4:	af00      	add	r7, sp, #0
 80034b6:	4603      	mov	r3, r0
 80034b8:	6039      	str	r1, [r7, #0]
 80034ba:	71fb      	strb	r3, [r7, #7]
  if ((int32_t)(IRQn) >= 0)
 80034bc:	f997 3007 	ldrsb.w	r3, [r7, #7]
 80034c0:	2b00      	cmp	r3, #0
 80034c2:	db0a      	blt.n	80034da <__NVIC_SetPriority+0x2a>
  {
    NVIC->IP[((uint32_t)IRQn)]               = (uint8_t)((priority << (8U - __NVIC_PRIO_BITS)) & (uint32_t)0xFFUL);
 80034c4:	683b      	ldr	r3, [r7, #0]
 80034c6:	b2da      	uxtb	r2, r3
 80034c8:	490c      	ldr	r1, [pc, #48]	; (80034fc <__NVIC_SetPriority+0x4c>)
 80034ca:	f997 3007 	ldrsb.w	r3, [r7, #7]
 80034ce:	0112      	lsls	r2, r2, #4
 80034d0:	b2d2      	uxtb	r2, r2
 80034d2:	440b      	add	r3, r1
 80034d4:	f883 2300 	strb.w	r2, [r3, #768]	; 0x300
  }
  else
  {
    SCB->SHP[(((uint32_t)IRQn) & 0xFUL)-4UL] = (uint8_t)((priority << (8U - __NVIC_PRIO_BITS)) & (uint32_t)0xFFUL);
  }
}
 80034d8:	e00a      	b.n	80034f0 <__NVIC_SetPriority+0x40>
    SCB->SHP[(((uint32_t)IRQn) & 0xFUL)-4UL] = (uint8_t)((priority << (8U - __NVIC_PRIO_BITS)) & (uint32_t)0xFFUL);
 80034da:	683b      	ldr	r3, [r7, #0]
 80034dc:	b2da      	uxtb	r2, r3
 80034de:	4908      	ldr	r1, [pc, #32]	; (8003500 <__NVIC_SetPriority+0x50>)
 80034e0:	79fb      	ldrb	r3, [r7, #7]
 80034e2:	f003 030f 	and.w	r3, r3, #15
 80034e6:	3b04      	subs	r3, #4
 80034e8:	0112      	lsls	r2, r2, #4
 80034ea:	b2d2      	uxtb	r2, r2
 80034ec:	440b      	add	r3, r1
 80034ee:	761a      	strb	r2, [r3, #24]
}
 80034f0:	bf00      	nop
 80034f2:	370c      	adds	r7, #12
 80034f4:	46bd      	mov	sp, r7
 80034f6:	bc80      	pop	{r7}
 80034f8:	4770      	bx	lr
 80034fa:	bf00      	nop
 80034fc:	e000e100 	.word	0xe000e100
 8003500:	e000ed00 	.word	0xe000ed00

08003504 <NVIC_EncodePriority>:
  \param [in]   PreemptPriority  Preemptive priority value (starting from 0).
  \param [in]       SubPriority  Subpriority value (starting from 0).
  \return                        Encoded priority. Value can be used in the function \ref NVIC_SetPriority().
 */
__STATIC_INLINE uint32_t NVIC_EncodePriority (uint32_t PriorityGroup, uint32_t PreemptPriority, uint32_t SubPriority)
{
 8003504:	b480      	push	{r7}
 8003506:	b089      	sub	sp, #36	; 0x24
 8003508:	af00      	add	r7, sp, #0
 800350a:	60f8      	str	r0, [r7, #12]
 800350c:	60b9      	str	r1, [r7, #8]
 800350e:	607a      	str	r2, [r7, #4]
  uint32_t PriorityGroupTmp = (PriorityGroup & (uint32_t)0x07UL);   /* only values 0..7 are used          */
 8003510:	68fb      	ldr	r3, [r7, #12]
 8003512:	f003 0307 	and.w	r3, r3, #7
 8003516:	61fb      	str	r3, [r7, #28]
  uint32_t PreemptPriorityBits;
  uint32_t SubPriorityBits;

  PreemptPriorityBits = ((7UL - PriorityGroupTmp) > (uint32_t)(__NVIC_PRIO_BITS)) ? (uint32_t)(__NVIC_PRIO_BITS) : (uint32_t)(7UL - PriorityGroupTmp);
 8003518:	69fb      	ldr	r3, [r7, #28]
 800351a:	f1c3 0307 	rsb	r3, r3, #7
 800351e:	2b04      	cmp	r3, #4
 8003520:	bf28      	it	cs
 8003522:	2304      	movcs	r3, #4
 8003524:	61bb      	str	r3, [r7, #24]
  SubPriorityBits     = ((PriorityGroupTmp + (uint32_t)(__NVIC_PRIO_BITS)) < (uint32_t)7UL) ? (uint32_t)0UL : (uint32_t)((PriorityGroupTmp - 7UL) + (uint32_t)(__NVIC_PRIO_BITS));
 8003526:	69fb      	ldr	r3, [r7, #28]
 8003528:	3304      	adds	r3, #4
 800352a:	2b06      	cmp	r3, #6
 800352c:	d902      	bls.n	8003534 <NVIC_EncodePriority+0x30>
 800352e:	69fb      	ldr	r3, [r7, #28]
 8003530:	3b03      	subs	r3, #3
 8003532:	e000      	b.n	8003536 <NVIC_EncodePriority+0x32>
 8003534:	2300      	movs	r3, #0
 8003536:	617b      	str	r3, [r7, #20]

  return (
           ((PreemptPriority & (uint32_t)((1UL << (PreemptPriorityBits)) - 1UL)) << SubPriorityBits) |
 8003538:	f04f 32ff 	mov.w	r2, #4294967295
 800353c:	69bb      	ldr	r3, [r7, #24]
 800353e:	fa02 f303 	lsl.w	r3, r2, r3
 8003542:	43da      	mvns	r2, r3
 8003544:	68bb      	ldr	r3, [r7, #8]
 8003546:	401a      	ands	r2, r3
 8003548:	697b      	ldr	r3, [r7, #20]
 800354a:	409a      	lsls	r2, r3
           ((SubPriority     & (uint32_t)((1UL << (SubPriorityBits    )) - 1UL)))
 800354c:	f04f 31ff 	mov.w	r1, #4294967295
 8003550:	697b      	ldr	r3, [r7, #20]
 8003552:	fa01 f303 	lsl.w	r3, r1, r3
 8003556:	43d9      	mvns	r1, r3
 8003558:	687b      	ldr	r3, [r7, #4]
 800355a:	400b      	ands	r3, r1
           ((PreemptPriority & (uint32_t)((1UL << (PreemptPriorityBits)) - 1UL)) << SubPriorityBits) |
 800355c:	4313      	orrs	r3, r2
         );
}
 800355e:	4618      	mov	r0, r3
 8003560:	3724      	adds	r7, #36	; 0x24
 8003562:	46bd      	mov	sp, r7
 8003564:	bc80      	pop	{r7}
 8003566:	4770      	bx	lr

08003568 <HAL_NVIC_SetPriorityGrouping>:
  * @note   When the NVIC_PriorityGroup_0 is selected, IRQ preemption is no more possible. 
  *         The pending IRQ priority will be managed only by the subpriority. 
  * @retval None
  */
void HAL_NVIC_SetPriorityGrouping(uint32_t PriorityGroup)
{
 8003568:	b580      	push	{r7, lr}
 800356a:	b082      	sub	sp, #8
 800356c:	af00      	add	r7, sp, #0
 800356e:	6078      	str	r0, [r7, #4]
  /* Check the parameters */
  assert_param(IS_NVIC_PRIORITY_GROUP(PriorityGroup));
  
  /* Set the PRIGROUP[10:8] bits according to the PriorityGroup parameter value */
  NVIC_SetPriorityGrouping(PriorityGroup);
 8003570:	6878      	ldr	r0, [r7, #4]
 8003572:	f7ff ff4f 	bl	8003414 <__NVIC_SetPriorityGrouping>
}
 8003576:	bf00      	nop
 8003578:	3708      	adds	r7, #8
 800357a:	46bd      	mov	sp, r7
 800357c:	bd80      	pop	{r7, pc}

0800357e <HAL_NVIC_SetPriority>:
  *         This parameter can be a value between 0 and 15
  *         A lower priority value indicates a higher priority.          
  * @retval None
  */
void HAL_NVIC_SetPriority(IRQn_Type IRQn, uint32_t PreemptPriority, uint32_t SubPriority)
{ 
 800357e:	b580      	push	{r7, lr}
 8003580:	b086      	sub	sp, #24
 8003582:	af00      	add	r7, sp, #0
 8003584:	4603      	mov	r3, r0
 8003586:	60b9      	str	r1, [r7, #8]
 8003588:	607a      	str	r2, [r7, #4]
 800358a:	73fb      	strb	r3, [r7, #15]
  uint32_t prioritygroup = 0x00U;
 800358c:	2300      	movs	r3, #0
 800358e:	617b      	str	r3, [r7, #20]
  
  /* Check the parameters */
  assert_param(IS_NVIC_SUB_PRIORITY(SubPriority));
  assert_param(IS_NVIC_PREEMPTION_PRIORITY(PreemptPriority));
  
  prioritygroup = NVIC_GetPriorityGrouping();
 8003590:	f7ff ff64 	bl	800345c <__NVIC_GetPriorityGrouping>
 8003594:	6178      	str	r0, [r7, #20]
  
  NVIC_SetPriority(IRQn, NVIC_EncodePriority(prioritygroup, PreemptPriority, SubPriority));
 8003596:	687a      	ldr	r2, [r7, #4]
 8003598:	68b9      	ldr	r1, [r7, #8]
 800359a:	6978      	ldr	r0, [r7, #20]
 800359c:	f7ff ffb2 	bl	8003504 <NVIC_EncodePriority>
 80035a0:	4602      	mov	r2, r0
 80035a2:	f997 300f 	ldrsb.w	r3, [r7, #15]
 80035a6:	4611      	mov	r1, r2
 80035a8:	4618      	mov	r0, r3
 80035aa:	f7ff ff81 	bl	80034b0 <__NVIC_SetPriority>
}
 80035ae:	bf00      	nop
 80035b0:	3718      	adds	r7, #24
 80035b2:	46bd      	mov	sp, r7
 80035b4:	bd80      	pop	{r7, pc}

080035b6 <HAL_NVIC_EnableIRQ>:
  *         This parameter can be an enumerator of IRQn_Type enumeration
  *         (For the complete STM32 Devices IRQ Channels list, please refer to the appropriate CMSIS device file (stm32f10xxx.h))
  * @retval None
  */
void HAL_NVIC_EnableIRQ(IRQn_Type IRQn)
{
 80035b6:	b580      	push	{r7, lr}
 80035b8:	b082      	sub	sp, #8
 80035ba:	af00      	add	r7, sp, #0
 80035bc:	4603      	mov	r3, r0
 80035be:	71fb      	strb	r3, [r7, #7]
  /* Check the parameters */
  assert_param(IS_NVIC_DEVICE_IRQ(IRQn));

  /* Enable interrupt */
  NVIC_EnableIRQ(IRQn);
 80035c0:	f997 3007 	ldrsb.w	r3, [r7, #7]
 80035c4:	4618      	mov	r0, r3
 80035c6:	f7ff ff57 	bl	8003478 <__NVIC_EnableIRQ>
}
 80035ca:	bf00      	nop
 80035cc:	3708      	adds	r7, #8
 80035ce:	46bd      	mov	sp, r7
 80035d0:	bd80      	pop	{r7, pc}
	...

080035d4 <HAL_DMA_Init>:
  * @param  hdma: Pointer to a DMA_HandleTypeDef structure that contains
  *               the configuration information for the specified DMA Channel.
  * @retval HAL status
  */
HAL_StatusTypeDef HAL_DMA_Init(DMA_HandleTypeDef *hdma)
{
 80035d4:	b480      	push	{r7}
 80035d6:	b085      	sub	sp, #20
 80035d8:	af00      	add	r7, sp, #0
 80035da:	6078      	str	r0, [r7, #4]
  uint32_t tmp = 0U;
 80035dc:	2300      	movs	r3, #0
 80035de:	60fb      	str	r3, [r7, #12]

  /* Check the DMA handle allocation */
  if(hdma == NULL)
 80035e0:	687b      	ldr	r3, [r7, #4]
 80035e2:	2b00      	cmp	r3, #0
 80035e4:	d101      	bne.n	80035ea <HAL_DMA_Init+0x16>
  {
    return HAL_ERROR;
 80035e6:	2301      	movs	r3, #1
 80035e8:	e043      	b.n	8003672 <HAL_DMA_Init+0x9e>
    hdma->ChannelIndex = (((uint32_t)hdma->Instance - (uint32_t)DMA2_Channel1) / ((uint32_t)DMA2_Channel2 - (uint32_t)DMA2_Channel1)) << 2;
    hdma->DmaBaseAddress = DMA2;
  }
#else
  /* DMA1 */
  hdma->ChannelIndex = (((uint32_t)hdma->Instance - (uint32_t)DMA1_Channel1) / ((uint32_t)DMA1_Channel2 - (uint32_t)DMA1_Channel1)) << 2;
 80035ea:	687b      	ldr	r3, [r7, #4]
 80035ec:	681b      	ldr	r3, [r3, #0]
 80035ee:	461a      	mov	r2, r3
 80035f0:	4b22      	ldr	r3, [pc, #136]	; (800367c <HAL_DMA_Init+0xa8>)
 80035f2:	4413      	add	r3, r2
 80035f4:	4a22      	ldr	r2, [pc, #136]	; (8003680 <HAL_DMA_Init+0xac>)
 80035f6:	fba2 2303 	umull	r2, r3, r2, r3
 80035fa:	091b      	lsrs	r3, r3, #4
 80035fc:	009a      	lsls	r2, r3, #2
 80035fe:	687b      	ldr	r3, [r7, #4]
 8003600:	641a      	str	r2, [r3, #64]	; 0x40
  hdma->DmaBaseAddress = DMA1;
 8003602:	687b      	ldr	r3, [r7, #4]
 8003604:	4a1f      	ldr	r2, [pc, #124]	; (8003684 <HAL_DMA_Init+0xb0>)
 8003606:	63da      	str	r2, [r3, #60]	; 0x3c
#endif /* DMA2 */

  /* Change DMA peripheral state */
  hdma->State = HAL_DMA_STATE_BUSY;
 8003608:	687b      	ldr	r3, [r7, #4]
 800360a:	2202      	movs	r2, #2
 800360c:	f883 2021 	strb.w	r2, [r3, #33]	; 0x21

  /* Get the CR register value */
  tmp = hdma->Instance->CCR;
 8003610:	687b      	ldr	r3, [r7, #4]
 8003612:	681b      	ldr	r3, [r3, #0]
 8003614:	681b      	ldr	r3, [r3, #0]
 8003616:	60fb      	str	r3, [r7, #12]

  /* Clear PL, MSIZE, PSIZE, MINC, PINC, CIRC and DIR bits */
  tmp &= ((uint32_t)~(DMA_CCR_PL    | DMA_CCR_MSIZE  | DMA_CCR_PSIZE  | \
 8003618:	68fb      	ldr	r3, [r7, #12]
 800361a:	f423 537f 	bic.w	r3, r3, #16320	; 0x3fc0
 800361e:	f023 0330 	bic.w	r3, r3, #48	; 0x30
 8003622:	60fb      	str	r3, [r7, #12]
                      DMA_CCR_MINC  | DMA_CCR_PINC   | DMA_CCR_CIRC   | \
                      DMA_CCR_DIR));

  /* Prepare the DMA Channel configuration */
  tmp |=  hdma->Init.Direction        |
 8003624:	687b      	ldr	r3, [r7, #4]
 8003626:	685a      	ldr	r2, [r3, #4]
          hdma->Init.PeriphInc           | hdma->Init.MemInc           |
 8003628:	687b      	ldr	r3, [r7, #4]
 800362a:	689b      	ldr	r3, [r3, #8]
  tmp |=  hdma->Init.Direction        |
 800362c:	431a      	orrs	r2, r3
          hdma->Init.PeriphInc           | hdma->Init.MemInc           |
 800362e:	687b      	ldr	r3, [r7, #4]
 8003630:	68db      	ldr	r3, [r3, #12]
 8003632:	431a      	orrs	r2, r3
          hdma->Init.PeriphDataAlignment | hdma->Init.MemDataAlignment |
 8003634:	687b      	ldr	r3, [r7, #4]
 8003636:	691b      	ldr	r3, [r3, #16]
          hdma->Init.PeriphInc           | hdma->Init.MemInc           |
 8003638:	431a      	orrs	r2, r3
          hdma->Init.PeriphDataAlignment | hdma->Init.MemDataAlignment |
 800363a:	687b      	ldr	r3, [r7, #4]
 800363c:	695b      	ldr	r3, [r3, #20]
 800363e:	431a      	orrs	r2, r3
          hdma->Init.Mode                | hdma->Init.Priority;
 8003640:	687b      	ldr	r3, [r7, #4]
 8003642:	699b      	ldr	r3, [r3, #24]
          hdma->Init.PeriphDataAlignment | hdma->Init.MemDataAlignment |
 8003644:	431a      	orrs	r2, r3
          hdma->Init.Mode                | hdma->Init.Priority;
 8003646:	687b      	ldr	r3, [r7, #4]
 8003648:	69db      	ldr	r3, [r3, #28]
 800364a:	4313      	orrs	r3, r2
  tmp |=  hdma->Init.Direction        |
 800364c:	68fa      	ldr	r2, [r7, #12]
 800364e:	4313      	orrs	r3, r2
 8003650:	60fb      	str	r3, [r7, #12]

  /* Write to DMA Channel CR register */
  hdma->Instance->CCR = tmp;
 8003652:	687b      	ldr	r3, [r7, #4]
 8003654:	681b      	ldr	r3, [r3, #0]
 8003656:	68fa      	ldr	r2, [r7, #12]
 8003658:	601a      	str	r2, [r3, #0]

  /* Initialise the error code */
  hdma->ErrorCode = HAL_DMA_ERROR_NONE;
 800365a:	687b      	ldr	r3, [r7, #4]
 800365c:	2200      	movs	r2, #0
 800365e:	639a      	str	r2, [r3, #56]	; 0x38

  /* Initialize the DMA state*/
  hdma->State = HAL_DMA_STATE_READY;
 8003660:	687b      	ldr	r3, [r7, #4]
 8003662:	2201      	movs	r2, #1
 8003664:	f883 2021 	strb.w	r2, [r3, #33]	; 0x21
  /* Allocate lock resource and initialize it */
  hdma->Lock = HAL_UNLOCKED;
 8003668:	687b      	ldr	r3, [r7, #4]
 800366a:	2200      	movs	r2, #0
 800366c:	f883 2020 	strb.w	r2, [r3, #32]

  return HAL_OK;
 8003670:	2300      	movs	r3, #0
}
 8003672:	4618      	mov	r0, r3
 8003674:	3714      	adds	r7, #20
 8003676:	46bd      	mov	sp, r7
 8003678:	bc80      	pop	{r7}
 800367a:	4770      	bx	lr
 800367c:	bffdfff8 	.word	0xbffdfff8
 8003680:	cccccccd 	.word	0xcccccccd
 8003684:	40020000 	.word	0x40020000

08003688 <HAL_DMA_Start_IT>:
  * @param  DstAddress: The destination memory Buffer address
  * @param  DataLength: The length of data to be transferred from source to destination
  * @retval HAL status
  */
HAL_StatusTypeDef HAL_DMA_Start_IT(DMA_HandleTypeDef *hdma, uint32_t SrcAddress, uint32_t DstAddress, uint32_t DataLength)
{
 8003688:	b580      	push	{r7, lr}
 800368a:	b086      	sub	sp, #24
 800368c:	af00      	add	r7, sp, #0
 800368e:	60f8      	str	r0, [r7, #12]
 8003690:	60b9      	str	r1, [r7, #8]
 8003692:	607a      	str	r2, [r7, #4]
 8003694:	603b      	str	r3, [r7, #0]
  HAL_StatusTypeDef status = HAL_OK;
 8003696:	2300      	movs	r3, #0
 8003698:	75fb      	strb	r3, [r7, #23]

  /* Check the parameters */
  assert_param(IS_DMA_BUFFER_SIZE(DataLength));

  /* Process locked */
  __HAL_LOCK(hdma);
 800369a:	68fb      	ldr	r3, [r7, #12]
 800369c:	f893 3020 	ldrb.w	r3, [r3, #32]
 80036a0:	2b01      	cmp	r3, #1
 80036a2:	d101      	bne.n	80036a8 <HAL_DMA_Start_IT+0x20>
 80036a4:	2302      	movs	r3, #2
 80036a6:	e04a      	b.n	800373e <HAL_DMA_Start_IT+0xb6>
 80036a8:	68fb      	ldr	r3, [r7, #12]
 80036aa:	2201      	movs	r2, #1
 80036ac:	f883 2020 	strb.w	r2, [r3, #32]
  
  if(HAL_DMA_STATE_READY == hdma->State)
 80036b0:	68fb      	ldr	r3, [r7, #12]
 80036b2:	f893 3021 	ldrb.w	r3, [r3, #33]	; 0x21
 80036b6:	2b01      	cmp	r3, #1
 80036b8:	d13a      	bne.n	8003730 <HAL_DMA_Start_IT+0xa8>
  {
    /* Change DMA peripheral state */
    hdma->State = HAL_DMA_STATE_BUSY;
 80036ba:	68fb      	ldr	r3, [r7, #12]
 80036bc:	2202      	movs	r2, #2
 80036be:	f883 2021 	strb.w	r2, [r3, #33]	; 0x21
    hdma->ErrorCode = HAL_DMA_ERROR_NONE;
 80036c2:	68fb      	ldr	r3, [r7, #12]
 80036c4:	2200      	movs	r2, #0
 80036c6:	639a      	str	r2, [r3, #56]	; 0x38
    
    /* Disable the peripheral */
    __HAL_DMA_DISABLE(hdma);
 80036c8:	68fb      	ldr	r3, [r7, #12]
 80036ca:	681b      	ldr	r3, [r3, #0]
 80036cc:	681a      	ldr	r2, [r3, #0]
 80036ce:	68fb      	ldr	r3, [r7, #12]
 80036d0:	681b      	ldr	r3, [r3, #0]
 80036d2:	f022 0201 	bic.w	r2, r2, #1
 80036d6:	601a      	str	r2, [r3, #0]
    
    /* Configure the source, destination address and the data length & clear flags*/
    DMA_SetConfig(hdma, SrcAddress, DstAddress, DataLength);
 80036d8:	683b      	ldr	r3, [r7, #0]
 80036da:	687a      	ldr	r2, [r7, #4]
 80036dc:	68b9      	ldr	r1, [r7, #8]
 80036de:	68f8      	ldr	r0, [r7, #12]
 80036e0:	f000 f938 	bl	8003954 <DMA_SetConfig>
    
    /* Enable the transfer complete interrupt */
    /* Enable the transfer Error interrupt */
    if(NULL != hdma->XferHalfCpltCallback)
 80036e4:	68fb      	ldr	r3, [r7, #12]
 80036e6:	6adb      	ldr	r3, [r3, #44]	; 0x2c
 80036e8:	2b00      	cmp	r3, #0
 80036ea:	d008      	beq.n	80036fe <HAL_DMA_Start_IT+0x76>
    {
      /* Enable the Half transfer complete interrupt as well */
      __HAL_DMA_ENABLE_IT(hdma, (DMA_IT_TC | DMA_IT_HT | DMA_IT_TE));
 80036ec:	68fb      	ldr	r3, [r7, #12]
 80036ee:	681b      	ldr	r3, [r3, #0]
 80036f0:	681a      	ldr	r2, [r3, #0]
 80036f2:	68fb      	ldr	r3, [r7, #12]
 80036f4:	681b      	ldr	r3, [r3, #0]
 80036f6:	f042 020e 	orr.w	r2, r2, #14
 80036fa:	601a      	str	r2, [r3, #0]
 80036fc:	e00f      	b.n	800371e <HAL_DMA_Start_IT+0x96>
    }
    else
    {
      __HAL_DMA_DISABLE_IT(hdma, DMA_IT_HT);
 80036fe:	68fb      	ldr	r3, [r7, #12]
 8003700:	681b      	ldr	r3, [r3, #0]
 8003702:	681a      	ldr	r2, [r3, #0]
 8003704:	68fb      	ldr	r3, [r7, #12]
 8003706:	681b      	ldr	r3, [r3, #0]
 8003708:	f022 0204 	bic.w	r2, r2, #4
 800370c:	601a      	str	r2, [r3, #0]
      __HAL_DMA_ENABLE_IT(hdma, (DMA_IT_TC | DMA_IT_TE));
 800370e:	68fb      	ldr	r3, [r7, #12]
 8003710:	681b      	ldr	r3, [r3, #0]
 8003712:	681a      	ldr	r2, [r3, #0]
 8003714:	68fb      	ldr	r3, [r7, #12]
 8003716:	681b      	ldr	r3, [r3, #0]
 8003718:	f042 020a 	orr.w	r2, r2, #10
 800371c:	601a      	str	r2, [r3, #0]
    }
    /* Enable the Peripheral */
    __HAL_DMA_ENABLE(hdma);
 800371e:	68fb      	ldr	r3, [r7, #12]
 8003720:	681b      	ldr	r3, [r3, #0]
 8003722:	681a      	ldr	r2, [r3, #0]
 8003724:	68fb      	ldr	r3, [r7, #12]
 8003726:	681b      	ldr	r3, [r3, #0]
 8003728:	f042 0201 	orr.w	r2, r2, #1
 800372c:	601a      	str	r2, [r3, #0]
 800372e:	e005      	b.n	800373c <HAL_DMA_Start_IT+0xb4>
  }
  else
  {      
    /* Process Unlocked */
    __HAL_UNLOCK(hdma); 
 8003730:	68fb      	ldr	r3, [r7, #12]
 8003732:	2200      	movs	r2, #0
 8003734:	f883 2020 	strb.w	r2, [r3, #32]

    /* Remain BUSY */
    status = HAL_BUSY;
 8003738:	2302      	movs	r3, #2
 800373a:	75fb      	strb	r3, [r7, #23]
  }    
  return status;
 800373c:	7dfb      	ldrb	r3, [r7, #23]
}
 800373e:	4618      	mov	r0, r3
 8003740:	3718      	adds	r7, #24
 8003742:	46bd      	mov	sp, r7
 8003744:	bd80      	pop	{r7, pc}
	...

08003748 <HAL_DMA_IRQHandler>:
  * @param  hdma: pointer to a DMA_HandleTypeDef structure that contains
  *               the configuration information for the specified DMA Channel.  
  * @retval None
  */
void HAL_DMA_IRQHandler(DMA_HandleTypeDef *hdma)
{
 8003748:	b580      	push	{r7, lr}
 800374a:	b084      	sub	sp, #16
 800374c:	af00      	add	r7, sp, #0
 800374e:	6078      	str	r0, [r7, #4]
  uint32_t flag_it = hdma->DmaBaseAddress->ISR;
 8003750:	687b      	ldr	r3, [r7, #4]
 8003752:	6bdb      	ldr	r3, [r3, #60]	; 0x3c
 8003754:	681b      	ldr	r3, [r3, #0]
 8003756:	60fb      	str	r3, [r7, #12]
  uint32_t source_it = hdma->Instance->CCR;
 8003758:	687b      	ldr	r3, [r7, #4]
 800375a:	681b      	ldr	r3, [r3, #0]
 800375c:	681b      	ldr	r3, [r3, #0]
 800375e:	60bb      	str	r3, [r7, #8]
  
  /* Half Transfer Complete Interrupt management ******************************/
  if (((flag_it & (DMA_FLAG_HT1 << hdma->ChannelIndex)) != RESET) && ((source_it & DMA_IT_HT) != RESET))
 8003760:	687b      	ldr	r3, [r7, #4]
 8003762:	6c1b      	ldr	r3, [r3, #64]	; 0x40
 8003764:	2204      	movs	r2, #4
 8003766:	409a      	lsls	r2, r3
 8003768:	68fb      	ldr	r3, [r7, #12]
 800376a:	4013      	ands	r3, r2
 800376c:	2b00      	cmp	r3, #0
 800376e:	d04f      	beq.n	8003810 <HAL_DMA_IRQHandler+0xc8>
 8003770:	68bb      	ldr	r3, [r7, #8]
 8003772:	f003 0304 	and.w	r3, r3, #4
 8003776:	2b00      	cmp	r3, #0
 8003778:	d04a      	beq.n	8003810 <HAL_DMA_IRQHandler+0xc8>
  {
    /* Disable the half transfer interrupt if the DMA mode is not CIRCULAR */
    if((hdma->Instance->CCR & DMA_CCR_CIRC) == 0U)
 800377a:	687b      	ldr	r3, [r7, #4]
 800377c:	681b      	ldr	r3, [r3, #0]
 800377e:	681b      	ldr	r3, [r3, #0]
 8003780:	f003 0320 	and.w	r3, r3, #32
 8003784:	2b00      	cmp	r3, #0
 8003786:	d107      	bne.n	8003798 <HAL_DMA_IRQHandler+0x50>
    {
      /* Disable the half transfer interrupt */
      __HAL_DMA_DISABLE_IT(hdma, DMA_IT_HT);
 8003788:	687b      	ldr	r3, [r7, #4]
 800378a:	681b      	ldr	r3, [r3, #0]
 800378c:	681a      	ldr	r2, [r3, #0]
 800378e:	687b      	ldr	r3, [r7, #4]
 8003790:	681b      	ldr	r3, [r3, #0]
 8003792:	f022 0204 	bic.w	r2, r2, #4
 8003796:	601a      	str	r2, [r3, #0]
    }
    /* Clear the half transfer complete flag */
    __HAL_DMA_CLEAR_FLAG(hdma, __HAL_DMA_GET_HT_FLAG_INDEX(hdma));
 8003798:	687b      	ldr	r3, [r7, #4]
 800379a:	681b      	ldr	r3, [r3, #0]
 800379c:	4a66      	ldr	r2, [pc, #408]	; (8003938 <HAL_DMA_IRQHandler+0x1f0>)
 800379e:	4293      	cmp	r3, r2
 80037a0:	d029      	beq.n	80037f6 <HAL_DMA_IRQHandler+0xae>
 80037a2:	687b      	ldr	r3, [r7, #4]
 80037a4:	681b      	ldr	r3, [r3, #0]
 80037a6:	4a65      	ldr	r2, [pc, #404]	; (800393c <HAL_DMA_IRQHandler+0x1f4>)
 80037a8:	4293      	cmp	r3, r2
 80037aa:	d022      	beq.n	80037f2 <HAL_DMA_IRQHandler+0xaa>
 80037ac:	687b      	ldr	r3, [r7, #4]
 80037ae:	681b      	ldr	r3, [r3, #0]
 80037b0:	4a63      	ldr	r2, [pc, #396]	; (8003940 <HAL_DMA_IRQHandler+0x1f8>)
 80037b2:	4293      	cmp	r3, r2
 80037b4:	d01a      	beq.n	80037ec <HAL_DMA_IRQHandler+0xa4>
 80037b6:	687b      	ldr	r3, [r7, #4]
 80037b8:	681b      	ldr	r3, [r3, #0]
 80037ba:	4a62      	ldr	r2, [pc, #392]	; (8003944 <HAL_DMA_IRQHandler+0x1fc>)
 80037bc:	4293      	cmp	r3, r2
 80037be:	d012      	beq.n	80037e6 <HAL_DMA_IRQHandler+0x9e>
 80037c0:	687b      	ldr	r3, [r7, #4]
 80037c2:	681b      	ldr	r3, [r3, #0]
 80037c4:	4a60      	ldr	r2, [pc, #384]	; (8003948 <HAL_DMA_IRQHandler+0x200>)
 80037c6:	4293      	cmp	r3, r2
 80037c8:	d00a      	beq.n	80037e0 <HAL_DMA_IRQHandler+0x98>
 80037ca:	687b      	ldr	r3, [r7, #4]
 80037cc:	681b      	ldr	r3, [r3, #0]
 80037ce:	4a5f      	ldr	r2, [pc, #380]	; (800394c <HAL_DMA_IRQHandler+0x204>)
 80037d0:	4293      	cmp	r3, r2
 80037d2:	d102      	bne.n	80037da <HAL_DMA_IRQHandler+0x92>
 80037d4:	f44f 0380 	mov.w	r3, #4194304	; 0x400000
 80037d8:	e00e      	b.n	80037f8 <HAL_DMA_IRQHandler+0xb0>
 80037da:	f04f 6380 	mov.w	r3, #67108864	; 0x4000000
 80037de:	e00b      	b.n	80037f8 <HAL_DMA_IRQHandler+0xb0>
 80037e0:	f44f 2380 	mov.w	r3, #262144	; 0x40000
 80037e4:	e008      	b.n	80037f8 <HAL_DMA_IRQHandler+0xb0>
 80037e6:	f44f 4380 	mov.w	r3, #16384	; 0x4000
 80037ea:	e005      	b.n	80037f8 <HAL_DMA_IRQHandler+0xb0>
 80037ec:	f44f 6380 	mov.w	r3, #1024	; 0x400
 80037f0:	e002      	b.n	80037f8 <HAL_DMA_IRQHandler+0xb0>
 80037f2:	2340      	movs	r3, #64	; 0x40
 80037f4:	e000      	b.n	80037f8 <HAL_DMA_IRQHandler+0xb0>
 80037f6:	2304      	movs	r3, #4
 80037f8:	4a55      	ldr	r2, [pc, #340]	; (8003950 <HAL_DMA_IRQHandler+0x208>)
 80037fa:	6053      	str	r3, [r2, #4]

    /* DMA peripheral state is not updated in Half Transfer */
    /* but in Transfer Complete case */

    if(hdma->XferHalfCpltCallback != NULL)
 80037fc:	687b      	ldr	r3, [r7, #4]
 80037fe:	6adb      	ldr	r3, [r3, #44]	; 0x2c
 8003800:	2b00      	cmp	r3, #0
 8003802:	f000 8094 	beq.w	800392e <HAL_DMA_IRQHandler+0x1e6>
    {
      /* Half transfer callback */
      hdma->XferHalfCpltCallback(hdma);
 8003806:	687b      	ldr	r3, [r7, #4]
 8003808:	6adb      	ldr	r3, [r3, #44]	; 0x2c
 800380a:	6878      	ldr	r0, [r7, #4]
 800380c:	4798      	blx	r3
    if(hdma->XferHalfCpltCallback != NULL)
 800380e:	e08e      	b.n	800392e <HAL_DMA_IRQHandler+0x1e6>
    }
  }

  /* Transfer Complete Interrupt management ***********************************/
  else if (((flag_it & (DMA_FLAG_TC1 << hdma->ChannelIndex)) != RESET) && ((source_it & DMA_IT_TC) != RESET))
 8003810:	687b      	ldr	r3, [r7, #4]
 8003812:	6c1b      	ldr	r3, [r3, #64]	; 0x40
 8003814:	2202      	movs	r2, #2
 8003816:	409a      	lsls	r2, r3
 8003818:	68fb      	ldr	r3, [r7, #12]
 800381a:	4013      	ands	r3, r2
 800381c:	2b00      	cmp	r3, #0
 800381e:	d056      	beq.n	80038ce <HAL_DMA_IRQHandler+0x186>
 8003820:	68bb      	ldr	r3, [r7, #8]
 8003822:	f003 0302 	and.w	r3, r3, #2
 8003826:	2b00      	cmp	r3, #0
 8003828:	d051      	beq.n	80038ce <HAL_DMA_IRQHandler+0x186>
  {
    if((hdma->Instance->CCR & DMA_CCR_CIRC) == 0U)
 800382a:	687b      	ldr	r3, [r7, #4]
 800382c:	681b      	ldr	r3, [r3, #0]
 800382e:	681b      	ldr	r3, [r3, #0]
 8003830:	f003 0320 	and.w	r3, r3, #32
 8003834:	2b00      	cmp	r3, #0
 8003836:	d10b      	bne.n	8003850 <HAL_DMA_IRQHandler+0x108>
    {
      /* Disable the transfer complete and error interrupt */
      __HAL_DMA_DISABLE_IT(hdma, DMA_IT_TE | DMA_IT_TC);  
 8003838:	687b      	ldr	r3, [r7, #4]
 800383a:	681b      	ldr	r3, [r3, #0]
 800383c:	681a      	ldr	r2, [r3, #0]
 800383e:	687b      	ldr	r3, [r7, #4]
 8003840:	681b      	ldr	r3, [r3, #0]
 8003842:	f022 020a 	bic.w	r2, r2, #10
 8003846:	601a      	str	r2, [r3, #0]

      /* Change the DMA state */
      hdma->State = HAL_DMA_STATE_READY;
 8003848:	687b      	ldr	r3, [r7, #4]
 800384a:	2201      	movs	r2, #1
 800384c:	f883 2021 	strb.w	r2, [r3, #33]	; 0x21
    }
    /* Clear the transfer complete flag */
      __HAL_DMA_CLEAR_FLAG(hdma, __HAL_DMA_GET_TC_FLAG_INDEX(hdma));
 8003850:	687b      	ldr	r3, [r7, #4]
 8003852:	681b      	ldr	r3, [r3, #0]
 8003854:	4a38      	ldr	r2, [pc, #224]	; (8003938 <HAL_DMA_IRQHandler+0x1f0>)
 8003856:	4293      	cmp	r3, r2
 8003858:	d029      	beq.n	80038ae <HAL_DMA_IRQHandler+0x166>
 800385a:	687b      	ldr	r3, [r7, #4]
 800385c:	681b      	ldr	r3, [r3, #0]
 800385e:	4a37      	ldr	r2, [pc, #220]	; (800393c <HAL_DMA_IRQHandler+0x1f4>)
 8003860:	4293      	cmp	r3, r2
 8003862:	d022      	beq.n	80038aa <HAL_DMA_IRQHandler+0x162>
 8003864:	687b      	ldr	r3, [r7, #4]
 8003866:	681b      	ldr	r3, [r3, #0]
 8003868:	4a35      	ldr	r2, [pc, #212]	; (8003940 <HAL_DMA_IRQHandler+0x1f8>)
 800386a:	4293      	cmp	r3, r2
 800386c:	d01a      	beq.n	80038a4 <HAL_DMA_IRQHandler+0x15c>
 800386e:	687b      	ldr	r3, [r7, #4]
 8003870:	681b      	ldr	r3, [r3, #0]
 8003872:	4a34      	ldr	r2, [pc, #208]	; (8003944 <HAL_DMA_IRQHandler+0x1fc>)
 8003874:	4293      	cmp	r3, r2
 8003876:	d012      	beq.n	800389e <HAL_DMA_IRQHandler+0x156>
 8003878:	687b      	ldr	r3, [r7, #4]
 800387a:	681b      	ldr	r3, [r3, #0]
 800387c:	4a32      	ldr	r2, [pc, #200]	; (8003948 <HAL_DMA_IRQHandler+0x200>)
 800387e:	4293      	cmp	r3, r2
 8003880:	d00a      	beq.n	8003898 <HAL_DMA_IRQHandler+0x150>
 8003882:	687b      	ldr	r3, [r7, #4]
 8003884:	681b      	ldr	r3, [r3, #0]
 8003886:	4a31      	ldr	r2, [pc, #196]	; (800394c <HAL_DMA_IRQHandler+0x204>)
 8003888:	4293      	cmp	r3, r2
 800388a:	d102      	bne.n	8003892 <HAL_DMA_IRQHandler+0x14a>
 800388c:	f44f 1300 	mov.w	r3, #2097152	; 0x200000
 8003890:	e00e      	b.n	80038b0 <HAL_DMA_IRQHandler+0x168>
 8003892:	f04f 7300 	mov.w	r3, #33554432	; 0x2000000
 8003896:	e00b      	b.n	80038b0 <HAL_DMA_IRQHandler+0x168>
 8003898:	f44f 3300 	mov.w	r3, #131072	; 0x20000
 800389c:	e008      	b.n	80038b0 <HAL_DMA_IRQHandler+0x168>
 800389e:	f44f 5300 	mov.w	r3, #8192	; 0x2000
 80038a2:	e005      	b.n	80038b0 <HAL_DMA_IRQHandler+0x168>
 80038a4:	f44f 7300 	mov.w	r3, #512	; 0x200
 80038a8:	e002      	b.n	80038b0 <HAL_DMA_IRQHandler+0x168>
 80038aa:	2320      	movs	r3, #32
 80038ac:	e000      	b.n	80038b0 <HAL_DMA_IRQHandler+0x168>
 80038ae:	2302      	movs	r3, #2
 80038b0:	4a27      	ldr	r2, [pc, #156]	; (8003950 <HAL_DMA_IRQHandler+0x208>)
 80038b2:	6053      	str	r3, [r2, #4]

    /* Process Unlocked */
    __HAL_UNLOCK(hdma);
 80038b4:	687b      	ldr	r3, [r7, #4]
 80038b6:	2200      	movs	r2, #0
 80038b8:	f883 2020 	strb.w	r2, [r3, #32]

    if(hdma->XferCpltCallback != NULL)
 80038bc:	687b      	ldr	r3, [r7, #4]
 80038be:	6a9b      	ldr	r3, [r3, #40]	; 0x28
 80038c0:	2b00      	cmp	r3, #0
 80038c2:	d034      	beq.n	800392e <HAL_DMA_IRQHandler+0x1e6>
    {
      /* Transfer complete callback */
      hdma->XferCpltCallback(hdma);
 80038c4:	687b      	ldr	r3, [r7, #4]
 80038c6:	6a9b      	ldr	r3, [r3, #40]	; 0x28
 80038c8:	6878      	ldr	r0, [r7, #4]
 80038ca:	4798      	blx	r3
    if(hdma->XferCpltCallback != NULL)
 80038cc:	e02f      	b.n	800392e <HAL_DMA_IRQHandler+0x1e6>
    }
  }

  /* Transfer Error Interrupt management **************************************/
  else if (( RESET != (flag_it & (DMA_FLAG_TE1 << hdma->ChannelIndex))) && (RESET != (source_it & DMA_IT_TE)))
 80038ce:	687b      	ldr	r3, [r7, #4]
 80038d0:	6c1b      	ldr	r3, [r3, #64]	; 0x40
 80038d2:	2208      	movs	r2, #8
 80038d4:	409a      	lsls	r2, r3
 80038d6:	68fb      	ldr	r3, [r7, #12]
 80038d8:	4013      	ands	r3, r2
 80038da:	2b00      	cmp	r3, #0
 80038dc:	d028      	beq.n	8003930 <HAL_DMA_IRQHandler+0x1e8>
 80038de:	68bb      	ldr	r3, [r7, #8]
 80038e0:	f003 0308 	and.w	r3, r3, #8
 80038e4:	2b00      	cmp	r3, #0
 80038e6:	d023      	beq.n	8003930 <HAL_DMA_IRQHandler+0x1e8>
  {
    /* When a DMA transfer error occurs */
    /* A hardware clear of its EN bits is performed */
    /* Disable ALL DMA IT */
    __HAL_DMA_DISABLE_IT(hdma, (DMA_IT_TC | DMA_IT_HT | DMA_IT_TE));
 80038e8:	687b      	ldr	r3, [r7, #4]
 80038ea:	681b      	ldr	r3, [r3, #0]
 80038ec:	681a      	ldr	r2, [r3, #0]
 80038ee:	687b      	ldr	r3, [r7, #4]
 80038f0:	681b      	ldr	r3, [r3, #0]
 80038f2:	f022 020e 	bic.w	r2, r2, #14
 80038f6:	601a      	str	r2, [r3, #0]

    /* Clear all flags */
    hdma->DmaBaseAddress->IFCR = (DMA_ISR_GIF1 << hdma->ChannelIndex);
 80038f8:	687b      	ldr	r3, [r7, #4]
 80038fa:	6c1a      	ldr	r2, [r3, #64]	; 0x40
 80038fc:	687b      	ldr	r3, [r7, #4]
 80038fe:	6bdb      	ldr	r3, [r3, #60]	; 0x3c
 8003900:	2101      	movs	r1, #1
 8003902:	fa01 f202 	lsl.w	r2, r1, r2
 8003906:	605a      	str	r2, [r3, #4]

    /* Update error code */
    hdma->ErrorCode = HAL_DMA_ERROR_TE;
 8003908:	687b      	ldr	r3, [r7, #4]
 800390a:	2201      	movs	r2, #1
 800390c:	639a      	str	r2, [r3, #56]	; 0x38

    /* Change the DMA state */
    hdma->State = HAL_DMA_STATE_READY;
 800390e:	687b      	ldr	r3, [r7, #4]
 8003910:	2201      	movs	r2, #1
 8003912:	f883 2021 	strb.w	r2, [r3, #33]	; 0x21

    /* Process Unlocked */
    __HAL_UNLOCK(hdma);
 8003916:	687b      	ldr	r3, [r7, #4]
 8003918:	2200      	movs	r2, #0
 800391a:	f883 2020 	strb.w	r2, [r3, #32]

    if (hdma->XferErrorCallback != NULL)
 800391e:	687b      	ldr	r3, [r7, #4]
 8003920:	6b1b      	ldr	r3, [r3, #48]	; 0x30
 8003922:	2b00      	cmp	r3, #0
 8003924:	d004      	beq.n	8003930 <HAL_DMA_IRQHandler+0x1e8>
    {
      /* Transfer error callback */
      hdma->XferErrorCallback(hdma);
 8003926:	687b      	ldr	r3, [r7, #4]
 8003928:	6b1b      	ldr	r3, [r3, #48]	; 0x30
 800392a:	6878      	ldr	r0, [r7, #4]
 800392c:	4798      	blx	r3
    }
  }
  return;
 800392e:	bf00      	nop
 8003930:	bf00      	nop
}
 8003932:	3710      	adds	r7, #16
 8003934:	46bd      	mov	sp, r7
 8003936:	bd80      	pop	{r7, pc}
 8003938:	40020008 	.word	0x40020008
 800393c:	4002001c 	.word	0x4002001c
 8003940:	40020030 	.word	0x40020030
 8003944:	40020044 	.word	0x40020044
 8003948:	40020058 	.word	0x40020058
 800394c:	4002006c 	.word	0x4002006c
 8003950:	40020000 	.word	0x40020000

08003954 <DMA_SetConfig>:
  * @param  DstAddress: The destination memory Buffer address
  * @param  DataLength: The length of data to be transferred from source to destination
  * @retval HAL status
  */
static void DMA_SetConfig(DMA_HandleTypeDef *hdma, uint32_t SrcAddress, uint32_t DstAddress, uint32_t DataLength)
{
 8003954:	b480      	push	{r7}
 8003956:	b085      	sub	sp, #20
 8003958:	af00      	add	r7, sp, #0
 800395a:	60f8      	str	r0, [r7, #12]
 800395c:	60b9      	str	r1, [r7, #8]
 800395e:	607a      	str	r2, [r7, #4]
 8003960:	603b      	str	r3, [r7, #0]
  /* Clear all flags */
  hdma->DmaBaseAddress->IFCR = (DMA_ISR_GIF1 << hdma->ChannelIndex);
 8003962:	68fb      	ldr	r3, [r7, #12]
 8003964:	6c1a      	ldr	r2, [r3, #64]	; 0x40
 8003966:	68fb      	ldr	r3, [r7, #12]
 8003968:	6bdb      	ldr	r3, [r3, #60]	; 0x3c
 800396a:	2101      	movs	r1, #1
 800396c:	fa01 f202 	lsl.w	r2, r1, r2
 8003970:	605a      	str	r2, [r3, #4]

  /* Configure DMA Channel data length */
  hdma->Instance->CNDTR = DataLength;
 8003972:	68fb      	ldr	r3, [r7, #12]
 8003974:	681b      	ldr	r3, [r3, #0]
 8003976:	683a      	ldr	r2, [r7, #0]
 8003978:	605a      	str	r2, [r3, #4]

  /* Memory to Peripheral */
  if((hdma->Init.Direction) == DMA_MEMORY_TO_PERIPH)
 800397a:	68fb      	ldr	r3, [r7, #12]
 800397c:	685b      	ldr	r3, [r3, #4]
 800397e:	2b10      	cmp	r3, #16
 8003980:	d108      	bne.n	8003994 <DMA_SetConfig+0x40>
  {
    /* Configure DMA Channel destination address */
    hdma->Instance->CPAR = DstAddress;
 8003982:	68fb      	ldr	r3, [r7, #12]
 8003984:	681b      	ldr	r3, [r3, #0]
 8003986:	687a      	ldr	r2, [r7, #4]
 8003988:	609a      	str	r2, [r3, #8]

    /* Configure DMA Channel source address */
    hdma->Instance->CMAR = SrcAddress;
 800398a:	68fb      	ldr	r3, [r7, #12]
 800398c:	681b      	ldr	r3, [r3, #0]
 800398e:	68ba      	ldr	r2, [r7, #8]
 8003990:	60da      	str	r2, [r3, #12]
    hdma->Instance->CPAR = SrcAddress;

    /* Configure DMA Channel destination address */
    hdma->Instance->CMAR = DstAddress;
  }
}
 8003992:	e007      	b.n	80039a4 <DMA_SetConfig+0x50>
    hdma->Instance->CPAR = SrcAddress;
 8003994:	68fb      	ldr	r3, [r7, #12]
 8003996:	681b      	ldr	r3, [r3, #0]
 8003998:	68ba      	ldr	r2, [r7, #8]
 800399a:	609a      	str	r2, [r3, #8]
    hdma->Instance->CMAR = DstAddress;
 800399c:	68fb      	ldr	r3, [r7, #12]
 800399e:	681b      	ldr	r3, [r3, #0]
 80039a0:	687a      	ldr	r2, [r7, #4]
 80039a2:	60da      	str	r2, [r3, #12]
}
 80039a4:	bf00      	nop
 80039a6:	3714      	adds	r7, #20
 80039a8:	46bd      	mov	sp, r7
 80039aa:	bc80      	pop	{r7}
 80039ac:	4770      	bx	lr
	...

080039b0 <HAL_GPIO_Init>:
  * @param  GPIO_Init: pointer to a GPIO_InitTypeDef structure that contains
  *         the configuration information for the specified GPIO peripheral.
  * @retval None
  */
void HAL_GPIO_Init(GPIO_TypeDef  *GPIOx, GPIO_InitTypeDef *GPIO_Init)
{
 80039b0:	b480      	push	{r7}
 80039b2:	b08b      	sub	sp, #44	; 0x2c
 80039b4:	af00      	add	r7, sp, #0
 80039b6:	6078      	str	r0, [r7, #4]
 80039b8:	6039      	str	r1, [r7, #0]
  uint32_t position = 0x00u;
 80039ba:	2300      	movs	r3, #0
 80039bc:	627b      	str	r3, [r7, #36]	; 0x24
  uint32_t ioposition;
  uint32_t iocurrent;
  uint32_t temp;
  uint32_t config = 0x00u;
 80039be:	2300      	movs	r3, #0
 80039c0:	623b      	str	r3, [r7, #32]
  assert_param(IS_GPIO_ALL_INSTANCE(GPIOx));
  assert_param(IS_GPIO_PIN(GPIO_Init->Pin));
  assert_param(IS_GPIO_MODE(GPIO_Init->Mode));

  /* Configure the port pins */
  while (((GPIO_Init->Pin) >> position) != 0x00u)
 80039c2:	e127      	b.n	8003c14 <HAL_GPIO_Init+0x264>
  {
    /* Get the IO position */
    ioposition = (0x01uL << position);
 80039c4:	2201      	movs	r2, #1
 80039c6:	6a7b      	ldr	r3, [r7, #36]	; 0x24
 80039c8:	fa02 f303 	lsl.w	r3, r2, r3
 80039cc:	61fb      	str	r3, [r7, #28]

    /* Get the current IO position */
    iocurrent = (uint32_t)(GPIO_Init->Pin) & ioposition;
 80039ce:	683b      	ldr	r3, [r7, #0]
 80039d0:	681b      	ldr	r3, [r3, #0]
 80039d2:	69fa      	ldr	r2, [r7, #28]
 80039d4:	4013      	ands	r3, r2
 80039d6:	61bb      	str	r3, [r7, #24]

    if (iocurrent == ioposition)
 80039d8:	69ba      	ldr	r2, [r7, #24]
 80039da:	69fb      	ldr	r3, [r7, #28]
 80039dc:	429a      	cmp	r2, r3
 80039de:	f040 8116 	bne.w	8003c0e <HAL_GPIO_Init+0x25e>
    {
      /* Check the Alternate function parameters */
      assert_param(IS_GPIO_AF_INSTANCE(GPIOx));

      /* Based on the required mode, filling config variable with MODEy[1:0] and CNFy[3:2] corresponding bits */
      switch (GPIO_Init->Mode)
 80039e2:	683b      	ldr	r3, [r7, #0]
 80039e4:	685b      	ldr	r3, [r3, #4]
 80039e6:	2b12      	cmp	r3, #18
 80039e8:	d034      	beq.n	8003a54 <HAL_GPIO_Init+0xa4>
 80039ea:	2b12      	cmp	r3, #18
 80039ec:	d80d      	bhi.n	8003a0a <HAL_GPIO_Init+0x5a>
 80039ee:	2b02      	cmp	r3, #2
 80039f0:	d02b      	beq.n	8003a4a <HAL_GPIO_Init+0x9a>
 80039f2:	2b02      	cmp	r3, #2
 80039f4:	d804      	bhi.n	8003a00 <HAL_GPIO_Init+0x50>
 80039f6:	2b00      	cmp	r3, #0
 80039f8:	d031      	beq.n	8003a5e <HAL_GPIO_Init+0xae>
 80039fa:	2b01      	cmp	r3, #1
 80039fc:	d01c      	beq.n	8003a38 <HAL_GPIO_Init+0x88>
          config = GPIO_CR_MODE_INPUT + GPIO_CR_CNF_ANALOG;
          break;

        /* Parameters are checked with assert_param */
        default:
          break;
 80039fe:	e048      	b.n	8003a92 <HAL_GPIO_Init+0xe2>
      switch (GPIO_Init->Mode)
 8003a00:	2b03      	cmp	r3, #3
 8003a02:	d043      	beq.n	8003a8c <HAL_GPIO_Init+0xdc>
 8003a04:	2b11      	cmp	r3, #17
 8003a06:	d01b      	beq.n	8003a40 <HAL_GPIO_Init+0x90>
          break;
 8003a08:	e043      	b.n	8003a92 <HAL_GPIO_Init+0xe2>
      switch (GPIO_Init->Mode)
 8003a0a:	4a89      	ldr	r2, [pc, #548]	; (8003c30 <HAL_GPIO_Init+0x280>)
 8003a0c:	4293      	cmp	r3, r2
 8003a0e:	d026      	beq.n	8003a5e <HAL_GPIO_Init+0xae>
 8003a10:	4a87      	ldr	r2, [pc, #540]	; (8003c30 <HAL_GPIO_Init+0x280>)
 8003a12:	4293      	cmp	r3, r2
 8003a14:	d806      	bhi.n	8003a24 <HAL_GPIO_Init+0x74>
 8003a16:	4a87      	ldr	r2, [pc, #540]	; (8003c34 <HAL_GPIO_Init+0x284>)
 8003a18:	4293      	cmp	r3, r2
 8003a1a:	d020      	beq.n	8003a5e <HAL_GPIO_Init+0xae>
 8003a1c:	4a86      	ldr	r2, [pc, #536]	; (8003c38 <HAL_GPIO_Init+0x288>)
 8003a1e:	4293      	cmp	r3, r2
 8003a20:	d01d      	beq.n	8003a5e <HAL_GPIO_Init+0xae>
          break;
 8003a22:	e036      	b.n	8003a92 <HAL_GPIO_Init+0xe2>
      switch (GPIO_Init->Mode)
 8003a24:	4a85      	ldr	r2, [pc, #532]	; (8003c3c <HAL_GPIO_Init+0x28c>)
 8003a26:	4293      	cmp	r3, r2
 8003a28:	d019      	beq.n	8003a5e <HAL_GPIO_Init+0xae>
 8003a2a:	4a85      	ldr	r2, [pc, #532]	; (8003c40 <HAL_GPIO_Init+0x290>)
 8003a2c:	4293      	cmp	r3, r2
 8003a2e:	d016      	beq.n	8003a5e <HAL_GPIO_Init+0xae>
 8003a30:	4a84      	ldr	r2, [pc, #528]	; (8003c44 <HAL_GPIO_Init+0x294>)
 8003a32:	4293      	cmp	r3, r2
 8003a34:	d013      	beq.n	8003a5e <HAL_GPIO_Init+0xae>
          break;
 8003a36:	e02c      	b.n	8003a92 <HAL_GPIO_Init+0xe2>
          config = GPIO_Init->Speed + GPIO_CR_CNF_GP_OUTPUT_PP;
 8003a38:	683b      	ldr	r3, [r7, #0]
 8003a3a:	68db      	ldr	r3, [r3, #12]
 8003a3c:	623b      	str	r3, [r7, #32]
          break;
 8003a3e:	e028      	b.n	8003a92 <HAL_GPIO_Init+0xe2>
          config = GPIO_Init->Speed + GPIO_CR_CNF_GP_OUTPUT_OD;
 8003a40:	683b      	ldr	r3, [r7, #0]
 8003a42:	68db      	ldr	r3, [r3, #12]
 8003a44:	3304      	adds	r3, #4
 8003a46:	623b      	str	r3, [r7, #32]
          break;
 8003a48:	e023      	b.n	8003a92 <HAL_GPIO_Init+0xe2>
          config = GPIO_Init->Speed + GPIO_CR_CNF_AF_OUTPUT_PP;
 8003a4a:	683b      	ldr	r3, [r7, #0]
 8003a4c:	68db      	ldr	r3, [r3, #12]
 8003a4e:	3308      	adds	r3, #8
 8003a50:	623b      	str	r3, [r7, #32]
          break;
 8003a52:	e01e      	b.n	8003a92 <HAL_GPIO_Init+0xe2>
          config = GPIO_Init->Speed + GPIO_CR_CNF_AF_OUTPUT_OD;
 8003a54:	683b      	ldr	r3, [r7, #0]
 8003a56:	68db      	ldr	r3, [r3, #12]
 8003a58:	330c      	adds	r3, #12
 8003a5a:	623b      	str	r3, [r7, #32]
          break;
 8003a5c:	e019      	b.n	8003a92 <HAL_GPIO_Init+0xe2>
          if (GPIO_Init->Pull == GPIO_NOPULL)
 8003a5e:	683b      	ldr	r3, [r7, #0]
 8003a60:	689b      	ldr	r3, [r3, #8]
 8003a62:	2b00      	cmp	r3, #0
 8003a64:	d102      	bne.n	8003a6c <HAL_GPIO_Init+0xbc>
            config = GPIO_CR_MODE_INPUT + GPIO_CR_CNF_INPUT_FLOATING;
 8003a66:	2304      	movs	r3, #4
 8003a68:	623b      	str	r3, [r7, #32]
          break;
 8003a6a:	e012      	b.n	8003a92 <HAL_GPIO_Init+0xe2>
          else if (GPIO_Init->Pull == GPIO_PULLUP)
 8003a6c:	683b      	ldr	r3, [r7, #0]
 8003a6e:	689b      	ldr	r3, [r3, #8]
 8003a70:	2b01      	cmp	r3, #1
 8003a72:	d105      	bne.n	8003a80 <HAL_GPIO_Init+0xd0>
            config = GPIO_CR_MODE_INPUT + GPIO_CR_CNF_INPUT_PU_PD;
 8003a74:	2308      	movs	r3, #8
 8003a76:	623b      	str	r3, [r7, #32]
            GPIOx->BSRR = ioposition;
 8003a78:	687b      	ldr	r3, [r7, #4]
 8003a7a:	69fa      	ldr	r2, [r7, #28]
 8003a7c:	611a      	str	r2, [r3, #16]
          break;
 8003a7e:	e008      	b.n	8003a92 <HAL_GPIO_Init+0xe2>
            config = GPIO_CR_MODE_INPUT + GPIO_CR_CNF_INPUT_PU_PD;
 8003a80:	2308      	movs	r3, #8
 8003a82:	623b      	str	r3, [r7, #32]
            GPIOx->BRR = ioposition;
 8003a84:	687b      	ldr	r3, [r7, #4]
 8003a86:	69fa      	ldr	r2, [r7, #28]
 8003a88:	615a      	str	r2, [r3, #20]
          break;
 8003a8a:	e002      	b.n	8003a92 <HAL_GPIO_Init+0xe2>
          config = GPIO_CR_MODE_INPUT + GPIO_CR_CNF_ANALOG;
 8003a8c:	2300      	movs	r3, #0
 8003a8e:	623b      	str	r3, [r7, #32]
          break;
 8003a90:	bf00      	nop
      }

      /* Check if the current bit belongs to first half or last half of the pin count number
       in order to address CRH or CRL register*/
      configregister = (iocurrent < GPIO_PIN_8) ? &GPIOx->CRL     : &GPIOx->CRH;
 8003a92:	69bb      	ldr	r3, [r7, #24]
 8003a94:	2bff      	cmp	r3, #255	; 0xff
 8003a96:	d801      	bhi.n	8003a9c <HAL_GPIO_Init+0xec>
 8003a98:	687b      	ldr	r3, [r7, #4]
 8003a9a:	e001      	b.n	8003aa0 <HAL_GPIO_Init+0xf0>
 8003a9c:	687b      	ldr	r3, [r7, #4]
 8003a9e:	3304      	adds	r3, #4
 8003aa0:	617b      	str	r3, [r7, #20]
      registeroffset = (iocurrent < GPIO_PIN_8) ? (position << 2u) : ((position - 8u) << 2u);
 8003aa2:	69bb      	ldr	r3, [r7, #24]
 8003aa4:	2bff      	cmp	r3, #255	; 0xff
 8003aa6:	d802      	bhi.n	8003aae <HAL_GPIO_Init+0xfe>
 8003aa8:	6a7b      	ldr	r3, [r7, #36]	; 0x24
 8003aaa:	009b      	lsls	r3, r3, #2
 8003aac:	e002      	b.n	8003ab4 <HAL_GPIO_Init+0x104>
 8003aae:	6a7b      	ldr	r3, [r7, #36]	; 0x24
 8003ab0:	3b08      	subs	r3, #8
 8003ab2:	009b      	lsls	r3, r3, #2
 8003ab4:	613b      	str	r3, [r7, #16]

      /* Apply the new configuration of the pin to the register */
      MODIFY_REG((*configregister), ((GPIO_CRL_MODE0 | GPIO_CRL_CNF0) << registeroffset), (config << registeroffset));
 8003ab6:	697b      	ldr	r3, [r7, #20]
 8003ab8:	681a      	ldr	r2, [r3, #0]
 8003aba:	210f      	movs	r1, #15
 8003abc:	693b      	ldr	r3, [r7, #16]
 8003abe:	fa01 f303 	lsl.w	r3, r1, r3
 8003ac2:	43db      	mvns	r3, r3
 8003ac4:	401a      	ands	r2, r3
 8003ac6:	6a39      	ldr	r1, [r7, #32]
 8003ac8:	693b      	ldr	r3, [r7, #16]
 8003aca:	fa01 f303 	lsl.w	r3, r1, r3
 8003ace:	431a      	orrs	r2, r3
 8003ad0:	697b      	ldr	r3, [r7, #20]
 8003ad2:	601a      	str	r2, [r3, #0]

      /*--------------------- EXTI Mode Configuration ------------------------*/
      /* Configure the External Interrupt or event for the current IO */
      if ((GPIO_Init->Mode & EXTI_MODE) == EXTI_MODE)
 8003ad4:	683b      	ldr	r3, [r7, #0]
 8003ad6:	685b      	ldr	r3, [r3, #4]
 8003ad8:	f003 5380 	and.w	r3, r3, #268435456	; 0x10000000
 8003adc:	2b00      	cmp	r3, #0
 8003ade:	f000 8096 	beq.w	8003c0e <HAL_GPIO_Init+0x25e>
      {
        /* Enable AFIO Clock */
        __HAL_RCC_AFIO_CLK_ENABLE();
 8003ae2:	4b59      	ldr	r3, [pc, #356]	; (8003c48 <HAL_GPIO_Init+0x298>)
 8003ae4:	699b      	ldr	r3, [r3, #24]
 8003ae6:	4a58      	ldr	r2, [pc, #352]	; (8003c48 <HAL_GPIO_Init+0x298>)
 8003ae8:	f043 0301 	orr.w	r3, r3, #1
 8003aec:	6193      	str	r3, [r2, #24]
 8003aee:	4b56      	ldr	r3, [pc, #344]	; (8003c48 <HAL_GPIO_Init+0x298>)
 8003af0:	699b      	ldr	r3, [r3, #24]
 8003af2:	f003 0301 	and.w	r3, r3, #1
 8003af6:	60bb      	str	r3, [r7, #8]
 8003af8:	68bb      	ldr	r3, [r7, #8]
        temp = AFIO->EXTICR[position >> 2u];
 8003afa:	4a54      	ldr	r2, [pc, #336]	; (8003c4c <HAL_GPIO_Init+0x29c>)
 8003afc:	6a7b      	ldr	r3, [r7, #36]	; 0x24
 8003afe:	089b      	lsrs	r3, r3, #2
 8003b00:	3302      	adds	r3, #2
 8003b02:	f852 3023 	ldr.w	r3, [r2, r3, lsl #2]
 8003b06:	60fb      	str	r3, [r7, #12]
        CLEAR_BIT(temp, (0x0Fu) << (4u * (position & 0x03u)));
 8003b08:	6a7b      	ldr	r3, [r7, #36]	; 0x24
 8003b0a:	f003 0303 	and.w	r3, r3, #3
 8003b0e:	009b      	lsls	r3, r3, #2
 8003b10:	220f      	movs	r2, #15
 8003b12:	fa02 f303 	lsl.w	r3, r2, r3
 8003b16:	43db      	mvns	r3, r3
 8003b18:	68fa      	ldr	r2, [r7, #12]
 8003b1a:	4013      	ands	r3, r2
 8003b1c:	60fb      	str	r3, [r7, #12]
        SET_BIT(temp, (GPIO_GET_INDEX(GPIOx)) << (4u * (position & 0x03u)));
 8003b1e:	687b      	ldr	r3, [r7, #4]
 8003b20:	4a4b      	ldr	r2, [pc, #300]	; (8003c50 <HAL_GPIO_Init+0x2a0>)
 8003b22:	4293      	cmp	r3, r2
 8003b24:	d013      	beq.n	8003b4e <HAL_GPIO_Init+0x19e>
 8003b26:	687b      	ldr	r3, [r7, #4]
 8003b28:	4a4a      	ldr	r2, [pc, #296]	; (8003c54 <HAL_GPIO_Init+0x2a4>)
 8003b2a:	4293      	cmp	r3, r2
 8003b2c:	d00d      	beq.n	8003b4a <HAL_GPIO_Init+0x19a>
 8003b2e:	687b      	ldr	r3, [r7, #4]
 8003b30:	4a49      	ldr	r2, [pc, #292]	; (8003c58 <HAL_GPIO_Init+0x2a8>)
 8003b32:	4293      	cmp	r3, r2
 8003b34:	d007      	beq.n	8003b46 <HAL_GPIO_Init+0x196>
 8003b36:	687b      	ldr	r3, [r7, #4]
 8003b38:	4a48      	ldr	r2, [pc, #288]	; (8003c5c <HAL_GPIO_Init+0x2ac>)
 8003b3a:	4293      	cmp	r3, r2
 8003b3c:	d101      	bne.n	8003b42 <HAL_GPIO_Init+0x192>
 8003b3e:	2303      	movs	r3, #3
 8003b40:	e006      	b.n	8003b50 <HAL_GPIO_Init+0x1a0>
 8003b42:	2304      	movs	r3, #4
 8003b44:	e004      	b.n	8003b50 <HAL_GPIO_Init+0x1a0>
 8003b46:	2302      	movs	r3, #2
 8003b48:	e002      	b.n	8003b50 <HAL_GPIO_Init+0x1a0>
 8003b4a:	2301      	movs	r3, #1
 8003b4c:	e000      	b.n	8003b50 <HAL_GPIO_Init+0x1a0>
 8003b4e:	2300      	movs	r3, #0
 8003b50:	6a7a      	ldr	r2, [r7, #36]	; 0x24
 8003b52:	f002 0203 	and.w	r2, r2, #3
 8003b56:	0092      	lsls	r2, r2, #2
 8003b58:	4093      	lsls	r3, r2
 8003b5a:	68fa      	ldr	r2, [r7, #12]
 8003b5c:	4313      	orrs	r3, r2
 8003b5e:	60fb      	str	r3, [r7, #12]
        AFIO->EXTICR[position >> 2u] = temp;
 8003b60:	493a      	ldr	r1, [pc, #232]	; (8003c4c <HAL_GPIO_Init+0x29c>)
 8003b62:	6a7b      	ldr	r3, [r7, #36]	; 0x24
 8003b64:	089b      	lsrs	r3, r3, #2
 8003b66:	3302      	adds	r3, #2
 8003b68:	68fa      	ldr	r2, [r7, #12]
 8003b6a:	f841 2023 	str.w	r2, [r1, r3, lsl #2]


        /* Configure the interrupt mask */
        if ((GPIO_Init->Mode & GPIO_MODE_IT) == GPIO_MODE_IT)
 8003b6e:	683b      	ldr	r3, [r7, #0]
 8003b70:	685b      	ldr	r3, [r3, #4]
 8003b72:	f403 3380 	and.w	r3, r3, #65536	; 0x10000
 8003b76:	2b00      	cmp	r3, #0
 8003b78:	d006      	beq.n	8003b88 <HAL_GPIO_Init+0x1d8>
        {
          SET_BIT(EXTI->IMR, iocurrent);
 8003b7a:	4b39      	ldr	r3, [pc, #228]	; (8003c60 <HAL_GPIO_Init+0x2b0>)
 8003b7c:	681a      	ldr	r2, [r3, #0]
 8003b7e:	4938      	ldr	r1, [pc, #224]	; (8003c60 <HAL_GPIO_Init+0x2b0>)
 8003b80:	69bb      	ldr	r3, [r7, #24]
 8003b82:	4313      	orrs	r3, r2
 8003b84:	600b      	str	r3, [r1, #0]
 8003b86:	e006      	b.n	8003b96 <HAL_GPIO_Init+0x1e6>
        }
        else
        {
          CLEAR_BIT(EXTI->IMR, iocurrent);
 8003b88:	4b35      	ldr	r3, [pc, #212]	; (8003c60 <HAL_GPIO_Init+0x2b0>)
 8003b8a:	681a      	ldr	r2, [r3, #0]
 8003b8c:	69bb      	ldr	r3, [r7, #24]
 8003b8e:	43db      	mvns	r3, r3
 8003b90:	4933      	ldr	r1, [pc, #204]	; (8003c60 <HAL_GPIO_Init+0x2b0>)
 8003b92:	4013      	ands	r3, r2
 8003b94:	600b      	str	r3, [r1, #0]
        }

        /* Configure the event mask */
        if ((GPIO_Init->Mode & GPIO_MODE_EVT) == GPIO_MODE_EVT)
 8003b96:	683b      	ldr	r3, [r7, #0]
 8003b98:	685b      	ldr	r3, [r3, #4]
 8003b9a:	f403 3300 	and.w	r3, r3, #131072	; 0x20000
 8003b9e:	2b00      	cmp	r3, #0
 8003ba0:	d006      	beq.n	8003bb0 <HAL_GPIO_Init+0x200>
        {
          SET_BIT(EXTI->EMR, iocurrent);
 8003ba2:	4b2f      	ldr	r3, [pc, #188]	; (8003c60 <HAL_GPIO_Init+0x2b0>)
 8003ba4:	685a      	ldr	r2, [r3, #4]
 8003ba6:	492e      	ldr	r1, [pc, #184]	; (8003c60 <HAL_GPIO_Init+0x2b0>)
 8003ba8:	69bb      	ldr	r3, [r7, #24]
 8003baa:	4313      	orrs	r3, r2
 8003bac:	604b      	str	r3, [r1, #4]
 8003bae:	e006      	b.n	8003bbe <HAL_GPIO_Init+0x20e>
        }
        else
        {
          CLEAR_BIT(EXTI->EMR, iocurrent);
 8003bb0:	4b2b      	ldr	r3, [pc, #172]	; (8003c60 <HAL_GPIO_Init+0x2b0>)
 8003bb2:	685a      	ldr	r2, [r3, #4]
 8003bb4:	69bb      	ldr	r3, [r7, #24]
 8003bb6:	43db      	mvns	r3, r3
 8003bb8:	4929      	ldr	r1, [pc, #164]	; (8003c60 <HAL_GPIO_Init+0x2b0>)
 8003bba:	4013      	ands	r3, r2
 8003bbc:	604b      	str	r3, [r1, #4]
        }

        /* Enable or disable the rising trigger */
        if ((GPIO_Init->Mode & RISING_EDGE) == RISING_EDGE)
 8003bbe:	683b      	ldr	r3, [r7, #0]
 8003bc0:	685b      	ldr	r3, [r3, #4]
 8003bc2:	f403 1380 	and.w	r3, r3, #1048576	; 0x100000
 8003bc6:	2b00      	cmp	r3, #0
 8003bc8:	d006      	beq.n	8003bd8 <HAL_GPIO_Init+0x228>
        {
          SET_BIT(EXTI->RTSR, iocurrent);
 8003bca:	4b25      	ldr	r3, [pc, #148]	; (8003c60 <HAL_GPIO_Init+0x2b0>)
 8003bcc:	689a      	ldr	r2, [r3, #8]
 8003bce:	4924      	ldr	r1, [pc, #144]	; (8003c60 <HAL_GPIO_Init+0x2b0>)
 8003bd0:	69bb      	ldr	r3, [r7, #24]
 8003bd2:	4313      	orrs	r3, r2
 8003bd4:	608b      	str	r3, [r1, #8]
 8003bd6:	e006      	b.n	8003be6 <HAL_GPIO_Init+0x236>
        }
        else
        {
          CLEAR_BIT(EXTI->RTSR, iocurrent);
 8003bd8:	4b21      	ldr	r3, [pc, #132]	; (8003c60 <HAL_GPIO_Init+0x2b0>)
 8003bda:	689a      	ldr	r2, [r3, #8]
 8003bdc:	69bb      	ldr	r3, [r7, #24]
 8003bde:	43db      	mvns	r3, r3
 8003be0:	491f      	ldr	r1, [pc, #124]	; (8003c60 <HAL_GPIO_Init+0x2b0>)
 8003be2:	4013      	ands	r3, r2
 8003be4:	608b      	str	r3, [r1, #8]
        }

        /* Enable or disable the falling trigger */
        if ((GPIO_Init->Mode & FALLING_EDGE) == FALLING_EDGE)
 8003be6:	683b      	ldr	r3, [r7, #0]
 8003be8:	685b      	ldr	r3, [r3, #4]
 8003bea:	f403 1300 	and.w	r3, r3, #2097152	; 0x200000
 8003bee:	2b00      	cmp	r3, #0
 8003bf0:	d006      	beq.n	8003c00 <HAL_GPIO_Init+0x250>
        {
          SET_BIT(EXTI->FTSR, iocurrent);
 8003bf2:	4b1b      	ldr	r3, [pc, #108]	; (8003c60 <HAL_GPIO_Init+0x2b0>)
 8003bf4:	68da      	ldr	r2, [r3, #12]
 8003bf6:	491a      	ldr	r1, [pc, #104]	; (8003c60 <HAL_GPIO_Init+0x2b0>)
 8003bf8:	69bb      	ldr	r3, [r7, #24]
 8003bfa:	4313      	orrs	r3, r2
 8003bfc:	60cb      	str	r3, [r1, #12]
 8003bfe:	e006      	b.n	8003c0e <HAL_GPIO_Init+0x25e>
        }
        else
        {
          CLEAR_BIT(EXTI->FTSR, iocurrent);
 8003c00:	4b17      	ldr	r3, [pc, #92]	; (8003c60 <HAL_GPIO_Init+0x2b0>)
 8003c02:	68da      	ldr	r2, [r3, #12]
 8003c04:	69bb      	ldr	r3, [r7, #24]
 8003c06:	43db      	mvns	r3, r3
 8003c08:	4915      	ldr	r1, [pc, #84]	; (8003c60 <HAL_GPIO_Init+0x2b0>)
 8003c0a:	4013      	ands	r3, r2
 8003c0c:	60cb      	str	r3, [r1, #12]
        }
      }
    }

	position++;
 8003c0e:	6a7b      	ldr	r3, [r7, #36]	; 0x24
 8003c10:	3301      	adds	r3, #1
 8003c12:	627b      	str	r3, [r7, #36]	; 0x24
  while (((GPIO_Init->Pin) >> position) != 0x00u)
 8003c14:	683b      	ldr	r3, [r7, #0]
 8003c16:	681a      	ldr	r2, [r3, #0]
 8003c18:	6a7b      	ldr	r3, [r7, #36]	; 0x24
 8003c1a:	fa22 f303 	lsr.w	r3, r2, r3
 8003c1e:	2b00      	cmp	r3, #0
 8003c20:	f47f aed0 	bne.w	80039c4 <HAL_GPIO_Init+0x14>
  }
}
 8003c24:	bf00      	nop
 8003c26:	372c      	adds	r7, #44	; 0x2c
 8003c28:	46bd      	mov	sp, r7
 8003c2a:	bc80      	pop	{r7}
 8003c2c:	4770      	bx	lr
 8003c2e:	bf00      	nop
 8003c30:	10210000 	.word	0x10210000
 8003c34:	10110000 	.word	0x10110000
 8003c38:	10120000 	.word	0x10120000
 8003c3c:	10310000 	.word	0x10310000
 8003c40:	10320000 	.word	0x10320000
 8003c44:	10220000 	.word	0x10220000
 8003c48:	40021000 	.word	0x40021000
 8003c4c:	40010000 	.word	0x40010000
 8003c50:	40010800 	.word	0x40010800
 8003c54:	40010c00 	.word	0x40010c00
 8003c58:	40011000 	.word	0x40011000
 8003c5c:	40011400 	.word	0x40011400
 8003c60:	40010400 	.word	0x40010400

08003c64 <HAL_GPIO_ReadPin>:
  * @param  GPIO_Pin: specifies the port bit to read.
  *         This parameter can be GPIO_PIN_x where x can be (0..15).
  * @retval The input port pin value.
  */
GPIO_PinState HAL_GPIO_ReadPin(GPIO_TypeDef *GPIOx, uint16_t GPIO_Pin)
{
 8003c64:	b480      	push	{r7}
 8003c66:	b085      	sub	sp, #20
 8003c68:	af00      	add	r7, sp, #0
 8003c6a:	6078      	str	r0, [r7, #4]
 8003c6c:	460b      	mov	r3, r1
 8003c6e:	807b      	strh	r3, [r7, #2]
  GPIO_PinState bitstatus;

  /* Check the parameters */
  assert_param(IS_GPIO_PIN(GPIO_Pin));

  if ((GPIOx->IDR & GPIO_Pin) != (uint32_t)GPIO_PIN_RESET)
 8003c70:	687b      	ldr	r3, [r7, #4]
 8003c72:	689a      	ldr	r2, [r3, #8]
 8003c74:	887b      	ldrh	r3, [r7, #2]
 8003c76:	4013      	ands	r3, r2
 8003c78:	2b00      	cmp	r3, #0
 8003c7a:	d002      	beq.n	8003c82 <HAL_GPIO_ReadPin+0x1e>
  {
    bitstatus = GPIO_PIN_SET;
 8003c7c:	2301      	movs	r3, #1
 8003c7e:	73fb      	strb	r3, [r7, #15]
 8003c80:	e001      	b.n	8003c86 <HAL_GPIO_ReadPin+0x22>
  }
  else
  {
    bitstatus = GPIO_PIN_RESET;
 8003c82:	2300      	movs	r3, #0
 8003c84:	73fb      	strb	r3, [r7, #15]
  }
  return bitstatus;
 8003c86:	7bfb      	ldrb	r3, [r7, #15]
}
 8003c88:	4618      	mov	r0, r3
 8003c8a:	3714      	adds	r7, #20
 8003c8c:	46bd      	mov	sp, r7
 8003c8e:	bc80      	pop	{r7}
 8003c90:	4770      	bx	lr

08003c92 <HAL_GPIO_WritePin>:
  *            @arg GPIO_PIN_RESET: to clear the port pin
  *            @arg GPIO_PIN_SET: to set the port pin
  * @retval None
  */
void HAL_GPIO_WritePin(GPIO_TypeDef *GPIOx, uint16_t GPIO_Pin, GPIO_PinState PinState)
{
 8003c92:	b480      	push	{r7}
 8003c94:	b083      	sub	sp, #12
 8003c96:	af00      	add	r7, sp, #0
 8003c98:	6078      	str	r0, [r7, #4]
 8003c9a:	460b      	mov	r3, r1
 8003c9c:	807b      	strh	r3, [r7, #2]
 8003c9e:	4613      	mov	r3, r2
 8003ca0:	707b      	strb	r3, [r7, #1]
  /* Check the parameters */
  assert_param(IS_GPIO_PIN(GPIO_Pin));
  assert_param(IS_GPIO_PIN_ACTION(PinState));

  if (PinState != GPIO_PIN_RESET)
 8003ca2:	787b      	ldrb	r3, [r7, #1]
 8003ca4:	2b00      	cmp	r3, #0
 8003ca6:	d003      	beq.n	8003cb0 <HAL_GPIO_WritePin+0x1e>
  {
    GPIOx->BSRR = GPIO_Pin;
 8003ca8:	887a      	ldrh	r2, [r7, #2]
 8003caa:	687b      	ldr	r3, [r7, #4]
 8003cac:	611a      	str	r2, [r3, #16]
  }
  else
  {
    GPIOx->BSRR = (uint32_t)GPIO_Pin << 16u;
  }
}
 8003cae:	e003      	b.n	8003cb8 <HAL_GPIO_WritePin+0x26>
    GPIOx->BSRR = (uint32_t)GPIO_Pin << 16u;
 8003cb0:	887b      	ldrh	r3, [r7, #2]
 8003cb2:	041a      	lsls	r2, r3, #16
 8003cb4:	687b      	ldr	r3, [r7, #4]
 8003cb6:	611a      	str	r2, [r3, #16]
}
 8003cb8:	bf00      	nop
 8003cba:	370c      	adds	r7, #12
 8003cbc:	46bd      	mov	sp, r7
 8003cbe:	bc80      	pop	{r7}
 8003cc0:	4770      	bx	lr

08003cc2 <HAL_GPIO_TogglePin>:
  * @param  GPIOx: where x can be (A..G depending on device used) to select the GPIO peripheral
  * @param  GPIO_Pin: Specifies the pins to be toggled.
  * @retval None
  */
void HAL_GPIO_TogglePin(GPIO_TypeDef *GPIOx, uint16_t GPIO_Pin)
{
 8003cc2:	b480      	push	{r7}
 8003cc4:	b083      	sub	sp, #12
 8003cc6:	af00      	add	r7, sp, #0
 8003cc8:	6078      	str	r0, [r7, #4]
 8003cca:	460b      	mov	r3, r1
 8003ccc:	807b      	strh	r3, [r7, #2]
  /* Check the parameters */
  assert_param(IS_GPIO_PIN(GPIO_Pin));

  if ((GPIOx->ODR & GPIO_Pin) != 0x00u)
 8003cce:	687b      	ldr	r3, [r7, #4]
 8003cd0:	68da      	ldr	r2, [r3, #12]
 8003cd2:	887b      	ldrh	r3, [r7, #2]
 8003cd4:	4013      	ands	r3, r2
 8003cd6:	2b00      	cmp	r3, #0
 8003cd8:	d003      	beq.n	8003ce2 <HAL_GPIO_TogglePin+0x20>
  {
    GPIOx->BRR = (uint32_t)GPIO_Pin;
 8003cda:	887a      	ldrh	r2, [r7, #2]
 8003cdc:	687b      	ldr	r3, [r7, #4]
 8003cde:	615a      	str	r2, [r3, #20]
  }
  else
  {
    GPIOx->BSRR = (uint32_t)GPIO_Pin;
  }
}
 8003ce0:	e002      	b.n	8003ce8 <HAL_GPIO_TogglePin+0x26>
    GPIOx->BSRR = (uint32_t)GPIO_Pin;
 8003ce2:	887a      	ldrh	r2, [r7, #2]
 8003ce4:	687b      	ldr	r3, [r7, #4]
 8003ce6:	611a      	str	r2, [r3, #16]
}
 8003ce8:	bf00      	nop
 8003cea:	370c      	adds	r7, #12
 8003cec:	46bd      	mov	sp, r7
 8003cee:	bc80      	pop	{r7}
 8003cf0:	4770      	bx	lr
	...

08003cf4 <HAL_I2C_Init>:
  * @param  hi2c Pointer to a I2C_HandleTypeDef structure that contains
  *                the configuration information for the specified I2C.
  * @retval HAL status
  */
HAL_StatusTypeDef HAL_I2C_Init(I2C_HandleTypeDef *hi2c)
{
 8003cf4:	b580      	push	{r7, lr}
 8003cf6:	b084      	sub	sp, #16
 8003cf8:	af00      	add	r7, sp, #0
 8003cfa:	6078      	str	r0, [r7, #4]
  uint32_t freqrange;
  uint32_t pclk1;

  /* Check the I2C handle allocation */
  if (hi2c == NULL)
 8003cfc:	687b      	ldr	r3, [r7, #4]
 8003cfe:	2b00      	cmp	r3, #0
 8003d00:	d101      	bne.n	8003d06 <HAL_I2C_Init+0x12>
  {
    return HAL_ERROR;
 8003d02:	2301      	movs	r3, #1
 8003d04:	e10f      	b.n	8003f26 <HAL_I2C_Init+0x232>
  assert_param(IS_I2C_DUAL_ADDRESS(hi2c->Init.DualAddressMode));
  assert_param(IS_I2C_OWN_ADDRESS2(hi2c->Init.OwnAddress2));
  assert_param(IS_I2C_GENERAL_CALL(hi2c->Init.GeneralCallMode));
  assert_param(IS_I2C_NO_STRETCH(hi2c->Init.NoStretchMode));

  if (hi2c->State == HAL_I2C_STATE_RESET)
 8003d06:	687b      	ldr	r3, [r7, #4]
 8003d08:	f893 303d 	ldrb.w	r3, [r3, #61]	; 0x3d
 8003d0c:	b2db      	uxtb	r3, r3
 8003d0e:	2b00      	cmp	r3, #0
 8003d10:	d106      	bne.n	8003d20 <HAL_I2C_Init+0x2c>
  {
    /* Allocate lock resource and initialize it */
    hi2c->Lock = HAL_UNLOCKED;
 8003d12:	687b      	ldr	r3, [r7, #4]
 8003d14:	2200      	movs	r2, #0
 8003d16:	f883 203c 	strb.w	r2, [r3, #60]	; 0x3c

    /* Init the low level hardware : GPIO, CLOCK, NVIC */
    hi2c->MspInitCallback(hi2c);
#else
    /* Init the low level hardware : GPIO, CLOCK, NVIC */
    HAL_I2C_MspInit(hi2c);
 8003d1a:	6878      	ldr	r0, [r7, #4]
 8003d1c:	f7fe f81e 	bl	8001d5c <HAL_I2C_MspInit>
#endif /* USE_HAL_I2C_REGISTER_CALLBACKS */
  }

  hi2c->State = HAL_I2C_STATE_BUSY;
 8003d20:	687b      	ldr	r3, [r7, #4]
 8003d22:	2224      	movs	r2, #36	; 0x24
 8003d24:	f883 203d 	strb.w	r2, [r3, #61]	; 0x3d

  /* Disable the selected I2C peripheral */
  __HAL_I2C_DISABLE(hi2c);
 8003d28:	687b      	ldr	r3, [r7, #4]
 8003d2a:	681b      	ldr	r3, [r3, #0]
 8003d2c:	681a      	ldr	r2, [r3, #0]
 8003d2e:	687b      	ldr	r3, [r7, #4]
 8003d30:	681b      	ldr	r3, [r3, #0]
 8003d32:	f022 0201 	bic.w	r2, r2, #1
 8003d36:	601a      	str	r2, [r3, #0]

  /* Get PCLK1 frequency */
  pclk1 = HAL_RCC_GetPCLK1Freq();
 8003d38:	f001 f8ea 	bl	8004f10 <HAL_RCC_GetPCLK1Freq>
 8003d3c:	60f8      	str	r0, [r7, #12]

  /* Check the minimum allowed PCLK1 frequency */
  if (I2C_MIN_PCLK_FREQ(pclk1, hi2c->Init.ClockSpeed) == 1U)
 8003d3e:	687b      	ldr	r3, [r7, #4]
 8003d40:	685b      	ldr	r3, [r3, #4]
 8003d42:	4a7b      	ldr	r2, [pc, #492]	; (8003f30 <HAL_I2C_Init+0x23c>)
 8003d44:	4293      	cmp	r3, r2
 8003d46:	d807      	bhi.n	8003d58 <HAL_I2C_Init+0x64>
 8003d48:	68fb      	ldr	r3, [r7, #12]
 8003d4a:	4a7a      	ldr	r2, [pc, #488]	; (8003f34 <HAL_I2C_Init+0x240>)
 8003d4c:	4293      	cmp	r3, r2
 8003d4e:	bf94      	ite	ls
 8003d50:	2301      	movls	r3, #1
 8003d52:	2300      	movhi	r3, #0
 8003d54:	b2db      	uxtb	r3, r3
 8003d56:	e006      	b.n	8003d66 <HAL_I2C_Init+0x72>
 8003d58:	68fb      	ldr	r3, [r7, #12]
 8003d5a:	4a77      	ldr	r2, [pc, #476]	; (8003f38 <HAL_I2C_Init+0x244>)
 8003d5c:	4293      	cmp	r3, r2
 8003d5e:	bf94      	ite	ls
 8003d60:	2301      	movls	r3, #1
 8003d62:	2300      	movhi	r3, #0
 8003d64:	b2db      	uxtb	r3, r3
 8003d66:	2b00      	cmp	r3, #0
 8003d68:	d001      	beq.n	8003d6e <HAL_I2C_Init+0x7a>
  {
    return HAL_ERROR;
 8003d6a:	2301      	movs	r3, #1
 8003d6c:	e0db      	b.n	8003f26 <HAL_I2C_Init+0x232>
  }

  /* Calculate frequency range */
  freqrange = I2C_FREQRANGE(pclk1);
 8003d6e:	68fb      	ldr	r3, [r7, #12]
 8003d70:	4a72      	ldr	r2, [pc, #456]	; (8003f3c <HAL_I2C_Init+0x248>)
 8003d72:	fba2 2303 	umull	r2, r3, r2, r3
 8003d76:	0c9b      	lsrs	r3, r3, #18
 8003d78:	60bb      	str	r3, [r7, #8]

  /*---------------------------- I2Cx CR2 Configuration ----------------------*/
  /* Configure I2Cx: Frequency range */
  MODIFY_REG(hi2c->Instance->CR2, I2C_CR2_FREQ, freqrange);
 8003d7a:	687b      	ldr	r3, [r7, #4]
 8003d7c:	681b      	ldr	r3, [r3, #0]
 8003d7e:	685b      	ldr	r3, [r3, #4]
 8003d80:	f023 013f 	bic.w	r1, r3, #63	; 0x3f
 8003d84:	687b      	ldr	r3, [r7, #4]
 8003d86:	681b      	ldr	r3, [r3, #0]
 8003d88:	68ba      	ldr	r2, [r7, #8]
 8003d8a:	430a      	orrs	r2, r1
 8003d8c:	605a      	str	r2, [r3, #4]

  /*---------------------------- I2Cx TRISE Configuration --------------------*/
  /* Configure I2Cx: Rise Time */
  MODIFY_REG(hi2c->Instance->TRISE, I2C_TRISE_TRISE, I2C_RISE_TIME(freqrange, hi2c->Init.ClockSpeed));
 8003d8e:	687b      	ldr	r3, [r7, #4]
 8003d90:	681b      	ldr	r3, [r3, #0]
 8003d92:	6a1b      	ldr	r3, [r3, #32]
 8003d94:	f023 013f 	bic.w	r1, r3, #63	; 0x3f
 8003d98:	687b      	ldr	r3, [r7, #4]
 8003d9a:	685b      	ldr	r3, [r3, #4]
 8003d9c:	4a64      	ldr	r2, [pc, #400]	; (8003f30 <HAL_I2C_Init+0x23c>)
 8003d9e:	4293      	cmp	r3, r2
 8003da0:	d802      	bhi.n	8003da8 <HAL_I2C_Init+0xb4>
 8003da2:	68bb      	ldr	r3, [r7, #8]
 8003da4:	3301      	adds	r3, #1
 8003da6:	e009      	b.n	8003dbc <HAL_I2C_Init+0xc8>
 8003da8:	68bb      	ldr	r3, [r7, #8]
 8003daa:	f44f 7296 	mov.w	r2, #300	; 0x12c
 8003dae:	fb02 f303 	mul.w	r3, r2, r3
 8003db2:	4a63      	ldr	r2, [pc, #396]	; (8003f40 <HAL_I2C_Init+0x24c>)
 8003db4:	fba2 2303 	umull	r2, r3, r2, r3
 8003db8:	099b      	lsrs	r3, r3, #6
 8003dba:	3301      	adds	r3, #1
 8003dbc:	687a      	ldr	r2, [r7, #4]
 8003dbe:	6812      	ldr	r2, [r2, #0]
 8003dc0:	430b      	orrs	r3, r1
 8003dc2:	6213      	str	r3, [r2, #32]

  /*---------------------------- I2Cx CCR Configuration ----------------------*/
  /* Configure I2Cx: Speed */
  MODIFY_REG(hi2c->Instance->CCR, (I2C_CCR_FS | I2C_CCR_DUTY | I2C_CCR_CCR), I2C_SPEED(pclk1, hi2c->Init.ClockSpeed, hi2c->Init.DutyCycle));
 8003dc4:	687b      	ldr	r3, [r7, #4]
 8003dc6:	681b      	ldr	r3, [r3, #0]
 8003dc8:	69db      	ldr	r3, [r3, #28]
 8003dca:	f423 424f 	bic.w	r2, r3, #52992	; 0xcf00
 8003dce:	f022 02ff 	bic.w	r2, r2, #255	; 0xff
 8003dd2:	687b      	ldr	r3, [r7, #4]
 8003dd4:	685b      	ldr	r3, [r3, #4]
 8003dd6:	4956      	ldr	r1, [pc, #344]	; (8003f30 <HAL_I2C_Init+0x23c>)
 8003dd8:	428b      	cmp	r3, r1
 8003dda:	d80d      	bhi.n	8003df8 <HAL_I2C_Init+0x104>
 8003ddc:	68fb      	ldr	r3, [r7, #12]
 8003dde:	1e59      	subs	r1, r3, #1
 8003de0:	687b      	ldr	r3, [r7, #4]
 8003de2:	685b      	ldr	r3, [r3, #4]
 8003de4:	005b      	lsls	r3, r3, #1
 8003de6:	fbb1 f3f3 	udiv	r3, r1, r3
 8003dea:	3301      	adds	r3, #1
 8003dec:	f3c3 030b 	ubfx	r3, r3, #0, #12
 8003df0:	2b04      	cmp	r3, #4
 8003df2:	bf38      	it	cc
 8003df4:	2304      	movcc	r3, #4
 8003df6:	e04f      	b.n	8003e98 <HAL_I2C_Init+0x1a4>
 8003df8:	687b      	ldr	r3, [r7, #4]
 8003dfa:	689b      	ldr	r3, [r3, #8]
 8003dfc:	2b00      	cmp	r3, #0
 8003dfe:	d111      	bne.n	8003e24 <HAL_I2C_Init+0x130>
 8003e00:	68fb      	ldr	r3, [r7, #12]
 8003e02:	1e58      	subs	r0, r3, #1
 8003e04:	687b      	ldr	r3, [r7, #4]
 8003e06:	6859      	ldr	r1, [r3, #4]
 8003e08:	460b      	mov	r3, r1
 8003e0a:	005b      	lsls	r3, r3, #1
 8003e0c:	440b      	add	r3, r1
 8003e0e:	fbb0 f3f3 	udiv	r3, r0, r3
 8003e12:	3301      	adds	r3, #1
 8003e14:	f3c3 030b 	ubfx	r3, r3, #0, #12
 8003e18:	2b00      	cmp	r3, #0
 8003e1a:	bf0c      	ite	eq
 8003e1c:	2301      	moveq	r3, #1
 8003e1e:	2300      	movne	r3, #0
 8003e20:	b2db      	uxtb	r3, r3
 8003e22:	e012      	b.n	8003e4a <HAL_I2C_Init+0x156>
 8003e24:	68fb      	ldr	r3, [r7, #12]
 8003e26:	1e58      	subs	r0, r3, #1
 8003e28:	687b      	ldr	r3, [r7, #4]
 8003e2a:	6859      	ldr	r1, [r3, #4]
 8003e2c:	460b      	mov	r3, r1
 8003e2e:	009b      	lsls	r3, r3, #2
 8003e30:	440b      	add	r3, r1
 8003e32:	0099      	lsls	r1, r3, #2
 8003e34:	440b      	add	r3, r1
 8003e36:	fbb0 f3f3 	udiv	r3, r0, r3
 8003e3a:	3301      	adds	r3, #1
 8003e3c:	f3c3 030b 	ubfx	r3, r3, #0, #12
 8003e40:	2b00      	cmp	r3, #0
 8003e42:	bf0c      	ite	eq
 8003e44:	2301      	moveq	r3, #1
 8003e46:	2300      	movne	r3, #0
 8003e48:	b2db      	uxtb	r3, r3
 8003e4a:	2b00      	cmp	r3, #0
 8003e4c:	d001      	beq.n	8003e52 <HAL_I2C_Init+0x15e>
 8003e4e:	2301      	movs	r3, #1
 8003e50:	e022      	b.n	8003e98 <HAL_I2C_Init+0x1a4>
 8003e52:	687b      	ldr	r3, [r7, #4]
 8003e54:	689b      	ldr	r3, [r3, #8]
 8003e56:	2b00      	cmp	r3, #0
 8003e58:	d10e      	bne.n	8003e78 <HAL_I2C_Init+0x184>
 8003e5a:	68fb      	ldr	r3, [r7, #12]
 8003e5c:	1e58      	subs	r0, r3, #1
 8003e5e:	687b      	ldr	r3, [r7, #4]
 8003e60:	6859      	ldr	r1, [r3, #4]
 8003e62:	460b      	mov	r3, r1
 8003e64:	005b      	lsls	r3, r3, #1
 8003e66:	440b      	add	r3, r1
 8003e68:	fbb0 f3f3 	udiv	r3, r0, r3
 8003e6c:	3301      	adds	r3, #1
 8003e6e:	f3c3 030b 	ubfx	r3, r3, #0, #12
 8003e72:	f443 4300 	orr.w	r3, r3, #32768	; 0x8000
 8003e76:	e00f      	b.n	8003e98 <HAL_I2C_Init+0x1a4>
 8003e78:	68fb      	ldr	r3, [r7, #12]
 8003e7a:	1e58      	subs	r0, r3, #1
 8003e7c:	687b      	ldr	r3, [r7, #4]
 8003e7e:	6859      	ldr	r1, [r3, #4]
 8003e80:	460b      	mov	r3, r1
 8003e82:	009b      	lsls	r3, r3, #2
 8003e84:	440b      	add	r3, r1
 8003e86:	0099      	lsls	r1, r3, #2
 8003e88:	440b      	add	r3, r1
 8003e8a:	fbb0 f3f3 	udiv	r3, r0, r3
 8003e8e:	3301      	adds	r3, #1
 8003e90:	f3c3 030b 	ubfx	r3, r3, #0, #12
 8003e94:	f443 4340 	orr.w	r3, r3, #49152	; 0xc000
 8003e98:	6879      	ldr	r1, [r7, #4]
 8003e9a:	6809      	ldr	r1, [r1, #0]
 8003e9c:	4313      	orrs	r3, r2
 8003e9e:	61cb      	str	r3, [r1, #28]

  /*---------------------------- I2Cx CR1 Configuration ----------------------*/
  /* Configure I2Cx: Generalcall and NoStretch mode */
  MODIFY_REG(hi2c->Instance->CR1, (I2C_CR1_ENGC | I2C_CR1_NOSTRETCH), (hi2c->Init.GeneralCallMode | hi2c->Init.NoStretchMode));
 8003ea0:	687b      	ldr	r3, [r7, #4]
 8003ea2:	681b      	ldr	r3, [r3, #0]
 8003ea4:	681b      	ldr	r3, [r3, #0]
 8003ea6:	f023 01c0 	bic.w	r1, r3, #192	; 0xc0
 8003eaa:	687b      	ldr	r3, [r7, #4]
 8003eac:	69da      	ldr	r2, [r3, #28]
 8003eae:	687b      	ldr	r3, [r7, #4]
 8003eb0:	6a1b      	ldr	r3, [r3, #32]
 8003eb2:	431a      	orrs	r2, r3
 8003eb4:	687b      	ldr	r3, [r7, #4]
 8003eb6:	681b      	ldr	r3, [r3, #0]
 8003eb8:	430a      	orrs	r2, r1
 8003eba:	601a      	str	r2, [r3, #0]

  /*---------------------------- I2Cx OAR1 Configuration ---------------------*/
  /* Configure I2Cx: Own Address1 and addressing mode */
  MODIFY_REG(hi2c->Instance->OAR1, (I2C_OAR1_ADDMODE | I2C_OAR1_ADD8_9 | I2C_OAR1_ADD1_7 | I2C_OAR1_ADD0), (hi2c->Init.AddressingMode | hi2c->Init.OwnAddress1));
 8003ebc:	687b      	ldr	r3, [r7, #4]
 8003ebe:	681b      	ldr	r3, [r3, #0]
 8003ec0:	689b      	ldr	r3, [r3, #8]
 8003ec2:	f423 4303 	bic.w	r3, r3, #33536	; 0x8300
 8003ec6:	f023 03ff 	bic.w	r3, r3, #255	; 0xff
 8003eca:	687a      	ldr	r2, [r7, #4]
 8003ecc:	6911      	ldr	r1, [r2, #16]
 8003ece:	687a      	ldr	r2, [r7, #4]
 8003ed0:	68d2      	ldr	r2, [r2, #12]
 8003ed2:	4311      	orrs	r1, r2
 8003ed4:	687a      	ldr	r2, [r7, #4]
 8003ed6:	6812      	ldr	r2, [r2, #0]
 8003ed8:	430b      	orrs	r3, r1
 8003eda:	6093      	str	r3, [r2, #8]

  /*---------------------------- I2Cx OAR2 Configuration ---------------------*/
  /* Configure I2Cx: Dual mode and Own Address2 */
  MODIFY_REG(hi2c->Instance->OAR2, (I2C_OAR2_ENDUAL | I2C_OAR2_ADD2), (hi2c->Init.DualAddressMode | hi2c->Init.OwnAddress2));
 8003edc:	687b      	ldr	r3, [r7, #4]
 8003ede:	681b      	ldr	r3, [r3, #0]
 8003ee0:	68db      	ldr	r3, [r3, #12]
 8003ee2:	f023 01ff 	bic.w	r1, r3, #255	; 0xff
 8003ee6:	687b      	ldr	r3, [r7, #4]
 8003ee8:	695a      	ldr	r2, [r3, #20]
 8003eea:	687b      	ldr	r3, [r7, #4]
 8003eec:	699b      	ldr	r3, [r3, #24]
 8003eee:	431a      	orrs	r2, r3
 8003ef0:	687b      	ldr	r3, [r7, #4]
 8003ef2:	681b      	ldr	r3, [r3, #0]
 8003ef4:	430a      	orrs	r2, r1
 8003ef6:	60da      	str	r2, [r3, #12]

  /* Enable the selected I2C peripheral */
  __HAL_I2C_ENABLE(hi2c);
 8003ef8:	687b      	ldr	r3, [r7, #4]
 8003efa:	681b      	ldr	r3, [r3, #0]
 8003efc:	681a      	ldr	r2, [r3, #0]
 8003efe:	687b      	ldr	r3, [r7, #4]
 8003f00:	681b      	ldr	r3, [r3, #0]
 8003f02:	f042 0201 	orr.w	r2, r2, #1
 8003f06:	601a      	str	r2, [r3, #0]

  hi2c->ErrorCode = HAL_I2C_ERROR_NONE;
 8003f08:	687b      	ldr	r3, [r7, #4]
 8003f0a:	2200      	movs	r2, #0
 8003f0c:	641a      	str	r2, [r3, #64]	; 0x40
  hi2c->State = HAL_I2C_STATE_READY;
 8003f0e:	687b      	ldr	r3, [r7, #4]
 8003f10:	2220      	movs	r2, #32
 8003f12:	f883 203d 	strb.w	r2, [r3, #61]	; 0x3d
  hi2c->PreviousState = I2C_STATE_NONE;
 8003f16:	687b      	ldr	r3, [r7, #4]
 8003f18:	2200      	movs	r2, #0
 8003f1a:	631a      	str	r2, [r3, #48]	; 0x30
  hi2c->Mode = HAL_I2C_MODE_NONE;
 8003f1c:	687b      	ldr	r3, [r7, #4]
 8003f1e:	2200      	movs	r2, #0
 8003f20:	f883 203e 	strb.w	r2, [r3, #62]	; 0x3e

  return HAL_OK;
 8003f24:	2300      	movs	r3, #0
}
 8003f26:	4618      	mov	r0, r3
 8003f28:	3710      	adds	r7, #16
 8003f2a:	46bd      	mov	sp, r7
 8003f2c:	bd80      	pop	{r7, pc}
 8003f2e:	bf00      	nop
 8003f30:	000186a0 	.word	0x000186a0
 8003f34:	001e847f 	.word	0x001e847f
 8003f38:	003d08ff 	.word	0x003d08ff
 8003f3c:	431bde83 	.word	0x431bde83
 8003f40:	10624dd3 	.word	0x10624dd3

08003f44 <HAL_I2C_Master_Receive>:
  * @param  Size Amount of data to be sent
  * @param  Timeout Timeout duration
  * @retval HAL status
  */
HAL_StatusTypeDef HAL_I2C_Master_Receive(I2C_HandleTypeDef *hi2c, uint16_t DevAddress, uint8_t *pData, uint16_t Size, uint32_t Timeout)
{
 8003f44:	b580      	push	{r7, lr}
 8003f46:	b08c      	sub	sp, #48	; 0x30
 8003f48:	af02      	add	r7, sp, #8
 8003f4a:	60f8      	str	r0, [r7, #12]
 8003f4c:	607a      	str	r2, [r7, #4]
 8003f4e:	461a      	mov	r2, r3
 8003f50:	460b      	mov	r3, r1
 8003f52:	817b      	strh	r3, [r7, #10]
 8003f54:	4613      	mov	r3, r2
 8003f56:	813b      	strh	r3, [r7, #8]
  /* Init tickstart for timeout management*/
  uint32_t tickstart = HAL_GetTick();
 8003f58:	f7fe f946 	bl	80021e8 <HAL_GetTick>
 8003f5c:	6278      	str	r0, [r7, #36]	; 0x24

  if (hi2c->State == HAL_I2C_STATE_READY)
 8003f5e:	68fb      	ldr	r3, [r7, #12]
 8003f60:	f893 303d 	ldrb.w	r3, [r3, #61]	; 0x3d
 8003f64:	b2db      	uxtb	r3, r3
 8003f66:	2b20      	cmp	r3, #32
 8003f68:	f040 8213 	bne.w	8004392 <HAL_I2C_Master_Receive+0x44e>
  {
    /* Wait until BUSY flag is reset */
    if (I2C_WaitOnFlagUntilTimeout(hi2c, I2C_FLAG_BUSY, SET, I2C_TIMEOUT_BUSY_FLAG, tickstart) != HAL_OK)
 8003f6c:	6a7b      	ldr	r3, [r7, #36]	; 0x24
 8003f6e:	9300      	str	r3, [sp, #0]
 8003f70:	2319      	movs	r3, #25
 8003f72:	2201      	movs	r2, #1
 8003f74:	497e      	ldr	r1, [pc, #504]	; (8004170 <HAL_I2C_Master_Receive+0x22c>)
 8003f76:	68f8      	ldr	r0, [r7, #12]
 8003f78:	f000 fac8 	bl	800450c <I2C_WaitOnFlagUntilTimeout>
 8003f7c:	4603      	mov	r3, r0
 8003f7e:	2b00      	cmp	r3, #0
 8003f80:	d001      	beq.n	8003f86 <HAL_I2C_Master_Receive+0x42>
    {
      return HAL_BUSY;
 8003f82:	2302      	movs	r3, #2
 8003f84:	e206      	b.n	8004394 <HAL_I2C_Master_Receive+0x450>
    }

    /* Process Locked */
    __HAL_LOCK(hi2c);
 8003f86:	68fb      	ldr	r3, [r7, #12]
 8003f88:	f893 303c 	ldrb.w	r3, [r3, #60]	; 0x3c
 8003f8c:	2b01      	cmp	r3, #1
 8003f8e:	d101      	bne.n	8003f94 <HAL_I2C_Master_Receive+0x50>
 8003f90:	2302      	movs	r3, #2
 8003f92:	e1ff      	b.n	8004394 <HAL_I2C_Master_Receive+0x450>
 8003f94:	68fb      	ldr	r3, [r7, #12]
 8003f96:	2201      	movs	r2, #1
 8003f98:	f883 203c 	strb.w	r2, [r3, #60]	; 0x3c

    /* Check if the I2C is already enabled */
    if ((hi2c->Instance->CR1 & I2C_CR1_PE) != I2C_CR1_PE)
 8003f9c:	68fb      	ldr	r3, [r7, #12]
 8003f9e:	681b      	ldr	r3, [r3, #0]
 8003fa0:	681b      	ldr	r3, [r3, #0]
 8003fa2:	f003 0301 	and.w	r3, r3, #1
 8003fa6:	2b01      	cmp	r3, #1
 8003fa8:	d007      	beq.n	8003fba <HAL_I2C_Master_Receive+0x76>
    {
      /* Enable I2C peripheral */
      __HAL_I2C_ENABLE(hi2c);
 8003faa:	68fb      	ldr	r3, [r7, #12]
 8003fac:	681b      	ldr	r3, [r3, #0]
 8003fae:	681a      	ldr	r2, [r3, #0]
 8003fb0:	68fb      	ldr	r3, [r7, #12]
 8003fb2:	681b      	ldr	r3, [r3, #0]
 8003fb4:	f042 0201 	orr.w	r2, r2, #1
 8003fb8:	601a      	str	r2, [r3, #0]
    }

    /* Disable Pos */
    CLEAR_BIT(hi2c->Instance->CR1, I2C_CR1_POS);
 8003fba:	68fb      	ldr	r3, [r7, #12]
 8003fbc:	681b      	ldr	r3, [r3, #0]
 8003fbe:	681a      	ldr	r2, [r3, #0]
 8003fc0:	68fb      	ldr	r3, [r7, #12]
 8003fc2:	681b      	ldr	r3, [r3, #0]
 8003fc4:	f422 6200 	bic.w	r2, r2, #2048	; 0x800
 8003fc8:	601a      	str	r2, [r3, #0]

    hi2c->State       = HAL_I2C_STATE_BUSY_RX;
 8003fca:	68fb      	ldr	r3, [r7, #12]
 8003fcc:	2222      	movs	r2, #34	; 0x22
 8003fce:	f883 203d 	strb.w	r2, [r3, #61]	; 0x3d
    hi2c->Mode        = HAL_I2C_MODE_MASTER;
 8003fd2:	68fb      	ldr	r3, [r7, #12]
 8003fd4:	2210      	movs	r2, #16
 8003fd6:	f883 203e 	strb.w	r2, [r3, #62]	; 0x3e
    hi2c->ErrorCode   = HAL_I2C_ERROR_NONE;
 8003fda:	68fb      	ldr	r3, [r7, #12]
 8003fdc:	2200      	movs	r2, #0
 8003fde:	641a      	str	r2, [r3, #64]	; 0x40

    /* Prepare transfer parameters */
    hi2c->pBuffPtr    = pData;
 8003fe0:	68fb      	ldr	r3, [r7, #12]
 8003fe2:	687a      	ldr	r2, [r7, #4]
 8003fe4:	625a      	str	r2, [r3, #36]	; 0x24
    hi2c->XferCount   = Size;
 8003fe6:	68fb      	ldr	r3, [r7, #12]
 8003fe8:	893a      	ldrh	r2, [r7, #8]
 8003fea:	855a      	strh	r2, [r3, #42]	; 0x2a
    hi2c->XferSize    = hi2c->XferCount;
 8003fec:	68fb      	ldr	r3, [r7, #12]
 8003fee:	8d5b      	ldrh	r3, [r3, #42]	; 0x2a
 8003ff0:	b29a      	uxth	r2, r3
 8003ff2:	68fb      	ldr	r3, [r7, #12]
 8003ff4:	851a      	strh	r2, [r3, #40]	; 0x28
    hi2c->XferOptions = I2C_NO_OPTION_FRAME;
 8003ff6:	68fb      	ldr	r3, [r7, #12]
 8003ff8:	4a5e      	ldr	r2, [pc, #376]	; (8004174 <HAL_I2C_Master_Receive+0x230>)
 8003ffa:	62da      	str	r2, [r3, #44]	; 0x2c

    /* Send Slave Address */
    if (I2C_MasterRequestRead(hi2c, DevAddress, Timeout, tickstart) != HAL_OK)
 8003ffc:	8979      	ldrh	r1, [r7, #10]
 8003ffe:	6a7b      	ldr	r3, [r7, #36]	; 0x24
 8004000:	6b3a      	ldr	r2, [r7, #48]	; 0x30
 8004002:	68f8      	ldr	r0, [r7, #12]
 8004004:	f000 f9cc 	bl	80043a0 <I2C_MasterRequestRead>
 8004008:	4603      	mov	r3, r0
 800400a:	2b00      	cmp	r3, #0
 800400c:	d001      	beq.n	8004012 <HAL_I2C_Master_Receive+0xce>
    {
      return HAL_ERROR;
 800400e:	2301      	movs	r3, #1
 8004010:	e1c0      	b.n	8004394 <HAL_I2C_Master_Receive+0x450>
    }

    if (hi2c->XferSize == 0U)
 8004012:	68fb      	ldr	r3, [r7, #12]
 8004014:	8d1b      	ldrh	r3, [r3, #40]	; 0x28
 8004016:	2b00      	cmp	r3, #0
 8004018:	d113      	bne.n	8004042 <HAL_I2C_Master_Receive+0xfe>
    {
      /* Clear ADDR flag */
      __HAL_I2C_CLEAR_ADDRFLAG(hi2c);
 800401a:	2300      	movs	r3, #0
 800401c:	623b      	str	r3, [r7, #32]
 800401e:	68fb      	ldr	r3, [r7, #12]
 8004020:	681b      	ldr	r3, [r3, #0]
 8004022:	695b      	ldr	r3, [r3, #20]
 8004024:	623b      	str	r3, [r7, #32]
 8004026:	68fb      	ldr	r3, [r7, #12]
 8004028:	681b      	ldr	r3, [r3, #0]
 800402a:	699b      	ldr	r3, [r3, #24]
 800402c:	623b      	str	r3, [r7, #32]
 800402e:	6a3b      	ldr	r3, [r7, #32]

      /* Generate Stop */
      SET_BIT(hi2c->Instance->CR1, I2C_CR1_STOP);
 8004030:	68fb      	ldr	r3, [r7, #12]
 8004032:	681b      	ldr	r3, [r3, #0]
 8004034:	681a      	ldr	r2, [r3, #0]
 8004036:	68fb      	ldr	r3, [r7, #12]
 8004038:	681b      	ldr	r3, [r3, #0]
 800403a:	f442 7200 	orr.w	r2, r2, #512	; 0x200
 800403e:	601a      	str	r2, [r3, #0]
 8004040:	e194      	b.n	800436c <HAL_I2C_Master_Receive+0x428>
    }
    else if (hi2c->XferSize == 1U)
 8004042:	68fb      	ldr	r3, [r7, #12]
 8004044:	8d1b      	ldrh	r3, [r3, #40]	; 0x28
 8004046:	2b01      	cmp	r3, #1
 8004048:	d11d      	bne.n	8004086 <HAL_I2C_Master_Receive+0x142>
    {
      /* Disable Acknowledge */
      CLEAR_BIT(hi2c->Instance->CR1, I2C_CR1_ACK);
 800404a:	68fb      	ldr	r3, [r7, #12]
 800404c:	681b      	ldr	r3, [r3, #0]
 800404e:	681a      	ldr	r2, [r3, #0]
 8004050:	68fb      	ldr	r3, [r7, #12]
 8004052:	681b      	ldr	r3, [r3, #0]
 8004054:	f422 6280 	bic.w	r2, r2, #1024	; 0x400
 8004058:	601a      	str	r2, [r3, #0]
  \details Disables IRQ interrupts by setting the I-bit in the CPSR.
           Can only be executed in Privileged modes.
 */
__STATIC_FORCEINLINE void __disable_irq(void)
{
  __ASM volatile ("cpsid i" : : : "memory");
 800405a:	b672      	cpsid	i
      /* Disable all active IRQs around ADDR clearing and STOP programming because the EV6_3
      software sequence must complete before the current byte end of transfer */
      __disable_irq();

      /* Clear ADDR flag */
      __HAL_I2C_CLEAR_ADDRFLAG(hi2c);
 800405c:	2300      	movs	r3, #0
 800405e:	61fb      	str	r3, [r7, #28]
 8004060:	68fb      	ldr	r3, [r7, #12]
 8004062:	681b      	ldr	r3, [r3, #0]
 8004064:	695b      	ldr	r3, [r3, #20]
 8004066:	61fb      	str	r3, [r7, #28]
 8004068:	68fb      	ldr	r3, [r7, #12]
 800406a:	681b      	ldr	r3, [r3, #0]
 800406c:	699b      	ldr	r3, [r3, #24]
 800406e:	61fb      	str	r3, [r7, #28]
 8004070:	69fb      	ldr	r3, [r7, #28]

      /* Generate Stop */
      SET_BIT(hi2c->Instance->CR1, I2C_CR1_STOP);
 8004072:	68fb      	ldr	r3, [r7, #12]
 8004074:	681b      	ldr	r3, [r3, #0]
 8004076:	681a      	ldr	r2, [r3, #0]
 8004078:	68fb      	ldr	r3, [r7, #12]
 800407a:	681b      	ldr	r3, [r3, #0]
 800407c:	f442 7200 	orr.w	r2, r2, #512	; 0x200
 8004080:	601a      	str	r2, [r3, #0]
  __ASM volatile ("cpsie i" : : : "memory");
 8004082:	b662      	cpsie	i
 8004084:	e172      	b.n	800436c <HAL_I2C_Master_Receive+0x428>

      /* Re-enable IRQs */
      __enable_irq();
    }
    else if (hi2c->XferSize == 2U)
 8004086:	68fb      	ldr	r3, [r7, #12]
 8004088:	8d1b      	ldrh	r3, [r3, #40]	; 0x28
 800408a:	2b02      	cmp	r3, #2
 800408c:	d11d      	bne.n	80040ca <HAL_I2C_Master_Receive+0x186>
    {
      /* Enable Pos */
      SET_BIT(hi2c->Instance->CR1, I2C_CR1_POS);
 800408e:	68fb      	ldr	r3, [r7, #12]
 8004090:	681b      	ldr	r3, [r3, #0]
 8004092:	681a      	ldr	r2, [r3, #0]
 8004094:	68fb      	ldr	r3, [r7, #12]
 8004096:	681b      	ldr	r3, [r3, #0]
 8004098:	f442 6200 	orr.w	r2, r2, #2048	; 0x800
 800409c:	601a      	str	r2, [r3, #0]
  __ASM volatile ("cpsid i" : : : "memory");
 800409e:	b672      	cpsid	i
      /* Disable all active IRQs around ADDR clearing and STOP programming because the EV6_3
      software sequence must complete before the current byte end of transfer */
      __disable_irq();

      /* Clear ADDR flag */
      __HAL_I2C_CLEAR_ADDRFLAG(hi2c);
 80040a0:	2300      	movs	r3, #0
 80040a2:	61bb      	str	r3, [r7, #24]
 80040a4:	68fb      	ldr	r3, [r7, #12]
 80040a6:	681b      	ldr	r3, [r3, #0]
 80040a8:	695b      	ldr	r3, [r3, #20]
 80040aa:	61bb      	str	r3, [r7, #24]
 80040ac:	68fb      	ldr	r3, [r7, #12]
 80040ae:	681b      	ldr	r3, [r3, #0]
 80040b0:	699b      	ldr	r3, [r3, #24]
 80040b2:	61bb      	str	r3, [r7, #24]
 80040b4:	69bb      	ldr	r3, [r7, #24]

      /* Disable Acknowledge */
      CLEAR_BIT(hi2c->Instance->CR1, I2C_CR1_ACK);
 80040b6:	68fb      	ldr	r3, [r7, #12]
 80040b8:	681b      	ldr	r3, [r3, #0]
 80040ba:	681a      	ldr	r2, [r3, #0]
 80040bc:	68fb      	ldr	r3, [r7, #12]
 80040be:	681b      	ldr	r3, [r3, #0]
 80040c0:	f422 6280 	bic.w	r2, r2, #1024	; 0x400
 80040c4:	601a      	str	r2, [r3, #0]
  __ASM volatile ("cpsie i" : : : "memory");
 80040c6:	b662      	cpsie	i
 80040c8:	e150      	b.n	800436c <HAL_I2C_Master_Receive+0x428>
      __enable_irq();
    }
    else
    {
      /* Enable Acknowledge */
      SET_BIT(hi2c->Instance->CR1, I2C_CR1_ACK);
 80040ca:	68fb      	ldr	r3, [r7, #12]
 80040cc:	681b      	ldr	r3, [r3, #0]
 80040ce:	681a      	ldr	r2, [r3, #0]
 80040d0:	68fb      	ldr	r3, [r7, #12]
 80040d2:	681b      	ldr	r3, [r3, #0]
 80040d4:	f442 6280 	orr.w	r2, r2, #1024	; 0x400
 80040d8:	601a      	str	r2, [r3, #0]

      /* Clear ADDR flag */
      __HAL_I2C_CLEAR_ADDRFLAG(hi2c);
 80040da:	2300      	movs	r3, #0
 80040dc:	617b      	str	r3, [r7, #20]
 80040de:	68fb      	ldr	r3, [r7, #12]
 80040e0:	681b      	ldr	r3, [r3, #0]
 80040e2:	695b      	ldr	r3, [r3, #20]
 80040e4:	617b      	str	r3, [r7, #20]
 80040e6:	68fb      	ldr	r3, [r7, #12]
 80040e8:	681b      	ldr	r3, [r3, #0]
 80040ea:	699b      	ldr	r3, [r3, #24]
 80040ec:	617b      	str	r3, [r7, #20]
 80040ee:	697b      	ldr	r3, [r7, #20]
    }

    while (hi2c->XferSize > 0U)
 80040f0:	e13c      	b.n	800436c <HAL_I2C_Master_Receive+0x428>
    {
      if (hi2c->XferSize <= 3U)
 80040f2:	68fb      	ldr	r3, [r7, #12]
 80040f4:	8d1b      	ldrh	r3, [r3, #40]	; 0x28
 80040f6:	2b03      	cmp	r3, #3
 80040f8:	f200 80f5 	bhi.w	80042e6 <HAL_I2C_Master_Receive+0x3a2>
      {
        /* One byte */
        if (hi2c->XferSize == 1U)
 80040fc:	68fb      	ldr	r3, [r7, #12]
 80040fe:	8d1b      	ldrh	r3, [r3, #40]	; 0x28
 8004100:	2b01      	cmp	r3, #1
 8004102:	d123      	bne.n	800414c <HAL_I2C_Master_Receive+0x208>
        {
          /* Wait until RXNE flag is set */
          if (I2C_WaitOnRXNEFlagUntilTimeout(hi2c, Timeout, tickstart) != HAL_OK)
 8004104:	6a7a      	ldr	r2, [r7, #36]	; 0x24
 8004106:	6b39      	ldr	r1, [r7, #48]	; 0x30
 8004108:	68f8      	ldr	r0, [r7, #12]
 800410a:	f000 fad5 	bl	80046b8 <I2C_WaitOnRXNEFlagUntilTimeout>
 800410e:	4603      	mov	r3, r0
 8004110:	2b00      	cmp	r3, #0
 8004112:	d001      	beq.n	8004118 <HAL_I2C_Master_Receive+0x1d4>
          {
            return HAL_ERROR;
 8004114:	2301      	movs	r3, #1
 8004116:	e13d      	b.n	8004394 <HAL_I2C_Master_Receive+0x450>
          }

          /* Read data from DR */
          *hi2c->pBuffPtr = (uint8_t)hi2c->Instance->DR;
 8004118:	68fb      	ldr	r3, [r7, #12]
 800411a:	681b      	ldr	r3, [r3, #0]
 800411c:	691a      	ldr	r2, [r3, #16]
 800411e:	68fb      	ldr	r3, [r7, #12]
 8004120:	6a5b      	ldr	r3, [r3, #36]	; 0x24
 8004122:	b2d2      	uxtb	r2, r2
 8004124:	701a      	strb	r2, [r3, #0]

          /* Increment Buffer pointer */
          hi2c->pBuffPtr++;
 8004126:	68fb      	ldr	r3, [r7, #12]
 8004128:	6a5b      	ldr	r3, [r3, #36]	; 0x24
 800412a:	1c5a      	adds	r2, r3, #1
 800412c:	68fb      	ldr	r3, [r7, #12]
 800412e:	625a      	str	r2, [r3, #36]	; 0x24

          /* Update counter */
          hi2c->XferSize--;
 8004130:	68fb      	ldr	r3, [r7, #12]
 8004132:	8d1b      	ldrh	r3, [r3, #40]	; 0x28
 8004134:	3b01      	subs	r3, #1
 8004136:	b29a      	uxth	r2, r3
 8004138:	68fb      	ldr	r3, [r7, #12]
 800413a:	851a      	strh	r2, [r3, #40]	; 0x28
          hi2c->XferCount--;
 800413c:	68fb      	ldr	r3, [r7, #12]
 800413e:	8d5b      	ldrh	r3, [r3, #42]	; 0x2a
 8004140:	b29b      	uxth	r3, r3
 8004142:	3b01      	subs	r3, #1
 8004144:	b29a      	uxth	r2, r3
 8004146:	68fb      	ldr	r3, [r7, #12]
 8004148:	855a      	strh	r2, [r3, #42]	; 0x2a
 800414a:	e10f      	b.n	800436c <HAL_I2C_Master_Receive+0x428>
        }
        /* Two bytes */
        else if (hi2c->XferSize == 2U)
 800414c:	68fb      	ldr	r3, [r7, #12]
 800414e:	8d1b      	ldrh	r3, [r3, #40]	; 0x28
 8004150:	2b02      	cmp	r3, #2
 8004152:	d150      	bne.n	80041f6 <HAL_I2C_Master_Receive+0x2b2>
        {
          /* Wait until BTF flag is set */
          if (I2C_WaitOnFlagUntilTimeout(hi2c, I2C_FLAG_BTF, RESET, Timeout, tickstart) != HAL_OK)
 8004154:	6a7b      	ldr	r3, [r7, #36]	; 0x24
 8004156:	9300      	str	r3, [sp, #0]
 8004158:	6b3b      	ldr	r3, [r7, #48]	; 0x30
 800415a:	2200      	movs	r2, #0
 800415c:	4906      	ldr	r1, [pc, #24]	; (8004178 <HAL_I2C_Master_Receive+0x234>)
 800415e:	68f8      	ldr	r0, [r7, #12]
 8004160:	f000 f9d4 	bl	800450c <I2C_WaitOnFlagUntilTimeout>
 8004164:	4603      	mov	r3, r0
 8004166:	2b00      	cmp	r3, #0
 8004168:	d008      	beq.n	800417c <HAL_I2C_Master_Receive+0x238>
          {
            return HAL_ERROR;
 800416a:	2301      	movs	r3, #1
 800416c:	e112      	b.n	8004394 <HAL_I2C_Master_Receive+0x450>
 800416e:	bf00      	nop
 8004170:	00100002 	.word	0x00100002
 8004174:	ffff0000 	.word	0xffff0000
 8004178:	00010004 	.word	0x00010004
  __ASM volatile ("cpsid i" : : : "memory");
 800417c:	b672      	cpsid	i
          /* Disable all active IRQs around ADDR clearing and STOP programming because the EV6_3
             software sequence must complete before the current byte end of transfer */
          __disable_irq();

          /* Generate Stop */
          SET_BIT(hi2c->Instance->CR1, I2C_CR1_STOP);
 800417e:	68fb      	ldr	r3, [r7, #12]
 8004180:	681b      	ldr	r3, [r3, #0]
 8004182:	681a      	ldr	r2, [r3, #0]
 8004184:	68fb      	ldr	r3, [r7, #12]
 8004186:	681b      	ldr	r3, [r3, #0]
 8004188:	f442 7200 	orr.w	r2, r2, #512	; 0x200
 800418c:	601a      	str	r2, [r3, #0]

          /* Read data from DR */
          *hi2c->pBuffPtr = (uint8_t)hi2c->Instance->DR;
 800418e:	68fb      	ldr	r3, [r7, #12]
 8004190:	681b      	ldr	r3, [r3, #0]
 8004192:	691a      	ldr	r2, [r3, #16]
 8004194:	68fb      	ldr	r3, [r7, #12]
 8004196:	6a5b      	ldr	r3, [r3, #36]	; 0x24
 8004198:	b2d2      	uxtb	r2, r2
 800419a:	701a      	strb	r2, [r3, #0]

          /* Increment Buffer pointer */
          hi2c->pBuffPtr++;
 800419c:	68fb      	ldr	r3, [r7, #12]
 800419e:	6a5b      	ldr	r3, [r3, #36]	; 0x24
 80041a0:	1c5a      	adds	r2, r3, #1
 80041a2:	68fb      	ldr	r3, [r7, #12]
 80041a4:	625a      	str	r2, [r3, #36]	; 0x24

          /* Update counter */
          hi2c->XferSize--;
 80041a6:	68fb      	ldr	r3, [r7, #12]
 80041a8:	8d1b      	ldrh	r3, [r3, #40]	; 0x28
 80041aa:	3b01      	subs	r3, #1
 80041ac:	b29a      	uxth	r2, r3
 80041ae:	68fb      	ldr	r3, [r7, #12]
 80041b0:	851a      	strh	r2, [r3, #40]	; 0x28
          hi2c->XferCount--;
 80041b2:	68fb      	ldr	r3, [r7, #12]
 80041b4:	8d5b      	ldrh	r3, [r3, #42]	; 0x2a
 80041b6:	b29b      	uxth	r3, r3
 80041b8:	3b01      	subs	r3, #1
 80041ba:	b29a      	uxth	r2, r3
 80041bc:	68fb      	ldr	r3, [r7, #12]
 80041be:	855a      	strh	r2, [r3, #42]	; 0x2a
  __ASM volatile ("cpsie i" : : : "memory");
 80041c0:	b662      	cpsie	i

          /* Re-enable IRQs */
          __enable_irq();

          /* Read data from DR */
          *hi2c->pBuffPtr = (uint8_t)hi2c->Instance->DR;
 80041c2:	68fb      	ldr	r3, [r7, #12]
 80041c4:	681b      	ldr	r3, [r3, #0]
 80041c6:	691a      	ldr	r2, [r3, #16]
 80041c8:	68fb      	ldr	r3, [r7, #12]
 80041ca:	6a5b      	ldr	r3, [r3, #36]	; 0x24
 80041cc:	b2d2      	uxtb	r2, r2
 80041ce:	701a      	strb	r2, [r3, #0]

          /* Increment Buffer pointer */
          hi2c->pBuffPtr++;
 80041d0:	68fb      	ldr	r3, [r7, #12]
 80041d2:	6a5b      	ldr	r3, [r3, #36]	; 0x24
 80041d4:	1c5a      	adds	r2, r3, #1
 80041d6:	68fb      	ldr	r3, [r7, #12]
 80041d8:	625a      	str	r2, [r3, #36]	; 0x24

          /* Update counter */
          hi2c->XferSize--;
 80041da:	68fb      	ldr	r3, [r7, #12]
 80041dc:	8d1b      	ldrh	r3, [r3, #40]	; 0x28
 80041de:	3b01      	subs	r3, #1
 80041e0:	b29a      	uxth	r2, r3
 80041e2:	68fb      	ldr	r3, [r7, #12]
 80041e4:	851a      	strh	r2, [r3, #40]	; 0x28
          hi2c->XferCount--;
 80041e6:	68fb      	ldr	r3, [r7, #12]
 80041e8:	8d5b      	ldrh	r3, [r3, #42]	; 0x2a
 80041ea:	b29b      	uxth	r3, r3
 80041ec:	3b01      	subs	r3, #1
 80041ee:	b29a      	uxth	r2, r3
 80041f0:	68fb      	ldr	r3, [r7, #12]
 80041f2:	855a      	strh	r2, [r3, #42]	; 0x2a
 80041f4:	e0ba      	b.n	800436c <HAL_I2C_Master_Receive+0x428>
        }
        /* 3 Last bytes */
        else
        {
          /* Wait until BTF flag is set */
          if (I2C_WaitOnFlagUntilTimeout(hi2c, I2C_FLAG_BTF, RESET, Timeout, tickstart) != HAL_OK)
 80041f6:	6a7b      	ldr	r3, [r7, #36]	; 0x24
 80041f8:	9300      	str	r3, [sp, #0]
 80041fa:	6b3b      	ldr	r3, [r7, #48]	; 0x30
 80041fc:	2200      	movs	r2, #0
 80041fe:	4967      	ldr	r1, [pc, #412]	; (800439c <HAL_I2C_Master_Receive+0x458>)
 8004200:	68f8      	ldr	r0, [r7, #12]
 8004202:	f000 f983 	bl	800450c <I2C_WaitOnFlagUntilTimeout>
 8004206:	4603      	mov	r3, r0
 8004208:	2b00      	cmp	r3, #0
 800420a:	d001      	beq.n	8004210 <HAL_I2C_Master_Receive+0x2cc>
          {
            return HAL_ERROR;
 800420c:	2301      	movs	r3, #1
 800420e:	e0c1      	b.n	8004394 <HAL_I2C_Master_Receive+0x450>
          }

          /* Disable Acknowledge */
          CLEAR_BIT(hi2c->Instance->CR1, I2C_CR1_ACK);
 8004210:	68fb      	ldr	r3, [r7, #12]
 8004212:	681b      	ldr	r3, [r3, #0]
 8004214:	681a      	ldr	r2, [r3, #0]
 8004216:	68fb      	ldr	r3, [r7, #12]
 8004218:	681b      	ldr	r3, [r3, #0]
 800421a:	f422 6280 	bic.w	r2, r2, #1024	; 0x400
 800421e:	601a      	str	r2, [r3, #0]
  __ASM volatile ("cpsid i" : : : "memory");
 8004220:	b672      	cpsid	i
          /* Disable all active IRQs around ADDR clearing and STOP programming because the EV6_3
             software sequence must complete before the current byte end of transfer */
          __disable_irq();

          /* Read data from DR */
          *hi2c->pBuffPtr = (uint8_t)hi2c->Instance->DR;
 8004222:	68fb      	ldr	r3, [r7, #12]
 8004224:	681b      	ldr	r3, [r3, #0]
 8004226:	691a      	ldr	r2, [r3, #16]
 8004228:	68fb      	ldr	r3, [r7, #12]
 800422a:	6a5b      	ldr	r3, [r3, #36]	; 0x24
 800422c:	b2d2      	uxtb	r2, r2
 800422e:	701a      	strb	r2, [r3, #0]

          /* Increment Buffer pointer */
          hi2c->pBuffPtr++;
 8004230:	68fb      	ldr	r3, [r7, #12]
 8004232:	6a5b      	ldr	r3, [r3, #36]	; 0x24
 8004234:	1c5a      	adds	r2, r3, #1
 8004236:	68fb      	ldr	r3, [r7, #12]
 8004238:	625a      	str	r2, [r3, #36]	; 0x24

          /* Update counter */
          hi2c->XferSize--;
 800423a:	68fb      	ldr	r3, [r7, #12]
 800423c:	8d1b      	ldrh	r3, [r3, #40]	; 0x28
 800423e:	3b01      	subs	r3, #1
 8004240:	b29a      	uxth	r2, r3
 8004242:	68fb      	ldr	r3, [r7, #12]
 8004244:	851a      	strh	r2, [r3, #40]	; 0x28
          hi2c->XferCount--;
 8004246:	68fb      	ldr	r3, [r7, #12]
 8004248:	8d5b      	ldrh	r3, [r3, #42]	; 0x2a
 800424a:	b29b      	uxth	r3, r3
 800424c:	3b01      	subs	r3, #1
 800424e:	b29a      	uxth	r2, r3
 8004250:	68fb      	ldr	r3, [r7, #12]
 8004252:	855a      	strh	r2, [r3, #42]	; 0x2a

          /* Wait until BTF flag is set */
          if (I2C_WaitOnFlagUntilTimeout(hi2c, I2C_FLAG_BTF, RESET, Timeout, tickstart) != HAL_OK)
 8004254:	6a7b      	ldr	r3, [r7, #36]	; 0x24
 8004256:	9300      	str	r3, [sp, #0]
 8004258:	6b3b      	ldr	r3, [r7, #48]	; 0x30
 800425a:	2200      	movs	r2, #0
 800425c:	494f      	ldr	r1, [pc, #316]	; (800439c <HAL_I2C_Master_Receive+0x458>)
 800425e:	68f8      	ldr	r0, [r7, #12]
 8004260:	f000 f954 	bl	800450c <I2C_WaitOnFlagUntilTimeout>
 8004264:	4603      	mov	r3, r0
 8004266:	2b00      	cmp	r3, #0
 8004268:	d001      	beq.n	800426e <HAL_I2C_Master_Receive+0x32a>
          {
            return HAL_ERROR;
 800426a:	2301      	movs	r3, #1
 800426c:	e092      	b.n	8004394 <HAL_I2C_Master_Receive+0x450>
          }

          /* Generate Stop */
          SET_BIT(hi2c->Instance->CR1, I2C_CR1_STOP);
 800426e:	68fb      	ldr	r3, [r7, #12]
 8004270:	681b      	ldr	r3, [r3, #0]
 8004272:	681a      	ldr	r2, [r3, #0]
 8004274:	68fb      	ldr	r3, [r7, #12]
 8004276:	681b      	ldr	r3, [r3, #0]
 8004278:	f442 7200 	orr.w	r2, r2, #512	; 0x200
 800427c:	601a      	str	r2, [r3, #0]

          /* Read data from DR */
          *hi2c->pBuffPtr = (uint8_t)hi2c->Instance->DR;
 800427e:	68fb      	ldr	r3, [r7, #12]
 8004280:	681b      	ldr	r3, [r3, #0]
 8004282:	691a      	ldr	r2, [r3, #16]
 8004284:	68fb      	ldr	r3, [r7, #12]
 8004286:	6a5b      	ldr	r3, [r3, #36]	; 0x24
 8004288:	b2d2      	uxtb	r2, r2
 800428a:	701a      	strb	r2, [r3, #0]

          /* Increment Buffer pointer */
          hi2c->pBuffPtr++;
 800428c:	68fb      	ldr	r3, [r7, #12]
 800428e:	6a5b      	ldr	r3, [r3, #36]	; 0x24
 8004290:	1c5a      	adds	r2, r3, #1
 8004292:	68fb      	ldr	r3, [r7, #12]
 8004294:	625a      	str	r2, [r3, #36]	; 0x24

          /* Update counter */
          hi2c->XferSize--;
 8004296:	68fb      	ldr	r3, [r7, #12]
 8004298:	8d1b      	ldrh	r3, [r3, #40]	; 0x28
 800429a:	3b01      	subs	r3, #1
 800429c:	b29a      	uxth	r2, r3
 800429e:	68fb      	ldr	r3, [r7, #12]
 80042a0:	851a      	strh	r2, [r3, #40]	; 0x28
          hi2c->XferCount--;
 80042a2:	68fb      	ldr	r3, [r7, #12]
 80042a4:	8d5b      	ldrh	r3, [r3, #42]	; 0x2a
 80042a6:	b29b      	uxth	r3, r3
 80042a8:	3b01      	subs	r3, #1
 80042aa:	b29a      	uxth	r2, r3
 80042ac:	68fb      	ldr	r3, [r7, #12]
 80042ae:	855a      	strh	r2, [r3, #42]	; 0x2a
  __ASM volatile ("cpsie i" : : : "memory");
 80042b0:	b662      	cpsie	i

          /* Re-enable IRQs */
          __enable_irq();

          /* Read data from DR */
          *hi2c->pBuffPtr = (uint8_t)hi2c->Instance->DR;
 80042b2:	68fb      	ldr	r3, [r7, #12]
 80042b4:	681b      	ldr	r3, [r3, #0]
 80042b6:	691a      	ldr	r2, [r3, #16]
 80042b8:	68fb      	ldr	r3, [r7, #12]
 80042ba:	6a5b      	ldr	r3, [r3, #36]	; 0x24
 80042bc:	b2d2      	uxtb	r2, r2
 80042be:	701a      	strb	r2, [r3, #0]

          /* Increment Buffer pointer */
          hi2c->pBuffPtr++;
 80042c0:	68fb      	ldr	r3, [r7, #12]
 80042c2:	6a5b      	ldr	r3, [r3, #36]	; 0x24
 80042c4:	1c5a      	adds	r2, r3, #1
 80042c6:	68fb      	ldr	r3, [r7, #12]
 80042c8:	625a      	str	r2, [r3, #36]	; 0x24

          /* Update counter */
          hi2c->XferSize--;
 80042ca:	68fb      	ldr	r3, [r7, #12]
 80042cc:	8d1b      	ldrh	r3, [r3, #40]	; 0x28
 80042ce:	3b01      	subs	r3, #1
 80042d0:	b29a      	uxth	r2, r3
 80042d2:	68fb      	ldr	r3, [r7, #12]
 80042d4:	851a      	strh	r2, [r3, #40]	; 0x28
          hi2c->XferCount--;
 80042d6:	68fb      	ldr	r3, [r7, #12]
 80042d8:	8d5b      	ldrh	r3, [r3, #42]	; 0x2a
 80042da:	b29b      	uxth	r3, r3
 80042dc:	3b01      	subs	r3, #1
 80042de:	b29a      	uxth	r2, r3
 80042e0:	68fb      	ldr	r3, [r7, #12]
 80042e2:	855a      	strh	r2, [r3, #42]	; 0x2a
 80042e4:	e042      	b.n	800436c <HAL_I2C_Master_Receive+0x428>
        }
      }
      else
      {
        /* Wait until RXNE flag is set */
        if (I2C_WaitOnRXNEFlagUntilTimeout(hi2c, Timeout, tickstart) != HAL_OK)
 80042e6:	6a7a      	ldr	r2, [r7, #36]	; 0x24
 80042e8:	6b39      	ldr	r1, [r7, #48]	; 0x30
 80042ea:	68f8      	ldr	r0, [r7, #12]
 80042ec:	f000 f9e4 	bl	80046b8 <I2C_WaitOnRXNEFlagUntilTimeout>
 80042f0:	4603      	mov	r3, r0
 80042f2:	2b00      	cmp	r3, #0
 80042f4:	d001      	beq.n	80042fa <HAL_I2C_Master_Receive+0x3b6>
        {
          return HAL_ERROR;
 80042f6:	2301      	movs	r3, #1
 80042f8:	e04c      	b.n	8004394 <HAL_I2C_Master_Receive+0x450>
        }

        /* Read data from DR */
        *hi2c->pBuffPtr = (uint8_t)hi2c->Instance->DR;
 80042fa:	68fb      	ldr	r3, [r7, #12]
 80042fc:	681b      	ldr	r3, [r3, #0]
 80042fe:	691a      	ldr	r2, [r3, #16]
 8004300:	68fb      	ldr	r3, [r7, #12]
 8004302:	6a5b      	ldr	r3, [r3, #36]	; 0x24
 8004304:	b2d2      	uxtb	r2, r2
 8004306:	701a      	strb	r2, [r3, #0]

        /* Increment Buffer pointer */
        hi2c->pBuffPtr++;
 8004308:	68fb      	ldr	r3, [r7, #12]
 800430a:	6a5b      	ldr	r3, [r3, #36]	; 0x24
 800430c:	1c5a      	adds	r2, r3, #1
 800430e:	68fb      	ldr	r3, [r7, #12]
 8004310:	625a      	str	r2, [r3, #36]	; 0x24

        /* Update counter */
        hi2c->XferSize--;
 8004312:	68fb      	ldr	r3, [r7, #12]
 8004314:	8d1b      	ldrh	r3, [r3, #40]	; 0x28
 8004316:	3b01      	subs	r3, #1
 8004318:	b29a      	uxth	r2, r3
 800431a:	68fb      	ldr	r3, [r7, #12]
 800431c:	851a      	strh	r2, [r3, #40]	; 0x28
        hi2c->XferCount--;
 800431e:	68fb      	ldr	r3, [r7, #12]
 8004320:	8d5b      	ldrh	r3, [r3, #42]	; 0x2a
 8004322:	b29b      	uxth	r3, r3
 8004324:	3b01      	subs	r3, #1
 8004326:	b29a      	uxth	r2, r3
 8004328:	68fb      	ldr	r3, [r7, #12]
 800432a:	855a      	strh	r2, [r3, #42]	; 0x2a

        if (__HAL_I2C_GET_FLAG(hi2c, I2C_FLAG_BTF) == SET)
 800432c:	68fb      	ldr	r3, [r7, #12]
 800432e:	681b      	ldr	r3, [r3, #0]
 8004330:	695b      	ldr	r3, [r3, #20]
 8004332:	f003 0304 	and.w	r3, r3, #4
 8004336:	2b04      	cmp	r3, #4
 8004338:	d118      	bne.n	800436c <HAL_I2C_Master_Receive+0x428>
        {
          /* Read data from DR */
          *hi2c->pBuffPtr = (uint8_t)hi2c->Instance->DR;
 800433a:	68fb      	ldr	r3, [r7, #12]
 800433c:	681b      	ldr	r3, [r3, #0]
 800433e:	691a      	ldr	r2, [r3, #16]
 8004340:	68fb      	ldr	r3, [r7, #12]
 8004342:	6a5b      	ldr	r3, [r3, #36]	; 0x24
 8004344:	b2d2      	uxtb	r2, r2
 8004346:	701a      	strb	r2, [r3, #0]

          /* Increment Buffer pointer */
          hi2c->pBuffPtr++;
 8004348:	68fb      	ldr	r3, [r7, #12]
 800434a:	6a5b      	ldr	r3, [r3, #36]	; 0x24
 800434c:	1c5a      	adds	r2, r3, #1
 800434e:	68fb      	ldr	r3, [r7, #12]
 8004350:	625a      	str	r2, [r3, #36]	; 0x24

          /* Update counter */
          hi2c->XferSize--;
 8004352:	68fb      	ldr	r3, [r7, #12]
 8004354:	8d1b      	ldrh	r3, [r3, #40]	; 0x28
 8004356:	3b01      	subs	r3, #1
 8004358:	b29a      	uxth	r2, r3
 800435a:	68fb      	ldr	r3, [r7, #12]
 800435c:	851a      	strh	r2, [r3, #40]	; 0x28
          hi2c->XferCount--;
 800435e:	68fb      	ldr	r3, [r7, #12]
 8004360:	8d5b      	ldrh	r3, [r3, #42]	; 0x2a
 8004362:	b29b      	uxth	r3, r3
 8004364:	3b01      	subs	r3, #1
 8004366:	b29a      	uxth	r2, r3
 8004368:	68fb      	ldr	r3, [r7, #12]
 800436a:	855a      	strh	r2, [r3, #42]	; 0x2a
    while (hi2c->XferSize > 0U)
 800436c:	68fb      	ldr	r3, [r7, #12]
 800436e:	8d1b      	ldrh	r3, [r3, #40]	; 0x28
 8004370:	2b00      	cmp	r3, #0
 8004372:	f47f aebe 	bne.w	80040f2 <HAL_I2C_Master_Receive+0x1ae>
        }
      }
    }

    hi2c->State = HAL_I2C_STATE_READY;
 8004376:	68fb      	ldr	r3, [r7, #12]
 8004378:	2220      	movs	r2, #32
 800437a:	f883 203d 	strb.w	r2, [r3, #61]	; 0x3d
    hi2c->Mode = HAL_I2C_MODE_NONE;
 800437e:	68fb      	ldr	r3, [r7, #12]
 8004380:	2200      	movs	r2, #0
 8004382:	f883 203e 	strb.w	r2, [r3, #62]	; 0x3e

    /* Process Unlocked */
    __HAL_UNLOCK(hi2c);
 8004386:	68fb      	ldr	r3, [r7, #12]
 8004388:	2200      	movs	r2, #0
 800438a:	f883 203c 	strb.w	r2, [r3, #60]	; 0x3c

    return HAL_OK;
 800438e:	2300      	movs	r3, #0
 8004390:	e000      	b.n	8004394 <HAL_I2C_Master_Receive+0x450>
  }
  else
  {
    return HAL_BUSY;
 8004392:	2302      	movs	r3, #2
  }
}
 8004394:	4618      	mov	r0, r3
 8004396:	3728      	adds	r7, #40	; 0x28
 8004398:	46bd      	mov	sp, r7
 800439a:	bd80      	pop	{r7, pc}
 800439c:	00010004 	.word	0x00010004

080043a0 <I2C_MasterRequestRead>:
  * @param  Timeout Timeout duration
  * @param  Tickstart Tick start value
  * @retval HAL status
  */
static HAL_StatusTypeDef I2C_MasterRequestRead(I2C_HandleTypeDef *hi2c, uint16_t DevAddress, uint32_t Timeout, uint32_t Tickstart)
{
 80043a0:	b580      	push	{r7, lr}
 80043a2:	b088      	sub	sp, #32
 80043a4:	af02      	add	r7, sp, #8
 80043a6:	60f8      	str	r0, [r7, #12]
 80043a8:	607a      	str	r2, [r7, #4]
 80043aa:	603b      	str	r3, [r7, #0]
 80043ac:	460b      	mov	r3, r1
 80043ae:	817b      	strh	r3, [r7, #10]
  /* Declaration of temporary variable to prevent undefined behavior of volatile usage */
  uint32_t CurrentXferOptions = hi2c->XferOptions;
 80043b0:	68fb      	ldr	r3, [r7, #12]
 80043b2:	6adb      	ldr	r3, [r3, #44]	; 0x2c
 80043b4:	617b      	str	r3, [r7, #20]

  /* Enable Acknowledge */
  SET_BIT(hi2c->Instance->CR1, I2C_CR1_ACK);
 80043b6:	68fb      	ldr	r3, [r7, #12]
 80043b8:	681b      	ldr	r3, [r3, #0]
 80043ba:	681a      	ldr	r2, [r3, #0]
 80043bc:	68fb      	ldr	r3, [r7, #12]
 80043be:	681b      	ldr	r3, [r3, #0]
 80043c0:	f442 6280 	orr.w	r2, r2, #1024	; 0x400
 80043c4:	601a      	str	r2, [r3, #0]

  /* Generate Start condition if first transfer */
  if ((CurrentXferOptions == I2C_FIRST_AND_LAST_FRAME) || (CurrentXferOptions == I2C_FIRST_FRAME)  || (CurrentXferOptions == I2C_NO_OPTION_FRAME))
 80043c6:	697b      	ldr	r3, [r7, #20]
 80043c8:	2b08      	cmp	r3, #8
 80043ca:	d006      	beq.n	80043da <I2C_MasterRequestRead+0x3a>
 80043cc:	697b      	ldr	r3, [r7, #20]
 80043ce:	2b01      	cmp	r3, #1
 80043d0:	d003      	beq.n	80043da <I2C_MasterRequestRead+0x3a>
 80043d2:	697b      	ldr	r3, [r7, #20]
 80043d4:	f513 3f80 	cmn.w	r3, #65536	; 0x10000
 80043d8:	d108      	bne.n	80043ec <I2C_MasterRequestRead+0x4c>
  {
    /* Generate Start */
    SET_BIT(hi2c->Instance->CR1, I2C_CR1_START);
 80043da:	68fb      	ldr	r3, [r7, #12]
 80043dc:	681b      	ldr	r3, [r3, #0]
 80043de:	681a      	ldr	r2, [r3, #0]
 80043e0:	68fb      	ldr	r3, [r7, #12]
 80043e2:	681b      	ldr	r3, [r3, #0]
 80043e4:	f442 7280 	orr.w	r2, r2, #256	; 0x100
 80043e8:	601a      	str	r2, [r3, #0]
 80043ea:	e00b      	b.n	8004404 <I2C_MasterRequestRead+0x64>
  }
  else if (hi2c->PreviousState == I2C_STATE_MASTER_BUSY_TX)
 80043ec:	68fb      	ldr	r3, [r7, #12]
 80043ee:	6b1b      	ldr	r3, [r3, #48]	; 0x30
 80043f0:	2b11      	cmp	r3, #17
 80043f2:	d107      	bne.n	8004404 <I2C_MasterRequestRead+0x64>
  {
    /* Generate ReStart */
    SET_BIT(hi2c->Instance->CR1, I2C_CR1_START);
 80043f4:	68fb      	ldr	r3, [r7, #12]
 80043f6:	681b      	ldr	r3, [r3, #0]
 80043f8:	681a      	ldr	r2, [r3, #0]
 80043fa:	68fb      	ldr	r3, [r7, #12]
 80043fc:	681b      	ldr	r3, [r3, #0]
 80043fe:	f442 7280 	orr.w	r2, r2, #256	; 0x100
 8004402:	601a      	str	r2, [r3, #0]
  {
    /* Do nothing */
  }

  /* Wait until SB flag is set */
  if (I2C_WaitOnFlagUntilTimeout(hi2c, I2C_FLAG_SB, RESET, Timeout, Tickstart) != HAL_OK)
 8004404:	683b      	ldr	r3, [r7, #0]
 8004406:	9300      	str	r3, [sp, #0]
 8004408:	687b      	ldr	r3, [r7, #4]
 800440a:	2200      	movs	r2, #0
 800440c:	f04f 1101 	mov.w	r1, #65537	; 0x10001
 8004410:	68f8      	ldr	r0, [r7, #12]
 8004412:	f000 f87b 	bl	800450c <I2C_WaitOnFlagUntilTimeout>
 8004416:	4603      	mov	r3, r0
 8004418:	2b00      	cmp	r3, #0
 800441a:	d001      	beq.n	8004420 <I2C_MasterRequestRead+0x80>
  {
    return HAL_ERROR;
 800441c:	2301      	movs	r3, #1
 800441e:	e06d      	b.n	80044fc <I2C_MasterRequestRead+0x15c>
  }

  if (hi2c->Init.AddressingMode == I2C_ADDRESSINGMODE_7BIT)
 8004420:	68fb      	ldr	r3, [r7, #12]
 8004422:	691b      	ldr	r3, [r3, #16]
 8004424:	f5b3 4f80 	cmp.w	r3, #16384	; 0x4000
 8004428:	d108      	bne.n	800443c <I2C_MasterRequestRead+0x9c>
  {
    /* Send slave address */
    hi2c->Instance->DR = I2C_7BIT_ADD_READ(DevAddress);
 800442a:	897b      	ldrh	r3, [r7, #10]
 800442c:	b2db      	uxtb	r3, r3
 800442e:	f043 0301 	orr.w	r3, r3, #1
 8004432:	b2da      	uxtb	r2, r3
 8004434:	68fb      	ldr	r3, [r7, #12]
 8004436:	681b      	ldr	r3, [r3, #0]
 8004438:	611a      	str	r2, [r3, #16]
 800443a:	e053      	b.n	80044e4 <I2C_MasterRequestRead+0x144>
  }
  else
  {
    /* Send header of slave address */
    hi2c->Instance->DR = I2C_10BIT_HEADER_WRITE(DevAddress);
 800443c:	897b      	ldrh	r3, [r7, #10]
 800443e:	11db      	asrs	r3, r3, #7
 8004440:	b2db      	uxtb	r3, r3
 8004442:	f003 0306 	and.w	r3, r3, #6
 8004446:	b2db      	uxtb	r3, r3
 8004448:	f063 030f 	orn	r3, r3, #15
 800444c:	b2da      	uxtb	r2, r3
 800444e:	68fb      	ldr	r3, [r7, #12]
 8004450:	681b      	ldr	r3, [r3, #0]
 8004452:	611a      	str	r2, [r3, #16]

    /* Wait until ADD10 flag is set */
    if (I2C_WaitOnMasterAddressFlagUntilTimeout(hi2c, I2C_FLAG_ADD10, Timeout, Tickstart) != HAL_OK)
 8004454:	683b      	ldr	r3, [r7, #0]
 8004456:	687a      	ldr	r2, [r7, #4]
 8004458:	492a      	ldr	r1, [pc, #168]	; (8004504 <I2C_MasterRequestRead+0x164>)
 800445a:	68f8      	ldr	r0, [r7, #12]
 800445c:	f000 f8ad 	bl	80045ba <I2C_WaitOnMasterAddressFlagUntilTimeout>
 8004460:	4603      	mov	r3, r0
 8004462:	2b00      	cmp	r3, #0
 8004464:	d001      	beq.n	800446a <I2C_MasterRequestRead+0xca>
    {
      return HAL_ERROR;
 8004466:	2301      	movs	r3, #1
 8004468:	e048      	b.n	80044fc <I2C_MasterRequestRead+0x15c>
    }

    /* Send slave address */
    hi2c->Instance->DR = I2C_10BIT_ADDRESS(DevAddress);
 800446a:	897b      	ldrh	r3, [r7, #10]
 800446c:	b2da      	uxtb	r2, r3
 800446e:	68fb      	ldr	r3, [r7, #12]
 8004470:	681b      	ldr	r3, [r3, #0]
 8004472:	611a      	str	r2, [r3, #16]

    /* Wait until ADDR flag is set */
    if (I2C_WaitOnMasterAddressFlagUntilTimeout(hi2c, I2C_FLAG_ADDR, Timeout, Tickstart) != HAL_OK)
 8004474:	683b      	ldr	r3, [r7, #0]
 8004476:	687a      	ldr	r2, [r7, #4]
 8004478:	4923      	ldr	r1, [pc, #140]	; (8004508 <I2C_MasterRequestRead+0x168>)
 800447a:	68f8      	ldr	r0, [r7, #12]
 800447c:	f000 f89d 	bl	80045ba <I2C_WaitOnMasterAddressFlagUntilTimeout>
 8004480:	4603      	mov	r3, r0
 8004482:	2b00      	cmp	r3, #0
 8004484:	d001      	beq.n	800448a <I2C_MasterRequestRead+0xea>
    {
      return HAL_ERROR;
 8004486:	2301      	movs	r3, #1
 8004488:	e038      	b.n	80044fc <I2C_MasterRequestRead+0x15c>
    }

    /* Clear ADDR flag */
    __HAL_I2C_CLEAR_ADDRFLAG(hi2c);
 800448a:	2300      	movs	r3, #0
 800448c:	613b      	str	r3, [r7, #16]
 800448e:	68fb      	ldr	r3, [r7, #12]
 8004490:	681b      	ldr	r3, [r3, #0]
 8004492:	695b      	ldr	r3, [r3, #20]
 8004494:	613b      	str	r3, [r7, #16]
 8004496:	68fb      	ldr	r3, [r7, #12]
 8004498:	681b      	ldr	r3, [r3, #0]
 800449a:	699b      	ldr	r3, [r3, #24]
 800449c:	613b      	str	r3, [r7, #16]
 800449e:	693b      	ldr	r3, [r7, #16]

    /* Generate Restart */
    SET_BIT(hi2c->Instance->CR1, I2C_CR1_START);
 80044a0:	68fb      	ldr	r3, [r7, #12]
 80044a2:	681b      	ldr	r3, [r3, #0]
 80044a4:	681a      	ldr	r2, [r3, #0]
 80044a6:	68fb      	ldr	r3, [r7, #12]
 80044a8:	681b      	ldr	r3, [r3, #0]
 80044aa:	f442 7280 	orr.w	r2, r2, #256	; 0x100
 80044ae:	601a      	str	r2, [r3, #0]

    /* Wait until SB flag is set */
    if (I2C_WaitOnFlagUntilTimeout(hi2c, I2C_FLAG_SB, RESET, Timeout, Tickstart) != HAL_OK)
 80044b0:	683b      	ldr	r3, [r7, #0]
 80044b2:	9300      	str	r3, [sp, #0]
 80044b4:	687b      	ldr	r3, [r7, #4]
 80044b6:	2200      	movs	r2, #0
 80044b8:	f04f 1101 	mov.w	r1, #65537	; 0x10001
 80044bc:	68f8      	ldr	r0, [r7, #12]
 80044be:	f000 f825 	bl	800450c <I2C_WaitOnFlagUntilTimeout>
 80044c2:	4603      	mov	r3, r0
 80044c4:	2b00      	cmp	r3, #0
 80044c6:	d001      	beq.n	80044cc <I2C_MasterRequestRead+0x12c>
    {
      return HAL_ERROR;
 80044c8:	2301      	movs	r3, #1
 80044ca:	e017      	b.n	80044fc <I2C_MasterRequestRead+0x15c>
    }

    /* Send header of slave address */
    hi2c->Instance->DR = I2C_10BIT_HEADER_READ(DevAddress);
 80044cc:	897b      	ldrh	r3, [r7, #10]
 80044ce:	11db      	asrs	r3, r3, #7
 80044d0:	b2db      	uxtb	r3, r3
 80044d2:	f003 0306 	and.w	r3, r3, #6
 80044d6:	b2db      	uxtb	r3, r3
 80044d8:	f063 030e 	orn	r3, r3, #14
 80044dc:	b2da      	uxtb	r2, r3
 80044de:	68fb      	ldr	r3, [r7, #12]
 80044e0:	681b      	ldr	r3, [r3, #0]
 80044e2:	611a      	str	r2, [r3, #16]
  }

  /* Wait until ADDR flag is set */
  if (I2C_WaitOnMasterAddressFlagUntilTimeout(hi2c, I2C_FLAG_ADDR, Timeout, Tickstart) != HAL_OK)
 80044e4:	683b      	ldr	r3, [r7, #0]
 80044e6:	687a      	ldr	r2, [r7, #4]
 80044e8:	4907      	ldr	r1, [pc, #28]	; (8004508 <I2C_MasterRequestRead+0x168>)
 80044ea:	68f8      	ldr	r0, [r7, #12]
 80044ec:	f000 f865 	bl	80045ba <I2C_WaitOnMasterAddressFlagUntilTimeout>
 80044f0:	4603      	mov	r3, r0
 80044f2:	2b00      	cmp	r3, #0
 80044f4:	d001      	beq.n	80044fa <I2C_MasterRequestRead+0x15a>
  {
    return HAL_ERROR;
 80044f6:	2301      	movs	r3, #1
 80044f8:	e000      	b.n	80044fc <I2C_MasterRequestRead+0x15c>
  }

  return HAL_OK;
 80044fa:	2300      	movs	r3, #0
}
 80044fc:	4618      	mov	r0, r3
 80044fe:	3718      	adds	r7, #24
 8004500:	46bd      	mov	sp, r7
 8004502:	bd80      	pop	{r7, pc}
 8004504:	00010008 	.word	0x00010008
 8004508:	00010002 	.word	0x00010002

0800450c <I2C_WaitOnFlagUntilTimeout>:
  * @param  Timeout Timeout duration
  * @param  Tickstart Tick start value
  * @retval HAL status
  */
static HAL_StatusTypeDef I2C_WaitOnFlagUntilTimeout(I2C_HandleTypeDef *hi2c, uint32_t Flag, FlagStatus Status, uint32_t Timeout, uint32_t Tickstart)
{
 800450c:	b580      	push	{r7, lr}
 800450e:	b084      	sub	sp, #16
 8004510:	af00      	add	r7, sp, #0
 8004512:	60f8      	str	r0, [r7, #12]
 8004514:	60b9      	str	r1, [r7, #8]
 8004516:	603b      	str	r3, [r7, #0]
 8004518:	4613      	mov	r3, r2
 800451a:	71fb      	strb	r3, [r7, #7]
  /* Wait until flag is set */
  while (__HAL_I2C_GET_FLAG(hi2c, Flag) == Status)
 800451c:	e025      	b.n	800456a <I2C_WaitOnFlagUntilTimeout+0x5e>
  {
    /* Check for the Timeout */
    if (Timeout != HAL_MAX_DELAY)
 800451e:	683b      	ldr	r3, [r7, #0]
 8004520:	f1b3 3fff 	cmp.w	r3, #4294967295
 8004524:	d021      	beq.n	800456a <I2C_WaitOnFlagUntilTimeout+0x5e>
    {
      if (((HAL_GetTick() - Tickstart) > Timeout) || (Timeout == 0U))
 8004526:	f7fd fe5f 	bl	80021e8 <HAL_GetTick>
 800452a:	4602      	mov	r2, r0
 800452c:	69bb      	ldr	r3, [r7, #24]
 800452e:	1ad3      	subs	r3, r2, r3
 8004530:	683a      	ldr	r2, [r7, #0]
 8004532:	429a      	cmp	r2, r3
 8004534:	d302      	bcc.n	800453c <I2C_WaitOnFlagUntilTimeout+0x30>
 8004536:	683b      	ldr	r3, [r7, #0]
 8004538:	2b00      	cmp	r3, #0
 800453a:	d116      	bne.n	800456a <I2C_WaitOnFlagUntilTimeout+0x5e>
      {
        hi2c->PreviousState     = I2C_STATE_NONE;
 800453c:	68fb      	ldr	r3, [r7, #12]
 800453e:	2200      	movs	r2, #0
 8004540:	631a      	str	r2, [r3, #48]	; 0x30
        hi2c->State             = HAL_I2C_STATE_READY;
 8004542:	68fb      	ldr	r3, [r7, #12]
 8004544:	2220      	movs	r2, #32
 8004546:	f883 203d 	strb.w	r2, [r3, #61]	; 0x3d
        hi2c->Mode              = HAL_I2C_MODE_NONE;
 800454a:	68fb      	ldr	r3, [r7, #12]
 800454c:	2200      	movs	r2, #0
 800454e:	f883 203e 	strb.w	r2, [r3, #62]	; 0x3e
        hi2c->ErrorCode         |= HAL_I2C_ERROR_TIMEOUT;
 8004552:	68fb      	ldr	r3, [r7, #12]
 8004554:	6c1b      	ldr	r3, [r3, #64]	; 0x40
 8004556:	f043 0220 	orr.w	r2, r3, #32
 800455a:	68fb      	ldr	r3, [r7, #12]
 800455c:	641a      	str	r2, [r3, #64]	; 0x40

        /* Process Unlocked */
        __HAL_UNLOCK(hi2c);
 800455e:	68fb      	ldr	r3, [r7, #12]
 8004560:	2200      	movs	r2, #0
 8004562:	f883 203c 	strb.w	r2, [r3, #60]	; 0x3c

        return HAL_ERROR;
 8004566:	2301      	movs	r3, #1
 8004568:	e023      	b.n	80045b2 <I2C_WaitOnFlagUntilTimeout+0xa6>
  while (__HAL_I2C_GET_FLAG(hi2c, Flag) == Status)
 800456a:	68bb      	ldr	r3, [r7, #8]
 800456c:	0c1b      	lsrs	r3, r3, #16
 800456e:	b2db      	uxtb	r3, r3
 8004570:	2b01      	cmp	r3, #1
 8004572:	d10d      	bne.n	8004590 <I2C_WaitOnFlagUntilTimeout+0x84>
 8004574:	68fb      	ldr	r3, [r7, #12]
 8004576:	681b      	ldr	r3, [r3, #0]
 8004578:	695b      	ldr	r3, [r3, #20]
 800457a:	43da      	mvns	r2, r3
 800457c:	68bb      	ldr	r3, [r7, #8]
 800457e:	4013      	ands	r3, r2
 8004580:	b29b      	uxth	r3, r3
 8004582:	2b00      	cmp	r3, #0
 8004584:	bf0c      	ite	eq
 8004586:	2301      	moveq	r3, #1
 8004588:	2300      	movne	r3, #0
 800458a:	b2db      	uxtb	r3, r3
 800458c:	461a      	mov	r2, r3
 800458e:	e00c      	b.n	80045aa <I2C_WaitOnFlagUntilTimeout+0x9e>
 8004590:	68fb      	ldr	r3, [r7, #12]
 8004592:	681b      	ldr	r3, [r3, #0]
 8004594:	699b      	ldr	r3, [r3, #24]
 8004596:	43da      	mvns	r2, r3
 8004598:	68bb      	ldr	r3, [r7, #8]
 800459a:	4013      	ands	r3, r2
 800459c:	b29b      	uxth	r3, r3
 800459e:	2b00      	cmp	r3, #0
 80045a0:	bf0c      	ite	eq
 80045a2:	2301      	moveq	r3, #1
 80045a4:	2300      	movne	r3, #0
 80045a6:	b2db      	uxtb	r3, r3
 80045a8:	461a      	mov	r2, r3
 80045aa:	79fb      	ldrb	r3, [r7, #7]
 80045ac:	429a      	cmp	r2, r3
 80045ae:	d0b6      	beq.n	800451e <I2C_WaitOnFlagUntilTimeout+0x12>
      }
    }
  }
  return HAL_OK;
 80045b0:	2300      	movs	r3, #0
}
 80045b2:	4618      	mov	r0, r3
 80045b4:	3710      	adds	r7, #16
 80045b6:	46bd      	mov	sp, r7
 80045b8:	bd80      	pop	{r7, pc}

080045ba <I2C_WaitOnMasterAddressFlagUntilTimeout>:
  * @param  Timeout Timeout duration
  * @param  Tickstart Tick start value
  * @retval HAL status
  */
static HAL_StatusTypeDef I2C_WaitOnMasterAddressFlagUntilTimeout(I2C_HandleTypeDef *hi2c, uint32_t Flag, uint32_t Timeout, uint32_t Tickstart)
{
 80045ba:	b580      	push	{r7, lr}
 80045bc:	b084      	sub	sp, #16
 80045be:	af00      	add	r7, sp, #0
 80045c0:	60f8      	str	r0, [r7, #12]
 80045c2:	60b9      	str	r1, [r7, #8]
 80045c4:	607a      	str	r2, [r7, #4]
 80045c6:	603b      	str	r3, [r7, #0]
  while (__HAL_I2C_GET_FLAG(hi2c, Flag) == RESET)
 80045c8:	e051      	b.n	800466e <I2C_WaitOnMasterAddressFlagUntilTimeout+0xb4>
  {
    if (__HAL_I2C_GET_FLAG(hi2c, I2C_FLAG_AF) == SET)
 80045ca:	68fb      	ldr	r3, [r7, #12]
 80045cc:	681b      	ldr	r3, [r3, #0]
 80045ce:	695b      	ldr	r3, [r3, #20]
 80045d0:	f403 6380 	and.w	r3, r3, #1024	; 0x400
 80045d4:	f5b3 6f80 	cmp.w	r3, #1024	; 0x400
 80045d8:	d123      	bne.n	8004622 <I2C_WaitOnMasterAddressFlagUntilTimeout+0x68>
    {
      /* Generate Stop */
      SET_BIT(hi2c->Instance->CR1, I2C_CR1_STOP);
 80045da:	68fb      	ldr	r3, [r7, #12]
 80045dc:	681b      	ldr	r3, [r3, #0]
 80045de:	681a      	ldr	r2, [r3, #0]
 80045e0:	68fb      	ldr	r3, [r7, #12]
 80045e2:	681b      	ldr	r3, [r3, #0]
 80045e4:	f442 7200 	orr.w	r2, r2, #512	; 0x200
 80045e8:	601a      	str	r2, [r3, #0]

      /* Clear AF Flag */
      __HAL_I2C_CLEAR_FLAG(hi2c, I2C_FLAG_AF);
 80045ea:	68fb      	ldr	r3, [r7, #12]
 80045ec:	681b      	ldr	r3, [r3, #0]
 80045ee:	f46f 6280 	mvn.w	r2, #1024	; 0x400
 80045f2:	615a      	str	r2, [r3, #20]

      hi2c->PreviousState       = I2C_STATE_NONE;
 80045f4:	68fb      	ldr	r3, [r7, #12]
 80045f6:	2200      	movs	r2, #0
 80045f8:	631a      	str	r2, [r3, #48]	; 0x30
      hi2c->State               = HAL_I2C_STATE_READY;
 80045fa:	68fb      	ldr	r3, [r7, #12]
 80045fc:	2220      	movs	r2, #32
 80045fe:	f883 203d 	strb.w	r2, [r3, #61]	; 0x3d
      hi2c->Mode                = HAL_I2C_MODE_NONE;
 8004602:	68fb      	ldr	r3, [r7, #12]
 8004604:	2200      	movs	r2, #0
 8004606:	f883 203e 	strb.w	r2, [r3, #62]	; 0x3e
      hi2c->ErrorCode           |= HAL_I2C_ERROR_AF;
 800460a:	68fb      	ldr	r3, [r7, #12]
 800460c:	6c1b      	ldr	r3, [r3, #64]	; 0x40
 800460e:	f043 0204 	orr.w	r2, r3, #4
 8004612:	68fb      	ldr	r3, [r7, #12]
 8004614:	641a      	str	r2, [r3, #64]	; 0x40

      /* Process Unlocked */
      __HAL_UNLOCK(hi2c);
 8004616:	68fb      	ldr	r3, [r7, #12]
 8004618:	2200      	movs	r2, #0
 800461a:	f883 203c 	strb.w	r2, [r3, #60]	; 0x3c

      return HAL_ERROR;
 800461e:	2301      	movs	r3, #1
 8004620:	e046      	b.n	80046b0 <I2C_WaitOnMasterAddressFlagUntilTimeout+0xf6>
    }

    /* Check for the Timeout */
    if (Timeout != HAL_MAX_DELAY)
 8004622:	687b      	ldr	r3, [r7, #4]
 8004624:	f1b3 3fff 	cmp.w	r3, #4294967295
 8004628:	d021      	beq.n	800466e <I2C_WaitOnMasterAddressFlagUntilTimeout+0xb4>
    {
      if (((HAL_GetTick() - Tickstart) > Timeout) || (Timeout == 0U))
 800462a:	f7fd fddd 	bl	80021e8 <HAL_GetTick>
 800462e:	4602      	mov	r2, r0
 8004630:	683b      	ldr	r3, [r7, #0]
 8004632:	1ad3      	subs	r3, r2, r3
 8004634:	687a      	ldr	r2, [r7, #4]
 8004636:	429a      	cmp	r2, r3
 8004638:	d302      	bcc.n	8004640 <I2C_WaitOnMasterAddressFlagUntilTimeout+0x86>
 800463a:	687b      	ldr	r3, [r7, #4]
 800463c:	2b00      	cmp	r3, #0
 800463e:	d116      	bne.n	800466e <I2C_WaitOnMasterAddressFlagUntilTimeout+0xb4>
      {
        hi2c->PreviousState       = I2C_STATE_NONE;
 8004640:	68fb      	ldr	r3, [r7, #12]
 8004642:	2200      	movs	r2, #0
 8004644:	631a      	str	r2, [r3, #48]	; 0x30
        hi2c->State               = HAL_I2C_STATE_READY;
 8004646:	68fb      	ldr	r3, [r7, #12]
 8004648:	2220      	movs	r2, #32
 800464a:	f883 203d 	strb.w	r2, [r3, #61]	; 0x3d
        hi2c->Mode                = HAL_I2C_MODE_NONE;
 800464e:	68fb      	ldr	r3, [r7, #12]
 8004650:	2200      	movs	r2, #0
 8004652:	f883 203e 	strb.w	r2, [r3, #62]	; 0x3e
        hi2c->ErrorCode           |= HAL_I2C_ERROR_TIMEOUT;
 8004656:	68fb      	ldr	r3, [r7, #12]
 8004658:	6c1b      	ldr	r3, [r3, #64]	; 0x40
 800465a:	f043 0220 	orr.w	r2, r3, #32
 800465e:	68fb      	ldr	r3, [r7, #12]
 8004660:	641a      	str	r2, [r3, #64]	; 0x40

        /* Process Unlocked */
        __HAL_UNLOCK(hi2c);
 8004662:	68fb      	ldr	r3, [r7, #12]
 8004664:	2200      	movs	r2, #0
 8004666:	f883 203c 	strb.w	r2, [r3, #60]	; 0x3c

        return HAL_ERROR;
 800466a:	2301      	movs	r3, #1
 800466c:	e020      	b.n	80046b0 <I2C_WaitOnMasterAddressFlagUntilTimeout+0xf6>
  while (__HAL_I2C_GET_FLAG(hi2c, Flag) == RESET)
 800466e:	68bb      	ldr	r3, [r7, #8]
 8004670:	0c1b      	lsrs	r3, r3, #16
 8004672:	b2db      	uxtb	r3, r3
 8004674:	2b01      	cmp	r3, #1
 8004676:	d10c      	bne.n	8004692 <I2C_WaitOnMasterAddressFlagUntilTimeout+0xd8>
 8004678:	68fb      	ldr	r3, [r7, #12]
 800467a:	681b      	ldr	r3, [r3, #0]
 800467c:	695b      	ldr	r3, [r3, #20]
 800467e:	43da      	mvns	r2, r3
 8004680:	68bb      	ldr	r3, [r7, #8]
 8004682:	4013      	ands	r3, r2
 8004684:	b29b      	uxth	r3, r3
 8004686:	2b00      	cmp	r3, #0
 8004688:	bf14      	ite	ne
 800468a:	2301      	movne	r3, #1
 800468c:	2300      	moveq	r3, #0
 800468e:	b2db      	uxtb	r3, r3
 8004690:	e00b      	b.n	80046aa <I2C_WaitOnMasterAddressFlagUntilTimeout+0xf0>
 8004692:	68fb      	ldr	r3, [r7, #12]
 8004694:	681b      	ldr	r3, [r3, #0]
 8004696:	699b      	ldr	r3, [r3, #24]
 8004698:	43da      	mvns	r2, r3
 800469a:	68bb      	ldr	r3, [r7, #8]
 800469c:	4013      	ands	r3, r2
 800469e:	b29b      	uxth	r3, r3
 80046a0:	2b00      	cmp	r3, #0
 80046a2:	bf14      	ite	ne
 80046a4:	2301      	movne	r3, #1
 80046a6:	2300      	moveq	r3, #0
 80046a8:	b2db      	uxtb	r3, r3
 80046aa:	2b00      	cmp	r3, #0
 80046ac:	d18d      	bne.n	80045ca <I2C_WaitOnMasterAddressFlagUntilTimeout+0x10>
      }
    }
  }
  return HAL_OK;
 80046ae:	2300      	movs	r3, #0
}
 80046b0:	4618      	mov	r0, r3
 80046b2:	3710      	adds	r7, #16
 80046b4:	46bd      	mov	sp, r7
 80046b6:	bd80      	pop	{r7, pc}

080046b8 <I2C_WaitOnRXNEFlagUntilTimeout>:
  * @param  Timeout Timeout duration
  * @param  Tickstart Tick start value
  * @retval HAL status
  */
static HAL_StatusTypeDef I2C_WaitOnRXNEFlagUntilTimeout(I2C_HandleTypeDef *hi2c, uint32_t Timeout, uint32_t Tickstart)
{
 80046b8:	b580      	push	{r7, lr}
 80046ba:	b084      	sub	sp, #16
 80046bc:	af00      	add	r7, sp, #0
 80046be:	60f8      	str	r0, [r7, #12]
 80046c0:	60b9      	str	r1, [r7, #8]
 80046c2:	607a      	str	r2, [r7, #4]

  while (__HAL_I2C_GET_FLAG(hi2c, I2C_FLAG_RXNE) == RESET)
 80046c4:	e042      	b.n	800474c <I2C_WaitOnRXNEFlagUntilTimeout+0x94>
  {
    /* Check if a STOPF is detected */
    if (__HAL_I2C_GET_FLAG(hi2c, I2C_FLAG_STOPF) == SET)
 80046c6:	68fb      	ldr	r3, [r7, #12]
 80046c8:	681b      	ldr	r3, [r3, #0]
 80046ca:	695b      	ldr	r3, [r3, #20]
 80046cc:	f003 0310 	and.w	r3, r3, #16
 80046d0:	2b10      	cmp	r3, #16
 80046d2:	d119      	bne.n	8004708 <I2C_WaitOnRXNEFlagUntilTimeout+0x50>
    {
      /* Clear STOP Flag */
      __HAL_I2C_CLEAR_FLAG(hi2c, I2C_FLAG_STOPF);
 80046d4:	68fb      	ldr	r3, [r7, #12]
 80046d6:	681b      	ldr	r3, [r3, #0]
 80046d8:	f06f 0210 	mvn.w	r2, #16
 80046dc:	615a      	str	r2, [r3, #20]

      hi2c->PreviousState       = I2C_STATE_NONE;
 80046de:	68fb      	ldr	r3, [r7, #12]
 80046e0:	2200      	movs	r2, #0
 80046e2:	631a      	str	r2, [r3, #48]	; 0x30
      hi2c->State               = HAL_I2C_STATE_READY;
 80046e4:	68fb      	ldr	r3, [r7, #12]
 80046e6:	2220      	movs	r2, #32
 80046e8:	f883 203d 	strb.w	r2, [r3, #61]	; 0x3d
      hi2c->Mode                = HAL_I2C_MODE_NONE;
 80046ec:	68fb      	ldr	r3, [r7, #12]
 80046ee:	2200      	movs	r2, #0
 80046f0:	f883 203e 	strb.w	r2, [r3, #62]	; 0x3e
      hi2c->ErrorCode           |= HAL_I2C_ERROR_NONE;
 80046f4:	68fb      	ldr	r3, [r7, #12]
 80046f6:	6c1a      	ldr	r2, [r3, #64]	; 0x40
 80046f8:	68fb      	ldr	r3, [r7, #12]
 80046fa:	641a      	str	r2, [r3, #64]	; 0x40

      /* Process Unlocked */
      __HAL_UNLOCK(hi2c);
 80046fc:	68fb      	ldr	r3, [r7, #12]
 80046fe:	2200      	movs	r2, #0
 8004700:	f883 203c 	strb.w	r2, [r3, #60]	; 0x3c

      return HAL_ERROR;
 8004704:	2301      	movs	r3, #1
 8004706:	e029      	b.n	800475c <I2C_WaitOnRXNEFlagUntilTimeout+0xa4>
    }

    /* Check for the Timeout */
    if (((HAL_GetTick() - Tickstart) > Timeout) || (Timeout == 0U))
 8004708:	f7fd fd6e 	bl	80021e8 <HAL_GetTick>
 800470c:	4602      	mov	r2, r0
 800470e:	687b      	ldr	r3, [r7, #4]
 8004710:	1ad3      	subs	r3, r2, r3
 8004712:	68ba      	ldr	r2, [r7, #8]
 8004714:	429a      	cmp	r2, r3
 8004716:	d302      	bcc.n	800471e <I2C_WaitOnRXNEFlagUntilTimeout+0x66>
 8004718:	68bb      	ldr	r3, [r7, #8]
 800471a:	2b00      	cmp	r3, #0
 800471c:	d116      	bne.n	800474c <I2C_WaitOnRXNEFlagUntilTimeout+0x94>
    {
      hi2c->PreviousState       = I2C_STATE_NONE;
 800471e:	68fb      	ldr	r3, [r7, #12]
 8004720:	2200      	movs	r2, #0
 8004722:	631a      	str	r2, [r3, #48]	; 0x30
      hi2c->State               = HAL_I2C_STATE_READY;
 8004724:	68fb      	ldr	r3, [r7, #12]
 8004726:	2220      	movs	r2, #32
 8004728:	f883 203d 	strb.w	r2, [r3, #61]	; 0x3d
      hi2c->Mode                = HAL_I2C_MODE_NONE;
 800472c:	68fb      	ldr	r3, [r7, #12]
 800472e:	2200      	movs	r2, #0
 8004730:	f883 203e 	strb.w	r2, [r3, #62]	; 0x3e
      hi2c->ErrorCode           |= HAL_I2C_ERROR_TIMEOUT;
 8004734:	68fb      	ldr	r3, [r7, #12]
 8004736:	6c1b      	ldr	r3, [r3, #64]	; 0x40
 8004738:	f043 0220 	orr.w	r2, r3, #32
 800473c:	68fb      	ldr	r3, [r7, #12]
 800473e:	641a      	str	r2, [r3, #64]	; 0x40

      /* Process Unlocked */
      __HAL_UNLOCK(hi2c);
 8004740:	68fb      	ldr	r3, [r7, #12]
 8004742:	2200      	movs	r2, #0
 8004744:	f883 203c 	strb.w	r2, [r3, #60]	; 0x3c

      return HAL_ERROR;
 8004748:	2301      	movs	r3, #1
 800474a:	e007      	b.n	800475c <I2C_WaitOnRXNEFlagUntilTimeout+0xa4>
  while (__HAL_I2C_GET_FLAG(hi2c, I2C_FLAG_RXNE) == RESET)
 800474c:	68fb      	ldr	r3, [r7, #12]
 800474e:	681b      	ldr	r3, [r3, #0]
 8004750:	695b      	ldr	r3, [r3, #20]
 8004752:	f003 0340 	and.w	r3, r3, #64	; 0x40
 8004756:	2b40      	cmp	r3, #64	; 0x40
 8004758:	d1b5      	bne.n	80046c6 <I2C_WaitOnRXNEFlagUntilTimeout+0xe>
    }
  }
  return HAL_OK;
 800475a:	2300      	movs	r3, #0
}
 800475c:	4618      	mov	r0, r3
 800475e:	3710      	adds	r7, #16
 8004760:	46bd      	mov	sp, r7
 8004762:	bd80      	pop	{r7, pc}

08004764 <HAL_RCC_OscConfig>:
  *         supported by this macro. User should request a transition to HSE Off
  *         first and then HSE On or HSE Bypass.
  * @retval HAL status
  */
HAL_StatusTypeDef HAL_RCC_OscConfig(RCC_OscInitTypeDef  *RCC_OscInitStruct)
{
 8004764:	b580      	push	{r7, lr}
 8004766:	b086      	sub	sp, #24
 8004768:	af00      	add	r7, sp, #0
 800476a:	6078      	str	r0, [r7, #4]
  uint32_t tickstart;
  uint32_t pll_config;

  /* Check Null pointer */
  if (RCC_OscInitStruct == NULL)
 800476c:	687b      	ldr	r3, [r7, #4]
 800476e:	2b00      	cmp	r3, #0
 8004770:	d101      	bne.n	8004776 <HAL_RCC_OscConfig+0x12>
  {
    return HAL_ERROR;
 8004772:	2301      	movs	r3, #1
 8004774:	e26c      	b.n	8004c50 <HAL_RCC_OscConfig+0x4ec>

  /* Check the parameters */
  assert_param(IS_RCC_OSCILLATORTYPE(RCC_OscInitStruct->OscillatorType));

  /*------------------------------- HSE Configuration ------------------------*/
  if (((RCC_OscInitStruct->OscillatorType) & RCC_OSCILLATORTYPE_HSE) == RCC_OSCILLATORTYPE_HSE)
 8004776:	687b      	ldr	r3, [r7, #4]
 8004778:	681b      	ldr	r3, [r3, #0]
 800477a:	f003 0301 	and.w	r3, r3, #1
 800477e:	2b00      	cmp	r3, #0
 8004780:	f000 8087 	beq.w	8004892 <HAL_RCC_OscConfig+0x12e>
  {
    /* Check the parameters */
    assert_param(IS_RCC_HSE(RCC_OscInitStruct->HSEState));

    /* When the HSE is used as system clock or clock source for PLL in these cases it is not allowed to be disabled */
    if ((__HAL_RCC_GET_SYSCLK_SOURCE() == RCC_SYSCLKSOURCE_STATUS_HSE)
 8004784:	4b92      	ldr	r3, [pc, #584]	; (80049d0 <HAL_RCC_OscConfig+0x26c>)
 8004786:	685b      	ldr	r3, [r3, #4]
 8004788:	f003 030c 	and.w	r3, r3, #12
 800478c:	2b04      	cmp	r3, #4
 800478e:	d00c      	beq.n	80047aa <HAL_RCC_OscConfig+0x46>
        || ((__HAL_RCC_GET_SYSCLK_SOURCE() == RCC_SYSCLKSOURCE_STATUS_PLLCLK) && (__HAL_RCC_GET_PLL_OSCSOURCE() == RCC_PLLSOURCE_HSE)))
 8004790:	4b8f      	ldr	r3, [pc, #572]	; (80049d0 <HAL_RCC_OscConfig+0x26c>)
 8004792:	685b      	ldr	r3, [r3, #4]
 8004794:	f003 030c 	and.w	r3, r3, #12
 8004798:	2b08      	cmp	r3, #8
 800479a:	d112      	bne.n	80047c2 <HAL_RCC_OscConfig+0x5e>
 800479c:	4b8c      	ldr	r3, [pc, #560]	; (80049d0 <HAL_RCC_OscConfig+0x26c>)
 800479e:	685b      	ldr	r3, [r3, #4]
 80047a0:	f403 3380 	and.w	r3, r3, #65536	; 0x10000
 80047a4:	f5b3 3f80 	cmp.w	r3, #65536	; 0x10000
 80047a8:	d10b      	bne.n	80047c2 <HAL_RCC_OscConfig+0x5e>
    {
      if ((__HAL_RCC_GET_FLAG(RCC_FLAG_HSERDY) != RESET) && (RCC_OscInitStruct->HSEState == RCC_HSE_OFF))
 80047aa:	4b89      	ldr	r3, [pc, #548]	; (80049d0 <HAL_RCC_OscConfig+0x26c>)
 80047ac:	681b      	ldr	r3, [r3, #0]
 80047ae:	f403 3300 	and.w	r3, r3, #131072	; 0x20000
 80047b2:	2b00      	cmp	r3, #0
 80047b4:	d06c      	beq.n	8004890 <HAL_RCC_OscConfig+0x12c>
 80047b6:	687b      	ldr	r3, [r7, #4]
 80047b8:	685b      	ldr	r3, [r3, #4]
 80047ba:	2b00      	cmp	r3, #0
 80047bc:	d168      	bne.n	8004890 <HAL_RCC_OscConfig+0x12c>
      {
        return HAL_ERROR;
 80047be:	2301      	movs	r3, #1
 80047c0:	e246      	b.n	8004c50 <HAL_RCC_OscConfig+0x4ec>
      }
    }
    else
    {
      /* Set the new HSE configuration ---------------------------------------*/
      __HAL_RCC_HSE_CONFIG(RCC_OscInitStruct->HSEState);
 80047c2:	687b      	ldr	r3, [r7, #4]
 80047c4:	685b      	ldr	r3, [r3, #4]
 80047c6:	f5b3 3f80 	cmp.w	r3, #65536	; 0x10000
 80047ca:	d106      	bne.n	80047da <HAL_RCC_OscConfig+0x76>
 80047cc:	4b80      	ldr	r3, [pc, #512]	; (80049d0 <HAL_RCC_OscConfig+0x26c>)
 80047ce:	681b      	ldr	r3, [r3, #0]
 80047d0:	4a7f      	ldr	r2, [pc, #508]	; (80049d0 <HAL_RCC_OscConfig+0x26c>)
 80047d2:	f443 3380 	orr.w	r3, r3, #65536	; 0x10000
 80047d6:	6013      	str	r3, [r2, #0]
 80047d8:	e02e      	b.n	8004838 <HAL_RCC_OscConfig+0xd4>
 80047da:	687b      	ldr	r3, [r7, #4]
 80047dc:	685b      	ldr	r3, [r3, #4]
 80047de:	2b00      	cmp	r3, #0
 80047e0:	d10c      	bne.n	80047fc <HAL_RCC_OscConfig+0x98>
 80047e2:	4b7b      	ldr	r3, [pc, #492]	; (80049d0 <HAL_RCC_OscConfig+0x26c>)
 80047e4:	681b      	ldr	r3, [r3, #0]
 80047e6:	4a7a      	ldr	r2, [pc, #488]	; (80049d0 <HAL_RCC_OscConfig+0x26c>)
 80047e8:	f423 3380 	bic.w	r3, r3, #65536	; 0x10000
 80047ec:	6013      	str	r3, [r2, #0]
 80047ee:	4b78      	ldr	r3, [pc, #480]	; (80049d0 <HAL_RCC_OscConfig+0x26c>)
 80047f0:	681b      	ldr	r3, [r3, #0]
 80047f2:	4a77      	ldr	r2, [pc, #476]	; (80049d0 <HAL_RCC_OscConfig+0x26c>)
 80047f4:	f423 2380 	bic.w	r3, r3, #262144	; 0x40000
 80047f8:	6013      	str	r3, [r2, #0]
 80047fa:	e01d      	b.n	8004838 <HAL_RCC_OscConfig+0xd4>
 80047fc:	687b      	ldr	r3, [r7, #4]
 80047fe:	685b      	ldr	r3, [r3, #4]
 8004800:	f5b3 2fa0 	cmp.w	r3, #327680	; 0x50000
 8004804:	d10c      	bne.n	8004820 <HAL_RCC_OscConfig+0xbc>
 8004806:	4b72      	ldr	r3, [pc, #456]	; (80049d0 <HAL_RCC_OscConfig+0x26c>)
 8004808:	681b      	ldr	r3, [r3, #0]
 800480a:	4a71      	ldr	r2, [pc, #452]	; (80049d0 <HAL_RCC_OscConfig+0x26c>)
 800480c:	f443 2380 	orr.w	r3, r3, #262144	; 0x40000
 8004810:	6013      	str	r3, [r2, #0]
 8004812:	4b6f      	ldr	r3, [pc, #444]	; (80049d0 <HAL_RCC_OscConfig+0x26c>)
 8004814:	681b      	ldr	r3, [r3, #0]
 8004816:	4a6e      	ldr	r2, [pc, #440]	; (80049d0 <HAL_RCC_OscConfig+0x26c>)
 8004818:	f443 3380 	orr.w	r3, r3, #65536	; 0x10000
 800481c:	6013      	str	r3, [r2, #0]
 800481e:	e00b      	b.n	8004838 <HAL_RCC_OscConfig+0xd4>
 8004820:	4b6b      	ldr	r3, [pc, #428]	; (80049d0 <HAL_RCC_OscConfig+0x26c>)
 8004822:	681b      	ldr	r3, [r3, #0]
 8004824:	4a6a      	ldr	r2, [pc, #424]	; (80049d0 <HAL_RCC_OscConfig+0x26c>)
 8004826:	f423 3380 	bic.w	r3, r3, #65536	; 0x10000
 800482a:	6013      	str	r3, [r2, #0]
 800482c:	4b68      	ldr	r3, [pc, #416]	; (80049d0 <HAL_RCC_OscConfig+0x26c>)
 800482e:	681b      	ldr	r3, [r3, #0]
 8004830:	4a67      	ldr	r2, [pc, #412]	; (80049d0 <HAL_RCC_OscConfig+0x26c>)
 8004832:	f423 2380 	bic.w	r3, r3, #262144	; 0x40000
 8004836:	6013      	str	r3, [r2, #0]


      /* Check the HSE State */
      if (RCC_OscInitStruct->HSEState != RCC_HSE_OFF)
 8004838:	687b      	ldr	r3, [r7, #4]
 800483a:	685b      	ldr	r3, [r3, #4]
 800483c:	2b00      	cmp	r3, #0
 800483e:	d013      	beq.n	8004868 <HAL_RCC_OscConfig+0x104>
      {
        /* Get Start Tick */
        tickstart = HAL_GetTick();
 8004840:	f7fd fcd2 	bl	80021e8 <HAL_GetTick>
 8004844:	6138      	str	r0, [r7, #16]

        /* Wait till HSE is ready */
        while (__HAL_RCC_GET_FLAG(RCC_FLAG_HSERDY) == RESET)
 8004846:	e008      	b.n	800485a <HAL_RCC_OscConfig+0xf6>
        {
          if ((HAL_GetTick() - tickstart) > HSE_TIMEOUT_VALUE)
 8004848:	f7fd fcce 	bl	80021e8 <HAL_GetTick>
 800484c:	4602      	mov	r2, r0
 800484e:	693b      	ldr	r3, [r7, #16]
 8004850:	1ad3      	subs	r3, r2, r3
 8004852:	2b64      	cmp	r3, #100	; 0x64
 8004854:	d901      	bls.n	800485a <HAL_RCC_OscConfig+0xf6>
          {
            return HAL_TIMEOUT;
 8004856:	2303      	movs	r3, #3
 8004858:	e1fa      	b.n	8004c50 <HAL_RCC_OscConfig+0x4ec>
        while (__HAL_RCC_GET_FLAG(RCC_FLAG_HSERDY) == RESET)
 800485a:	4b5d      	ldr	r3, [pc, #372]	; (80049d0 <HAL_RCC_OscConfig+0x26c>)
 800485c:	681b      	ldr	r3, [r3, #0]
 800485e:	f403 3300 	and.w	r3, r3, #131072	; 0x20000
 8004862:	2b00      	cmp	r3, #0
 8004864:	d0f0      	beq.n	8004848 <HAL_RCC_OscConfig+0xe4>
 8004866:	e014      	b.n	8004892 <HAL_RCC_OscConfig+0x12e>
        }
      }
      else
      {
        /* Get Start Tick */
        tickstart = HAL_GetTick();
 8004868:	f7fd fcbe 	bl	80021e8 <HAL_GetTick>
 800486c:	6138      	str	r0, [r7, #16]

        /* Wait till HSE is disabled */
        while (__HAL_RCC_GET_FLAG(RCC_FLAG_HSERDY) != RESET)
 800486e:	e008      	b.n	8004882 <HAL_RCC_OscConfig+0x11e>
        {
          if ((HAL_GetTick() - tickstart) > HSE_TIMEOUT_VALUE)
 8004870:	f7fd fcba 	bl	80021e8 <HAL_GetTick>
 8004874:	4602      	mov	r2, r0
 8004876:	693b      	ldr	r3, [r7, #16]
 8004878:	1ad3      	subs	r3, r2, r3
 800487a:	2b64      	cmp	r3, #100	; 0x64
 800487c:	d901      	bls.n	8004882 <HAL_RCC_OscConfig+0x11e>
          {
            return HAL_TIMEOUT;
 800487e:	2303      	movs	r3, #3
 8004880:	e1e6      	b.n	8004c50 <HAL_RCC_OscConfig+0x4ec>
        while (__HAL_RCC_GET_FLAG(RCC_FLAG_HSERDY) != RESET)
 8004882:	4b53      	ldr	r3, [pc, #332]	; (80049d0 <HAL_RCC_OscConfig+0x26c>)
 8004884:	681b      	ldr	r3, [r3, #0]
 8004886:	f403 3300 	and.w	r3, r3, #131072	; 0x20000
 800488a:	2b00      	cmp	r3, #0
 800488c:	d1f0      	bne.n	8004870 <HAL_RCC_OscConfig+0x10c>
 800488e:	e000      	b.n	8004892 <HAL_RCC_OscConfig+0x12e>
      if ((__HAL_RCC_GET_FLAG(RCC_FLAG_HSERDY) != RESET) && (RCC_OscInitStruct->HSEState == RCC_HSE_OFF))
 8004890:	bf00      	nop
        }
      }
    }
  }
  /*----------------------------- HSI Configuration --------------------------*/
  if (((RCC_OscInitStruct->OscillatorType) & RCC_OSCILLATORTYPE_HSI) == RCC_OSCILLATORTYPE_HSI)
 8004892:	687b      	ldr	r3, [r7, #4]
 8004894:	681b      	ldr	r3, [r3, #0]
 8004896:	f003 0302 	and.w	r3, r3, #2
 800489a:	2b00      	cmp	r3, #0
 800489c:	d063      	beq.n	8004966 <HAL_RCC_OscConfig+0x202>
    /* Check the parameters */
    assert_param(IS_RCC_HSI(RCC_OscInitStruct->HSIState));
    assert_param(IS_RCC_CALIBRATION_VALUE(RCC_OscInitStruct->HSICalibrationValue));

    /* Check if HSI is used as system clock or as PLL source when PLL is selected as system clock */
    if ((__HAL_RCC_GET_SYSCLK_SOURCE() == RCC_SYSCLKSOURCE_STATUS_HSI)
 800489e:	4b4c      	ldr	r3, [pc, #304]	; (80049d0 <HAL_RCC_OscConfig+0x26c>)
 80048a0:	685b      	ldr	r3, [r3, #4]
 80048a2:	f003 030c 	and.w	r3, r3, #12
 80048a6:	2b00      	cmp	r3, #0
 80048a8:	d00b      	beq.n	80048c2 <HAL_RCC_OscConfig+0x15e>
        || ((__HAL_RCC_GET_SYSCLK_SOURCE() == RCC_SYSCLKSOURCE_STATUS_PLLCLK) && (__HAL_RCC_GET_PLL_OSCSOURCE() == RCC_PLLSOURCE_HSI_DIV2)))
 80048aa:	4b49      	ldr	r3, [pc, #292]	; (80049d0 <HAL_RCC_OscConfig+0x26c>)
 80048ac:	685b      	ldr	r3, [r3, #4]
 80048ae:	f003 030c 	and.w	r3, r3, #12
 80048b2:	2b08      	cmp	r3, #8
 80048b4:	d11c      	bne.n	80048f0 <HAL_RCC_OscConfig+0x18c>
 80048b6:	4b46      	ldr	r3, [pc, #280]	; (80049d0 <HAL_RCC_OscConfig+0x26c>)
 80048b8:	685b      	ldr	r3, [r3, #4]
 80048ba:	f403 3380 	and.w	r3, r3, #65536	; 0x10000
 80048be:	2b00      	cmp	r3, #0
 80048c0:	d116      	bne.n	80048f0 <HAL_RCC_OscConfig+0x18c>
    {
      /* When HSI is used as system clock it will not disabled */
      if ((__HAL_RCC_GET_FLAG(RCC_FLAG_HSIRDY) != RESET) && (RCC_OscInitStruct->HSIState != RCC_HSI_ON))
 80048c2:	4b43      	ldr	r3, [pc, #268]	; (80049d0 <HAL_RCC_OscConfig+0x26c>)
 80048c4:	681b      	ldr	r3, [r3, #0]
 80048c6:	f003 0302 	and.w	r3, r3, #2
 80048ca:	2b00      	cmp	r3, #0
 80048cc:	d005      	beq.n	80048da <HAL_RCC_OscConfig+0x176>
 80048ce:	687b      	ldr	r3, [r7, #4]
 80048d0:	691b      	ldr	r3, [r3, #16]
 80048d2:	2b01      	cmp	r3, #1
 80048d4:	d001      	beq.n	80048da <HAL_RCC_OscConfig+0x176>
      {
        return HAL_ERROR;
 80048d6:	2301      	movs	r3, #1
 80048d8:	e1ba      	b.n	8004c50 <HAL_RCC_OscConfig+0x4ec>
      }
      /* Otherwise, just the calibration is allowed */
      else
      {
        /* Adjusts the Internal High Speed oscillator (HSI) calibration value.*/
        __HAL_RCC_HSI_CALIBRATIONVALUE_ADJUST(RCC_OscInitStruct->HSICalibrationValue);
 80048da:	4b3d      	ldr	r3, [pc, #244]	; (80049d0 <HAL_RCC_OscConfig+0x26c>)
 80048dc:	681b      	ldr	r3, [r3, #0]
 80048de:	f023 02f8 	bic.w	r2, r3, #248	; 0xf8
 80048e2:	687b      	ldr	r3, [r7, #4]
 80048e4:	695b      	ldr	r3, [r3, #20]
 80048e6:	00db      	lsls	r3, r3, #3
 80048e8:	4939      	ldr	r1, [pc, #228]	; (80049d0 <HAL_RCC_OscConfig+0x26c>)
 80048ea:	4313      	orrs	r3, r2
 80048ec:	600b      	str	r3, [r1, #0]
      if ((__HAL_RCC_GET_FLAG(RCC_FLAG_HSIRDY) != RESET) && (RCC_OscInitStruct->HSIState != RCC_HSI_ON))
 80048ee:	e03a      	b.n	8004966 <HAL_RCC_OscConfig+0x202>
      }
    }
    else
    {
      /* Check the HSI State */
      if (RCC_OscInitStruct->HSIState != RCC_HSI_OFF)
 80048f0:	687b      	ldr	r3, [r7, #4]
 80048f2:	691b      	ldr	r3, [r3, #16]
 80048f4:	2b00      	cmp	r3, #0
 80048f6:	d020      	beq.n	800493a <HAL_RCC_OscConfig+0x1d6>
      {
        /* Enable the Internal High Speed oscillator (HSI). */
        __HAL_RCC_HSI_ENABLE();
 80048f8:	4b36      	ldr	r3, [pc, #216]	; (80049d4 <HAL_RCC_OscConfig+0x270>)
 80048fa:	2201      	movs	r2, #1
 80048fc:	601a      	str	r2, [r3, #0]

        /* Get Start Tick */
        tickstart = HAL_GetTick();
 80048fe:	f7fd fc73 	bl	80021e8 <HAL_GetTick>
 8004902:	6138      	str	r0, [r7, #16]

        /* Wait till HSI is ready */
        while (__HAL_RCC_GET_FLAG(RCC_FLAG_HSIRDY) == RESET)
 8004904:	e008      	b.n	8004918 <HAL_RCC_OscConfig+0x1b4>
        {
          if ((HAL_GetTick() - tickstart) > HSI_TIMEOUT_VALUE)
 8004906:	f7fd fc6f 	bl	80021e8 <HAL_GetTick>
 800490a:	4602      	mov	r2, r0
 800490c:	693b      	ldr	r3, [r7, #16]
 800490e:	1ad3      	subs	r3, r2, r3
 8004910:	2b02      	cmp	r3, #2
 8004912:	d901      	bls.n	8004918 <HAL_RCC_OscConfig+0x1b4>
          {
            return HAL_TIMEOUT;
 8004914:	2303      	movs	r3, #3
 8004916:	e19b      	b.n	8004c50 <HAL_RCC_OscConfig+0x4ec>
        while (__HAL_RCC_GET_FLAG(RCC_FLAG_HSIRDY) == RESET)
 8004918:	4b2d      	ldr	r3, [pc, #180]	; (80049d0 <HAL_RCC_OscConfig+0x26c>)
 800491a:	681b      	ldr	r3, [r3, #0]
 800491c:	f003 0302 	and.w	r3, r3, #2
 8004920:	2b00      	cmp	r3, #0
 8004922:	d0f0      	beq.n	8004906 <HAL_RCC_OscConfig+0x1a2>
          }
        }

        /* Adjusts the Internal High Speed oscillator (HSI) calibration value.*/
        __HAL_RCC_HSI_CALIBRATIONVALUE_ADJUST(RCC_OscInitStruct->HSICalibrationValue);
 8004924:	4b2a      	ldr	r3, [pc, #168]	; (80049d0 <HAL_RCC_OscConfig+0x26c>)
 8004926:	681b      	ldr	r3, [r3, #0]
 8004928:	f023 02f8 	bic.w	r2, r3, #248	; 0xf8
 800492c:	687b      	ldr	r3, [r7, #4]
 800492e:	695b      	ldr	r3, [r3, #20]
 8004930:	00db      	lsls	r3, r3, #3
 8004932:	4927      	ldr	r1, [pc, #156]	; (80049d0 <HAL_RCC_OscConfig+0x26c>)
 8004934:	4313      	orrs	r3, r2
 8004936:	600b      	str	r3, [r1, #0]
 8004938:	e015      	b.n	8004966 <HAL_RCC_OscConfig+0x202>
      }
      else
      {
        /* Disable the Internal High Speed oscillator (HSI). */
        __HAL_RCC_HSI_DISABLE();
 800493a:	4b26      	ldr	r3, [pc, #152]	; (80049d4 <HAL_RCC_OscConfig+0x270>)
 800493c:	2200      	movs	r2, #0
 800493e:	601a      	str	r2, [r3, #0]

        /* Get Start Tick */
        tickstart = HAL_GetTick();
 8004940:	f7fd fc52 	bl	80021e8 <HAL_GetTick>
 8004944:	6138      	str	r0, [r7, #16]

        /* Wait till HSI is disabled */
        while (__HAL_RCC_GET_FLAG(RCC_FLAG_HSIRDY) != RESET)
 8004946:	e008      	b.n	800495a <HAL_RCC_OscConfig+0x1f6>
        {
          if ((HAL_GetTick() - tickstart) > HSI_TIMEOUT_VALUE)
 8004948:	f7fd fc4e 	bl	80021e8 <HAL_GetTick>
 800494c:	4602      	mov	r2, r0
 800494e:	693b      	ldr	r3, [r7, #16]
 8004950:	1ad3      	subs	r3, r2, r3
 8004952:	2b02      	cmp	r3, #2
 8004954:	d901      	bls.n	800495a <HAL_RCC_OscConfig+0x1f6>
          {
            return HAL_TIMEOUT;
 8004956:	2303      	movs	r3, #3
 8004958:	e17a      	b.n	8004c50 <HAL_RCC_OscConfig+0x4ec>
        while (__HAL_RCC_GET_FLAG(RCC_FLAG_HSIRDY) != RESET)
 800495a:	4b1d      	ldr	r3, [pc, #116]	; (80049d0 <HAL_RCC_OscConfig+0x26c>)
 800495c:	681b      	ldr	r3, [r3, #0]
 800495e:	f003 0302 	and.w	r3, r3, #2
 8004962:	2b00      	cmp	r3, #0
 8004964:	d1f0      	bne.n	8004948 <HAL_RCC_OscConfig+0x1e4>
        }
      }
    }
  }
  /*------------------------------ LSI Configuration -------------------------*/
  if (((RCC_OscInitStruct->OscillatorType) & RCC_OSCILLATORTYPE_LSI) == RCC_OSCILLATORTYPE_LSI)
 8004966:	687b      	ldr	r3, [r7, #4]
 8004968:	681b      	ldr	r3, [r3, #0]
 800496a:	f003 0308 	and.w	r3, r3, #8
 800496e:	2b00      	cmp	r3, #0
 8004970:	d03a      	beq.n	80049e8 <HAL_RCC_OscConfig+0x284>
  {
    /* Check the parameters */
    assert_param(IS_RCC_LSI(RCC_OscInitStruct->LSIState));

    /* Check the LSI State */
    if (RCC_OscInitStruct->LSIState != RCC_LSI_OFF)
 8004972:	687b      	ldr	r3, [r7, #4]
 8004974:	699b      	ldr	r3, [r3, #24]
 8004976:	2b00      	cmp	r3, #0
 8004978:	d019      	beq.n	80049ae <HAL_RCC_OscConfig+0x24a>
    {
      /* Enable the Internal Low Speed oscillator (LSI). */
      __HAL_RCC_LSI_ENABLE();
 800497a:	4b17      	ldr	r3, [pc, #92]	; (80049d8 <HAL_RCC_OscConfig+0x274>)
 800497c:	2201      	movs	r2, #1
 800497e:	601a      	str	r2, [r3, #0]

      /* Get Start Tick */
      tickstart = HAL_GetTick();
 8004980:	f7fd fc32 	bl	80021e8 <HAL_GetTick>
 8004984:	6138      	str	r0, [r7, #16]

      /* Wait till LSI is ready */
      while (__HAL_RCC_GET_FLAG(RCC_FLAG_LSIRDY) == RESET)
 8004986:	e008      	b.n	800499a <HAL_RCC_OscConfig+0x236>
      {
        if ((HAL_GetTick() - tickstart) > LSI_TIMEOUT_VALUE)
 8004988:	f7fd fc2e 	bl	80021e8 <HAL_GetTick>
 800498c:	4602      	mov	r2, r0
 800498e:	693b      	ldr	r3, [r7, #16]
 8004990:	1ad3      	subs	r3, r2, r3
 8004992:	2b02      	cmp	r3, #2
 8004994:	d901      	bls.n	800499a <HAL_RCC_OscConfig+0x236>
        {
          return HAL_TIMEOUT;
 8004996:	2303      	movs	r3, #3
 8004998:	e15a      	b.n	8004c50 <HAL_RCC_OscConfig+0x4ec>
      while (__HAL_RCC_GET_FLAG(RCC_FLAG_LSIRDY) == RESET)
 800499a:	4b0d      	ldr	r3, [pc, #52]	; (80049d0 <HAL_RCC_OscConfig+0x26c>)
 800499c:	6a5b      	ldr	r3, [r3, #36]	; 0x24
 800499e:	f003 0302 	and.w	r3, r3, #2
 80049a2:	2b00      	cmp	r3, #0
 80049a4:	d0f0      	beq.n	8004988 <HAL_RCC_OscConfig+0x224>
        }
      }
      /*  To have a fully stabilized clock in the specified range, a software delay of 1ms
          should be added.*/
      RCC_Delay(1);
 80049a6:	2001      	movs	r0, #1
 80049a8:	f000 fb0a 	bl	8004fc0 <RCC_Delay>
 80049ac:	e01c      	b.n	80049e8 <HAL_RCC_OscConfig+0x284>
    }
    else
    {
      /* Disable the Internal Low Speed oscillator (LSI). */
      __HAL_RCC_LSI_DISABLE();
 80049ae:	4b0a      	ldr	r3, [pc, #40]	; (80049d8 <HAL_RCC_OscConfig+0x274>)
 80049b0:	2200      	movs	r2, #0
 80049b2:	601a      	str	r2, [r3, #0]

      /* Get Start Tick */
      tickstart = HAL_GetTick();
 80049b4:	f7fd fc18 	bl	80021e8 <HAL_GetTick>
 80049b8:	6138      	str	r0, [r7, #16]

      /* Wait till LSI is disabled */
      while (__HAL_RCC_GET_FLAG(RCC_FLAG_LSIRDY) != RESET)
 80049ba:	e00f      	b.n	80049dc <HAL_RCC_OscConfig+0x278>
      {
        if ((HAL_GetTick() - tickstart) > LSI_TIMEOUT_VALUE)
 80049bc:	f7fd fc14 	bl	80021e8 <HAL_GetTick>
 80049c0:	4602      	mov	r2, r0
 80049c2:	693b      	ldr	r3, [r7, #16]
 80049c4:	1ad3      	subs	r3, r2, r3
 80049c6:	2b02      	cmp	r3, #2
 80049c8:	d908      	bls.n	80049dc <HAL_RCC_OscConfig+0x278>
        {
          return HAL_TIMEOUT;
 80049ca:	2303      	movs	r3, #3
 80049cc:	e140      	b.n	8004c50 <HAL_RCC_OscConfig+0x4ec>
 80049ce:	bf00      	nop
 80049d0:	40021000 	.word	0x40021000
 80049d4:	42420000 	.word	0x42420000
 80049d8:	42420480 	.word	0x42420480
      while (__HAL_RCC_GET_FLAG(RCC_FLAG_LSIRDY) != RESET)
 80049dc:	4b9e      	ldr	r3, [pc, #632]	; (8004c58 <HAL_RCC_OscConfig+0x4f4>)
 80049de:	6a5b      	ldr	r3, [r3, #36]	; 0x24
 80049e0:	f003 0302 	and.w	r3, r3, #2
 80049e4:	2b00      	cmp	r3, #0
 80049e6:	d1e9      	bne.n	80049bc <HAL_RCC_OscConfig+0x258>
        }
      }
    }
  }
  /*------------------------------ LSE Configuration -------------------------*/
  if (((RCC_OscInitStruct->OscillatorType) & RCC_OSCILLATORTYPE_LSE) == RCC_OSCILLATORTYPE_LSE)
 80049e8:	687b      	ldr	r3, [r7, #4]
 80049ea:	681b      	ldr	r3, [r3, #0]
 80049ec:	f003 0304 	and.w	r3, r3, #4
 80049f0:	2b00      	cmp	r3, #0
 80049f2:	f000 80a6 	beq.w	8004b42 <HAL_RCC_OscConfig+0x3de>
  {
    FlagStatus       pwrclkchanged = RESET;
 80049f6:	2300      	movs	r3, #0
 80049f8:	75fb      	strb	r3, [r7, #23]
    /* Check the parameters */
    assert_param(IS_RCC_LSE(RCC_OscInitStruct->LSEState));

    /* Update LSE configuration in Backup Domain control register    */
    /* Requires to enable write access to Backup Domain of necessary */
    if (__HAL_RCC_PWR_IS_CLK_DISABLED())
 80049fa:	4b97      	ldr	r3, [pc, #604]	; (8004c58 <HAL_RCC_OscConfig+0x4f4>)
 80049fc:	69db      	ldr	r3, [r3, #28]
 80049fe:	f003 5380 	and.w	r3, r3, #268435456	; 0x10000000
 8004a02:	2b00      	cmp	r3, #0
 8004a04:	d10d      	bne.n	8004a22 <HAL_RCC_OscConfig+0x2be>
    {
      __HAL_RCC_PWR_CLK_ENABLE();
 8004a06:	4b94      	ldr	r3, [pc, #592]	; (8004c58 <HAL_RCC_OscConfig+0x4f4>)
 8004a08:	69db      	ldr	r3, [r3, #28]
 8004a0a:	4a93      	ldr	r2, [pc, #588]	; (8004c58 <HAL_RCC_OscConfig+0x4f4>)
 8004a0c:	f043 5380 	orr.w	r3, r3, #268435456	; 0x10000000
 8004a10:	61d3      	str	r3, [r2, #28]
 8004a12:	4b91      	ldr	r3, [pc, #580]	; (8004c58 <HAL_RCC_OscConfig+0x4f4>)
 8004a14:	69db      	ldr	r3, [r3, #28]
 8004a16:	f003 5380 	and.w	r3, r3, #268435456	; 0x10000000
 8004a1a:	60bb      	str	r3, [r7, #8]
 8004a1c:	68bb      	ldr	r3, [r7, #8]
      pwrclkchanged = SET;
 8004a1e:	2301      	movs	r3, #1
 8004a20:	75fb      	strb	r3, [r7, #23]
    }

    if (HAL_IS_BIT_CLR(PWR->CR, PWR_CR_DBP))
 8004a22:	4b8e      	ldr	r3, [pc, #568]	; (8004c5c <HAL_RCC_OscConfig+0x4f8>)
 8004a24:	681b      	ldr	r3, [r3, #0]
 8004a26:	f403 7380 	and.w	r3, r3, #256	; 0x100
 8004a2a:	2b00      	cmp	r3, #0
 8004a2c:	d118      	bne.n	8004a60 <HAL_RCC_OscConfig+0x2fc>
    {
      /* Enable write access to Backup domain */
      SET_BIT(PWR->CR, PWR_CR_DBP);
 8004a2e:	4b8b      	ldr	r3, [pc, #556]	; (8004c5c <HAL_RCC_OscConfig+0x4f8>)
 8004a30:	681b      	ldr	r3, [r3, #0]
 8004a32:	4a8a      	ldr	r2, [pc, #552]	; (8004c5c <HAL_RCC_OscConfig+0x4f8>)
 8004a34:	f443 7380 	orr.w	r3, r3, #256	; 0x100
 8004a38:	6013      	str	r3, [r2, #0]

      /* Wait for Backup domain Write protection disable */
      tickstart = HAL_GetTick();
 8004a3a:	f7fd fbd5 	bl	80021e8 <HAL_GetTick>
 8004a3e:	6138      	str	r0, [r7, #16]

      while (HAL_IS_BIT_CLR(PWR->CR, PWR_CR_DBP))
 8004a40:	e008      	b.n	8004a54 <HAL_RCC_OscConfig+0x2f0>
      {
        if ((HAL_GetTick() - tickstart) > RCC_DBP_TIMEOUT_VALUE)
 8004a42:	f7fd fbd1 	bl	80021e8 <HAL_GetTick>
 8004a46:	4602      	mov	r2, r0
 8004a48:	693b      	ldr	r3, [r7, #16]
 8004a4a:	1ad3      	subs	r3, r2, r3
 8004a4c:	2b64      	cmp	r3, #100	; 0x64
 8004a4e:	d901      	bls.n	8004a54 <HAL_RCC_OscConfig+0x2f0>
        {
          return HAL_TIMEOUT;
 8004a50:	2303      	movs	r3, #3
 8004a52:	e0fd      	b.n	8004c50 <HAL_RCC_OscConfig+0x4ec>
      while (HAL_IS_BIT_CLR(PWR->CR, PWR_CR_DBP))
 8004a54:	4b81      	ldr	r3, [pc, #516]	; (8004c5c <HAL_RCC_OscConfig+0x4f8>)
 8004a56:	681b      	ldr	r3, [r3, #0]
 8004a58:	f403 7380 	and.w	r3, r3, #256	; 0x100
 8004a5c:	2b00      	cmp	r3, #0
 8004a5e:	d0f0      	beq.n	8004a42 <HAL_RCC_OscConfig+0x2de>
        }
      }
    }

    /* Set the new LSE configuration -----------------------------------------*/
    __HAL_RCC_LSE_CONFIG(RCC_OscInitStruct->LSEState);
 8004a60:	687b      	ldr	r3, [r7, #4]
 8004a62:	68db      	ldr	r3, [r3, #12]
 8004a64:	2b01      	cmp	r3, #1
 8004a66:	d106      	bne.n	8004a76 <HAL_RCC_OscConfig+0x312>
 8004a68:	4b7b      	ldr	r3, [pc, #492]	; (8004c58 <HAL_RCC_OscConfig+0x4f4>)
 8004a6a:	6a1b      	ldr	r3, [r3, #32]
 8004a6c:	4a7a      	ldr	r2, [pc, #488]	; (8004c58 <HAL_RCC_OscConfig+0x4f4>)
 8004a6e:	f043 0301 	orr.w	r3, r3, #1
 8004a72:	6213      	str	r3, [r2, #32]
 8004a74:	e02d      	b.n	8004ad2 <HAL_RCC_OscConfig+0x36e>
 8004a76:	687b      	ldr	r3, [r7, #4]
 8004a78:	68db      	ldr	r3, [r3, #12]
 8004a7a:	2b00      	cmp	r3, #0
 8004a7c:	d10c      	bne.n	8004a98 <HAL_RCC_OscConfig+0x334>
 8004a7e:	4b76      	ldr	r3, [pc, #472]	; (8004c58 <HAL_RCC_OscConfig+0x4f4>)
 8004a80:	6a1b      	ldr	r3, [r3, #32]
 8004a82:	4a75      	ldr	r2, [pc, #468]	; (8004c58 <HAL_RCC_OscConfig+0x4f4>)
 8004a84:	f023 0301 	bic.w	r3, r3, #1
 8004a88:	6213      	str	r3, [r2, #32]
 8004a8a:	4b73      	ldr	r3, [pc, #460]	; (8004c58 <HAL_RCC_OscConfig+0x4f4>)
 8004a8c:	6a1b      	ldr	r3, [r3, #32]
 8004a8e:	4a72      	ldr	r2, [pc, #456]	; (8004c58 <HAL_RCC_OscConfig+0x4f4>)
 8004a90:	f023 0304 	bic.w	r3, r3, #4
 8004a94:	6213      	str	r3, [r2, #32]
 8004a96:	e01c      	b.n	8004ad2 <HAL_RCC_OscConfig+0x36e>
 8004a98:	687b      	ldr	r3, [r7, #4]
 8004a9a:	68db      	ldr	r3, [r3, #12]
 8004a9c:	2b05      	cmp	r3, #5
 8004a9e:	d10c      	bne.n	8004aba <HAL_RCC_OscConfig+0x356>
 8004aa0:	4b6d      	ldr	r3, [pc, #436]	; (8004c58 <HAL_RCC_OscConfig+0x4f4>)
 8004aa2:	6a1b      	ldr	r3, [r3, #32]
 8004aa4:	4a6c      	ldr	r2, [pc, #432]	; (8004c58 <HAL_RCC_OscConfig+0x4f4>)
 8004aa6:	f043 0304 	orr.w	r3, r3, #4
 8004aaa:	6213      	str	r3, [r2, #32]
 8004aac:	4b6a      	ldr	r3, [pc, #424]	; (8004c58 <HAL_RCC_OscConfig+0x4f4>)
 8004aae:	6a1b      	ldr	r3, [r3, #32]
 8004ab0:	4a69      	ldr	r2, [pc, #420]	; (8004c58 <HAL_RCC_OscConfig+0x4f4>)
 8004ab2:	f043 0301 	orr.w	r3, r3, #1
 8004ab6:	6213      	str	r3, [r2, #32]
 8004ab8:	e00b      	b.n	8004ad2 <HAL_RCC_OscConfig+0x36e>
 8004aba:	4b67      	ldr	r3, [pc, #412]	; (8004c58 <HAL_RCC_OscConfig+0x4f4>)
 8004abc:	6a1b      	ldr	r3, [r3, #32]
 8004abe:	4a66      	ldr	r2, [pc, #408]	; (8004c58 <HAL_RCC_OscConfig+0x4f4>)
 8004ac0:	f023 0301 	bic.w	r3, r3, #1
 8004ac4:	6213      	str	r3, [r2, #32]
 8004ac6:	4b64      	ldr	r3, [pc, #400]	; (8004c58 <HAL_RCC_OscConfig+0x4f4>)
 8004ac8:	6a1b      	ldr	r3, [r3, #32]
 8004aca:	4a63      	ldr	r2, [pc, #396]	; (8004c58 <HAL_RCC_OscConfig+0x4f4>)
 8004acc:	f023 0304 	bic.w	r3, r3, #4
 8004ad0:	6213      	str	r3, [r2, #32]
    /* Check the LSE State */
    if (RCC_OscInitStruct->LSEState != RCC_LSE_OFF)
 8004ad2:	687b      	ldr	r3, [r7, #4]
 8004ad4:	68db      	ldr	r3, [r3, #12]
 8004ad6:	2b00      	cmp	r3, #0
 8004ad8:	d015      	beq.n	8004b06 <HAL_RCC_OscConfig+0x3a2>
    {
      /* Get Start Tick */
      tickstart = HAL_GetTick();
 8004ada:	f7fd fb85 	bl	80021e8 <HAL_GetTick>
 8004ade:	6138      	str	r0, [r7, #16]

      /* Wait till LSE is ready */
      while (__HAL_RCC_GET_FLAG(RCC_FLAG_LSERDY) == RESET)
 8004ae0:	e00a      	b.n	8004af8 <HAL_RCC_OscConfig+0x394>
      {
        if ((HAL_GetTick() - tickstart) > RCC_LSE_TIMEOUT_VALUE)
 8004ae2:	f7fd fb81 	bl	80021e8 <HAL_GetTick>
 8004ae6:	4602      	mov	r2, r0
 8004ae8:	693b      	ldr	r3, [r7, #16]
 8004aea:	1ad3      	subs	r3, r2, r3
 8004aec:	f241 3288 	movw	r2, #5000	; 0x1388
 8004af0:	4293      	cmp	r3, r2
 8004af2:	d901      	bls.n	8004af8 <HAL_RCC_OscConfig+0x394>
        {
          return HAL_TIMEOUT;
 8004af4:	2303      	movs	r3, #3
 8004af6:	e0ab      	b.n	8004c50 <HAL_RCC_OscConfig+0x4ec>
      while (__HAL_RCC_GET_FLAG(RCC_FLAG_LSERDY) == RESET)
 8004af8:	4b57      	ldr	r3, [pc, #348]	; (8004c58 <HAL_RCC_OscConfig+0x4f4>)
 8004afa:	6a1b      	ldr	r3, [r3, #32]
 8004afc:	f003 0302 	and.w	r3, r3, #2
 8004b00:	2b00      	cmp	r3, #0
 8004b02:	d0ee      	beq.n	8004ae2 <HAL_RCC_OscConfig+0x37e>
 8004b04:	e014      	b.n	8004b30 <HAL_RCC_OscConfig+0x3cc>
      }
    }
    else
    {
      /* Get Start Tick */
      tickstart = HAL_GetTick();
 8004b06:	f7fd fb6f 	bl	80021e8 <HAL_GetTick>
 8004b0a:	6138      	str	r0, [r7, #16]

      /* Wait till LSE is disabled */
      while (__HAL_RCC_GET_FLAG(RCC_FLAG_LSERDY) != RESET)
 8004b0c:	e00a      	b.n	8004b24 <HAL_RCC_OscConfig+0x3c0>
      {
        if ((HAL_GetTick() - tickstart) > RCC_LSE_TIMEOUT_VALUE)
 8004b0e:	f7fd fb6b 	bl	80021e8 <HAL_GetTick>
 8004b12:	4602      	mov	r2, r0
 8004b14:	693b      	ldr	r3, [r7, #16]
 8004b16:	1ad3      	subs	r3, r2, r3
 8004b18:	f241 3288 	movw	r2, #5000	; 0x1388
 8004b1c:	4293      	cmp	r3, r2
 8004b1e:	d901      	bls.n	8004b24 <HAL_RCC_OscConfig+0x3c0>
        {
          return HAL_TIMEOUT;
 8004b20:	2303      	movs	r3, #3
 8004b22:	e095      	b.n	8004c50 <HAL_RCC_OscConfig+0x4ec>
      while (__HAL_RCC_GET_FLAG(RCC_FLAG_LSERDY) != RESET)
 8004b24:	4b4c      	ldr	r3, [pc, #304]	; (8004c58 <HAL_RCC_OscConfig+0x4f4>)
 8004b26:	6a1b      	ldr	r3, [r3, #32]
 8004b28:	f003 0302 	and.w	r3, r3, #2
 8004b2c:	2b00      	cmp	r3, #0
 8004b2e:	d1ee      	bne.n	8004b0e <HAL_RCC_OscConfig+0x3aa>
        }
      }
    }

    /* Require to disable power clock if necessary */
    if (pwrclkchanged == SET)
 8004b30:	7dfb      	ldrb	r3, [r7, #23]
 8004b32:	2b01      	cmp	r3, #1
 8004b34:	d105      	bne.n	8004b42 <HAL_RCC_OscConfig+0x3de>
    {
      __HAL_RCC_PWR_CLK_DISABLE();
 8004b36:	4b48      	ldr	r3, [pc, #288]	; (8004c58 <HAL_RCC_OscConfig+0x4f4>)
 8004b38:	69db      	ldr	r3, [r3, #28]
 8004b3a:	4a47      	ldr	r2, [pc, #284]	; (8004c58 <HAL_RCC_OscConfig+0x4f4>)
 8004b3c:	f023 5380 	bic.w	r3, r3, #268435456	; 0x10000000
 8004b40:	61d3      	str	r3, [r2, #28]

#endif /* RCC_CR_PLL2ON */
  /*-------------------------------- PLL Configuration -----------------------*/
  /* Check the parameters */
  assert_param(IS_RCC_PLL(RCC_OscInitStruct->PLL.PLLState));
  if ((RCC_OscInitStruct->PLL.PLLState) != RCC_PLL_NONE)
 8004b42:	687b      	ldr	r3, [r7, #4]
 8004b44:	69db      	ldr	r3, [r3, #28]
 8004b46:	2b00      	cmp	r3, #0
 8004b48:	f000 8081 	beq.w	8004c4e <HAL_RCC_OscConfig+0x4ea>
  {
    /* Check if the PLL is used as system clock or not */
    if (__HAL_RCC_GET_SYSCLK_SOURCE() != RCC_SYSCLKSOURCE_STATUS_PLLCLK)
 8004b4c:	4b42      	ldr	r3, [pc, #264]	; (8004c58 <HAL_RCC_OscConfig+0x4f4>)
 8004b4e:	685b      	ldr	r3, [r3, #4]
 8004b50:	f003 030c 	and.w	r3, r3, #12
 8004b54:	2b08      	cmp	r3, #8
 8004b56:	d061      	beq.n	8004c1c <HAL_RCC_OscConfig+0x4b8>
    {
      if ((RCC_OscInitStruct->PLL.PLLState) == RCC_PLL_ON)
 8004b58:	687b      	ldr	r3, [r7, #4]
 8004b5a:	69db      	ldr	r3, [r3, #28]
 8004b5c:	2b02      	cmp	r3, #2
 8004b5e:	d146      	bne.n	8004bee <HAL_RCC_OscConfig+0x48a>
        /* Check the parameters */
        assert_param(IS_RCC_PLLSOURCE(RCC_OscInitStruct->PLL.PLLSource));
        assert_param(IS_RCC_PLL_MUL(RCC_OscInitStruct->PLL.PLLMUL));

        /* Disable the main PLL. */
        __HAL_RCC_PLL_DISABLE();
 8004b60:	4b3f      	ldr	r3, [pc, #252]	; (8004c60 <HAL_RCC_OscConfig+0x4fc>)
 8004b62:	2200      	movs	r2, #0
 8004b64:	601a      	str	r2, [r3, #0]

        /* Get Start Tick */
        tickstart = HAL_GetTick();
 8004b66:	f7fd fb3f 	bl	80021e8 <HAL_GetTick>
 8004b6a:	6138      	str	r0, [r7, #16]

        /* Wait till PLL is disabled */
        while (__HAL_RCC_GET_FLAG(RCC_FLAG_PLLRDY)  != RESET)
 8004b6c:	e008      	b.n	8004b80 <HAL_RCC_OscConfig+0x41c>
        {
          if ((HAL_GetTick() - tickstart) > PLL_TIMEOUT_VALUE)
 8004b6e:	f7fd fb3b 	bl	80021e8 <HAL_GetTick>
 8004b72:	4602      	mov	r2, r0
 8004b74:	693b      	ldr	r3, [r7, #16]
 8004b76:	1ad3      	subs	r3, r2, r3
 8004b78:	2b02      	cmp	r3, #2
 8004b7a:	d901      	bls.n	8004b80 <HAL_RCC_OscConfig+0x41c>
          {
            return HAL_TIMEOUT;
 8004b7c:	2303      	movs	r3, #3
 8004b7e:	e067      	b.n	8004c50 <HAL_RCC_OscConfig+0x4ec>
        while (__HAL_RCC_GET_FLAG(RCC_FLAG_PLLRDY)  != RESET)
 8004b80:	4b35      	ldr	r3, [pc, #212]	; (8004c58 <HAL_RCC_OscConfig+0x4f4>)
 8004b82:	681b      	ldr	r3, [r3, #0]
 8004b84:	f003 7300 	and.w	r3, r3, #33554432	; 0x2000000
 8004b88:	2b00      	cmp	r3, #0
 8004b8a:	d1f0      	bne.n	8004b6e <HAL_RCC_OscConfig+0x40a>
          }
        }

        /* Configure the HSE prediv factor --------------------------------*/
        /* It can be written only when the PLL is disabled. Not used in PLL source is different than HSE */
        if (RCC_OscInitStruct->PLL.PLLSource == RCC_PLLSOURCE_HSE)
 8004b8c:	687b      	ldr	r3, [r7, #4]
 8004b8e:	6a1b      	ldr	r3, [r3, #32]
 8004b90:	f5b3 3f80 	cmp.w	r3, #65536	; 0x10000
 8004b94:	d108      	bne.n	8004ba8 <HAL_RCC_OscConfig+0x444>
          /* Set PREDIV1 source */
          SET_BIT(RCC->CFGR2, RCC_OscInitStruct->Prediv1Source);
#endif /* RCC_CFGR2_PREDIV1SRC */

          /* Set PREDIV1 Value */
          __HAL_RCC_HSE_PREDIV_CONFIG(RCC_OscInitStruct->HSEPredivValue);
 8004b96:	4b30      	ldr	r3, [pc, #192]	; (8004c58 <HAL_RCC_OscConfig+0x4f4>)
 8004b98:	685b      	ldr	r3, [r3, #4]
 8004b9a:	f423 3200 	bic.w	r2, r3, #131072	; 0x20000
 8004b9e:	687b      	ldr	r3, [r7, #4]
 8004ba0:	689b      	ldr	r3, [r3, #8]
 8004ba2:	492d      	ldr	r1, [pc, #180]	; (8004c58 <HAL_RCC_OscConfig+0x4f4>)
 8004ba4:	4313      	orrs	r3, r2
 8004ba6:	604b      	str	r3, [r1, #4]
        }

        /* Configure the main PLL clock source and multiplication factors. */
        __HAL_RCC_PLL_CONFIG(RCC_OscInitStruct->PLL.PLLSource,
 8004ba8:	4b2b      	ldr	r3, [pc, #172]	; (8004c58 <HAL_RCC_OscConfig+0x4f4>)
 8004baa:	685b      	ldr	r3, [r3, #4]
 8004bac:	f423 1274 	bic.w	r2, r3, #3997696	; 0x3d0000
 8004bb0:	687b      	ldr	r3, [r7, #4]
 8004bb2:	6a19      	ldr	r1, [r3, #32]
 8004bb4:	687b      	ldr	r3, [r7, #4]
 8004bb6:	6a5b      	ldr	r3, [r3, #36]	; 0x24
 8004bb8:	430b      	orrs	r3, r1
 8004bba:	4927      	ldr	r1, [pc, #156]	; (8004c58 <HAL_RCC_OscConfig+0x4f4>)
 8004bbc:	4313      	orrs	r3, r2
 8004bbe:	604b      	str	r3, [r1, #4]
                             RCC_OscInitStruct->PLL.PLLMUL);
        /* Enable the main PLL. */
        __HAL_RCC_PLL_ENABLE();
 8004bc0:	4b27      	ldr	r3, [pc, #156]	; (8004c60 <HAL_RCC_OscConfig+0x4fc>)
 8004bc2:	2201      	movs	r2, #1
 8004bc4:	601a      	str	r2, [r3, #0]

        /* Get Start Tick */
        tickstart = HAL_GetTick();
 8004bc6:	f7fd fb0f 	bl	80021e8 <HAL_GetTick>
 8004bca:	6138      	str	r0, [r7, #16]

        /* Wait till PLL is ready */
        while (__HAL_RCC_GET_FLAG(RCC_FLAG_PLLRDY)  == RESET)
 8004bcc:	e008      	b.n	8004be0 <HAL_RCC_OscConfig+0x47c>
        {
          if ((HAL_GetTick() - tickstart) > PLL_TIMEOUT_VALUE)
 8004bce:	f7fd fb0b 	bl	80021e8 <HAL_GetTick>
 8004bd2:	4602      	mov	r2, r0
 8004bd4:	693b      	ldr	r3, [r7, #16]
 8004bd6:	1ad3      	subs	r3, r2, r3
 8004bd8:	2b02      	cmp	r3, #2
 8004bda:	d901      	bls.n	8004be0 <HAL_RCC_OscConfig+0x47c>
          {
            return HAL_TIMEOUT;
 8004bdc:	2303      	movs	r3, #3
 8004bde:	e037      	b.n	8004c50 <HAL_RCC_OscConfig+0x4ec>
        while (__HAL_RCC_GET_FLAG(RCC_FLAG_PLLRDY)  == RESET)
 8004be0:	4b1d      	ldr	r3, [pc, #116]	; (8004c58 <HAL_RCC_OscConfig+0x4f4>)
 8004be2:	681b      	ldr	r3, [r3, #0]
 8004be4:	f003 7300 	and.w	r3, r3, #33554432	; 0x2000000
 8004be8:	2b00      	cmp	r3, #0
 8004bea:	d0f0      	beq.n	8004bce <HAL_RCC_OscConfig+0x46a>
 8004bec:	e02f      	b.n	8004c4e <HAL_RCC_OscConfig+0x4ea>
        }
      }
      else
      {
        /* Disable the main PLL. */
        __HAL_RCC_PLL_DISABLE();
 8004bee:	4b1c      	ldr	r3, [pc, #112]	; (8004c60 <HAL_RCC_OscConfig+0x4fc>)
 8004bf0:	2200      	movs	r2, #0
 8004bf2:	601a      	str	r2, [r3, #0]

        /* Get Start Tick */
        tickstart = HAL_GetTick();
 8004bf4:	f7fd faf8 	bl	80021e8 <HAL_GetTick>
 8004bf8:	6138      	str	r0, [r7, #16]

        /* Wait till PLL is disabled */
        while (__HAL_RCC_GET_FLAG(RCC_FLAG_PLLRDY)  != RESET)
 8004bfa:	e008      	b.n	8004c0e <HAL_RCC_OscConfig+0x4aa>
        {
          if ((HAL_GetTick() - tickstart) > PLL_TIMEOUT_VALUE)
 8004bfc:	f7fd faf4 	bl	80021e8 <HAL_GetTick>
 8004c00:	4602      	mov	r2, r0
 8004c02:	693b      	ldr	r3, [r7, #16]
 8004c04:	1ad3      	subs	r3, r2, r3
 8004c06:	2b02      	cmp	r3, #2
 8004c08:	d901      	bls.n	8004c0e <HAL_RCC_OscConfig+0x4aa>
          {
            return HAL_TIMEOUT;
 8004c0a:	2303      	movs	r3, #3
 8004c0c:	e020      	b.n	8004c50 <HAL_RCC_OscConfig+0x4ec>
        while (__HAL_RCC_GET_FLAG(RCC_FLAG_PLLRDY)  != RESET)
 8004c0e:	4b12      	ldr	r3, [pc, #72]	; (8004c58 <HAL_RCC_OscConfig+0x4f4>)
 8004c10:	681b      	ldr	r3, [r3, #0]
 8004c12:	f003 7300 	and.w	r3, r3, #33554432	; 0x2000000
 8004c16:	2b00      	cmp	r3, #0
 8004c18:	d1f0      	bne.n	8004bfc <HAL_RCC_OscConfig+0x498>
 8004c1a:	e018      	b.n	8004c4e <HAL_RCC_OscConfig+0x4ea>
      }
    }
    else
    {
      /* Check if there is a request to disable the PLL used as System clock source */
      if ((RCC_OscInitStruct->PLL.PLLState) == RCC_PLL_OFF)
 8004c1c:	687b      	ldr	r3, [r7, #4]
 8004c1e:	69db      	ldr	r3, [r3, #28]
 8004c20:	2b01      	cmp	r3, #1
 8004c22:	d101      	bne.n	8004c28 <HAL_RCC_OscConfig+0x4c4>
      {
        return HAL_ERROR;
 8004c24:	2301      	movs	r3, #1
 8004c26:	e013      	b.n	8004c50 <HAL_RCC_OscConfig+0x4ec>
      }
      else
      {
        /* Do not return HAL_ERROR if request repeats the current configuration */
        pll_config = RCC->CFGR;
 8004c28:	4b0b      	ldr	r3, [pc, #44]	; (8004c58 <HAL_RCC_OscConfig+0x4f4>)
 8004c2a:	685b      	ldr	r3, [r3, #4]
 8004c2c:	60fb      	str	r3, [r7, #12]
        if ((READ_BIT(pll_config, RCC_CFGR_PLLSRC) != RCC_OscInitStruct->PLL.PLLSource) ||
 8004c2e:	68fb      	ldr	r3, [r7, #12]
 8004c30:	f403 3280 	and.w	r2, r3, #65536	; 0x10000
 8004c34:	687b      	ldr	r3, [r7, #4]
 8004c36:	6a1b      	ldr	r3, [r3, #32]
 8004c38:	429a      	cmp	r2, r3
 8004c3a:	d106      	bne.n	8004c4a <HAL_RCC_OscConfig+0x4e6>
            (READ_BIT(pll_config, RCC_CFGR_PLLMULL) != RCC_OscInitStruct->PLL.PLLMUL))
 8004c3c:	68fb      	ldr	r3, [r7, #12]
 8004c3e:	f403 1270 	and.w	r2, r3, #3932160	; 0x3c0000
 8004c42:	687b      	ldr	r3, [r7, #4]
 8004c44:	6a5b      	ldr	r3, [r3, #36]	; 0x24
        if ((READ_BIT(pll_config, RCC_CFGR_PLLSRC) != RCC_OscInitStruct->PLL.PLLSource) ||
 8004c46:	429a      	cmp	r2, r3
 8004c48:	d001      	beq.n	8004c4e <HAL_RCC_OscConfig+0x4ea>
        {
          return HAL_ERROR;
 8004c4a:	2301      	movs	r3, #1
 8004c4c:	e000      	b.n	8004c50 <HAL_RCC_OscConfig+0x4ec>
        }
      }
    }
  }

  return HAL_OK;
 8004c4e:	2300      	movs	r3, #0
}
 8004c50:	4618      	mov	r0, r3
 8004c52:	3718      	adds	r7, #24
 8004c54:	46bd      	mov	sp, r7
 8004c56:	bd80      	pop	{r7, pc}
 8004c58:	40021000 	.word	0x40021000
 8004c5c:	40007000 	.word	0x40007000
 8004c60:	42420060 	.word	0x42420060

08004c64 <HAL_RCC_ClockConfig>:
  *         You can use @ref HAL_RCC_GetClockConfig() function to know which clock is
  *         currently used as system clock source.
  * @retval HAL status
  */
HAL_StatusTypeDef HAL_RCC_ClockConfig(RCC_ClkInitTypeDef  *RCC_ClkInitStruct, uint32_t FLatency)
{
 8004c64:	b580      	push	{r7, lr}
 8004c66:	b084      	sub	sp, #16
 8004c68:	af00      	add	r7, sp, #0
 8004c6a:	6078      	str	r0, [r7, #4]
 8004c6c:	6039      	str	r1, [r7, #0]
  uint32_t tickstart;

  /* Check Null pointer */
  if (RCC_ClkInitStruct == NULL)
 8004c6e:	687b      	ldr	r3, [r7, #4]
 8004c70:	2b00      	cmp	r3, #0
 8004c72:	d101      	bne.n	8004c78 <HAL_RCC_ClockConfig+0x14>
  {
    return HAL_ERROR;
 8004c74:	2301      	movs	r3, #1
 8004c76:	e0d0      	b.n	8004e1a <HAL_RCC_ClockConfig+0x1b6>
  must be correctly programmed according to the frequency of the CPU clock
    (HCLK) of the device. */

#if defined(FLASH_ACR_LATENCY)
  /* Increasing the number of wait states because of higher CPU frequency */
  if (FLatency > __HAL_FLASH_GET_LATENCY())
 8004c78:	4b6a      	ldr	r3, [pc, #424]	; (8004e24 <HAL_RCC_ClockConfig+0x1c0>)
 8004c7a:	681b      	ldr	r3, [r3, #0]
 8004c7c:	f003 0307 	and.w	r3, r3, #7
 8004c80:	683a      	ldr	r2, [r7, #0]
 8004c82:	429a      	cmp	r2, r3
 8004c84:	d910      	bls.n	8004ca8 <HAL_RCC_ClockConfig+0x44>
  {
    /* Program the new number of wait states to the LATENCY bits in the FLASH_ACR register */
    __HAL_FLASH_SET_LATENCY(FLatency);
 8004c86:	4b67      	ldr	r3, [pc, #412]	; (8004e24 <HAL_RCC_ClockConfig+0x1c0>)
 8004c88:	681b      	ldr	r3, [r3, #0]
 8004c8a:	f023 0207 	bic.w	r2, r3, #7
 8004c8e:	4965      	ldr	r1, [pc, #404]	; (8004e24 <HAL_RCC_ClockConfig+0x1c0>)
 8004c90:	683b      	ldr	r3, [r7, #0]
 8004c92:	4313      	orrs	r3, r2
 8004c94:	600b      	str	r3, [r1, #0]

    /* Check that the new number of wait states is taken into account to access the Flash
    memory by reading the FLASH_ACR register */
    if (__HAL_FLASH_GET_LATENCY() != FLatency)
 8004c96:	4b63      	ldr	r3, [pc, #396]	; (8004e24 <HAL_RCC_ClockConfig+0x1c0>)
 8004c98:	681b      	ldr	r3, [r3, #0]
 8004c9a:	f003 0307 	and.w	r3, r3, #7
 8004c9e:	683a      	ldr	r2, [r7, #0]
 8004ca0:	429a      	cmp	r2, r3
 8004ca2:	d001      	beq.n	8004ca8 <HAL_RCC_ClockConfig+0x44>
  {
    return HAL_ERROR;
 8004ca4:	2301      	movs	r3, #1
 8004ca6:	e0b8      	b.n	8004e1a <HAL_RCC_ClockConfig+0x1b6>
  }
}

#endif /* FLASH_ACR_LATENCY */
/*-------------------------- HCLK Configuration --------------------------*/
if (((RCC_ClkInitStruct->ClockType) & RCC_CLOCKTYPE_HCLK) == RCC_CLOCKTYPE_HCLK)
 8004ca8:	687b      	ldr	r3, [r7, #4]
 8004caa:	681b      	ldr	r3, [r3, #0]
 8004cac:	f003 0302 	and.w	r3, r3, #2
 8004cb0:	2b00      	cmp	r3, #0
 8004cb2:	d020      	beq.n	8004cf6 <HAL_RCC_ClockConfig+0x92>
  {
    /* Set the highest APBx dividers in order to ensure that we do not go through
    a non-spec phase whatever we decrease or increase HCLK. */
    if (((RCC_ClkInitStruct->ClockType) & RCC_CLOCKTYPE_PCLK1) == RCC_CLOCKTYPE_PCLK1)
 8004cb4:	687b      	ldr	r3, [r7, #4]
 8004cb6:	681b      	ldr	r3, [r3, #0]
 8004cb8:	f003 0304 	and.w	r3, r3, #4
 8004cbc:	2b00      	cmp	r3, #0
 8004cbe:	d005      	beq.n	8004ccc <HAL_RCC_ClockConfig+0x68>
    {
      MODIFY_REG(RCC->CFGR, RCC_CFGR_PPRE1, RCC_HCLK_DIV16);
 8004cc0:	4b59      	ldr	r3, [pc, #356]	; (8004e28 <HAL_RCC_ClockConfig+0x1c4>)
 8004cc2:	685b      	ldr	r3, [r3, #4]
 8004cc4:	4a58      	ldr	r2, [pc, #352]	; (8004e28 <HAL_RCC_ClockConfig+0x1c4>)
 8004cc6:	f443 63e0 	orr.w	r3, r3, #1792	; 0x700
 8004cca:	6053      	str	r3, [r2, #4]
    }

    if (((RCC_ClkInitStruct->ClockType) & RCC_CLOCKTYPE_PCLK2) == RCC_CLOCKTYPE_PCLK2)
 8004ccc:	687b      	ldr	r3, [r7, #4]
 8004cce:	681b      	ldr	r3, [r3, #0]
 8004cd0:	f003 0308 	and.w	r3, r3, #8
 8004cd4:	2b00      	cmp	r3, #0
 8004cd6:	d005      	beq.n	8004ce4 <HAL_RCC_ClockConfig+0x80>
    {
      MODIFY_REG(RCC->CFGR, RCC_CFGR_PPRE2, (RCC_HCLK_DIV16 << 3));
 8004cd8:	4b53      	ldr	r3, [pc, #332]	; (8004e28 <HAL_RCC_ClockConfig+0x1c4>)
 8004cda:	685b      	ldr	r3, [r3, #4]
 8004cdc:	4a52      	ldr	r2, [pc, #328]	; (8004e28 <HAL_RCC_ClockConfig+0x1c4>)
 8004cde:	f443 5360 	orr.w	r3, r3, #14336	; 0x3800
 8004ce2:	6053      	str	r3, [r2, #4]
    }

    /* Set the new HCLK clock divider */
    assert_param(IS_RCC_HCLK(RCC_ClkInitStruct->AHBCLKDivider));
    MODIFY_REG(RCC->CFGR, RCC_CFGR_HPRE, RCC_ClkInitStruct->AHBCLKDivider);
 8004ce4:	4b50      	ldr	r3, [pc, #320]	; (8004e28 <HAL_RCC_ClockConfig+0x1c4>)
 8004ce6:	685b      	ldr	r3, [r3, #4]
 8004ce8:	f023 02f0 	bic.w	r2, r3, #240	; 0xf0
 8004cec:	687b      	ldr	r3, [r7, #4]
 8004cee:	689b      	ldr	r3, [r3, #8]
 8004cf0:	494d      	ldr	r1, [pc, #308]	; (8004e28 <HAL_RCC_ClockConfig+0x1c4>)
 8004cf2:	4313      	orrs	r3, r2
 8004cf4:	604b      	str	r3, [r1, #4]
  }

  /*------------------------- SYSCLK Configuration ---------------------------*/
  if (((RCC_ClkInitStruct->ClockType) & RCC_CLOCKTYPE_SYSCLK) == RCC_CLOCKTYPE_SYSCLK)
 8004cf6:	687b      	ldr	r3, [r7, #4]
 8004cf8:	681b      	ldr	r3, [r3, #0]
 8004cfa:	f003 0301 	and.w	r3, r3, #1
 8004cfe:	2b00      	cmp	r3, #0
 8004d00:	d040      	beq.n	8004d84 <HAL_RCC_ClockConfig+0x120>
  {
    assert_param(IS_RCC_SYSCLKSOURCE(RCC_ClkInitStruct->SYSCLKSource));

    /* HSE is selected as System Clock Source */
    if (RCC_ClkInitStruct->SYSCLKSource == RCC_SYSCLKSOURCE_HSE)
 8004d02:	687b      	ldr	r3, [r7, #4]
 8004d04:	685b      	ldr	r3, [r3, #4]
 8004d06:	2b01      	cmp	r3, #1
 8004d08:	d107      	bne.n	8004d1a <HAL_RCC_ClockConfig+0xb6>
    {
      /* Check the HSE ready flag */
      if (__HAL_RCC_GET_FLAG(RCC_FLAG_HSERDY) == RESET)
 8004d0a:	4b47      	ldr	r3, [pc, #284]	; (8004e28 <HAL_RCC_ClockConfig+0x1c4>)
 8004d0c:	681b      	ldr	r3, [r3, #0]
 8004d0e:	f403 3300 	and.w	r3, r3, #131072	; 0x20000
 8004d12:	2b00      	cmp	r3, #0
 8004d14:	d115      	bne.n	8004d42 <HAL_RCC_ClockConfig+0xde>
      {
        return HAL_ERROR;
 8004d16:	2301      	movs	r3, #1
 8004d18:	e07f      	b.n	8004e1a <HAL_RCC_ClockConfig+0x1b6>
      }
    }
    /* PLL is selected as System Clock Source */
    else if (RCC_ClkInitStruct->SYSCLKSource == RCC_SYSCLKSOURCE_PLLCLK)
 8004d1a:	687b      	ldr	r3, [r7, #4]
 8004d1c:	685b      	ldr	r3, [r3, #4]
 8004d1e:	2b02      	cmp	r3, #2
 8004d20:	d107      	bne.n	8004d32 <HAL_RCC_ClockConfig+0xce>
    {
      /* Check the PLL ready flag */
      if (__HAL_RCC_GET_FLAG(RCC_FLAG_PLLRDY) == RESET)
 8004d22:	4b41      	ldr	r3, [pc, #260]	; (8004e28 <HAL_RCC_ClockConfig+0x1c4>)
 8004d24:	681b      	ldr	r3, [r3, #0]
 8004d26:	f003 7300 	and.w	r3, r3, #33554432	; 0x2000000
 8004d2a:	2b00      	cmp	r3, #0
 8004d2c:	d109      	bne.n	8004d42 <HAL_RCC_ClockConfig+0xde>
      {
        return HAL_ERROR;
 8004d2e:	2301      	movs	r3, #1
 8004d30:	e073      	b.n	8004e1a <HAL_RCC_ClockConfig+0x1b6>
    }
    /* HSI is selected as System Clock Source */
    else
    {
      /* Check the HSI ready flag */
      if (__HAL_RCC_GET_FLAG(RCC_FLAG_HSIRDY) == RESET)
 8004d32:	4b3d      	ldr	r3, [pc, #244]	; (8004e28 <HAL_RCC_ClockConfig+0x1c4>)
 8004d34:	681b      	ldr	r3, [r3, #0]
 8004d36:	f003 0302 	and.w	r3, r3, #2
 8004d3a:	2b00      	cmp	r3, #0
 8004d3c:	d101      	bne.n	8004d42 <HAL_RCC_ClockConfig+0xde>
      {
        return HAL_ERROR;
 8004d3e:	2301      	movs	r3, #1
 8004d40:	e06b      	b.n	8004e1a <HAL_RCC_ClockConfig+0x1b6>
      }
    }
    __HAL_RCC_SYSCLK_CONFIG(RCC_ClkInitStruct->SYSCLKSource);
 8004d42:	4b39      	ldr	r3, [pc, #228]	; (8004e28 <HAL_RCC_ClockConfig+0x1c4>)
 8004d44:	685b      	ldr	r3, [r3, #4]
 8004d46:	f023 0203 	bic.w	r2, r3, #3
 8004d4a:	687b      	ldr	r3, [r7, #4]
 8004d4c:	685b      	ldr	r3, [r3, #4]
 8004d4e:	4936      	ldr	r1, [pc, #216]	; (8004e28 <HAL_RCC_ClockConfig+0x1c4>)
 8004d50:	4313      	orrs	r3, r2
 8004d52:	604b      	str	r3, [r1, #4]

    /* Get Start Tick */
    tickstart = HAL_GetTick();
 8004d54:	f7fd fa48 	bl	80021e8 <HAL_GetTick>
 8004d58:	60f8      	str	r0, [r7, #12]

    while (__HAL_RCC_GET_SYSCLK_SOURCE() != (RCC_ClkInitStruct->SYSCLKSource << RCC_CFGR_SWS_Pos))
 8004d5a:	e00a      	b.n	8004d72 <HAL_RCC_ClockConfig+0x10e>
    {
      if ((HAL_GetTick() - tickstart) > CLOCKSWITCH_TIMEOUT_VALUE)
 8004d5c:	f7fd fa44 	bl	80021e8 <HAL_GetTick>
 8004d60:	4602      	mov	r2, r0
 8004d62:	68fb      	ldr	r3, [r7, #12]
 8004d64:	1ad3      	subs	r3, r2, r3
 8004d66:	f241 3288 	movw	r2, #5000	; 0x1388
 8004d6a:	4293      	cmp	r3, r2
 8004d6c:	d901      	bls.n	8004d72 <HAL_RCC_ClockConfig+0x10e>
      {
        return HAL_TIMEOUT;
 8004d6e:	2303      	movs	r3, #3
 8004d70:	e053      	b.n	8004e1a <HAL_RCC_ClockConfig+0x1b6>
    while (__HAL_RCC_GET_SYSCLK_SOURCE() != (RCC_ClkInitStruct->SYSCLKSource << RCC_CFGR_SWS_Pos))
 8004d72:	4b2d      	ldr	r3, [pc, #180]	; (8004e28 <HAL_RCC_ClockConfig+0x1c4>)
 8004d74:	685b      	ldr	r3, [r3, #4]
 8004d76:	f003 020c 	and.w	r2, r3, #12
 8004d7a:	687b      	ldr	r3, [r7, #4]
 8004d7c:	685b      	ldr	r3, [r3, #4]
 8004d7e:	009b      	lsls	r3, r3, #2
 8004d80:	429a      	cmp	r2, r3
 8004d82:	d1eb      	bne.n	8004d5c <HAL_RCC_ClockConfig+0xf8>
    }
  }

#if defined(FLASH_ACR_LATENCY)
  /* Decreasing the number of wait states because of lower CPU frequency */
  if (FLatency < __HAL_FLASH_GET_LATENCY())
 8004d84:	4b27      	ldr	r3, [pc, #156]	; (8004e24 <HAL_RCC_ClockConfig+0x1c0>)
 8004d86:	681b      	ldr	r3, [r3, #0]
 8004d88:	f003 0307 	and.w	r3, r3, #7
 8004d8c:	683a      	ldr	r2, [r7, #0]
 8004d8e:	429a      	cmp	r2, r3
 8004d90:	d210      	bcs.n	8004db4 <HAL_RCC_ClockConfig+0x150>
  {
    /* Program the new number of wait states to the LATENCY bits in the FLASH_ACR register */
    __HAL_FLASH_SET_LATENCY(FLatency);
 8004d92:	4b24      	ldr	r3, [pc, #144]	; (8004e24 <HAL_RCC_ClockConfig+0x1c0>)
 8004d94:	681b      	ldr	r3, [r3, #0]
 8004d96:	f023 0207 	bic.w	r2, r3, #7
 8004d9a:	4922      	ldr	r1, [pc, #136]	; (8004e24 <HAL_RCC_ClockConfig+0x1c0>)
 8004d9c:	683b      	ldr	r3, [r7, #0]
 8004d9e:	4313      	orrs	r3, r2
 8004da0:	600b      	str	r3, [r1, #0]

    /* Check that the new number of wait states is taken into account to access the Flash
    memory by reading the FLASH_ACR register */
    if (__HAL_FLASH_GET_LATENCY() != FLatency)
 8004da2:	4b20      	ldr	r3, [pc, #128]	; (8004e24 <HAL_RCC_ClockConfig+0x1c0>)
 8004da4:	681b      	ldr	r3, [r3, #0]
 8004da6:	f003 0307 	and.w	r3, r3, #7
 8004daa:	683a      	ldr	r2, [r7, #0]
 8004dac:	429a      	cmp	r2, r3
 8004dae:	d001      	beq.n	8004db4 <HAL_RCC_ClockConfig+0x150>
  {
    return HAL_ERROR;
 8004db0:	2301      	movs	r3, #1
 8004db2:	e032      	b.n	8004e1a <HAL_RCC_ClockConfig+0x1b6>
  }
}
#endif /* FLASH_ACR_LATENCY */

/*-------------------------- PCLK1 Configuration ---------------------------*/
if (((RCC_ClkInitStruct->ClockType) & RCC_CLOCKTYPE_PCLK1) == RCC_CLOCKTYPE_PCLK1)
 8004db4:	687b      	ldr	r3, [r7, #4]
 8004db6:	681b      	ldr	r3, [r3, #0]
 8004db8:	f003 0304 	and.w	r3, r3, #4
 8004dbc:	2b00      	cmp	r3, #0
 8004dbe:	d008      	beq.n	8004dd2 <HAL_RCC_ClockConfig+0x16e>
  {
    assert_param(IS_RCC_PCLK(RCC_ClkInitStruct->APB1CLKDivider));
    MODIFY_REG(RCC->CFGR, RCC_CFGR_PPRE1, RCC_ClkInitStruct->APB1CLKDivider);
 8004dc0:	4b19      	ldr	r3, [pc, #100]	; (8004e28 <HAL_RCC_ClockConfig+0x1c4>)
 8004dc2:	685b      	ldr	r3, [r3, #4]
 8004dc4:	f423 62e0 	bic.w	r2, r3, #1792	; 0x700
 8004dc8:	687b      	ldr	r3, [r7, #4]
 8004dca:	68db      	ldr	r3, [r3, #12]
 8004dcc:	4916      	ldr	r1, [pc, #88]	; (8004e28 <HAL_RCC_ClockConfig+0x1c4>)
 8004dce:	4313      	orrs	r3, r2
 8004dd0:	604b      	str	r3, [r1, #4]
  }

  /*-------------------------- PCLK2 Configuration ---------------------------*/
  if (((RCC_ClkInitStruct->ClockType) & RCC_CLOCKTYPE_PCLK2) == RCC_CLOCKTYPE_PCLK2)
 8004dd2:	687b      	ldr	r3, [r7, #4]
 8004dd4:	681b      	ldr	r3, [r3, #0]
 8004dd6:	f003 0308 	and.w	r3, r3, #8
 8004dda:	2b00      	cmp	r3, #0
 8004ddc:	d009      	beq.n	8004df2 <HAL_RCC_ClockConfig+0x18e>
  {
    assert_param(IS_RCC_PCLK(RCC_ClkInitStruct->APB2CLKDivider));
    MODIFY_REG(RCC->CFGR, RCC_CFGR_PPRE2, ((RCC_ClkInitStruct->APB2CLKDivider) << 3));
 8004dde:	4b12      	ldr	r3, [pc, #72]	; (8004e28 <HAL_RCC_ClockConfig+0x1c4>)
 8004de0:	685b      	ldr	r3, [r3, #4]
 8004de2:	f423 5260 	bic.w	r2, r3, #14336	; 0x3800
 8004de6:	687b      	ldr	r3, [r7, #4]
 8004de8:	691b      	ldr	r3, [r3, #16]
 8004dea:	00db      	lsls	r3, r3, #3
 8004dec:	490e      	ldr	r1, [pc, #56]	; (8004e28 <HAL_RCC_ClockConfig+0x1c4>)
 8004dee:	4313      	orrs	r3, r2
 8004df0:	604b      	str	r3, [r1, #4]
  }

  /* Update the SystemCoreClock global variable */
  SystemCoreClock = HAL_RCC_GetSysClockFreq() >> AHBPrescTable[(RCC->CFGR & RCC_CFGR_HPRE) >> RCC_CFGR_HPRE_Pos];
 8004df2:	f000 f821 	bl	8004e38 <HAL_RCC_GetSysClockFreq>
 8004df6:	4601      	mov	r1, r0
 8004df8:	4b0b      	ldr	r3, [pc, #44]	; (8004e28 <HAL_RCC_ClockConfig+0x1c4>)
 8004dfa:	685b      	ldr	r3, [r3, #4]
 8004dfc:	091b      	lsrs	r3, r3, #4
 8004dfe:	f003 030f 	and.w	r3, r3, #15
 8004e02:	4a0a      	ldr	r2, [pc, #40]	; (8004e2c <HAL_RCC_ClockConfig+0x1c8>)
 8004e04:	5cd3      	ldrb	r3, [r2, r3]
 8004e06:	fa21 f303 	lsr.w	r3, r1, r3
 8004e0a:	4a09      	ldr	r2, [pc, #36]	; (8004e30 <HAL_RCC_ClockConfig+0x1cc>)
 8004e0c:	6013      	str	r3, [r2, #0]

  /* Configure the source of time base considering new system clocks settings*/
  HAL_InitTick(uwTickPrio);
 8004e0e:	4b09      	ldr	r3, [pc, #36]	; (8004e34 <HAL_RCC_ClockConfig+0x1d0>)
 8004e10:	681b      	ldr	r3, [r3, #0]
 8004e12:	4618      	mov	r0, r3
 8004e14:	f7fd f8e2 	bl	8001fdc <HAL_InitTick>

  return HAL_OK;
 8004e18:	2300      	movs	r3, #0
}
 8004e1a:	4618      	mov	r0, r3
 8004e1c:	3710      	adds	r7, #16
 8004e1e:	46bd      	mov	sp, r7
 8004e20:	bd80      	pop	{r7, pc}
 8004e22:	bf00      	nop
 8004e24:	40022000 	.word	0x40022000
 8004e28:	40021000 	.word	0x40021000
 8004e2c:	080085b0 	.word	0x080085b0
 8004e30:	20000000 	.word	0x20000000
 8004e34:	20000004 	.word	0x20000004

08004e38 <HAL_RCC_GetSysClockFreq>:
  *         right SYSCLK value. Otherwise, any configuration based on this function will be incorrect.
  *
  * @retval SYSCLK frequency
  */
uint32_t HAL_RCC_GetSysClockFreq(void)
{
 8004e38:	b490      	push	{r4, r7}
 8004e3a:	b08a      	sub	sp, #40	; 0x28
 8004e3c:	af00      	add	r7, sp, #0
#if defined(RCC_CFGR2_PREDIV1SRC)
  const uint8_t aPLLMULFactorTable[14] = {0, 0, 4, 5, 6, 7, 8, 9, 0, 0, 0, 0, 0, 13};
  const uint8_t aPredivFactorTable[16] = {1, 2, 3, 4, 5, 6, 7, 8, 9, 10, 11, 12, 13, 14, 15, 16};
#else
  const uint8_t aPLLMULFactorTable[16] = {2, 3, 4, 5, 6, 7, 8, 9, 10, 11, 12, 13, 14, 15, 16, 16};
 8004e3e:	4b2a      	ldr	r3, [pc, #168]	; (8004ee8 <HAL_RCC_GetSysClockFreq+0xb0>)
 8004e40:	1d3c      	adds	r4, r7, #4
 8004e42:	cb0f      	ldmia	r3, {r0, r1, r2, r3}
 8004e44:	e884 000f 	stmia.w	r4, {r0, r1, r2, r3}
#if defined(RCC_CFGR2_PREDIV1)
  const uint8_t aPredivFactorTable[16] = {1, 2, 3, 4, 5, 6, 7, 8, 9, 10, 11, 12, 13, 14, 15, 16};
#else
  const uint8_t aPredivFactorTable[2] = {1, 2};
 8004e48:	4b28      	ldr	r3, [pc, #160]	; (8004eec <HAL_RCC_GetSysClockFreq+0xb4>)
 8004e4a:	881b      	ldrh	r3, [r3, #0]
 8004e4c:	803b      	strh	r3, [r7, #0]
#endif /*RCC_CFGR2_PREDIV1*/

#endif
  uint32_t tmpreg = 0U, prediv = 0U, pllclk = 0U, pllmul = 0U;
 8004e4e:	2300      	movs	r3, #0
 8004e50:	61fb      	str	r3, [r7, #28]
 8004e52:	2300      	movs	r3, #0
 8004e54:	61bb      	str	r3, [r7, #24]
 8004e56:	2300      	movs	r3, #0
 8004e58:	627b      	str	r3, [r7, #36]	; 0x24
 8004e5a:	2300      	movs	r3, #0
 8004e5c:	617b      	str	r3, [r7, #20]
  uint32_t sysclockfreq = 0U;
 8004e5e:	2300      	movs	r3, #0
 8004e60:	623b      	str	r3, [r7, #32]
#if defined(RCC_CFGR2_PREDIV1SRC)
  uint32_t prediv2 = 0U, pll2mul = 0U;
#endif /*RCC_CFGR2_PREDIV1SRC*/

  tmpreg = RCC->CFGR;
 8004e62:	4b23      	ldr	r3, [pc, #140]	; (8004ef0 <HAL_RCC_GetSysClockFreq+0xb8>)
 8004e64:	685b      	ldr	r3, [r3, #4]
 8004e66:	61fb      	str	r3, [r7, #28]

  /* Get SYSCLK source -------------------------------------------------------*/
  switch (tmpreg & RCC_CFGR_SWS)
 8004e68:	69fb      	ldr	r3, [r7, #28]
 8004e6a:	f003 030c 	and.w	r3, r3, #12
 8004e6e:	2b04      	cmp	r3, #4
 8004e70:	d002      	beq.n	8004e78 <HAL_RCC_GetSysClockFreq+0x40>
 8004e72:	2b08      	cmp	r3, #8
 8004e74:	d003      	beq.n	8004e7e <HAL_RCC_GetSysClockFreq+0x46>
 8004e76:	e02d      	b.n	8004ed4 <HAL_RCC_GetSysClockFreq+0x9c>
  {
    case RCC_SYSCLKSOURCE_STATUS_HSE:  /* HSE used as system clock */
    {
      sysclockfreq = HSE_VALUE;
 8004e78:	4b1e      	ldr	r3, [pc, #120]	; (8004ef4 <HAL_RCC_GetSysClockFreq+0xbc>)
 8004e7a:	623b      	str	r3, [r7, #32]
      break;
 8004e7c:	e02d      	b.n	8004eda <HAL_RCC_GetSysClockFreq+0xa2>
    }
    case RCC_SYSCLKSOURCE_STATUS_PLLCLK:  /* PLL used as system clock */
    {
      pllmul = aPLLMULFactorTable[(uint32_t)(tmpreg & RCC_CFGR_PLLMULL) >> RCC_CFGR_PLLMULL_Pos];
 8004e7e:	69fb      	ldr	r3, [r7, #28]
 8004e80:	0c9b      	lsrs	r3, r3, #18
 8004e82:	f003 030f 	and.w	r3, r3, #15
 8004e86:	f107 0228 	add.w	r2, r7, #40	; 0x28
 8004e8a:	4413      	add	r3, r2
 8004e8c:	f813 3c24 	ldrb.w	r3, [r3, #-36]
 8004e90:	617b      	str	r3, [r7, #20]
      if ((tmpreg & RCC_CFGR_PLLSRC) != RCC_PLLSOURCE_HSI_DIV2)
 8004e92:	69fb      	ldr	r3, [r7, #28]
 8004e94:	f403 3380 	and.w	r3, r3, #65536	; 0x10000
 8004e98:	2b00      	cmp	r3, #0
 8004e9a:	d013      	beq.n	8004ec4 <HAL_RCC_GetSysClockFreq+0x8c>
      {
#if defined(RCC_CFGR2_PREDIV1)
        prediv = aPredivFactorTable[(uint32_t)(RCC->CFGR2 & RCC_CFGR2_PREDIV1) >> RCC_CFGR2_PREDIV1_Pos];
#else
        prediv = aPredivFactorTable[(uint32_t)(RCC->CFGR & RCC_CFGR_PLLXTPRE) >> RCC_CFGR_PLLXTPRE_Pos];
 8004e9c:	4b14      	ldr	r3, [pc, #80]	; (8004ef0 <HAL_RCC_GetSysClockFreq+0xb8>)
 8004e9e:	685b      	ldr	r3, [r3, #4]
 8004ea0:	0c5b      	lsrs	r3, r3, #17
 8004ea2:	f003 0301 	and.w	r3, r3, #1
 8004ea6:	f107 0228 	add.w	r2, r7, #40	; 0x28
 8004eaa:	4413      	add	r3, r2
 8004eac:	f813 3c28 	ldrb.w	r3, [r3, #-40]
 8004eb0:	61bb      	str	r3, [r7, #24]
        {
          pllclk = pllclk / 2;
        }
#else
        /* HSE used as PLL clock source : PLLCLK = HSE/PREDIV1 * PLLMUL */
        pllclk = (uint32_t)((HSE_VALUE  * pllmul) / prediv);
 8004eb2:	697b      	ldr	r3, [r7, #20]
 8004eb4:	4a0f      	ldr	r2, [pc, #60]	; (8004ef4 <HAL_RCC_GetSysClockFreq+0xbc>)
 8004eb6:	fb02 f203 	mul.w	r2, r2, r3
 8004eba:	69bb      	ldr	r3, [r7, #24]
 8004ebc:	fbb2 f3f3 	udiv	r3, r2, r3
 8004ec0:	627b      	str	r3, [r7, #36]	; 0x24
 8004ec2:	e004      	b.n	8004ece <HAL_RCC_GetSysClockFreq+0x96>
#endif /*RCC_CFGR2_PREDIV1SRC*/
      }
      else
      {
        /* HSI used as PLL clock source : PLLCLK = HSI/2 * PLLMUL */
        pllclk = (uint32_t)((HSI_VALUE >> 1) * pllmul);
 8004ec4:	697b      	ldr	r3, [r7, #20]
 8004ec6:	4a0c      	ldr	r2, [pc, #48]	; (8004ef8 <HAL_RCC_GetSysClockFreq+0xc0>)
 8004ec8:	fb02 f303 	mul.w	r3, r2, r3
 8004ecc:	627b      	str	r3, [r7, #36]	; 0x24
      }
      sysclockfreq = pllclk;
 8004ece:	6a7b      	ldr	r3, [r7, #36]	; 0x24
 8004ed0:	623b      	str	r3, [r7, #32]
      break;
 8004ed2:	e002      	b.n	8004eda <HAL_RCC_GetSysClockFreq+0xa2>
    }
    case RCC_SYSCLKSOURCE_STATUS_HSI:  /* HSI used as system clock source */
    default: /* HSI used as system clock */
    {
      sysclockfreq = HSI_VALUE;
 8004ed4:	4b07      	ldr	r3, [pc, #28]	; (8004ef4 <HAL_RCC_GetSysClockFreq+0xbc>)
 8004ed6:	623b      	str	r3, [r7, #32]
      break;
 8004ed8:	bf00      	nop
    }
  }
  return sysclockfreq;
 8004eda:	6a3b      	ldr	r3, [r7, #32]
}
 8004edc:	4618      	mov	r0, r3
 8004ede:	3728      	adds	r7, #40	; 0x28
 8004ee0:	46bd      	mov	sp, r7
 8004ee2:	bc90      	pop	{r4, r7}
 8004ee4:	4770      	bx	lr
 8004ee6:	bf00      	nop
 8004ee8:	08008524 	.word	0x08008524
 8004eec:	08008534 	.word	0x08008534
 8004ef0:	40021000 	.word	0x40021000
 8004ef4:	007a1200 	.word	0x007a1200
 8004ef8:	003d0900 	.word	0x003d0900

08004efc <HAL_RCC_GetHCLKFreq>:
  * @note   The SystemCoreClock CMSIS variable is used to store System Clock Frequency
  *         and updated within this function
  * @retval HCLK frequency
  */
uint32_t HAL_RCC_GetHCLKFreq(void)
{
 8004efc:	b480      	push	{r7}
 8004efe:	af00      	add	r7, sp, #0
  return SystemCoreClock;
 8004f00:	4b02      	ldr	r3, [pc, #8]	; (8004f0c <HAL_RCC_GetHCLKFreq+0x10>)
 8004f02:	681b      	ldr	r3, [r3, #0]
}
 8004f04:	4618      	mov	r0, r3
 8004f06:	46bd      	mov	sp, r7
 8004f08:	bc80      	pop	{r7}
 8004f0a:	4770      	bx	lr
 8004f0c:	20000000 	.word	0x20000000

08004f10 <HAL_RCC_GetPCLK1Freq>:
  * @note   Each time PCLK1 changes, this function must be called to update the
  *         right PCLK1 value. Otherwise, any configuration based on this function will be incorrect.
  * @retval PCLK1 frequency
  */
uint32_t HAL_RCC_GetPCLK1Freq(void)
{
 8004f10:	b580      	push	{r7, lr}
 8004f12:	af00      	add	r7, sp, #0
  /* Get HCLK source and Compute PCLK1 frequency ---------------------------*/
  return (HAL_RCC_GetHCLKFreq() >> APBPrescTable[(RCC->CFGR & RCC_CFGR_PPRE1) >> RCC_CFGR_PPRE1_Pos]);
 8004f14:	f7ff fff2 	bl	8004efc <HAL_RCC_GetHCLKFreq>
 8004f18:	4601      	mov	r1, r0
 8004f1a:	4b05      	ldr	r3, [pc, #20]	; (8004f30 <HAL_RCC_GetPCLK1Freq+0x20>)
 8004f1c:	685b      	ldr	r3, [r3, #4]
 8004f1e:	0a1b      	lsrs	r3, r3, #8
 8004f20:	f003 0307 	and.w	r3, r3, #7
 8004f24:	4a03      	ldr	r2, [pc, #12]	; (8004f34 <HAL_RCC_GetPCLK1Freq+0x24>)
 8004f26:	5cd3      	ldrb	r3, [r2, r3]
 8004f28:	fa21 f303 	lsr.w	r3, r1, r3
}
 8004f2c:	4618      	mov	r0, r3
 8004f2e:	bd80      	pop	{r7, pc}
 8004f30:	40021000 	.word	0x40021000
 8004f34:	080085c0 	.word	0x080085c0

08004f38 <HAL_RCC_GetPCLK2Freq>:
  * @note   Each time PCLK2 changes, this function must be called to update the
  *         right PCLK2 value. Otherwise, any configuration based on this function will be incorrect.
  * @retval PCLK2 frequency
  */
uint32_t HAL_RCC_GetPCLK2Freq(void)
{
 8004f38:	b580      	push	{r7, lr}
 8004f3a:	af00      	add	r7, sp, #0
  /* Get HCLK source and Compute PCLK2 frequency ---------------------------*/
  return (HAL_RCC_GetHCLKFreq() >> APBPrescTable[(RCC->CFGR & RCC_CFGR_PPRE2) >> RCC_CFGR_PPRE2_Pos]);
 8004f3c:	f7ff ffde 	bl	8004efc <HAL_RCC_GetHCLKFreq>
 8004f40:	4601      	mov	r1, r0
 8004f42:	4b05      	ldr	r3, [pc, #20]	; (8004f58 <HAL_RCC_GetPCLK2Freq+0x20>)
 8004f44:	685b      	ldr	r3, [r3, #4]
 8004f46:	0adb      	lsrs	r3, r3, #11
 8004f48:	f003 0307 	and.w	r3, r3, #7
 8004f4c:	4a03      	ldr	r2, [pc, #12]	; (8004f5c <HAL_RCC_GetPCLK2Freq+0x24>)
 8004f4e:	5cd3      	ldrb	r3, [r2, r3]
 8004f50:	fa21 f303 	lsr.w	r3, r1, r3
}
 8004f54:	4618      	mov	r0, r3
 8004f56:	bd80      	pop	{r7, pc}
 8004f58:	40021000 	.word	0x40021000
 8004f5c:	080085c0 	.word	0x080085c0

08004f60 <HAL_RCC_GetClockConfig>:
  * contains the current clock configuration.
  * @param  pFLatency Pointer on the Flash Latency.
  * @retval None
  */
void HAL_RCC_GetClockConfig(RCC_ClkInitTypeDef  *RCC_ClkInitStruct, uint32_t *pFLatency)
{
 8004f60:	b480      	push	{r7}
 8004f62:	b083      	sub	sp, #12
 8004f64:	af00      	add	r7, sp, #0
 8004f66:	6078      	str	r0, [r7, #4]
 8004f68:	6039      	str	r1, [r7, #0]
  /* Check the parameters */
  assert_param(RCC_ClkInitStruct != NULL);
  assert_param(pFLatency != NULL);

  /* Set all possible values for the Clock type parameter --------------------*/
  RCC_ClkInitStruct->ClockType = RCC_CLOCKTYPE_SYSCLK | RCC_CLOCKTYPE_HCLK | RCC_CLOCKTYPE_PCLK1 | RCC_CLOCKTYPE_PCLK2;
 8004f6a:	687b      	ldr	r3, [r7, #4]
 8004f6c:	220f      	movs	r2, #15
 8004f6e:	601a      	str	r2, [r3, #0]

  /* Get the SYSCLK configuration --------------------------------------------*/
  RCC_ClkInitStruct->SYSCLKSource = (uint32_t)(RCC->CFGR & RCC_CFGR_SW);
 8004f70:	4b11      	ldr	r3, [pc, #68]	; (8004fb8 <HAL_RCC_GetClockConfig+0x58>)
 8004f72:	685b      	ldr	r3, [r3, #4]
 8004f74:	f003 0203 	and.w	r2, r3, #3
 8004f78:	687b      	ldr	r3, [r7, #4]
 8004f7a:	605a      	str	r2, [r3, #4]

  /* Get the HCLK configuration ----------------------------------------------*/
  RCC_ClkInitStruct->AHBCLKDivider = (uint32_t)(RCC->CFGR & RCC_CFGR_HPRE);
 8004f7c:	4b0e      	ldr	r3, [pc, #56]	; (8004fb8 <HAL_RCC_GetClockConfig+0x58>)
 8004f7e:	685b      	ldr	r3, [r3, #4]
 8004f80:	f003 02f0 	and.w	r2, r3, #240	; 0xf0
 8004f84:	687b      	ldr	r3, [r7, #4]
 8004f86:	609a      	str	r2, [r3, #8]

  /* Get the APB1 configuration ----------------------------------------------*/
  RCC_ClkInitStruct->APB1CLKDivider = (uint32_t)(RCC->CFGR & RCC_CFGR_PPRE1);
 8004f88:	4b0b      	ldr	r3, [pc, #44]	; (8004fb8 <HAL_RCC_GetClockConfig+0x58>)
 8004f8a:	685b      	ldr	r3, [r3, #4]
 8004f8c:	f403 62e0 	and.w	r2, r3, #1792	; 0x700
 8004f90:	687b      	ldr	r3, [r7, #4]
 8004f92:	60da      	str	r2, [r3, #12]

  /* Get the APB2 configuration ----------------------------------------------*/
  RCC_ClkInitStruct->APB2CLKDivider = (uint32_t)((RCC->CFGR & RCC_CFGR_PPRE2) >> 3);
 8004f94:	4b08      	ldr	r3, [pc, #32]	; (8004fb8 <HAL_RCC_GetClockConfig+0x58>)
 8004f96:	685b      	ldr	r3, [r3, #4]
 8004f98:	08db      	lsrs	r3, r3, #3
 8004f9a:	f403 62e0 	and.w	r2, r3, #1792	; 0x700
 8004f9e:	687b      	ldr	r3, [r7, #4]
 8004fa0:	611a      	str	r2, [r3, #16]

#if   defined(FLASH_ACR_LATENCY)
  /* Get the Flash Wait State (Latency) configuration ------------------------*/
  *pFLatency = (uint32_t)(FLASH->ACR & FLASH_ACR_LATENCY);
 8004fa2:	4b06      	ldr	r3, [pc, #24]	; (8004fbc <HAL_RCC_GetClockConfig+0x5c>)
 8004fa4:	681b      	ldr	r3, [r3, #0]
 8004fa6:	f003 0207 	and.w	r2, r3, #7
 8004faa:	683b      	ldr	r3, [r7, #0]
 8004fac:	601a      	str	r2, [r3, #0]
#else
  /* For VALUE lines devices, only LATENCY_0 can be set*/
  *pFLatency = (uint32_t)FLASH_LATENCY_0;
#endif
}
 8004fae:	bf00      	nop
 8004fb0:	370c      	adds	r7, #12
 8004fb2:	46bd      	mov	sp, r7
 8004fb4:	bc80      	pop	{r7}
 8004fb6:	4770      	bx	lr
 8004fb8:	40021000 	.word	0x40021000
 8004fbc:	40022000 	.word	0x40022000

08004fc0 <RCC_Delay>:
  * @brief  This function provides delay (in milliseconds) based on CPU cycles method.
  * @param  mdelay: specifies the delay time length, in milliseconds.
  * @retval None
  */
static void RCC_Delay(uint32_t mdelay)
{
 8004fc0:	b480      	push	{r7}
 8004fc2:	b085      	sub	sp, #20
 8004fc4:	af00      	add	r7, sp, #0
 8004fc6:	6078      	str	r0, [r7, #4]
  __IO uint32_t Delay = mdelay * (SystemCoreClock / 8U / 1000U);
 8004fc8:	4b0a      	ldr	r3, [pc, #40]	; (8004ff4 <RCC_Delay+0x34>)
 8004fca:	681b      	ldr	r3, [r3, #0]
 8004fcc:	4a0a      	ldr	r2, [pc, #40]	; (8004ff8 <RCC_Delay+0x38>)
 8004fce:	fba2 2303 	umull	r2, r3, r2, r3
 8004fd2:	0a5b      	lsrs	r3, r3, #9
 8004fd4:	687a      	ldr	r2, [r7, #4]
 8004fd6:	fb02 f303 	mul.w	r3, r2, r3
 8004fda:	60fb      	str	r3, [r7, #12]
  do
  {
    __NOP();
 8004fdc:	bf00      	nop
  }
  while (Delay --);
 8004fde:	68fb      	ldr	r3, [r7, #12]
 8004fe0:	1e5a      	subs	r2, r3, #1
 8004fe2:	60fa      	str	r2, [r7, #12]
 8004fe4:	2b00      	cmp	r3, #0
 8004fe6:	d1f9      	bne.n	8004fdc <RCC_Delay+0x1c>
}
 8004fe8:	bf00      	nop
 8004fea:	3714      	adds	r7, #20
 8004fec:	46bd      	mov	sp, r7
 8004fee:	bc80      	pop	{r7}
 8004ff0:	4770      	bx	lr
 8004ff2:	bf00      	nop
 8004ff4:	20000000 	.word	0x20000000
 8004ff8:	10624dd3 	.word	0x10624dd3

08004ffc <HAL_RCCEx_PeriphCLKConfig>:
  *         manually disable it.
  *
  * @retval HAL status
  */
HAL_StatusTypeDef HAL_RCCEx_PeriphCLKConfig(RCC_PeriphCLKInitTypeDef  *PeriphClkInit)
{
 8004ffc:	b580      	push	{r7, lr}
 8004ffe:	b086      	sub	sp, #24
 8005000:	af00      	add	r7, sp, #0
 8005002:	6078      	str	r0, [r7, #4]
  uint32_t tickstart = 0U, temp_reg = 0U;
 8005004:	2300      	movs	r3, #0
 8005006:	613b      	str	r3, [r7, #16]
 8005008:	2300      	movs	r3, #0
 800500a:	60fb      	str	r3, [r7, #12]

  /* Check the parameters */
  assert_param(IS_RCC_PERIPHCLOCK(PeriphClkInit->PeriphClockSelection));

  /*------------------------------- RTC/LCD Configuration ------------------------*/
  if ((((PeriphClkInit->PeriphClockSelection) & RCC_PERIPHCLK_RTC) == RCC_PERIPHCLK_RTC))
 800500c:	687b      	ldr	r3, [r7, #4]
 800500e:	681b      	ldr	r3, [r3, #0]
 8005010:	f003 0301 	and.w	r3, r3, #1
 8005014:	2b00      	cmp	r3, #0
 8005016:	d07d      	beq.n	8005114 <HAL_RCCEx_PeriphCLKConfig+0x118>
  {
    /* check for RTC Parameters used to output RTCCLK */
    assert_param(IS_RCC_RTCCLKSOURCE(PeriphClkInit->RTCClockSelection));

    FlagStatus       pwrclkchanged = RESET;
 8005018:	2300      	movs	r3, #0
 800501a:	75fb      	strb	r3, [r7, #23]

    /* As soon as function is called to change RTC clock source, activation of the
       power domain is done. */
    /* Requires to enable write access to Backup Domain of necessary */
    if (__HAL_RCC_PWR_IS_CLK_DISABLED())
 800501c:	4b4f      	ldr	r3, [pc, #316]	; (800515c <HAL_RCCEx_PeriphCLKConfig+0x160>)
 800501e:	69db      	ldr	r3, [r3, #28]
 8005020:	f003 5380 	and.w	r3, r3, #268435456	; 0x10000000
 8005024:	2b00      	cmp	r3, #0
 8005026:	d10d      	bne.n	8005044 <HAL_RCCEx_PeriphCLKConfig+0x48>
    {
      __HAL_RCC_PWR_CLK_ENABLE();
 8005028:	4b4c      	ldr	r3, [pc, #304]	; (800515c <HAL_RCCEx_PeriphCLKConfig+0x160>)
 800502a:	69db      	ldr	r3, [r3, #28]
 800502c:	4a4b      	ldr	r2, [pc, #300]	; (800515c <HAL_RCCEx_PeriphCLKConfig+0x160>)
 800502e:	f043 5380 	orr.w	r3, r3, #268435456	; 0x10000000
 8005032:	61d3      	str	r3, [r2, #28]
 8005034:	4b49      	ldr	r3, [pc, #292]	; (800515c <HAL_RCCEx_PeriphCLKConfig+0x160>)
 8005036:	69db      	ldr	r3, [r3, #28]
 8005038:	f003 5380 	and.w	r3, r3, #268435456	; 0x10000000
 800503c:	60bb      	str	r3, [r7, #8]
 800503e:	68bb      	ldr	r3, [r7, #8]
      pwrclkchanged = SET;
 8005040:	2301      	movs	r3, #1
 8005042:	75fb      	strb	r3, [r7, #23]
    }

    if (HAL_IS_BIT_CLR(PWR->CR, PWR_CR_DBP))
 8005044:	4b46      	ldr	r3, [pc, #280]	; (8005160 <HAL_RCCEx_PeriphCLKConfig+0x164>)
 8005046:	681b      	ldr	r3, [r3, #0]
 8005048:	f403 7380 	and.w	r3, r3, #256	; 0x100
 800504c:	2b00      	cmp	r3, #0
 800504e:	d118      	bne.n	8005082 <HAL_RCCEx_PeriphCLKConfig+0x86>
    {
      /* Enable write access to Backup domain */
      SET_BIT(PWR->CR, PWR_CR_DBP);
 8005050:	4b43      	ldr	r3, [pc, #268]	; (8005160 <HAL_RCCEx_PeriphCLKConfig+0x164>)
 8005052:	681b      	ldr	r3, [r3, #0]
 8005054:	4a42      	ldr	r2, [pc, #264]	; (8005160 <HAL_RCCEx_PeriphCLKConfig+0x164>)
 8005056:	f443 7380 	orr.w	r3, r3, #256	; 0x100
 800505a:	6013      	str	r3, [r2, #0]

      /* Wait for Backup domain Write protection disable */
      tickstart = HAL_GetTick();
 800505c:	f7fd f8c4 	bl	80021e8 <HAL_GetTick>
 8005060:	6138      	str	r0, [r7, #16]

      while (HAL_IS_BIT_CLR(PWR->CR, PWR_CR_DBP))
 8005062:	e008      	b.n	8005076 <HAL_RCCEx_PeriphCLKConfig+0x7a>
      {
        if ((HAL_GetTick() - tickstart) > RCC_DBP_TIMEOUT_VALUE)
 8005064:	f7fd f8c0 	bl	80021e8 <HAL_GetTick>
 8005068:	4602      	mov	r2, r0
 800506a:	693b      	ldr	r3, [r7, #16]
 800506c:	1ad3      	subs	r3, r2, r3
 800506e:	2b64      	cmp	r3, #100	; 0x64
 8005070:	d901      	bls.n	8005076 <HAL_RCCEx_PeriphCLKConfig+0x7a>
        {
          return HAL_TIMEOUT;
 8005072:	2303      	movs	r3, #3
 8005074:	e06d      	b.n	8005152 <HAL_RCCEx_PeriphCLKConfig+0x156>
      while (HAL_IS_BIT_CLR(PWR->CR, PWR_CR_DBP))
 8005076:	4b3a      	ldr	r3, [pc, #232]	; (8005160 <HAL_RCCEx_PeriphCLKConfig+0x164>)
 8005078:	681b      	ldr	r3, [r3, #0]
 800507a:	f403 7380 	and.w	r3, r3, #256	; 0x100
 800507e:	2b00      	cmp	r3, #0
 8005080:	d0f0      	beq.n	8005064 <HAL_RCCEx_PeriphCLKConfig+0x68>
        }
      }
    }

    /* Reset the Backup domain only if the RTC Clock source selection is modified from reset value */
    temp_reg = (RCC->BDCR & RCC_BDCR_RTCSEL);
 8005082:	4b36      	ldr	r3, [pc, #216]	; (800515c <HAL_RCCEx_PeriphCLKConfig+0x160>)
 8005084:	6a1b      	ldr	r3, [r3, #32]
 8005086:	f403 7340 	and.w	r3, r3, #768	; 0x300
 800508a:	60fb      	str	r3, [r7, #12]
    if ((temp_reg != 0x00000000U) && (temp_reg != (PeriphClkInit->RTCClockSelection & RCC_BDCR_RTCSEL)))
 800508c:	68fb      	ldr	r3, [r7, #12]
 800508e:	2b00      	cmp	r3, #0
 8005090:	d02e      	beq.n	80050f0 <HAL_RCCEx_PeriphCLKConfig+0xf4>
 8005092:	687b      	ldr	r3, [r7, #4]
 8005094:	685b      	ldr	r3, [r3, #4]
 8005096:	f403 7340 	and.w	r3, r3, #768	; 0x300
 800509a:	68fa      	ldr	r2, [r7, #12]
 800509c:	429a      	cmp	r2, r3
 800509e:	d027      	beq.n	80050f0 <HAL_RCCEx_PeriphCLKConfig+0xf4>
    {
      /* Store the content of BDCR register before the reset of Backup Domain */
      temp_reg = (RCC->BDCR & ~(RCC_BDCR_RTCSEL));
 80050a0:	4b2e      	ldr	r3, [pc, #184]	; (800515c <HAL_RCCEx_PeriphCLKConfig+0x160>)
 80050a2:	6a1b      	ldr	r3, [r3, #32]
 80050a4:	f423 7340 	bic.w	r3, r3, #768	; 0x300
 80050a8:	60fb      	str	r3, [r7, #12]
      /* RTC Clock selection can be changed only if the Backup Domain is reset */
      __HAL_RCC_BACKUPRESET_FORCE();
 80050aa:	4b2e      	ldr	r3, [pc, #184]	; (8005164 <HAL_RCCEx_PeriphCLKConfig+0x168>)
 80050ac:	2201      	movs	r2, #1
 80050ae:	601a      	str	r2, [r3, #0]
      __HAL_RCC_BACKUPRESET_RELEASE();
 80050b0:	4b2c      	ldr	r3, [pc, #176]	; (8005164 <HAL_RCCEx_PeriphCLKConfig+0x168>)
 80050b2:	2200      	movs	r2, #0
 80050b4:	601a      	str	r2, [r3, #0]
      /* Restore the Content of BDCR register */
      RCC->BDCR = temp_reg;
 80050b6:	4a29      	ldr	r2, [pc, #164]	; (800515c <HAL_RCCEx_PeriphCLKConfig+0x160>)
 80050b8:	68fb      	ldr	r3, [r7, #12]
 80050ba:	6213      	str	r3, [r2, #32]

      /* Wait for LSERDY if LSE was enabled */
      if (HAL_IS_BIT_SET(temp_reg, RCC_BDCR_LSEON))
 80050bc:	68fb      	ldr	r3, [r7, #12]
 80050be:	f003 0301 	and.w	r3, r3, #1
 80050c2:	2b00      	cmp	r3, #0
 80050c4:	d014      	beq.n	80050f0 <HAL_RCCEx_PeriphCLKConfig+0xf4>
      {
        /* Get Start Tick */
        tickstart = HAL_GetTick();
 80050c6:	f7fd f88f 	bl	80021e8 <HAL_GetTick>
 80050ca:	6138      	str	r0, [r7, #16]

        /* Wait till LSE is ready */
        while (__HAL_RCC_GET_FLAG(RCC_FLAG_LSERDY) == RESET)
 80050cc:	e00a      	b.n	80050e4 <HAL_RCCEx_PeriphCLKConfig+0xe8>
        {
          if ((HAL_GetTick() - tickstart) > RCC_LSE_TIMEOUT_VALUE)
 80050ce:	f7fd f88b 	bl	80021e8 <HAL_GetTick>
 80050d2:	4602      	mov	r2, r0
 80050d4:	693b      	ldr	r3, [r7, #16]
 80050d6:	1ad3      	subs	r3, r2, r3
 80050d8:	f241 3288 	movw	r2, #5000	; 0x1388
 80050dc:	4293      	cmp	r3, r2
 80050de:	d901      	bls.n	80050e4 <HAL_RCCEx_PeriphCLKConfig+0xe8>
          {
            return HAL_TIMEOUT;
 80050e0:	2303      	movs	r3, #3
 80050e2:	e036      	b.n	8005152 <HAL_RCCEx_PeriphCLKConfig+0x156>
        while (__HAL_RCC_GET_FLAG(RCC_FLAG_LSERDY) == RESET)
 80050e4:	4b1d      	ldr	r3, [pc, #116]	; (800515c <HAL_RCCEx_PeriphCLKConfig+0x160>)
 80050e6:	6a1b      	ldr	r3, [r3, #32]
 80050e8:	f003 0302 	and.w	r3, r3, #2
 80050ec:	2b00      	cmp	r3, #0
 80050ee:	d0ee      	beq.n	80050ce <HAL_RCCEx_PeriphCLKConfig+0xd2>
          }
        }
      }
    }
    __HAL_RCC_RTC_CONFIG(PeriphClkInit->RTCClockSelection);
 80050f0:	4b1a      	ldr	r3, [pc, #104]	; (800515c <HAL_RCCEx_PeriphCLKConfig+0x160>)
 80050f2:	6a1b      	ldr	r3, [r3, #32]
 80050f4:	f423 7240 	bic.w	r2, r3, #768	; 0x300
 80050f8:	687b      	ldr	r3, [r7, #4]
 80050fa:	685b      	ldr	r3, [r3, #4]
 80050fc:	4917      	ldr	r1, [pc, #92]	; (800515c <HAL_RCCEx_PeriphCLKConfig+0x160>)
 80050fe:	4313      	orrs	r3, r2
 8005100:	620b      	str	r3, [r1, #32]

    /* Require to disable power clock if necessary */
    if (pwrclkchanged == SET)
 8005102:	7dfb      	ldrb	r3, [r7, #23]
 8005104:	2b01      	cmp	r3, #1
 8005106:	d105      	bne.n	8005114 <HAL_RCCEx_PeriphCLKConfig+0x118>
    {
      __HAL_RCC_PWR_CLK_DISABLE();
 8005108:	4b14      	ldr	r3, [pc, #80]	; (800515c <HAL_RCCEx_PeriphCLKConfig+0x160>)
 800510a:	69db      	ldr	r3, [r3, #28]
 800510c:	4a13      	ldr	r2, [pc, #76]	; (800515c <HAL_RCCEx_PeriphCLKConfig+0x160>)
 800510e:	f023 5380 	bic.w	r3, r3, #268435456	; 0x10000000
 8005112:	61d3      	str	r3, [r2, #28]
    }
  }

  /*------------------------------ ADC clock Configuration ------------------*/
  if (((PeriphClkInit->PeriphClockSelection) & RCC_PERIPHCLK_ADC) == RCC_PERIPHCLK_ADC)
 8005114:	687b      	ldr	r3, [r7, #4]
 8005116:	681b      	ldr	r3, [r3, #0]
 8005118:	f003 0302 	and.w	r3, r3, #2
 800511c:	2b00      	cmp	r3, #0
 800511e:	d008      	beq.n	8005132 <HAL_RCCEx_PeriphCLKConfig+0x136>
  {
    /* Check the parameters */
    assert_param(IS_RCC_ADCPLLCLK_DIV(PeriphClkInit->AdcClockSelection));

    /* Configure the ADC clock source */
    __HAL_RCC_ADC_CONFIG(PeriphClkInit->AdcClockSelection);
 8005120:	4b0e      	ldr	r3, [pc, #56]	; (800515c <HAL_RCCEx_PeriphCLKConfig+0x160>)
 8005122:	685b      	ldr	r3, [r3, #4]
 8005124:	f423 4240 	bic.w	r2, r3, #49152	; 0xc000
 8005128:	687b      	ldr	r3, [r7, #4]
 800512a:	689b      	ldr	r3, [r3, #8]
 800512c:	490b      	ldr	r1, [pc, #44]	; (800515c <HAL_RCCEx_PeriphCLKConfig+0x160>)
 800512e:	4313      	orrs	r3, r2
 8005130:	604b      	str	r3, [r1, #4]

#if defined(STM32F102x6) || defined(STM32F102xB) || defined(STM32F103x6)\
 || defined(STM32F103xB) || defined(STM32F103xE) || defined(STM32F103xG)\
 || defined(STM32F105xC) || defined(STM32F107xC)
  /*------------------------------ USB clock Configuration ------------------*/
  if (((PeriphClkInit->PeriphClockSelection) & RCC_PERIPHCLK_USB) == RCC_PERIPHCLK_USB)
 8005132:	687b      	ldr	r3, [r7, #4]
 8005134:	681b      	ldr	r3, [r3, #0]
 8005136:	f003 0310 	and.w	r3, r3, #16
 800513a:	2b00      	cmp	r3, #0
 800513c:	d008      	beq.n	8005150 <HAL_RCCEx_PeriphCLKConfig+0x154>
  {
    /* Check the parameters */
    assert_param(IS_RCC_USBPLLCLK_DIV(PeriphClkInit->UsbClockSelection));

    /* Configure the USB clock source */
    __HAL_RCC_USB_CONFIG(PeriphClkInit->UsbClockSelection);
 800513e:	4b07      	ldr	r3, [pc, #28]	; (800515c <HAL_RCCEx_PeriphCLKConfig+0x160>)
 8005140:	685b      	ldr	r3, [r3, #4]
 8005142:	f423 0280 	bic.w	r2, r3, #4194304	; 0x400000
 8005146:	687b      	ldr	r3, [r7, #4]
 8005148:	68db      	ldr	r3, [r3, #12]
 800514a:	4904      	ldr	r1, [pc, #16]	; (800515c <HAL_RCCEx_PeriphCLKConfig+0x160>)
 800514c:	4313      	orrs	r3, r2
 800514e:	604b      	str	r3, [r1, #4]
  }
#endif /* STM32F102x6 || STM32F102xB || STM32F103x6 || STM32F103xB || STM32F103xE || STM32F103xG || STM32F105xC || STM32F107xC */

  return HAL_OK;
 8005150:	2300      	movs	r3, #0
}
 8005152:	4618      	mov	r0, r3
 8005154:	3718      	adds	r7, #24
 8005156:	46bd      	mov	sp, r7
 8005158:	bd80      	pop	{r7, pc}
 800515a:	bf00      	nop
 800515c:	40021000 	.word	0x40021000
 8005160:	40007000 	.word	0x40007000
 8005164:	42420440 	.word	0x42420440

08005168 <HAL_TIM_Base_Init>:
  *         Ex: call @ref HAL_TIM_Base_DeInit() before HAL_TIM_Base_Init()
  * @param  htim TIM Base handle
  * @retval HAL status
  */
HAL_StatusTypeDef HAL_TIM_Base_Init(TIM_HandleTypeDef *htim)
{
 8005168:	b580      	push	{r7, lr}
 800516a:	b082      	sub	sp, #8
 800516c:	af00      	add	r7, sp, #0
 800516e:	6078      	str	r0, [r7, #4]
  /* Check the TIM handle allocation */
  if (htim == NULL)
 8005170:	687b      	ldr	r3, [r7, #4]
 8005172:	2b00      	cmp	r3, #0
 8005174:	d101      	bne.n	800517a <HAL_TIM_Base_Init+0x12>
  {
    return HAL_ERROR;
 8005176:	2301      	movs	r3, #1
 8005178:	e01d      	b.n	80051b6 <HAL_TIM_Base_Init+0x4e>
  assert_param(IS_TIM_INSTANCE(htim->Instance));
  assert_param(IS_TIM_COUNTER_MODE(htim->Init.CounterMode));
  assert_param(IS_TIM_CLOCKDIVISION_DIV(htim->Init.ClockDivision));
  assert_param(IS_TIM_AUTORELOAD_PRELOAD(htim->Init.AutoReloadPreload));

  if (htim->State == HAL_TIM_STATE_RESET)
 800517a:	687b      	ldr	r3, [r7, #4]
 800517c:	f893 303d 	ldrb.w	r3, [r3, #61]	; 0x3d
 8005180:	b2db      	uxtb	r3, r3
 8005182:	2b00      	cmp	r3, #0
 8005184:	d106      	bne.n	8005194 <HAL_TIM_Base_Init+0x2c>
  {
    /* Allocate lock resource and initialize it */
    htim->Lock = HAL_UNLOCKED;
 8005186:	687b      	ldr	r3, [r7, #4]
 8005188:	2200      	movs	r2, #0
 800518a:	f883 203c 	strb.w	r2, [r3, #60]	; 0x3c
    }
    /* Init the low level hardware : GPIO, CLOCK, NVIC */
    htim->Base_MspInitCallback(htim);
#else
    /* Init the low level hardware : GPIO, CLOCK, NVIC */
    HAL_TIM_Base_MspInit(htim);
 800518e:	6878      	ldr	r0, [r7, #4]
 8005190:	f000 f815 	bl	80051be <HAL_TIM_Base_MspInit>
#endif /* USE_HAL_TIM_REGISTER_CALLBACKS */
  }

  /* Set the TIM state */
  htim->State = HAL_TIM_STATE_BUSY;
 8005194:	687b      	ldr	r3, [r7, #4]
 8005196:	2202      	movs	r2, #2
 8005198:	f883 203d 	strb.w	r2, [r3, #61]	; 0x3d

  /* Set the Time Base configuration */
  TIM_Base_SetConfig(htim->Instance, &htim->Init);
 800519c:	687b      	ldr	r3, [r7, #4]
 800519e:	681a      	ldr	r2, [r3, #0]
 80051a0:	687b      	ldr	r3, [r7, #4]
 80051a2:	3304      	adds	r3, #4
 80051a4:	4619      	mov	r1, r3
 80051a6:	4610      	mov	r0, r2
 80051a8:	f000 f962 	bl	8005470 <TIM_Base_SetConfig>

  /* Initialize the TIM state*/
  htim->State = HAL_TIM_STATE_READY;
 80051ac:	687b      	ldr	r3, [r7, #4]
 80051ae:	2201      	movs	r2, #1
 80051b0:	f883 203d 	strb.w	r2, [r3, #61]	; 0x3d

  return HAL_OK;
 80051b4:	2300      	movs	r3, #0
}
 80051b6:	4618      	mov	r0, r3
 80051b8:	3708      	adds	r7, #8
 80051ba:	46bd      	mov	sp, r7
 80051bc:	bd80      	pop	{r7, pc}

080051be <HAL_TIM_Base_MspInit>:
  * @brief  Initializes the TIM Base MSP.
  * @param  htim TIM Base handle
  * @retval None
  */
__weak void HAL_TIM_Base_MspInit(TIM_HandleTypeDef *htim)
{
 80051be:	b480      	push	{r7}
 80051c0:	b083      	sub	sp, #12
 80051c2:	af00      	add	r7, sp, #0
 80051c4:	6078      	str	r0, [r7, #4]
  UNUSED(htim);

  /* NOTE : This function should not be modified, when the callback is needed,
            the HAL_TIM_Base_MspInit could be implemented in the user file
   */
}
 80051c6:	bf00      	nop
 80051c8:	370c      	adds	r7, #12
 80051ca:	46bd      	mov	sp, r7
 80051cc:	bc80      	pop	{r7}
 80051ce:	4770      	bx	lr

080051d0 <HAL_TIM_Base_Start_IT>:
  * @brief  Starts the TIM Base generation in interrupt mode.
  * @param  htim TIM Base handle
  * @retval HAL status
  */
HAL_StatusTypeDef HAL_TIM_Base_Start_IT(TIM_HandleTypeDef *htim)
{
 80051d0:	b480      	push	{r7}
 80051d2:	b085      	sub	sp, #20
 80051d4:	af00      	add	r7, sp, #0
 80051d6:	6078      	str	r0, [r7, #4]

  /* Check the parameters */
  assert_param(IS_TIM_INSTANCE(htim->Instance));

  /* Enable the TIM Update interrupt */
  __HAL_TIM_ENABLE_IT(htim, TIM_IT_UPDATE);
 80051d8:	687b      	ldr	r3, [r7, #4]
 80051da:	681b      	ldr	r3, [r3, #0]
 80051dc:	68da      	ldr	r2, [r3, #12]
 80051de:	687b      	ldr	r3, [r7, #4]
 80051e0:	681b      	ldr	r3, [r3, #0]
 80051e2:	f042 0201 	orr.w	r2, r2, #1
 80051e6:	60da      	str	r2, [r3, #12]

  /* Enable the Peripheral, except in trigger mode where enable is automatically done with trigger */
  tmpsmcr = htim->Instance->SMCR & TIM_SMCR_SMS;
 80051e8:	687b      	ldr	r3, [r7, #4]
 80051ea:	681b      	ldr	r3, [r3, #0]
 80051ec:	689b      	ldr	r3, [r3, #8]
 80051ee:	f003 0307 	and.w	r3, r3, #7
 80051f2:	60fb      	str	r3, [r7, #12]
  if (!IS_TIM_SLAVEMODE_TRIGGER_ENABLED(tmpsmcr))
 80051f4:	68fb      	ldr	r3, [r7, #12]
 80051f6:	2b06      	cmp	r3, #6
 80051f8:	d007      	beq.n	800520a <HAL_TIM_Base_Start_IT+0x3a>
  {
    __HAL_TIM_ENABLE(htim);
 80051fa:	687b      	ldr	r3, [r7, #4]
 80051fc:	681b      	ldr	r3, [r3, #0]
 80051fe:	681a      	ldr	r2, [r3, #0]
 8005200:	687b      	ldr	r3, [r7, #4]
 8005202:	681b      	ldr	r3, [r3, #0]
 8005204:	f042 0201 	orr.w	r2, r2, #1
 8005208:	601a      	str	r2, [r3, #0]
  }

  /* Return function status */
  return HAL_OK;
 800520a:	2300      	movs	r3, #0
}
 800520c:	4618      	mov	r0, r3
 800520e:	3714      	adds	r7, #20
 8005210:	46bd      	mov	sp, r7
 8005212:	bc80      	pop	{r7}
 8005214:	4770      	bx	lr

08005216 <HAL_TIM_IRQHandler>:
  * @brief  This function handles TIM interrupts requests.
  * @param  htim TIM  handle
  * @retval None
  */
void HAL_TIM_IRQHandler(TIM_HandleTypeDef *htim)
{
 8005216:	b580      	push	{r7, lr}
 8005218:	b082      	sub	sp, #8
 800521a:	af00      	add	r7, sp, #0
 800521c:	6078      	str	r0, [r7, #4]
  /* Capture compare 1 event */
  if (__HAL_TIM_GET_FLAG(htim, TIM_FLAG_CC1) != RESET)
 800521e:	687b      	ldr	r3, [r7, #4]
 8005220:	681b      	ldr	r3, [r3, #0]
 8005222:	691b      	ldr	r3, [r3, #16]
 8005224:	f003 0302 	and.w	r3, r3, #2
 8005228:	2b02      	cmp	r3, #2
 800522a:	d122      	bne.n	8005272 <HAL_TIM_IRQHandler+0x5c>
  {
    if (__HAL_TIM_GET_IT_SOURCE(htim, TIM_IT_CC1) != RESET)
 800522c:	687b      	ldr	r3, [r7, #4]
 800522e:	681b      	ldr	r3, [r3, #0]
 8005230:	68db      	ldr	r3, [r3, #12]
 8005232:	f003 0302 	and.w	r3, r3, #2
 8005236:	2b02      	cmp	r3, #2
 8005238:	d11b      	bne.n	8005272 <HAL_TIM_IRQHandler+0x5c>
    {
      {
        __HAL_TIM_CLEAR_IT(htim, TIM_IT_CC1);
 800523a:	687b      	ldr	r3, [r7, #4]
 800523c:	681b      	ldr	r3, [r3, #0]
 800523e:	f06f 0202 	mvn.w	r2, #2
 8005242:	611a      	str	r2, [r3, #16]
        htim->Channel = HAL_TIM_ACTIVE_CHANNEL_1;
 8005244:	687b      	ldr	r3, [r7, #4]
 8005246:	2201      	movs	r2, #1
 8005248:	771a      	strb	r2, [r3, #28]

        /* Input capture event */
        if ((htim->Instance->CCMR1 & TIM_CCMR1_CC1S) != 0x00U)
 800524a:	687b      	ldr	r3, [r7, #4]
 800524c:	681b      	ldr	r3, [r3, #0]
 800524e:	699b      	ldr	r3, [r3, #24]
 8005250:	f003 0303 	and.w	r3, r3, #3
 8005254:	2b00      	cmp	r3, #0
 8005256:	d003      	beq.n	8005260 <HAL_TIM_IRQHandler+0x4a>
        {
#if (USE_HAL_TIM_REGISTER_CALLBACKS == 1)
          htim->IC_CaptureCallback(htim);
#else
          HAL_TIM_IC_CaptureCallback(htim);
 8005258:	6878      	ldr	r0, [r7, #4]
 800525a:	f000 f8ed 	bl	8005438 <HAL_TIM_IC_CaptureCallback>
 800525e:	e005      	b.n	800526c <HAL_TIM_IRQHandler+0x56>
        {
#if (USE_HAL_TIM_REGISTER_CALLBACKS == 1)
          htim->OC_DelayElapsedCallback(htim);
          htim->PWM_PulseFinishedCallback(htim);
#else
          HAL_TIM_OC_DelayElapsedCallback(htim);
 8005260:	6878      	ldr	r0, [r7, #4]
 8005262:	f000 f8e0 	bl	8005426 <HAL_TIM_OC_DelayElapsedCallback>
          HAL_TIM_PWM_PulseFinishedCallback(htim);
 8005266:	6878      	ldr	r0, [r7, #4]
 8005268:	f000 f8ef 	bl	800544a <HAL_TIM_PWM_PulseFinishedCallback>
#endif /* USE_HAL_TIM_REGISTER_CALLBACKS */
        }
        htim->Channel = HAL_TIM_ACTIVE_CHANNEL_CLEARED;
 800526c:	687b      	ldr	r3, [r7, #4]
 800526e:	2200      	movs	r2, #0
 8005270:	771a      	strb	r2, [r3, #28]
      }
    }
  }
  /* Capture compare 2 event */
  if (__HAL_TIM_GET_FLAG(htim, TIM_FLAG_CC2) != RESET)
 8005272:	687b      	ldr	r3, [r7, #4]
 8005274:	681b      	ldr	r3, [r3, #0]
 8005276:	691b      	ldr	r3, [r3, #16]
 8005278:	f003 0304 	and.w	r3, r3, #4
 800527c:	2b04      	cmp	r3, #4
 800527e:	d122      	bne.n	80052c6 <HAL_TIM_IRQHandler+0xb0>
  {
    if (__HAL_TIM_GET_IT_SOURCE(htim, TIM_IT_CC2) != RESET)
 8005280:	687b      	ldr	r3, [r7, #4]
 8005282:	681b      	ldr	r3, [r3, #0]
 8005284:	68db      	ldr	r3, [r3, #12]
 8005286:	f003 0304 	and.w	r3, r3, #4
 800528a:	2b04      	cmp	r3, #4
 800528c:	d11b      	bne.n	80052c6 <HAL_TIM_IRQHandler+0xb0>
    {
      __HAL_TIM_CLEAR_IT(htim, TIM_IT_CC2);
 800528e:	687b      	ldr	r3, [r7, #4]
 8005290:	681b      	ldr	r3, [r3, #0]
 8005292:	f06f 0204 	mvn.w	r2, #4
 8005296:	611a      	str	r2, [r3, #16]
      htim->Channel = HAL_TIM_ACTIVE_CHANNEL_2;
 8005298:	687b      	ldr	r3, [r7, #4]
 800529a:	2202      	movs	r2, #2
 800529c:	771a      	strb	r2, [r3, #28]
      /* Input capture event */
      if ((htim->Instance->CCMR1 & TIM_CCMR1_CC2S) != 0x00U)
 800529e:	687b      	ldr	r3, [r7, #4]
 80052a0:	681b      	ldr	r3, [r3, #0]
 80052a2:	699b      	ldr	r3, [r3, #24]
 80052a4:	f403 7340 	and.w	r3, r3, #768	; 0x300
 80052a8:	2b00      	cmp	r3, #0
 80052aa:	d003      	beq.n	80052b4 <HAL_TIM_IRQHandler+0x9e>
      {
#if (USE_HAL_TIM_REGISTER_CALLBACKS == 1)
        htim->IC_CaptureCallback(htim);
#else
        HAL_TIM_IC_CaptureCallback(htim);
 80052ac:	6878      	ldr	r0, [r7, #4]
 80052ae:	f000 f8c3 	bl	8005438 <HAL_TIM_IC_CaptureCallback>
 80052b2:	e005      	b.n	80052c0 <HAL_TIM_IRQHandler+0xaa>
      {
#if (USE_HAL_TIM_REGISTER_CALLBACKS == 1)
        htim->OC_DelayElapsedCallback(htim);
        htim->PWM_PulseFinishedCallback(htim);
#else
        HAL_TIM_OC_DelayElapsedCallback(htim);
 80052b4:	6878      	ldr	r0, [r7, #4]
 80052b6:	f000 f8b6 	bl	8005426 <HAL_TIM_OC_DelayElapsedCallback>
        HAL_TIM_PWM_PulseFinishedCallback(htim);
 80052ba:	6878      	ldr	r0, [r7, #4]
 80052bc:	f000 f8c5 	bl	800544a <HAL_TIM_PWM_PulseFinishedCallback>
#endif /* USE_HAL_TIM_REGISTER_CALLBACKS */
      }
      htim->Channel = HAL_TIM_ACTIVE_CHANNEL_CLEARED;
 80052c0:	687b      	ldr	r3, [r7, #4]
 80052c2:	2200      	movs	r2, #0
 80052c4:	771a      	strb	r2, [r3, #28]
    }
  }
  /* Capture compare 3 event */
  if (__HAL_TIM_GET_FLAG(htim, TIM_FLAG_CC3) != RESET)
 80052c6:	687b      	ldr	r3, [r7, #4]
 80052c8:	681b      	ldr	r3, [r3, #0]
 80052ca:	691b      	ldr	r3, [r3, #16]
 80052cc:	f003 0308 	and.w	r3, r3, #8
 80052d0:	2b08      	cmp	r3, #8
 80052d2:	d122      	bne.n	800531a <HAL_TIM_IRQHandler+0x104>
  {
    if (__HAL_TIM_GET_IT_SOURCE(htim, TIM_IT_CC3) != RESET)
 80052d4:	687b      	ldr	r3, [r7, #4]
 80052d6:	681b      	ldr	r3, [r3, #0]
 80052d8:	68db      	ldr	r3, [r3, #12]
 80052da:	f003 0308 	and.w	r3, r3, #8
 80052de:	2b08      	cmp	r3, #8
 80052e0:	d11b      	bne.n	800531a <HAL_TIM_IRQHandler+0x104>
    {
      __HAL_TIM_CLEAR_IT(htim, TIM_IT_CC3);
 80052e2:	687b      	ldr	r3, [r7, #4]
 80052e4:	681b      	ldr	r3, [r3, #0]
 80052e6:	f06f 0208 	mvn.w	r2, #8
 80052ea:	611a      	str	r2, [r3, #16]
      htim->Channel = HAL_TIM_ACTIVE_CHANNEL_3;
 80052ec:	687b      	ldr	r3, [r7, #4]
 80052ee:	2204      	movs	r2, #4
 80052f0:	771a      	strb	r2, [r3, #28]
      /* Input capture event */
      if ((htim->Instance->CCMR2 & TIM_CCMR2_CC3S) != 0x00U)
 80052f2:	687b      	ldr	r3, [r7, #4]
 80052f4:	681b      	ldr	r3, [r3, #0]
 80052f6:	69db      	ldr	r3, [r3, #28]
 80052f8:	f003 0303 	and.w	r3, r3, #3
 80052fc:	2b00      	cmp	r3, #0
 80052fe:	d003      	beq.n	8005308 <HAL_TIM_IRQHandler+0xf2>
      {
#if (USE_HAL_TIM_REGISTER_CALLBACKS == 1)
        htim->IC_CaptureCallback(htim);
#else
        HAL_TIM_IC_CaptureCallback(htim);
 8005300:	6878      	ldr	r0, [r7, #4]
 8005302:	f000 f899 	bl	8005438 <HAL_TIM_IC_CaptureCallback>
 8005306:	e005      	b.n	8005314 <HAL_TIM_IRQHandler+0xfe>
      {
#if (USE_HAL_TIM_REGISTER_CALLBACKS == 1)
        htim->OC_DelayElapsedCallback(htim);
        htim->PWM_PulseFinishedCallback(htim);
#else
        HAL_TIM_OC_DelayElapsedCallback(htim);
 8005308:	6878      	ldr	r0, [r7, #4]
 800530a:	f000 f88c 	bl	8005426 <HAL_TIM_OC_DelayElapsedCallback>
        HAL_TIM_PWM_PulseFinishedCallback(htim);
 800530e:	6878      	ldr	r0, [r7, #4]
 8005310:	f000 f89b 	bl	800544a <HAL_TIM_PWM_PulseFinishedCallback>
#endif /* USE_HAL_TIM_REGISTER_CALLBACKS */
      }
      htim->Channel = HAL_TIM_ACTIVE_CHANNEL_CLEARED;
 8005314:	687b      	ldr	r3, [r7, #4]
 8005316:	2200      	movs	r2, #0
 8005318:	771a      	strb	r2, [r3, #28]
    }
  }
  /* Capture compare 4 event */
  if (__HAL_TIM_GET_FLAG(htim, TIM_FLAG_CC4) != RESET)
 800531a:	687b      	ldr	r3, [r7, #4]
 800531c:	681b      	ldr	r3, [r3, #0]
 800531e:	691b      	ldr	r3, [r3, #16]
 8005320:	f003 0310 	and.w	r3, r3, #16
 8005324:	2b10      	cmp	r3, #16
 8005326:	d122      	bne.n	800536e <HAL_TIM_IRQHandler+0x158>
  {
    if (__HAL_TIM_GET_IT_SOURCE(htim, TIM_IT_CC4) != RESET)
 8005328:	687b      	ldr	r3, [r7, #4]
 800532a:	681b      	ldr	r3, [r3, #0]
 800532c:	68db      	ldr	r3, [r3, #12]
 800532e:	f003 0310 	and.w	r3, r3, #16
 8005332:	2b10      	cmp	r3, #16
 8005334:	d11b      	bne.n	800536e <HAL_TIM_IRQHandler+0x158>
    {
      __HAL_TIM_CLEAR_IT(htim, TIM_IT_CC4);
 8005336:	687b      	ldr	r3, [r7, #4]
 8005338:	681b      	ldr	r3, [r3, #0]
 800533a:	f06f 0210 	mvn.w	r2, #16
 800533e:	611a      	str	r2, [r3, #16]
      htim->Channel = HAL_TIM_ACTIVE_CHANNEL_4;
 8005340:	687b      	ldr	r3, [r7, #4]
 8005342:	2208      	movs	r2, #8
 8005344:	771a      	strb	r2, [r3, #28]
      /* Input capture event */
      if ((htim->Instance->CCMR2 & TIM_CCMR2_CC4S) != 0x00U)
 8005346:	687b      	ldr	r3, [r7, #4]
 8005348:	681b      	ldr	r3, [r3, #0]
 800534a:	69db      	ldr	r3, [r3, #28]
 800534c:	f403 7340 	and.w	r3, r3, #768	; 0x300
 8005350:	2b00      	cmp	r3, #0
 8005352:	d003      	beq.n	800535c <HAL_TIM_IRQHandler+0x146>
      {
#if (USE_HAL_TIM_REGISTER_CALLBACKS == 1)
        htim->IC_CaptureCallback(htim);
#else
        HAL_TIM_IC_CaptureCallback(htim);
 8005354:	6878      	ldr	r0, [r7, #4]
 8005356:	f000 f86f 	bl	8005438 <HAL_TIM_IC_CaptureCallback>
 800535a:	e005      	b.n	8005368 <HAL_TIM_IRQHandler+0x152>
      {
#if (USE_HAL_TIM_REGISTER_CALLBACKS == 1)
        htim->OC_DelayElapsedCallback(htim);
        htim->PWM_PulseFinishedCallback(htim);
#else
        HAL_TIM_OC_DelayElapsedCallback(htim);
 800535c:	6878      	ldr	r0, [r7, #4]
 800535e:	f000 f862 	bl	8005426 <HAL_TIM_OC_DelayElapsedCallback>
        HAL_TIM_PWM_PulseFinishedCallback(htim);
 8005362:	6878      	ldr	r0, [r7, #4]
 8005364:	f000 f871 	bl	800544a <HAL_TIM_PWM_PulseFinishedCallback>
#endif /* USE_HAL_TIM_REGISTER_CALLBACKS */
      }
      htim->Channel = HAL_TIM_ACTIVE_CHANNEL_CLEARED;
 8005368:	687b      	ldr	r3, [r7, #4]
 800536a:	2200      	movs	r2, #0
 800536c:	771a      	strb	r2, [r3, #28]
    }
  }
  /* TIM Update event */
  if (__HAL_TIM_GET_FLAG(htim, TIM_FLAG_UPDATE) != RESET)
 800536e:	687b      	ldr	r3, [r7, #4]
 8005370:	681b      	ldr	r3, [r3, #0]
 8005372:	691b      	ldr	r3, [r3, #16]
 8005374:	f003 0301 	and.w	r3, r3, #1
 8005378:	2b01      	cmp	r3, #1
 800537a:	d10e      	bne.n	800539a <HAL_TIM_IRQHandler+0x184>
  {
    if (__HAL_TIM_GET_IT_SOURCE(htim, TIM_IT_UPDATE) != RESET)
 800537c:	687b      	ldr	r3, [r7, #4]
 800537e:	681b      	ldr	r3, [r3, #0]
 8005380:	68db      	ldr	r3, [r3, #12]
 8005382:	f003 0301 	and.w	r3, r3, #1
 8005386:	2b01      	cmp	r3, #1
 8005388:	d107      	bne.n	800539a <HAL_TIM_IRQHandler+0x184>
    {
      __HAL_TIM_CLEAR_IT(htim, TIM_IT_UPDATE);
 800538a:	687b      	ldr	r3, [r7, #4]
 800538c:	681b      	ldr	r3, [r3, #0]
 800538e:	f06f 0201 	mvn.w	r2, #1
 8005392:	611a      	str	r2, [r3, #16]
#if (USE_HAL_TIM_REGISTER_CALLBACKS == 1)
      htim->PeriodElapsedCallback(htim);
#else
      HAL_TIM_PeriodElapsedCallback(htim);
 8005394:	6878      	ldr	r0, [r7, #4]
 8005396:	f7fc fc8f 	bl	8001cb8 <HAL_TIM_PeriodElapsedCallback>
#endif /* USE_HAL_TIM_REGISTER_CALLBACKS */
    }
  }
  /* TIM Break input event */
  if (__HAL_TIM_GET_FLAG(htim, TIM_FLAG_BREAK) != RESET)
 800539a:	687b      	ldr	r3, [r7, #4]
 800539c:	681b      	ldr	r3, [r3, #0]
 800539e:	691b      	ldr	r3, [r3, #16]
 80053a0:	f003 0380 	and.w	r3, r3, #128	; 0x80
 80053a4:	2b80      	cmp	r3, #128	; 0x80
 80053a6:	d10e      	bne.n	80053c6 <HAL_TIM_IRQHandler+0x1b0>
  {
    if (__HAL_TIM_GET_IT_SOURCE(htim, TIM_IT_BREAK) != RESET)
 80053a8:	687b      	ldr	r3, [r7, #4]
 80053aa:	681b      	ldr	r3, [r3, #0]
 80053ac:	68db      	ldr	r3, [r3, #12]
 80053ae:	f003 0380 	and.w	r3, r3, #128	; 0x80
 80053b2:	2b80      	cmp	r3, #128	; 0x80
 80053b4:	d107      	bne.n	80053c6 <HAL_TIM_IRQHandler+0x1b0>
    {
      __HAL_TIM_CLEAR_IT(htim, TIM_IT_BREAK);
 80053b6:	687b      	ldr	r3, [r7, #4]
 80053b8:	681b      	ldr	r3, [r3, #0]
 80053ba:	f06f 0280 	mvn.w	r2, #128	; 0x80
 80053be:	611a      	str	r2, [r3, #16]
#if (USE_HAL_TIM_REGISTER_CALLBACKS == 1)
      htim->BreakCallback(htim);
#else
      HAL_TIMEx_BreakCallback(htim);
 80053c0:	6878      	ldr	r0, [r7, #4]
 80053c2:	f000 f8c0 	bl	8005546 <HAL_TIMEx_BreakCallback>
#endif /* USE_HAL_TIM_REGISTER_CALLBACKS */
    }
  }
  /* TIM Trigger detection event */
  if (__HAL_TIM_GET_FLAG(htim, TIM_FLAG_TRIGGER) != RESET)
 80053c6:	687b      	ldr	r3, [r7, #4]
 80053c8:	681b      	ldr	r3, [r3, #0]
 80053ca:	691b      	ldr	r3, [r3, #16]
 80053cc:	f003 0340 	and.w	r3, r3, #64	; 0x40
 80053d0:	2b40      	cmp	r3, #64	; 0x40
 80053d2:	d10e      	bne.n	80053f2 <HAL_TIM_IRQHandler+0x1dc>
  {
    if (__HAL_TIM_GET_IT_SOURCE(htim, TIM_IT_TRIGGER) != RESET)
 80053d4:	687b      	ldr	r3, [r7, #4]
 80053d6:	681b      	ldr	r3, [r3, #0]
 80053d8:	68db      	ldr	r3, [r3, #12]
 80053da:	f003 0340 	and.w	r3, r3, #64	; 0x40
 80053de:	2b40      	cmp	r3, #64	; 0x40
 80053e0:	d107      	bne.n	80053f2 <HAL_TIM_IRQHandler+0x1dc>
    {
      __HAL_TIM_CLEAR_IT(htim, TIM_IT_TRIGGER);
 80053e2:	687b      	ldr	r3, [r7, #4]
 80053e4:	681b      	ldr	r3, [r3, #0]
 80053e6:	f06f 0240 	mvn.w	r2, #64	; 0x40
 80053ea:	611a      	str	r2, [r3, #16]
#if (USE_HAL_TIM_REGISTER_CALLBACKS == 1)
      htim->TriggerCallback(htim);
#else
      HAL_TIM_TriggerCallback(htim);
 80053ec:	6878      	ldr	r0, [r7, #4]
 80053ee:	f000 f835 	bl	800545c <HAL_TIM_TriggerCallback>
#endif /* USE_HAL_TIM_REGISTER_CALLBACKS */
    }
  }
  /* TIM commutation event */
  if (__HAL_TIM_GET_FLAG(htim, TIM_FLAG_COM) != RESET)
 80053f2:	687b      	ldr	r3, [r7, #4]
 80053f4:	681b      	ldr	r3, [r3, #0]
 80053f6:	691b      	ldr	r3, [r3, #16]
 80053f8:	f003 0320 	and.w	r3, r3, #32
 80053fc:	2b20      	cmp	r3, #32
 80053fe:	d10e      	bne.n	800541e <HAL_TIM_IRQHandler+0x208>
  {
    if (__HAL_TIM_GET_IT_SOURCE(htim, TIM_IT_COM) != RESET)
 8005400:	687b      	ldr	r3, [r7, #4]
 8005402:	681b      	ldr	r3, [r3, #0]
 8005404:	68db      	ldr	r3, [r3, #12]
 8005406:	f003 0320 	and.w	r3, r3, #32
 800540a:	2b20      	cmp	r3, #32
 800540c:	d107      	bne.n	800541e <HAL_TIM_IRQHandler+0x208>
    {
      __HAL_TIM_CLEAR_IT(htim, TIM_FLAG_COM);
 800540e:	687b      	ldr	r3, [r7, #4]
 8005410:	681b      	ldr	r3, [r3, #0]
 8005412:	f06f 0220 	mvn.w	r2, #32
 8005416:	611a      	str	r2, [r3, #16]
#if (USE_HAL_TIM_REGISTER_CALLBACKS == 1)
      htim->CommutationCallback(htim);
#else
      HAL_TIMEx_CommutCallback(htim);
 8005418:	6878      	ldr	r0, [r7, #4]
 800541a:	f000 f88b 	bl	8005534 <HAL_TIMEx_CommutCallback>
#endif /* USE_HAL_TIM_REGISTER_CALLBACKS */
    }
  }
}
 800541e:	bf00      	nop
 8005420:	3708      	adds	r7, #8
 8005422:	46bd      	mov	sp, r7
 8005424:	bd80      	pop	{r7, pc}

08005426 <HAL_TIM_OC_DelayElapsedCallback>:
  * @brief  Output Compare callback in non-blocking mode
  * @param  htim TIM OC handle
  * @retval None
  */
__weak void HAL_TIM_OC_DelayElapsedCallback(TIM_HandleTypeDef *htim)
{
 8005426:	b480      	push	{r7}
 8005428:	b083      	sub	sp, #12
 800542a:	af00      	add	r7, sp, #0
 800542c:	6078      	str	r0, [r7, #4]
  UNUSED(htim);

  /* NOTE : This function should not be modified, when the callback is needed,
            the HAL_TIM_OC_DelayElapsedCallback could be implemented in the user file
   */
}
 800542e:	bf00      	nop
 8005430:	370c      	adds	r7, #12
 8005432:	46bd      	mov	sp, r7
 8005434:	bc80      	pop	{r7}
 8005436:	4770      	bx	lr

08005438 <HAL_TIM_IC_CaptureCallback>:
  * @brief  Input Capture callback in non-blocking mode
  * @param  htim TIM IC handle
  * @retval None
  */
__weak void HAL_TIM_IC_CaptureCallback(TIM_HandleTypeDef *htim)
{
 8005438:	b480      	push	{r7}
 800543a:	b083      	sub	sp, #12
 800543c:	af00      	add	r7, sp, #0
 800543e:	6078      	str	r0, [r7, #4]
  UNUSED(htim);

  /* NOTE : This function should not be modified, when the callback is needed,
            the HAL_TIM_IC_CaptureCallback could be implemented in the user file
   */
}
 8005440:	bf00      	nop
 8005442:	370c      	adds	r7, #12
 8005444:	46bd      	mov	sp, r7
 8005446:	bc80      	pop	{r7}
 8005448:	4770      	bx	lr

0800544a <HAL_TIM_PWM_PulseFinishedCallback>:
  * @brief  PWM Pulse finished callback in non-blocking mode
  * @param  htim TIM handle
  * @retval None
  */
__weak void HAL_TIM_PWM_PulseFinishedCallback(TIM_HandleTypeDef *htim)
{
 800544a:	b480      	push	{r7}
 800544c:	b083      	sub	sp, #12
 800544e:	af00      	add	r7, sp, #0
 8005450:	6078      	str	r0, [r7, #4]
  UNUSED(htim);

  /* NOTE : This function should not be modified, when the callback is needed,
            the HAL_TIM_PWM_PulseFinishedCallback could be implemented in the user file
   */
}
 8005452:	bf00      	nop
 8005454:	370c      	adds	r7, #12
 8005456:	46bd      	mov	sp, r7
 8005458:	bc80      	pop	{r7}
 800545a:	4770      	bx	lr

0800545c <HAL_TIM_TriggerCallback>:
  * @brief  Hall Trigger detection callback in non-blocking mode
  * @param  htim TIM handle
  * @retval None
  */
__weak void HAL_TIM_TriggerCallback(TIM_HandleTypeDef *htim)
{
 800545c:	b480      	push	{r7}
 800545e:	b083      	sub	sp, #12
 8005460:	af00      	add	r7, sp, #0
 8005462:	6078      	str	r0, [r7, #4]
  UNUSED(htim);

  /* NOTE : This function should not be modified, when the callback is needed,
            the HAL_TIM_TriggerCallback could be implemented in the user file
   */
}
 8005464:	bf00      	nop
 8005466:	370c      	adds	r7, #12
 8005468:	46bd      	mov	sp, r7
 800546a:	bc80      	pop	{r7}
 800546c:	4770      	bx	lr
	...

08005470 <TIM_Base_SetConfig>:
  * @param  TIMx TIM peripheral
  * @param  Structure TIM Base configuration structure
  * @retval None
  */
void TIM_Base_SetConfig(TIM_TypeDef *TIMx, TIM_Base_InitTypeDef *Structure)
{
 8005470:	b480      	push	{r7}
 8005472:	b085      	sub	sp, #20
 8005474:	af00      	add	r7, sp, #0
 8005476:	6078      	str	r0, [r7, #4]
 8005478:	6039      	str	r1, [r7, #0]
  uint32_t tmpcr1;
  tmpcr1 = TIMx->CR1;
 800547a:	687b      	ldr	r3, [r7, #4]
 800547c:	681b      	ldr	r3, [r3, #0]
 800547e:	60fb      	str	r3, [r7, #12]

  /* Set TIM Time Base Unit parameters ---------------------------------------*/
  if (IS_TIM_COUNTER_MODE_SELECT_INSTANCE(TIMx))
 8005480:	687b      	ldr	r3, [r7, #4]
 8005482:	4a29      	ldr	r2, [pc, #164]	; (8005528 <TIM_Base_SetConfig+0xb8>)
 8005484:	4293      	cmp	r3, r2
 8005486:	d00b      	beq.n	80054a0 <TIM_Base_SetConfig+0x30>
 8005488:	687b      	ldr	r3, [r7, #4]
 800548a:	f1b3 4f80 	cmp.w	r3, #1073741824	; 0x40000000
 800548e:	d007      	beq.n	80054a0 <TIM_Base_SetConfig+0x30>
 8005490:	687b      	ldr	r3, [r7, #4]
 8005492:	4a26      	ldr	r2, [pc, #152]	; (800552c <TIM_Base_SetConfig+0xbc>)
 8005494:	4293      	cmp	r3, r2
 8005496:	d003      	beq.n	80054a0 <TIM_Base_SetConfig+0x30>
 8005498:	687b      	ldr	r3, [r7, #4]
 800549a:	4a25      	ldr	r2, [pc, #148]	; (8005530 <TIM_Base_SetConfig+0xc0>)
 800549c:	4293      	cmp	r3, r2
 800549e:	d108      	bne.n	80054b2 <TIM_Base_SetConfig+0x42>
  {
    /* Select the Counter Mode */
    tmpcr1 &= ~(TIM_CR1_DIR | TIM_CR1_CMS);
 80054a0:	68fb      	ldr	r3, [r7, #12]
 80054a2:	f023 0370 	bic.w	r3, r3, #112	; 0x70
 80054a6:	60fb      	str	r3, [r7, #12]
    tmpcr1 |= Structure->CounterMode;
 80054a8:	683b      	ldr	r3, [r7, #0]
 80054aa:	685b      	ldr	r3, [r3, #4]
 80054ac:	68fa      	ldr	r2, [r7, #12]
 80054ae:	4313      	orrs	r3, r2
 80054b0:	60fb      	str	r3, [r7, #12]
  }

  if (IS_TIM_CLOCK_DIVISION_INSTANCE(TIMx))
 80054b2:	687b      	ldr	r3, [r7, #4]
 80054b4:	4a1c      	ldr	r2, [pc, #112]	; (8005528 <TIM_Base_SetConfig+0xb8>)
 80054b6:	4293      	cmp	r3, r2
 80054b8:	d00b      	beq.n	80054d2 <TIM_Base_SetConfig+0x62>
 80054ba:	687b      	ldr	r3, [r7, #4]
 80054bc:	f1b3 4f80 	cmp.w	r3, #1073741824	; 0x40000000
 80054c0:	d007      	beq.n	80054d2 <TIM_Base_SetConfig+0x62>
 80054c2:	687b      	ldr	r3, [r7, #4]
 80054c4:	4a19      	ldr	r2, [pc, #100]	; (800552c <TIM_Base_SetConfig+0xbc>)
 80054c6:	4293      	cmp	r3, r2
 80054c8:	d003      	beq.n	80054d2 <TIM_Base_SetConfig+0x62>
 80054ca:	687b      	ldr	r3, [r7, #4]
 80054cc:	4a18      	ldr	r2, [pc, #96]	; (8005530 <TIM_Base_SetConfig+0xc0>)
 80054ce:	4293      	cmp	r3, r2
 80054d0:	d108      	bne.n	80054e4 <TIM_Base_SetConfig+0x74>
  {
    /* Set the clock division */
    tmpcr1 &= ~TIM_CR1_CKD;
 80054d2:	68fb      	ldr	r3, [r7, #12]
 80054d4:	f423 7340 	bic.w	r3, r3, #768	; 0x300
 80054d8:	60fb      	str	r3, [r7, #12]
    tmpcr1 |= (uint32_t)Structure->ClockDivision;
 80054da:	683b      	ldr	r3, [r7, #0]
 80054dc:	68db      	ldr	r3, [r3, #12]
 80054de:	68fa      	ldr	r2, [r7, #12]
 80054e0:	4313      	orrs	r3, r2
 80054e2:	60fb      	str	r3, [r7, #12]
  }

  /* Set the auto-reload preload */
  MODIFY_REG(tmpcr1, TIM_CR1_ARPE, Structure->AutoReloadPreload);
 80054e4:	68fb      	ldr	r3, [r7, #12]
 80054e6:	f023 0280 	bic.w	r2, r3, #128	; 0x80
 80054ea:	683b      	ldr	r3, [r7, #0]
 80054ec:	695b      	ldr	r3, [r3, #20]
 80054ee:	4313      	orrs	r3, r2
 80054f0:	60fb      	str	r3, [r7, #12]

  TIMx->CR1 = tmpcr1;
 80054f2:	687b      	ldr	r3, [r7, #4]
 80054f4:	68fa      	ldr	r2, [r7, #12]
 80054f6:	601a      	str	r2, [r3, #0]

  /* Set the Autoreload value */
  TIMx->ARR = (uint32_t)Structure->Period ;
 80054f8:	683b      	ldr	r3, [r7, #0]
 80054fa:	689a      	ldr	r2, [r3, #8]
 80054fc:	687b      	ldr	r3, [r7, #4]
 80054fe:	62da      	str	r2, [r3, #44]	; 0x2c

  /* Set the Prescaler value */
  TIMx->PSC = Structure->Prescaler;
 8005500:	683b      	ldr	r3, [r7, #0]
 8005502:	681a      	ldr	r2, [r3, #0]
 8005504:	687b      	ldr	r3, [r7, #4]
 8005506:	629a      	str	r2, [r3, #40]	; 0x28

  if (IS_TIM_REPETITION_COUNTER_INSTANCE(TIMx))
 8005508:	687b      	ldr	r3, [r7, #4]
 800550a:	4a07      	ldr	r2, [pc, #28]	; (8005528 <TIM_Base_SetConfig+0xb8>)
 800550c:	4293      	cmp	r3, r2
 800550e:	d103      	bne.n	8005518 <TIM_Base_SetConfig+0xa8>
  {
    /* Set the Repetition Counter value */
    TIMx->RCR = Structure->RepetitionCounter;
 8005510:	683b      	ldr	r3, [r7, #0]
 8005512:	691a      	ldr	r2, [r3, #16]
 8005514:	687b      	ldr	r3, [r7, #4]
 8005516:	631a      	str	r2, [r3, #48]	; 0x30
  }

  /* Generate an update event to reload the Prescaler
     and the repetition counter (only for advanced timer) value immediately */
  TIMx->EGR = TIM_EGR_UG;
 8005518:	687b      	ldr	r3, [r7, #4]
 800551a:	2201      	movs	r2, #1
 800551c:	615a      	str	r2, [r3, #20]
}
 800551e:	bf00      	nop
 8005520:	3714      	adds	r7, #20
 8005522:	46bd      	mov	sp, r7
 8005524:	bc80      	pop	{r7}
 8005526:	4770      	bx	lr
 8005528:	40012c00 	.word	0x40012c00
 800552c:	40000400 	.word	0x40000400
 8005530:	40000800 	.word	0x40000800

08005534 <HAL_TIMEx_CommutCallback>:
  * @brief  Hall commutation changed callback in non-blocking mode
  * @param  htim TIM handle
  * @retval None
  */
__weak void HAL_TIMEx_CommutCallback(TIM_HandleTypeDef *htim)
{
 8005534:	b480      	push	{r7}
 8005536:	b083      	sub	sp, #12
 8005538:	af00      	add	r7, sp, #0
 800553a:	6078      	str	r0, [r7, #4]
  UNUSED(htim);

  /* NOTE : This function should not be modified, when the callback is needed,
            the HAL_TIMEx_CommutCallback could be implemented in the user file
   */
}
 800553c:	bf00      	nop
 800553e:	370c      	adds	r7, #12
 8005540:	46bd      	mov	sp, r7
 8005542:	bc80      	pop	{r7}
 8005544:	4770      	bx	lr

08005546 <HAL_TIMEx_BreakCallback>:
  * @brief  Hall Break detection callback in non-blocking mode
  * @param  htim TIM handle
  * @retval None
  */
__weak void HAL_TIMEx_BreakCallback(TIM_HandleTypeDef *htim)
{
 8005546:	b480      	push	{r7}
 8005548:	b083      	sub	sp, #12
 800554a:	af00      	add	r7, sp, #0
 800554c:	6078      	str	r0, [r7, #4]
  UNUSED(htim);

  /* NOTE : This function should not be modified, when the callback is needed,
            the HAL_TIMEx_BreakCallback could be implemented in the user file
   */
}
 800554e:	bf00      	nop
 8005550:	370c      	adds	r7, #12
 8005552:	46bd      	mov	sp, r7
 8005554:	bc80      	pop	{r7}
 8005556:	4770      	bx	lr

08005558 <Reset_Handler>:
  .weak Reset_Handler
  .type Reset_Handler, %function
Reset_Handler:

/* Copy the data segment initializers from flash to SRAM */
  movs r1, #0
 8005558:	2100      	movs	r1, #0
  b LoopCopyDataInit
 800555a:	e003      	b.n	8005564 <LoopCopyDataInit>

0800555c <CopyDataInit>:

CopyDataInit:
  ldr r3, =_sidata
 800555c:	4b0b      	ldr	r3, [pc, #44]	; (800558c <LoopFillZerobss+0x14>)
  ldr r3, [r3, r1]
 800555e:	585b      	ldr	r3, [r3, r1]
  str r3, [r0, r1]
 8005560:	5043      	str	r3, [r0, r1]
  adds r1, r1, #4
 8005562:	3104      	adds	r1, #4

08005564 <LoopCopyDataInit>:

LoopCopyDataInit:
  ldr r0, =_sdata
 8005564:	480a      	ldr	r0, [pc, #40]	; (8005590 <LoopFillZerobss+0x18>)
  ldr r3, =_edata
 8005566:	4b0b      	ldr	r3, [pc, #44]	; (8005594 <LoopFillZerobss+0x1c>)
  adds r2, r0, r1
 8005568:	1842      	adds	r2, r0, r1
  cmp r2, r3
 800556a:	429a      	cmp	r2, r3
  bcc CopyDataInit
 800556c:	d3f6      	bcc.n	800555c <CopyDataInit>
  ldr r2, =_sbss
 800556e:	4a0a      	ldr	r2, [pc, #40]	; (8005598 <LoopFillZerobss+0x20>)
  b LoopFillZerobss
 8005570:	e002      	b.n	8005578 <LoopFillZerobss>

08005572 <FillZerobss>:
/* Zero fill the bss segment. */
FillZerobss:
  movs r3, #0
 8005572:	2300      	movs	r3, #0
  str r3, [r2], #4
 8005574:	f842 3b04 	str.w	r3, [r2], #4

08005578 <LoopFillZerobss>:

LoopFillZerobss:
  ldr r3, = _ebss
 8005578:	4b08      	ldr	r3, [pc, #32]	; (800559c <LoopFillZerobss+0x24>)
  cmp r2, r3
 800557a:	429a      	cmp	r2, r3
  bcc FillZerobss
 800557c:	d3f9      	bcc.n	8005572 <FillZerobss>

/* Call the clock system intitialization function.*/
    bl  SystemInit
 800557e:	f7fc fdd7 	bl	8002130 <SystemInit>
/* Call static constructors */
    bl __libc_init_array
 8005582:	f002 ff59 	bl	8008438 <__libc_init_array>
/* Call the application's entry point.*/
  bl main
 8005586:	f7fb fcdd 	bl	8000f44 <main>
  bx lr
 800558a:	4770      	bx	lr
  ldr r3, =_sidata
 800558c:	080085dc 	.word	0x080085dc
  ldr r0, =_sdata
 8005590:	20000000 	.word	0x20000000
  ldr r3, =_edata
 8005594:	20000010 	.word	0x20000010
  ldr r2, =_sbss
 8005598:	20000010 	.word	0x20000010
  ldr r3, = _ebss
 800559c:	200023b4 	.word	0x200023b4

080055a0 <ADC1_2_IRQHandler>:
 * @retval : None
*/
    .section .text.Default_Handler,"ax",%progbits
Default_Handler:
Infinite_Loop:
  b Infinite_Loop
 80055a0:	e7fe      	b.n	80055a0 <ADC1_2_IRQHandler>

080055a2 <vListInitialise>:
/*-----------------------------------------------------------
 * PUBLIC LIST API documented in list.h
 *----------------------------------------------------------*/

void vListInitialise( List_t * const pxList )
{
 80055a2:	b480      	push	{r7}
 80055a4:	b083      	sub	sp, #12
 80055a6:	af00      	add	r7, sp, #0
 80055a8:	6078      	str	r0, [r7, #4]
	/* The list structure contains a list item which is used to mark the
	end of the list.  To initialise the list the list end is inserted
	as the only list entry. */
	pxList->pxIndex = ( ListItem_t * ) &( pxList->xListEnd );			/*lint !e826 !e740 The mini list structure is used as the list end to save RAM.  This is checked and valid. */
 80055aa:	687b      	ldr	r3, [r7, #4]
 80055ac:	f103 0208 	add.w	r2, r3, #8
 80055b0:	687b      	ldr	r3, [r7, #4]
 80055b2:	605a      	str	r2, [r3, #4]

	/* The list end value is the highest possible value in the list to
	ensure it remains at the end of the list. */
	pxList->xListEnd.xItemValue = portMAX_DELAY;
 80055b4:	687b      	ldr	r3, [r7, #4]
 80055b6:	f04f 32ff 	mov.w	r2, #4294967295
 80055ba:	609a      	str	r2, [r3, #8]

	/* The list end next and previous pointers point to itself so we know
	when the list is empty. */
	pxList->xListEnd.pxNext = ( ListItem_t * ) &( pxList->xListEnd );	/*lint !e826 !e740 The mini list structure is used as the list end to save RAM.  This is checked and valid. */
 80055bc:	687b      	ldr	r3, [r7, #4]
 80055be:	f103 0208 	add.w	r2, r3, #8
 80055c2:	687b      	ldr	r3, [r7, #4]
 80055c4:	60da      	str	r2, [r3, #12]
	pxList->xListEnd.pxPrevious = ( ListItem_t * ) &( pxList->xListEnd );/*lint !e826 !e740 The mini list structure is used as the list end to save RAM.  This is checked and valid. */
 80055c6:	687b      	ldr	r3, [r7, #4]
 80055c8:	f103 0208 	add.w	r2, r3, #8
 80055cc:	687b      	ldr	r3, [r7, #4]
 80055ce:	611a      	str	r2, [r3, #16]

	pxList->uxNumberOfItems = ( UBaseType_t ) 0U;
 80055d0:	687b      	ldr	r3, [r7, #4]
 80055d2:	2200      	movs	r2, #0
 80055d4:	601a      	str	r2, [r3, #0]

	/* Write known values into the list if
	configUSE_LIST_DATA_INTEGRITY_CHECK_BYTES is set to 1. */
	listSET_LIST_INTEGRITY_CHECK_1_VALUE( pxList );
	listSET_LIST_INTEGRITY_CHECK_2_VALUE( pxList );
}
 80055d6:	bf00      	nop
 80055d8:	370c      	adds	r7, #12
 80055da:	46bd      	mov	sp, r7
 80055dc:	bc80      	pop	{r7}
 80055de:	4770      	bx	lr

080055e0 <vListInitialiseItem>:
/*-----------------------------------------------------------*/

void vListInitialiseItem( ListItem_t * const pxItem )
{
 80055e0:	b480      	push	{r7}
 80055e2:	b083      	sub	sp, #12
 80055e4:	af00      	add	r7, sp, #0
 80055e6:	6078      	str	r0, [r7, #4]
	/* Make sure the list item is not recorded as being on a list. */
	pxItem->pvContainer = NULL;
 80055e8:	687b      	ldr	r3, [r7, #4]
 80055ea:	2200      	movs	r2, #0
 80055ec:	611a      	str	r2, [r3, #16]

	/* Write known values into the list item if
	configUSE_LIST_DATA_INTEGRITY_CHECK_BYTES is set to 1. */
	listSET_FIRST_LIST_ITEM_INTEGRITY_CHECK_VALUE( pxItem );
	listSET_SECOND_LIST_ITEM_INTEGRITY_CHECK_VALUE( pxItem );
}
 80055ee:	bf00      	nop
 80055f0:	370c      	adds	r7, #12
 80055f2:	46bd      	mov	sp, r7
 80055f4:	bc80      	pop	{r7}
 80055f6:	4770      	bx	lr

080055f8 <vListInsertEnd>:
/*-----------------------------------------------------------*/

void vListInsertEnd( List_t * const pxList, ListItem_t * const pxNewListItem )
{
 80055f8:	b480      	push	{r7}
 80055fa:	b085      	sub	sp, #20
 80055fc:	af00      	add	r7, sp, #0
 80055fe:	6078      	str	r0, [r7, #4]
 8005600:	6039      	str	r1, [r7, #0]
ListItem_t * const pxIndex = pxList->pxIndex;
 8005602:	687b      	ldr	r3, [r7, #4]
 8005604:	685b      	ldr	r3, [r3, #4]
 8005606:	60fb      	str	r3, [r7, #12]
	listTEST_LIST_ITEM_INTEGRITY( pxNewListItem );

	/* Insert a new list item into pxList, but rather than sort the list,
	makes the new list item the last item to be removed by a call to
	listGET_OWNER_OF_NEXT_ENTRY(). */
	pxNewListItem->pxNext = pxIndex;
 8005608:	683b      	ldr	r3, [r7, #0]
 800560a:	68fa      	ldr	r2, [r7, #12]
 800560c:	605a      	str	r2, [r3, #4]
	pxNewListItem->pxPrevious = pxIndex->pxPrevious;
 800560e:	68fb      	ldr	r3, [r7, #12]
 8005610:	689a      	ldr	r2, [r3, #8]
 8005612:	683b      	ldr	r3, [r7, #0]
 8005614:	609a      	str	r2, [r3, #8]

	/* Only used during decision coverage testing. */
	mtCOVERAGE_TEST_DELAY();

	pxIndex->pxPrevious->pxNext = pxNewListItem;
 8005616:	68fb      	ldr	r3, [r7, #12]
 8005618:	689b      	ldr	r3, [r3, #8]
 800561a:	683a      	ldr	r2, [r7, #0]
 800561c:	605a      	str	r2, [r3, #4]
	pxIndex->pxPrevious = pxNewListItem;
 800561e:	68fb      	ldr	r3, [r7, #12]
 8005620:	683a      	ldr	r2, [r7, #0]
 8005622:	609a      	str	r2, [r3, #8]

	/* Remember which list the item is in. */
	pxNewListItem->pvContainer = ( void * ) pxList;
 8005624:	683b      	ldr	r3, [r7, #0]
 8005626:	687a      	ldr	r2, [r7, #4]
 8005628:	611a      	str	r2, [r3, #16]

	( pxList->uxNumberOfItems )++;
 800562a:	687b      	ldr	r3, [r7, #4]
 800562c:	681b      	ldr	r3, [r3, #0]
 800562e:	1c5a      	adds	r2, r3, #1
 8005630:	687b      	ldr	r3, [r7, #4]
 8005632:	601a      	str	r2, [r3, #0]
}
 8005634:	bf00      	nop
 8005636:	3714      	adds	r7, #20
 8005638:	46bd      	mov	sp, r7
 800563a:	bc80      	pop	{r7}
 800563c:	4770      	bx	lr

0800563e <vListInsert>:
/*-----------------------------------------------------------*/

void vListInsert( List_t * const pxList, ListItem_t * const pxNewListItem )
{
 800563e:	b480      	push	{r7}
 8005640:	b085      	sub	sp, #20
 8005642:	af00      	add	r7, sp, #0
 8005644:	6078      	str	r0, [r7, #4]
 8005646:	6039      	str	r1, [r7, #0]
ListItem_t *pxIterator;
const TickType_t xValueOfInsertion = pxNewListItem->xItemValue;
 8005648:	683b      	ldr	r3, [r7, #0]
 800564a:	681b      	ldr	r3, [r3, #0]
 800564c:	60bb      	str	r3, [r7, #8]
	new list item should be placed after it.  This ensures that TCB's which are
	stored in ready lists (all of which have the same xItemValue value) get a
	share of the CPU.  However, if the xItemValue is the same as the back marker
	the iteration loop below will not end.  Therefore the value is checked
	first, and the algorithm slightly modified if necessary. */
	if( xValueOfInsertion == portMAX_DELAY )
 800564e:	68bb      	ldr	r3, [r7, #8]
 8005650:	f1b3 3fff 	cmp.w	r3, #4294967295
 8005654:	d103      	bne.n	800565e <vListInsert+0x20>
	{
		pxIterator = pxList->xListEnd.pxPrevious;
 8005656:	687b      	ldr	r3, [r7, #4]
 8005658:	691b      	ldr	r3, [r3, #16]
 800565a:	60fb      	str	r3, [r7, #12]
 800565c:	e00c      	b.n	8005678 <vListInsert+0x3a>
			4) Using a queue or semaphore before it has been initialised or
			   before the scheduler has been started (are interrupts firing
			   before vTaskStartScheduler() has been called?).
		**********************************************************************/

		for( pxIterator = ( ListItem_t * ) &( pxList->xListEnd ); pxIterator->pxNext->xItemValue <= xValueOfInsertion; pxIterator = pxIterator->pxNext ) /*lint !e826 !e740 The mini list structure is used as the list end to save RAM.  This is checked and valid. */
 800565e:	687b      	ldr	r3, [r7, #4]
 8005660:	3308      	adds	r3, #8
 8005662:	60fb      	str	r3, [r7, #12]
 8005664:	e002      	b.n	800566c <vListInsert+0x2e>
 8005666:	68fb      	ldr	r3, [r7, #12]
 8005668:	685b      	ldr	r3, [r3, #4]
 800566a:	60fb      	str	r3, [r7, #12]
 800566c:	68fb      	ldr	r3, [r7, #12]
 800566e:	685b      	ldr	r3, [r3, #4]
 8005670:	681b      	ldr	r3, [r3, #0]
 8005672:	68ba      	ldr	r2, [r7, #8]
 8005674:	429a      	cmp	r2, r3
 8005676:	d2f6      	bcs.n	8005666 <vListInsert+0x28>
			/* There is nothing to do here, just iterating to the wanted
			insertion position. */
		}
	}

	pxNewListItem->pxNext = pxIterator->pxNext;
 8005678:	68fb      	ldr	r3, [r7, #12]
 800567a:	685a      	ldr	r2, [r3, #4]
 800567c:	683b      	ldr	r3, [r7, #0]
 800567e:	605a      	str	r2, [r3, #4]
	pxNewListItem->pxNext->pxPrevious = pxNewListItem;
 8005680:	683b      	ldr	r3, [r7, #0]
 8005682:	685b      	ldr	r3, [r3, #4]
 8005684:	683a      	ldr	r2, [r7, #0]
 8005686:	609a      	str	r2, [r3, #8]
	pxNewListItem->pxPrevious = pxIterator;
 8005688:	683b      	ldr	r3, [r7, #0]
 800568a:	68fa      	ldr	r2, [r7, #12]
 800568c:	609a      	str	r2, [r3, #8]
	pxIterator->pxNext = pxNewListItem;
 800568e:	68fb      	ldr	r3, [r7, #12]
 8005690:	683a      	ldr	r2, [r7, #0]
 8005692:	605a      	str	r2, [r3, #4]

	/* Remember which list the item is in.  This allows fast removal of the
	item later. */
	pxNewListItem->pvContainer = ( void * ) pxList;
 8005694:	683b      	ldr	r3, [r7, #0]
 8005696:	687a      	ldr	r2, [r7, #4]
 8005698:	611a      	str	r2, [r3, #16]

	( pxList->uxNumberOfItems )++;
 800569a:	687b      	ldr	r3, [r7, #4]
 800569c:	681b      	ldr	r3, [r3, #0]
 800569e:	1c5a      	adds	r2, r3, #1
 80056a0:	687b      	ldr	r3, [r7, #4]
 80056a2:	601a      	str	r2, [r3, #0]
}
 80056a4:	bf00      	nop
 80056a6:	3714      	adds	r7, #20
 80056a8:	46bd      	mov	sp, r7
 80056aa:	bc80      	pop	{r7}
 80056ac:	4770      	bx	lr

080056ae <uxListRemove>:
/*-----------------------------------------------------------*/

UBaseType_t uxListRemove( ListItem_t * const pxItemToRemove )
{
 80056ae:	b480      	push	{r7}
 80056b0:	b085      	sub	sp, #20
 80056b2:	af00      	add	r7, sp, #0
 80056b4:	6078      	str	r0, [r7, #4]
/* The list item knows which list it is in.  Obtain the list from the list
item. */
List_t * const pxList = ( List_t * ) pxItemToRemove->pvContainer;
 80056b6:	687b      	ldr	r3, [r7, #4]
 80056b8:	691b      	ldr	r3, [r3, #16]
 80056ba:	60fb      	str	r3, [r7, #12]

	pxItemToRemove->pxNext->pxPrevious = pxItemToRemove->pxPrevious;
 80056bc:	687b      	ldr	r3, [r7, #4]
 80056be:	685b      	ldr	r3, [r3, #4]
 80056c0:	687a      	ldr	r2, [r7, #4]
 80056c2:	6892      	ldr	r2, [r2, #8]
 80056c4:	609a      	str	r2, [r3, #8]
	pxItemToRemove->pxPrevious->pxNext = pxItemToRemove->pxNext;
 80056c6:	687b      	ldr	r3, [r7, #4]
 80056c8:	689b      	ldr	r3, [r3, #8]
 80056ca:	687a      	ldr	r2, [r7, #4]
 80056cc:	6852      	ldr	r2, [r2, #4]
 80056ce:	605a      	str	r2, [r3, #4]

	/* Only used during decision coverage testing. */
	mtCOVERAGE_TEST_DELAY();

	/* Make sure the index is left pointing to a valid item. */
	if( pxList->pxIndex == pxItemToRemove )
 80056d0:	68fb      	ldr	r3, [r7, #12]
 80056d2:	685b      	ldr	r3, [r3, #4]
 80056d4:	687a      	ldr	r2, [r7, #4]
 80056d6:	429a      	cmp	r2, r3
 80056d8:	d103      	bne.n	80056e2 <uxListRemove+0x34>
	{
		pxList->pxIndex = pxItemToRemove->pxPrevious;
 80056da:	687b      	ldr	r3, [r7, #4]
 80056dc:	689a      	ldr	r2, [r3, #8]
 80056de:	68fb      	ldr	r3, [r7, #12]
 80056e0:	605a      	str	r2, [r3, #4]
	else
	{
		mtCOVERAGE_TEST_MARKER();
	}

	pxItemToRemove->pvContainer = NULL;
 80056e2:	687b      	ldr	r3, [r7, #4]
 80056e4:	2200      	movs	r2, #0
 80056e6:	611a      	str	r2, [r3, #16]
	( pxList->uxNumberOfItems )--;
 80056e8:	68fb      	ldr	r3, [r7, #12]
 80056ea:	681b      	ldr	r3, [r3, #0]
 80056ec:	1e5a      	subs	r2, r3, #1
 80056ee:	68fb      	ldr	r3, [r7, #12]
 80056f0:	601a      	str	r2, [r3, #0]

	return pxList->uxNumberOfItems;
 80056f2:	68fb      	ldr	r3, [r7, #12]
 80056f4:	681b      	ldr	r3, [r3, #0]
}
 80056f6:	4618      	mov	r0, r3
 80056f8:	3714      	adds	r7, #20
 80056fa:	46bd      	mov	sp, r7
 80056fc:	bc80      	pop	{r7}
 80056fe:	4770      	bx	lr

08005700 <xQueueGenericReset>:
	}														\
	taskEXIT_CRITICAL()
/*-----------------------------------------------------------*/

BaseType_t xQueueGenericReset( QueueHandle_t xQueue, BaseType_t xNewQueue )
{
 8005700:	b580      	push	{r7, lr}
 8005702:	b084      	sub	sp, #16
 8005704:	af00      	add	r7, sp, #0
 8005706:	6078      	str	r0, [r7, #4]
 8005708:	6039      	str	r1, [r7, #0]
Queue_t * const pxQueue = ( Queue_t * ) xQueue;
 800570a:	687b      	ldr	r3, [r7, #4]
 800570c:	60fb      	str	r3, [r7, #12]

	configASSERT( pxQueue );
 800570e:	68fb      	ldr	r3, [r7, #12]
 8005710:	2b00      	cmp	r3, #0
 8005712:	d109      	bne.n	8005728 <xQueueGenericReset+0x28>

portFORCE_INLINE static void vPortRaiseBASEPRI( void )
{
uint32_t ulNewBASEPRI;

	__asm volatile
 8005714:	f04f 0350 	mov.w	r3, #80	; 0x50
 8005718:	f383 8811 	msr	BASEPRI, r3
 800571c:	f3bf 8f6f 	isb	sy
 8005720:	f3bf 8f4f 	dsb	sy
 8005724:	60bb      	str	r3, [r7, #8]
 8005726:	e7fe      	b.n	8005726 <xQueueGenericReset+0x26>

	taskENTER_CRITICAL();
 8005728:	f001 f8e4 	bl	80068f4 <vPortEnterCritical>
	{
		pxQueue->pcTail = pxQueue->pcHead + ( pxQueue->uxLength * pxQueue->uxItemSize );
 800572c:	68fb      	ldr	r3, [r7, #12]
 800572e:	681a      	ldr	r2, [r3, #0]
 8005730:	68fb      	ldr	r3, [r7, #12]
 8005732:	6bdb      	ldr	r3, [r3, #60]	; 0x3c
 8005734:	68f9      	ldr	r1, [r7, #12]
 8005736:	6c09      	ldr	r1, [r1, #64]	; 0x40
 8005738:	fb01 f303 	mul.w	r3, r1, r3
 800573c:	441a      	add	r2, r3
 800573e:	68fb      	ldr	r3, [r7, #12]
 8005740:	605a      	str	r2, [r3, #4]
		pxQueue->uxMessagesWaiting = ( UBaseType_t ) 0U;
 8005742:	68fb      	ldr	r3, [r7, #12]
 8005744:	2200      	movs	r2, #0
 8005746:	639a      	str	r2, [r3, #56]	; 0x38
		pxQueue->pcWriteTo = pxQueue->pcHead;
 8005748:	68fb      	ldr	r3, [r7, #12]
 800574a:	681a      	ldr	r2, [r3, #0]
 800574c:	68fb      	ldr	r3, [r7, #12]
 800574e:	609a      	str	r2, [r3, #8]
		pxQueue->u.pcReadFrom = pxQueue->pcHead + ( ( pxQueue->uxLength - ( UBaseType_t ) 1U ) * pxQueue->uxItemSize );
 8005750:	68fb      	ldr	r3, [r7, #12]
 8005752:	681a      	ldr	r2, [r3, #0]
 8005754:	68fb      	ldr	r3, [r7, #12]
 8005756:	6bdb      	ldr	r3, [r3, #60]	; 0x3c
 8005758:	3b01      	subs	r3, #1
 800575a:	68f9      	ldr	r1, [r7, #12]
 800575c:	6c09      	ldr	r1, [r1, #64]	; 0x40
 800575e:	fb01 f303 	mul.w	r3, r1, r3
 8005762:	441a      	add	r2, r3
 8005764:	68fb      	ldr	r3, [r7, #12]
 8005766:	60da      	str	r2, [r3, #12]
		pxQueue->cRxLock = queueUNLOCKED;
 8005768:	68fb      	ldr	r3, [r7, #12]
 800576a:	22ff      	movs	r2, #255	; 0xff
 800576c:	f883 2044 	strb.w	r2, [r3, #68]	; 0x44
		pxQueue->cTxLock = queueUNLOCKED;
 8005770:	68fb      	ldr	r3, [r7, #12]
 8005772:	22ff      	movs	r2, #255	; 0xff
 8005774:	f883 2045 	strb.w	r2, [r3, #69]	; 0x45

		if( xNewQueue == pdFALSE )
 8005778:	683b      	ldr	r3, [r7, #0]
 800577a:	2b00      	cmp	r3, #0
 800577c:	d114      	bne.n	80057a8 <xQueueGenericReset+0xa8>
			/* If there are tasks blocked waiting to read from the queue, then
			the tasks will remain blocked as after this function exits the queue
			will still be empty.  If there are tasks blocked waiting to write to
			the queue, then one should be unblocked as after this function exits
			it will be possible to write to it. */
			if( listLIST_IS_EMPTY( &( pxQueue->xTasksWaitingToSend ) ) == pdFALSE )
 800577e:	68fb      	ldr	r3, [r7, #12]
 8005780:	691b      	ldr	r3, [r3, #16]
 8005782:	2b00      	cmp	r3, #0
 8005784:	d01a      	beq.n	80057bc <xQueueGenericReset+0xbc>
			{
				if( xTaskRemoveFromEventList( &( pxQueue->xTasksWaitingToSend ) ) != pdFALSE )
 8005786:	68fb      	ldr	r3, [r7, #12]
 8005788:	3310      	adds	r3, #16
 800578a:	4618      	mov	r0, r3
 800578c:	f000 fdba 	bl	8006304 <xTaskRemoveFromEventList>
 8005790:	4603      	mov	r3, r0
 8005792:	2b00      	cmp	r3, #0
 8005794:	d012      	beq.n	80057bc <xQueueGenericReset+0xbc>
				{
					queueYIELD_IF_USING_PREEMPTION();
 8005796:	4b0d      	ldr	r3, [pc, #52]	; (80057cc <xQueueGenericReset+0xcc>)
 8005798:	f04f 5280 	mov.w	r2, #268435456	; 0x10000000
 800579c:	601a      	str	r2, [r3, #0]
 800579e:	f3bf 8f4f 	dsb	sy
 80057a2:	f3bf 8f6f 	isb	sy
 80057a6:	e009      	b.n	80057bc <xQueueGenericReset+0xbc>
			}
		}
		else
		{
			/* Ensure the event queues start in the correct state. */
			vListInitialise( &( pxQueue->xTasksWaitingToSend ) );
 80057a8:	68fb      	ldr	r3, [r7, #12]
 80057aa:	3310      	adds	r3, #16
 80057ac:	4618      	mov	r0, r3
 80057ae:	f7ff fef8 	bl	80055a2 <vListInitialise>
			vListInitialise( &( pxQueue->xTasksWaitingToReceive ) );
 80057b2:	68fb      	ldr	r3, [r7, #12]
 80057b4:	3324      	adds	r3, #36	; 0x24
 80057b6:	4618      	mov	r0, r3
 80057b8:	f7ff fef3 	bl	80055a2 <vListInitialise>
		}
	}
	taskEXIT_CRITICAL();
 80057bc:	f001 f8c8 	bl	8006950 <vPortExitCritical>

	/* A value is returned for calling semantic consistency with previous
	versions. */
	return pdPASS;
 80057c0:	2301      	movs	r3, #1
}
 80057c2:	4618      	mov	r0, r3
 80057c4:	3710      	adds	r7, #16
 80057c6:	46bd      	mov	sp, r7
 80057c8:	bd80      	pop	{r7, pc}
 80057ca:	bf00      	nop
 80057cc:	e000ed04 	.word	0xe000ed04

080057d0 <xQueueGenericCreate>:
/*-----------------------------------------------------------*/

#if( configSUPPORT_DYNAMIC_ALLOCATION == 1 )

	QueueHandle_t xQueueGenericCreate( const UBaseType_t uxQueueLength, const UBaseType_t uxItemSize, const uint8_t ucQueueType )
	{
 80057d0:	b580      	push	{r7, lr}
 80057d2:	b08a      	sub	sp, #40	; 0x28
 80057d4:	af02      	add	r7, sp, #8
 80057d6:	60f8      	str	r0, [r7, #12]
 80057d8:	60b9      	str	r1, [r7, #8]
 80057da:	4613      	mov	r3, r2
 80057dc:	71fb      	strb	r3, [r7, #7]
	Queue_t *pxNewQueue;
	size_t xQueueSizeInBytes;
	uint8_t *pucQueueStorage;

		configASSERT( uxQueueLength > ( UBaseType_t ) 0 );
 80057de:	68fb      	ldr	r3, [r7, #12]
 80057e0:	2b00      	cmp	r3, #0
 80057e2:	d109      	bne.n	80057f8 <xQueueGenericCreate+0x28>
 80057e4:	f04f 0350 	mov.w	r3, #80	; 0x50
 80057e8:	f383 8811 	msr	BASEPRI, r3
 80057ec:	f3bf 8f6f 	isb	sy
 80057f0:	f3bf 8f4f 	dsb	sy
 80057f4:	613b      	str	r3, [r7, #16]
 80057f6:	e7fe      	b.n	80057f6 <xQueueGenericCreate+0x26>

		if( uxItemSize == ( UBaseType_t ) 0 )
 80057f8:	68bb      	ldr	r3, [r7, #8]
 80057fa:	2b00      	cmp	r3, #0
 80057fc:	d102      	bne.n	8005804 <xQueueGenericCreate+0x34>
		{
			/* There is not going to be a queue storage area. */
			xQueueSizeInBytes = ( size_t ) 0;
 80057fe:	2300      	movs	r3, #0
 8005800:	61fb      	str	r3, [r7, #28]
 8005802:	e004      	b.n	800580e <xQueueGenericCreate+0x3e>
		}
		else
		{
			/* Allocate enough space to hold the maximum number of items that
			can be in the queue at any time. */
			xQueueSizeInBytes = ( size_t ) ( uxQueueLength * uxItemSize ); /*lint !e961 MISRA exception as the casts are only redundant for some ports. */
 8005804:	68fb      	ldr	r3, [r7, #12]
 8005806:	68ba      	ldr	r2, [r7, #8]
 8005808:	fb02 f303 	mul.w	r3, r2, r3
 800580c:	61fb      	str	r3, [r7, #28]
		}

		pxNewQueue = ( Queue_t * ) pvPortMalloc( sizeof( Queue_t ) + xQueueSizeInBytes );
 800580e:	69fb      	ldr	r3, [r7, #28]
 8005810:	3348      	adds	r3, #72	; 0x48
 8005812:	4618      	mov	r0, r3
 8005814:	f001 f932 	bl	8006a7c <pvPortMalloc>
 8005818:	61b8      	str	r0, [r7, #24]

		if( pxNewQueue != NULL )
 800581a:	69bb      	ldr	r3, [r7, #24]
 800581c:	2b00      	cmp	r3, #0
 800581e:	d00f      	beq.n	8005840 <xQueueGenericCreate+0x70>
		{
			/* Jump past the queue structure to find the location of the queue
			storage area. */
			pucQueueStorage = ( ( uint8_t * ) pxNewQueue ) + sizeof( Queue_t );
 8005820:	69bb      	ldr	r3, [r7, #24]
 8005822:	3348      	adds	r3, #72	; 0x48
 8005824:	617b      	str	r3, [r7, #20]
			#if( configSUPPORT_STATIC_ALLOCATION == 1 )
			{
				/* Queues can be created either statically or dynamically, so
				note this task was created dynamically in case it is later
				deleted. */
				pxNewQueue->ucStaticallyAllocated = pdFALSE;
 8005826:	69bb      	ldr	r3, [r7, #24]
 8005828:	2200      	movs	r2, #0
 800582a:	f883 2046 	strb.w	r2, [r3, #70]	; 0x46
			}
			#endif /* configSUPPORT_STATIC_ALLOCATION */

			prvInitialiseNewQueue( uxQueueLength, uxItemSize, pucQueueStorage, ucQueueType, pxNewQueue );
 800582e:	79fa      	ldrb	r2, [r7, #7]
 8005830:	69bb      	ldr	r3, [r7, #24]
 8005832:	9300      	str	r3, [sp, #0]
 8005834:	4613      	mov	r3, r2
 8005836:	697a      	ldr	r2, [r7, #20]
 8005838:	68b9      	ldr	r1, [r7, #8]
 800583a:	68f8      	ldr	r0, [r7, #12]
 800583c:	f000 f805 	bl	800584a <prvInitialiseNewQueue>
		else
		{
			traceQUEUE_CREATE_FAILED( ucQueueType );
		}

		return pxNewQueue;
 8005840:	69bb      	ldr	r3, [r7, #24]
	}
 8005842:	4618      	mov	r0, r3
 8005844:	3720      	adds	r7, #32
 8005846:	46bd      	mov	sp, r7
 8005848:	bd80      	pop	{r7, pc}

0800584a <prvInitialiseNewQueue>:

#endif /* configSUPPORT_STATIC_ALLOCATION */
/*-----------------------------------------------------------*/

static void prvInitialiseNewQueue( const UBaseType_t uxQueueLength, const UBaseType_t uxItemSize, uint8_t *pucQueueStorage, const uint8_t ucQueueType, Queue_t *pxNewQueue )
{
 800584a:	b580      	push	{r7, lr}
 800584c:	b084      	sub	sp, #16
 800584e:	af00      	add	r7, sp, #0
 8005850:	60f8      	str	r0, [r7, #12]
 8005852:	60b9      	str	r1, [r7, #8]
 8005854:	607a      	str	r2, [r7, #4]
 8005856:	70fb      	strb	r3, [r7, #3]
	/* Remove compiler warnings about unused parameters should
	configUSE_TRACE_FACILITY not be set to 1. */
	( void ) ucQueueType;

	if( uxItemSize == ( UBaseType_t ) 0 )
 8005858:	68bb      	ldr	r3, [r7, #8]
 800585a:	2b00      	cmp	r3, #0
 800585c:	d103      	bne.n	8005866 <prvInitialiseNewQueue+0x1c>
	{
		/* No RAM was allocated for the queue storage area, but PC head cannot
		be set to NULL because NULL is used as a key to say the queue is used as
		a mutex.  Therefore just set pcHead to point to the queue as a benign
		value that is known to be within the memory map. */
		pxNewQueue->pcHead = ( int8_t * ) pxNewQueue;
 800585e:	69bb      	ldr	r3, [r7, #24]
 8005860:	69ba      	ldr	r2, [r7, #24]
 8005862:	601a      	str	r2, [r3, #0]
 8005864:	e002      	b.n	800586c <prvInitialiseNewQueue+0x22>
	}
	else
	{
		/* Set the head to the start of the queue storage area. */
		pxNewQueue->pcHead = ( int8_t * ) pucQueueStorage;
 8005866:	69bb      	ldr	r3, [r7, #24]
 8005868:	687a      	ldr	r2, [r7, #4]
 800586a:	601a      	str	r2, [r3, #0]
	}

	/* Initialise the queue members as described where the queue type is
	defined. */
	pxNewQueue->uxLength = uxQueueLength;
 800586c:	69bb      	ldr	r3, [r7, #24]
 800586e:	68fa      	ldr	r2, [r7, #12]
 8005870:	63da      	str	r2, [r3, #60]	; 0x3c
	pxNewQueue->uxItemSize = uxItemSize;
 8005872:	69bb      	ldr	r3, [r7, #24]
 8005874:	68ba      	ldr	r2, [r7, #8]
 8005876:	641a      	str	r2, [r3, #64]	; 0x40
	( void ) xQueueGenericReset( pxNewQueue, pdTRUE );
 8005878:	2101      	movs	r1, #1
 800587a:	69b8      	ldr	r0, [r7, #24]
 800587c:	f7ff ff40 	bl	8005700 <xQueueGenericReset>
	{
		pxNewQueue->pxQueueSetContainer = NULL;
	}
	#endif /* configUSE_QUEUE_SETS */

	traceQUEUE_CREATE( pxNewQueue );
 8005880:	78fb      	ldrb	r3, [r7, #3]
 8005882:	68ba      	ldr	r2, [r7, #8]
 8005884:	68f9      	ldr	r1, [r7, #12]
 8005886:	2073      	movs	r0, #115	; 0x73
 8005888:	f001 ffba 	bl	8007800 <SEGGER_SYSVIEW_RecordU32x3>
}
 800588c:	bf00      	nop
 800588e:	3710      	adds	r7, #16
 8005890:	46bd      	mov	sp, r7
 8005892:	bd80      	pop	{r7, pc}

08005894 <xTaskCreateStatic>:
									const uint32_t ulStackDepth,
									void * const pvParameters,
									UBaseType_t uxPriority,
									StackType_t * const puxStackBuffer,
									StaticTask_t * const pxTaskBuffer )
	{
 8005894:	b580      	push	{r7, lr}
 8005896:	b08e      	sub	sp, #56	; 0x38
 8005898:	af04      	add	r7, sp, #16
 800589a:	60f8      	str	r0, [r7, #12]
 800589c:	60b9      	str	r1, [r7, #8]
 800589e:	607a      	str	r2, [r7, #4]
 80058a0:	603b      	str	r3, [r7, #0]
	TCB_t *pxNewTCB;
	TaskHandle_t xReturn;

		configASSERT( puxStackBuffer != NULL );
 80058a2:	6b7b      	ldr	r3, [r7, #52]	; 0x34
 80058a4:	2b00      	cmp	r3, #0
 80058a6:	d109      	bne.n	80058bc <xTaskCreateStatic+0x28>
 80058a8:	f04f 0350 	mov.w	r3, #80	; 0x50
 80058ac:	f383 8811 	msr	BASEPRI, r3
 80058b0:	f3bf 8f6f 	isb	sy
 80058b4:	f3bf 8f4f 	dsb	sy
 80058b8:	623b      	str	r3, [r7, #32]
 80058ba:	e7fe      	b.n	80058ba <xTaskCreateStatic+0x26>
		configASSERT( pxTaskBuffer != NULL );
 80058bc:	6bbb      	ldr	r3, [r7, #56]	; 0x38
 80058be:	2b00      	cmp	r3, #0
 80058c0:	d109      	bne.n	80058d6 <xTaskCreateStatic+0x42>
 80058c2:	f04f 0350 	mov.w	r3, #80	; 0x50
 80058c6:	f383 8811 	msr	BASEPRI, r3
 80058ca:	f3bf 8f6f 	isb	sy
 80058ce:	f3bf 8f4f 	dsb	sy
 80058d2:	61fb      	str	r3, [r7, #28]
 80058d4:	e7fe      	b.n	80058d4 <xTaskCreateStatic+0x40>
		#if( configASSERT_DEFINED == 1 )
		{
			/* Sanity check that the size of the structure used to declare a
			variable of type StaticTask_t equals the size of the real task
			structure. */
			volatile size_t xSize = sizeof( StaticTask_t );
 80058d6:	2354      	movs	r3, #84	; 0x54
 80058d8:	613b      	str	r3, [r7, #16]
			configASSERT( xSize == sizeof( TCB_t ) );
 80058da:	693b      	ldr	r3, [r7, #16]
 80058dc:	2b54      	cmp	r3, #84	; 0x54
 80058de:	d009      	beq.n	80058f4 <xTaskCreateStatic+0x60>
 80058e0:	f04f 0350 	mov.w	r3, #80	; 0x50
 80058e4:	f383 8811 	msr	BASEPRI, r3
 80058e8:	f3bf 8f6f 	isb	sy
 80058ec:	f3bf 8f4f 	dsb	sy
 80058f0:	61bb      	str	r3, [r7, #24]
 80058f2:	e7fe      	b.n	80058f2 <xTaskCreateStatic+0x5e>
		}
		#endif /* configASSERT_DEFINED */


		if( ( pxTaskBuffer != NULL ) && ( puxStackBuffer != NULL ) )
 80058f4:	6bbb      	ldr	r3, [r7, #56]	; 0x38
 80058f6:	2b00      	cmp	r3, #0
 80058f8:	d01e      	beq.n	8005938 <xTaskCreateStatic+0xa4>
 80058fa:	6b7b      	ldr	r3, [r7, #52]	; 0x34
 80058fc:	2b00      	cmp	r3, #0
 80058fe:	d01b      	beq.n	8005938 <xTaskCreateStatic+0xa4>
		{
			/* The memory used for the task's TCB and stack are passed into this
			function - use them. */
			pxNewTCB = ( TCB_t * ) pxTaskBuffer; /*lint !e740 Unusual cast is ok as the structures are designed to have the same alignment, and the size is checked by an assert. */
 8005900:	6bbb      	ldr	r3, [r7, #56]	; 0x38
 8005902:	627b      	str	r3, [r7, #36]	; 0x24
			pxNewTCB->pxStack = ( StackType_t * ) puxStackBuffer;
 8005904:	6a7b      	ldr	r3, [r7, #36]	; 0x24
 8005906:	6b7a      	ldr	r2, [r7, #52]	; 0x34
 8005908:	631a      	str	r2, [r3, #48]	; 0x30

			#if( tskSTATIC_AND_DYNAMIC_ALLOCATION_POSSIBLE != 0 ) /*lint !e731 Macro has been consolidated for readability reasons. */
			{
				/* Tasks can be created statically or dynamically, so note this
				task was created statically in case the task is later deleted. */
				pxNewTCB->ucStaticallyAllocated = tskSTATICALLY_ALLOCATED_STACK_AND_TCB;
 800590a:	6a7b      	ldr	r3, [r7, #36]	; 0x24
 800590c:	2202      	movs	r2, #2
 800590e:	f883 2051 	strb.w	r2, [r3, #81]	; 0x51
			}
			#endif /* configSUPPORT_DYNAMIC_ALLOCATION */

			prvInitialiseNewTask( pxTaskCode, pcName, ulStackDepth, pvParameters, uxPriority, &xReturn, pxNewTCB, NULL );
 8005912:	2300      	movs	r3, #0
 8005914:	9303      	str	r3, [sp, #12]
 8005916:	6a7b      	ldr	r3, [r7, #36]	; 0x24
 8005918:	9302      	str	r3, [sp, #8]
 800591a:	f107 0314 	add.w	r3, r7, #20
 800591e:	9301      	str	r3, [sp, #4]
 8005920:	6b3b      	ldr	r3, [r7, #48]	; 0x30
 8005922:	9300      	str	r3, [sp, #0]
 8005924:	683b      	ldr	r3, [r7, #0]
 8005926:	687a      	ldr	r2, [r7, #4]
 8005928:	68b9      	ldr	r1, [r7, #8]
 800592a:	68f8      	ldr	r0, [r7, #12]
 800592c:	f000 f850 	bl	80059d0 <prvInitialiseNewTask>
			prvAddNewTaskToReadyList( pxNewTCB );
 8005930:	6a78      	ldr	r0, [r7, #36]	; 0x24
 8005932:	f000 f8cb 	bl	8005acc <prvAddNewTaskToReadyList>
 8005936:	e001      	b.n	800593c <xTaskCreateStatic+0xa8>
		}
		else
		{
			xReturn = NULL;
 8005938:	2300      	movs	r3, #0
 800593a:	617b      	str	r3, [r7, #20]
		}

		return xReturn;
 800593c:	697b      	ldr	r3, [r7, #20]
	}
 800593e:	4618      	mov	r0, r3
 8005940:	3728      	adds	r7, #40	; 0x28
 8005942:	46bd      	mov	sp, r7
 8005944:	bd80      	pop	{r7, pc}

08005946 <xTaskCreate>:
							const char * const pcName,		/*lint !e971 Unqualified char types are allowed for strings and single characters only. */
							const configSTACK_DEPTH_TYPE usStackDepth,
							void * const pvParameters,
							UBaseType_t uxPriority,
							TaskHandle_t * const pxCreatedTask )
	{
 8005946:	b580      	push	{r7, lr}
 8005948:	b08c      	sub	sp, #48	; 0x30
 800594a:	af04      	add	r7, sp, #16
 800594c:	60f8      	str	r0, [r7, #12]
 800594e:	60b9      	str	r1, [r7, #8]
 8005950:	603b      	str	r3, [r7, #0]
 8005952:	4613      	mov	r3, r2
 8005954:	80fb      	strh	r3, [r7, #6]
		#else /* portSTACK_GROWTH */
		{
		StackType_t *pxStack;

			/* Allocate space for the stack used by the task being created. */
			pxStack = ( StackType_t * ) pvPortMalloc( ( ( ( size_t ) usStackDepth ) * sizeof( StackType_t ) ) ); /*lint !e961 MISRA exception as the casts are only redundant for some ports. */
 8005956:	88fb      	ldrh	r3, [r7, #6]
 8005958:	009b      	lsls	r3, r3, #2
 800595a:	4618      	mov	r0, r3
 800595c:	f001 f88e 	bl	8006a7c <pvPortMalloc>
 8005960:	6178      	str	r0, [r7, #20]

			if( pxStack != NULL )
 8005962:	697b      	ldr	r3, [r7, #20]
 8005964:	2b00      	cmp	r3, #0
 8005966:	d00e      	beq.n	8005986 <xTaskCreate+0x40>
			{
				/* Allocate space for the TCB. */
				pxNewTCB = ( TCB_t * ) pvPortMalloc( sizeof( TCB_t ) ); /*lint !e961 MISRA exception as the casts are only redundant for some paths. */
 8005968:	2054      	movs	r0, #84	; 0x54
 800596a:	f001 f887 	bl	8006a7c <pvPortMalloc>
 800596e:	61f8      	str	r0, [r7, #28]

				if( pxNewTCB != NULL )
 8005970:	69fb      	ldr	r3, [r7, #28]
 8005972:	2b00      	cmp	r3, #0
 8005974:	d003      	beq.n	800597e <xTaskCreate+0x38>
				{
					/* Store the stack location in the TCB. */
					pxNewTCB->pxStack = pxStack;
 8005976:	69fb      	ldr	r3, [r7, #28]
 8005978:	697a      	ldr	r2, [r7, #20]
 800597a:	631a      	str	r2, [r3, #48]	; 0x30
 800597c:	e005      	b.n	800598a <xTaskCreate+0x44>
				}
				else
				{
					/* The stack cannot be used as the TCB was not created.  Free
					it again. */
					vPortFree( pxStack );
 800597e:	6978      	ldr	r0, [r7, #20]
 8005980:	f001 f93e 	bl	8006c00 <vPortFree>
 8005984:	e001      	b.n	800598a <xTaskCreate+0x44>
				}
			}
			else
			{
				pxNewTCB = NULL;
 8005986:	2300      	movs	r3, #0
 8005988:	61fb      	str	r3, [r7, #28]
			}
		}
		#endif /* portSTACK_GROWTH */

		if( pxNewTCB != NULL )
 800598a:	69fb      	ldr	r3, [r7, #28]
 800598c:	2b00      	cmp	r3, #0
 800598e:	d017      	beq.n	80059c0 <xTaskCreate+0x7a>
		{
			#if( tskSTATIC_AND_DYNAMIC_ALLOCATION_POSSIBLE != 0 ) /*lint !e731 Macro has been consolidated for readability reasons. */
			{
				/* Tasks can be created statically or dynamically, so note this
				task was created dynamically in case it is later deleted. */
				pxNewTCB->ucStaticallyAllocated = tskDYNAMICALLY_ALLOCATED_STACK_AND_TCB;
 8005990:	69fb      	ldr	r3, [r7, #28]
 8005992:	2200      	movs	r2, #0
 8005994:	f883 2051 	strb.w	r2, [r3, #81]	; 0x51
			}
			#endif /* configSUPPORT_STATIC_ALLOCATION */

			prvInitialiseNewTask( pxTaskCode, pcName, ( uint32_t ) usStackDepth, pvParameters, uxPriority, pxCreatedTask, pxNewTCB, NULL );
 8005998:	88fa      	ldrh	r2, [r7, #6]
 800599a:	2300      	movs	r3, #0
 800599c:	9303      	str	r3, [sp, #12]
 800599e:	69fb      	ldr	r3, [r7, #28]
 80059a0:	9302      	str	r3, [sp, #8]
 80059a2:	6afb      	ldr	r3, [r7, #44]	; 0x2c
 80059a4:	9301      	str	r3, [sp, #4]
 80059a6:	6abb      	ldr	r3, [r7, #40]	; 0x28
 80059a8:	9300      	str	r3, [sp, #0]
 80059aa:	683b      	ldr	r3, [r7, #0]
 80059ac:	68b9      	ldr	r1, [r7, #8]
 80059ae:	68f8      	ldr	r0, [r7, #12]
 80059b0:	f000 f80e 	bl	80059d0 <prvInitialiseNewTask>
			prvAddNewTaskToReadyList( pxNewTCB );
 80059b4:	69f8      	ldr	r0, [r7, #28]
 80059b6:	f000 f889 	bl	8005acc <prvAddNewTaskToReadyList>
			xReturn = pdPASS;
 80059ba:	2301      	movs	r3, #1
 80059bc:	61bb      	str	r3, [r7, #24]
 80059be:	e002      	b.n	80059c6 <xTaskCreate+0x80>
		}
		else
		{
			xReturn = errCOULD_NOT_ALLOCATE_REQUIRED_MEMORY;
 80059c0:	f04f 33ff 	mov.w	r3, #4294967295
 80059c4:	61bb      	str	r3, [r7, #24]
		}

		return xReturn;
 80059c6:	69bb      	ldr	r3, [r7, #24]
	}
 80059c8:	4618      	mov	r0, r3
 80059ca:	3720      	adds	r7, #32
 80059cc:	46bd      	mov	sp, r7
 80059ce:	bd80      	pop	{r7, pc}

080059d0 <prvInitialiseNewTask>:
									void * const pvParameters,
									UBaseType_t uxPriority,
									TaskHandle_t * const pxCreatedTask,
									TCB_t *pxNewTCB,
									const MemoryRegion_t * const xRegions )
{
 80059d0:	b580      	push	{r7, lr}
 80059d2:	b088      	sub	sp, #32
 80059d4:	af00      	add	r7, sp, #0
 80059d6:	60f8      	str	r0, [r7, #12]
 80059d8:	60b9      	str	r1, [r7, #8]
 80059da:	607a      	str	r2, [r7, #4]
 80059dc:	603b      	str	r3, [r7, #0]
	grows from high memory to low (as per the 80x86) or vice versa.
	portSTACK_GROWTH is used to make the result positive or negative as required
	by the port. */
	#if( portSTACK_GROWTH < 0 )
	{
		pxTopOfStack = pxNewTCB->pxStack + ( ulStackDepth - ( uint32_t ) 1 );
 80059de:	6b3b      	ldr	r3, [r7, #48]	; 0x30
 80059e0:	6b1a      	ldr	r2, [r3, #48]	; 0x30
 80059e2:	687b      	ldr	r3, [r7, #4]
 80059e4:	f103 4380 	add.w	r3, r3, #1073741824	; 0x40000000
 80059e8:	3b01      	subs	r3, #1
 80059ea:	009b      	lsls	r3, r3, #2
 80059ec:	4413      	add	r3, r2
 80059ee:	61bb      	str	r3, [r7, #24]
		pxTopOfStack = ( StackType_t * ) ( ( ( portPOINTER_SIZE_TYPE ) pxTopOfStack ) & ( ~( ( portPOINTER_SIZE_TYPE ) portBYTE_ALIGNMENT_MASK ) ) ); /*lint !e923 MISRA exception.  Avoiding casts between pointers and integers is not practical.  Size differences accounted for using portPOINTER_SIZE_TYPE type. */
 80059f0:	69bb      	ldr	r3, [r7, #24]
 80059f2:	f023 0307 	bic.w	r3, r3, #7
 80059f6:	61bb      	str	r3, [r7, #24]

		/* Check the alignment of the calculated top of stack is correct. */
		configASSERT( ( ( ( portPOINTER_SIZE_TYPE ) pxTopOfStack & ( portPOINTER_SIZE_TYPE ) portBYTE_ALIGNMENT_MASK ) == 0UL ) );
 80059f8:	69bb      	ldr	r3, [r7, #24]
 80059fa:	f003 0307 	and.w	r3, r3, #7
 80059fe:	2b00      	cmp	r3, #0
 8005a00:	d009      	beq.n	8005a16 <prvInitialiseNewTask+0x46>
 8005a02:	f04f 0350 	mov.w	r3, #80	; 0x50
 8005a06:	f383 8811 	msr	BASEPRI, r3
 8005a0a:	f3bf 8f6f 	isb	sy
 8005a0e:	f3bf 8f4f 	dsb	sy
 8005a12:	617b      	str	r3, [r7, #20]
 8005a14:	e7fe      	b.n	8005a14 <prvInitialiseNewTask+0x44>
		pxNewTCB->pxEndOfStack = pxNewTCB->pxStack + ( ulStackDepth - ( uint32_t ) 1 );
	}
	#endif /* portSTACK_GROWTH */

	/* Store the task name in the TCB. */
	for( x = ( UBaseType_t ) 0; x < ( UBaseType_t ) configMAX_TASK_NAME_LEN; x++ )
 8005a16:	2300      	movs	r3, #0
 8005a18:	61fb      	str	r3, [r7, #28]
 8005a1a:	e012      	b.n	8005a42 <prvInitialiseNewTask+0x72>
	{
		pxNewTCB->pcTaskName[ x ] = pcName[ x ];
 8005a1c:	68ba      	ldr	r2, [r7, #8]
 8005a1e:	69fb      	ldr	r3, [r7, #28]
 8005a20:	4413      	add	r3, r2
 8005a22:	7819      	ldrb	r1, [r3, #0]
 8005a24:	6b3a      	ldr	r2, [r7, #48]	; 0x30
 8005a26:	69fb      	ldr	r3, [r7, #28]
 8005a28:	4413      	add	r3, r2
 8005a2a:	3334      	adds	r3, #52	; 0x34
 8005a2c:	460a      	mov	r2, r1
 8005a2e:	701a      	strb	r2, [r3, #0]

		/* Don't copy all configMAX_TASK_NAME_LEN if the string is shorter than
		configMAX_TASK_NAME_LEN characters just in case the memory after the
		string is not accessible (extremely unlikely). */
		if( pcName[ x ] == 0x00 )
 8005a30:	68ba      	ldr	r2, [r7, #8]
 8005a32:	69fb      	ldr	r3, [r7, #28]
 8005a34:	4413      	add	r3, r2
 8005a36:	781b      	ldrb	r3, [r3, #0]
 8005a38:	2b00      	cmp	r3, #0
 8005a3a:	d006      	beq.n	8005a4a <prvInitialiseNewTask+0x7a>
	for( x = ( UBaseType_t ) 0; x < ( UBaseType_t ) configMAX_TASK_NAME_LEN; x++ )
 8005a3c:	69fb      	ldr	r3, [r7, #28]
 8005a3e:	3301      	adds	r3, #1
 8005a40:	61fb      	str	r3, [r7, #28]
 8005a42:	69fb      	ldr	r3, [r7, #28]
 8005a44:	2b0f      	cmp	r3, #15
 8005a46:	d9e9      	bls.n	8005a1c <prvInitialiseNewTask+0x4c>
 8005a48:	e000      	b.n	8005a4c <prvInitialiseNewTask+0x7c>
		{
			break;
 8005a4a:	bf00      	nop
		}
	}

	/* Ensure the name string is terminated in the case that the string length
	was greater or equal to configMAX_TASK_NAME_LEN. */
	pxNewTCB->pcTaskName[ configMAX_TASK_NAME_LEN - 1 ] = '\0';
 8005a4c:	6b3b      	ldr	r3, [r7, #48]	; 0x30
 8005a4e:	2200      	movs	r2, #0
 8005a50:	f883 2043 	strb.w	r2, [r3, #67]	; 0x43

	/* This is used as an array index so must ensure it's not too large.  First
	remove the privilege bit if one is present. */
	if( uxPriority >= ( UBaseType_t ) configMAX_PRIORITIES )
 8005a54:	6abb      	ldr	r3, [r7, #40]	; 0x28
 8005a56:	2b06      	cmp	r3, #6
 8005a58:	d901      	bls.n	8005a5e <prvInitialiseNewTask+0x8e>
	{
		uxPriority = ( UBaseType_t ) configMAX_PRIORITIES - ( UBaseType_t ) 1U;
 8005a5a:	2306      	movs	r3, #6
 8005a5c:	62bb      	str	r3, [r7, #40]	; 0x28
	else
	{
		mtCOVERAGE_TEST_MARKER();
	}

	pxNewTCB->uxPriority = uxPriority;
 8005a5e:	6b3b      	ldr	r3, [r7, #48]	; 0x30
 8005a60:	6aba      	ldr	r2, [r7, #40]	; 0x28
 8005a62:	62da      	str	r2, [r3, #44]	; 0x2c
	#if ( configUSE_MUTEXES == 1 )
	{
		pxNewTCB->uxBasePriority = uxPriority;
 8005a64:	6b3b      	ldr	r3, [r7, #48]	; 0x30
 8005a66:	6aba      	ldr	r2, [r7, #40]	; 0x28
 8005a68:	645a      	str	r2, [r3, #68]	; 0x44
		pxNewTCB->uxMutexesHeld = 0;
 8005a6a:	6b3b      	ldr	r3, [r7, #48]	; 0x30
 8005a6c:	2200      	movs	r2, #0
 8005a6e:	649a      	str	r2, [r3, #72]	; 0x48
	}
	#endif /* configUSE_MUTEXES */

	vListInitialiseItem( &( pxNewTCB->xStateListItem ) );
 8005a70:	6b3b      	ldr	r3, [r7, #48]	; 0x30
 8005a72:	3304      	adds	r3, #4
 8005a74:	4618      	mov	r0, r3
 8005a76:	f7ff fdb3 	bl	80055e0 <vListInitialiseItem>
	vListInitialiseItem( &( pxNewTCB->xEventListItem ) );
 8005a7a:	6b3b      	ldr	r3, [r7, #48]	; 0x30
 8005a7c:	3318      	adds	r3, #24
 8005a7e:	4618      	mov	r0, r3
 8005a80:	f7ff fdae 	bl	80055e0 <vListInitialiseItem>

	/* Set the pxNewTCB as a link back from the ListItem_t.  This is so we can get
	back to	the containing TCB from a generic item in a list. */
	listSET_LIST_ITEM_OWNER( &( pxNewTCB->xStateListItem ), pxNewTCB );
 8005a84:	6b3b      	ldr	r3, [r7, #48]	; 0x30
 8005a86:	6b3a      	ldr	r2, [r7, #48]	; 0x30
 8005a88:	611a      	str	r2, [r3, #16]

	/* Event lists are always in priority order. */
	listSET_LIST_ITEM_VALUE( &( pxNewTCB->xEventListItem ), ( TickType_t ) configMAX_PRIORITIES - ( TickType_t ) uxPriority ); /*lint !e961 MISRA exception as the casts are only redundant for some ports. */
 8005a8a:	6abb      	ldr	r3, [r7, #40]	; 0x28
 8005a8c:	f1c3 0207 	rsb	r2, r3, #7
 8005a90:	6b3b      	ldr	r3, [r7, #48]	; 0x30
 8005a92:	619a      	str	r2, [r3, #24]
	listSET_LIST_ITEM_OWNER( &( pxNewTCB->xEventListItem ), pxNewTCB );
 8005a94:	6b3b      	ldr	r3, [r7, #48]	; 0x30
 8005a96:	6b3a      	ldr	r2, [r7, #48]	; 0x30
 8005a98:	625a      	str	r2, [r3, #36]	; 0x24
	}
	#endif

	#if ( configUSE_TASK_NOTIFICATIONS == 1 )
	{
		pxNewTCB->ulNotifiedValue = 0;
 8005a9a:	6b3b      	ldr	r3, [r7, #48]	; 0x30
 8005a9c:	2200      	movs	r2, #0
 8005a9e:	64da      	str	r2, [r3, #76]	; 0x4c
		pxNewTCB->ucNotifyState = taskNOT_WAITING_NOTIFICATION;
 8005aa0:	6b3b      	ldr	r3, [r7, #48]	; 0x30
 8005aa2:	2200      	movs	r2, #0
 8005aa4:	f883 2050 	strb.w	r2, [r3, #80]	; 0x50
	{
		pxNewTCB->pxTopOfStack = pxPortInitialiseStack( pxTopOfStack, pxTaskCode, pvParameters, xRunPrivileged );
	}
	#else /* portUSING_MPU_WRAPPERS */
	{
		pxNewTCB->pxTopOfStack = pxPortInitialiseStack( pxTopOfStack, pxTaskCode, pvParameters );
 8005aa8:	683a      	ldr	r2, [r7, #0]
 8005aaa:	68f9      	ldr	r1, [r7, #12]
 8005aac:	69b8      	ldr	r0, [r7, #24]
 8005aae:	f000 fddd 	bl	800666c <pxPortInitialiseStack>
 8005ab2:	4602      	mov	r2, r0
 8005ab4:	6b3b      	ldr	r3, [r7, #48]	; 0x30
 8005ab6:	601a      	str	r2, [r3, #0]
	}
	#endif /* portUSING_MPU_WRAPPERS */

	if( ( void * ) pxCreatedTask != NULL )
 8005ab8:	6afb      	ldr	r3, [r7, #44]	; 0x2c
 8005aba:	2b00      	cmp	r3, #0
 8005abc:	d002      	beq.n	8005ac4 <prvInitialiseNewTask+0xf4>
	{
		/* Pass the handle out in an anonymous way.  The handle can be used to
		change the created task's priority, delete the created task, etc.*/
		*pxCreatedTask = ( TaskHandle_t ) pxNewTCB;
 8005abe:	6afb      	ldr	r3, [r7, #44]	; 0x2c
 8005ac0:	6b3a      	ldr	r2, [r7, #48]	; 0x30
 8005ac2:	601a      	str	r2, [r3, #0]
	}
	else
	{
		mtCOVERAGE_TEST_MARKER();
	}
}
 8005ac4:	bf00      	nop
 8005ac6:	3720      	adds	r7, #32
 8005ac8:	46bd      	mov	sp, r7
 8005aca:	bd80      	pop	{r7, pc}

08005acc <prvAddNewTaskToReadyList>:
/*-----------------------------------------------------------*/

static void prvAddNewTaskToReadyList( TCB_t *pxNewTCB )
{
 8005acc:	b5b0      	push	{r4, r5, r7, lr}
 8005ace:	b084      	sub	sp, #16
 8005ad0:	af02      	add	r7, sp, #8
 8005ad2:	6078      	str	r0, [r7, #4]
	/* Ensure interrupts don't access the task lists while the lists are being
	updated. */
	taskENTER_CRITICAL();
 8005ad4:	f000 ff0e 	bl	80068f4 <vPortEnterCritical>
	{
		uxCurrentNumberOfTasks++;
 8005ad8:	4b39      	ldr	r3, [pc, #228]	; (8005bc0 <prvAddNewTaskToReadyList+0xf4>)
 8005ada:	681b      	ldr	r3, [r3, #0]
 8005adc:	3301      	adds	r3, #1
 8005ade:	4a38      	ldr	r2, [pc, #224]	; (8005bc0 <prvAddNewTaskToReadyList+0xf4>)
 8005ae0:	6013      	str	r3, [r2, #0]
		if( pxCurrentTCB == NULL )
 8005ae2:	4b38      	ldr	r3, [pc, #224]	; (8005bc4 <prvAddNewTaskToReadyList+0xf8>)
 8005ae4:	681b      	ldr	r3, [r3, #0]
 8005ae6:	2b00      	cmp	r3, #0
 8005ae8:	d109      	bne.n	8005afe <prvAddNewTaskToReadyList+0x32>
		{
			/* There are no other tasks, or all the other tasks are in
			the suspended state - make this the current task. */
			pxCurrentTCB = pxNewTCB;
 8005aea:	4a36      	ldr	r2, [pc, #216]	; (8005bc4 <prvAddNewTaskToReadyList+0xf8>)
 8005aec:	687b      	ldr	r3, [r7, #4]
 8005aee:	6013      	str	r3, [r2, #0]

			if( uxCurrentNumberOfTasks == ( UBaseType_t ) 1 )
 8005af0:	4b33      	ldr	r3, [pc, #204]	; (8005bc0 <prvAddNewTaskToReadyList+0xf4>)
 8005af2:	681b      	ldr	r3, [r3, #0]
 8005af4:	2b01      	cmp	r3, #1
 8005af6:	d110      	bne.n	8005b1a <prvAddNewTaskToReadyList+0x4e>
			{
				/* This is the first task to be created so do the preliminary
				initialisation required.  We will not recover if this call
				fails, but we will report the failure. */
				prvInitialiseTaskLists();
 8005af8:	f000 fc82 	bl	8006400 <prvInitialiseTaskLists>
 8005afc:	e00d      	b.n	8005b1a <prvAddNewTaskToReadyList+0x4e>
		else
		{
			/* If the scheduler is not already running, make this task the
			current task if it is the highest priority task to be created
			so far. */
			if( xSchedulerRunning == pdFALSE )
 8005afe:	4b32      	ldr	r3, [pc, #200]	; (8005bc8 <prvAddNewTaskToReadyList+0xfc>)
 8005b00:	681b      	ldr	r3, [r3, #0]
 8005b02:	2b00      	cmp	r3, #0
 8005b04:	d109      	bne.n	8005b1a <prvAddNewTaskToReadyList+0x4e>
			{
				if( pxCurrentTCB->uxPriority <= pxNewTCB->uxPriority )
 8005b06:	4b2f      	ldr	r3, [pc, #188]	; (8005bc4 <prvAddNewTaskToReadyList+0xf8>)
 8005b08:	681b      	ldr	r3, [r3, #0]
 8005b0a:	6ada      	ldr	r2, [r3, #44]	; 0x2c
 8005b0c:	687b      	ldr	r3, [r7, #4]
 8005b0e:	6adb      	ldr	r3, [r3, #44]	; 0x2c
 8005b10:	429a      	cmp	r2, r3
 8005b12:	d802      	bhi.n	8005b1a <prvAddNewTaskToReadyList+0x4e>
				{
					pxCurrentTCB = pxNewTCB;
 8005b14:	4a2b      	ldr	r2, [pc, #172]	; (8005bc4 <prvAddNewTaskToReadyList+0xf8>)
 8005b16:	687b      	ldr	r3, [r7, #4]
 8005b18:	6013      	str	r3, [r2, #0]
			{
				mtCOVERAGE_TEST_MARKER();
			}
		}

		uxTaskNumber++;
 8005b1a:	4b2c      	ldr	r3, [pc, #176]	; (8005bcc <prvAddNewTaskToReadyList+0x100>)
 8005b1c:	681b      	ldr	r3, [r3, #0]
 8005b1e:	3301      	adds	r3, #1
 8005b20:	4a2a      	ldr	r2, [pc, #168]	; (8005bcc <prvAddNewTaskToReadyList+0x100>)
 8005b22:	6013      	str	r3, [r2, #0]
		{
			/* Add a counter into the TCB for tracing only. */
			pxNewTCB->uxTCBNumber = uxTaskNumber;
		}
		#endif /* configUSE_TRACE_FACILITY */
		traceTASK_CREATE( pxNewTCB );
 8005b24:	687b      	ldr	r3, [r7, #4]
 8005b26:	2b00      	cmp	r3, #0
 8005b28:	d016      	beq.n	8005b58 <prvAddNewTaskToReadyList+0x8c>
 8005b2a:	687b      	ldr	r3, [r7, #4]
 8005b2c:	4618      	mov	r0, r3
 8005b2e:	f002 fa15 	bl	8007f5c <SEGGER_SYSVIEW_OnTaskCreate>
 8005b32:	6878      	ldr	r0, [r7, #4]
 8005b34:	687b      	ldr	r3, [r7, #4]
 8005b36:	f103 0134 	add.w	r1, r3, #52	; 0x34
 8005b3a:	687b      	ldr	r3, [r7, #4]
 8005b3c:	6ada      	ldr	r2, [r3, #44]	; 0x2c
 8005b3e:	687b      	ldr	r3, [r7, #4]
 8005b40:	6b1b      	ldr	r3, [r3, #48]	; 0x30
 8005b42:	461d      	mov	r5, r3
 8005b44:	687b      	ldr	r3, [r7, #4]
 8005b46:	681b      	ldr	r3, [r3, #0]
 8005b48:	461c      	mov	r4, r3
 8005b4a:	687b      	ldr	r3, [r7, #4]
 8005b4c:	6b1b      	ldr	r3, [r3, #48]	; 0x30
 8005b4e:	1ae3      	subs	r3, r4, r3
 8005b50:	9300      	str	r3, [sp, #0]
 8005b52:	462b      	mov	r3, r5
 8005b54:	f001 f966 	bl	8006e24 <SYSVIEW_AddTask>

		prvAddTaskToReadyList( pxNewTCB );
 8005b58:	687b      	ldr	r3, [r7, #4]
 8005b5a:	4618      	mov	r0, r3
 8005b5c:	f002 fa82 	bl	8008064 <SEGGER_SYSVIEW_OnTaskStartReady>
 8005b60:	687b      	ldr	r3, [r7, #4]
 8005b62:	6adb      	ldr	r3, [r3, #44]	; 0x2c
 8005b64:	2201      	movs	r2, #1
 8005b66:	409a      	lsls	r2, r3
 8005b68:	4b19      	ldr	r3, [pc, #100]	; (8005bd0 <prvAddNewTaskToReadyList+0x104>)
 8005b6a:	681b      	ldr	r3, [r3, #0]
 8005b6c:	4313      	orrs	r3, r2
 8005b6e:	4a18      	ldr	r2, [pc, #96]	; (8005bd0 <prvAddNewTaskToReadyList+0x104>)
 8005b70:	6013      	str	r3, [r2, #0]
 8005b72:	687b      	ldr	r3, [r7, #4]
 8005b74:	6ada      	ldr	r2, [r3, #44]	; 0x2c
 8005b76:	4613      	mov	r3, r2
 8005b78:	009b      	lsls	r3, r3, #2
 8005b7a:	4413      	add	r3, r2
 8005b7c:	009b      	lsls	r3, r3, #2
 8005b7e:	4a15      	ldr	r2, [pc, #84]	; (8005bd4 <prvAddNewTaskToReadyList+0x108>)
 8005b80:	441a      	add	r2, r3
 8005b82:	687b      	ldr	r3, [r7, #4]
 8005b84:	3304      	adds	r3, #4
 8005b86:	4619      	mov	r1, r3
 8005b88:	4610      	mov	r0, r2
 8005b8a:	f7ff fd35 	bl	80055f8 <vListInsertEnd>

		portSETUP_TCB( pxNewTCB );
	}
	taskEXIT_CRITICAL();
 8005b8e:	f000 fedf 	bl	8006950 <vPortExitCritical>

	if( xSchedulerRunning != pdFALSE )
 8005b92:	4b0d      	ldr	r3, [pc, #52]	; (8005bc8 <prvAddNewTaskToReadyList+0xfc>)
 8005b94:	681b      	ldr	r3, [r3, #0]
 8005b96:	2b00      	cmp	r3, #0
 8005b98:	d00e      	beq.n	8005bb8 <prvAddNewTaskToReadyList+0xec>
	{
		/* If the created task is of a higher priority than the current task
		then it should run now. */
		if( pxCurrentTCB->uxPriority < pxNewTCB->uxPriority )
 8005b9a:	4b0a      	ldr	r3, [pc, #40]	; (8005bc4 <prvAddNewTaskToReadyList+0xf8>)
 8005b9c:	681b      	ldr	r3, [r3, #0]
 8005b9e:	6ada      	ldr	r2, [r3, #44]	; 0x2c
 8005ba0:	687b      	ldr	r3, [r7, #4]
 8005ba2:	6adb      	ldr	r3, [r3, #44]	; 0x2c
 8005ba4:	429a      	cmp	r2, r3
 8005ba6:	d207      	bcs.n	8005bb8 <prvAddNewTaskToReadyList+0xec>
		{
			taskYIELD_IF_USING_PREEMPTION();
 8005ba8:	4b0b      	ldr	r3, [pc, #44]	; (8005bd8 <prvAddNewTaskToReadyList+0x10c>)
 8005baa:	f04f 5280 	mov.w	r2, #268435456	; 0x10000000
 8005bae:	601a      	str	r2, [r3, #0]
 8005bb0:	f3bf 8f4f 	dsb	sy
 8005bb4:	f3bf 8f6f 	isb	sy
	}
	else
	{
		mtCOVERAGE_TEST_MARKER();
	}
}
 8005bb8:	bf00      	nop
 8005bba:	3708      	adds	r7, #8
 8005bbc:	46bd      	mov	sp, r7
 8005bbe:	bdb0      	pop	{r4, r5, r7, pc}
 8005bc0:	20000390 	.word	0x20000390
 8005bc4:	20000290 	.word	0x20000290
 8005bc8:	2000039c 	.word	0x2000039c
 8005bcc:	200003ac 	.word	0x200003ac
 8005bd0:	20000398 	.word	0x20000398
 8005bd4:	20000294 	.word	0x20000294
 8005bd8:	e000ed04 	.word	0xe000ed04

08005bdc <vTaskDelete>:
/*-----------------------------------------------------------*/

#if ( INCLUDE_vTaskDelete == 1 )

	void vTaskDelete( TaskHandle_t xTaskToDelete )
	{
 8005bdc:	b580      	push	{r7, lr}
 8005bde:	b084      	sub	sp, #16
 8005be0:	af00      	add	r7, sp, #0
 8005be2:	6078      	str	r0, [r7, #4]
	TCB_t *pxTCB;

		taskENTER_CRITICAL();
 8005be4:	f000 fe86 	bl	80068f4 <vPortEnterCritical>
		{
			/* If null is passed in here then it is the calling task that is
			being deleted. */
			pxTCB = prvGetTCBFromHandle( xTaskToDelete );
 8005be8:	687b      	ldr	r3, [r7, #4]
 8005bea:	2b00      	cmp	r3, #0
 8005bec:	d102      	bne.n	8005bf4 <vTaskDelete+0x18>
 8005bee:	4b3f      	ldr	r3, [pc, #252]	; (8005cec <vTaskDelete+0x110>)
 8005bf0:	681b      	ldr	r3, [r3, #0]
 8005bf2:	e000      	b.n	8005bf6 <vTaskDelete+0x1a>
 8005bf4:	687b      	ldr	r3, [r7, #4]
 8005bf6:	60fb      	str	r3, [r7, #12]

			/* Remove task from the ready list. */
			if( uxListRemove( &( pxTCB->xStateListItem ) ) == ( UBaseType_t ) 0 )
 8005bf8:	68fb      	ldr	r3, [r7, #12]
 8005bfa:	3304      	adds	r3, #4
 8005bfc:	4618      	mov	r0, r3
 8005bfe:	f7ff fd56 	bl	80056ae <uxListRemove>
 8005c02:	4603      	mov	r3, r0
 8005c04:	2b00      	cmp	r3, #0
 8005c06:	d115      	bne.n	8005c34 <vTaskDelete+0x58>
			{
				taskRESET_READY_PRIORITY( pxTCB->uxPriority );
 8005c08:	68fb      	ldr	r3, [r7, #12]
 8005c0a:	6ada      	ldr	r2, [r3, #44]	; 0x2c
 8005c0c:	4938      	ldr	r1, [pc, #224]	; (8005cf0 <vTaskDelete+0x114>)
 8005c0e:	4613      	mov	r3, r2
 8005c10:	009b      	lsls	r3, r3, #2
 8005c12:	4413      	add	r3, r2
 8005c14:	009b      	lsls	r3, r3, #2
 8005c16:	440b      	add	r3, r1
 8005c18:	681b      	ldr	r3, [r3, #0]
 8005c1a:	2b00      	cmp	r3, #0
 8005c1c:	d10a      	bne.n	8005c34 <vTaskDelete+0x58>
 8005c1e:	68fb      	ldr	r3, [r7, #12]
 8005c20:	6adb      	ldr	r3, [r3, #44]	; 0x2c
 8005c22:	2201      	movs	r2, #1
 8005c24:	fa02 f303 	lsl.w	r3, r2, r3
 8005c28:	43da      	mvns	r2, r3
 8005c2a:	4b32      	ldr	r3, [pc, #200]	; (8005cf4 <vTaskDelete+0x118>)
 8005c2c:	681b      	ldr	r3, [r3, #0]
 8005c2e:	4013      	ands	r3, r2
 8005c30:	4a30      	ldr	r2, [pc, #192]	; (8005cf4 <vTaskDelete+0x118>)
 8005c32:	6013      	str	r3, [r2, #0]
			{
				mtCOVERAGE_TEST_MARKER();
			}

			/* Is the task waiting on an event also? */
			if( listLIST_ITEM_CONTAINER( &( pxTCB->xEventListItem ) ) != NULL )
 8005c34:	68fb      	ldr	r3, [r7, #12]
 8005c36:	6a9b      	ldr	r3, [r3, #40]	; 0x28
 8005c38:	2b00      	cmp	r3, #0
 8005c3a:	d004      	beq.n	8005c46 <vTaskDelete+0x6a>
			{
				( void ) uxListRemove( &( pxTCB->xEventListItem ) );
 8005c3c:	68fb      	ldr	r3, [r7, #12]
 8005c3e:	3318      	adds	r3, #24
 8005c40:	4618      	mov	r0, r3
 8005c42:	f7ff fd34 	bl	80056ae <uxListRemove>

			/* Increment the uxTaskNumber also so kernel aware debuggers can
			detect that the task lists need re-generating.  This is done before
			portPRE_TASK_DELETE_HOOK() as in the Windows port that macro will
			not return. */
			uxTaskNumber++;
 8005c46:	4b2c      	ldr	r3, [pc, #176]	; (8005cf8 <vTaskDelete+0x11c>)
 8005c48:	681b      	ldr	r3, [r3, #0]
 8005c4a:	3301      	adds	r3, #1
 8005c4c:	4a2a      	ldr	r2, [pc, #168]	; (8005cf8 <vTaskDelete+0x11c>)
 8005c4e:	6013      	str	r3, [r2, #0]

			if( pxTCB == pxCurrentTCB )
 8005c50:	4b26      	ldr	r3, [pc, #152]	; (8005cec <vTaskDelete+0x110>)
 8005c52:	681b      	ldr	r3, [r3, #0]
 8005c54:	68fa      	ldr	r2, [r7, #12]
 8005c56:	429a      	cmp	r2, r3
 8005c58:	d10b      	bne.n	8005c72 <vTaskDelete+0x96>
				/* A task is deleting itself.  This cannot complete within the
				task itself, as a context switch to another task is required.
				Place the task in the termination list.  The idle task will
				check the termination list and free up any memory allocated by
				the scheduler for the TCB and stack of the deleted task. */
				vListInsertEnd( &xTasksWaitingTermination, &( pxTCB->xStateListItem ) );
 8005c5a:	68fb      	ldr	r3, [r7, #12]
 8005c5c:	3304      	adds	r3, #4
 8005c5e:	4619      	mov	r1, r3
 8005c60:	4826      	ldr	r0, [pc, #152]	; (8005cfc <vTaskDelete+0x120>)
 8005c62:	f7ff fcc9 	bl	80055f8 <vListInsertEnd>

				/* Increment the ucTasksDeleted variable so the idle task knows
				there is a task that has been deleted and that it should therefore
				check the xTasksWaitingTermination list. */
				++uxDeletedTasksWaitingCleanUp;
 8005c66:	4b26      	ldr	r3, [pc, #152]	; (8005d00 <vTaskDelete+0x124>)
 8005c68:	681b      	ldr	r3, [r3, #0]
 8005c6a:	3301      	adds	r3, #1
 8005c6c:	4a24      	ldr	r2, [pc, #144]	; (8005d00 <vTaskDelete+0x124>)
 8005c6e:	6013      	str	r3, [r2, #0]
 8005c70:	e009      	b.n	8005c86 <vTaskDelete+0xaa>
				required. */
				portPRE_TASK_DELETE_HOOK( pxTCB, &xYieldPending );
			}
			else
			{
				--uxCurrentNumberOfTasks;
 8005c72:	4b24      	ldr	r3, [pc, #144]	; (8005d04 <vTaskDelete+0x128>)
 8005c74:	681b      	ldr	r3, [r3, #0]
 8005c76:	3b01      	subs	r3, #1
 8005c78:	4a22      	ldr	r2, [pc, #136]	; (8005d04 <vTaskDelete+0x128>)
 8005c7a:	6013      	str	r3, [r2, #0]
				prvDeleteTCB( pxTCB );
 8005c7c:	68f8      	ldr	r0, [r7, #12]
 8005c7e:	f000 fc2b 	bl	80064d8 <prvDeleteTCB>

				/* Reset the next expected unblock time in case it referred to
				the task that has just been deleted. */
				prvResetNextTaskUnblockTime();
 8005c82:	f000 fc57 	bl	8006534 <prvResetNextTaskUnblockTime>
			}

			traceTASK_DELETE( pxTCB );
 8005c86:	68fb      	ldr	r3, [r7, #12]
 8005c88:	4618      	mov	r0, r3
 8005c8a:	f002 fa8d 	bl	80081a8 <SEGGER_SYSVIEW_ShrinkId>
 8005c8e:	4603      	mov	r3, r0
 8005c90:	4619      	mov	r1, r3
 8005c92:	2022      	movs	r0, #34	; 0x22
 8005c94:	f001 fd1e 	bl	80076d4 <SEGGER_SYSVIEW_RecordU32>
 8005c98:	68fb      	ldr	r3, [r7, #12]
 8005c9a:	4618      	mov	r0, r3
 8005c9c:	f001 f92a 	bl	8006ef4 <SYSVIEW_DeleteTask>
		}
		taskEXIT_CRITICAL();
 8005ca0:	f000 fe56 	bl	8006950 <vPortExitCritical>

		/* Force a reschedule if it is the currently running task that has just
		been deleted. */
		if( xSchedulerRunning != pdFALSE )
 8005ca4:	4b18      	ldr	r3, [pc, #96]	; (8005d08 <vTaskDelete+0x12c>)
 8005ca6:	681b      	ldr	r3, [r3, #0]
 8005ca8:	2b00      	cmp	r3, #0
 8005caa:	d01a      	beq.n	8005ce2 <vTaskDelete+0x106>
		{
			if( pxTCB == pxCurrentTCB )
 8005cac:	4b0f      	ldr	r3, [pc, #60]	; (8005cec <vTaskDelete+0x110>)
 8005cae:	681b      	ldr	r3, [r3, #0]
 8005cb0:	68fa      	ldr	r2, [r7, #12]
 8005cb2:	429a      	cmp	r2, r3
 8005cb4:	d115      	bne.n	8005ce2 <vTaskDelete+0x106>
			{
				configASSERT( uxSchedulerSuspended == 0 );
 8005cb6:	4b15      	ldr	r3, [pc, #84]	; (8005d0c <vTaskDelete+0x130>)
 8005cb8:	681b      	ldr	r3, [r3, #0]
 8005cba:	2b00      	cmp	r3, #0
 8005cbc:	d009      	beq.n	8005cd2 <vTaskDelete+0xf6>
 8005cbe:	f04f 0350 	mov.w	r3, #80	; 0x50
 8005cc2:	f383 8811 	msr	BASEPRI, r3
 8005cc6:	f3bf 8f6f 	isb	sy
 8005cca:	f3bf 8f4f 	dsb	sy
 8005cce:	60bb      	str	r3, [r7, #8]
 8005cd0:	e7fe      	b.n	8005cd0 <vTaskDelete+0xf4>
				portYIELD_WITHIN_API();
 8005cd2:	4b0f      	ldr	r3, [pc, #60]	; (8005d10 <vTaskDelete+0x134>)
 8005cd4:	f04f 5280 	mov.w	r2, #268435456	; 0x10000000
 8005cd8:	601a      	str	r2, [r3, #0]
 8005cda:	f3bf 8f4f 	dsb	sy
 8005cde:	f3bf 8f6f 	isb	sy
			else
			{
				mtCOVERAGE_TEST_MARKER();
			}
		}
	}
 8005ce2:	bf00      	nop
 8005ce4:	3710      	adds	r7, #16
 8005ce6:	46bd      	mov	sp, r7
 8005ce8:	bd80      	pop	{r7, pc}
 8005cea:	bf00      	nop
 8005cec:	20000290 	.word	0x20000290
 8005cf0:	20000294 	.word	0x20000294
 8005cf4:	20000398 	.word	0x20000398
 8005cf8:	200003ac 	.word	0x200003ac
 8005cfc:	20000364 	.word	0x20000364
 8005d00:	20000378 	.word	0x20000378
 8005d04:	20000390 	.word	0x20000390
 8005d08:	2000039c 	.word	0x2000039c
 8005d0c:	200003b8 	.word	0x200003b8
 8005d10:	e000ed04 	.word	0xe000ed04

08005d14 <vTaskDelayUntil>:
/*-----------------------------------------------------------*/

#if ( INCLUDE_vTaskDelayUntil == 1 )

	void vTaskDelayUntil( TickType_t * const pxPreviousWakeTime, const TickType_t xTimeIncrement )
	{
 8005d14:	b580      	push	{r7, lr}
 8005d16:	b08a      	sub	sp, #40	; 0x28
 8005d18:	af00      	add	r7, sp, #0
 8005d1a:	6078      	str	r0, [r7, #4]
 8005d1c:	6039      	str	r1, [r7, #0]
	TickType_t xTimeToWake;
	BaseType_t xAlreadyYielded, xShouldDelay = pdFALSE;
 8005d1e:	2300      	movs	r3, #0
 8005d20:	627b      	str	r3, [r7, #36]	; 0x24

		configASSERT( pxPreviousWakeTime );
 8005d22:	687b      	ldr	r3, [r7, #4]
 8005d24:	2b00      	cmp	r3, #0
 8005d26:	d109      	bne.n	8005d3c <vTaskDelayUntil+0x28>
 8005d28:	f04f 0350 	mov.w	r3, #80	; 0x50
 8005d2c:	f383 8811 	msr	BASEPRI, r3
 8005d30:	f3bf 8f6f 	isb	sy
 8005d34:	f3bf 8f4f 	dsb	sy
 8005d38:	617b      	str	r3, [r7, #20]
 8005d3a:	e7fe      	b.n	8005d3a <vTaskDelayUntil+0x26>
		configASSERT( ( xTimeIncrement > 0U ) );
 8005d3c:	683b      	ldr	r3, [r7, #0]
 8005d3e:	2b00      	cmp	r3, #0
 8005d40:	d109      	bne.n	8005d56 <vTaskDelayUntil+0x42>
 8005d42:	f04f 0350 	mov.w	r3, #80	; 0x50
 8005d46:	f383 8811 	msr	BASEPRI, r3
 8005d4a:	f3bf 8f6f 	isb	sy
 8005d4e:	f3bf 8f4f 	dsb	sy
 8005d52:	613b      	str	r3, [r7, #16]
 8005d54:	e7fe      	b.n	8005d54 <vTaskDelayUntil+0x40>
		configASSERT( uxSchedulerSuspended == 0 );
 8005d56:	4b2b      	ldr	r3, [pc, #172]	; (8005e04 <vTaskDelayUntil+0xf0>)
 8005d58:	681b      	ldr	r3, [r3, #0]
 8005d5a:	2b00      	cmp	r3, #0
 8005d5c:	d009      	beq.n	8005d72 <vTaskDelayUntil+0x5e>
 8005d5e:	f04f 0350 	mov.w	r3, #80	; 0x50
 8005d62:	f383 8811 	msr	BASEPRI, r3
 8005d66:	f3bf 8f6f 	isb	sy
 8005d6a:	f3bf 8f4f 	dsb	sy
 8005d6e:	60fb      	str	r3, [r7, #12]
 8005d70:	e7fe      	b.n	8005d70 <vTaskDelayUntil+0x5c>

		vTaskSuspendAll();
 8005d72:	f000 f8e3 	bl	8005f3c <vTaskSuspendAll>
		{
			/* Minor optimisation.  The tick count cannot change in this
			block. */
			const TickType_t xConstTickCount = xTickCount;
 8005d76:	4b24      	ldr	r3, [pc, #144]	; (8005e08 <vTaskDelayUntil+0xf4>)
 8005d78:	681b      	ldr	r3, [r3, #0]
 8005d7a:	623b      	str	r3, [r7, #32]

			/* Generate the tick time at which the task wants to wake. */
			xTimeToWake = *pxPreviousWakeTime + xTimeIncrement;
 8005d7c:	687b      	ldr	r3, [r7, #4]
 8005d7e:	681b      	ldr	r3, [r3, #0]
 8005d80:	683a      	ldr	r2, [r7, #0]
 8005d82:	4413      	add	r3, r2
 8005d84:	61fb      	str	r3, [r7, #28]

			if( xConstTickCount < *pxPreviousWakeTime )
 8005d86:	687b      	ldr	r3, [r7, #4]
 8005d88:	681b      	ldr	r3, [r3, #0]
 8005d8a:	6a3a      	ldr	r2, [r7, #32]
 8005d8c:	429a      	cmp	r2, r3
 8005d8e:	d20b      	bcs.n	8005da8 <vTaskDelayUntil+0x94>
				/* The tick count has overflowed since this function was
				lasted called.  In this case the only time we should ever
				actually delay is if the wake time has also	overflowed,
				and the wake time is greater than the tick time.  When this
				is the case it is as if neither time had overflowed. */
				if( ( xTimeToWake < *pxPreviousWakeTime ) && ( xTimeToWake > xConstTickCount ) )
 8005d90:	687b      	ldr	r3, [r7, #4]
 8005d92:	681b      	ldr	r3, [r3, #0]
 8005d94:	69fa      	ldr	r2, [r7, #28]
 8005d96:	429a      	cmp	r2, r3
 8005d98:	d211      	bcs.n	8005dbe <vTaskDelayUntil+0xaa>
 8005d9a:	69fa      	ldr	r2, [r7, #28]
 8005d9c:	6a3b      	ldr	r3, [r7, #32]
 8005d9e:	429a      	cmp	r2, r3
 8005da0:	d90d      	bls.n	8005dbe <vTaskDelayUntil+0xaa>
				{
					xShouldDelay = pdTRUE;
 8005da2:	2301      	movs	r3, #1
 8005da4:	627b      	str	r3, [r7, #36]	; 0x24
 8005da6:	e00a      	b.n	8005dbe <vTaskDelayUntil+0xaa>
			else
			{
				/* The tick time has not overflowed.  In this case we will
				delay if either the wake time has overflowed, and/or the
				tick time is less than the wake time. */
				if( ( xTimeToWake < *pxPreviousWakeTime ) || ( xTimeToWake > xConstTickCount ) )
 8005da8:	687b      	ldr	r3, [r7, #4]
 8005daa:	681b      	ldr	r3, [r3, #0]
 8005dac:	69fa      	ldr	r2, [r7, #28]
 8005dae:	429a      	cmp	r2, r3
 8005db0:	d303      	bcc.n	8005dba <vTaskDelayUntil+0xa6>
 8005db2:	69fa      	ldr	r2, [r7, #28]
 8005db4:	6a3b      	ldr	r3, [r7, #32]
 8005db6:	429a      	cmp	r2, r3
 8005db8:	d901      	bls.n	8005dbe <vTaskDelayUntil+0xaa>
				{
					xShouldDelay = pdTRUE;
 8005dba:	2301      	movs	r3, #1
 8005dbc:	627b      	str	r3, [r7, #36]	; 0x24
					mtCOVERAGE_TEST_MARKER();
				}
			}

			/* Update the wake time ready for the next call. */
			*pxPreviousWakeTime = xTimeToWake;
 8005dbe:	687b      	ldr	r3, [r7, #4]
 8005dc0:	69fa      	ldr	r2, [r7, #28]
 8005dc2:	601a      	str	r2, [r3, #0]

			if( xShouldDelay != pdFALSE )
 8005dc4:	6a7b      	ldr	r3, [r7, #36]	; 0x24
 8005dc6:	2b00      	cmp	r3, #0
 8005dc8:	d009      	beq.n	8005dde <vTaskDelayUntil+0xca>
			{
				traceTASK_DELAY_UNTIL( xTimeToWake );
 8005dca:	2024      	movs	r0, #36	; 0x24
 8005dcc:	f001 fc64 	bl	8007698 <SEGGER_SYSVIEW_RecordVoid>

				/* prvAddCurrentTaskToDelayedList() needs the block time, not
				the time to wake, so subtract the current tick count. */
				prvAddCurrentTaskToDelayedList( xTimeToWake - xConstTickCount, pdFALSE );
 8005dd0:	69fa      	ldr	r2, [r7, #28]
 8005dd2:	6a3b      	ldr	r3, [r7, #32]
 8005dd4:	1ad3      	subs	r3, r2, r3
 8005dd6:	2100      	movs	r1, #0
 8005dd8:	4618      	mov	r0, r3
 8005dda:	f000 fbcf 	bl	800657c <prvAddCurrentTaskToDelayedList>
			else
			{
				mtCOVERAGE_TEST_MARKER();
			}
		}
		xAlreadyYielded = xTaskResumeAll();
 8005dde:	f000 f8bb 	bl	8005f58 <xTaskResumeAll>
 8005de2:	61b8      	str	r0, [r7, #24]

		/* Force a reschedule if xTaskResumeAll has not already done so, we may
		have put ourselves to sleep. */
		if( xAlreadyYielded == pdFALSE )
 8005de4:	69bb      	ldr	r3, [r7, #24]
 8005de6:	2b00      	cmp	r3, #0
 8005de8:	d107      	bne.n	8005dfa <vTaskDelayUntil+0xe6>
		{
			portYIELD_WITHIN_API();
 8005dea:	4b08      	ldr	r3, [pc, #32]	; (8005e0c <vTaskDelayUntil+0xf8>)
 8005dec:	f04f 5280 	mov.w	r2, #268435456	; 0x10000000
 8005df0:	601a      	str	r2, [r3, #0]
 8005df2:	f3bf 8f4f 	dsb	sy
 8005df6:	f3bf 8f6f 	isb	sy
		}
		else
		{
			mtCOVERAGE_TEST_MARKER();
		}
	}
 8005dfa:	bf00      	nop
 8005dfc:	3728      	adds	r7, #40	; 0x28
 8005dfe:	46bd      	mov	sp, r7
 8005e00:	bd80      	pop	{r7, pc}
 8005e02:	bf00      	nop
 8005e04:	200003b8 	.word	0x200003b8
 8005e08:	20000394 	.word	0x20000394
 8005e0c:	e000ed04 	.word	0xe000ed04

08005e10 <vTaskDelay>:
/*-----------------------------------------------------------*/

#if ( INCLUDE_vTaskDelay == 1 )

	void vTaskDelay( const TickType_t xTicksToDelay )
	{
 8005e10:	b580      	push	{r7, lr}
 8005e12:	b084      	sub	sp, #16
 8005e14:	af00      	add	r7, sp, #0
 8005e16:	6078      	str	r0, [r7, #4]
	BaseType_t xAlreadyYielded = pdFALSE;
 8005e18:	2300      	movs	r3, #0
 8005e1a:	60fb      	str	r3, [r7, #12]

		/* A delay time of zero just forces a reschedule. */
		if( xTicksToDelay > ( TickType_t ) 0U )
 8005e1c:	687b      	ldr	r3, [r7, #4]
 8005e1e:	2b00      	cmp	r3, #0
 8005e20:	d01a      	beq.n	8005e58 <vTaskDelay+0x48>
		{
			configASSERT( uxSchedulerSuspended == 0 );
 8005e22:	4b15      	ldr	r3, [pc, #84]	; (8005e78 <vTaskDelay+0x68>)
 8005e24:	681b      	ldr	r3, [r3, #0]
 8005e26:	2b00      	cmp	r3, #0
 8005e28:	d009      	beq.n	8005e3e <vTaskDelay+0x2e>
 8005e2a:	f04f 0350 	mov.w	r3, #80	; 0x50
 8005e2e:	f383 8811 	msr	BASEPRI, r3
 8005e32:	f3bf 8f6f 	isb	sy
 8005e36:	f3bf 8f4f 	dsb	sy
 8005e3a:	60bb      	str	r3, [r7, #8]
 8005e3c:	e7fe      	b.n	8005e3c <vTaskDelay+0x2c>
			vTaskSuspendAll();
 8005e3e:	f000 f87d 	bl	8005f3c <vTaskSuspendAll>
			{
				traceTASK_DELAY();
 8005e42:	6879      	ldr	r1, [r7, #4]
 8005e44:	2023      	movs	r0, #35	; 0x23
 8005e46:	f001 fc45 	bl	80076d4 <SEGGER_SYSVIEW_RecordU32>
				list or removed from the blocked list until the scheduler
				is resumed.

				This task cannot be in an event list as it is the currently
				executing task. */
				prvAddCurrentTaskToDelayedList( xTicksToDelay, pdFALSE );
 8005e4a:	2100      	movs	r1, #0
 8005e4c:	6878      	ldr	r0, [r7, #4]
 8005e4e:	f000 fb95 	bl	800657c <prvAddCurrentTaskToDelayedList>
			}
			xAlreadyYielded = xTaskResumeAll();
 8005e52:	f000 f881 	bl	8005f58 <xTaskResumeAll>
 8005e56:	60f8      	str	r0, [r7, #12]
			mtCOVERAGE_TEST_MARKER();
		}

		/* Force a reschedule if xTaskResumeAll has not already done so, we may
		have put ourselves to sleep. */
		if( xAlreadyYielded == pdFALSE )
 8005e58:	68fb      	ldr	r3, [r7, #12]
 8005e5a:	2b00      	cmp	r3, #0
 8005e5c:	d107      	bne.n	8005e6e <vTaskDelay+0x5e>
		{
			portYIELD_WITHIN_API();
 8005e5e:	4b07      	ldr	r3, [pc, #28]	; (8005e7c <vTaskDelay+0x6c>)
 8005e60:	f04f 5280 	mov.w	r2, #268435456	; 0x10000000
 8005e64:	601a      	str	r2, [r3, #0]
 8005e66:	f3bf 8f4f 	dsb	sy
 8005e6a:	f3bf 8f6f 	isb	sy
		}
		else
		{
			mtCOVERAGE_TEST_MARKER();
		}
	}
 8005e6e:	bf00      	nop
 8005e70:	3710      	adds	r7, #16
 8005e72:	46bd      	mov	sp, r7
 8005e74:	bd80      	pop	{r7, pc}
 8005e76:	bf00      	nop
 8005e78:	200003b8 	.word	0x200003b8
 8005e7c:	e000ed04 	.word	0xe000ed04

08005e80 <vTaskStartScheduler>:

#endif /* ( ( INCLUDE_xTaskResumeFromISR == 1 ) && ( INCLUDE_vTaskSuspend == 1 ) ) */
/*-----------------------------------------------------------*/

void vTaskStartScheduler( void )
{
 8005e80:	b580      	push	{r7, lr}
 8005e82:	b08a      	sub	sp, #40	; 0x28
 8005e84:	af04      	add	r7, sp, #16
BaseType_t xReturn;

	/* Add the idle task at the lowest priority. */
	#if( configSUPPORT_STATIC_ALLOCATION == 1 )
	{
		StaticTask_t *pxIdleTaskTCBBuffer = NULL;
 8005e86:	2300      	movs	r3, #0
 8005e88:	60bb      	str	r3, [r7, #8]
		StackType_t *pxIdleTaskStackBuffer = NULL;
 8005e8a:	2300      	movs	r3, #0
 8005e8c:	607b      	str	r3, [r7, #4]
		uint32_t ulIdleTaskStackSize;

		/* The Idle task is created using user provided RAM - obtain the
		address of the RAM then create the idle task. */
		vApplicationGetIdleTaskMemory( &pxIdleTaskTCBBuffer, &pxIdleTaskStackBuffer, &ulIdleTaskStackSize );
 8005e8e:	463a      	mov	r2, r7
 8005e90:	1d39      	adds	r1, r7, #4
 8005e92:	f107 0308 	add.w	r3, r7, #8
 8005e96:	4618      	mov	r0, r3
 8005e98:	f7fb f83c 	bl	8000f14 <vApplicationGetIdleTaskMemory>
		xIdleTaskHandle = xTaskCreateStatic(	prvIdleTask,
 8005e9c:	6839      	ldr	r1, [r7, #0]
 8005e9e:	687b      	ldr	r3, [r7, #4]
 8005ea0:	68ba      	ldr	r2, [r7, #8]
 8005ea2:	9202      	str	r2, [sp, #8]
 8005ea4:	9301      	str	r3, [sp, #4]
 8005ea6:	2300      	movs	r3, #0
 8005ea8:	9300      	str	r3, [sp, #0]
 8005eaa:	2300      	movs	r3, #0
 8005eac:	460a      	mov	r2, r1
 8005eae:	491d      	ldr	r1, [pc, #116]	; (8005f24 <vTaskStartScheduler+0xa4>)
 8005eb0:	481d      	ldr	r0, [pc, #116]	; (8005f28 <vTaskStartScheduler+0xa8>)
 8005eb2:	f7ff fcef 	bl	8005894 <xTaskCreateStatic>
 8005eb6:	4602      	mov	r2, r0
 8005eb8:	4b1c      	ldr	r3, [pc, #112]	; (8005f2c <vTaskStartScheduler+0xac>)
 8005eba:	601a      	str	r2, [r3, #0]
												( void * ) NULL, /*lint !e961.  The cast is not redundant for all compilers. */
												( tskIDLE_PRIORITY | portPRIVILEGE_BIT ),
												pxIdleTaskStackBuffer,
												pxIdleTaskTCBBuffer ); /*lint !e961 MISRA exception, justified as it is not a redundant explicit cast to all supported compilers. */

		if( xIdleTaskHandle != NULL )
 8005ebc:	4b1b      	ldr	r3, [pc, #108]	; (8005f2c <vTaskStartScheduler+0xac>)
 8005ebe:	681b      	ldr	r3, [r3, #0]
 8005ec0:	2b00      	cmp	r3, #0
 8005ec2:	d002      	beq.n	8005eca <vTaskStartScheduler+0x4a>
		{
			xReturn = pdPASS;
 8005ec4:	2301      	movs	r3, #1
 8005ec6:	617b      	str	r3, [r7, #20]
 8005ec8:	e001      	b.n	8005ece <vTaskStartScheduler+0x4e>
		}
		else
		{
			xReturn = pdFAIL;
 8005eca:	2300      	movs	r3, #0
 8005ecc:	617b      	str	r3, [r7, #20]
			mtCOVERAGE_TEST_MARKER();
		}
	}
	#endif /* configUSE_TIMERS */

	if( xReturn == pdPASS )
 8005ece:	697b      	ldr	r3, [r7, #20]
 8005ed0:	2b01      	cmp	r3, #1
 8005ed2:	d115      	bne.n	8005f00 <vTaskStartScheduler+0x80>
 8005ed4:	f04f 0350 	mov.w	r3, #80	; 0x50
 8005ed8:	f383 8811 	msr	BASEPRI, r3
 8005edc:	f3bf 8f6f 	isb	sy
 8005ee0:	f3bf 8f4f 	dsb	sy
 8005ee4:	613b      	str	r3, [r7, #16]
			structure specific to the task that will run first. */
			_impure_ptr = &( pxCurrentTCB->xNewLib_reent );
		}
		#endif /* configUSE_NEWLIB_REENTRANT */

		xNextTaskUnblockTime = portMAX_DELAY;
 8005ee6:	4b12      	ldr	r3, [pc, #72]	; (8005f30 <vTaskStartScheduler+0xb0>)
 8005ee8:	f04f 32ff 	mov.w	r2, #4294967295
 8005eec:	601a      	str	r2, [r3, #0]
		xSchedulerRunning = pdTRUE;
 8005eee:	4b11      	ldr	r3, [pc, #68]	; (8005f34 <vTaskStartScheduler+0xb4>)
 8005ef0:	2201      	movs	r2, #1
 8005ef2:	601a      	str	r2, [r3, #0]
		xTickCount = ( TickType_t ) 0U;
 8005ef4:	4b10      	ldr	r3, [pc, #64]	; (8005f38 <vTaskStartScheduler+0xb8>)
 8005ef6:	2200      	movs	r2, #0
 8005ef8:	601a      	str	r2, [r3, #0]
		FreeRTOSConfig.h file. */
		portCONFIGURE_TIMER_FOR_RUN_TIME_STATS();

		/* Setting up the timer tick is hardware specific and thus in the
		portable interface. */
		if( xPortStartScheduler() != pdFALSE )
 8005efa:	f000 fc35 	bl	8006768 <xPortStartScheduler>
	}

	/* Prevent compiler warnings if INCLUDE_xTaskGetIdleTaskHandle is set to 0,
	meaning xIdleTaskHandle is not used anywhere else. */
	( void ) xIdleTaskHandle;
}
 8005efe:	e00d      	b.n	8005f1c <vTaskStartScheduler+0x9c>
		configASSERT( xReturn != errCOULD_NOT_ALLOCATE_REQUIRED_MEMORY );
 8005f00:	697b      	ldr	r3, [r7, #20]
 8005f02:	f1b3 3fff 	cmp.w	r3, #4294967295
 8005f06:	d109      	bne.n	8005f1c <vTaskStartScheduler+0x9c>
 8005f08:	f04f 0350 	mov.w	r3, #80	; 0x50
 8005f0c:	f383 8811 	msr	BASEPRI, r3
 8005f10:	f3bf 8f6f 	isb	sy
 8005f14:	f3bf 8f4f 	dsb	sy
 8005f18:	60fb      	str	r3, [r7, #12]
 8005f1a:	e7fe      	b.n	8005f1a <vTaskStartScheduler+0x9a>
}
 8005f1c:	bf00      	nop
 8005f1e:	3718      	adds	r7, #24
 8005f20:	46bd      	mov	sp, r7
 8005f22:	bd80      	pop	{r7, pc}
 8005f24:	08008538 	.word	0x08008538
 8005f28:	080063d1 	.word	0x080063d1
 8005f2c:	200003b4 	.word	0x200003b4
 8005f30:	200003b0 	.word	0x200003b0
 8005f34:	2000039c 	.word	0x2000039c
 8005f38:	20000394 	.word	0x20000394

08005f3c <vTaskSuspendAll>:
	vPortEndScheduler();
}
/*----------------------------------------------------------*/

void vTaskSuspendAll( void )
{
 8005f3c:	b480      	push	{r7}
 8005f3e:	af00      	add	r7, sp, #0
	/* A critical section is not required as the variable is of type
	BaseType_t.  Please read Richard Barry's reply in the following link to a
	post in the FreeRTOS support forum before reporting this as a bug! -
	http://goo.gl/wu4acr */
	++uxSchedulerSuspended;
 8005f40:	4b04      	ldr	r3, [pc, #16]	; (8005f54 <vTaskSuspendAll+0x18>)
 8005f42:	681b      	ldr	r3, [r3, #0]
 8005f44:	3301      	adds	r3, #1
 8005f46:	4a03      	ldr	r2, [pc, #12]	; (8005f54 <vTaskSuspendAll+0x18>)
 8005f48:	6013      	str	r3, [r2, #0]
}
 8005f4a:	bf00      	nop
 8005f4c:	46bd      	mov	sp, r7
 8005f4e:	bc80      	pop	{r7}
 8005f50:	4770      	bx	lr
 8005f52:	bf00      	nop
 8005f54:	200003b8 	.word	0x200003b8

08005f58 <xTaskResumeAll>:

#endif /* configUSE_TICKLESS_IDLE */
/*----------------------------------------------------------*/

BaseType_t xTaskResumeAll( void )
{
 8005f58:	b580      	push	{r7, lr}
 8005f5a:	b084      	sub	sp, #16
 8005f5c:	af00      	add	r7, sp, #0
TCB_t *pxTCB = NULL;
 8005f5e:	2300      	movs	r3, #0
 8005f60:	60fb      	str	r3, [r7, #12]
BaseType_t xAlreadyYielded = pdFALSE;
 8005f62:	2300      	movs	r3, #0
 8005f64:	60bb      	str	r3, [r7, #8]

	/* If uxSchedulerSuspended is zero then this function does not match a
	previous call to vTaskSuspendAll(). */
	configASSERT( uxSchedulerSuspended );
 8005f66:	4b43      	ldr	r3, [pc, #268]	; (8006074 <xTaskResumeAll+0x11c>)
 8005f68:	681b      	ldr	r3, [r3, #0]
 8005f6a:	2b00      	cmp	r3, #0
 8005f6c:	d109      	bne.n	8005f82 <xTaskResumeAll+0x2a>
 8005f6e:	f04f 0350 	mov.w	r3, #80	; 0x50
 8005f72:	f383 8811 	msr	BASEPRI, r3
 8005f76:	f3bf 8f6f 	isb	sy
 8005f7a:	f3bf 8f4f 	dsb	sy
 8005f7e:	603b      	str	r3, [r7, #0]
 8005f80:	e7fe      	b.n	8005f80 <xTaskResumeAll+0x28>
	/* It is possible that an ISR caused a task to be removed from an event
	list while the scheduler was suspended.  If this was the case then the
	removed task will have been added to the xPendingReadyList.  Once the
	scheduler has been resumed it is safe to move all the pending ready
	tasks from this list into their appropriate ready list. */
	taskENTER_CRITICAL();
 8005f82:	f000 fcb7 	bl	80068f4 <vPortEnterCritical>
	{
		--uxSchedulerSuspended;
 8005f86:	4b3b      	ldr	r3, [pc, #236]	; (8006074 <xTaskResumeAll+0x11c>)
 8005f88:	681b      	ldr	r3, [r3, #0]
 8005f8a:	3b01      	subs	r3, #1
 8005f8c:	4a39      	ldr	r2, [pc, #228]	; (8006074 <xTaskResumeAll+0x11c>)
 8005f8e:	6013      	str	r3, [r2, #0]

		if( uxSchedulerSuspended == ( UBaseType_t ) pdFALSE )
 8005f90:	4b38      	ldr	r3, [pc, #224]	; (8006074 <xTaskResumeAll+0x11c>)
 8005f92:	681b      	ldr	r3, [r3, #0]
 8005f94:	2b00      	cmp	r3, #0
 8005f96:	d165      	bne.n	8006064 <xTaskResumeAll+0x10c>
		{
			if( uxCurrentNumberOfTasks > ( UBaseType_t ) 0U )
 8005f98:	4b37      	ldr	r3, [pc, #220]	; (8006078 <xTaskResumeAll+0x120>)
 8005f9a:	681b      	ldr	r3, [r3, #0]
 8005f9c:	2b00      	cmp	r3, #0
 8005f9e:	d061      	beq.n	8006064 <xTaskResumeAll+0x10c>
			{
				/* Move any readied tasks from the pending list into the
				appropriate ready list. */
				while( listLIST_IS_EMPTY( &xPendingReadyList ) == pdFALSE )
 8005fa0:	e032      	b.n	8006008 <xTaskResumeAll+0xb0>
				{
					pxTCB = ( TCB_t * ) listGET_OWNER_OF_HEAD_ENTRY( ( &xPendingReadyList ) );
 8005fa2:	4b36      	ldr	r3, [pc, #216]	; (800607c <xTaskResumeAll+0x124>)
 8005fa4:	68db      	ldr	r3, [r3, #12]
 8005fa6:	68db      	ldr	r3, [r3, #12]
 8005fa8:	60fb      	str	r3, [r7, #12]
					( void ) uxListRemove( &( pxTCB->xEventListItem ) );
 8005faa:	68fb      	ldr	r3, [r7, #12]
 8005fac:	3318      	adds	r3, #24
 8005fae:	4618      	mov	r0, r3
 8005fb0:	f7ff fb7d 	bl	80056ae <uxListRemove>
					( void ) uxListRemove( &( pxTCB->xStateListItem ) );
 8005fb4:	68fb      	ldr	r3, [r7, #12]
 8005fb6:	3304      	adds	r3, #4
 8005fb8:	4618      	mov	r0, r3
 8005fba:	f7ff fb78 	bl	80056ae <uxListRemove>
					prvAddTaskToReadyList( pxTCB );
 8005fbe:	68fb      	ldr	r3, [r7, #12]
 8005fc0:	4618      	mov	r0, r3
 8005fc2:	f002 f84f 	bl	8008064 <SEGGER_SYSVIEW_OnTaskStartReady>
 8005fc6:	68fb      	ldr	r3, [r7, #12]
 8005fc8:	6adb      	ldr	r3, [r3, #44]	; 0x2c
 8005fca:	2201      	movs	r2, #1
 8005fcc:	409a      	lsls	r2, r3
 8005fce:	4b2c      	ldr	r3, [pc, #176]	; (8006080 <xTaskResumeAll+0x128>)
 8005fd0:	681b      	ldr	r3, [r3, #0]
 8005fd2:	4313      	orrs	r3, r2
 8005fd4:	4a2a      	ldr	r2, [pc, #168]	; (8006080 <xTaskResumeAll+0x128>)
 8005fd6:	6013      	str	r3, [r2, #0]
 8005fd8:	68fb      	ldr	r3, [r7, #12]
 8005fda:	6ada      	ldr	r2, [r3, #44]	; 0x2c
 8005fdc:	4613      	mov	r3, r2
 8005fde:	009b      	lsls	r3, r3, #2
 8005fe0:	4413      	add	r3, r2
 8005fe2:	009b      	lsls	r3, r3, #2
 8005fe4:	4a27      	ldr	r2, [pc, #156]	; (8006084 <xTaskResumeAll+0x12c>)
 8005fe6:	441a      	add	r2, r3
 8005fe8:	68fb      	ldr	r3, [r7, #12]
 8005fea:	3304      	adds	r3, #4
 8005fec:	4619      	mov	r1, r3
 8005fee:	4610      	mov	r0, r2
 8005ff0:	f7ff fb02 	bl	80055f8 <vListInsertEnd>

					/* If the moved task has a priority higher than the current
					task then a yield must be performed. */
					if( pxTCB->uxPriority >= pxCurrentTCB->uxPriority )
 8005ff4:	68fb      	ldr	r3, [r7, #12]
 8005ff6:	6ada      	ldr	r2, [r3, #44]	; 0x2c
 8005ff8:	4b23      	ldr	r3, [pc, #140]	; (8006088 <xTaskResumeAll+0x130>)
 8005ffa:	681b      	ldr	r3, [r3, #0]
 8005ffc:	6adb      	ldr	r3, [r3, #44]	; 0x2c
 8005ffe:	429a      	cmp	r2, r3
 8006000:	d302      	bcc.n	8006008 <xTaskResumeAll+0xb0>
					{
						xYieldPending = pdTRUE;
 8006002:	4b22      	ldr	r3, [pc, #136]	; (800608c <xTaskResumeAll+0x134>)
 8006004:	2201      	movs	r2, #1
 8006006:	601a      	str	r2, [r3, #0]
				while( listLIST_IS_EMPTY( &xPendingReadyList ) == pdFALSE )
 8006008:	4b1c      	ldr	r3, [pc, #112]	; (800607c <xTaskResumeAll+0x124>)
 800600a:	681b      	ldr	r3, [r3, #0]
 800600c:	2b00      	cmp	r3, #0
 800600e:	d1c8      	bne.n	8005fa2 <xTaskResumeAll+0x4a>
					{
						mtCOVERAGE_TEST_MARKER();
					}
				}

				if( pxTCB != NULL )
 8006010:	68fb      	ldr	r3, [r7, #12]
 8006012:	2b00      	cmp	r3, #0
 8006014:	d001      	beq.n	800601a <xTaskResumeAll+0xc2>
					which may have prevented the next unblock time from being
					re-calculated, in which case re-calculate it now.  Mainly
					important for low power tickless implementations, where
					this can prevent an unnecessary exit from low power
					state. */
					prvResetNextTaskUnblockTime();
 8006016:	f000 fa8d 	bl	8006534 <prvResetNextTaskUnblockTime>
				/* If any ticks occurred while the scheduler was suspended then
				they should be processed now.  This ensures the tick count does
				not	slip, and that any delayed tasks are resumed at the correct
				time. */
				{
					UBaseType_t uxPendedCounts = uxPendedTicks; /* Non-volatile copy. */
 800601a:	4b1d      	ldr	r3, [pc, #116]	; (8006090 <xTaskResumeAll+0x138>)
 800601c:	681b      	ldr	r3, [r3, #0]
 800601e:	607b      	str	r3, [r7, #4]

					if( uxPendedCounts > ( UBaseType_t ) 0U )
 8006020:	687b      	ldr	r3, [r7, #4]
 8006022:	2b00      	cmp	r3, #0
 8006024:	d010      	beq.n	8006048 <xTaskResumeAll+0xf0>
					{
						do
						{
							if( xTaskIncrementTick() != pdFALSE )
 8006026:	f000 f845 	bl	80060b4 <xTaskIncrementTick>
 800602a:	4603      	mov	r3, r0
 800602c:	2b00      	cmp	r3, #0
 800602e:	d002      	beq.n	8006036 <xTaskResumeAll+0xde>
							{
								xYieldPending = pdTRUE;
 8006030:	4b16      	ldr	r3, [pc, #88]	; (800608c <xTaskResumeAll+0x134>)
 8006032:	2201      	movs	r2, #1
 8006034:	601a      	str	r2, [r3, #0]
							}
							else
							{
								mtCOVERAGE_TEST_MARKER();
							}
							--uxPendedCounts;
 8006036:	687b      	ldr	r3, [r7, #4]
 8006038:	3b01      	subs	r3, #1
 800603a:	607b      	str	r3, [r7, #4]
						} while( uxPendedCounts > ( UBaseType_t ) 0U );
 800603c:	687b      	ldr	r3, [r7, #4]
 800603e:	2b00      	cmp	r3, #0
 8006040:	d1f1      	bne.n	8006026 <xTaskResumeAll+0xce>

						uxPendedTicks = 0;
 8006042:	4b13      	ldr	r3, [pc, #76]	; (8006090 <xTaskResumeAll+0x138>)
 8006044:	2200      	movs	r2, #0
 8006046:	601a      	str	r2, [r3, #0]
					{
						mtCOVERAGE_TEST_MARKER();
					}
				}

				if( xYieldPending != pdFALSE )
 8006048:	4b10      	ldr	r3, [pc, #64]	; (800608c <xTaskResumeAll+0x134>)
 800604a:	681b      	ldr	r3, [r3, #0]
 800604c:	2b00      	cmp	r3, #0
 800604e:	d009      	beq.n	8006064 <xTaskResumeAll+0x10c>
				{
					#if( configUSE_PREEMPTION != 0 )
					{
						xAlreadyYielded = pdTRUE;
 8006050:	2301      	movs	r3, #1
 8006052:	60bb      	str	r3, [r7, #8]
					}
					#endif
					taskYIELD_IF_USING_PREEMPTION();
 8006054:	4b0f      	ldr	r3, [pc, #60]	; (8006094 <xTaskResumeAll+0x13c>)
 8006056:	f04f 5280 	mov.w	r2, #268435456	; 0x10000000
 800605a:	601a      	str	r2, [r3, #0]
 800605c:	f3bf 8f4f 	dsb	sy
 8006060:	f3bf 8f6f 	isb	sy
		else
		{
			mtCOVERAGE_TEST_MARKER();
		}
	}
	taskEXIT_CRITICAL();
 8006064:	f000 fc74 	bl	8006950 <vPortExitCritical>

	return xAlreadyYielded;
 8006068:	68bb      	ldr	r3, [r7, #8]
}
 800606a:	4618      	mov	r0, r3
 800606c:	3710      	adds	r7, #16
 800606e:	46bd      	mov	sp, r7
 8006070:	bd80      	pop	{r7, pc}
 8006072:	bf00      	nop
 8006074:	200003b8 	.word	0x200003b8
 8006078:	20000390 	.word	0x20000390
 800607c:	20000350 	.word	0x20000350
 8006080:	20000398 	.word	0x20000398
 8006084:	20000294 	.word	0x20000294
 8006088:	20000290 	.word	0x20000290
 800608c:	200003a4 	.word	0x200003a4
 8006090:	200003a0 	.word	0x200003a0
 8006094:	e000ed04 	.word	0xe000ed04

08006098 <xTaskGetTickCount>:
/*-----------------------------------------------------------*/

TickType_t xTaskGetTickCount( void )
{
 8006098:	b480      	push	{r7}
 800609a:	b083      	sub	sp, #12
 800609c:	af00      	add	r7, sp, #0
TickType_t xTicks;

	/* Critical section required if running on a 16 bit processor. */
	portTICK_TYPE_ENTER_CRITICAL();
	{
		xTicks = xTickCount;
 800609e:	4b04      	ldr	r3, [pc, #16]	; (80060b0 <xTaskGetTickCount+0x18>)
 80060a0:	681b      	ldr	r3, [r3, #0]
 80060a2:	607b      	str	r3, [r7, #4]
	}
	portTICK_TYPE_EXIT_CRITICAL();

	return xTicks;
 80060a4:	687b      	ldr	r3, [r7, #4]
}
 80060a6:	4618      	mov	r0, r3
 80060a8:	370c      	adds	r7, #12
 80060aa:	46bd      	mov	sp, r7
 80060ac:	bc80      	pop	{r7}
 80060ae:	4770      	bx	lr
 80060b0:	20000394 	.word	0x20000394

080060b4 <xTaskIncrementTick>:

#endif /* INCLUDE_xTaskAbortDelay */
/*----------------------------------------------------------*/

BaseType_t xTaskIncrementTick( void )
{
 80060b4:	b580      	push	{r7, lr}
 80060b6:	b086      	sub	sp, #24
 80060b8:	af00      	add	r7, sp, #0
TCB_t * pxTCB;
TickType_t xItemValue;
BaseType_t xSwitchRequired = pdFALSE;
 80060ba:	2300      	movs	r3, #0
 80060bc:	617b      	str	r3, [r7, #20]

	/* Called by the portable layer each time a tick interrupt occurs.
	Increments the tick then checks to see if the new tick value will cause any
	tasks to be unblocked. */
	traceTASK_INCREMENT_TICK( xTickCount );
	if( uxSchedulerSuspended == ( UBaseType_t ) pdFALSE )
 80060be:	4b52      	ldr	r3, [pc, #328]	; (8006208 <xTaskIncrementTick+0x154>)
 80060c0:	681b      	ldr	r3, [r3, #0]
 80060c2:	2b00      	cmp	r3, #0
 80060c4:	f040 8090 	bne.w	80061e8 <xTaskIncrementTick+0x134>
	{
		/* Minor optimisation.  The tick count cannot change in this
		block. */
		const TickType_t xConstTickCount = xTickCount + ( TickType_t ) 1;
 80060c8:	4b50      	ldr	r3, [pc, #320]	; (800620c <xTaskIncrementTick+0x158>)
 80060ca:	681b      	ldr	r3, [r3, #0]
 80060cc:	3301      	adds	r3, #1
 80060ce:	613b      	str	r3, [r7, #16]

		/* Increment the RTOS tick, switching the delayed and overflowed
		delayed lists if it wraps to 0. */
		xTickCount = xConstTickCount;
 80060d0:	4a4e      	ldr	r2, [pc, #312]	; (800620c <xTaskIncrementTick+0x158>)
 80060d2:	693b      	ldr	r3, [r7, #16]
 80060d4:	6013      	str	r3, [r2, #0]

		if( xConstTickCount == ( TickType_t ) 0U ) /*lint !e774 'if' does not always evaluate to false as it is looking for an overflow. */
 80060d6:	693b      	ldr	r3, [r7, #16]
 80060d8:	2b00      	cmp	r3, #0
 80060da:	d11f      	bne.n	800611c <xTaskIncrementTick+0x68>
		{
			taskSWITCH_DELAYED_LISTS();
 80060dc:	4b4c      	ldr	r3, [pc, #304]	; (8006210 <xTaskIncrementTick+0x15c>)
 80060de:	681b      	ldr	r3, [r3, #0]
 80060e0:	681b      	ldr	r3, [r3, #0]
 80060e2:	2b00      	cmp	r3, #0
 80060e4:	d009      	beq.n	80060fa <xTaskIncrementTick+0x46>
 80060e6:	f04f 0350 	mov.w	r3, #80	; 0x50
 80060ea:	f383 8811 	msr	BASEPRI, r3
 80060ee:	f3bf 8f6f 	isb	sy
 80060f2:	f3bf 8f4f 	dsb	sy
 80060f6:	603b      	str	r3, [r7, #0]
 80060f8:	e7fe      	b.n	80060f8 <xTaskIncrementTick+0x44>
 80060fa:	4b45      	ldr	r3, [pc, #276]	; (8006210 <xTaskIncrementTick+0x15c>)
 80060fc:	681b      	ldr	r3, [r3, #0]
 80060fe:	60fb      	str	r3, [r7, #12]
 8006100:	4b44      	ldr	r3, [pc, #272]	; (8006214 <xTaskIncrementTick+0x160>)
 8006102:	681b      	ldr	r3, [r3, #0]
 8006104:	4a42      	ldr	r2, [pc, #264]	; (8006210 <xTaskIncrementTick+0x15c>)
 8006106:	6013      	str	r3, [r2, #0]
 8006108:	4a42      	ldr	r2, [pc, #264]	; (8006214 <xTaskIncrementTick+0x160>)
 800610a:	68fb      	ldr	r3, [r7, #12]
 800610c:	6013      	str	r3, [r2, #0]
 800610e:	4b42      	ldr	r3, [pc, #264]	; (8006218 <xTaskIncrementTick+0x164>)
 8006110:	681b      	ldr	r3, [r3, #0]
 8006112:	3301      	adds	r3, #1
 8006114:	4a40      	ldr	r2, [pc, #256]	; (8006218 <xTaskIncrementTick+0x164>)
 8006116:	6013      	str	r3, [r2, #0]
 8006118:	f000 fa0c 	bl	8006534 <prvResetNextTaskUnblockTime>

		/* See if this tick has made a timeout expire.  Tasks are stored in
		the	queue in the order of their wake time - meaning once one task
		has been found whose block time has not expired there is no need to
		look any further down the list. */
		if( xConstTickCount >= xNextTaskUnblockTime )
 800611c:	4b3f      	ldr	r3, [pc, #252]	; (800621c <xTaskIncrementTick+0x168>)
 800611e:	681b      	ldr	r3, [r3, #0]
 8006120:	693a      	ldr	r2, [r7, #16]
 8006122:	429a      	cmp	r2, r3
 8006124:	d351      	bcc.n	80061ca <xTaskIncrementTick+0x116>
		{
			for( ;; )
			{
				if( listLIST_IS_EMPTY( pxDelayedTaskList ) != pdFALSE )
 8006126:	4b3a      	ldr	r3, [pc, #232]	; (8006210 <xTaskIncrementTick+0x15c>)
 8006128:	681b      	ldr	r3, [r3, #0]
 800612a:	681b      	ldr	r3, [r3, #0]
 800612c:	2b00      	cmp	r3, #0
 800612e:	d101      	bne.n	8006134 <xTaskIncrementTick+0x80>
 8006130:	2301      	movs	r3, #1
 8006132:	e000      	b.n	8006136 <xTaskIncrementTick+0x82>
 8006134:	2300      	movs	r3, #0
 8006136:	2b00      	cmp	r3, #0
 8006138:	d004      	beq.n	8006144 <xTaskIncrementTick+0x90>
					/* The delayed list is empty.  Set xNextTaskUnblockTime
					to the maximum possible value so it is extremely
					unlikely that the
					if( xTickCount >= xNextTaskUnblockTime ) test will pass
					next time through. */
					xNextTaskUnblockTime = portMAX_DELAY; /*lint !e961 MISRA exception as the casts are only redundant for some ports. */
 800613a:	4b38      	ldr	r3, [pc, #224]	; (800621c <xTaskIncrementTick+0x168>)
 800613c:	f04f 32ff 	mov.w	r2, #4294967295
 8006140:	601a      	str	r2, [r3, #0]
					break;
 8006142:	e042      	b.n	80061ca <xTaskIncrementTick+0x116>
				{
					/* The delayed list is not empty, get the value of the
					item at the head of the delayed list.  This is the time
					at which the task at the head of the delayed list must
					be removed from the Blocked state. */
					pxTCB = ( TCB_t * ) listGET_OWNER_OF_HEAD_ENTRY( pxDelayedTaskList );
 8006144:	4b32      	ldr	r3, [pc, #200]	; (8006210 <xTaskIncrementTick+0x15c>)
 8006146:	681b      	ldr	r3, [r3, #0]
 8006148:	68db      	ldr	r3, [r3, #12]
 800614a:	68db      	ldr	r3, [r3, #12]
 800614c:	60bb      	str	r3, [r7, #8]
					xItemValue = listGET_LIST_ITEM_VALUE( &( pxTCB->xStateListItem ) );
 800614e:	68bb      	ldr	r3, [r7, #8]
 8006150:	685b      	ldr	r3, [r3, #4]
 8006152:	607b      	str	r3, [r7, #4]

					if( xConstTickCount < xItemValue )
 8006154:	693a      	ldr	r2, [r7, #16]
 8006156:	687b      	ldr	r3, [r7, #4]
 8006158:	429a      	cmp	r2, r3
 800615a:	d203      	bcs.n	8006164 <xTaskIncrementTick+0xb0>
						/* It is not time to unblock this item yet, but the
						item value is the time at which the task at the head
						of the blocked list must be removed from the Blocked
						state -	so record the item value in
						xNextTaskUnblockTime. */
						xNextTaskUnblockTime = xItemValue;
 800615c:	4a2f      	ldr	r2, [pc, #188]	; (800621c <xTaskIncrementTick+0x168>)
 800615e:	687b      	ldr	r3, [r7, #4]
 8006160:	6013      	str	r3, [r2, #0]
						break;
 8006162:	e032      	b.n	80061ca <xTaskIncrementTick+0x116>
					{
						mtCOVERAGE_TEST_MARKER();
					}

					/* It is time to remove the item from the Blocked state. */
					( void ) uxListRemove( &( pxTCB->xStateListItem ) );
 8006164:	68bb      	ldr	r3, [r7, #8]
 8006166:	3304      	adds	r3, #4
 8006168:	4618      	mov	r0, r3
 800616a:	f7ff faa0 	bl	80056ae <uxListRemove>

					/* Is the task waiting on an event also?  If so remove
					it from the event list. */
					if( listLIST_ITEM_CONTAINER( &( pxTCB->xEventListItem ) ) != NULL )
 800616e:	68bb      	ldr	r3, [r7, #8]
 8006170:	6a9b      	ldr	r3, [r3, #40]	; 0x28
 8006172:	2b00      	cmp	r3, #0
 8006174:	d004      	beq.n	8006180 <xTaskIncrementTick+0xcc>
					{
						( void ) uxListRemove( &( pxTCB->xEventListItem ) );
 8006176:	68bb      	ldr	r3, [r7, #8]
 8006178:	3318      	adds	r3, #24
 800617a:	4618      	mov	r0, r3
 800617c:	f7ff fa97 	bl	80056ae <uxListRemove>
						mtCOVERAGE_TEST_MARKER();
					}

					/* Place the unblocked task into the appropriate ready
					list. */
					prvAddTaskToReadyList( pxTCB );
 8006180:	68bb      	ldr	r3, [r7, #8]
 8006182:	4618      	mov	r0, r3
 8006184:	f001 ff6e 	bl	8008064 <SEGGER_SYSVIEW_OnTaskStartReady>
 8006188:	68bb      	ldr	r3, [r7, #8]
 800618a:	6adb      	ldr	r3, [r3, #44]	; 0x2c
 800618c:	2201      	movs	r2, #1
 800618e:	409a      	lsls	r2, r3
 8006190:	4b23      	ldr	r3, [pc, #140]	; (8006220 <xTaskIncrementTick+0x16c>)
 8006192:	681b      	ldr	r3, [r3, #0]
 8006194:	4313      	orrs	r3, r2
 8006196:	4a22      	ldr	r2, [pc, #136]	; (8006220 <xTaskIncrementTick+0x16c>)
 8006198:	6013      	str	r3, [r2, #0]
 800619a:	68bb      	ldr	r3, [r7, #8]
 800619c:	6ada      	ldr	r2, [r3, #44]	; 0x2c
 800619e:	4613      	mov	r3, r2
 80061a0:	009b      	lsls	r3, r3, #2
 80061a2:	4413      	add	r3, r2
 80061a4:	009b      	lsls	r3, r3, #2
 80061a6:	4a1f      	ldr	r2, [pc, #124]	; (8006224 <xTaskIncrementTick+0x170>)
 80061a8:	441a      	add	r2, r3
 80061aa:	68bb      	ldr	r3, [r7, #8]
 80061ac:	3304      	adds	r3, #4
 80061ae:	4619      	mov	r1, r3
 80061b0:	4610      	mov	r0, r2
 80061b2:	f7ff fa21 	bl	80055f8 <vListInsertEnd>
					{
						/* Preemption is on, but a context switch should
						only be performed if the unblocked task has a
						priority that is equal to or higher than the
						currently executing task. */
						if( pxTCB->uxPriority >= pxCurrentTCB->uxPriority )
 80061b6:	68bb      	ldr	r3, [r7, #8]
 80061b8:	6ada      	ldr	r2, [r3, #44]	; 0x2c
 80061ba:	4b1b      	ldr	r3, [pc, #108]	; (8006228 <xTaskIncrementTick+0x174>)
 80061bc:	681b      	ldr	r3, [r3, #0]
 80061be:	6adb      	ldr	r3, [r3, #44]	; 0x2c
 80061c0:	429a      	cmp	r2, r3
 80061c2:	d3b0      	bcc.n	8006126 <xTaskIncrementTick+0x72>
						{
							xSwitchRequired = pdTRUE;
 80061c4:	2301      	movs	r3, #1
 80061c6:	617b      	str	r3, [r7, #20]
				if( listLIST_IS_EMPTY( pxDelayedTaskList ) != pdFALSE )
 80061c8:	e7ad      	b.n	8006126 <xTaskIncrementTick+0x72>
		/* Tasks of equal priority to the currently running task will share
		processing time (time slice) if preemption is on, and the application
		writer has not explicitly turned time slicing off. */
		#if ( ( configUSE_PREEMPTION == 1 ) && ( configUSE_TIME_SLICING == 1 ) )
		{
			if( listCURRENT_LIST_LENGTH( &( pxReadyTasksLists[ pxCurrentTCB->uxPriority ] ) ) > ( UBaseType_t ) 1 )
 80061ca:	4b17      	ldr	r3, [pc, #92]	; (8006228 <xTaskIncrementTick+0x174>)
 80061cc:	681b      	ldr	r3, [r3, #0]
 80061ce:	6ada      	ldr	r2, [r3, #44]	; 0x2c
 80061d0:	4914      	ldr	r1, [pc, #80]	; (8006224 <xTaskIncrementTick+0x170>)
 80061d2:	4613      	mov	r3, r2
 80061d4:	009b      	lsls	r3, r3, #2
 80061d6:	4413      	add	r3, r2
 80061d8:	009b      	lsls	r3, r3, #2
 80061da:	440b      	add	r3, r1
 80061dc:	681b      	ldr	r3, [r3, #0]
 80061de:	2b01      	cmp	r3, #1
 80061e0:	d907      	bls.n	80061f2 <xTaskIncrementTick+0x13e>
			{
				xSwitchRequired = pdTRUE;
 80061e2:	2301      	movs	r3, #1
 80061e4:	617b      	str	r3, [r7, #20]
 80061e6:	e004      	b.n	80061f2 <xTaskIncrementTick+0x13e>
		}
		#endif /* configUSE_TICK_HOOK */
	}
	else
	{
		++uxPendedTicks;
 80061e8:	4b10      	ldr	r3, [pc, #64]	; (800622c <xTaskIncrementTick+0x178>)
 80061ea:	681b      	ldr	r3, [r3, #0]
 80061ec:	3301      	adds	r3, #1
 80061ee:	4a0f      	ldr	r2, [pc, #60]	; (800622c <xTaskIncrementTick+0x178>)
 80061f0:	6013      	str	r3, [r2, #0]
		#endif
	}

	#if ( configUSE_PREEMPTION == 1 )
	{
		if( xYieldPending != pdFALSE )
 80061f2:	4b0f      	ldr	r3, [pc, #60]	; (8006230 <xTaskIncrementTick+0x17c>)
 80061f4:	681b      	ldr	r3, [r3, #0]
 80061f6:	2b00      	cmp	r3, #0
 80061f8:	d001      	beq.n	80061fe <xTaskIncrementTick+0x14a>
		{
			xSwitchRequired = pdTRUE;
 80061fa:	2301      	movs	r3, #1
 80061fc:	617b      	str	r3, [r7, #20]
			mtCOVERAGE_TEST_MARKER();
		}
	}
	#endif /* configUSE_PREEMPTION */

	return xSwitchRequired;
 80061fe:	697b      	ldr	r3, [r7, #20]
}
 8006200:	4618      	mov	r0, r3
 8006202:	3718      	adds	r7, #24
 8006204:	46bd      	mov	sp, r7
 8006206:	bd80      	pop	{r7, pc}
 8006208:	200003b8 	.word	0x200003b8
 800620c:	20000394 	.word	0x20000394
 8006210:	20000348 	.word	0x20000348
 8006214:	2000034c 	.word	0x2000034c
 8006218:	200003a8 	.word	0x200003a8
 800621c:	200003b0 	.word	0x200003b0
 8006220:	20000398 	.word	0x20000398
 8006224:	20000294 	.word	0x20000294
 8006228:	20000290 	.word	0x20000290
 800622c:	200003a0 	.word	0x200003a0
 8006230:	200003a4 	.word	0x200003a4

08006234 <vTaskSwitchContext>:

#endif /* configUSE_APPLICATION_TASK_TAG */
/*-----------------------------------------------------------*/

void vTaskSwitchContext( void )
{
 8006234:	b580      	push	{r7, lr}
 8006236:	b086      	sub	sp, #24
 8006238:	af00      	add	r7, sp, #0
	if( uxSchedulerSuspended != ( UBaseType_t ) pdFALSE )
 800623a:	4b2c      	ldr	r3, [pc, #176]	; (80062ec <vTaskSwitchContext+0xb8>)
 800623c:	681b      	ldr	r3, [r3, #0]
 800623e:	2b00      	cmp	r3, #0
 8006240:	d003      	beq.n	800624a <vTaskSwitchContext+0x16>
	{
		/* The scheduler is currently suspended - do not allow a context
		switch. */
		xYieldPending = pdTRUE;
 8006242:	4b2b      	ldr	r3, [pc, #172]	; (80062f0 <vTaskSwitchContext+0xbc>)
 8006244:	2201      	movs	r2, #1
 8006246:	601a      	str	r2, [r3, #0]
			structure specific to this task. */
			_impure_ptr = &( pxCurrentTCB->xNewLib_reent );
		}
		#endif /* configUSE_NEWLIB_REENTRANT */
	}
}
 8006248:	e04c      	b.n	80062e4 <vTaskSwitchContext+0xb0>
		xYieldPending = pdFALSE;
 800624a:	4b29      	ldr	r3, [pc, #164]	; (80062f0 <vTaskSwitchContext+0xbc>)
 800624c:	2200      	movs	r2, #0
 800624e:	601a      	str	r2, [r3, #0]
		taskSELECT_HIGHEST_PRIORITY_TASK();
 8006250:	4b28      	ldr	r3, [pc, #160]	; (80062f4 <vTaskSwitchContext+0xc0>)
 8006252:	681b      	ldr	r3, [r3, #0]
 8006254:	60fb      	str	r3, [r7, #12]
		__asm volatile ( "clz %0, %1" : "=r" ( ucReturn ) : "r" ( ulBitmap ) : "memory" );
 8006256:	68fb      	ldr	r3, [r7, #12]
 8006258:	fab3 f383 	clz	r3, r3
 800625c:	72fb      	strb	r3, [r7, #11]
		return ucReturn;
 800625e:	7afb      	ldrb	r3, [r7, #11]
 8006260:	f1c3 031f 	rsb	r3, r3, #31
 8006264:	617b      	str	r3, [r7, #20]
 8006266:	4924      	ldr	r1, [pc, #144]	; (80062f8 <vTaskSwitchContext+0xc4>)
 8006268:	697a      	ldr	r2, [r7, #20]
 800626a:	4613      	mov	r3, r2
 800626c:	009b      	lsls	r3, r3, #2
 800626e:	4413      	add	r3, r2
 8006270:	009b      	lsls	r3, r3, #2
 8006272:	440b      	add	r3, r1
 8006274:	681b      	ldr	r3, [r3, #0]
 8006276:	2b00      	cmp	r3, #0
 8006278:	d109      	bne.n	800628e <vTaskSwitchContext+0x5a>
	__asm volatile
 800627a:	f04f 0350 	mov.w	r3, #80	; 0x50
 800627e:	f383 8811 	msr	BASEPRI, r3
 8006282:	f3bf 8f6f 	isb	sy
 8006286:	f3bf 8f4f 	dsb	sy
 800628a:	607b      	str	r3, [r7, #4]
 800628c:	e7fe      	b.n	800628c <vTaskSwitchContext+0x58>
 800628e:	697a      	ldr	r2, [r7, #20]
 8006290:	4613      	mov	r3, r2
 8006292:	009b      	lsls	r3, r3, #2
 8006294:	4413      	add	r3, r2
 8006296:	009b      	lsls	r3, r3, #2
 8006298:	4a17      	ldr	r2, [pc, #92]	; (80062f8 <vTaskSwitchContext+0xc4>)
 800629a:	4413      	add	r3, r2
 800629c:	613b      	str	r3, [r7, #16]
 800629e:	693b      	ldr	r3, [r7, #16]
 80062a0:	685b      	ldr	r3, [r3, #4]
 80062a2:	685a      	ldr	r2, [r3, #4]
 80062a4:	693b      	ldr	r3, [r7, #16]
 80062a6:	605a      	str	r2, [r3, #4]
 80062a8:	693b      	ldr	r3, [r7, #16]
 80062aa:	685a      	ldr	r2, [r3, #4]
 80062ac:	693b      	ldr	r3, [r7, #16]
 80062ae:	3308      	adds	r3, #8
 80062b0:	429a      	cmp	r2, r3
 80062b2:	d104      	bne.n	80062be <vTaskSwitchContext+0x8a>
 80062b4:	693b      	ldr	r3, [r7, #16]
 80062b6:	685b      	ldr	r3, [r3, #4]
 80062b8:	685a      	ldr	r2, [r3, #4]
 80062ba:	693b      	ldr	r3, [r7, #16]
 80062bc:	605a      	str	r2, [r3, #4]
 80062be:	693b      	ldr	r3, [r7, #16]
 80062c0:	685b      	ldr	r3, [r3, #4]
 80062c2:	68db      	ldr	r3, [r3, #12]
 80062c4:	4a0d      	ldr	r2, [pc, #52]	; (80062fc <vTaskSwitchContext+0xc8>)
 80062c6:	6013      	str	r3, [r2, #0]
		traceTASK_SWITCHED_IN();
 80062c8:	4b0c      	ldr	r3, [pc, #48]	; (80062fc <vTaskSwitchContext+0xc8>)
 80062ca:	681a      	ldr	r2, [r3, #0]
 80062cc:	4b0c      	ldr	r3, [pc, #48]	; (8006300 <vTaskSwitchContext+0xcc>)
 80062ce:	681b      	ldr	r3, [r3, #0]
 80062d0:	429a      	cmp	r2, r3
 80062d2:	d102      	bne.n	80062da <vTaskSwitchContext+0xa6>
 80062d4:	f001 fe26 	bl	8007f24 <SEGGER_SYSVIEW_OnIdle>
}
 80062d8:	e004      	b.n	80062e4 <vTaskSwitchContext+0xb0>
		traceTASK_SWITCHED_IN();
 80062da:	4b08      	ldr	r3, [pc, #32]	; (80062fc <vTaskSwitchContext+0xc8>)
 80062dc:	681b      	ldr	r3, [r3, #0]
 80062de:	4618      	mov	r0, r3
 80062e0:	f001 fe7e 	bl	8007fe0 <SEGGER_SYSVIEW_OnTaskStartExec>
}
 80062e4:	bf00      	nop
 80062e6:	3718      	adds	r7, #24
 80062e8:	46bd      	mov	sp, r7
 80062ea:	bd80      	pop	{r7, pc}
 80062ec:	200003b8 	.word	0x200003b8
 80062f0:	200003a4 	.word	0x200003a4
 80062f4:	20000398 	.word	0x20000398
 80062f8:	20000294 	.word	0x20000294
 80062fc:	20000290 	.word	0x20000290
 8006300:	200003b4 	.word	0x200003b4

08006304 <xTaskRemoveFromEventList>:

#endif /* configUSE_TIMERS */
/*-----------------------------------------------------------*/

BaseType_t xTaskRemoveFromEventList( const List_t * const pxEventList )
{
 8006304:	b580      	push	{r7, lr}
 8006306:	b086      	sub	sp, #24
 8006308:	af00      	add	r7, sp, #0
 800630a:	6078      	str	r0, [r7, #4]
	get called - the lock count on the queue will get modified instead.  This
	means exclusive access to the event list is guaranteed here.

	This function assumes that a check has already been made to ensure that
	pxEventList is not empty. */
	pxUnblockedTCB = ( TCB_t * ) listGET_OWNER_OF_HEAD_ENTRY( pxEventList );
 800630c:	687b      	ldr	r3, [r7, #4]
 800630e:	68db      	ldr	r3, [r3, #12]
 8006310:	68db      	ldr	r3, [r3, #12]
 8006312:	613b      	str	r3, [r7, #16]
	configASSERT( pxUnblockedTCB );
 8006314:	693b      	ldr	r3, [r7, #16]
 8006316:	2b00      	cmp	r3, #0
 8006318:	d109      	bne.n	800632e <xTaskRemoveFromEventList+0x2a>
 800631a:	f04f 0350 	mov.w	r3, #80	; 0x50
 800631e:	f383 8811 	msr	BASEPRI, r3
 8006322:	f3bf 8f6f 	isb	sy
 8006326:	f3bf 8f4f 	dsb	sy
 800632a:	60fb      	str	r3, [r7, #12]
 800632c:	e7fe      	b.n	800632c <xTaskRemoveFromEventList+0x28>
	( void ) uxListRemove( &( pxUnblockedTCB->xEventListItem ) );
 800632e:	693b      	ldr	r3, [r7, #16]
 8006330:	3318      	adds	r3, #24
 8006332:	4618      	mov	r0, r3
 8006334:	f7ff f9bb 	bl	80056ae <uxListRemove>

	if( uxSchedulerSuspended == ( UBaseType_t ) pdFALSE )
 8006338:	4b1f      	ldr	r3, [pc, #124]	; (80063b8 <xTaskRemoveFromEventList+0xb4>)
 800633a:	681b      	ldr	r3, [r3, #0]
 800633c:	2b00      	cmp	r3, #0
 800633e:	d120      	bne.n	8006382 <xTaskRemoveFromEventList+0x7e>
	{
		( void ) uxListRemove( &( pxUnblockedTCB->xStateListItem ) );
 8006340:	693b      	ldr	r3, [r7, #16]
 8006342:	3304      	adds	r3, #4
 8006344:	4618      	mov	r0, r3
 8006346:	f7ff f9b2 	bl	80056ae <uxListRemove>
		prvAddTaskToReadyList( pxUnblockedTCB );
 800634a:	693b      	ldr	r3, [r7, #16]
 800634c:	4618      	mov	r0, r3
 800634e:	f001 fe89 	bl	8008064 <SEGGER_SYSVIEW_OnTaskStartReady>
 8006352:	693b      	ldr	r3, [r7, #16]
 8006354:	6adb      	ldr	r3, [r3, #44]	; 0x2c
 8006356:	2201      	movs	r2, #1
 8006358:	409a      	lsls	r2, r3
 800635a:	4b18      	ldr	r3, [pc, #96]	; (80063bc <xTaskRemoveFromEventList+0xb8>)
 800635c:	681b      	ldr	r3, [r3, #0]
 800635e:	4313      	orrs	r3, r2
 8006360:	4a16      	ldr	r2, [pc, #88]	; (80063bc <xTaskRemoveFromEventList+0xb8>)
 8006362:	6013      	str	r3, [r2, #0]
 8006364:	693b      	ldr	r3, [r7, #16]
 8006366:	6ada      	ldr	r2, [r3, #44]	; 0x2c
 8006368:	4613      	mov	r3, r2
 800636a:	009b      	lsls	r3, r3, #2
 800636c:	4413      	add	r3, r2
 800636e:	009b      	lsls	r3, r3, #2
 8006370:	4a13      	ldr	r2, [pc, #76]	; (80063c0 <xTaskRemoveFromEventList+0xbc>)
 8006372:	441a      	add	r2, r3
 8006374:	693b      	ldr	r3, [r7, #16]
 8006376:	3304      	adds	r3, #4
 8006378:	4619      	mov	r1, r3
 800637a:	4610      	mov	r0, r2
 800637c:	f7ff f93c 	bl	80055f8 <vListInsertEnd>
 8006380:	e005      	b.n	800638e <xTaskRemoveFromEventList+0x8a>
	}
	else
	{
		/* The delayed and ready lists cannot be accessed, so hold this task
		pending until the scheduler is resumed. */
		vListInsertEnd( &( xPendingReadyList ), &( pxUnblockedTCB->xEventListItem ) );
 8006382:	693b      	ldr	r3, [r7, #16]
 8006384:	3318      	adds	r3, #24
 8006386:	4619      	mov	r1, r3
 8006388:	480e      	ldr	r0, [pc, #56]	; (80063c4 <xTaskRemoveFromEventList+0xc0>)
 800638a:	f7ff f935 	bl	80055f8 <vListInsertEnd>
	}

	if( pxUnblockedTCB->uxPriority > pxCurrentTCB->uxPriority )
 800638e:	693b      	ldr	r3, [r7, #16]
 8006390:	6ada      	ldr	r2, [r3, #44]	; 0x2c
 8006392:	4b0d      	ldr	r3, [pc, #52]	; (80063c8 <xTaskRemoveFromEventList+0xc4>)
 8006394:	681b      	ldr	r3, [r3, #0]
 8006396:	6adb      	ldr	r3, [r3, #44]	; 0x2c
 8006398:	429a      	cmp	r2, r3
 800639a:	d905      	bls.n	80063a8 <xTaskRemoveFromEventList+0xa4>
	{
		/* Return true if the task removed from the event list has a higher
		priority than the calling task.  This allows the calling task to know if
		it should force a context switch now. */
		xReturn = pdTRUE;
 800639c:	2301      	movs	r3, #1
 800639e:	617b      	str	r3, [r7, #20]

		/* Mark that a yield is pending in case the user is not using the
		"xHigherPriorityTaskWoken" parameter to an ISR safe FreeRTOS function. */
		xYieldPending = pdTRUE;
 80063a0:	4b0a      	ldr	r3, [pc, #40]	; (80063cc <xTaskRemoveFromEventList+0xc8>)
 80063a2:	2201      	movs	r2, #1
 80063a4:	601a      	str	r2, [r3, #0]
 80063a6:	e001      	b.n	80063ac <xTaskRemoveFromEventList+0xa8>
	}
	else
	{
		xReturn = pdFALSE;
 80063a8:	2300      	movs	r3, #0
 80063aa:	617b      	str	r3, [r7, #20]
		ensure it is updated at the earliest possible time. */
		prvResetNextTaskUnblockTime();
	}
	#endif

	return xReturn;
 80063ac:	697b      	ldr	r3, [r7, #20]
}
 80063ae:	4618      	mov	r0, r3
 80063b0:	3718      	adds	r7, #24
 80063b2:	46bd      	mov	sp, r7
 80063b4:	bd80      	pop	{r7, pc}
 80063b6:	bf00      	nop
 80063b8:	200003b8 	.word	0x200003b8
 80063bc:	20000398 	.word	0x20000398
 80063c0:	20000294 	.word	0x20000294
 80063c4:	20000350 	.word	0x20000350
 80063c8:	20000290 	.word	0x20000290
 80063cc:	200003a4 	.word	0x200003a4

080063d0 <prvIdleTask>:
 *
 * void prvIdleTask( void *pvParameters );
 *
 */
static portTASK_FUNCTION( prvIdleTask, pvParameters )
{
 80063d0:	b580      	push	{r7, lr}
 80063d2:	b082      	sub	sp, #8
 80063d4:	af00      	add	r7, sp, #0
 80063d6:	6078      	str	r0, [r7, #4]

	for( ;; )
	{
		/* See if any tasks have deleted themselves - if so then the idle task
		is responsible for freeing the deleted task's TCB and stack. */
		prvCheckTasksWaitingTermination();
 80063d8:	f000 f852 	bl	8006480 <prvCheckTasksWaitingTermination>

			A critical region is not required here as we are just reading from
			the list, and an occasional incorrect value will not matter.  If
			the ready list at the idle priority contains more than one task
			then a task other than the idle task is ready to execute. */
			if( listCURRENT_LIST_LENGTH( &( pxReadyTasksLists[ tskIDLE_PRIORITY ] ) ) > ( UBaseType_t ) 1 )
 80063dc:	4b06      	ldr	r3, [pc, #24]	; (80063f8 <prvIdleTask+0x28>)
 80063de:	681b      	ldr	r3, [r3, #0]
 80063e0:	2b01      	cmp	r3, #1
 80063e2:	d9f9      	bls.n	80063d8 <prvIdleTask+0x8>
			{
				taskYIELD();
 80063e4:	4b05      	ldr	r3, [pc, #20]	; (80063fc <prvIdleTask+0x2c>)
 80063e6:	f04f 5280 	mov.w	r2, #268435456	; 0x10000000
 80063ea:	601a      	str	r2, [r3, #0]
 80063ec:	f3bf 8f4f 	dsb	sy
 80063f0:	f3bf 8f6f 	isb	sy
		prvCheckTasksWaitingTermination();
 80063f4:	e7f0      	b.n	80063d8 <prvIdleTask+0x8>
 80063f6:	bf00      	nop
 80063f8:	20000294 	.word	0x20000294
 80063fc:	e000ed04 	.word	0xe000ed04

08006400 <prvInitialiseTaskLists>:

#endif /* portUSING_MPU_WRAPPERS */
/*-----------------------------------------------------------*/

static void prvInitialiseTaskLists( void )
{
 8006400:	b580      	push	{r7, lr}
 8006402:	b082      	sub	sp, #8
 8006404:	af00      	add	r7, sp, #0
UBaseType_t uxPriority;

	for( uxPriority = ( UBaseType_t ) 0U; uxPriority < ( UBaseType_t ) configMAX_PRIORITIES; uxPriority++ )
 8006406:	2300      	movs	r3, #0
 8006408:	607b      	str	r3, [r7, #4]
 800640a:	e00c      	b.n	8006426 <prvInitialiseTaskLists+0x26>
	{
		vListInitialise( &( pxReadyTasksLists[ uxPriority ] ) );
 800640c:	687a      	ldr	r2, [r7, #4]
 800640e:	4613      	mov	r3, r2
 8006410:	009b      	lsls	r3, r3, #2
 8006412:	4413      	add	r3, r2
 8006414:	009b      	lsls	r3, r3, #2
 8006416:	4a12      	ldr	r2, [pc, #72]	; (8006460 <prvInitialiseTaskLists+0x60>)
 8006418:	4413      	add	r3, r2
 800641a:	4618      	mov	r0, r3
 800641c:	f7ff f8c1 	bl	80055a2 <vListInitialise>
	for( uxPriority = ( UBaseType_t ) 0U; uxPriority < ( UBaseType_t ) configMAX_PRIORITIES; uxPriority++ )
 8006420:	687b      	ldr	r3, [r7, #4]
 8006422:	3301      	adds	r3, #1
 8006424:	607b      	str	r3, [r7, #4]
 8006426:	687b      	ldr	r3, [r7, #4]
 8006428:	2b06      	cmp	r3, #6
 800642a:	d9ef      	bls.n	800640c <prvInitialiseTaskLists+0xc>
	}

	vListInitialise( &xDelayedTaskList1 );
 800642c:	480d      	ldr	r0, [pc, #52]	; (8006464 <prvInitialiseTaskLists+0x64>)
 800642e:	f7ff f8b8 	bl	80055a2 <vListInitialise>
	vListInitialise( &xDelayedTaskList2 );
 8006432:	480d      	ldr	r0, [pc, #52]	; (8006468 <prvInitialiseTaskLists+0x68>)
 8006434:	f7ff f8b5 	bl	80055a2 <vListInitialise>
	vListInitialise( &xPendingReadyList );
 8006438:	480c      	ldr	r0, [pc, #48]	; (800646c <prvInitialiseTaskLists+0x6c>)
 800643a:	f7ff f8b2 	bl	80055a2 <vListInitialise>

	#if ( INCLUDE_vTaskDelete == 1 )
	{
		vListInitialise( &xTasksWaitingTermination );
 800643e:	480c      	ldr	r0, [pc, #48]	; (8006470 <prvInitialiseTaskLists+0x70>)
 8006440:	f7ff f8af 	bl	80055a2 <vListInitialise>
	}
	#endif /* INCLUDE_vTaskDelete */

	#if ( INCLUDE_vTaskSuspend == 1 )
	{
		vListInitialise( &xSuspendedTaskList );
 8006444:	480b      	ldr	r0, [pc, #44]	; (8006474 <prvInitialiseTaskLists+0x74>)
 8006446:	f7ff f8ac 	bl	80055a2 <vListInitialise>
	}
	#endif /* INCLUDE_vTaskSuspend */

	/* Start with pxDelayedTaskList using list1 and the pxOverflowDelayedTaskList
	using list2. */
	pxDelayedTaskList = &xDelayedTaskList1;
 800644a:	4b0b      	ldr	r3, [pc, #44]	; (8006478 <prvInitialiseTaskLists+0x78>)
 800644c:	4a05      	ldr	r2, [pc, #20]	; (8006464 <prvInitialiseTaskLists+0x64>)
 800644e:	601a      	str	r2, [r3, #0]
	pxOverflowDelayedTaskList = &xDelayedTaskList2;
 8006450:	4b0a      	ldr	r3, [pc, #40]	; (800647c <prvInitialiseTaskLists+0x7c>)
 8006452:	4a05      	ldr	r2, [pc, #20]	; (8006468 <prvInitialiseTaskLists+0x68>)
 8006454:	601a      	str	r2, [r3, #0]
}
 8006456:	bf00      	nop
 8006458:	3708      	adds	r7, #8
 800645a:	46bd      	mov	sp, r7
 800645c:	bd80      	pop	{r7, pc}
 800645e:	bf00      	nop
 8006460:	20000294 	.word	0x20000294
 8006464:	20000320 	.word	0x20000320
 8006468:	20000334 	.word	0x20000334
 800646c:	20000350 	.word	0x20000350
 8006470:	20000364 	.word	0x20000364
 8006474:	2000037c 	.word	0x2000037c
 8006478:	20000348 	.word	0x20000348
 800647c:	2000034c 	.word	0x2000034c

08006480 <prvCheckTasksWaitingTermination>:
/*-----------------------------------------------------------*/

static void prvCheckTasksWaitingTermination( void )
{
 8006480:	b580      	push	{r7, lr}
 8006482:	b082      	sub	sp, #8
 8006484:	af00      	add	r7, sp, #0
	{
		TCB_t *pxTCB;

		/* uxDeletedTasksWaitingCleanUp is used to prevent vTaskSuspendAll()
		being called too often in the idle task. */
		while( uxDeletedTasksWaitingCleanUp > ( UBaseType_t ) 0U )
 8006486:	e019      	b.n	80064bc <prvCheckTasksWaitingTermination+0x3c>
		{
			taskENTER_CRITICAL();
 8006488:	f000 fa34 	bl	80068f4 <vPortEnterCritical>
			{
				pxTCB = ( TCB_t * ) listGET_OWNER_OF_HEAD_ENTRY( ( &xTasksWaitingTermination ) );
 800648c:	4b0f      	ldr	r3, [pc, #60]	; (80064cc <prvCheckTasksWaitingTermination+0x4c>)
 800648e:	68db      	ldr	r3, [r3, #12]
 8006490:	68db      	ldr	r3, [r3, #12]
 8006492:	607b      	str	r3, [r7, #4]
				( void ) uxListRemove( &( pxTCB->xStateListItem ) );
 8006494:	687b      	ldr	r3, [r7, #4]
 8006496:	3304      	adds	r3, #4
 8006498:	4618      	mov	r0, r3
 800649a:	f7ff f908 	bl	80056ae <uxListRemove>
				--uxCurrentNumberOfTasks;
 800649e:	4b0c      	ldr	r3, [pc, #48]	; (80064d0 <prvCheckTasksWaitingTermination+0x50>)
 80064a0:	681b      	ldr	r3, [r3, #0]
 80064a2:	3b01      	subs	r3, #1
 80064a4:	4a0a      	ldr	r2, [pc, #40]	; (80064d0 <prvCheckTasksWaitingTermination+0x50>)
 80064a6:	6013      	str	r3, [r2, #0]
				--uxDeletedTasksWaitingCleanUp;
 80064a8:	4b0a      	ldr	r3, [pc, #40]	; (80064d4 <prvCheckTasksWaitingTermination+0x54>)
 80064aa:	681b      	ldr	r3, [r3, #0]
 80064ac:	3b01      	subs	r3, #1
 80064ae:	4a09      	ldr	r2, [pc, #36]	; (80064d4 <prvCheckTasksWaitingTermination+0x54>)
 80064b0:	6013      	str	r3, [r2, #0]
			}
			taskEXIT_CRITICAL();
 80064b2:	f000 fa4d 	bl	8006950 <vPortExitCritical>

			prvDeleteTCB( pxTCB );
 80064b6:	6878      	ldr	r0, [r7, #4]
 80064b8:	f000 f80e 	bl	80064d8 <prvDeleteTCB>
		while( uxDeletedTasksWaitingCleanUp > ( UBaseType_t ) 0U )
 80064bc:	4b05      	ldr	r3, [pc, #20]	; (80064d4 <prvCheckTasksWaitingTermination+0x54>)
 80064be:	681b      	ldr	r3, [r3, #0]
 80064c0:	2b00      	cmp	r3, #0
 80064c2:	d1e1      	bne.n	8006488 <prvCheckTasksWaitingTermination+0x8>
		}
	}
	#endif /* INCLUDE_vTaskDelete */
}
 80064c4:	bf00      	nop
 80064c6:	3708      	adds	r7, #8
 80064c8:	46bd      	mov	sp, r7
 80064ca:	bd80      	pop	{r7, pc}
 80064cc:	20000364 	.word	0x20000364
 80064d0:	20000390 	.word	0x20000390
 80064d4:	20000378 	.word	0x20000378

080064d8 <prvDeleteTCB>:
	/*-----------------------------------------------------------*/

#if ( INCLUDE_vTaskDelete == 1 )

	static void prvDeleteTCB( TCB_t *pxTCB )
	{
 80064d8:	b580      	push	{r7, lr}
 80064da:	b084      	sub	sp, #16
 80064dc:	af00      	add	r7, sp, #0
 80064de:	6078      	str	r0, [r7, #4]
		#elif( tskSTATIC_AND_DYNAMIC_ALLOCATION_POSSIBLE != 0 ) /*lint !e731 Macro has been consolidated for readability reasons. */
		{
			/* The task could have been allocated statically or dynamically, so
			check what was statically allocated before trying to free the
			memory. */
			if( pxTCB->ucStaticallyAllocated == tskDYNAMICALLY_ALLOCATED_STACK_AND_TCB )
 80064e0:	687b      	ldr	r3, [r7, #4]
 80064e2:	f893 3051 	ldrb.w	r3, [r3, #81]	; 0x51
 80064e6:	2b00      	cmp	r3, #0
 80064e8:	d108      	bne.n	80064fc <prvDeleteTCB+0x24>
			{
				/* Both the stack and TCB were allocated dynamically, so both
				must be freed. */
				vPortFree( pxTCB->pxStack );
 80064ea:	687b      	ldr	r3, [r7, #4]
 80064ec:	6b1b      	ldr	r3, [r3, #48]	; 0x30
 80064ee:	4618      	mov	r0, r3
 80064f0:	f000 fb86 	bl	8006c00 <vPortFree>
				vPortFree( pxTCB );
 80064f4:	6878      	ldr	r0, [r7, #4]
 80064f6:	f000 fb83 	bl	8006c00 <vPortFree>
				configASSERT( pxTCB->ucStaticallyAllocated == tskSTATICALLY_ALLOCATED_STACK_AND_TCB	);
				mtCOVERAGE_TEST_MARKER();
			}
		}
		#endif /* configSUPPORT_DYNAMIC_ALLOCATION */
	}
 80064fa:	e017      	b.n	800652c <prvDeleteTCB+0x54>
			else if( pxTCB->ucStaticallyAllocated == tskSTATICALLY_ALLOCATED_STACK_ONLY )
 80064fc:	687b      	ldr	r3, [r7, #4]
 80064fe:	f893 3051 	ldrb.w	r3, [r3, #81]	; 0x51
 8006502:	2b01      	cmp	r3, #1
 8006504:	d103      	bne.n	800650e <prvDeleteTCB+0x36>
				vPortFree( pxTCB );
 8006506:	6878      	ldr	r0, [r7, #4]
 8006508:	f000 fb7a 	bl	8006c00 <vPortFree>
	}
 800650c:	e00e      	b.n	800652c <prvDeleteTCB+0x54>
				configASSERT( pxTCB->ucStaticallyAllocated == tskSTATICALLY_ALLOCATED_STACK_AND_TCB	);
 800650e:	687b      	ldr	r3, [r7, #4]
 8006510:	f893 3051 	ldrb.w	r3, [r3, #81]	; 0x51
 8006514:	2b02      	cmp	r3, #2
 8006516:	d009      	beq.n	800652c <prvDeleteTCB+0x54>
 8006518:	f04f 0350 	mov.w	r3, #80	; 0x50
 800651c:	f383 8811 	msr	BASEPRI, r3
 8006520:	f3bf 8f6f 	isb	sy
 8006524:	f3bf 8f4f 	dsb	sy
 8006528:	60fb      	str	r3, [r7, #12]
 800652a:	e7fe      	b.n	800652a <prvDeleteTCB+0x52>
	}
 800652c:	bf00      	nop
 800652e:	3710      	adds	r7, #16
 8006530:	46bd      	mov	sp, r7
 8006532:	bd80      	pop	{r7, pc}

08006534 <prvResetNextTaskUnblockTime>:

#endif /* INCLUDE_vTaskDelete */
/*-----------------------------------------------------------*/

static void prvResetNextTaskUnblockTime( void )
{
 8006534:	b480      	push	{r7}
 8006536:	b083      	sub	sp, #12
 8006538:	af00      	add	r7, sp, #0
TCB_t *pxTCB;

	if( listLIST_IS_EMPTY( pxDelayedTaskList ) != pdFALSE )
 800653a:	4b0e      	ldr	r3, [pc, #56]	; (8006574 <prvResetNextTaskUnblockTime+0x40>)
 800653c:	681b      	ldr	r3, [r3, #0]
 800653e:	681b      	ldr	r3, [r3, #0]
 8006540:	2b00      	cmp	r3, #0
 8006542:	d101      	bne.n	8006548 <prvResetNextTaskUnblockTime+0x14>
 8006544:	2301      	movs	r3, #1
 8006546:	e000      	b.n	800654a <prvResetNextTaskUnblockTime+0x16>
 8006548:	2300      	movs	r3, #0
 800654a:	2b00      	cmp	r3, #0
 800654c:	d004      	beq.n	8006558 <prvResetNextTaskUnblockTime+0x24>
	{
		/* The new current delayed list is empty.  Set xNextTaskUnblockTime to
		the maximum possible value so it is	extremely unlikely that the
		if( xTickCount >= xNextTaskUnblockTime ) test will pass until
		there is an item in the delayed list. */
		xNextTaskUnblockTime = portMAX_DELAY;
 800654e:	4b0a      	ldr	r3, [pc, #40]	; (8006578 <prvResetNextTaskUnblockTime+0x44>)
 8006550:	f04f 32ff 	mov.w	r2, #4294967295
 8006554:	601a      	str	r2, [r3, #0]
		which the task at the head of the delayed list should be removed
		from the Blocked state. */
		( pxTCB ) = ( TCB_t * ) listGET_OWNER_OF_HEAD_ENTRY( pxDelayedTaskList );
		xNextTaskUnblockTime = listGET_LIST_ITEM_VALUE( &( ( pxTCB )->xStateListItem ) );
	}
}
 8006556:	e008      	b.n	800656a <prvResetNextTaskUnblockTime+0x36>
		( pxTCB ) = ( TCB_t * ) listGET_OWNER_OF_HEAD_ENTRY( pxDelayedTaskList );
 8006558:	4b06      	ldr	r3, [pc, #24]	; (8006574 <prvResetNextTaskUnblockTime+0x40>)
 800655a:	681b      	ldr	r3, [r3, #0]
 800655c:	68db      	ldr	r3, [r3, #12]
 800655e:	68db      	ldr	r3, [r3, #12]
 8006560:	607b      	str	r3, [r7, #4]
		xNextTaskUnblockTime = listGET_LIST_ITEM_VALUE( &( ( pxTCB )->xStateListItem ) );
 8006562:	687b      	ldr	r3, [r7, #4]
 8006564:	685b      	ldr	r3, [r3, #4]
 8006566:	4a04      	ldr	r2, [pc, #16]	; (8006578 <prvResetNextTaskUnblockTime+0x44>)
 8006568:	6013      	str	r3, [r2, #0]
}
 800656a:	bf00      	nop
 800656c:	370c      	adds	r7, #12
 800656e:	46bd      	mov	sp, r7
 8006570:	bc80      	pop	{r7}
 8006572:	4770      	bx	lr
 8006574:	20000348 	.word	0x20000348
 8006578:	200003b0 	.word	0x200003b0

0800657c <prvAddCurrentTaskToDelayedList>:
#endif /* configUSE_TASK_NOTIFICATIONS */
/*-----------------------------------------------------------*/


static void prvAddCurrentTaskToDelayedList( TickType_t xTicksToWait, const BaseType_t xCanBlockIndefinitely )
{
 800657c:	b580      	push	{r7, lr}
 800657e:	b084      	sub	sp, #16
 8006580:	af00      	add	r7, sp, #0
 8006582:	6078      	str	r0, [r7, #4]
 8006584:	6039      	str	r1, [r7, #0]
TickType_t xTimeToWake;
const TickType_t xConstTickCount = xTickCount;
 8006586:	4b32      	ldr	r3, [pc, #200]	; (8006650 <prvAddCurrentTaskToDelayedList+0xd4>)
 8006588:	681b      	ldr	r3, [r3, #0]
 800658a:	60fb      	str	r3, [r7, #12]
	}
	#endif

	/* Remove the task from the ready list before adding it to the blocked list
	as the same list item is used for both lists. */
	if( uxListRemove( &( pxCurrentTCB->xStateListItem ) ) == ( UBaseType_t ) 0 )
 800658c:	4b31      	ldr	r3, [pc, #196]	; (8006654 <prvAddCurrentTaskToDelayedList+0xd8>)
 800658e:	681b      	ldr	r3, [r3, #0]
 8006590:	3304      	adds	r3, #4
 8006592:	4618      	mov	r0, r3
 8006594:	f7ff f88b 	bl	80056ae <uxListRemove>
 8006598:	4603      	mov	r3, r0
 800659a:	2b00      	cmp	r3, #0
 800659c:	d10b      	bne.n	80065b6 <prvAddCurrentTaskToDelayedList+0x3a>
	{
		/* The current task must be in a ready list, so there is no need to
		check, and the port reset macro can be called directly. */
		portRESET_READY_PRIORITY( pxCurrentTCB->uxPriority, uxTopReadyPriority );
 800659e:	4b2d      	ldr	r3, [pc, #180]	; (8006654 <prvAddCurrentTaskToDelayedList+0xd8>)
 80065a0:	681b      	ldr	r3, [r3, #0]
 80065a2:	6adb      	ldr	r3, [r3, #44]	; 0x2c
 80065a4:	2201      	movs	r2, #1
 80065a6:	fa02 f303 	lsl.w	r3, r2, r3
 80065aa:	43da      	mvns	r2, r3
 80065ac:	4b2a      	ldr	r3, [pc, #168]	; (8006658 <prvAddCurrentTaskToDelayedList+0xdc>)
 80065ae:	681b      	ldr	r3, [r3, #0]
 80065b0:	4013      	ands	r3, r2
 80065b2:	4a29      	ldr	r2, [pc, #164]	; (8006658 <prvAddCurrentTaskToDelayedList+0xdc>)
 80065b4:	6013      	str	r3, [r2, #0]
		mtCOVERAGE_TEST_MARKER();
	}

	#if ( INCLUDE_vTaskSuspend == 1 )
	{
		if( ( xTicksToWait == portMAX_DELAY ) && ( xCanBlockIndefinitely != pdFALSE ) )
 80065b6:	687b      	ldr	r3, [r7, #4]
 80065b8:	f1b3 3fff 	cmp.w	r3, #4294967295
 80065bc:	d110      	bne.n	80065e0 <prvAddCurrentTaskToDelayedList+0x64>
 80065be:	683b      	ldr	r3, [r7, #0]
 80065c0:	2b00      	cmp	r3, #0
 80065c2:	d00d      	beq.n	80065e0 <prvAddCurrentTaskToDelayedList+0x64>
		{
			/* Add the task to the suspended task list instead of a delayed task
			list to ensure it is not woken by a timing event.  It will block
			indefinitely. */
			traceMOVED_TASK_TO_SUSPENDED_LIST(pxCurrentTCB);
 80065c4:	4b23      	ldr	r3, [pc, #140]	; (8006654 <prvAddCurrentTaskToDelayedList+0xd8>)
 80065c6:	681b      	ldr	r3, [r3, #0]
 80065c8:	211b      	movs	r1, #27
 80065ca:	4618      	mov	r0, r3
 80065cc:	f001 fd8c 	bl	80080e8 <SEGGER_SYSVIEW_OnTaskStopReady>
			vListInsertEnd( &xSuspendedTaskList, &( pxCurrentTCB->xStateListItem ) );
 80065d0:	4b20      	ldr	r3, [pc, #128]	; (8006654 <prvAddCurrentTaskToDelayedList+0xd8>)
 80065d2:	681b      	ldr	r3, [r3, #0]
 80065d4:	3304      	adds	r3, #4
 80065d6:	4619      	mov	r1, r3
 80065d8:	4820      	ldr	r0, [pc, #128]	; (800665c <prvAddCurrentTaskToDelayedList+0xe0>)
 80065da:	f7ff f80d 	bl	80055f8 <vListInsertEnd>

		/* Avoid compiler warning when INCLUDE_vTaskSuspend is not 1. */
		( void ) xCanBlockIndefinitely;
	}
	#endif /* INCLUDE_vTaskSuspend */
}
 80065de:	e032      	b.n	8006646 <prvAddCurrentTaskToDelayedList+0xca>
			xTimeToWake = xConstTickCount + xTicksToWait;
 80065e0:	68fa      	ldr	r2, [r7, #12]
 80065e2:	687b      	ldr	r3, [r7, #4]
 80065e4:	4413      	add	r3, r2
 80065e6:	60bb      	str	r3, [r7, #8]
			listSET_LIST_ITEM_VALUE( &( pxCurrentTCB->xStateListItem ), xTimeToWake );
 80065e8:	4b1a      	ldr	r3, [pc, #104]	; (8006654 <prvAddCurrentTaskToDelayedList+0xd8>)
 80065ea:	681b      	ldr	r3, [r3, #0]
 80065ec:	68ba      	ldr	r2, [r7, #8]
 80065ee:	605a      	str	r2, [r3, #4]
			if( xTimeToWake < xConstTickCount )
 80065f0:	68ba      	ldr	r2, [r7, #8]
 80065f2:	68fb      	ldr	r3, [r7, #12]
 80065f4:	429a      	cmp	r2, r3
 80065f6:	d20f      	bcs.n	8006618 <prvAddCurrentTaskToDelayedList+0x9c>
				traceMOVED_TASK_TO_OVERFLOW_DELAYED_LIST();
 80065f8:	4b16      	ldr	r3, [pc, #88]	; (8006654 <prvAddCurrentTaskToDelayedList+0xd8>)
 80065fa:	681b      	ldr	r3, [r3, #0]
 80065fc:	2104      	movs	r1, #4
 80065fe:	4618      	mov	r0, r3
 8006600:	f001 fd72 	bl	80080e8 <SEGGER_SYSVIEW_OnTaskStopReady>
				vListInsert( pxOverflowDelayedTaskList, &( pxCurrentTCB->xStateListItem ) );
 8006604:	4b16      	ldr	r3, [pc, #88]	; (8006660 <prvAddCurrentTaskToDelayedList+0xe4>)
 8006606:	681a      	ldr	r2, [r3, #0]
 8006608:	4b12      	ldr	r3, [pc, #72]	; (8006654 <prvAddCurrentTaskToDelayedList+0xd8>)
 800660a:	681b      	ldr	r3, [r3, #0]
 800660c:	3304      	adds	r3, #4
 800660e:	4619      	mov	r1, r3
 8006610:	4610      	mov	r0, r2
 8006612:	f7ff f814 	bl	800563e <vListInsert>
}
 8006616:	e016      	b.n	8006646 <prvAddCurrentTaskToDelayedList+0xca>
				traceMOVED_TASK_TO_DELAYED_LIST();
 8006618:	4b0e      	ldr	r3, [pc, #56]	; (8006654 <prvAddCurrentTaskToDelayedList+0xd8>)
 800661a:	681b      	ldr	r3, [r3, #0]
 800661c:	2104      	movs	r1, #4
 800661e:	4618      	mov	r0, r3
 8006620:	f001 fd62 	bl	80080e8 <SEGGER_SYSVIEW_OnTaskStopReady>
				vListInsert( pxDelayedTaskList, &( pxCurrentTCB->xStateListItem ) );
 8006624:	4b0f      	ldr	r3, [pc, #60]	; (8006664 <prvAddCurrentTaskToDelayedList+0xe8>)
 8006626:	681a      	ldr	r2, [r3, #0]
 8006628:	4b0a      	ldr	r3, [pc, #40]	; (8006654 <prvAddCurrentTaskToDelayedList+0xd8>)
 800662a:	681b      	ldr	r3, [r3, #0]
 800662c:	3304      	adds	r3, #4
 800662e:	4619      	mov	r1, r3
 8006630:	4610      	mov	r0, r2
 8006632:	f7ff f804 	bl	800563e <vListInsert>
				if( xTimeToWake < xNextTaskUnblockTime )
 8006636:	4b0c      	ldr	r3, [pc, #48]	; (8006668 <prvAddCurrentTaskToDelayedList+0xec>)
 8006638:	681b      	ldr	r3, [r3, #0]
 800663a:	68ba      	ldr	r2, [r7, #8]
 800663c:	429a      	cmp	r2, r3
 800663e:	d202      	bcs.n	8006646 <prvAddCurrentTaskToDelayedList+0xca>
					xNextTaskUnblockTime = xTimeToWake;
 8006640:	4a09      	ldr	r2, [pc, #36]	; (8006668 <prvAddCurrentTaskToDelayedList+0xec>)
 8006642:	68bb      	ldr	r3, [r7, #8]
 8006644:	6013      	str	r3, [r2, #0]
}
 8006646:	bf00      	nop
 8006648:	3710      	adds	r7, #16
 800664a:	46bd      	mov	sp, r7
 800664c:	bd80      	pop	{r7, pc}
 800664e:	bf00      	nop
 8006650:	20000394 	.word	0x20000394
 8006654:	20000290 	.word	0x20000290
 8006658:	20000398 	.word	0x20000398
 800665c:	2000037c 	.word	0x2000037c
 8006660:	2000034c 	.word	0x2000034c
 8006664:	20000348 	.word	0x20000348
 8006668:	200003b0 	.word	0x200003b0

0800666c <pxPortInitialiseStack>:

/*
 * See header file for description.
 */
StackType_t *pxPortInitialiseStack( StackType_t *pxTopOfStack, TaskFunction_t pxCode, void *pvParameters )
{
 800666c:	b480      	push	{r7}
 800666e:	b085      	sub	sp, #20
 8006670:	af00      	add	r7, sp, #0
 8006672:	60f8      	str	r0, [r7, #12]
 8006674:	60b9      	str	r1, [r7, #8]
 8006676:	607a      	str	r2, [r7, #4]
	/* Simulate the stack frame as it would be created by a context switch
	interrupt. */
	pxTopOfStack--; /* Offset added to account for the way the MCU uses the stack on entry/exit of interrupts. */
 8006678:	68fb      	ldr	r3, [r7, #12]
 800667a:	3b04      	subs	r3, #4
 800667c:	60fb      	str	r3, [r7, #12]
	*pxTopOfStack = portINITIAL_XPSR;	/* xPSR */
 800667e:	68fb      	ldr	r3, [r7, #12]
 8006680:	f04f 7280 	mov.w	r2, #16777216	; 0x1000000
 8006684:	601a      	str	r2, [r3, #0]
	pxTopOfStack--;
 8006686:	68fb      	ldr	r3, [r7, #12]
 8006688:	3b04      	subs	r3, #4
 800668a:	60fb      	str	r3, [r7, #12]
	*pxTopOfStack = ( ( StackType_t ) pxCode ) & portSTART_ADDRESS_MASK;	/* PC */
 800668c:	68bb      	ldr	r3, [r7, #8]
 800668e:	f023 0201 	bic.w	r2, r3, #1
 8006692:	68fb      	ldr	r3, [r7, #12]
 8006694:	601a      	str	r2, [r3, #0]
	pxTopOfStack--;
 8006696:	68fb      	ldr	r3, [r7, #12]
 8006698:	3b04      	subs	r3, #4
 800669a:	60fb      	str	r3, [r7, #12]
	*pxTopOfStack = ( StackType_t ) portTASK_RETURN_ADDRESS;	/* LR */
 800669c:	4a08      	ldr	r2, [pc, #32]	; (80066c0 <pxPortInitialiseStack+0x54>)
 800669e:	68fb      	ldr	r3, [r7, #12]
 80066a0:	601a      	str	r2, [r3, #0]
	pxTopOfStack -= 5;	/* R12, R3, R2 and R1. */
 80066a2:	68fb      	ldr	r3, [r7, #12]
 80066a4:	3b14      	subs	r3, #20
 80066a6:	60fb      	str	r3, [r7, #12]
	*pxTopOfStack = ( StackType_t ) pvParameters;	/* R0 */
 80066a8:	687a      	ldr	r2, [r7, #4]
 80066aa:	68fb      	ldr	r3, [r7, #12]
 80066ac:	601a      	str	r2, [r3, #0]
	pxTopOfStack -= 8;	/* R11, R10, R9, R8, R7, R6, R5 and R4. */
 80066ae:	68fb      	ldr	r3, [r7, #12]
 80066b0:	3b20      	subs	r3, #32
 80066b2:	60fb      	str	r3, [r7, #12]

	return pxTopOfStack;
 80066b4:	68fb      	ldr	r3, [r7, #12]
}
 80066b6:	4618      	mov	r0, r3
 80066b8:	3714      	adds	r7, #20
 80066ba:	46bd      	mov	sp, r7
 80066bc:	bc80      	pop	{r7}
 80066be:	4770      	bx	lr
 80066c0:	080066c5 	.word	0x080066c5

080066c4 <prvTaskExitError>:
/*-----------------------------------------------------------*/

static void prvTaskExitError( void )
{
 80066c4:	b480      	push	{r7}
 80066c6:	b085      	sub	sp, #20
 80066c8:	af00      	add	r7, sp, #0
volatile uint32_t ulDummy = 0UL;
 80066ca:	2300      	movs	r3, #0
 80066cc:	607b      	str	r3, [r7, #4]
	its caller as there is nothing to return to.  If a task wants to exit it
	should instead call vTaskDelete( NULL ).

	Artificially force an assert() to be triggered if configASSERT() is
	defined, then stop here so application writers can catch the error. */
	configASSERT( uxCriticalNesting == ~0UL );
 80066ce:	4b10      	ldr	r3, [pc, #64]	; (8006710 <prvTaskExitError+0x4c>)
 80066d0:	681b      	ldr	r3, [r3, #0]
 80066d2:	f1b3 3fff 	cmp.w	r3, #4294967295
 80066d6:	d009      	beq.n	80066ec <prvTaskExitError+0x28>
 80066d8:	f04f 0350 	mov.w	r3, #80	; 0x50
 80066dc:	f383 8811 	msr	BASEPRI, r3
 80066e0:	f3bf 8f6f 	isb	sy
 80066e4:	f3bf 8f4f 	dsb	sy
 80066e8:	60fb      	str	r3, [r7, #12]
 80066ea:	e7fe      	b.n	80066ea <prvTaskExitError+0x26>
 80066ec:	f04f 0350 	mov.w	r3, #80	; 0x50
 80066f0:	f383 8811 	msr	BASEPRI, r3
 80066f4:	f3bf 8f6f 	isb	sy
 80066f8:	f3bf 8f4f 	dsb	sy
 80066fc:	60bb      	str	r3, [r7, #8]
	portDISABLE_INTERRUPTS();
	while( ulDummy == 0 )
 80066fe:	bf00      	nop
 8006700:	687b      	ldr	r3, [r7, #4]
 8006702:	2b00      	cmp	r3, #0
 8006704:	d0fc      	beq.n	8006700 <prvTaskExitError+0x3c>
		about code appearing after this function is called - making ulDummy
		volatile makes the compiler think the function could return and
		therefore not output an 'unreachable code' warning for code that appears
		after it. */
	}
}
 8006706:	bf00      	nop
 8006708:	3714      	adds	r7, #20
 800670a:	46bd      	mov	sp, r7
 800670c:	bc80      	pop	{r7}
 800670e:	4770      	bx	lr
 8006710:	2000000c 	.word	0x2000000c
	...

08006720 <SVC_Handler>:
/*-----------------------------------------------------------*/

void vPortSVCHandler( void )
{
	__asm volatile (
 8006720:	4b07      	ldr	r3, [pc, #28]	; (8006740 <pxCurrentTCBConst2>)
 8006722:	6819      	ldr	r1, [r3, #0]
 8006724:	6808      	ldr	r0, [r1, #0]
 8006726:	e8b0 0ff0 	ldmia.w	r0!, {r4, r5, r6, r7, r8, r9, sl, fp}
 800672a:	f380 8809 	msr	PSP, r0
 800672e:	f3bf 8f6f 	isb	sy
 8006732:	f04f 0000 	mov.w	r0, #0
 8006736:	f380 8811 	msr	BASEPRI, r0
 800673a:	f04e 0e0d 	orr.w	lr, lr, #13
 800673e:	4770      	bx	lr

08006740 <pxCurrentTCBConst2>:
 8006740:	20000290 	.word	0x20000290
					"	bx r14							\n"
					"									\n"
					"	.align 4						\n"
					"pxCurrentTCBConst2: .word pxCurrentTCB				\n"
				);
}
 8006744:	bf00      	nop
 8006746:	bf00      	nop

08006748 <prvPortStartFirstTask>:
/*-----------------------------------------------------------*/

static void prvPortStartFirstTask( void )
{
	__asm volatile(
 8006748:	4806      	ldr	r0, [pc, #24]	; (8006764 <prvPortStartFirstTask+0x1c>)
 800674a:	6800      	ldr	r0, [r0, #0]
 800674c:	6800      	ldr	r0, [r0, #0]
 800674e:	f380 8808 	msr	MSP, r0
 8006752:	b662      	cpsie	i
 8006754:	b661      	cpsie	f
 8006756:	f3bf 8f4f 	dsb	sy
 800675a:	f3bf 8f6f 	isb	sy
 800675e:	df00      	svc	0
 8006760:	bf00      	nop
					" dsb					\n"
					" isb					\n"
					" svc 0					\n" /* System call to start first task. */
					" nop					\n"
				);
}
 8006762:	bf00      	nop
 8006764:	e000ed08 	.word	0xe000ed08

08006768 <xPortStartScheduler>:

/*
 * See header file for description.
 */
BaseType_t xPortStartScheduler( void )
{
 8006768:	b580      	push	{r7, lr}
 800676a:	b084      	sub	sp, #16
 800676c:	af00      	add	r7, sp, #0
	configASSERT( configMAX_SYSCALL_INTERRUPT_PRIORITY );

	#if( configASSERT_DEFINED == 1 )
	{
		volatile uint32_t ulOriginalPriority;
		volatile uint8_t * const pucFirstUserPriorityRegister = ( volatile uint8_t * const ) ( portNVIC_IP_REGISTERS_OFFSET_16 + portFIRST_USER_INTERRUPT_NUMBER );
 800676e:	4b31      	ldr	r3, [pc, #196]	; (8006834 <xPortStartScheduler+0xcc>)
 8006770:	60fb      	str	r3, [r7, #12]
		functions can be called.  ISR safe functions are those that end in
		"FromISR".  FreeRTOS maintains separate thread and ISR API functions to
		ensure interrupt entry is as fast and simple as possible.

		Save the interrupt priority value that is about to be clobbered. */
		ulOriginalPriority = *pucFirstUserPriorityRegister;
 8006772:	68fb      	ldr	r3, [r7, #12]
 8006774:	781b      	ldrb	r3, [r3, #0]
 8006776:	b2db      	uxtb	r3, r3
 8006778:	607b      	str	r3, [r7, #4]

		/* Determine the number of priority bits available.  First write to all
		possible bits. */
		*pucFirstUserPriorityRegister = portMAX_8_BIT_VALUE;
 800677a:	68fb      	ldr	r3, [r7, #12]
 800677c:	22ff      	movs	r2, #255	; 0xff
 800677e:	701a      	strb	r2, [r3, #0]

		/* Read the value back to see how many bits stuck. */
		ucMaxPriorityValue = *pucFirstUserPriorityRegister;
 8006780:	68fb      	ldr	r3, [r7, #12]
 8006782:	781b      	ldrb	r3, [r3, #0]
 8006784:	b2db      	uxtb	r3, r3
 8006786:	70fb      	strb	r3, [r7, #3]

		/* Use the same mask on the maximum system call priority. */
		ucMaxSysCallPriority = configMAX_SYSCALL_INTERRUPT_PRIORITY & ucMaxPriorityValue;
 8006788:	78fb      	ldrb	r3, [r7, #3]
 800678a:	b2db      	uxtb	r3, r3
 800678c:	f003 0350 	and.w	r3, r3, #80	; 0x50
 8006790:	b2da      	uxtb	r2, r3
 8006792:	4b29      	ldr	r3, [pc, #164]	; (8006838 <xPortStartScheduler+0xd0>)
 8006794:	701a      	strb	r2, [r3, #0]

		/* Calculate the maximum acceptable priority group value for the number
		of bits read back. */
		ulMaxPRIGROUPValue = portMAX_PRIGROUP_BITS;
 8006796:	4b29      	ldr	r3, [pc, #164]	; (800683c <xPortStartScheduler+0xd4>)
 8006798:	2207      	movs	r2, #7
 800679a:	601a      	str	r2, [r3, #0]
		while( ( ucMaxPriorityValue & portTOP_BIT_OF_BYTE ) == portTOP_BIT_OF_BYTE )
 800679c:	e009      	b.n	80067b2 <xPortStartScheduler+0x4a>
		{
			ulMaxPRIGROUPValue--;
 800679e:	4b27      	ldr	r3, [pc, #156]	; (800683c <xPortStartScheduler+0xd4>)
 80067a0:	681b      	ldr	r3, [r3, #0]
 80067a2:	3b01      	subs	r3, #1
 80067a4:	4a25      	ldr	r2, [pc, #148]	; (800683c <xPortStartScheduler+0xd4>)
 80067a6:	6013      	str	r3, [r2, #0]
			ucMaxPriorityValue <<= ( uint8_t ) 0x01;
 80067a8:	78fb      	ldrb	r3, [r7, #3]
 80067aa:	b2db      	uxtb	r3, r3
 80067ac:	005b      	lsls	r3, r3, #1
 80067ae:	b2db      	uxtb	r3, r3
 80067b0:	70fb      	strb	r3, [r7, #3]
		while( ( ucMaxPriorityValue & portTOP_BIT_OF_BYTE ) == portTOP_BIT_OF_BYTE )
 80067b2:	78fb      	ldrb	r3, [r7, #3]
 80067b4:	b2db      	uxtb	r3, r3
 80067b6:	f003 0380 	and.w	r3, r3, #128	; 0x80
 80067ba:	2b80      	cmp	r3, #128	; 0x80
 80067bc:	d0ef      	beq.n	800679e <xPortStartScheduler+0x36>
		#ifdef configPRIO_BITS
		{
			/* Check the FreeRTOS configuration that defines the number of
			priority bits matches the number of priority bits actually queried
			from the hardware. */
			configASSERT( ( portMAX_PRIGROUP_BITS - ulMaxPRIGROUPValue ) == configPRIO_BITS );
 80067be:	4b1f      	ldr	r3, [pc, #124]	; (800683c <xPortStartScheduler+0xd4>)
 80067c0:	681b      	ldr	r3, [r3, #0]
 80067c2:	f1c3 0307 	rsb	r3, r3, #7
 80067c6:	2b04      	cmp	r3, #4
 80067c8:	d009      	beq.n	80067de <xPortStartScheduler+0x76>
 80067ca:	f04f 0350 	mov.w	r3, #80	; 0x50
 80067ce:	f383 8811 	msr	BASEPRI, r3
 80067d2:	f3bf 8f6f 	isb	sy
 80067d6:	f3bf 8f4f 	dsb	sy
 80067da:	60bb      	str	r3, [r7, #8]
 80067dc:	e7fe      	b.n	80067dc <xPortStartScheduler+0x74>
		}
		#endif

		/* Shift the priority group value back to its position within the AIRCR
		register. */
		ulMaxPRIGROUPValue <<= portPRIGROUP_SHIFT;
 80067de:	4b17      	ldr	r3, [pc, #92]	; (800683c <xPortStartScheduler+0xd4>)
 80067e0:	681b      	ldr	r3, [r3, #0]
 80067e2:	021b      	lsls	r3, r3, #8
 80067e4:	4a15      	ldr	r2, [pc, #84]	; (800683c <xPortStartScheduler+0xd4>)
 80067e6:	6013      	str	r3, [r2, #0]
		ulMaxPRIGROUPValue &= portPRIORITY_GROUP_MASK;
 80067e8:	4b14      	ldr	r3, [pc, #80]	; (800683c <xPortStartScheduler+0xd4>)
 80067ea:	681b      	ldr	r3, [r3, #0]
 80067ec:	f403 63e0 	and.w	r3, r3, #1792	; 0x700
 80067f0:	4a12      	ldr	r2, [pc, #72]	; (800683c <xPortStartScheduler+0xd4>)
 80067f2:	6013      	str	r3, [r2, #0]

		/* Restore the clobbered interrupt priority register to its original
		value. */
		*pucFirstUserPriorityRegister = ulOriginalPriority;
 80067f4:	687b      	ldr	r3, [r7, #4]
 80067f6:	b2da      	uxtb	r2, r3
 80067f8:	68fb      	ldr	r3, [r7, #12]
 80067fa:	701a      	strb	r2, [r3, #0]
	}
	#endif /* conifgASSERT_DEFINED */

	/* Make PendSV and SysTick the lowest priority interrupts. */
	portNVIC_SYSPRI2_REG |= portNVIC_PENDSV_PRI;
 80067fc:	4b10      	ldr	r3, [pc, #64]	; (8006840 <xPortStartScheduler+0xd8>)
 80067fe:	681b      	ldr	r3, [r3, #0]
 8006800:	4a0f      	ldr	r2, [pc, #60]	; (8006840 <xPortStartScheduler+0xd8>)
 8006802:	f443 0370 	orr.w	r3, r3, #15728640	; 0xf00000
 8006806:	6013      	str	r3, [r2, #0]
	portNVIC_SYSPRI2_REG |= portNVIC_SYSTICK_PRI;
 8006808:	4b0d      	ldr	r3, [pc, #52]	; (8006840 <xPortStartScheduler+0xd8>)
 800680a:	681b      	ldr	r3, [r3, #0]
 800680c:	4a0c      	ldr	r2, [pc, #48]	; (8006840 <xPortStartScheduler+0xd8>)
 800680e:	f043 4370 	orr.w	r3, r3, #4026531840	; 0xf0000000
 8006812:	6013      	str	r3, [r2, #0]

	/* Start the timer that generates the tick ISR.  Interrupts are disabled
	here already. */
	vPortSetupTimerInterrupt();
 8006814:	f000 f910 	bl	8006a38 <vPortSetupTimerInterrupt>

	/* Initialise the critical nesting count ready for the first task. */
	uxCriticalNesting = 0;
 8006818:	4b0a      	ldr	r3, [pc, #40]	; (8006844 <xPortStartScheduler+0xdc>)
 800681a:	2200      	movs	r2, #0
 800681c:	601a      	str	r2, [r3, #0]

	/* Start the first task. */
	prvPortStartFirstTask();
 800681e:	f7ff ff93 	bl	8006748 <prvPortStartFirstTask>
	exit error function to prevent compiler warnings about a static function
	not being called in the case that the application writer overrides this
	functionality by defining configTASK_RETURN_ADDRESS.  Call
	vTaskSwitchContext() so link time optimisation does not remove the
	symbol. */
	vTaskSwitchContext();
 8006822:	f7ff fd07 	bl	8006234 <vTaskSwitchContext>
	prvTaskExitError();
 8006826:	f7ff ff4d 	bl	80066c4 <prvTaskExitError>

	/* Should not get here! */
	return 0;
 800682a:	2300      	movs	r3, #0
}
 800682c:	4618      	mov	r0, r3
 800682e:	3710      	adds	r7, #16
 8006830:	46bd      	mov	sp, r7
 8006832:	bd80      	pop	{r7, pc}
 8006834:	e000e400 	.word	0xe000e400
 8006838:	200003bc 	.word	0x200003bc
 800683c:	200003c0 	.word	0x200003c0
 8006840:	e000ed20 	.word	0xe000ed20
 8006844:	2000000c 	.word	0x2000000c

08006848 <vInitPrioGroupValue>:
/*-----------------------------------------------------------*/
void vInitPrioGroupValue(void)
{
 8006848:	b480      	push	{r7}
 800684a:	b085      	sub	sp, #20
 800684c:	af00      	add	r7, sp, #0
  //  configASSERT( portCPUID != portCORTEX_M7_r0p0_ID );

    #if ( configASSERT_DEFINED == 1 )
        {
            volatile uint32_t ulOriginalPriority;
            volatile uint8_t * const pucFirstUserPriorityRegister = ( volatile uint8_t * const ) ( portNVIC_IP_REGISTERS_OFFSET_16 + portFIRST_USER_INTERRUPT_NUMBER );
 800684e:	4b26      	ldr	r3, [pc, #152]	; (80068e8 <vInitPrioGroupValue+0xa0>)
 8006850:	60fb      	str	r3, [r7, #12]
             * functions can be called.  ISR safe functions are those that end in
             * "FromISR".  FreeRTOS maintains separate thread and ISR API functions to
             * ensure interrupt entry is as fast and simple as possible.
             *
             * Save the interrupt priority value that is about to be clobbered. */
            ulOriginalPriority = *pucFirstUserPriorityRegister;
 8006852:	68fb      	ldr	r3, [r7, #12]
 8006854:	781b      	ldrb	r3, [r3, #0]
 8006856:	b2db      	uxtb	r3, r3
 8006858:	607b      	str	r3, [r7, #4]

            /* Determine the number of priority bits available.  First write to all
             * possible bits. */
            *pucFirstUserPriorityRegister = portMAX_8_BIT_VALUE;
 800685a:	68fb      	ldr	r3, [r7, #12]
 800685c:	22ff      	movs	r2, #255	; 0xff
 800685e:	701a      	strb	r2, [r3, #0]

            /* Read the value back to see how many bits stuck. */
            ucMaxPriorityValue = *pucFirstUserPriorityRegister;
 8006860:	68fb      	ldr	r3, [r7, #12]
 8006862:	781b      	ldrb	r3, [r3, #0]
 8006864:	b2db      	uxtb	r3, r3
 8006866:	70fb      	strb	r3, [r7, #3]

            /* Use the same mask on the maximum system call priority. */
            ucMaxSysCallPriority = configMAX_SYSCALL_INTERRUPT_PRIORITY & ucMaxPriorityValue;
 8006868:	78fb      	ldrb	r3, [r7, #3]
 800686a:	b2db      	uxtb	r3, r3
 800686c:	f003 0350 	and.w	r3, r3, #80	; 0x50
 8006870:	b2da      	uxtb	r2, r3
 8006872:	4b1e      	ldr	r3, [pc, #120]	; (80068ec <vInitPrioGroupValue+0xa4>)
 8006874:	701a      	strb	r2, [r3, #0]

            /* Calculate the maximum acceptable priority group value for the number
             * of bits read back. */
            ulMaxPRIGROUPValue = portMAX_PRIGROUP_BITS;
 8006876:	4b1e      	ldr	r3, [pc, #120]	; (80068f0 <vInitPrioGroupValue+0xa8>)
 8006878:	2207      	movs	r2, #7
 800687a:	601a      	str	r2, [r3, #0]

            while( ( ucMaxPriorityValue & portTOP_BIT_OF_BYTE ) == portTOP_BIT_OF_BYTE )
 800687c:	e009      	b.n	8006892 <vInitPrioGroupValue+0x4a>
            {
                ulMaxPRIGROUPValue--;
 800687e:	4b1c      	ldr	r3, [pc, #112]	; (80068f0 <vInitPrioGroupValue+0xa8>)
 8006880:	681b      	ldr	r3, [r3, #0]
 8006882:	3b01      	subs	r3, #1
 8006884:	4a1a      	ldr	r2, [pc, #104]	; (80068f0 <vInitPrioGroupValue+0xa8>)
 8006886:	6013      	str	r3, [r2, #0]
                ucMaxPriorityValue <<= ( uint8_t ) 0x01;
 8006888:	78fb      	ldrb	r3, [r7, #3]
 800688a:	b2db      	uxtb	r3, r3
 800688c:	005b      	lsls	r3, r3, #1
 800688e:	b2db      	uxtb	r3, r3
 8006890:	70fb      	strb	r3, [r7, #3]
            while( ( ucMaxPriorityValue & portTOP_BIT_OF_BYTE ) == portTOP_BIT_OF_BYTE )
 8006892:	78fb      	ldrb	r3, [r7, #3]
 8006894:	b2db      	uxtb	r3, r3
 8006896:	f003 0380 	and.w	r3, r3, #128	; 0x80
 800689a:	2b80      	cmp	r3, #128	; 0x80
 800689c:	d0ef      	beq.n	800687e <vInitPrioGroupValue+0x36>
            #ifdef configPRIO_BITS
                {
                    /* Check the FreeRTOS configuration that defines the number of
                     * priority bits matches the number of priority bits actually queried
                     * from the hardware. */
                    configASSERT( ( portMAX_PRIGROUP_BITS - ulMaxPRIGROUPValue ) == configPRIO_BITS );
 800689e:	4b14      	ldr	r3, [pc, #80]	; (80068f0 <vInitPrioGroupValue+0xa8>)
 80068a0:	681b      	ldr	r3, [r3, #0]
 80068a2:	f1c3 0307 	rsb	r3, r3, #7
 80068a6:	2b04      	cmp	r3, #4
 80068a8:	d009      	beq.n	80068be <vInitPrioGroupValue+0x76>
 80068aa:	f04f 0350 	mov.w	r3, #80	; 0x50
 80068ae:	f383 8811 	msr	BASEPRI, r3
 80068b2:	f3bf 8f6f 	isb	sy
 80068b6:	f3bf 8f4f 	dsb	sy
 80068ba:	60bb      	str	r3, [r7, #8]
 80068bc:	e7fe      	b.n	80068bc <vInitPrioGroupValue+0x74>
                }
            #endif

            /* Shift the priority group value back to its position within the AIRCR
             * register. */
            ulMaxPRIGROUPValue <<= portPRIGROUP_SHIFT;
 80068be:	4b0c      	ldr	r3, [pc, #48]	; (80068f0 <vInitPrioGroupValue+0xa8>)
 80068c0:	681b      	ldr	r3, [r3, #0]
 80068c2:	021b      	lsls	r3, r3, #8
 80068c4:	4a0a      	ldr	r2, [pc, #40]	; (80068f0 <vInitPrioGroupValue+0xa8>)
 80068c6:	6013      	str	r3, [r2, #0]
            ulMaxPRIGROUPValue &= portPRIORITY_GROUP_MASK;
 80068c8:	4b09      	ldr	r3, [pc, #36]	; (80068f0 <vInitPrioGroupValue+0xa8>)
 80068ca:	681b      	ldr	r3, [r3, #0]
 80068cc:	f403 63e0 	and.w	r3, r3, #1792	; 0x700
 80068d0:	4a07      	ldr	r2, [pc, #28]	; (80068f0 <vInitPrioGroupValue+0xa8>)
 80068d2:	6013      	str	r3, [r2, #0]

            /* Restore the clobbered interrupt priority register to its original
             * value. */
            *pucFirstUserPriorityRegister = ulOriginalPriority;
 80068d4:	687b      	ldr	r3, [r7, #4]
 80068d6:	b2da      	uxtb	r2, r3
 80068d8:	68fb      	ldr	r3, [r7, #12]
 80068da:	701a      	strb	r2, [r3, #0]
        }
    #endif /* conifgASSERT_DEFINED */
}
 80068dc:	bf00      	nop
 80068de:	3714      	adds	r7, #20
 80068e0:	46bd      	mov	sp, r7
 80068e2:	bc80      	pop	{r7}
 80068e4:	4770      	bx	lr
 80068e6:	bf00      	nop
 80068e8:	e000e400 	.word	0xe000e400
 80068ec:	200003bc 	.word	0x200003bc
 80068f0:	200003c0 	.word	0x200003c0

080068f4 <vPortEnterCritical>:
	configASSERT( uxCriticalNesting == 1000UL );
}
/*-----------------------------------------------------------*/

void vPortEnterCritical( void )
{
 80068f4:	b480      	push	{r7}
 80068f6:	b083      	sub	sp, #12
 80068f8:	af00      	add	r7, sp, #0
 80068fa:	f04f 0350 	mov.w	r3, #80	; 0x50
 80068fe:	f383 8811 	msr	BASEPRI, r3
 8006902:	f3bf 8f6f 	isb	sy
 8006906:	f3bf 8f4f 	dsb	sy
 800690a:	607b      	str	r3, [r7, #4]
	portDISABLE_INTERRUPTS();
	uxCriticalNesting++;
 800690c:	4b0e      	ldr	r3, [pc, #56]	; (8006948 <vPortEnterCritical+0x54>)
 800690e:	681b      	ldr	r3, [r3, #0]
 8006910:	3301      	adds	r3, #1
 8006912:	4a0d      	ldr	r2, [pc, #52]	; (8006948 <vPortEnterCritical+0x54>)
 8006914:	6013      	str	r3, [r2, #0]
	/* This is not the interrupt safe version of the enter critical function so
	assert() if it is being called from an interrupt context.  Only API
	functions that end in "FromISR" can be used in an interrupt.  Only assert if
	the critical nesting count is 1 to protect against recursive calls if the
	assert function also uses a critical section. */
	if( uxCriticalNesting == 1 )
 8006916:	4b0c      	ldr	r3, [pc, #48]	; (8006948 <vPortEnterCritical+0x54>)
 8006918:	681b      	ldr	r3, [r3, #0]
 800691a:	2b01      	cmp	r3, #1
 800691c:	d10e      	bne.n	800693c <vPortEnterCritical+0x48>
	{
		configASSERT( ( portNVIC_INT_CTRL_REG & portVECTACTIVE_MASK ) == 0 );
 800691e:	4b0b      	ldr	r3, [pc, #44]	; (800694c <vPortEnterCritical+0x58>)
 8006920:	681b      	ldr	r3, [r3, #0]
 8006922:	b2db      	uxtb	r3, r3
 8006924:	2b00      	cmp	r3, #0
 8006926:	d009      	beq.n	800693c <vPortEnterCritical+0x48>
 8006928:	f04f 0350 	mov.w	r3, #80	; 0x50
 800692c:	f383 8811 	msr	BASEPRI, r3
 8006930:	f3bf 8f6f 	isb	sy
 8006934:	f3bf 8f4f 	dsb	sy
 8006938:	603b      	str	r3, [r7, #0]
 800693a:	e7fe      	b.n	800693a <vPortEnterCritical+0x46>
	}
}
 800693c:	bf00      	nop
 800693e:	370c      	adds	r7, #12
 8006940:	46bd      	mov	sp, r7
 8006942:	bc80      	pop	{r7}
 8006944:	4770      	bx	lr
 8006946:	bf00      	nop
 8006948:	2000000c 	.word	0x2000000c
 800694c:	e000ed04 	.word	0xe000ed04

08006950 <vPortExitCritical>:
/*-----------------------------------------------------------*/

void vPortExitCritical( void )
{
 8006950:	b480      	push	{r7}
 8006952:	b083      	sub	sp, #12
 8006954:	af00      	add	r7, sp, #0
	configASSERT( uxCriticalNesting );
 8006956:	4b10      	ldr	r3, [pc, #64]	; (8006998 <vPortExitCritical+0x48>)
 8006958:	681b      	ldr	r3, [r3, #0]
 800695a:	2b00      	cmp	r3, #0
 800695c:	d109      	bne.n	8006972 <vPortExitCritical+0x22>
 800695e:	f04f 0350 	mov.w	r3, #80	; 0x50
 8006962:	f383 8811 	msr	BASEPRI, r3
 8006966:	f3bf 8f6f 	isb	sy
 800696a:	f3bf 8f4f 	dsb	sy
 800696e:	607b      	str	r3, [r7, #4]
 8006970:	e7fe      	b.n	8006970 <vPortExitCritical+0x20>
	uxCriticalNesting--;
 8006972:	4b09      	ldr	r3, [pc, #36]	; (8006998 <vPortExitCritical+0x48>)
 8006974:	681b      	ldr	r3, [r3, #0]
 8006976:	3b01      	subs	r3, #1
 8006978:	4a07      	ldr	r2, [pc, #28]	; (8006998 <vPortExitCritical+0x48>)
 800697a:	6013      	str	r3, [r2, #0]
	if( uxCriticalNesting == 0 )
 800697c:	4b06      	ldr	r3, [pc, #24]	; (8006998 <vPortExitCritical+0x48>)
 800697e:	681b      	ldr	r3, [r3, #0]
 8006980:	2b00      	cmp	r3, #0
 8006982:	d104      	bne.n	800698e <vPortExitCritical+0x3e>
 8006984:	2300      	movs	r3, #0
 8006986:	603b      	str	r3, [r7, #0]
}
/*-----------------------------------------------------------*/

portFORCE_INLINE static void vPortSetBASEPRI( uint32_t ulNewMaskValue )
{
	__asm volatile
 8006988:	683b      	ldr	r3, [r7, #0]
 800698a:	f383 8811 	msr	BASEPRI, r3
	{
		portENABLE_INTERRUPTS();
	}
}
 800698e:	bf00      	nop
 8006990:	370c      	adds	r7, #12
 8006992:	46bd      	mov	sp, r7
 8006994:	bc80      	pop	{r7}
 8006996:	4770      	bx	lr
 8006998:	2000000c 	.word	0x2000000c
 800699c:	00000000 	.word	0x00000000

080069a0 <PendSV_Handler>:

void xPortPendSVHandler( void )
{
	/* This is a naked function. */

	__asm volatile
 80069a0:	f3ef 8009 	mrs	r0, PSP
 80069a4:	f3bf 8f6f 	isb	sy
 80069a8:	4b0d      	ldr	r3, [pc, #52]	; (80069e0 <pxCurrentTCBConst>)
 80069aa:	681a      	ldr	r2, [r3, #0]
 80069ac:	e920 0ff0 	stmdb	r0!, {r4, r5, r6, r7, r8, r9, sl, fp}
 80069b0:	6010      	str	r0, [r2, #0]
 80069b2:	e92d 4008 	stmdb	sp!, {r3, lr}
 80069b6:	f04f 0050 	mov.w	r0, #80	; 0x50
 80069ba:	f380 8811 	msr	BASEPRI, r0
 80069be:	f7ff fc39 	bl	8006234 <vTaskSwitchContext>
 80069c2:	f04f 0000 	mov.w	r0, #0
 80069c6:	f380 8811 	msr	BASEPRI, r0
 80069ca:	e8bd 4008 	ldmia.w	sp!, {r3, lr}
 80069ce:	6819      	ldr	r1, [r3, #0]
 80069d0:	6808      	ldr	r0, [r1, #0]
 80069d2:	e8b0 0ff0 	ldmia.w	r0!, {r4, r5, r6, r7, r8, r9, sl, fp}
 80069d6:	f380 8809 	msr	PSP, r0
 80069da:	f3bf 8f6f 	isb	sy
 80069de:	4770      	bx	lr

080069e0 <pxCurrentTCBConst>:
 80069e0:	20000290 	.word	0x20000290
	"										\n"
	"	.align 4							\n"
	"pxCurrentTCBConst: .word pxCurrentTCB	\n"
	::"i"(configMAX_SYSCALL_INTERRUPT_PRIORITY)
	);
}
 80069e4:	bf00      	nop
 80069e6:	bf00      	nop

080069e8 <SysTick_Handler>:
/*-----------------------------------------------------------*/

void xPortSysTickHandler( void )
{
 80069e8:	b580      	push	{r7, lr}
 80069ea:	b082      	sub	sp, #8
 80069ec:	af00      	add	r7, sp, #0
	__asm volatile
 80069ee:	f04f 0350 	mov.w	r3, #80	; 0x50
 80069f2:	f383 8811 	msr	BASEPRI, r3
 80069f6:	f3bf 8f6f 	isb	sy
 80069fa:	f3bf 8f4f 	dsb	sy
 80069fe:	607b      	str	r3, [r7, #4]
	/* The SysTick runs at the lowest interrupt priority, so when this interrupt
	executes all interrupts must be unmasked.  There is therefore no need to
	save and then restore the interrupt mask value as its value is already
	known. */
	portDISABLE_INTERRUPTS();
	traceISR_ENTER();
 8006a00:	f001 fa16 	bl	8007e30 <SEGGER_SYSVIEW_RecordEnterISR>
	{
		/* Increment the RTOS tick. */
		if( xTaskIncrementTick() != pdFALSE )
 8006a04:	f7ff fb56 	bl	80060b4 <xTaskIncrementTick>
 8006a08:	4603      	mov	r3, r0
 8006a0a:	2b00      	cmp	r3, #0
 8006a0c:	d006      	beq.n	8006a1c <SysTick_Handler+0x34>
		{
			traceISR_EXIT_TO_SCHEDULER();
 8006a0e:	f001 fa6d 	bl	8007eec <SEGGER_SYSVIEW_RecordExitISRToScheduler>
			/* A context switch is required.  Context switching is performed in
			the PendSV interrupt.  Pend the PendSV interrupt. */
			portNVIC_INT_CTRL_REG = portNVIC_PENDSVSET_BIT;
 8006a12:	4b08      	ldr	r3, [pc, #32]	; (8006a34 <SysTick_Handler+0x4c>)
 8006a14:	f04f 5280 	mov.w	r2, #268435456	; 0x10000000
 8006a18:	601a      	str	r2, [r3, #0]
 8006a1a:	e001      	b.n	8006a20 <SysTick_Handler+0x38>
		}
				else
				{
					traceISR_EXIT();
 8006a1c:	f001 fa4a 	bl	8007eb4 <SEGGER_SYSVIEW_RecordExitISR>
 8006a20:	2300      	movs	r3, #0
 8006a22:	603b      	str	r3, [r7, #0]
	__asm volatile
 8006a24:	683b      	ldr	r3, [r7, #0]
 8006a26:	f383 8811 	msr	BASEPRI, r3
				}
	}
	portENABLE_INTERRUPTS();
}
 8006a2a:	bf00      	nop
 8006a2c:	3708      	adds	r7, #8
 8006a2e:	46bd      	mov	sp, r7
 8006a30:	bd80      	pop	{r7, pc}
 8006a32:	bf00      	nop
 8006a34:	e000ed04 	.word	0xe000ed04

08006a38 <vPortSetupTimerInterrupt>:
/*
 * Setup the systick timer to generate the tick interrupts at the required
 * frequency.
 */
__attribute__(( weak )) void vPortSetupTimerInterrupt( void )
{
 8006a38:	b480      	push	{r7}
 8006a3a:	af00      	add	r7, sp, #0
		ulStoppedTimerCompensation = portMISSED_COUNTS_FACTOR / ( configCPU_CLOCK_HZ / configSYSTICK_CLOCK_HZ );
	}
	#endif /* configUSE_TICKLESS_IDLE */

	/* Stop and clear the SysTick. */
	portNVIC_SYSTICK_CTRL_REG = 0UL;
 8006a3c:	4b0a      	ldr	r3, [pc, #40]	; (8006a68 <vPortSetupTimerInterrupt+0x30>)
 8006a3e:	2200      	movs	r2, #0
 8006a40:	601a      	str	r2, [r3, #0]
	portNVIC_SYSTICK_CURRENT_VALUE_REG = 0UL;
 8006a42:	4b0a      	ldr	r3, [pc, #40]	; (8006a6c <vPortSetupTimerInterrupt+0x34>)
 8006a44:	2200      	movs	r2, #0
 8006a46:	601a      	str	r2, [r3, #0]

	/* Configure SysTick to interrupt at the requested rate. */
	portNVIC_SYSTICK_LOAD_REG = ( configSYSTICK_CLOCK_HZ / configTICK_RATE_HZ ) - 1UL;
 8006a48:	4b09      	ldr	r3, [pc, #36]	; (8006a70 <vPortSetupTimerInterrupt+0x38>)
 8006a4a:	681b      	ldr	r3, [r3, #0]
 8006a4c:	4a09      	ldr	r2, [pc, #36]	; (8006a74 <vPortSetupTimerInterrupt+0x3c>)
 8006a4e:	fba2 2303 	umull	r2, r3, r2, r3
 8006a52:	099b      	lsrs	r3, r3, #6
 8006a54:	4a08      	ldr	r2, [pc, #32]	; (8006a78 <vPortSetupTimerInterrupt+0x40>)
 8006a56:	3b01      	subs	r3, #1
 8006a58:	6013      	str	r3, [r2, #0]
	portNVIC_SYSTICK_CTRL_REG = ( portNVIC_SYSTICK_CLK_BIT | portNVIC_SYSTICK_INT_BIT | portNVIC_SYSTICK_ENABLE_BIT );
 8006a5a:	4b03      	ldr	r3, [pc, #12]	; (8006a68 <vPortSetupTimerInterrupt+0x30>)
 8006a5c:	2207      	movs	r2, #7
 8006a5e:	601a      	str	r2, [r3, #0]
}
 8006a60:	bf00      	nop
 8006a62:	46bd      	mov	sp, r7
 8006a64:	bc80      	pop	{r7}
 8006a66:	4770      	bx	lr
 8006a68:	e000e010 	.word	0xe000e010
 8006a6c:	e000e018 	.word	0xe000e018
 8006a70:	20000000 	.word	0x20000000
 8006a74:	10624dd3 	.word	0x10624dd3
 8006a78:	e000e014 	.word	0xe000e014

08006a7c <pvPortMalloc>:
static size_t xBlockAllocatedBit = 0;

/*-----------------------------------------------------------*/

void *pvPortMalloc( size_t xWantedSize )
{
 8006a7c:	b580      	push	{r7, lr}
 8006a7e:	b08a      	sub	sp, #40	; 0x28
 8006a80:	af00      	add	r7, sp, #0
 8006a82:	6078      	str	r0, [r7, #4]
BlockLink_t *pxBlock, *pxPreviousBlock, *pxNewBlockLink;
void *pvReturn = NULL;
 8006a84:	2300      	movs	r3, #0
 8006a86:	61fb      	str	r3, [r7, #28]

	vTaskSuspendAll();
 8006a88:	f7ff fa58 	bl	8005f3c <vTaskSuspendAll>
	{
		/* If this is the first call to malloc then the heap will require
		initialisation to setup the list of free blocks. */
		if( pxEnd == NULL )
 8006a8c:	4b57      	ldr	r3, [pc, #348]	; (8006bec <pvPortMalloc+0x170>)
 8006a8e:	681b      	ldr	r3, [r3, #0]
 8006a90:	2b00      	cmp	r3, #0
 8006a92:	d101      	bne.n	8006a98 <pvPortMalloc+0x1c>
		{
			prvHeapInit();
 8006a94:	f000 f90c 	bl	8006cb0 <prvHeapInit>

		/* Check the requested block size is not so large that the top bit is
		set.  The top bit of the block size member of the BlockLink_t structure
		is used to determine who owns the block - the application or the
		kernel, so it must be free. */
		if( ( xWantedSize & xBlockAllocatedBit ) == 0 )
 8006a98:	4b55      	ldr	r3, [pc, #340]	; (8006bf0 <pvPortMalloc+0x174>)
 8006a9a:	681a      	ldr	r2, [r3, #0]
 8006a9c:	687b      	ldr	r3, [r7, #4]
 8006a9e:	4013      	ands	r3, r2
 8006aa0:	2b00      	cmp	r3, #0
 8006aa2:	f040 808c 	bne.w	8006bbe <pvPortMalloc+0x142>
		{
			/* The wanted size is increased so it can contain a BlockLink_t
			structure in addition to the requested amount of bytes. */
			if( xWantedSize > 0 )
 8006aa6:	687b      	ldr	r3, [r7, #4]
 8006aa8:	2b00      	cmp	r3, #0
 8006aaa:	d01c      	beq.n	8006ae6 <pvPortMalloc+0x6a>
			{
				xWantedSize += xHeapStructSize;
 8006aac:	2208      	movs	r2, #8
 8006aae:	687b      	ldr	r3, [r7, #4]
 8006ab0:	4413      	add	r3, r2
 8006ab2:	607b      	str	r3, [r7, #4]

				/* Ensure that blocks are always aligned to the required number
				of bytes. */
				if( ( xWantedSize & portBYTE_ALIGNMENT_MASK ) != 0x00 )
 8006ab4:	687b      	ldr	r3, [r7, #4]
 8006ab6:	f003 0307 	and.w	r3, r3, #7
 8006aba:	2b00      	cmp	r3, #0
 8006abc:	d013      	beq.n	8006ae6 <pvPortMalloc+0x6a>
				{
					/* Byte alignment required. */
					xWantedSize += ( portBYTE_ALIGNMENT - ( xWantedSize & portBYTE_ALIGNMENT_MASK ) );
 8006abe:	687b      	ldr	r3, [r7, #4]
 8006ac0:	f023 0307 	bic.w	r3, r3, #7
 8006ac4:	3308      	adds	r3, #8
 8006ac6:	607b      	str	r3, [r7, #4]
					configASSERT( ( xWantedSize & portBYTE_ALIGNMENT_MASK ) == 0 );
 8006ac8:	687b      	ldr	r3, [r7, #4]
 8006aca:	f003 0307 	and.w	r3, r3, #7
 8006ace:	2b00      	cmp	r3, #0
 8006ad0:	d009      	beq.n	8006ae6 <pvPortMalloc+0x6a>
	__asm volatile
 8006ad2:	f04f 0350 	mov.w	r3, #80	; 0x50
 8006ad6:	f383 8811 	msr	BASEPRI, r3
 8006ada:	f3bf 8f6f 	isb	sy
 8006ade:	f3bf 8f4f 	dsb	sy
 8006ae2:	617b      	str	r3, [r7, #20]
 8006ae4:	e7fe      	b.n	8006ae4 <pvPortMalloc+0x68>
			else
			{
				mtCOVERAGE_TEST_MARKER();
			}

			if( ( xWantedSize > 0 ) && ( xWantedSize <= xFreeBytesRemaining ) )
 8006ae6:	687b      	ldr	r3, [r7, #4]
 8006ae8:	2b00      	cmp	r3, #0
 8006aea:	d068      	beq.n	8006bbe <pvPortMalloc+0x142>
 8006aec:	4b41      	ldr	r3, [pc, #260]	; (8006bf4 <pvPortMalloc+0x178>)
 8006aee:	681b      	ldr	r3, [r3, #0]
 8006af0:	687a      	ldr	r2, [r7, #4]
 8006af2:	429a      	cmp	r2, r3
 8006af4:	d863      	bhi.n	8006bbe <pvPortMalloc+0x142>
			{
				/* Traverse the list from the start	(lowest address) block until
				one	of adequate size is found. */
				pxPreviousBlock = &xStart;
 8006af6:	4b40      	ldr	r3, [pc, #256]	; (8006bf8 <pvPortMalloc+0x17c>)
 8006af8:	623b      	str	r3, [r7, #32]
				pxBlock = xStart.pxNextFreeBlock;
 8006afa:	4b3f      	ldr	r3, [pc, #252]	; (8006bf8 <pvPortMalloc+0x17c>)
 8006afc:	681b      	ldr	r3, [r3, #0]
 8006afe:	627b      	str	r3, [r7, #36]	; 0x24
				while( ( pxBlock->xBlockSize < xWantedSize ) && ( pxBlock->pxNextFreeBlock != NULL ) )
 8006b00:	e004      	b.n	8006b0c <pvPortMalloc+0x90>
				{
					pxPreviousBlock = pxBlock;
 8006b02:	6a7b      	ldr	r3, [r7, #36]	; 0x24
 8006b04:	623b      	str	r3, [r7, #32]
					pxBlock = pxBlock->pxNextFreeBlock;
 8006b06:	6a7b      	ldr	r3, [r7, #36]	; 0x24
 8006b08:	681b      	ldr	r3, [r3, #0]
 8006b0a:	627b      	str	r3, [r7, #36]	; 0x24
				while( ( pxBlock->xBlockSize < xWantedSize ) && ( pxBlock->pxNextFreeBlock != NULL ) )
 8006b0c:	6a7b      	ldr	r3, [r7, #36]	; 0x24
 8006b0e:	685b      	ldr	r3, [r3, #4]
 8006b10:	687a      	ldr	r2, [r7, #4]
 8006b12:	429a      	cmp	r2, r3
 8006b14:	d903      	bls.n	8006b1e <pvPortMalloc+0xa2>
 8006b16:	6a7b      	ldr	r3, [r7, #36]	; 0x24
 8006b18:	681b      	ldr	r3, [r3, #0]
 8006b1a:	2b00      	cmp	r3, #0
 8006b1c:	d1f1      	bne.n	8006b02 <pvPortMalloc+0x86>
				}

				/* If the end marker was reached then a block of adequate size
				was	not found. */
				if( pxBlock != pxEnd )
 8006b1e:	4b33      	ldr	r3, [pc, #204]	; (8006bec <pvPortMalloc+0x170>)
 8006b20:	681b      	ldr	r3, [r3, #0]
 8006b22:	6a7a      	ldr	r2, [r7, #36]	; 0x24
 8006b24:	429a      	cmp	r2, r3
 8006b26:	d04a      	beq.n	8006bbe <pvPortMalloc+0x142>
				{
					/* Return the memory space pointed to - jumping over the
					BlockLink_t structure at its start. */
					pvReturn = ( void * ) ( ( ( uint8_t * ) pxPreviousBlock->pxNextFreeBlock ) + xHeapStructSize );
 8006b28:	6a3b      	ldr	r3, [r7, #32]
 8006b2a:	681b      	ldr	r3, [r3, #0]
 8006b2c:	2208      	movs	r2, #8
 8006b2e:	4413      	add	r3, r2
 8006b30:	61fb      	str	r3, [r7, #28]

					/* This block is being returned for use so must be taken out
					of the list of free blocks. */
					pxPreviousBlock->pxNextFreeBlock = pxBlock->pxNextFreeBlock;
 8006b32:	6a7b      	ldr	r3, [r7, #36]	; 0x24
 8006b34:	681a      	ldr	r2, [r3, #0]
 8006b36:	6a3b      	ldr	r3, [r7, #32]
 8006b38:	601a      	str	r2, [r3, #0]

					/* If the block is larger than required it can be split into
					two. */
					if( ( pxBlock->xBlockSize - xWantedSize ) > heapMINIMUM_BLOCK_SIZE )
 8006b3a:	6a7b      	ldr	r3, [r7, #36]	; 0x24
 8006b3c:	685a      	ldr	r2, [r3, #4]
 8006b3e:	687b      	ldr	r3, [r7, #4]
 8006b40:	1ad2      	subs	r2, r2, r3
 8006b42:	2308      	movs	r3, #8
 8006b44:	005b      	lsls	r3, r3, #1
 8006b46:	429a      	cmp	r2, r3
 8006b48:	d91e      	bls.n	8006b88 <pvPortMalloc+0x10c>
					{
						/* This block is to be split into two.  Create a new
						block following the number of bytes requested. The void
						cast is used to prevent byte alignment warnings from the
						compiler. */
						pxNewBlockLink = ( void * ) ( ( ( uint8_t * ) pxBlock ) + xWantedSize );
 8006b4a:	6a7a      	ldr	r2, [r7, #36]	; 0x24
 8006b4c:	687b      	ldr	r3, [r7, #4]
 8006b4e:	4413      	add	r3, r2
 8006b50:	61bb      	str	r3, [r7, #24]
						configASSERT( ( ( ( size_t ) pxNewBlockLink ) & portBYTE_ALIGNMENT_MASK ) == 0 );
 8006b52:	69bb      	ldr	r3, [r7, #24]
 8006b54:	f003 0307 	and.w	r3, r3, #7
 8006b58:	2b00      	cmp	r3, #0
 8006b5a:	d009      	beq.n	8006b70 <pvPortMalloc+0xf4>
 8006b5c:	f04f 0350 	mov.w	r3, #80	; 0x50
 8006b60:	f383 8811 	msr	BASEPRI, r3
 8006b64:	f3bf 8f6f 	isb	sy
 8006b68:	f3bf 8f4f 	dsb	sy
 8006b6c:	613b      	str	r3, [r7, #16]
 8006b6e:	e7fe      	b.n	8006b6e <pvPortMalloc+0xf2>

						/* Calculate the sizes of two blocks split from the
						single block. */
						pxNewBlockLink->xBlockSize = pxBlock->xBlockSize - xWantedSize;
 8006b70:	6a7b      	ldr	r3, [r7, #36]	; 0x24
 8006b72:	685a      	ldr	r2, [r3, #4]
 8006b74:	687b      	ldr	r3, [r7, #4]
 8006b76:	1ad2      	subs	r2, r2, r3
 8006b78:	69bb      	ldr	r3, [r7, #24]
 8006b7a:	605a      	str	r2, [r3, #4]
						pxBlock->xBlockSize = xWantedSize;
 8006b7c:	6a7b      	ldr	r3, [r7, #36]	; 0x24
 8006b7e:	687a      	ldr	r2, [r7, #4]
 8006b80:	605a      	str	r2, [r3, #4]

						/* Insert the new block into the list of free blocks. */
						prvInsertBlockIntoFreeList( pxNewBlockLink );
 8006b82:	69b8      	ldr	r0, [r7, #24]
 8006b84:	f000 f8f6 	bl	8006d74 <prvInsertBlockIntoFreeList>
					else
					{
						mtCOVERAGE_TEST_MARKER();
					}

					xFreeBytesRemaining -= pxBlock->xBlockSize;
 8006b88:	4b1a      	ldr	r3, [pc, #104]	; (8006bf4 <pvPortMalloc+0x178>)
 8006b8a:	681a      	ldr	r2, [r3, #0]
 8006b8c:	6a7b      	ldr	r3, [r7, #36]	; 0x24
 8006b8e:	685b      	ldr	r3, [r3, #4]
 8006b90:	1ad3      	subs	r3, r2, r3
 8006b92:	4a18      	ldr	r2, [pc, #96]	; (8006bf4 <pvPortMalloc+0x178>)
 8006b94:	6013      	str	r3, [r2, #0]

					if( xFreeBytesRemaining < xMinimumEverFreeBytesRemaining )
 8006b96:	4b17      	ldr	r3, [pc, #92]	; (8006bf4 <pvPortMalloc+0x178>)
 8006b98:	681a      	ldr	r2, [r3, #0]
 8006b9a:	4b18      	ldr	r3, [pc, #96]	; (8006bfc <pvPortMalloc+0x180>)
 8006b9c:	681b      	ldr	r3, [r3, #0]
 8006b9e:	429a      	cmp	r2, r3
 8006ba0:	d203      	bcs.n	8006baa <pvPortMalloc+0x12e>
					{
						xMinimumEverFreeBytesRemaining = xFreeBytesRemaining;
 8006ba2:	4b14      	ldr	r3, [pc, #80]	; (8006bf4 <pvPortMalloc+0x178>)
 8006ba4:	681b      	ldr	r3, [r3, #0]
 8006ba6:	4a15      	ldr	r2, [pc, #84]	; (8006bfc <pvPortMalloc+0x180>)
 8006ba8:	6013      	str	r3, [r2, #0]
						mtCOVERAGE_TEST_MARKER();
					}

					/* The block is being returned - it is allocated and owned
					by the application and has no "next" block. */
					pxBlock->xBlockSize |= xBlockAllocatedBit;
 8006baa:	6a7b      	ldr	r3, [r7, #36]	; 0x24
 8006bac:	685a      	ldr	r2, [r3, #4]
 8006bae:	4b10      	ldr	r3, [pc, #64]	; (8006bf0 <pvPortMalloc+0x174>)
 8006bb0:	681b      	ldr	r3, [r3, #0]
 8006bb2:	431a      	orrs	r2, r3
 8006bb4:	6a7b      	ldr	r3, [r7, #36]	; 0x24
 8006bb6:	605a      	str	r2, [r3, #4]
					pxBlock->pxNextFreeBlock = NULL;
 8006bb8:	6a7b      	ldr	r3, [r7, #36]	; 0x24
 8006bba:	2200      	movs	r2, #0
 8006bbc:	601a      	str	r2, [r3, #0]
			mtCOVERAGE_TEST_MARKER();
		}

		traceMALLOC( pvReturn, xWantedSize );
	}
	( void ) xTaskResumeAll();
 8006bbe:	f7ff f9cb 	bl	8005f58 <xTaskResumeAll>
			mtCOVERAGE_TEST_MARKER();
		}
	}
	#endif

	configASSERT( ( ( ( size_t ) pvReturn ) & ( size_t ) portBYTE_ALIGNMENT_MASK ) == 0 );
 8006bc2:	69fb      	ldr	r3, [r7, #28]
 8006bc4:	f003 0307 	and.w	r3, r3, #7
 8006bc8:	2b00      	cmp	r3, #0
 8006bca:	d009      	beq.n	8006be0 <pvPortMalloc+0x164>
 8006bcc:	f04f 0350 	mov.w	r3, #80	; 0x50
 8006bd0:	f383 8811 	msr	BASEPRI, r3
 8006bd4:	f3bf 8f6f 	isb	sy
 8006bd8:	f3bf 8f4f 	dsb	sy
 8006bdc:	60fb      	str	r3, [r7, #12]
 8006bde:	e7fe      	b.n	8006bde <pvPortMalloc+0x162>
	return pvReturn;
 8006be0:	69fb      	ldr	r3, [r7, #28]
}
 8006be2:	4618      	mov	r0, r3
 8006be4:	3728      	adds	r7, #40	; 0x28
 8006be6:	46bd      	mov	sp, r7
 8006be8:	bd80      	pop	{r7, pc}
 8006bea:	bf00      	nop
 8006bec:	20001bcc 	.word	0x20001bcc
 8006bf0:	20001bd8 	.word	0x20001bd8
 8006bf4:	20001bd0 	.word	0x20001bd0
 8006bf8:	20001bc4 	.word	0x20001bc4
 8006bfc:	20001bd4 	.word	0x20001bd4

08006c00 <vPortFree>:
/*-----------------------------------------------------------*/

void vPortFree( void *pv )
{
 8006c00:	b580      	push	{r7, lr}
 8006c02:	b086      	sub	sp, #24
 8006c04:	af00      	add	r7, sp, #0
 8006c06:	6078      	str	r0, [r7, #4]
uint8_t *puc = ( uint8_t * ) pv;
 8006c08:	687b      	ldr	r3, [r7, #4]
 8006c0a:	617b      	str	r3, [r7, #20]
BlockLink_t *pxLink;

	if( pv != NULL )
 8006c0c:	687b      	ldr	r3, [r7, #4]
 8006c0e:	2b00      	cmp	r3, #0
 8006c10:	d046      	beq.n	8006ca0 <vPortFree+0xa0>
	{
		/* The memory being freed will have an BlockLink_t structure immediately
		before it. */
		puc -= xHeapStructSize;
 8006c12:	2308      	movs	r3, #8
 8006c14:	425b      	negs	r3, r3
 8006c16:	697a      	ldr	r2, [r7, #20]
 8006c18:	4413      	add	r3, r2
 8006c1a:	617b      	str	r3, [r7, #20]

		/* This casting is to keep the compiler from issuing warnings. */
		pxLink = ( void * ) puc;
 8006c1c:	697b      	ldr	r3, [r7, #20]
 8006c1e:	613b      	str	r3, [r7, #16]

		/* Check the block is actually allocated. */
		configASSERT( ( pxLink->xBlockSize & xBlockAllocatedBit ) != 0 );
 8006c20:	693b      	ldr	r3, [r7, #16]
 8006c22:	685a      	ldr	r2, [r3, #4]
 8006c24:	4b20      	ldr	r3, [pc, #128]	; (8006ca8 <vPortFree+0xa8>)
 8006c26:	681b      	ldr	r3, [r3, #0]
 8006c28:	4013      	ands	r3, r2
 8006c2a:	2b00      	cmp	r3, #0
 8006c2c:	d109      	bne.n	8006c42 <vPortFree+0x42>
 8006c2e:	f04f 0350 	mov.w	r3, #80	; 0x50
 8006c32:	f383 8811 	msr	BASEPRI, r3
 8006c36:	f3bf 8f6f 	isb	sy
 8006c3a:	f3bf 8f4f 	dsb	sy
 8006c3e:	60fb      	str	r3, [r7, #12]
 8006c40:	e7fe      	b.n	8006c40 <vPortFree+0x40>
		configASSERT( pxLink->pxNextFreeBlock == NULL );
 8006c42:	693b      	ldr	r3, [r7, #16]
 8006c44:	681b      	ldr	r3, [r3, #0]
 8006c46:	2b00      	cmp	r3, #0
 8006c48:	d009      	beq.n	8006c5e <vPortFree+0x5e>
 8006c4a:	f04f 0350 	mov.w	r3, #80	; 0x50
 8006c4e:	f383 8811 	msr	BASEPRI, r3
 8006c52:	f3bf 8f6f 	isb	sy
 8006c56:	f3bf 8f4f 	dsb	sy
 8006c5a:	60bb      	str	r3, [r7, #8]
 8006c5c:	e7fe      	b.n	8006c5c <vPortFree+0x5c>

		if( ( pxLink->xBlockSize & xBlockAllocatedBit ) != 0 )
 8006c5e:	693b      	ldr	r3, [r7, #16]
 8006c60:	685a      	ldr	r2, [r3, #4]
 8006c62:	4b11      	ldr	r3, [pc, #68]	; (8006ca8 <vPortFree+0xa8>)
 8006c64:	681b      	ldr	r3, [r3, #0]
 8006c66:	4013      	ands	r3, r2
 8006c68:	2b00      	cmp	r3, #0
 8006c6a:	d019      	beq.n	8006ca0 <vPortFree+0xa0>
		{
			if( pxLink->pxNextFreeBlock == NULL )
 8006c6c:	693b      	ldr	r3, [r7, #16]
 8006c6e:	681b      	ldr	r3, [r3, #0]
 8006c70:	2b00      	cmp	r3, #0
 8006c72:	d115      	bne.n	8006ca0 <vPortFree+0xa0>
			{
				/* The block is being returned to the heap - it is no longer
				allocated. */
				pxLink->xBlockSize &= ~xBlockAllocatedBit;
 8006c74:	693b      	ldr	r3, [r7, #16]
 8006c76:	685a      	ldr	r2, [r3, #4]
 8006c78:	4b0b      	ldr	r3, [pc, #44]	; (8006ca8 <vPortFree+0xa8>)
 8006c7a:	681b      	ldr	r3, [r3, #0]
 8006c7c:	43db      	mvns	r3, r3
 8006c7e:	401a      	ands	r2, r3
 8006c80:	693b      	ldr	r3, [r7, #16]
 8006c82:	605a      	str	r2, [r3, #4]

				vTaskSuspendAll();
 8006c84:	f7ff f95a 	bl	8005f3c <vTaskSuspendAll>
				{
					/* Add this block to the list of free blocks. */
					xFreeBytesRemaining += pxLink->xBlockSize;
 8006c88:	693b      	ldr	r3, [r7, #16]
 8006c8a:	685a      	ldr	r2, [r3, #4]
 8006c8c:	4b07      	ldr	r3, [pc, #28]	; (8006cac <vPortFree+0xac>)
 8006c8e:	681b      	ldr	r3, [r3, #0]
 8006c90:	4413      	add	r3, r2
 8006c92:	4a06      	ldr	r2, [pc, #24]	; (8006cac <vPortFree+0xac>)
 8006c94:	6013      	str	r3, [r2, #0]
					traceFREE( pv, pxLink->xBlockSize );
					prvInsertBlockIntoFreeList( ( ( BlockLink_t * ) pxLink ) );
 8006c96:	6938      	ldr	r0, [r7, #16]
 8006c98:	f000 f86c 	bl	8006d74 <prvInsertBlockIntoFreeList>
				}
				( void ) xTaskResumeAll();
 8006c9c:	f7ff f95c 	bl	8005f58 <xTaskResumeAll>
		else
		{
			mtCOVERAGE_TEST_MARKER();
		}
	}
}
 8006ca0:	bf00      	nop
 8006ca2:	3718      	adds	r7, #24
 8006ca4:	46bd      	mov	sp, r7
 8006ca6:	bd80      	pop	{r7, pc}
 8006ca8:	20001bd8 	.word	0x20001bd8
 8006cac:	20001bd0 	.word	0x20001bd0

08006cb0 <prvHeapInit>:
	/* This just exists to keep the linker quiet. */
}
/*-----------------------------------------------------------*/

static void prvHeapInit( void )
{
 8006cb0:	b480      	push	{r7}
 8006cb2:	b085      	sub	sp, #20
 8006cb4:	af00      	add	r7, sp, #0
BlockLink_t *pxFirstFreeBlock;
uint8_t *pucAlignedHeap;
size_t uxAddress;
size_t xTotalHeapSize = configTOTAL_HEAP_SIZE;
 8006cb6:	f44f 53c0 	mov.w	r3, #6144	; 0x1800
 8006cba:	60bb      	str	r3, [r7, #8]

	/* Ensure the heap starts on a correctly aligned boundary. */
	uxAddress = ( size_t ) ucHeap;
 8006cbc:	4b27      	ldr	r3, [pc, #156]	; (8006d5c <prvHeapInit+0xac>)
 8006cbe:	60fb      	str	r3, [r7, #12]

	if( ( uxAddress & portBYTE_ALIGNMENT_MASK ) != 0 )
 8006cc0:	68fb      	ldr	r3, [r7, #12]
 8006cc2:	f003 0307 	and.w	r3, r3, #7
 8006cc6:	2b00      	cmp	r3, #0
 8006cc8:	d00c      	beq.n	8006ce4 <prvHeapInit+0x34>
	{
		uxAddress += ( portBYTE_ALIGNMENT - 1 );
 8006cca:	68fb      	ldr	r3, [r7, #12]
 8006ccc:	3307      	adds	r3, #7
 8006cce:	60fb      	str	r3, [r7, #12]
		uxAddress &= ~( ( size_t ) portBYTE_ALIGNMENT_MASK );
 8006cd0:	68fb      	ldr	r3, [r7, #12]
 8006cd2:	f023 0307 	bic.w	r3, r3, #7
 8006cd6:	60fb      	str	r3, [r7, #12]
		xTotalHeapSize -= uxAddress - ( size_t ) ucHeap;
 8006cd8:	68ba      	ldr	r2, [r7, #8]
 8006cda:	68fb      	ldr	r3, [r7, #12]
 8006cdc:	1ad3      	subs	r3, r2, r3
 8006cde:	4a1f      	ldr	r2, [pc, #124]	; (8006d5c <prvHeapInit+0xac>)
 8006ce0:	4413      	add	r3, r2
 8006ce2:	60bb      	str	r3, [r7, #8]
	}

	pucAlignedHeap = ( uint8_t * ) uxAddress;
 8006ce4:	68fb      	ldr	r3, [r7, #12]
 8006ce6:	607b      	str	r3, [r7, #4]

	/* xStart is used to hold a pointer to the first item in the list of free
	blocks.  The void cast is used to prevent compiler warnings. */
	xStart.pxNextFreeBlock = ( void * ) pucAlignedHeap;
 8006ce8:	4a1d      	ldr	r2, [pc, #116]	; (8006d60 <prvHeapInit+0xb0>)
 8006cea:	687b      	ldr	r3, [r7, #4]
 8006cec:	6013      	str	r3, [r2, #0]
	xStart.xBlockSize = ( size_t ) 0;
 8006cee:	4b1c      	ldr	r3, [pc, #112]	; (8006d60 <prvHeapInit+0xb0>)
 8006cf0:	2200      	movs	r2, #0
 8006cf2:	605a      	str	r2, [r3, #4]

	/* pxEnd is used to mark the end of the list of free blocks and is inserted
	at the end of the heap space. */
	uxAddress = ( ( size_t ) pucAlignedHeap ) + xTotalHeapSize;
 8006cf4:	687b      	ldr	r3, [r7, #4]
 8006cf6:	68ba      	ldr	r2, [r7, #8]
 8006cf8:	4413      	add	r3, r2
 8006cfa:	60fb      	str	r3, [r7, #12]
	uxAddress -= xHeapStructSize;
 8006cfc:	2208      	movs	r2, #8
 8006cfe:	68fb      	ldr	r3, [r7, #12]
 8006d00:	1a9b      	subs	r3, r3, r2
 8006d02:	60fb      	str	r3, [r7, #12]
	uxAddress &= ~( ( size_t ) portBYTE_ALIGNMENT_MASK );
 8006d04:	68fb      	ldr	r3, [r7, #12]
 8006d06:	f023 0307 	bic.w	r3, r3, #7
 8006d0a:	60fb      	str	r3, [r7, #12]
	pxEnd = ( void * ) uxAddress;
 8006d0c:	68fb      	ldr	r3, [r7, #12]
 8006d0e:	4a15      	ldr	r2, [pc, #84]	; (8006d64 <prvHeapInit+0xb4>)
 8006d10:	6013      	str	r3, [r2, #0]
	pxEnd->xBlockSize = 0;
 8006d12:	4b14      	ldr	r3, [pc, #80]	; (8006d64 <prvHeapInit+0xb4>)
 8006d14:	681b      	ldr	r3, [r3, #0]
 8006d16:	2200      	movs	r2, #0
 8006d18:	605a      	str	r2, [r3, #4]
	pxEnd->pxNextFreeBlock = NULL;
 8006d1a:	4b12      	ldr	r3, [pc, #72]	; (8006d64 <prvHeapInit+0xb4>)
 8006d1c:	681b      	ldr	r3, [r3, #0]
 8006d1e:	2200      	movs	r2, #0
 8006d20:	601a      	str	r2, [r3, #0]

	/* To start with there is a single free block that is sized to take up the
	entire heap space, minus the space taken by pxEnd. */
	pxFirstFreeBlock = ( void * ) pucAlignedHeap;
 8006d22:	687b      	ldr	r3, [r7, #4]
 8006d24:	603b      	str	r3, [r7, #0]
	pxFirstFreeBlock->xBlockSize = uxAddress - ( size_t ) pxFirstFreeBlock;
 8006d26:	683b      	ldr	r3, [r7, #0]
 8006d28:	68fa      	ldr	r2, [r7, #12]
 8006d2a:	1ad2      	subs	r2, r2, r3
 8006d2c:	683b      	ldr	r3, [r7, #0]
 8006d2e:	605a      	str	r2, [r3, #4]
	pxFirstFreeBlock->pxNextFreeBlock = pxEnd;
 8006d30:	4b0c      	ldr	r3, [pc, #48]	; (8006d64 <prvHeapInit+0xb4>)
 8006d32:	681a      	ldr	r2, [r3, #0]
 8006d34:	683b      	ldr	r3, [r7, #0]
 8006d36:	601a      	str	r2, [r3, #0]

	/* Only one block exists - and it covers the entire usable heap space. */
	xMinimumEverFreeBytesRemaining = pxFirstFreeBlock->xBlockSize;
 8006d38:	683b      	ldr	r3, [r7, #0]
 8006d3a:	685b      	ldr	r3, [r3, #4]
 8006d3c:	4a0a      	ldr	r2, [pc, #40]	; (8006d68 <prvHeapInit+0xb8>)
 8006d3e:	6013      	str	r3, [r2, #0]
	xFreeBytesRemaining = pxFirstFreeBlock->xBlockSize;
 8006d40:	683b      	ldr	r3, [r7, #0]
 8006d42:	685b      	ldr	r3, [r3, #4]
 8006d44:	4a09      	ldr	r2, [pc, #36]	; (8006d6c <prvHeapInit+0xbc>)
 8006d46:	6013      	str	r3, [r2, #0]

	/* Work out the position of the top bit in a size_t variable. */
	xBlockAllocatedBit = ( ( size_t ) 1 ) << ( ( sizeof( size_t ) * heapBITS_PER_BYTE ) - 1 );
 8006d48:	4b09      	ldr	r3, [pc, #36]	; (8006d70 <prvHeapInit+0xc0>)
 8006d4a:	f04f 4200 	mov.w	r2, #2147483648	; 0x80000000
 8006d4e:	601a      	str	r2, [r3, #0]
}
 8006d50:	bf00      	nop
 8006d52:	3714      	adds	r7, #20
 8006d54:	46bd      	mov	sp, r7
 8006d56:	bc80      	pop	{r7}
 8006d58:	4770      	bx	lr
 8006d5a:	bf00      	nop
 8006d5c:	200003c4 	.word	0x200003c4
 8006d60:	20001bc4 	.word	0x20001bc4
 8006d64:	20001bcc 	.word	0x20001bcc
 8006d68:	20001bd4 	.word	0x20001bd4
 8006d6c:	20001bd0 	.word	0x20001bd0
 8006d70:	20001bd8 	.word	0x20001bd8

08006d74 <prvInsertBlockIntoFreeList>:
/*-----------------------------------------------------------*/

static void prvInsertBlockIntoFreeList( BlockLink_t *pxBlockToInsert )
{
 8006d74:	b480      	push	{r7}
 8006d76:	b085      	sub	sp, #20
 8006d78:	af00      	add	r7, sp, #0
 8006d7a:	6078      	str	r0, [r7, #4]
BlockLink_t *pxIterator;
uint8_t *puc;

	/* Iterate through the list until a block is found that has a higher address
	than the block being inserted. */
	for( pxIterator = &xStart; pxIterator->pxNextFreeBlock < pxBlockToInsert; pxIterator = pxIterator->pxNextFreeBlock )
 8006d7c:	4b27      	ldr	r3, [pc, #156]	; (8006e1c <prvInsertBlockIntoFreeList+0xa8>)
 8006d7e:	60fb      	str	r3, [r7, #12]
 8006d80:	e002      	b.n	8006d88 <prvInsertBlockIntoFreeList+0x14>
 8006d82:	68fb      	ldr	r3, [r7, #12]
 8006d84:	681b      	ldr	r3, [r3, #0]
 8006d86:	60fb      	str	r3, [r7, #12]
 8006d88:	68fb      	ldr	r3, [r7, #12]
 8006d8a:	681b      	ldr	r3, [r3, #0]
 8006d8c:	687a      	ldr	r2, [r7, #4]
 8006d8e:	429a      	cmp	r2, r3
 8006d90:	d8f7      	bhi.n	8006d82 <prvInsertBlockIntoFreeList+0xe>
		/* Nothing to do here, just iterate to the right position. */
	}

	/* Do the block being inserted, and the block it is being inserted after
	make a contiguous block of memory? */
	puc = ( uint8_t * ) pxIterator;
 8006d92:	68fb      	ldr	r3, [r7, #12]
 8006d94:	60bb      	str	r3, [r7, #8]
	if( ( puc + pxIterator->xBlockSize ) == ( uint8_t * ) pxBlockToInsert )
 8006d96:	68fb      	ldr	r3, [r7, #12]
 8006d98:	685b      	ldr	r3, [r3, #4]
 8006d9a:	68ba      	ldr	r2, [r7, #8]
 8006d9c:	4413      	add	r3, r2
 8006d9e:	687a      	ldr	r2, [r7, #4]
 8006da0:	429a      	cmp	r2, r3
 8006da2:	d108      	bne.n	8006db6 <prvInsertBlockIntoFreeList+0x42>
	{
		pxIterator->xBlockSize += pxBlockToInsert->xBlockSize;
 8006da4:	68fb      	ldr	r3, [r7, #12]
 8006da6:	685a      	ldr	r2, [r3, #4]
 8006da8:	687b      	ldr	r3, [r7, #4]
 8006daa:	685b      	ldr	r3, [r3, #4]
 8006dac:	441a      	add	r2, r3
 8006dae:	68fb      	ldr	r3, [r7, #12]
 8006db0:	605a      	str	r2, [r3, #4]
		pxBlockToInsert = pxIterator;
 8006db2:	68fb      	ldr	r3, [r7, #12]
 8006db4:	607b      	str	r3, [r7, #4]
		mtCOVERAGE_TEST_MARKER();
	}

	/* Do the block being inserted, and the block it is being inserted before
	make a contiguous block of memory? */
	puc = ( uint8_t * ) pxBlockToInsert;
 8006db6:	687b      	ldr	r3, [r7, #4]
 8006db8:	60bb      	str	r3, [r7, #8]
	if( ( puc + pxBlockToInsert->xBlockSize ) == ( uint8_t * ) pxIterator->pxNextFreeBlock )
 8006dba:	687b      	ldr	r3, [r7, #4]
 8006dbc:	685b      	ldr	r3, [r3, #4]
 8006dbe:	68ba      	ldr	r2, [r7, #8]
 8006dc0:	441a      	add	r2, r3
 8006dc2:	68fb      	ldr	r3, [r7, #12]
 8006dc4:	681b      	ldr	r3, [r3, #0]
 8006dc6:	429a      	cmp	r2, r3
 8006dc8:	d118      	bne.n	8006dfc <prvInsertBlockIntoFreeList+0x88>
	{
		if( pxIterator->pxNextFreeBlock != pxEnd )
 8006dca:	68fb      	ldr	r3, [r7, #12]
 8006dcc:	681a      	ldr	r2, [r3, #0]
 8006dce:	4b14      	ldr	r3, [pc, #80]	; (8006e20 <prvInsertBlockIntoFreeList+0xac>)
 8006dd0:	681b      	ldr	r3, [r3, #0]
 8006dd2:	429a      	cmp	r2, r3
 8006dd4:	d00d      	beq.n	8006df2 <prvInsertBlockIntoFreeList+0x7e>
		{
			/* Form one big block from the two blocks. */
			pxBlockToInsert->xBlockSize += pxIterator->pxNextFreeBlock->xBlockSize;
 8006dd6:	687b      	ldr	r3, [r7, #4]
 8006dd8:	685a      	ldr	r2, [r3, #4]
 8006dda:	68fb      	ldr	r3, [r7, #12]
 8006ddc:	681b      	ldr	r3, [r3, #0]
 8006dde:	685b      	ldr	r3, [r3, #4]
 8006de0:	441a      	add	r2, r3
 8006de2:	687b      	ldr	r3, [r7, #4]
 8006de4:	605a      	str	r2, [r3, #4]
			pxBlockToInsert->pxNextFreeBlock = pxIterator->pxNextFreeBlock->pxNextFreeBlock;
 8006de6:	68fb      	ldr	r3, [r7, #12]
 8006de8:	681b      	ldr	r3, [r3, #0]
 8006dea:	681a      	ldr	r2, [r3, #0]
 8006dec:	687b      	ldr	r3, [r7, #4]
 8006dee:	601a      	str	r2, [r3, #0]
 8006df0:	e008      	b.n	8006e04 <prvInsertBlockIntoFreeList+0x90>
		}
		else
		{
			pxBlockToInsert->pxNextFreeBlock = pxEnd;
 8006df2:	4b0b      	ldr	r3, [pc, #44]	; (8006e20 <prvInsertBlockIntoFreeList+0xac>)
 8006df4:	681a      	ldr	r2, [r3, #0]
 8006df6:	687b      	ldr	r3, [r7, #4]
 8006df8:	601a      	str	r2, [r3, #0]
 8006dfa:	e003      	b.n	8006e04 <prvInsertBlockIntoFreeList+0x90>
		}
	}
	else
	{
		pxBlockToInsert->pxNextFreeBlock = pxIterator->pxNextFreeBlock;
 8006dfc:	68fb      	ldr	r3, [r7, #12]
 8006dfe:	681a      	ldr	r2, [r3, #0]
 8006e00:	687b      	ldr	r3, [r7, #4]
 8006e02:	601a      	str	r2, [r3, #0]

	/* If the block being inserted plugged a gab, so was merged with the block
	before and the block after, then it's pxNextFreeBlock pointer will have
	already been set, and should not be set here as that would make it point
	to itself. */
	if( pxIterator != pxBlockToInsert )
 8006e04:	68fa      	ldr	r2, [r7, #12]
 8006e06:	687b      	ldr	r3, [r7, #4]
 8006e08:	429a      	cmp	r2, r3
 8006e0a:	d002      	beq.n	8006e12 <prvInsertBlockIntoFreeList+0x9e>
	{
		pxIterator->pxNextFreeBlock = pxBlockToInsert;
 8006e0c:	68fb      	ldr	r3, [r7, #12]
 8006e0e:	687a      	ldr	r2, [r7, #4]
 8006e10:	601a      	str	r2, [r3, #0]
	}
	else
	{
		mtCOVERAGE_TEST_MARKER();
	}
}
 8006e12:	bf00      	nop
 8006e14:	3714      	adds	r7, #20
 8006e16:	46bd      	mov	sp, r7
 8006e18:	bc80      	pop	{r7}
 8006e1a:	4770      	bx	lr
 8006e1c:	20001bc4 	.word	0x20001bc4
 8006e20:	20001bcc 	.word	0x20001bcc

08006e24 <SYSVIEW_AddTask>:
*       SYSVIEW_AddTask()
*
*  Function description
*    Add a task to the internal list and record its information.
*/
void SYSVIEW_AddTask(U32 xHandle, const char* pcTaskName, unsigned uxCurrentPriority, U32  pxStack, unsigned uStackHighWaterMark) {
 8006e24:	b580      	push	{r7, lr}
 8006e26:	b086      	sub	sp, #24
 8006e28:	af02      	add	r7, sp, #8
 8006e2a:	60f8      	str	r0, [r7, #12]
 8006e2c:	60b9      	str	r1, [r7, #8]
 8006e2e:	607a      	str	r2, [r7, #4]
 8006e30:	603b      	str	r3, [r7, #0]
  
  if (memcmp(pcTaskName, "IDLE", 5) == 0) {
 8006e32:	2205      	movs	r2, #5
 8006e34:	492b      	ldr	r1, [pc, #172]	; (8006ee4 <SYSVIEW_AddTask+0xc0>)
 8006e36:	68b8      	ldr	r0, [r7, #8]
 8006e38:	f001 fb22 	bl	8008480 <memcmp>
 8006e3c:	4603      	mov	r3, r0
 8006e3e:	2b00      	cmp	r3, #0
 8006e40:	d04b      	beq.n	8006eda <SYSVIEW_AddTask+0xb6>
    return;
  }
  
  if (_NumTasks >= SYSVIEW_FREERTOS_MAX_NOF_TASKS) {
 8006e42:	4b29      	ldr	r3, [pc, #164]	; (8006ee8 <SYSVIEW_AddTask+0xc4>)
 8006e44:	681b      	ldr	r3, [r3, #0]
 8006e46:	2b07      	cmp	r3, #7
 8006e48:	d903      	bls.n	8006e52 <SYSVIEW_AddTask+0x2e>
    SEGGER_SYSVIEW_Warn("SYSTEMVIEW: Could not record task information. Maximum number of tasks reached.");
 8006e4a:	4828      	ldr	r0, [pc, #160]	; (8006eec <SYSVIEW_AddTask+0xc8>)
 8006e4c:	f001 fa98 	bl	8008380 <SEGGER_SYSVIEW_Warn>
    return;
 8006e50:	e044      	b.n	8006edc <SYSVIEW_AddTask+0xb8>
  }

  _aTasks[_NumTasks].xHandle = xHandle;
 8006e52:	4b25      	ldr	r3, [pc, #148]	; (8006ee8 <SYSVIEW_AddTask+0xc4>)
 8006e54:	681a      	ldr	r2, [r3, #0]
 8006e56:	4926      	ldr	r1, [pc, #152]	; (8006ef0 <SYSVIEW_AddTask+0xcc>)
 8006e58:	4613      	mov	r3, r2
 8006e5a:	009b      	lsls	r3, r3, #2
 8006e5c:	4413      	add	r3, r2
 8006e5e:	009b      	lsls	r3, r3, #2
 8006e60:	440b      	add	r3, r1
 8006e62:	68fa      	ldr	r2, [r7, #12]
 8006e64:	601a      	str	r2, [r3, #0]
  _aTasks[_NumTasks].pcTaskName = pcTaskName;
 8006e66:	4b20      	ldr	r3, [pc, #128]	; (8006ee8 <SYSVIEW_AddTask+0xc4>)
 8006e68:	681a      	ldr	r2, [r3, #0]
 8006e6a:	4921      	ldr	r1, [pc, #132]	; (8006ef0 <SYSVIEW_AddTask+0xcc>)
 8006e6c:	4613      	mov	r3, r2
 8006e6e:	009b      	lsls	r3, r3, #2
 8006e70:	4413      	add	r3, r2
 8006e72:	009b      	lsls	r3, r3, #2
 8006e74:	440b      	add	r3, r1
 8006e76:	3304      	adds	r3, #4
 8006e78:	68ba      	ldr	r2, [r7, #8]
 8006e7a:	601a      	str	r2, [r3, #0]
  _aTasks[_NumTasks].uxCurrentPriority = uxCurrentPriority;
 8006e7c:	4b1a      	ldr	r3, [pc, #104]	; (8006ee8 <SYSVIEW_AddTask+0xc4>)
 8006e7e:	681a      	ldr	r2, [r3, #0]
 8006e80:	491b      	ldr	r1, [pc, #108]	; (8006ef0 <SYSVIEW_AddTask+0xcc>)
 8006e82:	4613      	mov	r3, r2
 8006e84:	009b      	lsls	r3, r3, #2
 8006e86:	4413      	add	r3, r2
 8006e88:	009b      	lsls	r3, r3, #2
 8006e8a:	440b      	add	r3, r1
 8006e8c:	3308      	adds	r3, #8
 8006e8e:	687a      	ldr	r2, [r7, #4]
 8006e90:	601a      	str	r2, [r3, #0]
  _aTasks[_NumTasks].pxStack = pxStack;
 8006e92:	4b15      	ldr	r3, [pc, #84]	; (8006ee8 <SYSVIEW_AddTask+0xc4>)
 8006e94:	681a      	ldr	r2, [r3, #0]
 8006e96:	4916      	ldr	r1, [pc, #88]	; (8006ef0 <SYSVIEW_AddTask+0xcc>)
 8006e98:	4613      	mov	r3, r2
 8006e9a:	009b      	lsls	r3, r3, #2
 8006e9c:	4413      	add	r3, r2
 8006e9e:	009b      	lsls	r3, r3, #2
 8006ea0:	440b      	add	r3, r1
 8006ea2:	330c      	adds	r3, #12
 8006ea4:	683a      	ldr	r2, [r7, #0]
 8006ea6:	601a      	str	r2, [r3, #0]
  _aTasks[_NumTasks].uStackHighWaterMark = uStackHighWaterMark;
 8006ea8:	4b0f      	ldr	r3, [pc, #60]	; (8006ee8 <SYSVIEW_AddTask+0xc4>)
 8006eaa:	681a      	ldr	r2, [r3, #0]
 8006eac:	4910      	ldr	r1, [pc, #64]	; (8006ef0 <SYSVIEW_AddTask+0xcc>)
 8006eae:	4613      	mov	r3, r2
 8006eb0:	009b      	lsls	r3, r3, #2
 8006eb2:	4413      	add	r3, r2
 8006eb4:	009b      	lsls	r3, r3, #2
 8006eb6:	440b      	add	r3, r1
 8006eb8:	3310      	adds	r3, #16
 8006eba:	69ba      	ldr	r2, [r7, #24]
 8006ebc:	601a      	str	r2, [r3, #0]

  _NumTasks++;
 8006ebe:	4b0a      	ldr	r3, [pc, #40]	; (8006ee8 <SYSVIEW_AddTask+0xc4>)
 8006ec0:	681b      	ldr	r3, [r3, #0]
 8006ec2:	3301      	adds	r3, #1
 8006ec4:	4a08      	ldr	r2, [pc, #32]	; (8006ee8 <SYSVIEW_AddTask+0xc4>)
 8006ec6:	6013      	str	r3, [r2, #0]

  SYSVIEW_SendTaskInfo(xHandle, pcTaskName,uxCurrentPriority, pxStack, uStackHighWaterMark);
 8006ec8:	69bb      	ldr	r3, [r7, #24]
 8006eca:	9300      	str	r3, [sp, #0]
 8006ecc:	683b      	ldr	r3, [r7, #0]
 8006ece:	687a      	ldr	r2, [r7, #4]
 8006ed0:	68b9      	ldr	r1, [r7, #8]
 8006ed2:	68f8      	ldr	r0, [r7, #12]
 8006ed4:	f000 f8ca 	bl	800706c <SYSVIEW_SendTaskInfo>
 8006ed8:	e000      	b.n	8006edc <SYSVIEW_AddTask+0xb8>
    return;
 8006eda:	bf00      	nop

}
 8006edc:	3710      	adds	r7, #16
 8006ede:	46bd      	mov	sp, r7
 8006ee0:	bd80      	pop	{r7, pc}
 8006ee2:	bf00      	nop
 8006ee4:	08008540 	.word	0x08008540
 8006ee8:	20001c7c 	.word	0x20001c7c
 8006eec:	08008548 	.word	0x08008548
 8006ef0:	20001bdc 	.word	0x20001bdc

08006ef4 <SYSVIEW_DeleteTask>:
*       SYSVIEW_DeleteTask()
*
*  Function description
*    Delete a task from the internal list.
*/
void SYSVIEW_DeleteTask(U32 xHandle) {
 8006ef4:	b580      	push	{r7, lr}
 8006ef6:	b084      	sub	sp, #16
 8006ef8:	af00      	add	r7, sp, #0
 8006efa:	6078      	str	r0, [r7, #4]
  unsigned n;
  
  if (_NumTasks == 0) {
 8006efc:	4b59      	ldr	r3, [pc, #356]	; (8007064 <SYSVIEW_DeleteTask+0x170>)
 8006efe:	681b      	ldr	r3, [r3, #0]
 8006f00:	2b00      	cmp	r3, #0
 8006f02:	f000 80ab 	beq.w	800705c <SYSVIEW_DeleteTask+0x168>
    return; // Early out
  }  
  for (n = 0; n < _NumTasks; n++) {
 8006f06:	2300      	movs	r3, #0
 8006f08:	60fb      	str	r3, [r7, #12]
 8006f0a:	e00d      	b.n	8006f28 <SYSVIEW_DeleteTask+0x34>
    if (_aTasks[n].xHandle == xHandle) {
 8006f0c:	4956      	ldr	r1, [pc, #344]	; (8007068 <SYSVIEW_DeleteTask+0x174>)
 8006f0e:	68fa      	ldr	r2, [r7, #12]
 8006f10:	4613      	mov	r3, r2
 8006f12:	009b      	lsls	r3, r3, #2
 8006f14:	4413      	add	r3, r2
 8006f16:	009b      	lsls	r3, r3, #2
 8006f18:	440b      	add	r3, r1
 8006f1a:	681b      	ldr	r3, [r3, #0]
 8006f1c:	687a      	ldr	r2, [r7, #4]
 8006f1e:	429a      	cmp	r2, r3
 8006f20:	d008      	beq.n	8006f34 <SYSVIEW_DeleteTask+0x40>
  for (n = 0; n < _NumTasks; n++) {
 8006f22:	68fb      	ldr	r3, [r7, #12]
 8006f24:	3301      	adds	r3, #1
 8006f26:	60fb      	str	r3, [r7, #12]
 8006f28:	4b4e      	ldr	r3, [pc, #312]	; (8007064 <SYSVIEW_DeleteTask+0x170>)
 8006f2a:	681b      	ldr	r3, [r3, #0]
 8006f2c:	68fa      	ldr	r2, [r7, #12]
 8006f2e:	429a      	cmp	r2, r3
 8006f30:	d3ec      	bcc.n	8006f0c <SYSVIEW_DeleteTask+0x18>
 8006f32:	e000      	b.n	8006f36 <SYSVIEW_DeleteTask+0x42>
      break;
 8006f34:	bf00      	nop
    }
  }
  if (n == (_NumTasks - 1)) {  
 8006f36:	4b4b      	ldr	r3, [pc, #300]	; (8007064 <SYSVIEW_DeleteTask+0x170>)
 8006f38:	681b      	ldr	r3, [r3, #0]
 8006f3a:	3b01      	subs	r3, #1
 8006f3c:	68fa      	ldr	r2, [r7, #12]
 8006f3e:	429a      	cmp	r2, r3
 8006f40:	d111      	bne.n	8006f66 <SYSVIEW_DeleteTask+0x72>
    //
    // Task is last item in list.
    // Simply zero the item and decrement number of tasks.
    //
    memset(&_aTasks[n], 0, sizeof(_aTasks[n]));
 8006f42:	68fa      	ldr	r2, [r7, #12]
 8006f44:	4613      	mov	r3, r2
 8006f46:	009b      	lsls	r3, r3, #2
 8006f48:	4413      	add	r3, r2
 8006f4a:	009b      	lsls	r3, r3, #2
 8006f4c:	4a46      	ldr	r2, [pc, #280]	; (8007068 <SYSVIEW_DeleteTask+0x174>)
 8006f4e:	4413      	add	r3, r2
 8006f50:	2214      	movs	r2, #20
 8006f52:	2100      	movs	r1, #0
 8006f54:	4618      	mov	r0, r3
 8006f56:	f001 faad 	bl	80084b4 <memset>
    _NumTasks--;
 8006f5a:	4b42      	ldr	r3, [pc, #264]	; (8007064 <SYSVIEW_DeleteTask+0x170>)
 8006f5c:	681b      	ldr	r3, [r3, #0]
 8006f5e:	3b01      	subs	r3, #1
 8006f60:	4a40      	ldr	r2, [pc, #256]	; (8007064 <SYSVIEW_DeleteTask+0x170>)
 8006f62:	6013      	str	r3, [r2, #0]
 8006f64:	e07b      	b.n	800705e <SYSVIEW_DeleteTask+0x16a>
  } else if (n < _NumTasks) {
 8006f66:	4b3f      	ldr	r3, [pc, #252]	; (8007064 <SYSVIEW_DeleteTask+0x170>)
 8006f68:	681b      	ldr	r3, [r3, #0]
 8006f6a:	68fa      	ldr	r2, [r7, #12]
 8006f6c:	429a      	cmp	r2, r3
 8006f6e:	d276      	bcs.n	800705e <SYSVIEW_DeleteTask+0x16a>
    //
    // Task is in the middle of the list.
    // Move last item to current position and decrement number of tasks.
    // Order of tasks does not really matter, so no need to move all following items.
    //
    _aTasks[n].xHandle             = _aTasks[_NumTasks - 1].xHandle;
 8006f70:	4b3c      	ldr	r3, [pc, #240]	; (8007064 <SYSVIEW_DeleteTask+0x170>)
 8006f72:	681b      	ldr	r3, [r3, #0]
 8006f74:	1e5a      	subs	r2, r3, #1
 8006f76:	493c      	ldr	r1, [pc, #240]	; (8007068 <SYSVIEW_DeleteTask+0x174>)
 8006f78:	4613      	mov	r3, r2
 8006f7a:	009b      	lsls	r3, r3, #2
 8006f7c:	4413      	add	r3, r2
 8006f7e:	009b      	lsls	r3, r3, #2
 8006f80:	440b      	add	r3, r1
 8006f82:	6819      	ldr	r1, [r3, #0]
 8006f84:	4838      	ldr	r0, [pc, #224]	; (8007068 <SYSVIEW_DeleteTask+0x174>)
 8006f86:	68fa      	ldr	r2, [r7, #12]
 8006f88:	4613      	mov	r3, r2
 8006f8a:	009b      	lsls	r3, r3, #2
 8006f8c:	4413      	add	r3, r2
 8006f8e:	009b      	lsls	r3, r3, #2
 8006f90:	4403      	add	r3, r0
 8006f92:	6019      	str	r1, [r3, #0]
    _aTasks[n].pcTaskName          = _aTasks[_NumTasks - 1].pcTaskName;
 8006f94:	4b33      	ldr	r3, [pc, #204]	; (8007064 <SYSVIEW_DeleteTask+0x170>)
 8006f96:	681b      	ldr	r3, [r3, #0]
 8006f98:	1e5a      	subs	r2, r3, #1
 8006f9a:	4933      	ldr	r1, [pc, #204]	; (8007068 <SYSVIEW_DeleteTask+0x174>)
 8006f9c:	4613      	mov	r3, r2
 8006f9e:	009b      	lsls	r3, r3, #2
 8006fa0:	4413      	add	r3, r2
 8006fa2:	009b      	lsls	r3, r3, #2
 8006fa4:	440b      	add	r3, r1
 8006fa6:	3304      	adds	r3, #4
 8006fa8:	6819      	ldr	r1, [r3, #0]
 8006faa:	482f      	ldr	r0, [pc, #188]	; (8007068 <SYSVIEW_DeleteTask+0x174>)
 8006fac:	68fa      	ldr	r2, [r7, #12]
 8006fae:	4613      	mov	r3, r2
 8006fb0:	009b      	lsls	r3, r3, #2
 8006fb2:	4413      	add	r3, r2
 8006fb4:	009b      	lsls	r3, r3, #2
 8006fb6:	4403      	add	r3, r0
 8006fb8:	3304      	adds	r3, #4
 8006fba:	6019      	str	r1, [r3, #0]
    _aTasks[n].uxCurrentPriority   = _aTasks[_NumTasks - 1].uxCurrentPriority;
 8006fbc:	4b29      	ldr	r3, [pc, #164]	; (8007064 <SYSVIEW_DeleteTask+0x170>)
 8006fbe:	681b      	ldr	r3, [r3, #0]
 8006fc0:	1e5a      	subs	r2, r3, #1
 8006fc2:	4929      	ldr	r1, [pc, #164]	; (8007068 <SYSVIEW_DeleteTask+0x174>)
 8006fc4:	4613      	mov	r3, r2
 8006fc6:	009b      	lsls	r3, r3, #2
 8006fc8:	4413      	add	r3, r2
 8006fca:	009b      	lsls	r3, r3, #2
 8006fcc:	440b      	add	r3, r1
 8006fce:	3308      	adds	r3, #8
 8006fd0:	6819      	ldr	r1, [r3, #0]
 8006fd2:	4825      	ldr	r0, [pc, #148]	; (8007068 <SYSVIEW_DeleteTask+0x174>)
 8006fd4:	68fa      	ldr	r2, [r7, #12]
 8006fd6:	4613      	mov	r3, r2
 8006fd8:	009b      	lsls	r3, r3, #2
 8006fda:	4413      	add	r3, r2
 8006fdc:	009b      	lsls	r3, r3, #2
 8006fde:	4403      	add	r3, r0
 8006fe0:	3308      	adds	r3, #8
 8006fe2:	6019      	str	r1, [r3, #0]
    _aTasks[n].pxStack             = _aTasks[_NumTasks - 1].pxStack;
 8006fe4:	4b1f      	ldr	r3, [pc, #124]	; (8007064 <SYSVIEW_DeleteTask+0x170>)
 8006fe6:	681b      	ldr	r3, [r3, #0]
 8006fe8:	1e5a      	subs	r2, r3, #1
 8006fea:	491f      	ldr	r1, [pc, #124]	; (8007068 <SYSVIEW_DeleteTask+0x174>)
 8006fec:	4613      	mov	r3, r2
 8006fee:	009b      	lsls	r3, r3, #2
 8006ff0:	4413      	add	r3, r2
 8006ff2:	009b      	lsls	r3, r3, #2
 8006ff4:	440b      	add	r3, r1
 8006ff6:	330c      	adds	r3, #12
 8006ff8:	6819      	ldr	r1, [r3, #0]
 8006ffa:	481b      	ldr	r0, [pc, #108]	; (8007068 <SYSVIEW_DeleteTask+0x174>)
 8006ffc:	68fa      	ldr	r2, [r7, #12]
 8006ffe:	4613      	mov	r3, r2
 8007000:	009b      	lsls	r3, r3, #2
 8007002:	4413      	add	r3, r2
 8007004:	009b      	lsls	r3, r3, #2
 8007006:	4403      	add	r3, r0
 8007008:	330c      	adds	r3, #12
 800700a:	6019      	str	r1, [r3, #0]
    _aTasks[n].uStackHighWaterMark = _aTasks[_NumTasks - 1].uStackHighWaterMark;
 800700c:	4b15      	ldr	r3, [pc, #84]	; (8007064 <SYSVIEW_DeleteTask+0x170>)
 800700e:	681b      	ldr	r3, [r3, #0]
 8007010:	1e5a      	subs	r2, r3, #1
 8007012:	4915      	ldr	r1, [pc, #84]	; (8007068 <SYSVIEW_DeleteTask+0x174>)
 8007014:	4613      	mov	r3, r2
 8007016:	009b      	lsls	r3, r3, #2
 8007018:	4413      	add	r3, r2
 800701a:	009b      	lsls	r3, r3, #2
 800701c:	440b      	add	r3, r1
 800701e:	3310      	adds	r3, #16
 8007020:	6819      	ldr	r1, [r3, #0]
 8007022:	4811      	ldr	r0, [pc, #68]	; (8007068 <SYSVIEW_DeleteTask+0x174>)
 8007024:	68fa      	ldr	r2, [r7, #12]
 8007026:	4613      	mov	r3, r2
 8007028:	009b      	lsls	r3, r3, #2
 800702a:	4413      	add	r3, r2
 800702c:	009b      	lsls	r3, r3, #2
 800702e:	4403      	add	r3, r0
 8007030:	3310      	adds	r3, #16
 8007032:	6019      	str	r1, [r3, #0]
    memset(&_aTasks[_NumTasks - 1], 0, sizeof(_aTasks[_NumTasks - 1]));
 8007034:	4b0b      	ldr	r3, [pc, #44]	; (8007064 <SYSVIEW_DeleteTask+0x170>)
 8007036:	681b      	ldr	r3, [r3, #0]
 8007038:	1e5a      	subs	r2, r3, #1
 800703a:	4613      	mov	r3, r2
 800703c:	009b      	lsls	r3, r3, #2
 800703e:	4413      	add	r3, r2
 8007040:	009b      	lsls	r3, r3, #2
 8007042:	4a09      	ldr	r2, [pc, #36]	; (8007068 <SYSVIEW_DeleteTask+0x174>)
 8007044:	4413      	add	r3, r2
 8007046:	2214      	movs	r2, #20
 8007048:	2100      	movs	r1, #0
 800704a:	4618      	mov	r0, r3
 800704c:	f001 fa32 	bl	80084b4 <memset>
    _NumTasks--;
 8007050:	4b04      	ldr	r3, [pc, #16]	; (8007064 <SYSVIEW_DeleteTask+0x170>)
 8007052:	681b      	ldr	r3, [r3, #0]
 8007054:	3b01      	subs	r3, #1
 8007056:	4a03      	ldr	r2, [pc, #12]	; (8007064 <SYSVIEW_DeleteTask+0x170>)
 8007058:	6013      	str	r3, [r2, #0]
 800705a:	e000      	b.n	800705e <SYSVIEW_DeleteTask+0x16a>
    return; // Early out
 800705c:	bf00      	nop
  }
}
 800705e:	3710      	adds	r7, #16
 8007060:	46bd      	mov	sp, r7
 8007062:	bd80      	pop	{r7, pc}
 8007064:	20001c7c 	.word	0x20001c7c
 8007068:	20001bdc 	.word	0x20001bdc

0800706c <SYSVIEW_SendTaskInfo>:
*       SYSVIEW_SendTaskInfo()
*
*  Function description
*    Record task information.
*/
void SYSVIEW_SendTaskInfo(U32 TaskID, const char* sName, unsigned Prio, U32 StackBase, unsigned StackSize) {
 800706c:	b580      	push	{r7, lr}
 800706e:	b08a      	sub	sp, #40	; 0x28
 8007070:	af00      	add	r7, sp, #0
 8007072:	60f8      	str	r0, [r7, #12]
 8007074:	60b9      	str	r1, [r7, #8]
 8007076:	607a      	str	r2, [r7, #4]
 8007078:	603b      	str	r3, [r7, #0]
  SEGGER_SYSVIEW_TASKINFO TaskInfo;

  memset(&TaskInfo, 0, sizeof(TaskInfo)); // Fill all elements with 0 to allow extending the structure in future version without breaking the code
 800707a:	f107 0314 	add.w	r3, r7, #20
 800707e:	2214      	movs	r2, #20
 8007080:	2100      	movs	r1, #0
 8007082:	4618      	mov	r0, r3
 8007084:	f001 fa16 	bl	80084b4 <memset>
  TaskInfo.TaskID     = TaskID;
 8007088:	68fb      	ldr	r3, [r7, #12]
 800708a:	617b      	str	r3, [r7, #20]
  TaskInfo.sName      = sName;
 800708c:	68bb      	ldr	r3, [r7, #8]
 800708e:	61bb      	str	r3, [r7, #24]
  TaskInfo.Prio       = Prio;
 8007090:	687b      	ldr	r3, [r7, #4]
 8007092:	61fb      	str	r3, [r7, #28]
  TaskInfo.StackBase  = StackBase;
 8007094:	683b      	ldr	r3, [r7, #0]
 8007096:	623b      	str	r3, [r7, #32]
  TaskInfo.StackSize  = StackSize;
 8007098:	6b3b      	ldr	r3, [r7, #48]	; 0x30
 800709a:	627b      	str	r3, [r7, #36]	; 0x24
  SEGGER_SYSVIEW_SendTaskInfo(&TaskInfo);
 800709c:	f107 0314 	add.w	r3, r7, #20
 80070a0:	4618      	mov	r0, r3
 80070a2:	f000 fd9d 	bl	8007be0 <SEGGER_SYSVIEW_SendTaskInfo>
}
 80070a6:	bf00      	nop
 80070a8:	3728      	adds	r7, #40	; 0x28
 80070aa:	46bd      	mov	sp, r7
 80070ac:	bd80      	pop	{r7, pc}
	...

080070b0 <_DoInit>:
                      _DoInit();                                                                     \
                    }                                                                                \
                  } while (0);                                                                       \
                }

static void _DoInit(void) {
 80070b0:	b480      	push	{r7}
 80070b2:	b083      	sub	sp, #12
 80070b4:	af00      	add	r7, sp, #0
  volatile SEGGER_RTT_CB* p;   // Volatile to make sure that compiler cannot change the order of accesses to the control block
  //
  // Initialize control block
  //
  p                     = (volatile SEGGER_RTT_CB*)((char*)&_SEGGER_RTT + SEGGER_RTT_UNCACHED_OFF);  // Access control block uncached so that nothing in the cache ever becomes dirty and all changes are visible in HW directly
 80070b6:	4b21      	ldr	r3, [pc, #132]	; (800713c <_DoInit+0x8c>)
 80070b8:	607b      	str	r3, [r7, #4]
  p->MaxNumUpBuffers    = SEGGER_RTT_MAX_NUM_UP_BUFFERS;
 80070ba:	687b      	ldr	r3, [r7, #4]
 80070bc:	2203      	movs	r2, #3
 80070be:	611a      	str	r2, [r3, #16]
  p->MaxNumDownBuffers  = SEGGER_RTT_MAX_NUM_DOWN_BUFFERS;
 80070c0:	687b      	ldr	r3, [r7, #4]
 80070c2:	2203      	movs	r2, #3
 80070c4:	615a      	str	r2, [r3, #20]
  //
  // Initialize up buffer 0
  //
  p->aUp[0].sName         = "Terminal";
 80070c6:	687b      	ldr	r3, [r7, #4]
 80070c8:	4a1d      	ldr	r2, [pc, #116]	; (8007140 <_DoInit+0x90>)
 80070ca:	619a      	str	r2, [r3, #24]
  p->aUp[0].pBuffer       = _acUpBuffer;
 80070cc:	687b      	ldr	r3, [r7, #4]
 80070ce:	4a1d      	ldr	r2, [pc, #116]	; (8007144 <_DoInit+0x94>)
 80070d0:	61da      	str	r2, [r3, #28]
  p->aUp[0].SizeOfBuffer  = BUFFER_SIZE_UP;
 80070d2:	687b      	ldr	r3, [r7, #4]
 80070d4:	f44f 6280 	mov.w	r2, #1024	; 0x400
 80070d8:	621a      	str	r2, [r3, #32]
  p->aUp[0].RdOff         = 0u;
 80070da:	687b      	ldr	r3, [r7, #4]
 80070dc:	2200      	movs	r2, #0
 80070de:	629a      	str	r2, [r3, #40]	; 0x28
  p->aUp[0].WrOff         = 0u;
 80070e0:	687b      	ldr	r3, [r7, #4]
 80070e2:	2200      	movs	r2, #0
 80070e4:	625a      	str	r2, [r3, #36]	; 0x24
  p->aUp[0].Flags         = SEGGER_RTT_MODE_DEFAULT;
 80070e6:	687b      	ldr	r3, [r7, #4]
 80070e8:	2200      	movs	r2, #0
 80070ea:	62da      	str	r2, [r3, #44]	; 0x2c
  //
  // Initialize down buffer 0
  //
  p->aDown[0].sName         = "Terminal";
 80070ec:	687b      	ldr	r3, [r7, #4]
 80070ee:	4a14      	ldr	r2, [pc, #80]	; (8007140 <_DoInit+0x90>)
 80070f0:	661a      	str	r2, [r3, #96]	; 0x60
  p->aDown[0].pBuffer       = _acDownBuffer;
 80070f2:	687b      	ldr	r3, [r7, #4]
 80070f4:	4a14      	ldr	r2, [pc, #80]	; (8007148 <_DoInit+0x98>)
 80070f6:	665a      	str	r2, [r3, #100]	; 0x64
  p->aDown[0].SizeOfBuffer  = BUFFER_SIZE_DOWN;
 80070f8:	687b      	ldr	r3, [r7, #4]
 80070fa:	2210      	movs	r2, #16
 80070fc:	669a      	str	r2, [r3, #104]	; 0x68
  p->aDown[0].RdOff         = 0u;
 80070fe:	687b      	ldr	r3, [r7, #4]
 8007100:	2200      	movs	r2, #0
 8007102:	671a      	str	r2, [r3, #112]	; 0x70
  p->aDown[0].WrOff         = 0u;
 8007104:	687b      	ldr	r3, [r7, #4]
 8007106:	2200      	movs	r2, #0
 8007108:	66da      	str	r2, [r3, #108]	; 0x6c
  p->aDown[0].Flags         = SEGGER_RTT_MODE_DEFAULT;
 800710a:	687b      	ldr	r3, [r7, #4]
 800710c:	2200      	movs	r2, #0
 800710e:	675a      	str	r2, [r3, #116]	; 0x74
  //
  // Finish initialization of the control block.
  // Copy Id string in three steps to make sure "SEGGER RTT" is not found
  // in initializer memory (usually flash) by J-Link
  //
  STRCPY((char*)&p->acID[7], "RTT");
 8007110:	687b      	ldr	r3, [r7, #4]
 8007112:	3307      	adds	r3, #7
 8007114:	4a0d      	ldr	r2, [pc, #52]	; (800714c <_DoInit+0x9c>)
 8007116:	6810      	ldr	r0, [r2, #0]
 8007118:	6018      	str	r0, [r3, #0]
  RTT__DMB();                       // Force order of memory accessed inside core for cores that allow to change the order
  STRCPY((char*)&p->acID[0], "SEGGER");
 800711a:	687b      	ldr	r3, [r7, #4]
 800711c:	4a0c      	ldr	r2, [pc, #48]	; (8007150 <_DoInit+0xa0>)
 800711e:	6810      	ldr	r0, [r2, #0]
 8007120:	6018      	str	r0, [r3, #0]
 8007122:	8891      	ldrh	r1, [r2, #4]
 8007124:	7992      	ldrb	r2, [r2, #6]
 8007126:	8099      	strh	r1, [r3, #4]
 8007128:	719a      	strb	r2, [r3, #6]
  RTT__DMB();                       // Force order of memory accessed inside core for cores that allow to change the order
  p->acID[6] = ' ';
 800712a:	687b      	ldr	r3, [r7, #4]
 800712c:	2220      	movs	r2, #32
 800712e:	719a      	strb	r2, [r3, #6]
  RTT__DMB();                       // Force order of memory accessed inside core for cores that allow to change the order
}
 8007130:	bf00      	nop
 8007132:	370c      	adds	r7, #12
 8007134:	46bd      	mov	sp, r7
 8007136:	bc80      	pop	{r7}
 8007138:	4770      	bx	lr
 800713a:	bf00      	nop
 800713c:	2000230c 	.word	0x2000230c
 8007140:	08008598 	.word	0x08008598
 8007144:	20001c80 	.word	0x20001c80
 8007148:	20002080 	.word	0x20002080
 800714c:	080085a4 	.word	0x080085a4
 8007150:	080085a8 	.word	0x080085a8

08007154 <SEGGER_RTT_ReadNoLock>:
*    BufferSize   Size of the target application buffer.
*
*  Return value
*    Number of bytes that have been read.
*/
unsigned SEGGER_RTT_ReadNoLock(unsigned BufferIndex, void* pData, unsigned BufferSize) {
 8007154:	b580      	push	{r7, lr}
 8007156:	b08c      	sub	sp, #48	; 0x30
 8007158:	af00      	add	r7, sp, #0
 800715a:	60f8      	str	r0, [r7, #12]
 800715c:	60b9      	str	r1, [r7, #8]
 800715e:	607a      	str	r2, [r7, #4]
  unsigned                WrOff;
  unsigned char*          pBuffer;
  SEGGER_RTT_BUFFER_DOWN* pRing;
  volatile char*          pSrc;
  //
  INIT();
 8007160:	4b3e      	ldr	r3, [pc, #248]	; (800725c <SEGGER_RTT_ReadNoLock+0x108>)
 8007162:	623b      	str	r3, [r7, #32]
 8007164:	6a3b      	ldr	r3, [r7, #32]
 8007166:	781b      	ldrb	r3, [r3, #0]
 8007168:	b2db      	uxtb	r3, r3
 800716a:	2b00      	cmp	r3, #0
 800716c:	d101      	bne.n	8007172 <SEGGER_RTT_ReadNoLock+0x1e>
 800716e:	f7ff ff9f 	bl	80070b0 <_DoInit>
  pRing = (SEGGER_RTT_BUFFER_DOWN*)((char*)&_SEGGER_RTT.aDown[BufferIndex] + SEGGER_RTT_UNCACHED_OFF);  // Access uncached to make sure we see changes made by the J-Link side and all of our changes go into HW directly
 8007172:	68fa      	ldr	r2, [r7, #12]
 8007174:	4613      	mov	r3, r2
 8007176:	005b      	lsls	r3, r3, #1
 8007178:	4413      	add	r3, r2
 800717a:	00db      	lsls	r3, r3, #3
 800717c:	3360      	adds	r3, #96	; 0x60
 800717e:	4a37      	ldr	r2, [pc, #220]	; (800725c <SEGGER_RTT_ReadNoLock+0x108>)
 8007180:	4413      	add	r3, r2
 8007182:	61fb      	str	r3, [r7, #28]
  pBuffer = (unsigned char*)pData;
 8007184:	68bb      	ldr	r3, [r7, #8]
 8007186:	627b      	str	r3, [r7, #36]	; 0x24
  RdOff = pRing->RdOff;
 8007188:	69fb      	ldr	r3, [r7, #28]
 800718a:	691b      	ldr	r3, [r3, #16]
 800718c:	62bb      	str	r3, [r7, #40]	; 0x28
  WrOff = pRing->WrOff;
 800718e:	69fb      	ldr	r3, [r7, #28]
 8007190:	68db      	ldr	r3, [r3, #12]
 8007192:	61bb      	str	r3, [r7, #24]
  NumBytesRead = 0u;
 8007194:	2300      	movs	r3, #0
 8007196:	62fb      	str	r3, [r7, #44]	; 0x2c
  //
  // Read from current read position to wrap-around of buffer, first
  //
  if (RdOff > WrOff) {
 8007198:	6aba      	ldr	r2, [r7, #40]	; 0x28
 800719a:	69bb      	ldr	r3, [r7, #24]
 800719c:	429a      	cmp	r2, r3
 800719e:	d92b      	bls.n	80071f8 <SEGGER_RTT_ReadNoLock+0xa4>
    NumBytesRem = pRing->SizeOfBuffer - RdOff;
 80071a0:	69fb      	ldr	r3, [r7, #28]
 80071a2:	689a      	ldr	r2, [r3, #8]
 80071a4:	6abb      	ldr	r3, [r7, #40]	; 0x28
 80071a6:	1ad3      	subs	r3, r2, r3
 80071a8:	617b      	str	r3, [r7, #20]
    NumBytesRem = MIN(NumBytesRem, BufferSize);
 80071aa:	697a      	ldr	r2, [r7, #20]
 80071ac:	687b      	ldr	r3, [r7, #4]
 80071ae:	4293      	cmp	r3, r2
 80071b0:	bf28      	it	cs
 80071b2:	4613      	movcs	r3, r2
 80071b4:	617b      	str	r3, [r7, #20]
    pSrc = (pRing->pBuffer + RdOff) + SEGGER_RTT_UNCACHED_OFF;
 80071b6:	69fb      	ldr	r3, [r7, #28]
 80071b8:	685a      	ldr	r2, [r3, #4]
 80071ba:	6abb      	ldr	r3, [r7, #40]	; 0x28
 80071bc:	4413      	add	r3, r2
 80071be:	613b      	str	r3, [r7, #16]
    RdOff        += NumBytesRem;
    while (NumBytesRem--) {
      *pBuffer++ = *pSrc++;
    };
#else
    SEGGER_RTT_MEMCPY(pBuffer, (void*)pSrc, NumBytesRem);
 80071c0:	697a      	ldr	r2, [r7, #20]
 80071c2:	6939      	ldr	r1, [r7, #16]
 80071c4:	6a78      	ldr	r0, [r7, #36]	; 0x24
 80071c6:	f001 f96a 	bl	800849e <memcpy>
    NumBytesRead += NumBytesRem;
 80071ca:	6afa      	ldr	r2, [r7, #44]	; 0x2c
 80071cc:	697b      	ldr	r3, [r7, #20]
 80071ce:	4413      	add	r3, r2
 80071d0:	62fb      	str	r3, [r7, #44]	; 0x2c
    pBuffer      += NumBytesRem;
 80071d2:	6a7a      	ldr	r2, [r7, #36]	; 0x24
 80071d4:	697b      	ldr	r3, [r7, #20]
 80071d6:	4413      	add	r3, r2
 80071d8:	627b      	str	r3, [r7, #36]	; 0x24
    BufferSize   -= NumBytesRem;
 80071da:	687a      	ldr	r2, [r7, #4]
 80071dc:	697b      	ldr	r3, [r7, #20]
 80071de:	1ad3      	subs	r3, r2, r3
 80071e0:	607b      	str	r3, [r7, #4]
    RdOff        += NumBytesRem;
 80071e2:	6aba      	ldr	r2, [r7, #40]	; 0x28
 80071e4:	697b      	ldr	r3, [r7, #20]
 80071e6:	4413      	add	r3, r2
 80071e8:	62bb      	str	r3, [r7, #40]	; 0x28
#endif
    //
    // Handle wrap-around of buffer
    //
    if (RdOff == pRing->SizeOfBuffer) {
 80071ea:	69fb      	ldr	r3, [r7, #28]
 80071ec:	689b      	ldr	r3, [r3, #8]
 80071ee:	6aba      	ldr	r2, [r7, #40]	; 0x28
 80071f0:	429a      	cmp	r2, r3
 80071f2:	d101      	bne.n	80071f8 <SEGGER_RTT_ReadNoLock+0xa4>
      RdOff = 0u;
 80071f4:	2300      	movs	r3, #0
 80071f6:	62bb      	str	r3, [r7, #40]	; 0x28
    }
  }
  //
  // Read remaining items of buffer
  //
  NumBytesRem = WrOff - RdOff;
 80071f8:	69ba      	ldr	r2, [r7, #24]
 80071fa:	6abb      	ldr	r3, [r7, #40]	; 0x28
 80071fc:	1ad3      	subs	r3, r2, r3
 80071fe:	617b      	str	r3, [r7, #20]
  NumBytesRem = MIN(NumBytesRem, BufferSize);
 8007200:	697a      	ldr	r2, [r7, #20]
 8007202:	687b      	ldr	r3, [r7, #4]
 8007204:	4293      	cmp	r3, r2
 8007206:	bf28      	it	cs
 8007208:	4613      	movcs	r3, r2
 800720a:	617b      	str	r3, [r7, #20]
  if (NumBytesRem > 0u) {
 800720c:	697b      	ldr	r3, [r7, #20]
 800720e:	2b00      	cmp	r3, #0
 8007210:	d019      	beq.n	8007246 <SEGGER_RTT_ReadNoLock+0xf2>
    pSrc = (pRing->pBuffer + RdOff) + SEGGER_RTT_UNCACHED_OFF;
 8007212:	69fb      	ldr	r3, [r7, #28]
 8007214:	685a      	ldr	r2, [r3, #4]
 8007216:	6abb      	ldr	r3, [r7, #40]	; 0x28
 8007218:	4413      	add	r3, r2
 800721a:	613b      	str	r3, [r7, #16]
    RdOff        += NumBytesRem;
    while (NumBytesRem--) {
      *pBuffer++ = *pSrc++;
    };
#else
    SEGGER_RTT_MEMCPY(pBuffer, (void*)pSrc, NumBytesRem);
 800721c:	697a      	ldr	r2, [r7, #20]
 800721e:	6939      	ldr	r1, [r7, #16]
 8007220:	6a78      	ldr	r0, [r7, #36]	; 0x24
 8007222:	f001 f93c 	bl	800849e <memcpy>
    NumBytesRead += NumBytesRem;
 8007226:	6afa      	ldr	r2, [r7, #44]	; 0x2c
 8007228:	697b      	ldr	r3, [r7, #20]
 800722a:	4413      	add	r3, r2
 800722c:	62fb      	str	r3, [r7, #44]	; 0x2c
    pBuffer      += NumBytesRem;
 800722e:	6a7a      	ldr	r2, [r7, #36]	; 0x24
 8007230:	697b      	ldr	r3, [r7, #20]
 8007232:	4413      	add	r3, r2
 8007234:	627b      	str	r3, [r7, #36]	; 0x24
    BufferSize   -= NumBytesRem;
 8007236:	687a      	ldr	r2, [r7, #4]
 8007238:	697b      	ldr	r3, [r7, #20]
 800723a:	1ad3      	subs	r3, r2, r3
 800723c:	607b      	str	r3, [r7, #4]
    RdOff        += NumBytesRem;
 800723e:	6aba      	ldr	r2, [r7, #40]	; 0x28
 8007240:	697b      	ldr	r3, [r7, #20]
 8007242:	4413      	add	r3, r2
 8007244:	62bb      	str	r3, [r7, #40]	; 0x28
#endif
  }
  if (NumBytesRead) {
 8007246:	6afb      	ldr	r3, [r7, #44]	; 0x2c
 8007248:	2b00      	cmp	r3, #0
 800724a:	d002      	beq.n	8007252 <SEGGER_RTT_ReadNoLock+0xfe>
    pRing->RdOff = RdOff;
 800724c:	69fb      	ldr	r3, [r7, #28]
 800724e:	6aba      	ldr	r2, [r7, #40]	; 0x28
 8007250:	611a      	str	r2, [r3, #16]
  }
  //
  return NumBytesRead;
 8007252:	6afb      	ldr	r3, [r7, #44]	; 0x2c
}
 8007254:	4618      	mov	r0, r3
 8007256:	3730      	adds	r7, #48	; 0x30
 8007258:	46bd      	mov	sp, r7
 800725a:	bd80      	pop	{r7, pc}
 800725c:	2000230c 	.word	0x2000230c

08007260 <_EncodeStr>:
*  Additional information
*    The string is encoded as a count byte followed by the contents
*    of the string.
*    No more than 1 + Limit bytes will be encoded to the payload.
*/
static U8 *_EncodeStr(U8 *pPayload, const char *pText, unsigned int Limit) {
 8007260:	b480      	push	{r7}
 8007262:	b087      	sub	sp, #28
 8007264:	af00      	add	r7, sp, #0
 8007266:	60f8      	str	r0, [r7, #12]
 8007268:	60b9      	str	r1, [r7, #8]
 800726a:	607a      	str	r2, [r7, #4]
  unsigned int n;
  unsigned int Len;
  //
  // Compute string len
  //
  Len = 0;
 800726c:	2300      	movs	r3, #0
 800726e:	613b      	str	r3, [r7, #16]
  while(*(pText + Len) != 0) {
 8007270:	e002      	b.n	8007278 <_EncodeStr+0x18>
    Len++;
 8007272:	693b      	ldr	r3, [r7, #16]
 8007274:	3301      	adds	r3, #1
 8007276:	613b      	str	r3, [r7, #16]
  while(*(pText + Len) != 0) {
 8007278:	68ba      	ldr	r2, [r7, #8]
 800727a:	693b      	ldr	r3, [r7, #16]
 800727c:	4413      	add	r3, r2
 800727e:	781b      	ldrb	r3, [r3, #0]
 8007280:	2b00      	cmp	r3, #0
 8007282:	d1f6      	bne.n	8007272 <_EncodeStr+0x12>
  }
  if (Len > Limit) {
 8007284:	693a      	ldr	r2, [r7, #16]
 8007286:	687b      	ldr	r3, [r7, #4]
 8007288:	429a      	cmp	r2, r3
 800728a:	d901      	bls.n	8007290 <_EncodeStr+0x30>
    Len = Limit;
 800728c:	687b      	ldr	r3, [r7, #4]
 800728e:	613b      	str	r3, [r7, #16]
  }
  //
  // Write Len
  //
  if (Len < 255)  {
 8007290:	693b      	ldr	r3, [r7, #16]
 8007292:	2bfe      	cmp	r3, #254	; 0xfe
 8007294:	d806      	bhi.n	80072a4 <_EncodeStr+0x44>
    *pPayload++ = Len; 
 8007296:	68fb      	ldr	r3, [r7, #12]
 8007298:	1c5a      	adds	r2, r3, #1
 800729a:	60fa      	str	r2, [r7, #12]
 800729c:	693a      	ldr	r2, [r7, #16]
 800729e:	b2d2      	uxtb	r2, r2
 80072a0:	701a      	strb	r2, [r3, #0]
 80072a2:	e011      	b.n	80072c8 <_EncodeStr+0x68>
  } else {
    *pPayload++ = 255;
 80072a4:	68fb      	ldr	r3, [r7, #12]
 80072a6:	1c5a      	adds	r2, r3, #1
 80072a8:	60fa      	str	r2, [r7, #12]
 80072aa:	22ff      	movs	r2, #255	; 0xff
 80072ac:	701a      	strb	r2, [r3, #0]
    *pPayload++ = (Len & 255);
 80072ae:	68fb      	ldr	r3, [r7, #12]
 80072b0:	1c5a      	adds	r2, r3, #1
 80072b2:	60fa      	str	r2, [r7, #12]
 80072b4:	693a      	ldr	r2, [r7, #16]
 80072b6:	b2d2      	uxtb	r2, r2
 80072b8:	701a      	strb	r2, [r3, #0]
    *pPayload++ = ((Len >> 8) & 255);
 80072ba:	693b      	ldr	r3, [r7, #16]
 80072bc:	0a19      	lsrs	r1, r3, #8
 80072be:	68fb      	ldr	r3, [r7, #12]
 80072c0:	1c5a      	adds	r2, r3, #1
 80072c2:	60fa      	str	r2, [r7, #12]
 80072c4:	b2ca      	uxtb	r2, r1
 80072c6:	701a      	strb	r2, [r3, #0]
  }
  //
  // copy string
  //
  n = 0;
 80072c8:	2300      	movs	r3, #0
 80072ca:	617b      	str	r3, [r7, #20]
  while (n < Len) {
 80072cc:	e00a      	b.n	80072e4 <_EncodeStr+0x84>
    *pPayload++ = *pText++;
 80072ce:	68ba      	ldr	r2, [r7, #8]
 80072d0:	1c53      	adds	r3, r2, #1
 80072d2:	60bb      	str	r3, [r7, #8]
 80072d4:	68fb      	ldr	r3, [r7, #12]
 80072d6:	1c59      	adds	r1, r3, #1
 80072d8:	60f9      	str	r1, [r7, #12]
 80072da:	7812      	ldrb	r2, [r2, #0]
 80072dc:	701a      	strb	r2, [r3, #0]
    n++;
 80072de:	697b      	ldr	r3, [r7, #20]
 80072e0:	3301      	adds	r3, #1
 80072e2:	617b      	str	r3, [r7, #20]
  while (n < Len) {
 80072e4:	697a      	ldr	r2, [r7, #20]
 80072e6:	693b      	ldr	r3, [r7, #16]
 80072e8:	429a      	cmp	r2, r3
 80072ea:	d3f0      	bcc.n	80072ce <_EncodeStr+0x6e>
  }
  return pPayload;
 80072ec:	68fb      	ldr	r3, [r7, #12]
}
 80072ee:	4618      	mov	r0, r3
 80072f0:	371c      	adds	r7, #28
 80072f2:	46bd      	mov	sp, r7
 80072f4:	bc80      	pop	{r7}
 80072f6:	4770      	bx	lr

080072f8 <_PreparePacket>:
*  Additional information
*    The payload length and evnetId are not initialized.
*    PreparePacket only reserves space for them and they are
*    computed and filled in by the sending function.
*/
static U8* _PreparePacket(U8* pPacket) {
 80072f8:	b480      	push	{r7}
 80072fa:	b083      	sub	sp, #12
 80072fc:	af00      	add	r7, sp, #0
 80072fe:	6078      	str	r0, [r7, #4]
  return pPacket + 4;
 8007300:	687b      	ldr	r3, [r7, #4]
 8007302:	3304      	adds	r3, #4
}
 8007304:	4618      	mov	r0, r3
 8007306:	370c      	adds	r7, #12
 8007308:	46bd      	mov	sp, r7
 800730a:	bc80      	pop	{r7}
 800730c:	4770      	bx	lr
	...

08007310 <_HandleIncomingPacket>:
*    This function is called each time after sending a packet.
*    Processing incoming packets is done asynchronous. SystemView might
*    already have sent event packets after the host has sent a command.
*/
#if (SEGGER_SYSVIEW_POST_MORTEM_MODE != 1)
static void _HandleIncomingPacket(void) {
 8007310:	b580      	push	{r7, lr}
 8007312:	b082      	sub	sp, #8
 8007314:	af00      	add	r7, sp, #0
  U8  Cmd;
  int Status;
  //
  Status = SEGGER_RTT_ReadNoLock(CHANNEL_ID_DOWN, &Cmd, 1);
 8007316:	4b33      	ldr	r3, [pc, #204]	; (80073e4 <_HandleIncomingPacket+0xd4>)
 8007318:	7e1b      	ldrb	r3, [r3, #24]
 800731a:	4618      	mov	r0, r3
 800731c:	1cfb      	adds	r3, r7, #3
 800731e:	2201      	movs	r2, #1
 8007320:	4619      	mov	r1, r3
 8007322:	f7ff ff17 	bl	8007154 <SEGGER_RTT_ReadNoLock>
 8007326:	4603      	mov	r3, r0
 8007328:	607b      	str	r3, [r7, #4]
  if (Status > 0) {
 800732a:	687b      	ldr	r3, [r7, #4]
 800732c:	2b00      	cmp	r3, #0
 800732e:	dd4d      	ble.n	80073cc <_HandleIncomingPacket+0xbc>
    switch (Cmd) {
 8007330:	78fb      	ldrb	r3, [r7, #3]
 8007332:	2b05      	cmp	r3, #5
 8007334:	d022      	beq.n	800737c <_HandleIncomingPacket+0x6c>
 8007336:	2b05      	cmp	r3, #5
 8007338:	dc0b      	bgt.n	8007352 <_HandleIncomingPacket+0x42>
 800733a:	2b02      	cmp	r3, #2
 800733c:	d015      	beq.n	800736a <_HandleIncomingPacket+0x5a>
 800733e:	2b02      	cmp	r3, #2
 8007340:	dc02      	bgt.n	8007348 <_HandleIncomingPacket+0x38>
 8007342:	2b01      	cmp	r3, #1
 8007344:	d00e      	beq.n	8007364 <_HandleIncomingPacket+0x54>
 8007346:	e034      	b.n	80073b2 <_HandleIncomingPacket+0xa2>
 8007348:	2b03      	cmp	r3, #3
 800734a:	d011      	beq.n	8007370 <_HandleIncomingPacket+0x60>
 800734c:	2b04      	cmp	r3, #4
 800734e:	d012      	beq.n	8007376 <_HandleIncomingPacket+0x66>
 8007350:	e02f      	b.n	80073b2 <_HandleIncomingPacket+0xa2>
 8007352:	2b07      	cmp	r3, #7
 8007354:	d018      	beq.n	8007388 <_HandleIncomingPacket+0x78>
 8007356:	2b07      	cmp	r3, #7
 8007358:	db13      	blt.n	8007382 <_HandleIncomingPacket+0x72>
 800735a:	2b7f      	cmp	r3, #127	; 0x7f
 800735c:	d038      	beq.n	80073d0 <_HandleIncomingPacket+0xc0>
 800735e:	2b80      	cmp	r3, #128	; 0x80
 8007360:	d015      	beq.n	800738e <_HandleIncomingPacket+0x7e>
 8007362:	e026      	b.n	80073b2 <_HandleIncomingPacket+0xa2>
    case SEGGER_SYSVIEW_COMMAND_ID_START:
      SEGGER_SYSVIEW_Start();
 8007364:	f000 fac2 	bl	80078ec <SEGGER_SYSVIEW_Start>
      break;
 8007368:	e037      	b.n	80073da <_HandleIncomingPacket+0xca>
    case SEGGER_SYSVIEW_COMMAND_ID_STOP:
      SEGGER_SYSVIEW_Stop();
 800736a:	f000 fb79 	bl	8007a60 <SEGGER_SYSVIEW_Stop>
      break;
 800736e:	e034      	b.n	80073da <_HandleIncomingPacket+0xca>
    case SEGGER_SYSVIEW_COMMAND_ID_GET_SYSTIME:
      SEGGER_SYSVIEW_RecordSystime();
 8007370:	f000 fd2e 	bl	8007dd0 <SEGGER_SYSVIEW_RecordSystime>
      break;
 8007374:	e031      	b.n	80073da <_HandleIncomingPacket+0xca>
    case SEGGER_SYSVIEW_COMMAND_ID_GET_TASKLIST:
      SEGGER_SYSVIEW_SendTaskList();
 8007376:	f000 fd17 	bl	8007da8 <SEGGER_SYSVIEW_SendTaskList>
      break;
 800737a:	e02e      	b.n	80073da <_HandleIncomingPacket+0xca>
    case SEGGER_SYSVIEW_COMMAND_ID_GET_SYSDESC:
      SEGGER_SYSVIEW_GetSysDesc();
 800737c:	f000 fb96 	bl	8007aac <SEGGER_SYSVIEW_GetSysDesc>
      break;
 8007380:	e02b      	b.n	80073da <_HandleIncomingPacket+0xca>
    case SEGGER_SYSVIEW_COMMAND_ID_GET_NUMMODULES:
      SEGGER_SYSVIEW_SendNumModules();
 8007382:	f000 ffbf 	bl	8008304 <SEGGER_SYSVIEW_SendNumModules>
      break;
 8007386:	e028      	b.n	80073da <_HandleIncomingPacket+0xca>
    case SEGGER_SYSVIEW_COMMAND_ID_GET_MODULEDESC:
      SEGGER_SYSVIEW_SendModuleDescription();
 8007388:	f000 ff9e 	bl	80082c8 <SEGGER_SYSVIEW_SendModuleDescription>
      break;
 800738c:	e025      	b.n	80073da <_HandleIncomingPacket+0xca>
    case SEGGER_SYSVIEW_COMMAND_ID_GET_MODULE:
      Status = SEGGER_RTT_ReadNoLock(CHANNEL_ID_DOWN, &Cmd, 1);
 800738e:	4b15      	ldr	r3, [pc, #84]	; (80073e4 <_HandleIncomingPacket+0xd4>)
 8007390:	7e1b      	ldrb	r3, [r3, #24]
 8007392:	4618      	mov	r0, r3
 8007394:	1cfb      	adds	r3, r7, #3
 8007396:	2201      	movs	r2, #1
 8007398:	4619      	mov	r1, r3
 800739a:	f7ff fedb 	bl	8007154 <SEGGER_RTT_ReadNoLock>
 800739e:	4603      	mov	r3, r0
 80073a0:	607b      	str	r3, [r7, #4]
      if (Status > 0) {
 80073a2:	687b      	ldr	r3, [r7, #4]
 80073a4:	2b00      	cmp	r3, #0
 80073a6:	dd15      	ble.n	80073d4 <_HandleIncomingPacket+0xc4>
        SEGGER_SYSVIEW_SendModule(Cmd);
 80073a8:	78fb      	ldrb	r3, [r7, #3]
 80073aa:	4618      	mov	r0, r3
 80073ac:	f000 ff0c 	bl	80081c8 <SEGGER_SYSVIEW_SendModule>
      }
      break;
 80073b0:	e010      	b.n	80073d4 <_HandleIncomingPacket+0xc4>
    case SEGGER_SYSVIEW_COMMAND_ID_HEARTBEAT:
      break;
    default:
      if (Cmd >= 128) { // Unknown extended command. Dummy read its parameter.
 80073b2:	78fb      	ldrb	r3, [r7, #3]
 80073b4:	b25b      	sxtb	r3, r3
 80073b6:	2b00      	cmp	r3, #0
 80073b8:	da0e      	bge.n	80073d8 <_HandleIncomingPacket+0xc8>
        SEGGER_RTT_ReadNoLock(CHANNEL_ID_DOWN, &Cmd, 1);
 80073ba:	4b0a      	ldr	r3, [pc, #40]	; (80073e4 <_HandleIncomingPacket+0xd4>)
 80073bc:	7e1b      	ldrb	r3, [r3, #24]
 80073be:	4618      	mov	r0, r3
 80073c0:	1cfb      	adds	r3, r7, #3
 80073c2:	2201      	movs	r2, #1
 80073c4:	4619      	mov	r1, r3
 80073c6:	f7ff fec5 	bl	8007154 <SEGGER_RTT_ReadNoLock>
      }
      break;
 80073ca:	e005      	b.n	80073d8 <_HandleIncomingPacket+0xc8>
    }
  }
 80073cc:	bf00      	nop
 80073ce:	e004      	b.n	80073da <_HandleIncomingPacket+0xca>
      break;
 80073d0:	bf00      	nop
 80073d2:	e002      	b.n	80073da <_HandleIncomingPacket+0xca>
      break;
 80073d4:	bf00      	nop
 80073d6:	e000      	b.n	80073da <_HandleIncomingPacket+0xca>
      break;
 80073d8:	bf00      	nop
}
 80073da:	bf00      	nop
 80073dc:	3708      	adds	r7, #8
 80073de:	46bd      	mov	sp, r7
 80073e0:	bd80      	pop	{r7, pc}
 80073e2:	bf00      	nop
 80073e4:	20002090 	.word	0x20002090

080073e8 <_TrySendOverflowPacket>:
*    !=0:  Success, Message sent (stored in RTT-Buffer)
*    ==0:  Buffer full, Message *NOT* stored
*
*/
#if (SEGGER_SYSVIEW_POST_MORTEM_MODE != 1)
static int _TrySendOverflowPacket(void) {
 80073e8:	b580      	push	{r7, lr}
 80073ea:	b08c      	sub	sp, #48	; 0x30
 80073ec:	af00      	add	r7, sp, #0
  I32 Delta;
  int Status;
  U8  aPacket[11];
  U8* pPayload;

  aPacket[0] = SYSVIEW_EVTID_OVERFLOW;      // 1
 80073ee:	2301      	movs	r3, #1
 80073f0:	713b      	strb	r3, [r7, #4]
  pPayload   = &aPacket[1];
 80073f2:	1d3b      	adds	r3, r7, #4
 80073f4:	3301      	adds	r3, #1
 80073f6:	61fb      	str	r3, [r7, #28]
  ENCODE_U32(pPayload, _SYSVIEW_Globals.DropCount);
 80073f8:	69fb      	ldr	r3, [r7, #28]
 80073fa:	62fb      	str	r3, [r7, #44]	; 0x2c
 80073fc:	4b31      	ldr	r3, [pc, #196]	; (80074c4 <_TrySendOverflowPacket+0xdc>)
 80073fe:	695b      	ldr	r3, [r3, #20]
 8007400:	62bb      	str	r3, [r7, #40]	; 0x28
 8007402:	e00b      	b.n	800741c <_TrySendOverflowPacket+0x34>
 8007404:	6abb      	ldr	r3, [r7, #40]	; 0x28
 8007406:	b2da      	uxtb	r2, r3
 8007408:	6afb      	ldr	r3, [r7, #44]	; 0x2c
 800740a:	1c59      	adds	r1, r3, #1
 800740c:	62f9      	str	r1, [r7, #44]	; 0x2c
 800740e:	f062 027f 	orn	r2, r2, #127	; 0x7f
 8007412:	b2d2      	uxtb	r2, r2
 8007414:	701a      	strb	r2, [r3, #0]
 8007416:	6abb      	ldr	r3, [r7, #40]	; 0x28
 8007418:	09db      	lsrs	r3, r3, #7
 800741a:	62bb      	str	r3, [r7, #40]	; 0x28
 800741c:	6abb      	ldr	r3, [r7, #40]	; 0x28
 800741e:	2b7f      	cmp	r3, #127	; 0x7f
 8007420:	d8f0      	bhi.n	8007404 <_TrySendOverflowPacket+0x1c>
 8007422:	6afb      	ldr	r3, [r7, #44]	; 0x2c
 8007424:	1c5a      	adds	r2, r3, #1
 8007426:	62fa      	str	r2, [r7, #44]	; 0x2c
 8007428:	6aba      	ldr	r2, [r7, #40]	; 0x28
 800742a:	b2d2      	uxtb	r2, r2
 800742c:	701a      	strb	r2, [r3, #0]
 800742e:	6afb      	ldr	r3, [r7, #44]	; 0x2c
 8007430:	61fb      	str	r3, [r7, #28]
  //
  // Compute time stamp delta and append it to packet.
  //
  TimeStamp  = SEGGER_SYSVIEW_GET_TIMESTAMP();
 8007432:	4b25      	ldr	r3, [pc, #148]	; (80074c8 <_TrySendOverflowPacket+0xe0>)
 8007434:	681b      	ldr	r3, [r3, #0]
 8007436:	61bb      	str	r3, [r7, #24]
  Delta = TimeStamp - _SYSVIEW_Globals.LastTxTimeStamp;
 8007438:	4b22      	ldr	r3, [pc, #136]	; (80074c4 <_TrySendOverflowPacket+0xdc>)
 800743a:	68db      	ldr	r3, [r3, #12]
 800743c:	69ba      	ldr	r2, [r7, #24]
 800743e:	1ad3      	subs	r3, r2, r3
 8007440:	617b      	str	r3, [r7, #20]
  MAKE_DELTA_32BIT(Delta);
  ENCODE_U32(pPayload, Delta);
 8007442:	69fb      	ldr	r3, [r7, #28]
 8007444:	627b      	str	r3, [r7, #36]	; 0x24
 8007446:	697b      	ldr	r3, [r7, #20]
 8007448:	623b      	str	r3, [r7, #32]
 800744a:	e00b      	b.n	8007464 <_TrySendOverflowPacket+0x7c>
 800744c:	6a3b      	ldr	r3, [r7, #32]
 800744e:	b2da      	uxtb	r2, r3
 8007450:	6a7b      	ldr	r3, [r7, #36]	; 0x24
 8007452:	1c59      	adds	r1, r3, #1
 8007454:	6279      	str	r1, [r7, #36]	; 0x24
 8007456:	f062 027f 	orn	r2, r2, #127	; 0x7f
 800745a:	b2d2      	uxtb	r2, r2
 800745c:	701a      	strb	r2, [r3, #0]
 800745e:	6a3b      	ldr	r3, [r7, #32]
 8007460:	09db      	lsrs	r3, r3, #7
 8007462:	623b      	str	r3, [r7, #32]
 8007464:	6a3b      	ldr	r3, [r7, #32]
 8007466:	2b7f      	cmp	r3, #127	; 0x7f
 8007468:	d8f0      	bhi.n	800744c <_TrySendOverflowPacket+0x64>
 800746a:	6a7b      	ldr	r3, [r7, #36]	; 0x24
 800746c:	1c5a      	adds	r2, r3, #1
 800746e:	627a      	str	r2, [r7, #36]	; 0x24
 8007470:	6a3a      	ldr	r2, [r7, #32]
 8007472:	b2d2      	uxtb	r2, r2
 8007474:	701a      	strb	r2, [r3, #0]
 8007476:	6a7b      	ldr	r3, [r7, #36]	; 0x24
 8007478:	61fb      	str	r3, [r7, #28]
  //
  // Try to store packet in RTT buffer and update time stamp when this was successful
  //
  Status = SEGGER_RTT_WriteSkipNoLock(CHANNEL_ID_UP, aPacket, pPayload - aPacket);
 800747a:	4b12      	ldr	r3, [pc, #72]	; (80074c4 <_TrySendOverflowPacket+0xdc>)
 800747c:	785b      	ldrb	r3, [r3, #1]
 800747e:	4618      	mov	r0, r3
 8007480:	69fa      	ldr	r2, [r7, #28]
 8007482:	1d3b      	adds	r3, r7, #4
 8007484:	1ad3      	subs	r3, r2, r3
 8007486:	461a      	mov	r2, r3
 8007488:	1d3b      	adds	r3, r7, #4
 800748a:	4619      	mov	r1, r3
 800748c:	f7f8 fe60 	bl	8000150 <SEGGER_RTT_ASM_WriteSkipNoLock>
 8007490:	4603      	mov	r3, r0
 8007492:	613b      	str	r3, [r7, #16]
  SEGGER_SYSVIEW_ON_EVENT_RECORDED(pPayload - aPacket);
  if (Status) {
 8007494:	693b      	ldr	r3, [r7, #16]
 8007496:	2b00      	cmp	r3, #0
 8007498:	d009      	beq.n	80074ae <_TrySendOverflowPacket+0xc6>
    _SYSVIEW_Globals.LastTxTimeStamp = TimeStamp;
 800749a:	4a0a      	ldr	r2, [pc, #40]	; (80074c4 <_TrySendOverflowPacket+0xdc>)
 800749c:	69bb      	ldr	r3, [r7, #24]
 800749e:	60d3      	str	r3, [r2, #12]
    _SYSVIEW_Globals.EnableState--; // EnableState has been 2, will be 1. Always.
 80074a0:	4b08      	ldr	r3, [pc, #32]	; (80074c4 <_TrySendOverflowPacket+0xdc>)
 80074a2:	781b      	ldrb	r3, [r3, #0]
 80074a4:	3b01      	subs	r3, #1
 80074a6:	b2da      	uxtb	r2, r3
 80074a8:	4b06      	ldr	r3, [pc, #24]	; (80074c4 <_TrySendOverflowPacket+0xdc>)
 80074aa:	701a      	strb	r2, [r3, #0]
 80074ac:	e004      	b.n	80074b8 <_TrySendOverflowPacket+0xd0>
  } else {
    _SYSVIEW_Globals.DropCount++;
 80074ae:	4b05      	ldr	r3, [pc, #20]	; (80074c4 <_TrySendOverflowPacket+0xdc>)
 80074b0:	695b      	ldr	r3, [r3, #20]
 80074b2:	3301      	adds	r3, #1
 80074b4:	4a03      	ldr	r2, [pc, #12]	; (80074c4 <_TrySendOverflowPacket+0xdc>)
 80074b6:	6153      	str	r3, [r2, #20]
  }
  //
  return Status;
 80074b8:	693b      	ldr	r3, [r7, #16]
}
 80074ba:	4618      	mov	r0, r3
 80074bc:	3730      	adds	r7, #48	; 0x30
 80074be:	46bd      	mov	sp, r7
 80074c0:	bd80      	pop	{r7, pc}
 80074c2:	bf00      	nop
 80074c4:	20002090 	.word	0x20002090
 80074c8:	e0001004 	.word	0xe0001004

080074cc <_SendPacket>:
*                   There must be at least 4 bytes free to prepend Id and Length.
*    pEndPacket   - Pointer to end of packet payload.
*    EventId      - Id of the event to send.
*
*/
static void _SendPacket(U8* pStartPacket, U8* pEndPacket, unsigned int EventId) {
 80074cc:	b580      	push	{r7, lr}
 80074ce:	b08a      	sub	sp, #40	; 0x28
 80074d0:	af00      	add	r7, sp, #0
 80074d2:	60f8      	str	r0, [r7, #12]
 80074d4:	60b9      	str	r1, [r7, #8]
 80074d6:	607a      	str	r2, [r7, #4]
#if (SEGGER_SYSVIEW_POST_MORTEM_MODE == 1)
  if (_SYSVIEW_Globals.EnableState == 0) {
    goto SendDone;
  }
#else
  if (_SYSVIEW_Globals.EnableState == 1) {  // Enabled, no dropped packets remaining
 80074d8:	4b6c      	ldr	r3, [pc, #432]	; (800768c <_SendPacket+0x1c0>)
 80074da:	781b      	ldrb	r3, [r3, #0]
 80074dc:	2b01      	cmp	r3, #1
 80074de:	d010      	beq.n	8007502 <_SendPacket+0x36>
    goto Send;
  }
  if (_SYSVIEW_Globals.EnableState == 0) {
 80074e0:	4b6a      	ldr	r3, [pc, #424]	; (800768c <_SendPacket+0x1c0>)
 80074e2:	781b      	ldrb	r3, [r3, #0]
 80074e4:	2b00      	cmp	r3, #0
 80074e6:	f000 80a3 	beq.w	8007630 <_SendPacket+0x164>
  //
  // Handle buffer full situations:
  // Have packets been dropped before because buffer was full?
  // In this case try to send and overflow packet.
  //
  if (_SYSVIEW_Globals.EnableState == 2) {
 80074ea:	4b68      	ldr	r3, [pc, #416]	; (800768c <_SendPacket+0x1c0>)
 80074ec:	781b      	ldrb	r3, [r3, #0]
 80074ee:	2b02      	cmp	r3, #2
 80074f0:	d109      	bne.n	8007506 <_SendPacket+0x3a>
    _TrySendOverflowPacket();
 80074f2:	f7ff ff79 	bl	80073e8 <_TrySendOverflowPacket>
    if (_SYSVIEW_Globals.EnableState != 1) {
 80074f6:	4b65      	ldr	r3, [pc, #404]	; (800768c <_SendPacket+0x1c0>)
 80074f8:	781b      	ldrb	r3, [r3, #0]
 80074fa:	2b01      	cmp	r3, #1
 80074fc:	f040 809a 	bne.w	8007634 <_SendPacket+0x168>
      goto SendDone;
    }
  }
Send:
 8007500:	e001      	b.n	8007506 <_SendPacket+0x3a>
    goto Send;
 8007502:	bf00      	nop
 8007504:	e000      	b.n	8007508 <_SendPacket+0x3c>
Send:
 8007506:	bf00      	nop
#endif
  //
  // Check if event is disabled from being recorded.
  //
  if (EventId < 32) {
 8007508:	687b      	ldr	r3, [r7, #4]
 800750a:	2b1f      	cmp	r3, #31
 800750c:	d809      	bhi.n	8007522 <_SendPacket+0x56>
    if (_SYSVIEW_Globals.DisabledEvents & ((U32)1u << EventId)) {
 800750e:	4b5f      	ldr	r3, [pc, #380]	; (800768c <_SendPacket+0x1c0>)
 8007510:	69da      	ldr	r2, [r3, #28]
 8007512:	687b      	ldr	r3, [r7, #4]
 8007514:	fa22 f303 	lsr.w	r3, r2, r3
 8007518:	f003 0301 	and.w	r3, r3, #1
 800751c:	2b00      	cmp	r3, #0
 800751e:	f040 808b 	bne.w	8007638 <_SendPacket+0x16c>
  //
  // Prepare actual packet.
  // If it is a known packet, prepend eventId only,
  // otherwise prepend packet length and eventId.
  //
  if (EventId < 24) {
 8007522:	687b      	ldr	r3, [r7, #4]
 8007524:	2b17      	cmp	r3, #23
 8007526:	d807      	bhi.n	8007538 <_SendPacket+0x6c>
    *--pStartPacket = EventId;
 8007528:	68fb      	ldr	r3, [r7, #12]
 800752a:	3b01      	subs	r3, #1
 800752c:	60fb      	str	r3, [r7, #12]
 800752e:	687b      	ldr	r3, [r7, #4]
 8007530:	b2da      	uxtb	r2, r3
 8007532:	68fb      	ldr	r3, [r7, #12]
 8007534:	701a      	strb	r2, [r3, #0]
 8007536:	e03d      	b.n	80075b4 <_SendPacket+0xe8>
  } else {
    NumBytes = pEndPacket - pStartPacket;
 8007538:	68ba      	ldr	r2, [r7, #8]
 800753a:	68fb      	ldr	r3, [r7, #12]
 800753c:	1ad3      	subs	r3, r2, r3
 800753e:	61fb      	str	r3, [r7, #28]
    if (NumBytes > 127) {
 8007540:	69fb      	ldr	r3, [r7, #28]
 8007542:	2b7f      	cmp	r3, #127	; 0x7f
 8007544:	d912      	bls.n	800756c <_SendPacket+0xa0>
      *--pStartPacket = (NumBytes >> 7);
 8007546:	69fb      	ldr	r3, [r7, #28]
 8007548:	09da      	lsrs	r2, r3, #7
 800754a:	68fb      	ldr	r3, [r7, #12]
 800754c:	3b01      	subs	r3, #1
 800754e:	60fb      	str	r3, [r7, #12]
 8007550:	b2d2      	uxtb	r2, r2
 8007552:	68fb      	ldr	r3, [r7, #12]
 8007554:	701a      	strb	r2, [r3, #0]
      *--pStartPacket = NumBytes | 0x80;
 8007556:	69fb      	ldr	r3, [r7, #28]
 8007558:	b2db      	uxtb	r3, r3
 800755a:	68fa      	ldr	r2, [r7, #12]
 800755c:	3a01      	subs	r2, #1
 800755e:	60fa      	str	r2, [r7, #12]
 8007560:	f063 037f 	orn	r3, r3, #127	; 0x7f
 8007564:	b2da      	uxtb	r2, r3
 8007566:	68fb      	ldr	r3, [r7, #12]
 8007568:	701a      	strb	r2, [r3, #0]
 800756a:	e006      	b.n	800757a <_SendPacket+0xae>
    } else {
      *--pStartPacket = NumBytes;
 800756c:	68fb      	ldr	r3, [r7, #12]
 800756e:	3b01      	subs	r3, #1
 8007570:	60fb      	str	r3, [r7, #12]
 8007572:	69fb      	ldr	r3, [r7, #28]
 8007574:	b2da      	uxtb	r2, r3
 8007576:	68fb      	ldr	r3, [r7, #12]
 8007578:	701a      	strb	r2, [r3, #0]
    }
    if (EventId > 127) {
 800757a:	687b      	ldr	r3, [r7, #4]
 800757c:	2b7f      	cmp	r3, #127	; 0x7f
 800757e:	d912      	bls.n	80075a6 <_SendPacket+0xda>
      *--pStartPacket = (EventId >> 7);
 8007580:	687b      	ldr	r3, [r7, #4]
 8007582:	09da      	lsrs	r2, r3, #7
 8007584:	68fb      	ldr	r3, [r7, #12]
 8007586:	3b01      	subs	r3, #1
 8007588:	60fb      	str	r3, [r7, #12]
 800758a:	b2d2      	uxtb	r2, r2
 800758c:	68fb      	ldr	r3, [r7, #12]
 800758e:	701a      	strb	r2, [r3, #0]
      *--pStartPacket = EventId | 0x80;
 8007590:	687b      	ldr	r3, [r7, #4]
 8007592:	b2db      	uxtb	r3, r3
 8007594:	68fa      	ldr	r2, [r7, #12]
 8007596:	3a01      	subs	r2, #1
 8007598:	60fa      	str	r2, [r7, #12]
 800759a:	f063 037f 	orn	r3, r3, #127	; 0x7f
 800759e:	b2da      	uxtb	r2, r3
 80075a0:	68fb      	ldr	r3, [r7, #12]
 80075a2:	701a      	strb	r2, [r3, #0]
 80075a4:	e006      	b.n	80075b4 <_SendPacket+0xe8>
    } else {
      *--pStartPacket = EventId;
 80075a6:	68fb      	ldr	r3, [r7, #12]
 80075a8:	3b01      	subs	r3, #1
 80075aa:	60fb      	str	r3, [r7, #12]
 80075ac:	687b      	ldr	r3, [r7, #4]
 80075ae:	b2da      	uxtb	r2, r3
 80075b0:	68fb      	ldr	r3, [r7, #12]
 80075b2:	701a      	strb	r2, [r3, #0]
    }
  }
  //
  // Compute time stamp delta and append it to packet.
  //
  TimeStamp  = SEGGER_SYSVIEW_GET_TIMESTAMP();
 80075b4:	4b36      	ldr	r3, [pc, #216]	; (8007690 <_SendPacket+0x1c4>)
 80075b6:	681b      	ldr	r3, [r3, #0]
 80075b8:	61bb      	str	r3, [r7, #24]
  Delta = TimeStamp - _SYSVIEW_Globals.LastTxTimeStamp;
 80075ba:	4b34      	ldr	r3, [pc, #208]	; (800768c <_SendPacket+0x1c0>)
 80075bc:	68db      	ldr	r3, [r3, #12]
 80075be:	69ba      	ldr	r2, [r7, #24]
 80075c0:	1ad3      	subs	r3, r2, r3
 80075c2:	617b      	str	r3, [r7, #20]
  MAKE_DELTA_32BIT(Delta);
  ENCODE_U32(pEndPacket, Delta);
 80075c4:	68bb      	ldr	r3, [r7, #8]
 80075c6:	627b      	str	r3, [r7, #36]	; 0x24
 80075c8:	697b      	ldr	r3, [r7, #20]
 80075ca:	623b      	str	r3, [r7, #32]
 80075cc:	e00b      	b.n	80075e6 <_SendPacket+0x11a>
 80075ce:	6a3b      	ldr	r3, [r7, #32]
 80075d0:	b2da      	uxtb	r2, r3
 80075d2:	6a7b      	ldr	r3, [r7, #36]	; 0x24
 80075d4:	1c59      	adds	r1, r3, #1
 80075d6:	6279      	str	r1, [r7, #36]	; 0x24
 80075d8:	f062 027f 	orn	r2, r2, #127	; 0x7f
 80075dc:	b2d2      	uxtb	r2, r2
 80075de:	701a      	strb	r2, [r3, #0]
 80075e0:	6a3b      	ldr	r3, [r7, #32]
 80075e2:	09db      	lsrs	r3, r3, #7
 80075e4:	623b      	str	r3, [r7, #32]
 80075e6:	6a3b      	ldr	r3, [r7, #32]
 80075e8:	2b7f      	cmp	r3, #127	; 0x7f
 80075ea:	d8f0      	bhi.n	80075ce <_SendPacket+0x102>
 80075ec:	6a7b      	ldr	r3, [r7, #36]	; 0x24
 80075ee:	1c5a      	adds	r2, r3, #1
 80075f0:	627a      	str	r2, [r7, #36]	; 0x24
 80075f2:	6a3a      	ldr	r2, [r7, #32]
 80075f4:	b2d2      	uxtb	r2, r2
 80075f6:	701a      	strb	r2, [r3, #0]
 80075f8:	6a7b      	ldr	r3, [r7, #36]	; 0x24
 80075fa:	60bb      	str	r3, [r7, #8]
  _SYSVIEW_Globals.LastTxTimeStamp = TimeStamp;
#else
  //
  // Try to store packet in RTT buffer and update time stamp when this was successful
  //
  Status = SEGGER_RTT_WriteSkipNoLock(CHANNEL_ID_UP, pStartPacket, pEndPacket - pStartPacket);
 80075fc:	4b23      	ldr	r3, [pc, #140]	; (800768c <_SendPacket+0x1c0>)
 80075fe:	785b      	ldrb	r3, [r3, #1]
 8007600:	4618      	mov	r0, r3
 8007602:	68ba      	ldr	r2, [r7, #8]
 8007604:	68fb      	ldr	r3, [r7, #12]
 8007606:	1ad3      	subs	r3, r2, r3
 8007608:	461a      	mov	r2, r3
 800760a:	68f9      	ldr	r1, [r7, #12]
 800760c:	f7f8 fda0 	bl	8000150 <SEGGER_RTT_ASM_WriteSkipNoLock>
 8007610:	4603      	mov	r3, r0
 8007612:	613b      	str	r3, [r7, #16]
  SEGGER_SYSVIEW_ON_EVENT_RECORDED(pEndPacket - pStartPacket);
  if (Status) {
 8007614:	693b      	ldr	r3, [r7, #16]
 8007616:	2b00      	cmp	r3, #0
 8007618:	d003      	beq.n	8007622 <_SendPacket+0x156>
    _SYSVIEW_Globals.LastTxTimeStamp = TimeStamp;
 800761a:	4a1c      	ldr	r2, [pc, #112]	; (800768c <_SendPacket+0x1c0>)
 800761c:	69bb      	ldr	r3, [r7, #24]
 800761e:	60d3      	str	r3, [r2, #12]
 8007620:	e00b      	b.n	800763a <_SendPacket+0x16e>
  } else {
    _SYSVIEW_Globals.EnableState++; // EnableState has been 1, will be 2. Always.
 8007622:	4b1a      	ldr	r3, [pc, #104]	; (800768c <_SendPacket+0x1c0>)
 8007624:	781b      	ldrb	r3, [r3, #0]
 8007626:	3301      	adds	r3, #1
 8007628:	b2da      	uxtb	r2, r3
 800762a:	4b18      	ldr	r3, [pc, #96]	; (800768c <_SendPacket+0x1c0>)
 800762c:	701a      	strb	r2, [r3, #0]
 800762e:	e004      	b.n	800763a <_SendPacket+0x16e>
    goto SendDone;
 8007630:	bf00      	nop
 8007632:	e002      	b.n	800763a <_SendPacket+0x16e>
      goto SendDone;
 8007634:	bf00      	nop
 8007636:	e000      	b.n	800763a <_SendPacket+0x16e>
      goto SendDone;
 8007638:	bf00      	nop
  //
  // Check if host is sending data which needs to be processed.
  // Note that since this code is called for every packet, it is very time critical, so we do
  // only what is really needed here, which is checking if there is any data
  //
  if (SEGGER_RTT_HASDATA(CHANNEL_ID_DOWN)) {
 800763a:	4b14      	ldr	r3, [pc, #80]	; (800768c <_SendPacket+0x1c0>)
 800763c:	7e1b      	ldrb	r3, [r3, #24]
 800763e:	4619      	mov	r1, r3
 8007640:	4a14      	ldr	r2, [pc, #80]	; (8007694 <_SendPacket+0x1c8>)
 8007642:	460b      	mov	r3, r1
 8007644:	005b      	lsls	r3, r3, #1
 8007646:	440b      	add	r3, r1
 8007648:	00db      	lsls	r3, r3, #3
 800764a:	4413      	add	r3, r2
 800764c:	336c      	adds	r3, #108	; 0x6c
 800764e:	681a      	ldr	r2, [r3, #0]
 8007650:	4b0e      	ldr	r3, [pc, #56]	; (800768c <_SendPacket+0x1c0>)
 8007652:	7e1b      	ldrb	r3, [r3, #24]
 8007654:	4618      	mov	r0, r3
 8007656:	490f      	ldr	r1, [pc, #60]	; (8007694 <_SendPacket+0x1c8>)
 8007658:	4603      	mov	r3, r0
 800765a:	005b      	lsls	r3, r3, #1
 800765c:	4403      	add	r3, r0
 800765e:	00db      	lsls	r3, r3, #3
 8007660:	440b      	add	r3, r1
 8007662:	3370      	adds	r3, #112	; 0x70
 8007664:	681b      	ldr	r3, [r3, #0]
 8007666:	429a      	cmp	r2, r3
 8007668:	d00b      	beq.n	8007682 <_SendPacket+0x1b6>
    if (_SYSVIEW_Globals.RecursionCnt == 0) {   // Avoid uncontrolled nesting. This way, this routine can call itself once, but no more often than that.
 800766a:	4b08      	ldr	r3, [pc, #32]	; (800768c <_SendPacket+0x1c0>)
 800766c:	789b      	ldrb	r3, [r3, #2]
 800766e:	2b00      	cmp	r3, #0
 8007670:	d107      	bne.n	8007682 <_SendPacket+0x1b6>
      _SYSVIEW_Globals.RecursionCnt = 1;
 8007672:	4b06      	ldr	r3, [pc, #24]	; (800768c <_SendPacket+0x1c0>)
 8007674:	2201      	movs	r2, #1
 8007676:	709a      	strb	r2, [r3, #2]
      _HandleIncomingPacket();
 8007678:	f7ff fe4a 	bl	8007310 <_HandleIncomingPacket>
      _SYSVIEW_Globals.RecursionCnt = 0;
 800767c:	4b03      	ldr	r3, [pc, #12]	; (800768c <_SendPacket+0x1c0>)
 800767e:	2200      	movs	r2, #0
 8007680:	709a      	strb	r2, [r3, #2]
#endif
  //
#if (SEGGER_SYSVIEW_USE_STATIC_BUFFER == 0)
  SEGGER_SYSVIEW_UNLOCK();  // We are done. Unlock and return
#endif
}
 8007682:	bf00      	nop
 8007684:	3728      	adds	r7, #40	; 0x28
 8007686:	46bd      	mov	sp, r7
 8007688:	bd80      	pop	{r7, pc}
 800768a:	bf00      	nop
 800768c:	20002090 	.word	0x20002090
 8007690:	e0001004 	.word	0xe0001004
 8007694:	2000230c 	.word	0x2000230c

08007698 <SEGGER_SYSVIEW_RecordVoid>:
*    Formats and sends a SystemView packet with an empty payload.
*
*  Parameters
*    EventID - SystemView event ID.
*/
void SEGGER_SYSVIEW_RecordVoid(unsigned int EventID) {
 8007698:	b580      	push	{r7, lr}
 800769a:	b084      	sub	sp, #16
 800769c:	af00      	add	r7, sp, #0
 800769e:	6078      	str	r0, [r7, #4]
  U8* pPayloadStart;
  RECORD_START(SEGGER_SYSVIEW_INFO_SIZE);
 80076a0:	f3ef 8311 	mrs	r3, BASEPRI
 80076a4:	f04f 0120 	mov.w	r1, #32
 80076a8:	f381 8811 	msr	BASEPRI, r1
 80076ac:	60fb      	str	r3, [r7, #12]
 80076ae:	4808      	ldr	r0, [pc, #32]	; (80076d0 <SEGGER_SYSVIEW_RecordVoid+0x38>)
 80076b0:	f7ff fe22 	bl	80072f8 <_PreparePacket>
 80076b4:	60b8      	str	r0, [r7, #8]
  //
  _SendPacket(pPayloadStart, pPayloadStart, EventID);
 80076b6:	687a      	ldr	r2, [r7, #4]
 80076b8:	68b9      	ldr	r1, [r7, #8]
 80076ba:	68b8      	ldr	r0, [r7, #8]
 80076bc:	f7ff ff06 	bl	80074cc <_SendPacket>
  RECORD_END();
 80076c0:	68fb      	ldr	r3, [r7, #12]
 80076c2:	f383 8811 	msr	BASEPRI, r3
}
 80076c6:	bf00      	nop
 80076c8:	3710      	adds	r7, #16
 80076ca:	46bd      	mov	sp, r7
 80076cc:	bd80      	pop	{r7, pc}
 80076ce:	bf00      	nop
 80076d0:	200020c0 	.word	0x200020c0

080076d4 <SEGGER_SYSVIEW_RecordU32>:
*
*  Parameters
*    EventID - SystemView event ID.
*    Value   - The 32-bit parameter encoded to SystemView packet payload.
*/
void SEGGER_SYSVIEW_RecordU32(unsigned int EventID, U32 Value) {
 80076d4:	b580      	push	{r7, lr}
 80076d6:	b088      	sub	sp, #32
 80076d8:	af00      	add	r7, sp, #0
 80076da:	6078      	str	r0, [r7, #4]
 80076dc:	6039      	str	r1, [r7, #0]
  U8* pPayload;
  U8* pPayloadStart;
  RECORD_START(SEGGER_SYSVIEW_INFO_SIZE + SEGGER_SYSVIEW_QUANTA_U32);
 80076de:	f3ef 8311 	mrs	r3, BASEPRI
 80076e2:	f04f 0120 	mov.w	r1, #32
 80076e6:	f381 8811 	msr	BASEPRI, r1
 80076ea:	617b      	str	r3, [r7, #20]
 80076ec:	4816      	ldr	r0, [pc, #88]	; (8007748 <SEGGER_SYSVIEW_RecordU32+0x74>)
 80076ee:	f7ff fe03 	bl	80072f8 <_PreparePacket>
 80076f2:	6138      	str	r0, [r7, #16]
  //
  pPayload = pPayloadStart;
 80076f4:	693b      	ldr	r3, [r7, #16]
 80076f6:	60fb      	str	r3, [r7, #12]
  ENCODE_U32(pPayload, Value);
 80076f8:	68fb      	ldr	r3, [r7, #12]
 80076fa:	61fb      	str	r3, [r7, #28]
 80076fc:	683b      	ldr	r3, [r7, #0]
 80076fe:	61bb      	str	r3, [r7, #24]
 8007700:	e00b      	b.n	800771a <SEGGER_SYSVIEW_RecordU32+0x46>
 8007702:	69bb      	ldr	r3, [r7, #24]
 8007704:	b2da      	uxtb	r2, r3
 8007706:	69fb      	ldr	r3, [r7, #28]
 8007708:	1c59      	adds	r1, r3, #1
 800770a:	61f9      	str	r1, [r7, #28]
 800770c:	f062 027f 	orn	r2, r2, #127	; 0x7f
 8007710:	b2d2      	uxtb	r2, r2
 8007712:	701a      	strb	r2, [r3, #0]
 8007714:	69bb      	ldr	r3, [r7, #24]
 8007716:	09db      	lsrs	r3, r3, #7
 8007718:	61bb      	str	r3, [r7, #24]
 800771a:	69bb      	ldr	r3, [r7, #24]
 800771c:	2b7f      	cmp	r3, #127	; 0x7f
 800771e:	d8f0      	bhi.n	8007702 <SEGGER_SYSVIEW_RecordU32+0x2e>
 8007720:	69fb      	ldr	r3, [r7, #28]
 8007722:	1c5a      	adds	r2, r3, #1
 8007724:	61fa      	str	r2, [r7, #28]
 8007726:	69ba      	ldr	r2, [r7, #24]
 8007728:	b2d2      	uxtb	r2, r2
 800772a:	701a      	strb	r2, [r3, #0]
 800772c:	69fb      	ldr	r3, [r7, #28]
 800772e:	60fb      	str	r3, [r7, #12]
  _SendPacket(pPayloadStart, pPayload, EventID);
 8007730:	687a      	ldr	r2, [r7, #4]
 8007732:	68f9      	ldr	r1, [r7, #12]
 8007734:	6938      	ldr	r0, [r7, #16]
 8007736:	f7ff fec9 	bl	80074cc <_SendPacket>
  RECORD_END();
 800773a:	697b      	ldr	r3, [r7, #20]
 800773c:	f383 8811 	msr	BASEPRI, r3
}
 8007740:	bf00      	nop
 8007742:	3720      	adds	r7, #32
 8007744:	46bd      	mov	sp, r7
 8007746:	bd80      	pop	{r7, pc}
 8007748:	200020c0 	.word	0x200020c0

0800774c <SEGGER_SYSVIEW_RecordU32x2>:
*  Parameters
*    EventID - SystemView event ID.
*    Para0   - The 32-bit parameter encoded to SystemView packet payload.
*    Para1   - The 32-bit parameter encoded to SystemView packet payload.
*/
void SEGGER_SYSVIEW_RecordU32x2(unsigned int EventID, U32 Para0, U32 Para1) {
 800774c:	b580      	push	{r7, lr}
 800774e:	b08c      	sub	sp, #48	; 0x30
 8007750:	af00      	add	r7, sp, #0
 8007752:	60f8      	str	r0, [r7, #12]
 8007754:	60b9      	str	r1, [r7, #8]
 8007756:	607a      	str	r2, [r7, #4]
  U8* pPayload;
  U8* pPayloadStart;
  RECORD_START(SEGGER_SYSVIEW_INFO_SIZE + 2 * SEGGER_SYSVIEW_QUANTA_U32);
 8007758:	f3ef 8311 	mrs	r3, BASEPRI
 800775c:	f04f 0120 	mov.w	r1, #32
 8007760:	f381 8811 	msr	BASEPRI, r1
 8007764:	61fb      	str	r3, [r7, #28]
 8007766:	4825      	ldr	r0, [pc, #148]	; (80077fc <SEGGER_SYSVIEW_RecordU32x2+0xb0>)
 8007768:	f7ff fdc6 	bl	80072f8 <_PreparePacket>
 800776c:	61b8      	str	r0, [r7, #24]
  //
  pPayload = pPayloadStart;
 800776e:	69bb      	ldr	r3, [r7, #24]
 8007770:	617b      	str	r3, [r7, #20]
  ENCODE_U32(pPayload, Para0);
 8007772:	697b      	ldr	r3, [r7, #20]
 8007774:	62fb      	str	r3, [r7, #44]	; 0x2c
 8007776:	68bb      	ldr	r3, [r7, #8]
 8007778:	62bb      	str	r3, [r7, #40]	; 0x28
 800777a:	e00b      	b.n	8007794 <SEGGER_SYSVIEW_RecordU32x2+0x48>
 800777c:	6abb      	ldr	r3, [r7, #40]	; 0x28
 800777e:	b2da      	uxtb	r2, r3
 8007780:	6afb      	ldr	r3, [r7, #44]	; 0x2c
 8007782:	1c59      	adds	r1, r3, #1
 8007784:	62f9      	str	r1, [r7, #44]	; 0x2c
 8007786:	f062 027f 	orn	r2, r2, #127	; 0x7f
 800778a:	b2d2      	uxtb	r2, r2
 800778c:	701a      	strb	r2, [r3, #0]
 800778e:	6abb      	ldr	r3, [r7, #40]	; 0x28
 8007790:	09db      	lsrs	r3, r3, #7
 8007792:	62bb      	str	r3, [r7, #40]	; 0x28
 8007794:	6abb      	ldr	r3, [r7, #40]	; 0x28
 8007796:	2b7f      	cmp	r3, #127	; 0x7f
 8007798:	d8f0      	bhi.n	800777c <SEGGER_SYSVIEW_RecordU32x2+0x30>
 800779a:	6afb      	ldr	r3, [r7, #44]	; 0x2c
 800779c:	1c5a      	adds	r2, r3, #1
 800779e:	62fa      	str	r2, [r7, #44]	; 0x2c
 80077a0:	6aba      	ldr	r2, [r7, #40]	; 0x28
 80077a2:	b2d2      	uxtb	r2, r2
 80077a4:	701a      	strb	r2, [r3, #0]
 80077a6:	6afb      	ldr	r3, [r7, #44]	; 0x2c
 80077a8:	617b      	str	r3, [r7, #20]
  ENCODE_U32(pPayload, Para1);
 80077aa:	697b      	ldr	r3, [r7, #20]
 80077ac:	627b      	str	r3, [r7, #36]	; 0x24
 80077ae:	687b      	ldr	r3, [r7, #4]
 80077b0:	623b      	str	r3, [r7, #32]
 80077b2:	e00b      	b.n	80077cc <SEGGER_SYSVIEW_RecordU32x2+0x80>
 80077b4:	6a3b      	ldr	r3, [r7, #32]
 80077b6:	b2da      	uxtb	r2, r3
 80077b8:	6a7b      	ldr	r3, [r7, #36]	; 0x24
 80077ba:	1c59      	adds	r1, r3, #1
 80077bc:	6279      	str	r1, [r7, #36]	; 0x24
 80077be:	f062 027f 	orn	r2, r2, #127	; 0x7f
 80077c2:	b2d2      	uxtb	r2, r2
 80077c4:	701a      	strb	r2, [r3, #0]
 80077c6:	6a3b      	ldr	r3, [r7, #32]
 80077c8:	09db      	lsrs	r3, r3, #7
 80077ca:	623b      	str	r3, [r7, #32]
 80077cc:	6a3b      	ldr	r3, [r7, #32]
 80077ce:	2b7f      	cmp	r3, #127	; 0x7f
 80077d0:	d8f0      	bhi.n	80077b4 <SEGGER_SYSVIEW_RecordU32x2+0x68>
 80077d2:	6a7b      	ldr	r3, [r7, #36]	; 0x24
 80077d4:	1c5a      	adds	r2, r3, #1
 80077d6:	627a      	str	r2, [r7, #36]	; 0x24
 80077d8:	6a3a      	ldr	r2, [r7, #32]
 80077da:	b2d2      	uxtb	r2, r2
 80077dc:	701a      	strb	r2, [r3, #0]
 80077de:	6a7b      	ldr	r3, [r7, #36]	; 0x24
 80077e0:	617b      	str	r3, [r7, #20]
  _SendPacket(pPayloadStart, pPayload, EventID);
 80077e2:	68fa      	ldr	r2, [r7, #12]
 80077e4:	6979      	ldr	r1, [r7, #20]
 80077e6:	69b8      	ldr	r0, [r7, #24]
 80077e8:	f7ff fe70 	bl	80074cc <_SendPacket>
  RECORD_END();
 80077ec:	69fb      	ldr	r3, [r7, #28]
 80077ee:	f383 8811 	msr	BASEPRI, r3
}
 80077f2:	bf00      	nop
 80077f4:	3730      	adds	r7, #48	; 0x30
 80077f6:	46bd      	mov	sp, r7
 80077f8:	bd80      	pop	{r7, pc}
 80077fa:	bf00      	nop
 80077fc:	200020c0 	.word	0x200020c0

08007800 <SEGGER_SYSVIEW_RecordU32x3>:
*    EventID - SystemView event ID.
*    Para0   - The 32-bit parameter encoded to SystemView packet payload.
*    Para1   - The 32-bit parameter encoded to SystemView packet payload.
*    Para2   - The 32-bit parameter encoded to SystemView packet payload.
*/
void SEGGER_SYSVIEW_RecordU32x3(unsigned int EventID, U32 Para0, U32 Para1, U32 Para2) {
 8007800:	b580      	push	{r7, lr}
 8007802:	b08e      	sub	sp, #56	; 0x38
 8007804:	af00      	add	r7, sp, #0
 8007806:	60f8      	str	r0, [r7, #12]
 8007808:	60b9      	str	r1, [r7, #8]
 800780a:	607a      	str	r2, [r7, #4]
 800780c:	603b      	str	r3, [r7, #0]
  U8* pPayload;
  U8* pPayloadStart;
  RECORD_START(SEGGER_SYSVIEW_INFO_SIZE + 3 * SEGGER_SYSVIEW_QUANTA_U32);
 800780e:	f3ef 8311 	mrs	r3, BASEPRI
 8007812:	f04f 0120 	mov.w	r1, #32
 8007816:	f381 8811 	msr	BASEPRI, r1
 800781a:	61fb      	str	r3, [r7, #28]
 800781c:	4832      	ldr	r0, [pc, #200]	; (80078e8 <SEGGER_SYSVIEW_RecordU32x3+0xe8>)
 800781e:	f7ff fd6b 	bl	80072f8 <_PreparePacket>
 8007822:	61b8      	str	r0, [r7, #24]
  //
  pPayload = pPayloadStart;
 8007824:	69bb      	ldr	r3, [r7, #24]
 8007826:	617b      	str	r3, [r7, #20]
  ENCODE_U32(pPayload, Para0);
 8007828:	697b      	ldr	r3, [r7, #20]
 800782a:	637b      	str	r3, [r7, #52]	; 0x34
 800782c:	68bb      	ldr	r3, [r7, #8]
 800782e:	633b      	str	r3, [r7, #48]	; 0x30
 8007830:	e00b      	b.n	800784a <SEGGER_SYSVIEW_RecordU32x3+0x4a>
 8007832:	6b3b      	ldr	r3, [r7, #48]	; 0x30
 8007834:	b2da      	uxtb	r2, r3
 8007836:	6b7b      	ldr	r3, [r7, #52]	; 0x34
 8007838:	1c59      	adds	r1, r3, #1
 800783a:	6379      	str	r1, [r7, #52]	; 0x34
 800783c:	f062 027f 	orn	r2, r2, #127	; 0x7f
 8007840:	b2d2      	uxtb	r2, r2
 8007842:	701a      	strb	r2, [r3, #0]
 8007844:	6b3b      	ldr	r3, [r7, #48]	; 0x30
 8007846:	09db      	lsrs	r3, r3, #7
 8007848:	633b      	str	r3, [r7, #48]	; 0x30
 800784a:	6b3b      	ldr	r3, [r7, #48]	; 0x30
 800784c:	2b7f      	cmp	r3, #127	; 0x7f
 800784e:	d8f0      	bhi.n	8007832 <SEGGER_SYSVIEW_RecordU32x3+0x32>
 8007850:	6b7b      	ldr	r3, [r7, #52]	; 0x34
 8007852:	1c5a      	adds	r2, r3, #1
 8007854:	637a      	str	r2, [r7, #52]	; 0x34
 8007856:	6b3a      	ldr	r2, [r7, #48]	; 0x30
 8007858:	b2d2      	uxtb	r2, r2
 800785a:	701a      	strb	r2, [r3, #0]
 800785c:	6b7b      	ldr	r3, [r7, #52]	; 0x34
 800785e:	617b      	str	r3, [r7, #20]
  ENCODE_U32(pPayload, Para1);
 8007860:	697b      	ldr	r3, [r7, #20]
 8007862:	62fb      	str	r3, [r7, #44]	; 0x2c
 8007864:	687b      	ldr	r3, [r7, #4]
 8007866:	62bb      	str	r3, [r7, #40]	; 0x28
 8007868:	e00b      	b.n	8007882 <SEGGER_SYSVIEW_RecordU32x3+0x82>
 800786a:	6abb      	ldr	r3, [r7, #40]	; 0x28
 800786c:	b2da      	uxtb	r2, r3
 800786e:	6afb      	ldr	r3, [r7, #44]	; 0x2c
 8007870:	1c59      	adds	r1, r3, #1
 8007872:	62f9      	str	r1, [r7, #44]	; 0x2c
 8007874:	f062 027f 	orn	r2, r2, #127	; 0x7f
 8007878:	b2d2      	uxtb	r2, r2
 800787a:	701a      	strb	r2, [r3, #0]
 800787c:	6abb      	ldr	r3, [r7, #40]	; 0x28
 800787e:	09db      	lsrs	r3, r3, #7
 8007880:	62bb      	str	r3, [r7, #40]	; 0x28
 8007882:	6abb      	ldr	r3, [r7, #40]	; 0x28
 8007884:	2b7f      	cmp	r3, #127	; 0x7f
 8007886:	d8f0      	bhi.n	800786a <SEGGER_SYSVIEW_RecordU32x3+0x6a>
 8007888:	6afb      	ldr	r3, [r7, #44]	; 0x2c
 800788a:	1c5a      	adds	r2, r3, #1
 800788c:	62fa      	str	r2, [r7, #44]	; 0x2c
 800788e:	6aba      	ldr	r2, [r7, #40]	; 0x28
 8007890:	b2d2      	uxtb	r2, r2
 8007892:	701a      	strb	r2, [r3, #0]
 8007894:	6afb      	ldr	r3, [r7, #44]	; 0x2c
 8007896:	617b      	str	r3, [r7, #20]
  ENCODE_U32(pPayload, Para2);
 8007898:	697b      	ldr	r3, [r7, #20]
 800789a:	627b      	str	r3, [r7, #36]	; 0x24
 800789c:	683b      	ldr	r3, [r7, #0]
 800789e:	623b      	str	r3, [r7, #32]
 80078a0:	e00b      	b.n	80078ba <SEGGER_SYSVIEW_RecordU32x3+0xba>
 80078a2:	6a3b      	ldr	r3, [r7, #32]
 80078a4:	b2da      	uxtb	r2, r3
 80078a6:	6a7b      	ldr	r3, [r7, #36]	; 0x24
 80078a8:	1c59      	adds	r1, r3, #1
 80078aa:	6279      	str	r1, [r7, #36]	; 0x24
 80078ac:	f062 027f 	orn	r2, r2, #127	; 0x7f
 80078b0:	b2d2      	uxtb	r2, r2
 80078b2:	701a      	strb	r2, [r3, #0]
 80078b4:	6a3b      	ldr	r3, [r7, #32]
 80078b6:	09db      	lsrs	r3, r3, #7
 80078b8:	623b      	str	r3, [r7, #32]
 80078ba:	6a3b      	ldr	r3, [r7, #32]
 80078bc:	2b7f      	cmp	r3, #127	; 0x7f
 80078be:	d8f0      	bhi.n	80078a2 <SEGGER_SYSVIEW_RecordU32x3+0xa2>
 80078c0:	6a7b      	ldr	r3, [r7, #36]	; 0x24
 80078c2:	1c5a      	adds	r2, r3, #1
 80078c4:	627a      	str	r2, [r7, #36]	; 0x24
 80078c6:	6a3a      	ldr	r2, [r7, #32]
 80078c8:	b2d2      	uxtb	r2, r2
 80078ca:	701a      	strb	r2, [r3, #0]
 80078cc:	6a7b      	ldr	r3, [r7, #36]	; 0x24
 80078ce:	617b      	str	r3, [r7, #20]
  _SendPacket(pPayloadStart, pPayload, EventID);
 80078d0:	68fa      	ldr	r2, [r7, #12]
 80078d2:	6979      	ldr	r1, [r7, #20]
 80078d4:	69b8      	ldr	r0, [r7, #24]
 80078d6:	f7ff fdf9 	bl	80074cc <_SendPacket>
  RECORD_END();
 80078da:	69fb      	ldr	r3, [r7, #28]
 80078dc:	f383 8811 	msr	BASEPRI, r3
}
 80078e0:	bf00      	nop
 80078e2:	3738      	adds	r7, #56	; 0x38
 80078e4:	46bd      	mov	sp, r7
 80078e6:	bd80      	pop	{r7, pc}
 80078e8:	200020c0 	.word	0x200020c0

080078ec <SEGGER_SYSVIEW_Start>:
*    When SEGGER_SYSVIEW_CAN_RESTART is 1, each received start command
*    records the system information. This is required to enable restart
*    of recordings when SystemView unexpectedly disconnects without sending
*    a stop command before.
*/
void SEGGER_SYSVIEW_Start(void) {
 80078ec:	b580      	push	{r7, lr}
 80078ee:	b08c      	sub	sp, #48	; 0x30
 80078f0:	af00      	add	r7, sp, #0
#if (SEGGER_SYSVIEW_CAN_RESTART == 0)
  if (_SYSVIEW_Globals.EnableState == 0) {
#endif
    _SYSVIEW_Globals.EnableState = 1;
 80078f2:	4b58      	ldr	r3, [pc, #352]	; (8007a54 <SEGGER_SYSVIEW_Start+0x168>)
 80078f4:	2201      	movs	r2, #1
 80078f6:	701a      	strb	r2, [r3, #0]
#if (SEGGER_SYSVIEW_POST_MORTEM_MODE == 1)
    _SendSyncInfo();
#else
    SEGGER_SYSVIEW_LOCK();
 80078f8:	f3ef 8311 	mrs	r3, BASEPRI
 80078fc:	f04f 0120 	mov.w	r1, #32
 8007900:	f381 8811 	msr	BASEPRI, r1
 8007904:	60fb      	str	r3, [r7, #12]
    SEGGER_RTT_WriteSkipNoLock(CHANNEL_ID_UP, _abSync, 10);
 8007906:	4b53      	ldr	r3, [pc, #332]	; (8007a54 <SEGGER_SYSVIEW_Start+0x168>)
 8007908:	785b      	ldrb	r3, [r3, #1]
 800790a:	220a      	movs	r2, #10
 800790c:	4952      	ldr	r1, [pc, #328]	; (8007a58 <SEGGER_SYSVIEW_Start+0x16c>)
 800790e:	4618      	mov	r0, r3
 8007910:	f7f8 fc1e 	bl	8000150 <SEGGER_RTT_ASM_WriteSkipNoLock>
    SEGGER_SYSVIEW_UNLOCK();
 8007914:	68fb      	ldr	r3, [r7, #12]
 8007916:	f383 8811 	msr	BASEPRI, r3
    SEGGER_SYSVIEW_ON_EVENT_RECORDED(10);
    SEGGER_SYSVIEW_RecordVoid(SYSVIEW_EVTID_TRACE_START);
 800791a:	200a      	movs	r0, #10
 800791c:	f7ff febc 	bl	8007698 <SEGGER_SYSVIEW_RecordVoid>
    {
      U8* pPayload;
      U8* pPayloadStart;
      RECORD_START(SEGGER_SYSVIEW_INFO_SIZE + 4 * SEGGER_SYSVIEW_QUANTA_U32);
 8007920:	f3ef 8311 	mrs	r3, BASEPRI
 8007924:	f04f 0120 	mov.w	r1, #32
 8007928:	f381 8811 	msr	BASEPRI, r1
 800792c:	60bb      	str	r3, [r7, #8]
 800792e:	484b      	ldr	r0, [pc, #300]	; (8007a5c <SEGGER_SYSVIEW_Start+0x170>)
 8007930:	f7ff fce2 	bl	80072f8 <_PreparePacket>
 8007934:	6078      	str	r0, [r7, #4]
      //
      pPayload = pPayloadStart;
 8007936:	687b      	ldr	r3, [r7, #4]
 8007938:	603b      	str	r3, [r7, #0]
      ENCODE_U32(pPayload, _SYSVIEW_Globals.SysFreq);
 800793a:	683b      	ldr	r3, [r7, #0]
 800793c:	62fb      	str	r3, [r7, #44]	; 0x2c
 800793e:	4b45      	ldr	r3, [pc, #276]	; (8007a54 <SEGGER_SYSVIEW_Start+0x168>)
 8007940:	685b      	ldr	r3, [r3, #4]
 8007942:	62bb      	str	r3, [r7, #40]	; 0x28
 8007944:	e00b      	b.n	800795e <SEGGER_SYSVIEW_Start+0x72>
 8007946:	6abb      	ldr	r3, [r7, #40]	; 0x28
 8007948:	b2da      	uxtb	r2, r3
 800794a:	6afb      	ldr	r3, [r7, #44]	; 0x2c
 800794c:	1c59      	adds	r1, r3, #1
 800794e:	62f9      	str	r1, [r7, #44]	; 0x2c
 8007950:	f062 027f 	orn	r2, r2, #127	; 0x7f
 8007954:	b2d2      	uxtb	r2, r2
 8007956:	701a      	strb	r2, [r3, #0]
 8007958:	6abb      	ldr	r3, [r7, #40]	; 0x28
 800795a:	09db      	lsrs	r3, r3, #7
 800795c:	62bb      	str	r3, [r7, #40]	; 0x28
 800795e:	6abb      	ldr	r3, [r7, #40]	; 0x28
 8007960:	2b7f      	cmp	r3, #127	; 0x7f
 8007962:	d8f0      	bhi.n	8007946 <SEGGER_SYSVIEW_Start+0x5a>
 8007964:	6afb      	ldr	r3, [r7, #44]	; 0x2c
 8007966:	1c5a      	adds	r2, r3, #1
 8007968:	62fa      	str	r2, [r7, #44]	; 0x2c
 800796a:	6aba      	ldr	r2, [r7, #40]	; 0x28
 800796c:	b2d2      	uxtb	r2, r2
 800796e:	701a      	strb	r2, [r3, #0]
 8007970:	6afb      	ldr	r3, [r7, #44]	; 0x2c
 8007972:	603b      	str	r3, [r7, #0]
      ENCODE_U32(pPayload, _SYSVIEW_Globals.CPUFreq);
 8007974:	683b      	ldr	r3, [r7, #0]
 8007976:	627b      	str	r3, [r7, #36]	; 0x24
 8007978:	4b36      	ldr	r3, [pc, #216]	; (8007a54 <SEGGER_SYSVIEW_Start+0x168>)
 800797a:	689b      	ldr	r3, [r3, #8]
 800797c:	623b      	str	r3, [r7, #32]
 800797e:	e00b      	b.n	8007998 <SEGGER_SYSVIEW_Start+0xac>
 8007980:	6a3b      	ldr	r3, [r7, #32]
 8007982:	b2da      	uxtb	r2, r3
 8007984:	6a7b      	ldr	r3, [r7, #36]	; 0x24
 8007986:	1c59      	adds	r1, r3, #1
 8007988:	6279      	str	r1, [r7, #36]	; 0x24
 800798a:	f062 027f 	orn	r2, r2, #127	; 0x7f
 800798e:	b2d2      	uxtb	r2, r2
 8007990:	701a      	strb	r2, [r3, #0]
 8007992:	6a3b      	ldr	r3, [r7, #32]
 8007994:	09db      	lsrs	r3, r3, #7
 8007996:	623b      	str	r3, [r7, #32]
 8007998:	6a3b      	ldr	r3, [r7, #32]
 800799a:	2b7f      	cmp	r3, #127	; 0x7f
 800799c:	d8f0      	bhi.n	8007980 <SEGGER_SYSVIEW_Start+0x94>
 800799e:	6a7b      	ldr	r3, [r7, #36]	; 0x24
 80079a0:	1c5a      	adds	r2, r3, #1
 80079a2:	627a      	str	r2, [r7, #36]	; 0x24
 80079a4:	6a3a      	ldr	r2, [r7, #32]
 80079a6:	b2d2      	uxtb	r2, r2
 80079a8:	701a      	strb	r2, [r3, #0]
 80079aa:	6a7b      	ldr	r3, [r7, #36]	; 0x24
 80079ac:	603b      	str	r3, [r7, #0]
      ENCODE_U32(pPayload, _SYSVIEW_Globals.RAMBaseAddress);
 80079ae:	683b      	ldr	r3, [r7, #0]
 80079b0:	61fb      	str	r3, [r7, #28]
 80079b2:	4b28      	ldr	r3, [pc, #160]	; (8007a54 <SEGGER_SYSVIEW_Start+0x168>)
 80079b4:	691b      	ldr	r3, [r3, #16]
 80079b6:	61bb      	str	r3, [r7, #24]
 80079b8:	e00b      	b.n	80079d2 <SEGGER_SYSVIEW_Start+0xe6>
 80079ba:	69bb      	ldr	r3, [r7, #24]
 80079bc:	b2da      	uxtb	r2, r3
 80079be:	69fb      	ldr	r3, [r7, #28]
 80079c0:	1c59      	adds	r1, r3, #1
 80079c2:	61f9      	str	r1, [r7, #28]
 80079c4:	f062 027f 	orn	r2, r2, #127	; 0x7f
 80079c8:	b2d2      	uxtb	r2, r2
 80079ca:	701a      	strb	r2, [r3, #0]
 80079cc:	69bb      	ldr	r3, [r7, #24]
 80079ce:	09db      	lsrs	r3, r3, #7
 80079d0:	61bb      	str	r3, [r7, #24]
 80079d2:	69bb      	ldr	r3, [r7, #24]
 80079d4:	2b7f      	cmp	r3, #127	; 0x7f
 80079d6:	d8f0      	bhi.n	80079ba <SEGGER_SYSVIEW_Start+0xce>
 80079d8:	69fb      	ldr	r3, [r7, #28]
 80079da:	1c5a      	adds	r2, r3, #1
 80079dc:	61fa      	str	r2, [r7, #28]
 80079de:	69ba      	ldr	r2, [r7, #24]
 80079e0:	b2d2      	uxtb	r2, r2
 80079e2:	701a      	strb	r2, [r3, #0]
 80079e4:	69fb      	ldr	r3, [r7, #28]
 80079e6:	603b      	str	r3, [r7, #0]
      ENCODE_U32(pPayload, SEGGER_SYSVIEW_ID_SHIFT);
 80079e8:	683b      	ldr	r3, [r7, #0]
 80079ea:	617b      	str	r3, [r7, #20]
 80079ec:	2300      	movs	r3, #0
 80079ee:	613b      	str	r3, [r7, #16]
 80079f0:	e00b      	b.n	8007a0a <SEGGER_SYSVIEW_Start+0x11e>
 80079f2:	693b      	ldr	r3, [r7, #16]
 80079f4:	b2da      	uxtb	r2, r3
 80079f6:	697b      	ldr	r3, [r7, #20]
 80079f8:	1c59      	adds	r1, r3, #1
 80079fa:	6179      	str	r1, [r7, #20]
 80079fc:	f062 027f 	orn	r2, r2, #127	; 0x7f
 8007a00:	b2d2      	uxtb	r2, r2
 8007a02:	701a      	strb	r2, [r3, #0]
 8007a04:	693b      	ldr	r3, [r7, #16]
 8007a06:	09db      	lsrs	r3, r3, #7
 8007a08:	613b      	str	r3, [r7, #16]
 8007a0a:	693b      	ldr	r3, [r7, #16]
 8007a0c:	2b7f      	cmp	r3, #127	; 0x7f
 8007a0e:	d8f0      	bhi.n	80079f2 <SEGGER_SYSVIEW_Start+0x106>
 8007a10:	697b      	ldr	r3, [r7, #20]
 8007a12:	1c5a      	adds	r2, r3, #1
 8007a14:	617a      	str	r2, [r7, #20]
 8007a16:	693a      	ldr	r2, [r7, #16]
 8007a18:	b2d2      	uxtb	r2, r2
 8007a1a:	701a      	strb	r2, [r3, #0]
 8007a1c:	697b      	ldr	r3, [r7, #20]
 8007a1e:	603b      	str	r3, [r7, #0]
      _SendPacket(pPayloadStart, pPayload, SYSVIEW_EVTID_INIT);
 8007a20:	2218      	movs	r2, #24
 8007a22:	6839      	ldr	r1, [r7, #0]
 8007a24:	6878      	ldr	r0, [r7, #4]
 8007a26:	f7ff fd51 	bl	80074cc <_SendPacket>
      RECORD_END();
 8007a2a:	68bb      	ldr	r3, [r7, #8]
 8007a2c:	f383 8811 	msr	BASEPRI, r3
    }
    if (_SYSVIEW_Globals.pfSendSysDesc) {
 8007a30:	4b08      	ldr	r3, [pc, #32]	; (8007a54 <SEGGER_SYSVIEW_Start+0x168>)
 8007a32:	6a5b      	ldr	r3, [r3, #36]	; 0x24
 8007a34:	2b00      	cmp	r3, #0
 8007a36:	d002      	beq.n	8007a3e <SEGGER_SYSVIEW_Start+0x152>
      _SYSVIEW_Globals.pfSendSysDesc();
 8007a38:	4b06      	ldr	r3, [pc, #24]	; (8007a54 <SEGGER_SYSVIEW_Start+0x168>)
 8007a3a:	6a5b      	ldr	r3, [r3, #36]	; 0x24
 8007a3c:	4798      	blx	r3
    }
    SEGGER_SYSVIEW_RecordSystime();
 8007a3e:	f000 f9c7 	bl	8007dd0 <SEGGER_SYSVIEW_RecordSystime>
    SEGGER_SYSVIEW_SendTaskList();
 8007a42:	f000 f9b1 	bl	8007da8 <SEGGER_SYSVIEW_SendTaskList>
    SEGGER_SYSVIEW_SendNumModules();
 8007a46:	f000 fc5d 	bl	8008304 <SEGGER_SYSVIEW_SendNumModules>
#endif
#if (SEGGER_SYSVIEW_CAN_RESTART == 0)
  }
#endif
}
 8007a4a:	bf00      	nop
 8007a4c:	3730      	adds	r7, #48	; 0x30
 8007a4e:	46bd      	mov	sp, r7
 8007a50:	bd80      	pop	{r7, pc}
 8007a52:	bf00      	nop
 8007a54:	20002090 	.word	0x20002090
 8007a58:	080085c8 	.word	0x080085c8
 8007a5c:	200020c0 	.word	0x200020c0

08007a60 <SEGGER_SYSVIEW_Stop>:
*    This function disables transmission of SystemView packets recorded
*    by subsequent trace calls.  If transmission is enabled when
*    this function is called, a single SystemView Stop event is recorded
*    to the trace, send, and then trace transmission is halted.
*/
void SEGGER_SYSVIEW_Stop(void) {
 8007a60:	b580      	push	{r7, lr}
 8007a62:	b082      	sub	sp, #8
 8007a64:	af00      	add	r7, sp, #0
  U8* pPayloadStart;
  RECORD_START(SEGGER_SYSVIEW_INFO_SIZE);
 8007a66:	f3ef 8311 	mrs	r3, BASEPRI
 8007a6a:	f04f 0120 	mov.w	r1, #32
 8007a6e:	f381 8811 	msr	BASEPRI, r1
 8007a72:	607b      	str	r3, [r7, #4]
 8007a74:	480b      	ldr	r0, [pc, #44]	; (8007aa4 <SEGGER_SYSVIEW_Stop+0x44>)
 8007a76:	f7ff fc3f 	bl	80072f8 <_PreparePacket>
 8007a7a:	6038      	str	r0, [r7, #0]
  //
  if (_SYSVIEW_Globals.EnableState) {
 8007a7c:	4b0a      	ldr	r3, [pc, #40]	; (8007aa8 <SEGGER_SYSVIEW_Stop+0x48>)
 8007a7e:	781b      	ldrb	r3, [r3, #0]
 8007a80:	2b00      	cmp	r3, #0
 8007a82:	d007      	beq.n	8007a94 <SEGGER_SYSVIEW_Stop+0x34>
    _SendPacket(pPayloadStart, pPayloadStart, SYSVIEW_EVTID_TRACE_STOP);
 8007a84:	220b      	movs	r2, #11
 8007a86:	6839      	ldr	r1, [r7, #0]
 8007a88:	6838      	ldr	r0, [r7, #0]
 8007a8a:	f7ff fd1f 	bl	80074cc <_SendPacket>
    _SYSVIEW_Globals.EnableState = 0;
 8007a8e:	4b06      	ldr	r3, [pc, #24]	; (8007aa8 <SEGGER_SYSVIEW_Stop+0x48>)
 8007a90:	2200      	movs	r2, #0
 8007a92:	701a      	strb	r2, [r3, #0]
  }
  RECORD_END();
 8007a94:	687b      	ldr	r3, [r7, #4]
 8007a96:	f383 8811 	msr	BASEPRI, r3
}
 8007a9a:	bf00      	nop
 8007a9c:	3708      	adds	r7, #8
 8007a9e:	46bd      	mov	sp, r7
 8007aa0:	bd80      	pop	{r7, pc}
 8007aa2:	bf00      	nop
 8007aa4:	200020c0 	.word	0x200020c0
 8007aa8:	20002090 	.word	0x20002090

08007aac <SEGGER_SYSVIEW_GetSysDesc>:
*
*  Function description
*    Triggers a send of the system information and description.
*
*/
void SEGGER_SYSVIEW_GetSysDesc(void) {
 8007aac:	b580      	push	{r7, lr}
 8007aae:	b08c      	sub	sp, #48	; 0x30
 8007ab0:	af00      	add	r7, sp, #0
  U8* pPayload;
  U8* pPayloadStart;
  RECORD_START(SEGGER_SYSVIEW_INFO_SIZE + 4 * SEGGER_SYSVIEW_QUANTA_U32);
 8007ab2:	f3ef 8311 	mrs	r3, BASEPRI
 8007ab6:	f04f 0120 	mov.w	r1, #32
 8007aba:	f381 8811 	msr	BASEPRI, r1
 8007abe:	60fb      	str	r3, [r7, #12]
 8007ac0:	4845      	ldr	r0, [pc, #276]	; (8007bd8 <SEGGER_SYSVIEW_GetSysDesc+0x12c>)
 8007ac2:	f7ff fc19 	bl	80072f8 <_PreparePacket>
 8007ac6:	60b8      	str	r0, [r7, #8]
  //
  pPayload = pPayloadStart;
 8007ac8:	68bb      	ldr	r3, [r7, #8]
 8007aca:	607b      	str	r3, [r7, #4]
  ENCODE_U32(pPayload, _SYSVIEW_Globals.SysFreq);
 8007acc:	687b      	ldr	r3, [r7, #4]
 8007ace:	62fb      	str	r3, [r7, #44]	; 0x2c
 8007ad0:	4b42      	ldr	r3, [pc, #264]	; (8007bdc <SEGGER_SYSVIEW_GetSysDesc+0x130>)
 8007ad2:	685b      	ldr	r3, [r3, #4]
 8007ad4:	62bb      	str	r3, [r7, #40]	; 0x28
 8007ad6:	e00b      	b.n	8007af0 <SEGGER_SYSVIEW_GetSysDesc+0x44>
 8007ad8:	6abb      	ldr	r3, [r7, #40]	; 0x28
 8007ada:	b2da      	uxtb	r2, r3
 8007adc:	6afb      	ldr	r3, [r7, #44]	; 0x2c
 8007ade:	1c59      	adds	r1, r3, #1
 8007ae0:	62f9      	str	r1, [r7, #44]	; 0x2c
 8007ae2:	f062 027f 	orn	r2, r2, #127	; 0x7f
 8007ae6:	b2d2      	uxtb	r2, r2
 8007ae8:	701a      	strb	r2, [r3, #0]
 8007aea:	6abb      	ldr	r3, [r7, #40]	; 0x28
 8007aec:	09db      	lsrs	r3, r3, #7
 8007aee:	62bb      	str	r3, [r7, #40]	; 0x28
 8007af0:	6abb      	ldr	r3, [r7, #40]	; 0x28
 8007af2:	2b7f      	cmp	r3, #127	; 0x7f
 8007af4:	d8f0      	bhi.n	8007ad8 <SEGGER_SYSVIEW_GetSysDesc+0x2c>
 8007af6:	6afb      	ldr	r3, [r7, #44]	; 0x2c
 8007af8:	1c5a      	adds	r2, r3, #1
 8007afa:	62fa      	str	r2, [r7, #44]	; 0x2c
 8007afc:	6aba      	ldr	r2, [r7, #40]	; 0x28
 8007afe:	b2d2      	uxtb	r2, r2
 8007b00:	701a      	strb	r2, [r3, #0]
 8007b02:	6afb      	ldr	r3, [r7, #44]	; 0x2c
 8007b04:	607b      	str	r3, [r7, #4]
  ENCODE_U32(pPayload, _SYSVIEW_Globals.CPUFreq);
 8007b06:	687b      	ldr	r3, [r7, #4]
 8007b08:	627b      	str	r3, [r7, #36]	; 0x24
 8007b0a:	4b34      	ldr	r3, [pc, #208]	; (8007bdc <SEGGER_SYSVIEW_GetSysDesc+0x130>)
 8007b0c:	689b      	ldr	r3, [r3, #8]
 8007b0e:	623b      	str	r3, [r7, #32]
 8007b10:	e00b      	b.n	8007b2a <SEGGER_SYSVIEW_GetSysDesc+0x7e>
 8007b12:	6a3b      	ldr	r3, [r7, #32]
 8007b14:	b2da      	uxtb	r2, r3
 8007b16:	6a7b      	ldr	r3, [r7, #36]	; 0x24
 8007b18:	1c59      	adds	r1, r3, #1
 8007b1a:	6279      	str	r1, [r7, #36]	; 0x24
 8007b1c:	f062 027f 	orn	r2, r2, #127	; 0x7f
 8007b20:	b2d2      	uxtb	r2, r2
 8007b22:	701a      	strb	r2, [r3, #0]
 8007b24:	6a3b      	ldr	r3, [r7, #32]
 8007b26:	09db      	lsrs	r3, r3, #7
 8007b28:	623b      	str	r3, [r7, #32]
 8007b2a:	6a3b      	ldr	r3, [r7, #32]
 8007b2c:	2b7f      	cmp	r3, #127	; 0x7f
 8007b2e:	d8f0      	bhi.n	8007b12 <SEGGER_SYSVIEW_GetSysDesc+0x66>
 8007b30:	6a7b      	ldr	r3, [r7, #36]	; 0x24
 8007b32:	1c5a      	adds	r2, r3, #1
 8007b34:	627a      	str	r2, [r7, #36]	; 0x24
 8007b36:	6a3a      	ldr	r2, [r7, #32]
 8007b38:	b2d2      	uxtb	r2, r2
 8007b3a:	701a      	strb	r2, [r3, #0]
 8007b3c:	6a7b      	ldr	r3, [r7, #36]	; 0x24
 8007b3e:	607b      	str	r3, [r7, #4]
  ENCODE_U32(pPayload, _SYSVIEW_Globals.RAMBaseAddress);
 8007b40:	687b      	ldr	r3, [r7, #4]
 8007b42:	61fb      	str	r3, [r7, #28]
 8007b44:	4b25      	ldr	r3, [pc, #148]	; (8007bdc <SEGGER_SYSVIEW_GetSysDesc+0x130>)
 8007b46:	691b      	ldr	r3, [r3, #16]
 8007b48:	61bb      	str	r3, [r7, #24]
 8007b4a:	e00b      	b.n	8007b64 <SEGGER_SYSVIEW_GetSysDesc+0xb8>
 8007b4c:	69bb      	ldr	r3, [r7, #24]
 8007b4e:	b2da      	uxtb	r2, r3
 8007b50:	69fb      	ldr	r3, [r7, #28]
 8007b52:	1c59      	adds	r1, r3, #1
 8007b54:	61f9      	str	r1, [r7, #28]
 8007b56:	f062 027f 	orn	r2, r2, #127	; 0x7f
 8007b5a:	b2d2      	uxtb	r2, r2
 8007b5c:	701a      	strb	r2, [r3, #0]
 8007b5e:	69bb      	ldr	r3, [r7, #24]
 8007b60:	09db      	lsrs	r3, r3, #7
 8007b62:	61bb      	str	r3, [r7, #24]
 8007b64:	69bb      	ldr	r3, [r7, #24]
 8007b66:	2b7f      	cmp	r3, #127	; 0x7f
 8007b68:	d8f0      	bhi.n	8007b4c <SEGGER_SYSVIEW_GetSysDesc+0xa0>
 8007b6a:	69fb      	ldr	r3, [r7, #28]
 8007b6c:	1c5a      	adds	r2, r3, #1
 8007b6e:	61fa      	str	r2, [r7, #28]
 8007b70:	69ba      	ldr	r2, [r7, #24]
 8007b72:	b2d2      	uxtb	r2, r2
 8007b74:	701a      	strb	r2, [r3, #0]
 8007b76:	69fb      	ldr	r3, [r7, #28]
 8007b78:	607b      	str	r3, [r7, #4]
  ENCODE_U32(pPayload, SEGGER_SYSVIEW_ID_SHIFT);
 8007b7a:	687b      	ldr	r3, [r7, #4]
 8007b7c:	617b      	str	r3, [r7, #20]
 8007b7e:	2300      	movs	r3, #0
 8007b80:	613b      	str	r3, [r7, #16]
 8007b82:	e00b      	b.n	8007b9c <SEGGER_SYSVIEW_GetSysDesc+0xf0>
 8007b84:	693b      	ldr	r3, [r7, #16]
 8007b86:	b2da      	uxtb	r2, r3
 8007b88:	697b      	ldr	r3, [r7, #20]
 8007b8a:	1c59      	adds	r1, r3, #1
 8007b8c:	6179      	str	r1, [r7, #20]
 8007b8e:	f062 027f 	orn	r2, r2, #127	; 0x7f
 8007b92:	b2d2      	uxtb	r2, r2
 8007b94:	701a      	strb	r2, [r3, #0]
 8007b96:	693b      	ldr	r3, [r7, #16]
 8007b98:	09db      	lsrs	r3, r3, #7
 8007b9a:	613b      	str	r3, [r7, #16]
 8007b9c:	693b      	ldr	r3, [r7, #16]
 8007b9e:	2b7f      	cmp	r3, #127	; 0x7f
 8007ba0:	d8f0      	bhi.n	8007b84 <SEGGER_SYSVIEW_GetSysDesc+0xd8>
 8007ba2:	697b      	ldr	r3, [r7, #20]
 8007ba4:	1c5a      	adds	r2, r3, #1
 8007ba6:	617a      	str	r2, [r7, #20]
 8007ba8:	693a      	ldr	r2, [r7, #16]
 8007baa:	b2d2      	uxtb	r2, r2
 8007bac:	701a      	strb	r2, [r3, #0]
 8007bae:	697b      	ldr	r3, [r7, #20]
 8007bb0:	607b      	str	r3, [r7, #4]
  _SendPacket(pPayloadStart, pPayload, SYSVIEW_EVTID_INIT);
 8007bb2:	2218      	movs	r2, #24
 8007bb4:	6879      	ldr	r1, [r7, #4]
 8007bb6:	68b8      	ldr	r0, [r7, #8]
 8007bb8:	f7ff fc88 	bl	80074cc <_SendPacket>
  RECORD_END();
 8007bbc:	68fb      	ldr	r3, [r7, #12]
 8007bbe:	f383 8811 	msr	BASEPRI, r3
  if (_SYSVIEW_Globals.pfSendSysDesc) {
 8007bc2:	4b06      	ldr	r3, [pc, #24]	; (8007bdc <SEGGER_SYSVIEW_GetSysDesc+0x130>)
 8007bc4:	6a5b      	ldr	r3, [r3, #36]	; 0x24
 8007bc6:	2b00      	cmp	r3, #0
 8007bc8:	d002      	beq.n	8007bd0 <SEGGER_SYSVIEW_GetSysDesc+0x124>
    _SYSVIEW_Globals.pfSendSysDesc();
 8007bca:	4b04      	ldr	r3, [pc, #16]	; (8007bdc <SEGGER_SYSVIEW_GetSysDesc+0x130>)
 8007bcc:	6a5b      	ldr	r3, [r3, #36]	; 0x24
 8007bce:	4798      	blx	r3
  }
}
 8007bd0:	bf00      	nop
 8007bd2:	3730      	adds	r7, #48	; 0x30
 8007bd4:	46bd      	mov	sp, r7
 8007bd6:	bd80      	pop	{r7, pc}
 8007bd8:	200020c0 	.word	0x200020c0
 8007bdc:	20002090 	.word	0x20002090

08007be0 <SEGGER_SYSVIEW_SendTaskInfo>:
*    task priority and task name.
*
*  Parameters
*    pInfo - Pointer to task information to send.
*/
void SEGGER_SYSVIEW_SendTaskInfo(const SEGGER_SYSVIEW_TASKINFO *pInfo) {
 8007be0:	b580      	push	{r7, lr}
 8007be2:	b092      	sub	sp, #72	; 0x48
 8007be4:	af00      	add	r7, sp, #0
 8007be6:	6078      	str	r0, [r7, #4]
  U8* pPayload;
  U8* pPayloadStart;
  RECORD_START(SEGGER_SYSVIEW_INFO_SIZE + SEGGER_SYSVIEW_QUANTA_U32 + 1 + 32);
 8007be8:	f3ef 8311 	mrs	r3, BASEPRI
 8007bec:	f04f 0120 	mov.w	r1, #32
 8007bf0:	f381 8811 	msr	BASEPRI, r1
 8007bf4:	617b      	str	r3, [r7, #20]
 8007bf6:	486a      	ldr	r0, [pc, #424]	; (8007da0 <SEGGER_SYSVIEW_SendTaskInfo+0x1c0>)
 8007bf8:	f7ff fb7e 	bl	80072f8 <_PreparePacket>
 8007bfc:	6138      	str	r0, [r7, #16]
  //
  pPayload = pPayloadStart;
 8007bfe:	693b      	ldr	r3, [r7, #16]
 8007c00:	60fb      	str	r3, [r7, #12]
  ENCODE_U32(pPayload, SHRINK_ID(pInfo->TaskID));
 8007c02:	68fb      	ldr	r3, [r7, #12]
 8007c04:	647b      	str	r3, [r7, #68]	; 0x44
 8007c06:	687b      	ldr	r3, [r7, #4]
 8007c08:	681a      	ldr	r2, [r3, #0]
 8007c0a:	4b66      	ldr	r3, [pc, #408]	; (8007da4 <SEGGER_SYSVIEW_SendTaskInfo+0x1c4>)
 8007c0c:	691b      	ldr	r3, [r3, #16]
 8007c0e:	1ad3      	subs	r3, r2, r3
 8007c10:	643b      	str	r3, [r7, #64]	; 0x40
 8007c12:	e00b      	b.n	8007c2c <SEGGER_SYSVIEW_SendTaskInfo+0x4c>
 8007c14:	6c3b      	ldr	r3, [r7, #64]	; 0x40
 8007c16:	b2da      	uxtb	r2, r3
 8007c18:	6c7b      	ldr	r3, [r7, #68]	; 0x44
 8007c1a:	1c59      	adds	r1, r3, #1
 8007c1c:	6479      	str	r1, [r7, #68]	; 0x44
 8007c1e:	f062 027f 	orn	r2, r2, #127	; 0x7f
 8007c22:	b2d2      	uxtb	r2, r2
 8007c24:	701a      	strb	r2, [r3, #0]
 8007c26:	6c3b      	ldr	r3, [r7, #64]	; 0x40
 8007c28:	09db      	lsrs	r3, r3, #7
 8007c2a:	643b      	str	r3, [r7, #64]	; 0x40
 8007c2c:	6c3b      	ldr	r3, [r7, #64]	; 0x40
 8007c2e:	2b7f      	cmp	r3, #127	; 0x7f
 8007c30:	d8f0      	bhi.n	8007c14 <SEGGER_SYSVIEW_SendTaskInfo+0x34>
 8007c32:	6c7b      	ldr	r3, [r7, #68]	; 0x44
 8007c34:	1c5a      	adds	r2, r3, #1
 8007c36:	647a      	str	r2, [r7, #68]	; 0x44
 8007c38:	6c3a      	ldr	r2, [r7, #64]	; 0x40
 8007c3a:	b2d2      	uxtb	r2, r2
 8007c3c:	701a      	strb	r2, [r3, #0]
 8007c3e:	6c7b      	ldr	r3, [r7, #68]	; 0x44
 8007c40:	60fb      	str	r3, [r7, #12]
  ENCODE_U32(pPayload, pInfo->Prio);
 8007c42:	68fb      	ldr	r3, [r7, #12]
 8007c44:	63fb      	str	r3, [r7, #60]	; 0x3c
 8007c46:	687b      	ldr	r3, [r7, #4]
 8007c48:	689b      	ldr	r3, [r3, #8]
 8007c4a:	63bb      	str	r3, [r7, #56]	; 0x38
 8007c4c:	e00b      	b.n	8007c66 <SEGGER_SYSVIEW_SendTaskInfo+0x86>
 8007c4e:	6bbb      	ldr	r3, [r7, #56]	; 0x38
 8007c50:	b2da      	uxtb	r2, r3
 8007c52:	6bfb      	ldr	r3, [r7, #60]	; 0x3c
 8007c54:	1c59      	adds	r1, r3, #1
 8007c56:	63f9      	str	r1, [r7, #60]	; 0x3c
 8007c58:	f062 027f 	orn	r2, r2, #127	; 0x7f
 8007c5c:	b2d2      	uxtb	r2, r2
 8007c5e:	701a      	strb	r2, [r3, #0]
 8007c60:	6bbb      	ldr	r3, [r7, #56]	; 0x38
 8007c62:	09db      	lsrs	r3, r3, #7
 8007c64:	63bb      	str	r3, [r7, #56]	; 0x38
 8007c66:	6bbb      	ldr	r3, [r7, #56]	; 0x38
 8007c68:	2b7f      	cmp	r3, #127	; 0x7f
 8007c6a:	d8f0      	bhi.n	8007c4e <SEGGER_SYSVIEW_SendTaskInfo+0x6e>
 8007c6c:	6bfb      	ldr	r3, [r7, #60]	; 0x3c
 8007c6e:	1c5a      	adds	r2, r3, #1
 8007c70:	63fa      	str	r2, [r7, #60]	; 0x3c
 8007c72:	6bba      	ldr	r2, [r7, #56]	; 0x38
 8007c74:	b2d2      	uxtb	r2, r2
 8007c76:	701a      	strb	r2, [r3, #0]
 8007c78:	6bfb      	ldr	r3, [r7, #60]	; 0x3c
 8007c7a:	60fb      	str	r3, [r7, #12]
  pPayload = _EncodeStr(pPayload, pInfo->sName, 32);
 8007c7c:	687b      	ldr	r3, [r7, #4]
 8007c7e:	685b      	ldr	r3, [r3, #4]
 8007c80:	2220      	movs	r2, #32
 8007c82:	4619      	mov	r1, r3
 8007c84:	68f8      	ldr	r0, [r7, #12]
 8007c86:	f7ff faeb 	bl	8007260 <_EncodeStr>
 8007c8a:	60f8      	str	r0, [r7, #12]
  _SendPacket(pPayloadStart, pPayload, SYSVIEW_EVTID_TASK_INFO);
 8007c8c:	2209      	movs	r2, #9
 8007c8e:	68f9      	ldr	r1, [r7, #12]
 8007c90:	6938      	ldr	r0, [r7, #16]
 8007c92:	f7ff fc1b 	bl	80074cc <_SendPacket>
  //
  pPayload = pPayloadStart;
 8007c96:	693b      	ldr	r3, [r7, #16]
 8007c98:	60fb      	str	r3, [r7, #12]
  ENCODE_U32(pPayload, SHRINK_ID(pInfo->TaskID));
 8007c9a:	68fb      	ldr	r3, [r7, #12]
 8007c9c:	637b      	str	r3, [r7, #52]	; 0x34
 8007c9e:	687b      	ldr	r3, [r7, #4]
 8007ca0:	681a      	ldr	r2, [r3, #0]
 8007ca2:	4b40      	ldr	r3, [pc, #256]	; (8007da4 <SEGGER_SYSVIEW_SendTaskInfo+0x1c4>)
 8007ca4:	691b      	ldr	r3, [r3, #16]
 8007ca6:	1ad3      	subs	r3, r2, r3
 8007ca8:	633b      	str	r3, [r7, #48]	; 0x30
 8007caa:	e00b      	b.n	8007cc4 <SEGGER_SYSVIEW_SendTaskInfo+0xe4>
 8007cac:	6b3b      	ldr	r3, [r7, #48]	; 0x30
 8007cae:	b2da      	uxtb	r2, r3
 8007cb0:	6b7b      	ldr	r3, [r7, #52]	; 0x34
 8007cb2:	1c59      	adds	r1, r3, #1
 8007cb4:	6379      	str	r1, [r7, #52]	; 0x34
 8007cb6:	f062 027f 	orn	r2, r2, #127	; 0x7f
 8007cba:	b2d2      	uxtb	r2, r2
 8007cbc:	701a      	strb	r2, [r3, #0]
 8007cbe:	6b3b      	ldr	r3, [r7, #48]	; 0x30
 8007cc0:	09db      	lsrs	r3, r3, #7
 8007cc2:	633b      	str	r3, [r7, #48]	; 0x30
 8007cc4:	6b3b      	ldr	r3, [r7, #48]	; 0x30
 8007cc6:	2b7f      	cmp	r3, #127	; 0x7f
 8007cc8:	d8f0      	bhi.n	8007cac <SEGGER_SYSVIEW_SendTaskInfo+0xcc>
 8007cca:	6b7b      	ldr	r3, [r7, #52]	; 0x34
 8007ccc:	1c5a      	adds	r2, r3, #1
 8007cce:	637a      	str	r2, [r7, #52]	; 0x34
 8007cd0:	6b3a      	ldr	r2, [r7, #48]	; 0x30
 8007cd2:	b2d2      	uxtb	r2, r2
 8007cd4:	701a      	strb	r2, [r3, #0]
 8007cd6:	6b7b      	ldr	r3, [r7, #52]	; 0x34
 8007cd8:	60fb      	str	r3, [r7, #12]
  ENCODE_U32(pPayload, pInfo->StackBase);
 8007cda:	68fb      	ldr	r3, [r7, #12]
 8007cdc:	62fb      	str	r3, [r7, #44]	; 0x2c
 8007cde:	687b      	ldr	r3, [r7, #4]
 8007ce0:	68db      	ldr	r3, [r3, #12]
 8007ce2:	62bb      	str	r3, [r7, #40]	; 0x28
 8007ce4:	e00b      	b.n	8007cfe <SEGGER_SYSVIEW_SendTaskInfo+0x11e>
 8007ce6:	6abb      	ldr	r3, [r7, #40]	; 0x28
 8007ce8:	b2da      	uxtb	r2, r3
 8007cea:	6afb      	ldr	r3, [r7, #44]	; 0x2c
 8007cec:	1c59      	adds	r1, r3, #1
 8007cee:	62f9      	str	r1, [r7, #44]	; 0x2c
 8007cf0:	f062 027f 	orn	r2, r2, #127	; 0x7f
 8007cf4:	b2d2      	uxtb	r2, r2
 8007cf6:	701a      	strb	r2, [r3, #0]
 8007cf8:	6abb      	ldr	r3, [r7, #40]	; 0x28
 8007cfa:	09db      	lsrs	r3, r3, #7
 8007cfc:	62bb      	str	r3, [r7, #40]	; 0x28
 8007cfe:	6abb      	ldr	r3, [r7, #40]	; 0x28
 8007d00:	2b7f      	cmp	r3, #127	; 0x7f
 8007d02:	d8f0      	bhi.n	8007ce6 <SEGGER_SYSVIEW_SendTaskInfo+0x106>
 8007d04:	6afb      	ldr	r3, [r7, #44]	; 0x2c
 8007d06:	1c5a      	adds	r2, r3, #1
 8007d08:	62fa      	str	r2, [r7, #44]	; 0x2c
 8007d0a:	6aba      	ldr	r2, [r7, #40]	; 0x28
 8007d0c:	b2d2      	uxtb	r2, r2
 8007d0e:	701a      	strb	r2, [r3, #0]
 8007d10:	6afb      	ldr	r3, [r7, #44]	; 0x2c
 8007d12:	60fb      	str	r3, [r7, #12]
  ENCODE_U32(pPayload, pInfo->StackSize);
 8007d14:	68fb      	ldr	r3, [r7, #12]
 8007d16:	627b      	str	r3, [r7, #36]	; 0x24
 8007d18:	687b      	ldr	r3, [r7, #4]
 8007d1a:	691b      	ldr	r3, [r3, #16]
 8007d1c:	623b      	str	r3, [r7, #32]
 8007d1e:	e00b      	b.n	8007d38 <SEGGER_SYSVIEW_SendTaskInfo+0x158>
 8007d20:	6a3b      	ldr	r3, [r7, #32]
 8007d22:	b2da      	uxtb	r2, r3
 8007d24:	6a7b      	ldr	r3, [r7, #36]	; 0x24
 8007d26:	1c59      	adds	r1, r3, #1
 8007d28:	6279      	str	r1, [r7, #36]	; 0x24
 8007d2a:	f062 027f 	orn	r2, r2, #127	; 0x7f
 8007d2e:	b2d2      	uxtb	r2, r2
 8007d30:	701a      	strb	r2, [r3, #0]
 8007d32:	6a3b      	ldr	r3, [r7, #32]
 8007d34:	09db      	lsrs	r3, r3, #7
 8007d36:	623b      	str	r3, [r7, #32]
 8007d38:	6a3b      	ldr	r3, [r7, #32]
 8007d3a:	2b7f      	cmp	r3, #127	; 0x7f
 8007d3c:	d8f0      	bhi.n	8007d20 <SEGGER_SYSVIEW_SendTaskInfo+0x140>
 8007d3e:	6a7b      	ldr	r3, [r7, #36]	; 0x24
 8007d40:	1c5a      	adds	r2, r3, #1
 8007d42:	627a      	str	r2, [r7, #36]	; 0x24
 8007d44:	6a3a      	ldr	r2, [r7, #32]
 8007d46:	b2d2      	uxtb	r2, r2
 8007d48:	701a      	strb	r2, [r3, #0]
 8007d4a:	6a7b      	ldr	r3, [r7, #36]	; 0x24
 8007d4c:	60fb      	str	r3, [r7, #12]
  ENCODE_U32(pPayload, 0); // Stack End, future use
 8007d4e:	68fb      	ldr	r3, [r7, #12]
 8007d50:	61fb      	str	r3, [r7, #28]
 8007d52:	2300      	movs	r3, #0
 8007d54:	61bb      	str	r3, [r7, #24]
 8007d56:	e00b      	b.n	8007d70 <SEGGER_SYSVIEW_SendTaskInfo+0x190>
 8007d58:	69bb      	ldr	r3, [r7, #24]
 8007d5a:	b2da      	uxtb	r2, r3
 8007d5c:	69fb      	ldr	r3, [r7, #28]
 8007d5e:	1c59      	adds	r1, r3, #1
 8007d60:	61f9      	str	r1, [r7, #28]
 8007d62:	f062 027f 	orn	r2, r2, #127	; 0x7f
 8007d66:	b2d2      	uxtb	r2, r2
 8007d68:	701a      	strb	r2, [r3, #0]
 8007d6a:	69bb      	ldr	r3, [r7, #24]
 8007d6c:	09db      	lsrs	r3, r3, #7
 8007d6e:	61bb      	str	r3, [r7, #24]
 8007d70:	69bb      	ldr	r3, [r7, #24]
 8007d72:	2b7f      	cmp	r3, #127	; 0x7f
 8007d74:	d8f0      	bhi.n	8007d58 <SEGGER_SYSVIEW_SendTaskInfo+0x178>
 8007d76:	69fb      	ldr	r3, [r7, #28]
 8007d78:	1c5a      	adds	r2, r3, #1
 8007d7a:	61fa      	str	r2, [r7, #28]
 8007d7c:	69ba      	ldr	r2, [r7, #24]
 8007d7e:	b2d2      	uxtb	r2, r2
 8007d80:	701a      	strb	r2, [r3, #0]
 8007d82:	69fb      	ldr	r3, [r7, #28]
 8007d84:	60fb      	str	r3, [r7, #12]
  _SendPacket(pPayloadStart, pPayload, SYSVIEW_EVTID_STACK_INFO);
 8007d86:	2215      	movs	r2, #21
 8007d88:	68f9      	ldr	r1, [r7, #12]
 8007d8a:	6938      	ldr	r0, [r7, #16]
 8007d8c:	f7ff fb9e 	bl	80074cc <_SendPacket>
  RECORD_END();
 8007d90:	697b      	ldr	r3, [r7, #20]
 8007d92:	f383 8811 	msr	BASEPRI, r3
}
 8007d96:	bf00      	nop
 8007d98:	3748      	adds	r7, #72	; 0x48
 8007d9a:	46bd      	mov	sp, r7
 8007d9c:	bd80      	pop	{r7, pc}
 8007d9e:	bf00      	nop
 8007da0:	200020c0 	.word	0x200020c0
 8007da4:	20002090 	.word	0x20002090

08007da8 <SEGGER_SYSVIEW_SendTaskList>:
*       SEGGER_SYSVIEW_SendTaskList()
*
*  Function description
*    Send all tasks descriptors to the host.
*/
void SEGGER_SYSVIEW_SendTaskList(void) {
 8007da8:	b580      	push	{r7, lr}
 8007daa:	af00      	add	r7, sp, #0
  if (_SYSVIEW_Globals.pOSAPI && _SYSVIEW_Globals.pOSAPI->pfSendTaskList) {
 8007dac:	4b07      	ldr	r3, [pc, #28]	; (8007dcc <SEGGER_SYSVIEW_SendTaskList+0x24>)
 8007dae:	6a1b      	ldr	r3, [r3, #32]
 8007db0:	2b00      	cmp	r3, #0
 8007db2:	d008      	beq.n	8007dc6 <SEGGER_SYSVIEW_SendTaskList+0x1e>
 8007db4:	4b05      	ldr	r3, [pc, #20]	; (8007dcc <SEGGER_SYSVIEW_SendTaskList+0x24>)
 8007db6:	6a1b      	ldr	r3, [r3, #32]
 8007db8:	685b      	ldr	r3, [r3, #4]
 8007dba:	2b00      	cmp	r3, #0
 8007dbc:	d003      	beq.n	8007dc6 <SEGGER_SYSVIEW_SendTaskList+0x1e>
    _SYSVIEW_Globals.pOSAPI->pfSendTaskList();
 8007dbe:	4b03      	ldr	r3, [pc, #12]	; (8007dcc <SEGGER_SYSVIEW_SendTaskList+0x24>)
 8007dc0:	6a1b      	ldr	r3, [r3, #32]
 8007dc2:	685b      	ldr	r3, [r3, #4]
 8007dc4:	4798      	blx	r3
  }
}
 8007dc6:	bf00      	nop
 8007dc8:	bd80      	pop	{r7, pc}
 8007dca:	bf00      	nop
 8007dcc:	20002090 	.word	0x20002090

08007dd0 <SEGGER_SYSVIEW_RecordSystime>:
*
*  Function description
*    Formats and sends a SystemView Systime containing a single U64 or U32
*    parameter payload.
*/
void SEGGER_SYSVIEW_RecordSystime(void) {
 8007dd0:	b590      	push	{r4, r7, lr}
 8007dd2:	b083      	sub	sp, #12
 8007dd4:	af00      	add	r7, sp, #0
  U64 Systime;

  if (_SYSVIEW_Globals.pOSAPI && _SYSVIEW_Globals.pOSAPI->pfGetTime) {
 8007dd6:	4b14      	ldr	r3, [pc, #80]	; (8007e28 <SEGGER_SYSVIEW_RecordSystime+0x58>)
 8007dd8:	6a1b      	ldr	r3, [r3, #32]
 8007dda:	2b00      	cmp	r3, #0
 8007ddc:	d019      	beq.n	8007e12 <SEGGER_SYSVIEW_RecordSystime+0x42>
 8007dde:	4b12      	ldr	r3, [pc, #72]	; (8007e28 <SEGGER_SYSVIEW_RecordSystime+0x58>)
 8007de0:	6a1b      	ldr	r3, [r3, #32]
 8007de2:	681b      	ldr	r3, [r3, #0]
 8007de4:	2b00      	cmp	r3, #0
 8007de6:	d014      	beq.n	8007e12 <SEGGER_SYSVIEW_RecordSystime+0x42>
    Systime = _SYSVIEW_Globals.pOSAPI->pfGetTime();
 8007de8:	4b0f      	ldr	r3, [pc, #60]	; (8007e28 <SEGGER_SYSVIEW_RecordSystime+0x58>)
 8007dea:	6a1b      	ldr	r3, [r3, #32]
 8007dec:	681b      	ldr	r3, [r3, #0]
 8007dee:	4798      	blx	r3
 8007df0:	e9c7 0100 	strd	r0, r1, [r7]
    SEGGER_SYSVIEW_RecordU32x2(SYSVIEW_EVTID_SYSTIME_US,
 8007df4:	6838      	ldr	r0, [r7, #0]
                               (U32)(Systime),
                               (U32)(Systime >> 32));
 8007df6:	e9d7 1200 	ldrd	r1, r2, [r7]
 8007dfa:	f04f 0300 	mov.w	r3, #0
 8007dfe:	f04f 0400 	mov.w	r4, #0
 8007e02:	0013      	movs	r3, r2
 8007e04:	2400      	movs	r4, #0
    SEGGER_SYSVIEW_RecordU32x2(SYSVIEW_EVTID_SYSTIME_US,
 8007e06:	461a      	mov	r2, r3
 8007e08:	4601      	mov	r1, r0
 8007e0a:	200d      	movs	r0, #13
 8007e0c:	f7ff fc9e 	bl	800774c <SEGGER_SYSVIEW_RecordU32x2>
 8007e10:	e005      	b.n	8007e1e <SEGGER_SYSVIEW_RecordSystime+0x4e>
  } else {
    SEGGER_SYSVIEW_RecordU32(SYSVIEW_EVTID_SYSTIME_CYCLES, SEGGER_SYSVIEW_GET_TIMESTAMP());
 8007e12:	4b06      	ldr	r3, [pc, #24]	; (8007e2c <SEGGER_SYSVIEW_RecordSystime+0x5c>)
 8007e14:	681b      	ldr	r3, [r3, #0]
 8007e16:	4619      	mov	r1, r3
 8007e18:	200c      	movs	r0, #12
 8007e1a:	f7ff fc5b 	bl	80076d4 <SEGGER_SYSVIEW_RecordU32>
  }
}
 8007e1e:	bf00      	nop
 8007e20:	370c      	adds	r7, #12
 8007e22:	46bd      	mov	sp, r7
 8007e24:	bd90      	pop	{r4, r7, pc}
 8007e26:	bf00      	nop
 8007e28:	20002090 	.word	0x20002090
 8007e2c:	e0001004 	.word	0xe0001004

08007e30 <SEGGER_SYSVIEW_RecordEnterISR>:
*
*  Additional information
*    Example packets sent
*      02 0F 50              // ISR(15) Enter. Timestamp is 80 (0x50)
*/
void SEGGER_SYSVIEW_RecordEnterISR(void) {
 8007e30:	b580      	push	{r7, lr}
 8007e32:	b086      	sub	sp, #24
 8007e34:	af00      	add	r7, sp, #0
  unsigned v;
  U8* pPayload;
  U8* pPayloadStart;
  RECORD_START(SEGGER_SYSVIEW_INFO_SIZE + SEGGER_SYSVIEW_QUANTA_U32);
 8007e36:	f3ef 8311 	mrs	r3, BASEPRI
 8007e3a:	f04f 0120 	mov.w	r1, #32
 8007e3e:	f381 8811 	msr	BASEPRI, r1
 8007e42:	60fb      	str	r3, [r7, #12]
 8007e44:	4819      	ldr	r0, [pc, #100]	; (8007eac <SEGGER_SYSVIEW_RecordEnterISR+0x7c>)
 8007e46:	f7ff fa57 	bl	80072f8 <_PreparePacket>
 8007e4a:	60b8      	str	r0, [r7, #8]
  //
  pPayload = pPayloadStart;
 8007e4c:	68bb      	ldr	r3, [r7, #8]
 8007e4e:	607b      	str	r3, [r7, #4]
  v = SEGGER_SYSVIEW_GET_INTERRUPT_ID();
 8007e50:	4b17      	ldr	r3, [pc, #92]	; (8007eb0 <SEGGER_SYSVIEW_RecordEnterISR+0x80>)
 8007e52:	681b      	ldr	r3, [r3, #0]
 8007e54:	f3c3 0308 	ubfx	r3, r3, #0, #9
 8007e58:	603b      	str	r3, [r7, #0]
  ENCODE_U32(pPayload, v);
 8007e5a:	687b      	ldr	r3, [r7, #4]
 8007e5c:	617b      	str	r3, [r7, #20]
 8007e5e:	683b      	ldr	r3, [r7, #0]
 8007e60:	613b      	str	r3, [r7, #16]
 8007e62:	e00b      	b.n	8007e7c <SEGGER_SYSVIEW_RecordEnterISR+0x4c>
 8007e64:	693b      	ldr	r3, [r7, #16]
 8007e66:	b2da      	uxtb	r2, r3
 8007e68:	697b      	ldr	r3, [r7, #20]
 8007e6a:	1c59      	adds	r1, r3, #1
 8007e6c:	6179      	str	r1, [r7, #20]
 8007e6e:	f062 027f 	orn	r2, r2, #127	; 0x7f
 8007e72:	b2d2      	uxtb	r2, r2
 8007e74:	701a      	strb	r2, [r3, #0]
 8007e76:	693b      	ldr	r3, [r7, #16]
 8007e78:	09db      	lsrs	r3, r3, #7
 8007e7a:	613b      	str	r3, [r7, #16]
 8007e7c:	693b      	ldr	r3, [r7, #16]
 8007e7e:	2b7f      	cmp	r3, #127	; 0x7f
 8007e80:	d8f0      	bhi.n	8007e64 <SEGGER_SYSVIEW_RecordEnterISR+0x34>
 8007e82:	697b      	ldr	r3, [r7, #20]
 8007e84:	1c5a      	adds	r2, r3, #1
 8007e86:	617a      	str	r2, [r7, #20]
 8007e88:	693a      	ldr	r2, [r7, #16]
 8007e8a:	b2d2      	uxtb	r2, r2
 8007e8c:	701a      	strb	r2, [r3, #0]
 8007e8e:	697b      	ldr	r3, [r7, #20]
 8007e90:	607b      	str	r3, [r7, #4]
  _SendPacket(pPayloadStart, pPayload, SYSVIEW_EVTID_ISR_ENTER);
 8007e92:	2202      	movs	r2, #2
 8007e94:	6879      	ldr	r1, [r7, #4]
 8007e96:	68b8      	ldr	r0, [r7, #8]
 8007e98:	f7ff fb18 	bl	80074cc <_SendPacket>
  RECORD_END();
 8007e9c:	68fb      	ldr	r3, [r7, #12]
 8007e9e:	f383 8811 	msr	BASEPRI, r3
}
 8007ea2:	bf00      	nop
 8007ea4:	3718      	adds	r7, #24
 8007ea6:	46bd      	mov	sp, r7
 8007ea8:	bd80      	pop	{r7, pc}
 8007eaa:	bf00      	nop
 8007eac:	200020c0 	.word	0x200020c0
 8007eb0:	e000ed04 	.word	0xe000ed04

08007eb4 <SEGGER_SYSVIEW_RecordExitISR>:
*      03 <TimeStamp>        // Max. packet len is 6
*
*    Example packets sent
*      03 20                // ISR Exit. Timestamp is 32 (0x20)
*/
void SEGGER_SYSVIEW_RecordExitISR(void) {
 8007eb4:	b580      	push	{r7, lr}
 8007eb6:	b082      	sub	sp, #8
 8007eb8:	af00      	add	r7, sp, #0
  U8* pPayloadStart;
  RECORD_START(SEGGER_SYSVIEW_INFO_SIZE);
 8007eba:	f3ef 8311 	mrs	r3, BASEPRI
 8007ebe:	f04f 0120 	mov.w	r1, #32
 8007ec2:	f381 8811 	msr	BASEPRI, r1
 8007ec6:	607b      	str	r3, [r7, #4]
 8007ec8:	4807      	ldr	r0, [pc, #28]	; (8007ee8 <SEGGER_SYSVIEW_RecordExitISR+0x34>)
 8007eca:	f7ff fa15 	bl	80072f8 <_PreparePacket>
 8007ece:	6038      	str	r0, [r7, #0]
  //
  _SendPacket(pPayloadStart, pPayloadStart, SYSVIEW_EVTID_ISR_EXIT);
 8007ed0:	2203      	movs	r2, #3
 8007ed2:	6839      	ldr	r1, [r7, #0]
 8007ed4:	6838      	ldr	r0, [r7, #0]
 8007ed6:	f7ff faf9 	bl	80074cc <_SendPacket>
  RECORD_END();
 8007eda:	687b      	ldr	r3, [r7, #4]
 8007edc:	f383 8811 	msr	BASEPRI, r3
}
 8007ee0:	bf00      	nop
 8007ee2:	3708      	adds	r7, #8
 8007ee4:	46bd      	mov	sp, r7
 8007ee6:	bd80      	pop	{r7, pc}
 8007ee8:	200020c0 	.word	0x200020c0

08007eec <SEGGER_SYSVIEW_RecordExitISRToScheduler>:
*      18 <TimeStamp>        // Max. packet len is 6
*
*    Example packets sent
*      18 20                // ISR Exit to Scheduler. Timestamp is 32 (0x20)
*/
void SEGGER_SYSVIEW_RecordExitISRToScheduler(void) {
 8007eec:	b580      	push	{r7, lr}
 8007eee:	b082      	sub	sp, #8
 8007ef0:	af00      	add	r7, sp, #0
  U8* pPayloadStart;
  RECORD_START(SEGGER_SYSVIEW_INFO_SIZE);
 8007ef2:	f3ef 8311 	mrs	r3, BASEPRI
 8007ef6:	f04f 0120 	mov.w	r1, #32
 8007efa:	f381 8811 	msr	BASEPRI, r1
 8007efe:	607b      	str	r3, [r7, #4]
 8007f00:	4807      	ldr	r0, [pc, #28]	; (8007f20 <SEGGER_SYSVIEW_RecordExitISRToScheduler+0x34>)
 8007f02:	f7ff f9f9 	bl	80072f8 <_PreparePacket>
 8007f06:	6038      	str	r0, [r7, #0]
  //
  _SendPacket(pPayloadStart, pPayloadStart, SYSVIEW_EVTID_ISR_TO_SCHEDULER);
 8007f08:	2212      	movs	r2, #18
 8007f0a:	6839      	ldr	r1, [r7, #0]
 8007f0c:	6838      	ldr	r0, [r7, #0]
 8007f0e:	f7ff fadd 	bl	80074cc <_SendPacket>
  RECORD_END();
 8007f12:	687b      	ldr	r3, [r7, #4]
 8007f14:	f383 8811 	msr	BASEPRI, r3
}
 8007f18:	bf00      	nop
 8007f1a:	3708      	adds	r7, #8
 8007f1c:	46bd      	mov	sp, r7
 8007f1e:	bd80      	pop	{r7, pc}
 8007f20:	200020c0 	.word	0x200020c0

08007f24 <SEGGER_SYSVIEW_OnIdle>:
*       SEGGER_SYSVIEW_OnIdle()
*
*  Function description
*    Record an Idle event.
*/
void SEGGER_SYSVIEW_OnIdle(void) {
 8007f24:	b580      	push	{r7, lr}
 8007f26:	b082      	sub	sp, #8
 8007f28:	af00      	add	r7, sp, #0
  U8* pPayloadStart;
  RECORD_START(SEGGER_SYSVIEW_INFO_SIZE);
 8007f2a:	f3ef 8311 	mrs	r3, BASEPRI
 8007f2e:	f04f 0120 	mov.w	r1, #32
 8007f32:	f381 8811 	msr	BASEPRI, r1
 8007f36:	607b      	str	r3, [r7, #4]
 8007f38:	4807      	ldr	r0, [pc, #28]	; (8007f58 <SEGGER_SYSVIEW_OnIdle+0x34>)
 8007f3a:	f7ff f9dd 	bl	80072f8 <_PreparePacket>
 8007f3e:	6038      	str	r0, [r7, #0]
  //
  _SendPacket(pPayloadStart, pPayloadStart, SYSVIEW_EVTID_IDLE);
 8007f40:	2211      	movs	r2, #17
 8007f42:	6839      	ldr	r1, [r7, #0]
 8007f44:	6838      	ldr	r0, [r7, #0]
 8007f46:	f7ff fac1 	bl	80074cc <_SendPacket>
  RECORD_END();
 8007f4a:	687b      	ldr	r3, [r7, #4]
 8007f4c:	f383 8811 	msr	BASEPRI, r3
}
 8007f50:	bf00      	nop
 8007f52:	3708      	adds	r7, #8
 8007f54:	46bd      	mov	sp, r7
 8007f56:	bd80      	pop	{r7, pc}
 8007f58:	200020c0 	.word	0x200020c0

08007f5c <SEGGER_SYSVIEW_OnTaskCreate>:
*    to creating a task in the OS.
*
*  Parameters
*    TaskId        - Task ID of created task.
*/
void SEGGER_SYSVIEW_OnTaskCreate(U32 TaskId) {
 8007f5c:	b580      	push	{r7, lr}
 8007f5e:	b088      	sub	sp, #32
 8007f60:	af00      	add	r7, sp, #0
 8007f62:	6078      	str	r0, [r7, #4]
  U8* pPayload;
  U8* pPayloadStart;
  RECORD_START(SEGGER_SYSVIEW_INFO_SIZE + SEGGER_SYSVIEW_QUANTA_U32);
 8007f64:	f3ef 8311 	mrs	r3, BASEPRI
 8007f68:	f04f 0120 	mov.w	r1, #32
 8007f6c:	f381 8811 	msr	BASEPRI, r1
 8007f70:	617b      	str	r3, [r7, #20]
 8007f72:	4819      	ldr	r0, [pc, #100]	; (8007fd8 <SEGGER_SYSVIEW_OnTaskCreate+0x7c>)
 8007f74:	f7ff f9c0 	bl	80072f8 <_PreparePacket>
 8007f78:	6138      	str	r0, [r7, #16]
  //
  pPayload = pPayloadStart;
 8007f7a:	693b      	ldr	r3, [r7, #16]
 8007f7c:	60fb      	str	r3, [r7, #12]
  TaskId = SHRINK_ID(TaskId);
 8007f7e:	4b17      	ldr	r3, [pc, #92]	; (8007fdc <SEGGER_SYSVIEW_OnTaskCreate+0x80>)
 8007f80:	691b      	ldr	r3, [r3, #16]
 8007f82:	687a      	ldr	r2, [r7, #4]
 8007f84:	1ad3      	subs	r3, r2, r3
 8007f86:	607b      	str	r3, [r7, #4]
  ENCODE_U32(pPayload, TaskId);
 8007f88:	68fb      	ldr	r3, [r7, #12]
 8007f8a:	61fb      	str	r3, [r7, #28]
 8007f8c:	687b      	ldr	r3, [r7, #4]
 8007f8e:	61bb      	str	r3, [r7, #24]
 8007f90:	e00b      	b.n	8007faa <SEGGER_SYSVIEW_OnTaskCreate+0x4e>
 8007f92:	69bb      	ldr	r3, [r7, #24]
 8007f94:	b2da      	uxtb	r2, r3
 8007f96:	69fb      	ldr	r3, [r7, #28]
 8007f98:	1c59      	adds	r1, r3, #1
 8007f9a:	61f9      	str	r1, [r7, #28]
 8007f9c:	f062 027f 	orn	r2, r2, #127	; 0x7f
 8007fa0:	b2d2      	uxtb	r2, r2
 8007fa2:	701a      	strb	r2, [r3, #0]
 8007fa4:	69bb      	ldr	r3, [r7, #24]
 8007fa6:	09db      	lsrs	r3, r3, #7
 8007fa8:	61bb      	str	r3, [r7, #24]
 8007faa:	69bb      	ldr	r3, [r7, #24]
 8007fac:	2b7f      	cmp	r3, #127	; 0x7f
 8007fae:	d8f0      	bhi.n	8007f92 <SEGGER_SYSVIEW_OnTaskCreate+0x36>
 8007fb0:	69fb      	ldr	r3, [r7, #28]
 8007fb2:	1c5a      	adds	r2, r3, #1
 8007fb4:	61fa      	str	r2, [r7, #28]
 8007fb6:	69ba      	ldr	r2, [r7, #24]
 8007fb8:	b2d2      	uxtb	r2, r2
 8007fba:	701a      	strb	r2, [r3, #0]
 8007fbc:	69fb      	ldr	r3, [r7, #28]
 8007fbe:	60fb      	str	r3, [r7, #12]
  _SendPacket(pPayloadStart, pPayload, SYSVIEW_EVTID_TASK_CREATE);
 8007fc0:	2208      	movs	r2, #8
 8007fc2:	68f9      	ldr	r1, [r7, #12]
 8007fc4:	6938      	ldr	r0, [r7, #16]
 8007fc6:	f7ff fa81 	bl	80074cc <_SendPacket>
  RECORD_END();
 8007fca:	697b      	ldr	r3, [r7, #20]
 8007fcc:	f383 8811 	msr	BASEPRI, r3
}
 8007fd0:	bf00      	nop
 8007fd2:	3720      	adds	r7, #32
 8007fd4:	46bd      	mov	sp, r7
 8007fd6:	bd80      	pop	{r7, pc}
 8007fd8:	200020c0 	.word	0x200020c0
 8007fdc:	20002090 	.word	0x20002090

08007fe0 <SEGGER_SYSVIEW_OnTaskStartExec>:
*    when it is ready to execute.
*
*  Parameters
*    TaskId - Task ID of task that started to execute.
*/
void SEGGER_SYSVIEW_OnTaskStartExec(U32 TaskId) {
 8007fe0:	b580      	push	{r7, lr}
 8007fe2:	b088      	sub	sp, #32
 8007fe4:	af00      	add	r7, sp, #0
 8007fe6:	6078      	str	r0, [r7, #4]
  U8* pPayload;
  U8* pPayloadStart;
  RECORD_START(SEGGER_SYSVIEW_INFO_SIZE + SEGGER_SYSVIEW_QUANTA_U32);
 8007fe8:	f3ef 8311 	mrs	r3, BASEPRI
 8007fec:	f04f 0120 	mov.w	r1, #32
 8007ff0:	f381 8811 	msr	BASEPRI, r1
 8007ff4:	617b      	str	r3, [r7, #20]
 8007ff6:	4819      	ldr	r0, [pc, #100]	; (800805c <SEGGER_SYSVIEW_OnTaskStartExec+0x7c>)
 8007ff8:	f7ff f97e 	bl	80072f8 <_PreparePacket>
 8007ffc:	6138      	str	r0, [r7, #16]
  //
  pPayload = pPayloadStart;
 8007ffe:	693b      	ldr	r3, [r7, #16]
 8008000:	60fb      	str	r3, [r7, #12]
  TaskId = SHRINK_ID(TaskId);
 8008002:	4b17      	ldr	r3, [pc, #92]	; (8008060 <SEGGER_SYSVIEW_OnTaskStartExec+0x80>)
 8008004:	691b      	ldr	r3, [r3, #16]
 8008006:	687a      	ldr	r2, [r7, #4]
 8008008:	1ad3      	subs	r3, r2, r3
 800800a:	607b      	str	r3, [r7, #4]
  ENCODE_U32(pPayload, TaskId);
 800800c:	68fb      	ldr	r3, [r7, #12]
 800800e:	61fb      	str	r3, [r7, #28]
 8008010:	687b      	ldr	r3, [r7, #4]
 8008012:	61bb      	str	r3, [r7, #24]
 8008014:	e00b      	b.n	800802e <SEGGER_SYSVIEW_OnTaskStartExec+0x4e>
 8008016:	69bb      	ldr	r3, [r7, #24]
 8008018:	b2da      	uxtb	r2, r3
 800801a:	69fb      	ldr	r3, [r7, #28]
 800801c:	1c59      	adds	r1, r3, #1
 800801e:	61f9      	str	r1, [r7, #28]
 8008020:	f062 027f 	orn	r2, r2, #127	; 0x7f
 8008024:	b2d2      	uxtb	r2, r2
 8008026:	701a      	strb	r2, [r3, #0]
 8008028:	69bb      	ldr	r3, [r7, #24]
 800802a:	09db      	lsrs	r3, r3, #7
 800802c:	61bb      	str	r3, [r7, #24]
 800802e:	69bb      	ldr	r3, [r7, #24]
 8008030:	2b7f      	cmp	r3, #127	; 0x7f
 8008032:	d8f0      	bhi.n	8008016 <SEGGER_SYSVIEW_OnTaskStartExec+0x36>
 8008034:	69fb      	ldr	r3, [r7, #28]
 8008036:	1c5a      	adds	r2, r3, #1
 8008038:	61fa      	str	r2, [r7, #28]
 800803a:	69ba      	ldr	r2, [r7, #24]
 800803c:	b2d2      	uxtb	r2, r2
 800803e:	701a      	strb	r2, [r3, #0]
 8008040:	69fb      	ldr	r3, [r7, #28]
 8008042:	60fb      	str	r3, [r7, #12]
  _SendPacket(pPayloadStart, pPayload, SYSVIEW_EVTID_TASK_START_EXEC);
 8008044:	2204      	movs	r2, #4
 8008046:	68f9      	ldr	r1, [r7, #12]
 8008048:	6938      	ldr	r0, [r7, #16]
 800804a:	f7ff fa3f 	bl	80074cc <_SendPacket>
  RECORD_END();
 800804e:	697b      	ldr	r3, [r7, #20]
 8008050:	f383 8811 	msr	BASEPRI, r3
}
 8008054:	bf00      	nop
 8008056:	3720      	adds	r7, #32
 8008058:	46bd      	mov	sp, r7
 800805a:	bd80      	pop	{r7, pc}
 800805c:	200020c0 	.word	0x200020c0
 8008060:	20002090 	.word	0x20002090

08008064 <SEGGER_SYSVIEW_OnTaskStartReady>:
*    Record a Task Start Ready event.
*
*  Parameters
*    TaskId - Task ID of task that started to execute.
*/
void SEGGER_SYSVIEW_OnTaskStartReady(U32 TaskId) {
 8008064:	b580      	push	{r7, lr}
 8008066:	b088      	sub	sp, #32
 8008068:	af00      	add	r7, sp, #0
 800806a:	6078      	str	r0, [r7, #4]
  U8* pPayload;
  U8* pPayloadStart;
  RECORD_START(SEGGER_SYSVIEW_INFO_SIZE + SEGGER_SYSVIEW_QUANTA_U32);
 800806c:	f3ef 8311 	mrs	r3, BASEPRI
 8008070:	f04f 0120 	mov.w	r1, #32
 8008074:	f381 8811 	msr	BASEPRI, r1
 8008078:	617b      	str	r3, [r7, #20]
 800807a:	4819      	ldr	r0, [pc, #100]	; (80080e0 <SEGGER_SYSVIEW_OnTaskStartReady+0x7c>)
 800807c:	f7ff f93c 	bl	80072f8 <_PreparePacket>
 8008080:	6138      	str	r0, [r7, #16]
  //
  pPayload = pPayloadStart;
 8008082:	693b      	ldr	r3, [r7, #16]
 8008084:	60fb      	str	r3, [r7, #12]
  TaskId = SHRINK_ID(TaskId);
 8008086:	4b17      	ldr	r3, [pc, #92]	; (80080e4 <SEGGER_SYSVIEW_OnTaskStartReady+0x80>)
 8008088:	691b      	ldr	r3, [r3, #16]
 800808a:	687a      	ldr	r2, [r7, #4]
 800808c:	1ad3      	subs	r3, r2, r3
 800808e:	607b      	str	r3, [r7, #4]
  ENCODE_U32(pPayload, TaskId);
 8008090:	68fb      	ldr	r3, [r7, #12]
 8008092:	61fb      	str	r3, [r7, #28]
 8008094:	687b      	ldr	r3, [r7, #4]
 8008096:	61bb      	str	r3, [r7, #24]
 8008098:	e00b      	b.n	80080b2 <SEGGER_SYSVIEW_OnTaskStartReady+0x4e>
 800809a:	69bb      	ldr	r3, [r7, #24]
 800809c:	b2da      	uxtb	r2, r3
 800809e:	69fb      	ldr	r3, [r7, #28]
 80080a0:	1c59      	adds	r1, r3, #1
 80080a2:	61f9      	str	r1, [r7, #28]
 80080a4:	f062 027f 	orn	r2, r2, #127	; 0x7f
 80080a8:	b2d2      	uxtb	r2, r2
 80080aa:	701a      	strb	r2, [r3, #0]
 80080ac:	69bb      	ldr	r3, [r7, #24]
 80080ae:	09db      	lsrs	r3, r3, #7
 80080b0:	61bb      	str	r3, [r7, #24]
 80080b2:	69bb      	ldr	r3, [r7, #24]
 80080b4:	2b7f      	cmp	r3, #127	; 0x7f
 80080b6:	d8f0      	bhi.n	800809a <SEGGER_SYSVIEW_OnTaskStartReady+0x36>
 80080b8:	69fb      	ldr	r3, [r7, #28]
 80080ba:	1c5a      	adds	r2, r3, #1
 80080bc:	61fa      	str	r2, [r7, #28]
 80080be:	69ba      	ldr	r2, [r7, #24]
 80080c0:	b2d2      	uxtb	r2, r2
 80080c2:	701a      	strb	r2, [r3, #0]
 80080c4:	69fb      	ldr	r3, [r7, #28]
 80080c6:	60fb      	str	r3, [r7, #12]
  _SendPacket(pPayloadStart, pPayload, SYSVIEW_EVTID_TASK_START_READY);
 80080c8:	2206      	movs	r2, #6
 80080ca:	68f9      	ldr	r1, [r7, #12]
 80080cc:	6938      	ldr	r0, [r7, #16]
 80080ce:	f7ff f9fd 	bl	80074cc <_SendPacket>
  RECORD_END();
 80080d2:	697b      	ldr	r3, [r7, #20]
 80080d4:	f383 8811 	msr	BASEPRI, r3
}
 80080d8:	bf00      	nop
 80080da:	3720      	adds	r7, #32
 80080dc:	46bd      	mov	sp, r7
 80080de:	bd80      	pop	{r7, pc}
 80080e0:	200020c0 	.word	0x200020c0
 80080e4:	20002090 	.word	0x20002090

080080e8 <SEGGER_SYSVIEW_OnTaskStopReady>:
*
*  Parameters
*    TaskId - Task ID of task that completed execution.
*    Cause  - Reason for task to stop (i.e. Idle/Sleep)
*/
void SEGGER_SYSVIEW_OnTaskStopReady(U32 TaskId, unsigned int Cause) {
 80080e8:	b580      	push	{r7, lr}
 80080ea:	b08a      	sub	sp, #40	; 0x28
 80080ec:	af00      	add	r7, sp, #0
 80080ee:	6078      	str	r0, [r7, #4]
 80080f0:	6039      	str	r1, [r7, #0]
  U8* pPayload;
  U8* pPayloadStart;
  RECORD_START(SEGGER_SYSVIEW_INFO_SIZE + 2 * SEGGER_SYSVIEW_QUANTA_U32);
 80080f2:	f3ef 8311 	mrs	r3, BASEPRI
 80080f6:	f04f 0120 	mov.w	r1, #32
 80080fa:	f381 8811 	msr	BASEPRI, r1
 80080fe:	617b      	str	r3, [r7, #20]
 8008100:	4827      	ldr	r0, [pc, #156]	; (80081a0 <SEGGER_SYSVIEW_OnTaskStopReady+0xb8>)
 8008102:	f7ff f8f9 	bl	80072f8 <_PreparePacket>
 8008106:	6138      	str	r0, [r7, #16]
  //
  pPayload = pPayloadStart;
 8008108:	693b      	ldr	r3, [r7, #16]
 800810a:	60fb      	str	r3, [r7, #12]
  TaskId = SHRINK_ID(TaskId);
 800810c:	4b25      	ldr	r3, [pc, #148]	; (80081a4 <SEGGER_SYSVIEW_OnTaskStopReady+0xbc>)
 800810e:	691b      	ldr	r3, [r3, #16]
 8008110:	687a      	ldr	r2, [r7, #4]
 8008112:	1ad3      	subs	r3, r2, r3
 8008114:	607b      	str	r3, [r7, #4]
  ENCODE_U32(pPayload, TaskId);
 8008116:	68fb      	ldr	r3, [r7, #12]
 8008118:	627b      	str	r3, [r7, #36]	; 0x24
 800811a:	687b      	ldr	r3, [r7, #4]
 800811c:	623b      	str	r3, [r7, #32]
 800811e:	e00b      	b.n	8008138 <SEGGER_SYSVIEW_OnTaskStopReady+0x50>
 8008120:	6a3b      	ldr	r3, [r7, #32]
 8008122:	b2da      	uxtb	r2, r3
 8008124:	6a7b      	ldr	r3, [r7, #36]	; 0x24
 8008126:	1c59      	adds	r1, r3, #1
 8008128:	6279      	str	r1, [r7, #36]	; 0x24
 800812a:	f062 027f 	orn	r2, r2, #127	; 0x7f
 800812e:	b2d2      	uxtb	r2, r2
 8008130:	701a      	strb	r2, [r3, #0]
 8008132:	6a3b      	ldr	r3, [r7, #32]
 8008134:	09db      	lsrs	r3, r3, #7
 8008136:	623b      	str	r3, [r7, #32]
 8008138:	6a3b      	ldr	r3, [r7, #32]
 800813a:	2b7f      	cmp	r3, #127	; 0x7f
 800813c:	d8f0      	bhi.n	8008120 <SEGGER_SYSVIEW_OnTaskStopReady+0x38>
 800813e:	6a7b      	ldr	r3, [r7, #36]	; 0x24
 8008140:	1c5a      	adds	r2, r3, #1
 8008142:	627a      	str	r2, [r7, #36]	; 0x24
 8008144:	6a3a      	ldr	r2, [r7, #32]
 8008146:	b2d2      	uxtb	r2, r2
 8008148:	701a      	strb	r2, [r3, #0]
 800814a:	6a7b      	ldr	r3, [r7, #36]	; 0x24
 800814c:	60fb      	str	r3, [r7, #12]
  ENCODE_U32(pPayload, Cause);
 800814e:	68fb      	ldr	r3, [r7, #12]
 8008150:	61fb      	str	r3, [r7, #28]
 8008152:	683b      	ldr	r3, [r7, #0]
 8008154:	61bb      	str	r3, [r7, #24]
 8008156:	e00b      	b.n	8008170 <SEGGER_SYSVIEW_OnTaskStopReady+0x88>
 8008158:	69bb      	ldr	r3, [r7, #24]
 800815a:	b2da      	uxtb	r2, r3
 800815c:	69fb      	ldr	r3, [r7, #28]
 800815e:	1c59      	adds	r1, r3, #1
 8008160:	61f9      	str	r1, [r7, #28]
 8008162:	f062 027f 	orn	r2, r2, #127	; 0x7f
 8008166:	b2d2      	uxtb	r2, r2
 8008168:	701a      	strb	r2, [r3, #0]
 800816a:	69bb      	ldr	r3, [r7, #24]
 800816c:	09db      	lsrs	r3, r3, #7
 800816e:	61bb      	str	r3, [r7, #24]
 8008170:	69bb      	ldr	r3, [r7, #24]
 8008172:	2b7f      	cmp	r3, #127	; 0x7f
 8008174:	d8f0      	bhi.n	8008158 <SEGGER_SYSVIEW_OnTaskStopReady+0x70>
 8008176:	69fb      	ldr	r3, [r7, #28]
 8008178:	1c5a      	adds	r2, r3, #1
 800817a:	61fa      	str	r2, [r7, #28]
 800817c:	69ba      	ldr	r2, [r7, #24]
 800817e:	b2d2      	uxtb	r2, r2
 8008180:	701a      	strb	r2, [r3, #0]
 8008182:	69fb      	ldr	r3, [r7, #28]
 8008184:	60fb      	str	r3, [r7, #12]
  _SendPacket(pPayloadStart, pPayload, SYSVIEW_EVTID_TASK_STOP_READY);
 8008186:	2207      	movs	r2, #7
 8008188:	68f9      	ldr	r1, [r7, #12]
 800818a:	6938      	ldr	r0, [r7, #16]
 800818c:	f7ff f99e 	bl	80074cc <_SendPacket>
  RECORD_END();
 8008190:	697b      	ldr	r3, [r7, #20]
 8008192:	f383 8811 	msr	BASEPRI, r3
}
 8008196:	bf00      	nop
 8008198:	3728      	adds	r7, #40	; 0x28
 800819a:	46bd      	mov	sp, r7
 800819c:	bd80      	pop	{r7, pc}
 800819e:	bf00      	nop
 80081a0:	200020c0 	.word	0x200020c0
 80081a4:	20002090 	.word	0x20002090

080081a8 <SEGGER_SYSVIEW_ShrinkId>:
*     SEGGER_SYSVIEW_ID_BASE: Lowest Id reported by the application.
*       (i.e. 0x20000000 when all Ids are an address in this RAM)
*     SEGGER_SYSVIEW_ID_SHIFT: Number of bits to shift the Id to
*       save bandwidth. (i.e. 2 when Ids are 4 byte aligned)
*/
U32 SEGGER_SYSVIEW_ShrinkId(U32 Id) {
 80081a8:	b480      	push	{r7}
 80081aa:	b083      	sub	sp, #12
 80081ac:	af00      	add	r7, sp, #0
 80081ae:	6078      	str	r0, [r7, #4]
  return SHRINK_ID(Id);
 80081b0:	4b04      	ldr	r3, [pc, #16]	; (80081c4 <SEGGER_SYSVIEW_ShrinkId+0x1c>)
 80081b2:	691b      	ldr	r3, [r3, #16]
 80081b4:	687a      	ldr	r2, [r7, #4]
 80081b6:	1ad3      	subs	r3, r2, r3
}
 80081b8:	4618      	mov	r0, r3
 80081ba:	370c      	adds	r7, #12
 80081bc:	46bd      	mov	sp, r7
 80081be:	bc80      	pop	{r7}
 80081c0:	4770      	bx	lr
 80081c2:	bf00      	nop
 80081c4:	20002090 	.word	0x20002090

080081c8 <SEGGER_SYSVIEW_SendModule>:
*    Sends the information of a registered module to the host.
*
*  Parameters
*    ModuleId   - Id of the requested module.
*/
void SEGGER_SYSVIEW_SendModule(U8 ModuleId) {
 80081c8:	b580      	push	{r7, lr}
 80081ca:	b08c      	sub	sp, #48	; 0x30
 80081cc:	af00      	add	r7, sp, #0
 80081ce:	4603      	mov	r3, r0
 80081d0:	71fb      	strb	r3, [r7, #7]
  SEGGER_SYSVIEW_MODULE* pModule;
  U32 n;

  if (_pFirstModule != 0) {
 80081d2:	4b3b      	ldr	r3, [pc, #236]	; (80082c0 <SEGGER_SYSVIEW_SendModule+0xf8>)
 80081d4:	681b      	ldr	r3, [r3, #0]
 80081d6:	2b00      	cmp	r3, #0
 80081d8:	d06d      	beq.n	80082b6 <SEGGER_SYSVIEW_SendModule+0xee>
    pModule = _pFirstModule;
 80081da:	4b39      	ldr	r3, [pc, #228]	; (80082c0 <SEGGER_SYSVIEW_SendModule+0xf8>)
 80081dc:	681b      	ldr	r3, [r3, #0]
 80081de:	62fb      	str	r3, [r7, #44]	; 0x2c
    for (n = 0; n < ModuleId; n++) {
 80081e0:	2300      	movs	r3, #0
 80081e2:	62bb      	str	r3, [r7, #40]	; 0x28
 80081e4:	e008      	b.n	80081f8 <SEGGER_SYSVIEW_SendModule+0x30>
      pModule = pModule->pNext;
 80081e6:	6afb      	ldr	r3, [r7, #44]	; 0x2c
 80081e8:	691b      	ldr	r3, [r3, #16]
 80081ea:	62fb      	str	r3, [r7, #44]	; 0x2c
      if (pModule == 0) {
 80081ec:	6afb      	ldr	r3, [r7, #44]	; 0x2c
 80081ee:	2b00      	cmp	r3, #0
 80081f0:	d007      	beq.n	8008202 <SEGGER_SYSVIEW_SendModule+0x3a>
    for (n = 0; n < ModuleId; n++) {
 80081f2:	6abb      	ldr	r3, [r7, #40]	; 0x28
 80081f4:	3301      	adds	r3, #1
 80081f6:	62bb      	str	r3, [r7, #40]	; 0x28
 80081f8:	79fb      	ldrb	r3, [r7, #7]
 80081fa:	6aba      	ldr	r2, [r7, #40]	; 0x28
 80081fc:	429a      	cmp	r2, r3
 80081fe:	d3f2      	bcc.n	80081e6 <SEGGER_SYSVIEW_SendModule+0x1e>
 8008200:	e000      	b.n	8008204 <SEGGER_SYSVIEW_SendModule+0x3c>
        break;
 8008202:	bf00      	nop
      }
    }
    if (pModule != 0) {
 8008204:	6afb      	ldr	r3, [r7, #44]	; 0x2c
 8008206:	2b00      	cmp	r3, #0
 8008208:	d055      	beq.n	80082b6 <SEGGER_SYSVIEW_SendModule+0xee>
      U8* pPayload;
      U8* pPayloadStart;
      RECORD_START(SEGGER_SYSVIEW_INFO_SIZE + 2 * SEGGER_SYSVIEW_QUANTA_U32 + 1 + SEGGER_SYSVIEW_MAX_STRING_LEN);
 800820a:	f3ef 8311 	mrs	r3, BASEPRI
 800820e:	f04f 0120 	mov.w	r1, #32
 8008212:	f381 8811 	msr	BASEPRI, r1
 8008216:	617b      	str	r3, [r7, #20]
 8008218:	482a      	ldr	r0, [pc, #168]	; (80082c4 <SEGGER_SYSVIEW_SendModule+0xfc>)
 800821a:	f7ff f86d 	bl	80072f8 <_PreparePacket>
 800821e:	6138      	str	r0, [r7, #16]
      //
      pPayload = pPayloadStart;
 8008220:	693b      	ldr	r3, [r7, #16]
 8008222:	60fb      	str	r3, [r7, #12]
      //
      // Send module description
      // Send event offset and number of events
      //
      ENCODE_U32(pPayload, ModuleId);
 8008224:	68fb      	ldr	r3, [r7, #12]
 8008226:	627b      	str	r3, [r7, #36]	; 0x24
 8008228:	79fb      	ldrb	r3, [r7, #7]
 800822a:	623b      	str	r3, [r7, #32]
 800822c:	e00b      	b.n	8008246 <SEGGER_SYSVIEW_SendModule+0x7e>
 800822e:	6a3b      	ldr	r3, [r7, #32]
 8008230:	b2da      	uxtb	r2, r3
 8008232:	6a7b      	ldr	r3, [r7, #36]	; 0x24
 8008234:	1c59      	adds	r1, r3, #1
 8008236:	6279      	str	r1, [r7, #36]	; 0x24
 8008238:	f062 027f 	orn	r2, r2, #127	; 0x7f
 800823c:	b2d2      	uxtb	r2, r2
 800823e:	701a      	strb	r2, [r3, #0]
 8008240:	6a3b      	ldr	r3, [r7, #32]
 8008242:	09db      	lsrs	r3, r3, #7
 8008244:	623b      	str	r3, [r7, #32]
 8008246:	6a3b      	ldr	r3, [r7, #32]
 8008248:	2b7f      	cmp	r3, #127	; 0x7f
 800824a:	d8f0      	bhi.n	800822e <SEGGER_SYSVIEW_SendModule+0x66>
 800824c:	6a7b      	ldr	r3, [r7, #36]	; 0x24
 800824e:	1c5a      	adds	r2, r3, #1
 8008250:	627a      	str	r2, [r7, #36]	; 0x24
 8008252:	6a3a      	ldr	r2, [r7, #32]
 8008254:	b2d2      	uxtb	r2, r2
 8008256:	701a      	strb	r2, [r3, #0]
 8008258:	6a7b      	ldr	r3, [r7, #36]	; 0x24
 800825a:	60fb      	str	r3, [r7, #12]
      ENCODE_U32(pPayload, (pModule->EventOffset));
 800825c:	68fb      	ldr	r3, [r7, #12]
 800825e:	61fb      	str	r3, [r7, #28]
 8008260:	6afb      	ldr	r3, [r7, #44]	; 0x2c
 8008262:	689b      	ldr	r3, [r3, #8]
 8008264:	61bb      	str	r3, [r7, #24]
 8008266:	e00b      	b.n	8008280 <SEGGER_SYSVIEW_SendModule+0xb8>
 8008268:	69bb      	ldr	r3, [r7, #24]
 800826a:	b2da      	uxtb	r2, r3
 800826c:	69fb      	ldr	r3, [r7, #28]
 800826e:	1c59      	adds	r1, r3, #1
 8008270:	61f9      	str	r1, [r7, #28]
 8008272:	f062 027f 	orn	r2, r2, #127	; 0x7f
 8008276:	b2d2      	uxtb	r2, r2
 8008278:	701a      	strb	r2, [r3, #0]
 800827a:	69bb      	ldr	r3, [r7, #24]
 800827c:	09db      	lsrs	r3, r3, #7
 800827e:	61bb      	str	r3, [r7, #24]
 8008280:	69bb      	ldr	r3, [r7, #24]
 8008282:	2b7f      	cmp	r3, #127	; 0x7f
 8008284:	d8f0      	bhi.n	8008268 <SEGGER_SYSVIEW_SendModule+0xa0>
 8008286:	69fb      	ldr	r3, [r7, #28]
 8008288:	1c5a      	adds	r2, r3, #1
 800828a:	61fa      	str	r2, [r7, #28]
 800828c:	69ba      	ldr	r2, [r7, #24]
 800828e:	b2d2      	uxtb	r2, r2
 8008290:	701a      	strb	r2, [r3, #0]
 8008292:	69fb      	ldr	r3, [r7, #28]
 8008294:	60fb      	str	r3, [r7, #12]
      pPayload = _EncodeStr(pPayload, pModule->sModule, SEGGER_SYSVIEW_MAX_STRING_LEN);
 8008296:	6afb      	ldr	r3, [r7, #44]	; 0x2c
 8008298:	681b      	ldr	r3, [r3, #0]
 800829a:	2280      	movs	r2, #128	; 0x80
 800829c:	4619      	mov	r1, r3
 800829e:	68f8      	ldr	r0, [r7, #12]
 80082a0:	f7fe ffde 	bl	8007260 <_EncodeStr>
 80082a4:	60f8      	str	r0, [r7, #12]
      _SendPacket(pPayloadStart, pPayload, SYSVIEW_EVTID_MODULEDESC);
 80082a6:	2216      	movs	r2, #22
 80082a8:	68f9      	ldr	r1, [r7, #12]
 80082aa:	6938      	ldr	r0, [r7, #16]
 80082ac:	f7ff f90e 	bl	80074cc <_SendPacket>
      RECORD_END();
 80082b0:	697b      	ldr	r3, [r7, #20]
 80082b2:	f383 8811 	msr	BASEPRI, r3
    }
  }
}
 80082b6:	bf00      	nop
 80082b8:	3730      	adds	r7, #48	; 0x30
 80082ba:	46bd      	mov	sp, r7
 80082bc:	bd80      	pop	{r7, pc}
 80082be:	bf00      	nop
 80082c0:	200020b8 	.word	0x200020b8
 80082c4:	200020c0 	.word	0x200020c0

080082c8 <SEGGER_SYSVIEW_SendModuleDescription>:
*
*  Function description
*    Triggers a send of the registered module descriptions.
*
*/
void SEGGER_SYSVIEW_SendModuleDescription(void) {
 80082c8:	b580      	push	{r7, lr}
 80082ca:	b082      	sub	sp, #8
 80082cc:	af00      	add	r7, sp, #0
  SEGGER_SYSVIEW_MODULE* pModule;

  if (_pFirstModule != 0) {
 80082ce:	4b0c      	ldr	r3, [pc, #48]	; (8008300 <SEGGER_SYSVIEW_SendModuleDescription+0x38>)
 80082d0:	681b      	ldr	r3, [r3, #0]
 80082d2:	2b00      	cmp	r3, #0
 80082d4:	d00f      	beq.n	80082f6 <SEGGER_SYSVIEW_SendModuleDescription+0x2e>
    pModule = _pFirstModule;
 80082d6:	4b0a      	ldr	r3, [pc, #40]	; (8008300 <SEGGER_SYSVIEW_SendModuleDescription+0x38>)
 80082d8:	681b      	ldr	r3, [r3, #0]
 80082da:	607b      	str	r3, [r7, #4]
    do {
      if (pModule->pfSendModuleDesc) {
 80082dc:	687b      	ldr	r3, [r7, #4]
 80082de:	68db      	ldr	r3, [r3, #12]
 80082e0:	2b00      	cmp	r3, #0
 80082e2:	d002      	beq.n	80082ea <SEGGER_SYSVIEW_SendModuleDescription+0x22>
        pModule->pfSendModuleDesc();
 80082e4:	687b      	ldr	r3, [r7, #4]
 80082e6:	68db      	ldr	r3, [r3, #12]
 80082e8:	4798      	blx	r3
      }
      pModule = pModule->pNext;
 80082ea:	687b      	ldr	r3, [r7, #4]
 80082ec:	691b      	ldr	r3, [r3, #16]
 80082ee:	607b      	str	r3, [r7, #4]
    } while (pModule);
 80082f0:	687b      	ldr	r3, [r7, #4]
 80082f2:	2b00      	cmp	r3, #0
 80082f4:	d1f2      	bne.n	80082dc <SEGGER_SYSVIEW_SendModuleDescription+0x14>
  }
}
 80082f6:	bf00      	nop
 80082f8:	3708      	adds	r7, #8
 80082fa:	46bd      	mov	sp, r7
 80082fc:	bd80      	pop	{r7, pc}
 80082fe:	bf00      	nop
 8008300:	200020b8 	.word	0x200020b8

08008304 <SEGGER_SYSVIEW_SendNumModules>:
*       SEGGER_SYSVIEW_SendNumModules()
*
*  Function description
*    Send the number of registered modules to the host.
*/
void SEGGER_SYSVIEW_SendNumModules(void) {
 8008304:	b580      	push	{r7, lr}
 8008306:	b086      	sub	sp, #24
 8008308:	af00      	add	r7, sp, #0
  U8* pPayload;
  U8* pPayloadStart;
  RECORD_START(SEGGER_SYSVIEW_INFO_SIZE + 2*SEGGER_SYSVIEW_QUANTA_U32);
 800830a:	f3ef 8311 	mrs	r3, BASEPRI
 800830e:	f04f 0120 	mov.w	r1, #32
 8008312:	f381 8811 	msr	BASEPRI, r1
 8008316:	60fb      	str	r3, [r7, #12]
 8008318:	4817      	ldr	r0, [pc, #92]	; (8008378 <SEGGER_SYSVIEW_SendNumModules+0x74>)
 800831a:	f7fe ffed 	bl	80072f8 <_PreparePacket>
 800831e:	60b8      	str	r0, [r7, #8]
  pPayload = pPayloadStart;
 8008320:	68bb      	ldr	r3, [r7, #8]
 8008322:	607b      	str	r3, [r7, #4]
  ENCODE_U32(pPayload, _NumModules);
 8008324:	687b      	ldr	r3, [r7, #4]
 8008326:	617b      	str	r3, [r7, #20]
 8008328:	4b14      	ldr	r3, [pc, #80]	; (800837c <SEGGER_SYSVIEW_SendNumModules+0x78>)
 800832a:	781b      	ldrb	r3, [r3, #0]
 800832c:	613b      	str	r3, [r7, #16]
 800832e:	e00b      	b.n	8008348 <SEGGER_SYSVIEW_SendNumModules+0x44>
 8008330:	693b      	ldr	r3, [r7, #16]
 8008332:	b2da      	uxtb	r2, r3
 8008334:	697b      	ldr	r3, [r7, #20]
 8008336:	1c59      	adds	r1, r3, #1
 8008338:	6179      	str	r1, [r7, #20]
 800833a:	f062 027f 	orn	r2, r2, #127	; 0x7f
 800833e:	b2d2      	uxtb	r2, r2
 8008340:	701a      	strb	r2, [r3, #0]
 8008342:	693b      	ldr	r3, [r7, #16]
 8008344:	09db      	lsrs	r3, r3, #7
 8008346:	613b      	str	r3, [r7, #16]
 8008348:	693b      	ldr	r3, [r7, #16]
 800834a:	2b7f      	cmp	r3, #127	; 0x7f
 800834c:	d8f0      	bhi.n	8008330 <SEGGER_SYSVIEW_SendNumModules+0x2c>
 800834e:	697b      	ldr	r3, [r7, #20]
 8008350:	1c5a      	adds	r2, r3, #1
 8008352:	617a      	str	r2, [r7, #20]
 8008354:	693a      	ldr	r2, [r7, #16]
 8008356:	b2d2      	uxtb	r2, r2
 8008358:	701a      	strb	r2, [r3, #0]
 800835a:	697b      	ldr	r3, [r7, #20]
 800835c:	607b      	str	r3, [r7, #4]
  _SendPacket(pPayloadStart, pPayload, SYSVIEW_EVTID_NUMMODULES);
 800835e:	221b      	movs	r2, #27
 8008360:	6879      	ldr	r1, [r7, #4]
 8008362:	68b8      	ldr	r0, [r7, #8]
 8008364:	f7ff f8b2 	bl	80074cc <_SendPacket>
  RECORD_END();
 8008368:	68fb      	ldr	r3, [r7, #12]
 800836a:	f383 8811 	msr	BASEPRI, r3
}
 800836e:	bf00      	nop
 8008370:	3718      	adds	r7, #24
 8008372:	46bd      	mov	sp, r7
 8008374:	bd80      	pop	{r7, pc}
 8008376:	bf00      	nop
 8008378:	200020c0 	.word	0x200020c0
 800837c:	200020bc 	.word	0x200020bc

08008380 <SEGGER_SYSVIEW_Warn>:
*    Print a warning string to the host.
*
*  Parameters
*    s        - String to sent.
*/
void SEGGER_SYSVIEW_Warn(const char* s) {
 8008380:	b580      	push	{r7, lr}
 8008382:	b08a      	sub	sp, #40	; 0x28
 8008384:	af00      	add	r7, sp, #0
 8008386:	6078      	str	r0, [r7, #4]
  U8* pPayload;
  U8* pPayloadStart;
  RECORD_START(SEGGER_SYSVIEW_INFO_SIZE + 2 * SEGGER_SYSVIEW_QUANTA_U32 + SEGGER_SYSVIEW_MAX_STRING_LEN);
 8008388:	f3ef 8311 	mrs	r3, BASEPRI
 800838c:	f04f 0120 	mov.w	r1, #32
 8008390:	f381 8811 	msr	BASEPRI, r1
 8008394:	617b      	str	r3, [r7, #20]
 8008396:	4827      	ldr	r0, [pc, #156]	; (8008434 <SEGGER_SYSVIEW_Warn+0xb4>)
 8008398:	f7fe ffae 	bl	80072f8 <_PreparePacket>
 800839c:	6138      	str	r0, [r7, #16]
  //
  pPayload = _EncodeStr(pPayloadStart, s, SEGGER_SYSVIEW_MAX_STRING_LEN);
 800839e:	2280      	movs	r2, #128	; 0x80
 80083a0:	6879      	ldr	r1, [r7, #4]
 80083a2:	6938      	ldr	r0, [r7, #16]
 80083a4:	f7fe ff5c 	bl	8007260 <_EncodeStr>
 80083a8:	60f8      	str	r0, [r7, #12]
  ENCODE_U32(pPayload, SEGGER_SYSVIEW_WARNING);
 80083aa:	68fb      	ldr	r3, [r7, #12]
 80083ac:	627b      	str	r3, [r7, #36]	; 0x24
 80083ae:	2301      	movs	r3, #1
 80083b0:	623b      	str	r3, [r7, #32]
 80083b2:	e00b      	b.n	80083cc <SEGGER_SYSVIEW_Warn+0x4c>
 80083b4:	6a3b      	ldr	r3, [r7, #32]
 80083b6:	b2da      	uxtb	r2, r3
 80083b8:	6a7b      	ldr	r3, [r7, #36]	; 0x24
 80083ba:	1c59      	adds	r1, r3, #1
 80083bc:	6279      	str	r1, [r7, #36]	; 0x24
 80083be:	f062 027f 	orn	r2, r2, #127	; 0x7f
 80083c2:	b2d2      	uxtb	r2, r2
 80083c4:	701a      	strb	r2, [r3, #0]
 80083c6:	6a3b      	ldr	r3, [r7, #32]
 80083c8:	09db      	lsrs	r3, r3, #7
 80083ca:	623b      	str	r3, [r7, #32]
 80083cc:	6a3b      	ldr	r3, [r7, #32]
 80083ce:	2b7f      	cmp	r3, #127	; 0x7f
 80083d0:	d8f0      	bhi.n	80083b4 <SEGGER_SYSVIEW_Warn+0x34>
 80083d2:	6a7b      	ldr	r3, [r7, #36]	; 0x24
 80083d4:	1c5a      	adds	r2, r3, #1
 80083d6:	627a      	str	r2, [r7, #36]	; 0x24
 80083d8:	6a3a      	ldr	r2, [r7, #32]
 80083da:	b2d2      	uxtb	r2, r2
 80083dc:	701a      	strb	r2, [r3, #0]
 80083de:	6a7b      	ldr	r3, [r7, #36]	; 0x24
 80083e0:	60fb      	str	r3, [r7, #12]
  ENCODE_U32(pPayload, 0);
 80083e2:	68fb      	ldr	r3, [r7, #12]
 80083e4:	61fb      	str	r3, [r7, #28]
 80083e6:	2300      	movs	r3, #0
 80083e8:	61bb      	str	r3, [r7, #24]
 80083ea:	e00b      	b.n	8008404 <SEGGER_SYSVIEW_Warn+0x84>
 80083ec:	69bb      	ldr	r3, [r7, #24]
 80083ee:	b2da      	uxtb	r2, r3
 80083f0:	69fb      	ldr	r3, [r7, #28]
 80083f2:	1c59      	adds	r1, r3, #1
 80083f4:	61f9      	str	r1, [r7, #28]
 80083f6:	f062 027f 	orn	r2, r2, #127	; 0x7f
 80083fa:	b2d2      	uxtb	r2, r2
 80083fc:	701a      	strb	r2, [r3, #0]
 80083fe:	69bb      	ldr	r3, [r7, #24]
 8008400:	09db      	lsrs	r3, r3, #7
 8008402:	61bb      	str	r3, [r7, #24]
 8008404:	69bb      	ldr	r3, [r7, #24]
 8008406:	2b7f      	cmp	r3, #127	; 0x7f
 8008408:	d8f0      	bhi.n	80083ec <SEGGER_SYSVIEW_Warn+0x6c>
 800840a:	69fb      	ldr	r3, [r7, #28]
 800840c:	1c5a      	adds	r2, r3, #1
 800840e:	61fa      	str	r2, [r7, #28]
 8008410:	69ba      	ldr	r2, [r7, #24]
 8008412:	b2d2      	uxtb	r2, r2
 8008414:	701a      	strb	r2, [r3, #0]
 8008416:	69fb      	ldr	r3, [r7, #28]
 8008418:	60fb      	str	r3, [r7, #12]
  _SendPacket(pPayloadStart, pPayload, SYSVIEW_EVTID_PRINT_FORMATTED);
 800841a:	221a      	movs	r2, #26
 800841c:	68f9      	ldr	r1, [r7, #12]
 800841e:	6938      	ldr	r0, [r7, #16]
 8008420:	f7ff f854 	bl	80074cc <_SendPacket>
  RECORD_END();
 8008424:	697b      	ldr	r3, [r7, #20]
 8008426:	f383 8811 	msr	BASEPRI, r3
}
 800842a:	bf00      	nop
 800842c:	3728      	adds	r7, #40	; 0x28
 800842e:	46bd      	mov	sp, r7
 8008430:	bd80      	pop	{r7, pc}
 8008432:	bf00      	nop
 8008434:	200020c0 	.word	0x200020c0

08008438 <__libc_init_array>:
 8008438:	b570      	push	{r4, r5, r6, lr}
 800843a:	2500      	movs	r5, #0
 800843c:	4e0c      	ldr	r6, [pc, #48]	; (8008470 <__libc_init_array+0x38>)
 800843e:	4c0d      	ldr	r4, [pc, #52]	; (8008474 <__libc_init_array+0x3c>)
 8008440:	1ba4      	subs	r4, r4, r6
 8008442:	10a4      	asrs	r4, r4, #2
 8008444:	42a5      	cmp	r5, r4
 8008446:	d109      	bne.n	800845c <__libc_init_array+0x24>
 8008448:	f000 f83c 	bl	80084c4 <_init>
 800844c:	2500      	movs	r5, #0
 800844e:	4e0a      	ldr	r6, [pc, #40]	; (8008478 <__libc_init_array+0x40>)
 8008450:	4c0a      	ldr	r4, [pc, #40]	; (800847c <__libc_init_array+0x44>)
 8008452:	1ba4      	subs	r4, r4, r6
 8008454:	10a4      	asrs	r4, r4, #2
 8008456:	42a5      	cmp	r5, r4
 8008458:	d105      	bne.n	8008466 <__libc_init_array+0x2e>
 800845a:	bd70      	pop	{r4, r5, r6, pc}
 800845c:	f856 3025 	ldr.w	r3, [r6, r5, lsl #2]
 8008460:	4798      	blx	r3
 8008462:	3501      	adds	r5, #1
 8008464:	e7ee      	b.n	8008444 <__libc_init_array+0xc>
 8008466:	f856 3025 	ldr.w	r3, [r6, r5, lsl #2]
 800846a:	4798      	blx	r3
 800846c:	3501      	adds	r5, #1
 800846e:	e7f2      	b.n	8008456 <__libc_init_array+0x1e>
 8008470:	080085d4 	.word	0x080085d4
 8008474:	080085d4 	.word	0x080085d4
 8008478:	080085d4 	.word	0x080085d4
 800847c:	080085d8 	.word	0x080085d8

08008480 <memcmp>:
 8008480:	b530      	push	{r4, r5, lr}
 8008482:	2400      	movs	r4, #0
 8008484:	42a2      	cmp	r2, r4
 8008486:	d101      	bne.n	800848c <memcmp+0xc>
 8008488:	2000      	movs	r0, #0
 800848a:	e007      	b.n	800849c <memcmp+0x1c>
 800848c:	5d03      	ldrb	r3, [r0, r4]
 800848e:	3401      	adds	r4, #1
 8008490:	190d      	adds	r5, r1, r4
 8008492:	f815 5c01 	ldrb.w	r5, [r5, #-1]
 8008496:	42ab      	cmp	r3, r5
 8008498:	d0f4      	beq.n	8008484 <memcmp+0x4>
 800849a:	1b58      	subs	r0, r3, r5
 800849c:	bd30      	pop	{r4, r5, pc}

0800849e <memcpy>:
 800849e:	b510      	push	{r4, lr}
 80084a0:	1e43      	subs	r3, r0, #1
 80084a2:	440a      	add	r2, r1
 80084a4:	4291      	cmp	r1, r2
 80084a6:	d100      	bne.n	80084aa <memcpy+0xc>
 80084a8:	bd10      	pop	{r4, pc}
 80084aa:	f811 4b01 	ldrb.w	r4, [r1], #1
 80084ae:	f803 4f01 	strb.w	r4, [r3, #1]!
 80084b2:	e7f7      	b.n	80084a4 <memcpy+0x6>

080084b4 <memset>:
 80084b4:	4603      	mov	r3, r0
 80084b6:	4402      	add	r2, r0
 80084b8:	4293      	cmp	r3, r2
 80084ba:	d100      	bne.n	80084be <memset+0xa>
 80084bc:	4770      	bx	lr
 80084be:	f803 1b01 	strb.w	r1, [r3], #1
 80084c2:	e7f9      	b.n	80084b8 <memset+0x4>

080084c4 <_init>:
 80084c4:	b5f8      	push	{r3, r4, r5, r6, r7, lr}
 80084c6:	bf00      	nop
 80084c8:	bcf8      	pop	{r3, r4, r5, r6, r7}
 80084ca:	bc08      	pop	{r3}
 80084cc:	469e      	mov	lr, r3
 80084ce:	4770      	bx	lr

080084d0 <_fini>:
 80084d0:	b5f8      	push	{r3, r4, r5, r6, r7, lr}
 80084d2:	bf00      	nop
 80084d4:	bcf8      	pop	{r3, r4, r5, r6, r7}
 80084d6:	bc08      	pop	{r3}
 80084d8:	469e      	mov	lr, r3
 80084da:	4770      	bx	lr
