
Rear_ECU.elf:     file format elf32-littlearm

Sections:
Idx Name          Size      VMA       LMA       File off  Algn
  0 .isr_vector   0000010c  08000000  08000000  00010000  2**0
                  CONTENTS, ALLOC, LOAD, READONLY, DATA
  1 .text         0000600c  08000110  08000110  00010110  2**4
                  CONTENTS, ALLOC, LOAD, READONLY, CODE
  2 .rodata       00000070  0800611c  0800611c  0001611c  2**2
                  CONTENTS, ALLOC, LOAD, READONLY, DATA
  3 .ARM.extab    00000000  0800618c  0800618c  00020010  2**0
                  CONTENTS
  4 .ARM          00000000  0800618c  0800618c  00020010  2**0
                  CONTENTS
  5 .preinit_array 00000000  0800618c  0800618c  00020010  2**0
                  CONTENTS, ALLOC, LOAD, DATA
  6 .init_array   00000004  0800618c  0800618c  0001618c  2**2
                  CONTENTS, ALLOC, LOAD, DATA
  7 .fini_array   00000004  08006190  08006190  00016190  2**2
                  CONTENTS, ALLOC, LOAD, DATA
  8 .data         00000010  20000000  08006194  00020000  2**2
                  CONTENTS, ALLOC, LOAD, DATA
  9 .bss          00001d50  20000010  080061a4  00020010  2**3
                  ALLOC
 10 ._user_heap_stack 00000600  20001d60  080061a4  00021d60  2**0
                  ALLOC
 11 .ARM.attributes 00000029  00000000  00000000  00020010  2**0
                  CONTENTS, READONLY
 12 .debug_info   000142b3  00000000  00000000  00020039  2**0
                  CONTENTS, READONLY, DEBUGGING
 13 .debug_abbrev 00003115  00000000  00000000  000342ec  2**0
                  CONTENTS, READONLY, DEBUGGING
 14 .debug_aranges 00001360  00000000  00000000  00037408  2**3
                  CONTENTS, READONLY, DEBUGGING
 15 .debug_ranges 000011f8  00000000  00000000  00038768  2**3
                  CONTENTS, READONLY, DEBUGGING
 16 .debug_macro  00016ea2  00000000  00000000  00039960  2**0
                  CONTENTS, READONLY, DEBUGGING
 17 .debug_line   0000f987  00000000  00000000  00050802  2**0
                  CONTENTS, READONLY, DEBUGGING
 18 .debug_str    000802da  00000000  00000000  00060189  2**0
                  CONTENTS, READONLY, DEBUGGING
 19 .comment      0000007b  00000000  00000000  000e0463  2**0
                  CONTENTS, READONLY
 20 .debug_frame  00005028  00000000  00000000  000e04e0  2**2
                  CONTENTS, READONLY, DEBUGGING

Disassembly of section .text:

08000110 <__do_global_dtors_aux>:
 8000110:	b510      	push	{r4, lr}
 8000112:	4c05      	ldr	r4, [pc, #20]	; (8000128 <__do_global_dtors_aux+0x18>)
 8000114:	7823      	ldrb	r3, [r4, #0]
 8000116:	b933      	cbnz	r3, 8000126 <__do_global_dtors_aux+0x16>
 8000118:	4b04      	ldr	r3, [pc, #16]	; (800012c <__do_global_dtors_aux+0x1c>)
 800011a:	b113      	cbz	r3, 8000122 <__do_global_dtors_aux+0x12>
 800011c:	4804      	ldr	r0, [pc, #16]	; (8000130 <__do_global_dtors_aux+0x20>)
 800011e:	f3af 8000 	nop.w
 8000122:	2301      	movs	r3, #1
 8000124:	7023      	strb	r3, [r4, #0]
 8000126:	bd10      	pop	{r4, pc}
 8000128:	20000010 	.word	0x20000010
 800012c:	00000000 	.word	0x00000000
 8000130:	08006104 	.word	0x08006104

08000134 <frame_dummy>:
 8000134:	b508      	push	{r3, lr}
 8000136:	4b03      	ldr	r3, [pc, #12]	; (8000144 <frame_dummy+0x10>)
 8000138:	b11b      	cbz	r3, 8000142 <frame_dummy+0xe>
 800013a:	4903      	ldr	r1, [pc, #12]	; (8000148 <frame_dummy+0x14>)
 800013c:	4803      	ldr	r0, [pc, #12]	; (800014c <frame_dummy+0x18>)
 800013e:	f3af 8000 	nop.w
 8000142:	bd08      	pop	{r3, pc}
 8000144:	00000000 	.word	0x00000000
 8000148:	20000014 	.word	0x20000014
 800014c:	08006104 	.word	0x08006104

08000150 <GetPage>:
/* STM32F103 have 128 PAGES (Page 0 to Page 127) of 1 KB each. This makes up 128 KB Flash Memory
 * Some STM32F103C8 have 64 KB FLASH Memory, so I guess they have Page 0 to Page 63 only.
 */

/* FLASH_PAGE_SIZE should be able to get the size of the Page according to the controller */
static uint32_t GetPage(uint32_t Address) {
 8000150:	b480      	push	{r7}
 8000152:	b085      	sub	sp, #20
 8000154:	af00      	add	r7, sp, #0
 8000156:	6078      	str	r0, [r7, #4]
	for (int indx = 0; indx < 128; indx++) {
 8000158:	2300      	movs	r3, #0
 800015a:	60fb      	str	r3, [r7, #12]
 800015c:	e016      	b.n	800018c <GetPage+0x3c>
		if ((Address < (0x08000000 + (FLASH_PAGE_SIZE * (indx + 1))))
 800015e:	68fb      	ldr	r3, [r7, #12]
 8000160:	f503 3300 	add.w	r3, r3, #131072	; 0x20000
 8000164:	3301      	adds	r3, #1
 8000166:	029b      	lsls	r3, r3, #10
 8000168:	687a      	ldr	r2, [r7, #4]
 800016a:	429a      	cmp	r2, r3
 800016c:	d20b      	bcs.n	8000186 <GetPage+0x36>
				&& (Address >= (0x08000000 + FLASH_PAGE_SIZE * indx))) {
 800016e:	68fb      	ldr	r3, [r7, #12]
 8000170:	f503 3300 	add.w	r3, r3, #131072	; 0x20000
 8000174:	029b      	lsls	r3, r3, #10
 8000176:	687a      	ldr	r2, [r7, #4]
 8000178:	429a      	cmp	r2, r3
 800017a:	d304      	bcc.n	8000186 <GetPage+0x36>
			return (0x08000000 + FLASH_PAGE_SIZE * indx);
 800017c:	68fb      	ldr	r3, [r7, #12]
 800017e:	f503 3300 	add.w	r3, r3, #131072	; 0x20000
 8000182:	029b      	lsls	r3, r3, #10
 8000184:	e006      	b.n	8000194 <GetPage+0x44>
	for (int indx = 0; indx < 128; indx++) {
 8000186:	68fb      	ldr	r3, [r7, #12]
 8000188:	3301      	adds	r3, #1
 800018a:	60fb      	str	r3, [r7, #12]
 800018c:	68fb      	ldr	r3, [r7, #12]
 800018e:	2b7f      	cmp	r3, #127	; 0x7f
 8000190:	dde5      	ble.n	800015e <GetPage+0xe>
		}
	}

	return 0;
 8000192:	2300      	movs	r3, #0
}
 8000194:	4618      	mov	r0, r3
 8000196:	3714      	adds	r7, #20
 8000198:	46bd      	mov	sp, r7
 800019a:	bc80      	pop	{r7}
 800019c:	4770      	bx	lr

0800019e <float2Bytes>:

uint8_t bytes_temp[4];

void float2Bytes(uint8_t *ftoa_bytes_temp, uint32_t float_variable) {
 800019e:	b480      	push	{r7}
 80001a0:	b085      	sub	sp, #20
 80001a2:	af00      	add	r7, sp, #0
 80001a4:	6078      	str	r0, [r7, #4]
 80001a6:	6039      	str	r1, [r7, #0]
	union {
		uint32_t a;
		uint8_t bytes[4];
	} thing;

	thing.a = float_variable;
 80001a8:	683b      	ldr	r3, [r7, #0]
 80001aa:	60bb      	str	r3, [r7, #8]

	for (uint8_t i = 0; i < 4; i++) {
 80001ac:	2300      	movs	r3, #0
 80001ae:	73fb      	strb	r3, [r7, #15]
 80001b0:	e00c      	b.n	80001cc <float2Bytes+0x2e>
		ftoa_bytes_temp[i] = thing.bytes[i];
 80001b2:	7bfa      	ldrb	r2, [r7, #15]
 80001b4:	7bfb      	ldrb	r3, [r7, #15]
 80001b6:	6879      	ldr	r1, [r7, #4]
 80001b8:	440b      	add	r3, r1
 80001ba:	f107 0110 	add.w	r1, r7, #16
 80001be:	440a      	add	r2, r1
 80001c0:	f812 2c08 	ldrb.w	r2, [r2, #-8]
 80001c4:	701a      	strb	r2, [r3, #0]
	for (uint8_t i = 0; i < 4; i++) {
 80001c6:	7bfb      	ldrb	r3, [r7, #15]
 80001c8:	3301      	adds	r3, #1
 80001ca:	73fb      	strb	r3, [r7, #15]
 80001cc:	7bfb      	ldrb	r3, [r7, #15]
 80001ce:	2b03      	cmp	r3, #3
 80001d0:	d9ef      	bls.n	80001b2 <float2Bytes+0x14>
	}

}
 80001d2:	bf00      	nop
 80001d4:	3714      	adds	r7, #20
 80001d6:	46bd      	mov	sp, r7
 80001d8:	bc80      	pop	{r7}
 80001da:	4770      	bx	lr

080001dc <Bytes2float>:

uint32_t Bytes2float(uint8_t *ftoa_bytes_temp) {
 80001dc:	b480      	push	{r7}
 80001de:	b087      	sub	sp, #28
 80001e0:	af00      	add	r7, sp, #0
 80001e2:	6078      	str	r0, [r7, #4]
	union {
		uint32_t a;
		uint8_t bytes[4];
	} thing;

	for (uint8_t i = 0; i < 4; i++) {
 80001e4:	2300      	movs	r3, #0
 80001e6:	75fb      	strb	r3, [r7, #23]
 80001e8:	e00c      	b.n	8000204 <Bytes2float+0x28>
		thing.bytes[i] = ftoa_bytes_temp[i];
 80001ea:	7dfb      	ldrb	r3, [r7, #23]
 80001ec:	687a      	ldr	r2, [r7, #4]
 80001ee:	441a      	add	r2, r3
 80001f0:	7dfb      	ldrb	r3, [r7, #23]
 80001f2:	7812      	ldrb	r2, [r2, #0]
 80001f4:	f107 0118 	add.w	r1, r7, #24
 80001f8:	440b      	add	r3, r1
 80001fa:	f803 2c0c 	strb.w	r2, [r3, #-12]
	for (uint8_t i = 0; i < 4; i++) {
 80001fe:	7dfb      	ldrb	r3, [r7, #23]
 8000200:	3301      	adds	r3, #1
 8000202:	75fb      	strb	r3, [r7, #23]
 8000204:	7dfb      	ldrb	r3, [r7, #23]
 8000206:	2b03      	cmp	r3, #3
 8000208:	d9ef      	bls.n	80001ea <Bytes2float+0xe>
	}

	uint32_t float_variable = thing.a;
 800020a:	68fb      	ldr	r3, [r7, #12]
 800020c:	613b      	str	r3, [r7, #16]
	return float_variable;
 800020e:	693b      	ldr	r3, [r7, #16]
}
 8000210:	4618      	mov	r0, r3
 8000212:	371c      	adds	r7, #28
 8000214:	46bd      	mov	sp, r7
 8000216:	bc80      	pop	{r7}
 8000218:	4770      	bx	lr
	...

0800021c <Flash_Write_Data>:

uint32_t Flash_Write_Data(uint32_t StartPageAddress, uint32_t *Data,
		uint16_t numberofwords) {
 800021c:	b590      	push	{r4, r7, lr}
 800021e:	b08b      	sub	sp, #44	; 0x2c
 8000220:	af00      	add	r7, sp, #0
 8000222:	60f8      	str	r0, [r7, #12]
 8000224:	60b9      	str	r1, [r7, #8]
 8000226:	4613      	mov	r3, r2
 8000228:	80fb      	strh	r3, [r7, #6]

	static FLASH_EraseInitTypeDef EraseInitStruct;
	uint32_t PAGEError;
	int sofar = 0;
 800022a:	2300      	movs	r3, #0
 800022c:	627b      	str	r3, [r7, #36]	; 0x24

	/* Unlock the Flash to enable the flash control register access *************/
	HAL_FLASH_Unlock();
 800022e:	f002 fc7f 	bl	8002b30 <HAL_FLASH_Unlock>

	/* Erase the user Flash area*/

	uint32_t StartPage = GetPage(StartPageAddress);
 8000232:	68f8      	ldr	r0, [r7, #12]
 8000234:	f7ff ff8c 	bl	8000150 <GetPage>
 8000238:	6238      	str	r0, [r7, #32]
	uint32_t EndPageAdress = StartPageAddress + numberofwords * 4;
 800023a:	88fb      	ldrh	r3, [r7, #6]
 800023c:	009b      	lsls	r3, r3, #2
 800023e:	461a      	mov	r2, r3
 8000240:	68fb      	ldr	r3, [r7, #12]
 8000242:	4413      	add	r3, r2
 8000244:	61fb      	str	r3, [r7, #28]
	uint32_t EndPage = GetPage(EndPageAdress);
 8000246:	69f8      	ldr	r0, [r7, #28]
 8000248:	f7ff ff82 	bl	8000150 <GetPage>
 800024c:	61b8      	str	r0, [r7, #24]

	/* Fill EraseInit structure*/
	EraseInitStruct.TypeErase = FLASH_TYPEERASE_PAGES;
 800024e:	4b20      	ldr	r3, [pc, #128]	; (80002d0 <Flash_Write_Data+0xb4>)
 8000250:	2200      	movs	r2, #0
 8000252:	601a      	str	r2, [r3, #0]
	EraseInitStruct.PageAddress = StartPage;
 8000254:	4a1e      	ldr	r2, [pc, #120]	; (80002d0 <Flash_Write_Data+0xb4>)
 8000256:	6a3b      	ldr	r3, [r7, #32]
 8000258:	6093      	str	r3, [r2, #8]
	EraseInitStruct.NbPages = ((EndPage - StartPage) / FLASH_PAGE_SIZE) + 1;
 800025a:	69ba      	ldr	r2, [r7, #24]
 800025c:	6a3b      	ldr	r3, [r7, #32]
 800025e:	1ad3      	subs	r3, r2, r3
 8000260:	0a9b      	lsrs	r3, r3, #10
 8000262:	3301      	adds	r3, #1
 8000264:	4a1a      	ldr	r2, [pc, #104]	; (80002d0 <Flash_Write_Data+0xb4>)
 8000266:	60d3      	str	r3, [r2, #12]

	if (HAL_FLASHEx_Erase(&EraseInitStruct, &PAGEError) != HAL_OK) {
 8000268:	f107 0314 	add.w	r3, r7, #20
 800026c:	4619      	mov	r1, r3
 800026e:	4818      	ldr	r0, [pc, #96]	; (80002d0 <Flash_Write_Data+0xb4>)
 8000270:	f002 fd50 	bl	8002d14 <HAL_FLASHEx_Erase>
 8000274:	4603      	mov	r3, r0
 8000276:	2b00      	cmp	r3, #0
 8000278:	d01e      	beq.n	80002b8 <Flash_Write_Data+0x9c>
		/*Error occurred while page erase.*/
		return HAL_FLASH_GetError();
 800027a:	f002 fc8f 	bl	8002b9c <HAL_FLASH_GetError>
 800027e:	4603      	mov	r3, r0
 8000280:	e021      	b.n	80002c6 <Flash_Write_Data+0xaa>

	/* Program the user Flash area word by word*/

	while (sofar < numberofwords) {
		if (HAL_FLASH_Program(FLASH_TYPEPROGRAM_WORD, StartPageAddress,
				Data[sofar]) == HAL_OK) {
 8000282:	6a7b      	ldr	r3, [r7, #36]	; 0x24
 8000284:	009b      	lsls	r3, r3, #2
 8000286:	68ba      	ldr	r2, [r7, #8]
 8000288:	4413      	add	r3, r2
 800028a:	681b      	ldr	r3, [r3, #0]
		if (HAL_FLASH_Program(FLASH_TYPEPROGRAM_WORD, StartPageAddress,
 800028c:	f04f 0400 	mov.w	r4, #0
 8000290:	461a      	mov	r2, r3
 8000292:	4623      	mov	r3, r4
 8000294:	68f9      	ldr	r1, [r7, #12]
 8000296:	2002      	movs	r0, #2
 8000298:	f002 fbda 	bl	8002a50 <HAL_FLASH_Program>
 800029c:	4603      	mov	r3, r0
 800029e:	2b00      	cmp	r3, #0
 80002a0:	d106      	bne.n	80002b0 <Flash_Write_Data+0x94>
			StartPageAddress += 4; // use StartPageAddress += 2 for half word and 8 for double word
 80002a2:	68fb      	ldr	r3, [r7, #12]
 80002a4:	3304      	adds	r3, #4
 80002a6:	60fb      	str	r3, [r7, #12]
			sofar++;
 80002a8:	6a7b      	ldr	r3, [r7, #36]	; 0x24
 80002aa:	3301      	adds	r3, #1
 80002ac:	627b      	str	r3, [r7, #36]	; 0x24
 80002ae:	e003      	b.n	80002b8 <Flash_Write_Data+0x9c>
		} else {
			/* Error occurred while writing data in Flash memory*/
			return HAL_FLASH_GetError();
 80002b0:	f002 fc74 	bl	8002b9c <HAL_FLASH_GetError>
 80002b4:	4603      	mov	r3, r0
 80002b6:	e006      	b.n	80002c6 <Flash_Write_Data+0xaa>
	while (sofar < numberofwords) {
 80002b8:	88fb      	ldrh	r3, [r7, #6]
 80002ba:	6a7a      	ldr	r2, [r7, #36]	; 0x24
 80002bc:	429a      	cmp	r2, r3
 80002be:	dbe0      	blt.n	8000282 <Flash_Write_Data+0x66>
		}
	}

	/* Lock the Flash to disable the flash control register access (recommended
	 to protect the FLASH memory against possible unwanted operation) *********/
	HAL_FLASH_Lock();
 80002c0:	f002 fc5c 	bl	8002b7c <HAL_FLASH_Lock>

	return 0;
 80002c4:	2300      	movs	r3, #0
}
 80002c6:	4618      	mov	r0, r3
 80002c8:	372c      	adds	r7, #44	; 0x2c
 80002ca:	46bd      	mov	sp, r7
 80002cc:	bd90      	pop	{r4, r7, pc}
 80002ce:	bf00      	nop
 80002d0:	2000002c 	.word	0x2000002c

080002d4 <Flash_Read_Data>:

void Flash_Read_Data(uint32_t StartPageAddress, uint32_t *RxBuf,
		uint16_t numberofwords) {
 80002d4:	b480      	push	{r7}
 80002d6:	b085      	sub	sp, #20
 80002d8:	af00      	add	r7, sp, #0
 80002da:	60f8      	str	r0, [r7, #12]
 80002dc:	60b9      	str	r1, [r7, #8]
 80002de:	4613      	mov	r3, r2
 80002e0:	80fb      	strh	r3, [r7, #6]
	while (1) {

		*RxBuf = *(__IO uint32_t*) StartPageAddress;
 80002e2:	68fb      	ldr	r3, [r7, #12]
 80002e4:	681a      	ldr	r2, [r3, #0]
 80002e6:	68bb      	ldr	r3, [r7, #8]
 80002e8:	601a      	str	r2, [r3, #0]
		StartPageAddress += 4;
 80002ea:	68fb      	ldr	r3, [r7, #12]
 80002ec:	3304      	adds	r3, #4
 80002ee:	60fb      	str	r3, [r7, #12]
		RxBuf++;
 80002f0:	68bb      	ldr	r3, [r7, #8]
 80002f2:	3304      	adds	r3, #4
 80002f4:	60bb      	str	r3, [r7, #8]
		if (!(numberofwords--))
 80002f6:	88fb      	ldrh	r3, [r7, #6]
 80002f8:	1e5a      	subs	r2, r3, #1
 80002fa:	80fa      	strh	r2, [r7, #6]
 80002fc:	2b00      	cmp	r3, #0
 80002fe:	d000      	beq.n	8000302 <Flash_Read_Data+0x2e>
		*RxBuf = *(__IO uint32_t*) StartPageAddress;
 8000300:	e7ef      	b.n	80002e2 <Flash_Read_Data+0xe>
			break;
 8000302:	bf00      	nop
	}
}
 8000304:	bf00      	nop
 8000306:	3714      	adds	r7, #20
 8000308:	46bd      	mov	sp, r7
 800030a:	bc80      	pop	{r7}
 800030c:	4770      	bx	lr
	...

08000310 <Flash_Write_NUM>:
	for (int i = 0; i < numberofbytes; i++) {
		Buf[i] = Data[i / 4] >> (8 * (i % 4));
	}
}

void Flash_Write_NUM(uint32_t StartSectorAddress, uint32_t Num) {
 8000310:	b580      	push	{r7, lr}
 8000312:	b082      	sub	sp, #8
 8000314:	af00      	add	r7, sp, #0
 8000316:	6078      	str	r0, [r7, #4]
 8000318:	6039      	str	r1, [r7, #0]

	float2Bytes(bytes_temp, Num);
 800031a:	6839      	ldr	r1, [r7, #0]
 800031c:	4805      	ldr	r0, [pc, #20]	; (8000334 <Flash_Write_NUM+0x24>)
 800031e:	f7ff ff3e 	bl	800019e <float2Bytes>

	Flash_Write_Data(StartSectorAddress, (uint32_t*) bytes_temp, 1);
 8000322:	2201      	movs	r2, #1
 8000324:	4903      	ldr	r1, [pc, #12]	; (8000334 <Flash_Write_NUM+0x24>)
 8000326:	6878      	ldr	r0, [r7, #4]
 8000328:	f7ff ff78 	bl	800021c <Flash_Write_Data>
}
 800032c:	bf00      	nop
 800032e:	3708      	adds	r7, #8
 8000330:	46bd      	mov	sp, r7
 8000332:	bd80      	pop	{r7, pc}
 8000334:	20001be4 	.word	0x20001be4

08000338 <Flash_Read_NUM>:

uint32_t Flash_Read_NUM(uint32_t StartSectorAddress) {
 8000338:	b580      	push	{r7, lr}
 800033a:	b084      	sub	sp, #16
 800033c:	af00      	add	r7, sp, #0
 800033e:	6078      	str	r0, [r7, #4]
	uint8_t buffer[4];
	uint32_t value;

	Flash_Read_Data(StartSectorAddress, (uint32_t*) buffer, 1);
 8000340:	f107 0308 	add.w	r3, r7, #8
 8000344:	2201      	movs	r2, #1
 8000346:	4619      	mov	r1, r3
 8000348:	6878      	ldr	r0, [r7, #4]
 800034a:	f7ff ffc3 	bl	80002d4 <Flash_Read_Data>
	value = Bytes2float(buffer);
 800034e:	f107 0308 	add.w	r3, r7, #8
 8000352:	4618      	mov	r0, r3
 8000354:	f7ff ff42 	bl	80001dc <Bytes2float>
 8000358:	60f8      	str	r0, [r7, #12]
	return value;
 800035a:	68fb      	ldr	r3, [r7, #12]
}
 800035c:	4618      	mov	r0, r3
 800035e:	3710      	adds	r7, #16
 8000360:	46bd      	mov	sp, r7
 8000362:	bd80      	pop	{r7, pc}

08000364 <vApplicationGetIdleTaskMemory>:
/* USER CODE BEGIN GET_IDLE_TASK_MEMORY */
static StaticTask_t xIdleTaskTCBBuffer;
static StackType_t xIdleStack[configMINIMAL_STACK_SIZE];
  
void vApplicationGetIdleTaskMemory( StaticTask_t **ppxIdleTaskTCBBuffer, StackType_t **ppxIdleTaskStackBuffer, uint32_t *pulIdleTaskStackSize )
{
 8000364:	b480      	push	{r7}
 8000366:	b085      	sub	sp, #20
 8000368:	af00      	add	r7, sp, #0
 800036a:	60f8      	str	r0, [r7, #12]
 800036c:	60b9      	str	r1, [r7, #8]
 800036e:	607a      	str	r2, [r7, #4]
  *ppxIdleTaskTCBBuffer = &xIdleTaskTCBBuffer;
 8000370:	68fb      	ldr	r3, [r7, #12]
 8000372:	4a06      	ldr	r2, [pc, #24]	; (800038c <vApplicationGetIdleTaskMemory+0x28>)
 8000374:	601a      	str	r2, [r3, #0]
  *ppxIdleTaskStackBuffer = &xIdleStack[0];
 8000376:	68bb      	ldr	r3, [r7, #8]
 8000378:	4a05      	ldr	r2, [pc, #20]	; (8000390 <vApplicationGetIdleTaskMemory+0x2c>)
 800037a:	601a      	str	r2, [r3, #0]
  *pulIdleTaskStackSize = configMINIMAL_STACK_SIZE;
 800037c:	687b      	ldr	r3, [r7, #4]
 800037e:	2280      	movs	r2, #128	; 0x80
 8000380:	601a      	str	r2, [r3, #0]
  /* place for user code */
}                   
 8000382:	bf00      	nop
 8000384:	3714      	adds	r7, #20
 8000386:	46bd      	mov	sp, r7
 8000388:	bc80      	pop	{r7}
 800038a:	4770      	bx	lr
 800038c:	2000003c 	.word	0x2000003c
 8000390:	20000090 	.word	0x20000090

08000394 <main>:

/**
 * @brief  The application entry point.
 * @retval int
 */
int main(void) {
 8000394:	b580      	push	{r7, lr}
 8000396:	b082      	sub	sp, #8
 8000398:	af02      	add	r7, sp, #8
	/* MCU Configuration--------------------------------------------------------*/

	/* Reset of all peripherals, Initializes the Flash interface and the Systick. */
	HAL_Init();
 800039a:	f000 ff4d 	bl	8001238 <HAL_Init>

	/* Configure the system clock */
	SystemClock_Config();
 800039e:	f000 f899 	bl	80004d4 <SystemClock_Config>

	/* Initialize all configured peripherals */
	MX_GPIO_Init();
 80003a2:	f000 f9df 	bl	8000764 <MX_GPIO_Init>
	MX_DMA_Init();
 80003a6:	f000 f9bf 	bl	8000728 <MX_DMA_Init>
	MX_ADC1_Init();
 80003aa:	f000 f8ef 	bl	800058c <MX_ADC1_Init>
	MX_CAN_Init();
 80003ae:	f000 f957 	bl	8000660 <MX_CAN_Init>

	/* USER CODE BEGIN 0 */
	MX_I2C1_Init();
 80003b2:	f000 f98b 	bl	80006cc <MX_I2C1_Init>

	OD = Flash_Read_NUM(0x0801FC00);
 80003b6:	4830      	ldr	r0, [pc, #192]	; (8000478 <main+0xe4>)
 80003b8:	f7ff ffbe 	bl	8000338 <Flash_Read_NUM>
 80003bc:	4602      	mov	r2, r0
 80003be:	4b2f      	ldr	r3, [pc, #188]	; (800047c <main+0xe8>)
 80003c0:	601a      	str	r2, [r3, #0]

	CAN_Filter_Config();
 80003c2:	f000 faab 	bl	800091c <CAN_Filter_Config>

	if (HAL_CAN_ActivateNotification(&hcan,
 80003c6:	f240 4101 	movw	r1, #1025	; 0x401
 80003ca:	482d      	ldr	r0, [pc, #180]	; (8000480 <main+0xec>)
 80003cc:	f001 fe26 	bl	800201c <HAL_CAN_ActivateNotification>
 80003d0:	4603      	mov	r3, r0
 80003d2:	2b00      	cmp	r3, #0
 80003d4:	d001      	beq.n	80003da <main+0x46>
	CAN_IT_TX_MAILBOX_EMPTY /*| CAN_IT_RX_FIFO0_MSG_PENDING*/| CAN_IT_BUSOFF)
			!= HAL_OK) {
		Error_Handler();
 80003d6:	f000 fcd5 	bl	8000d84 <Error_Handler>
	}

	if (HAL_CAN_Start(&hcan)) {
 80003da:	4829      	ldr	r0, [pc, #164]	; (8000480 <main+0xec>)
 80003dc:	f001 fd00 	bl	8001de0 <HAL_CAN_Start>
 80003e0:	4603      	mov	r3, r0
 80003e2:	2b00      	cmp	r3, #0
 80003e4:	d001      	beq.n	80003ea <main+0x56>
		Error_Handler();
 80003e6:	f000 fccd 	bl	8000d84 <Error_Handler>
	}

	HAL_ADC_Start_DMA(&hadc1, (uint32_t*) analog, 2);
 80003ea:	2202      	movs	r2, #2
 80003ec:	4925      	ldr	r1, [pc, #148]	; (8000484 <main+0xf0>)
 80003ee:	4826      	ldr	r0, [pc, #152]	; (8000488 <main+0xf4>)
 80003f0:	f001 f84e 	bl	8001490 <HAL_ADC_Start_DMA>

	xTaskCreate(Bat_taskF, "BatTask", 128, NULL, 4, &Bat_Task);
 80003f4:	4b25      	ldr	r3, [pc, #148]	; (800048c <main+0xf8>)
 80003f6:	9301      	str	r3, [sp, #4]
 80003f8:	2304      	movs	r3, #4
 80003fa:	9300      	str	r3, [sp, #0]
 80003fc:	2300      	movs	r3, #0
 80003fe:	2280      	movs	r2, #128	; 0x80
 8000400:	4923      	ldr	r1, [pc, #140]	; (8000490 <main+0xfc>)
 8000402:	4824      	ldr	r0, [pc, #144]	; (8000494 <main+0x100>)
 8000404:	f004 fc51 	bl	8004caa <xTaskCreate>
	xTaskCreate(Fuel_taskF, "FuelTask", 128, NULL, 4, &Fuel_Task);
 8000408:	4b23      	ldr	r3, [pc, #140]	; (8000498 <main+0x104>)
 800040a:	9301      	str	r3, [sp, #4]
 800040c:	2304      	movs	r3, #4
 800040e:	9300      	str	r3, [sp, #0]
 8000410:	2300      	movs	r3, #0
 8000412:	2280      	movs	r2, #128	; 0x80
 8000414:	4921      	ldr	r1, [pc, #132]	; (800049c <main+0x108>)
 8000416:	4822      	ldr	r0, [pc, #136]	; (80004a0 <main+0x10c>)
 8000418:	f004 fc47 	bl	8004caa <xTaskCreate>
	xTaskCreate(Speed_taskF, "SpeedTask", 128, NULL, 4, &Speed_Task);
 800041c:	4b21      	ldr	r3, [pc, #132]	; (80004a4 <main+0x110>)
 800041e:	9301      	str	r3, [sp, #4]
 8000420:	2304      	movs	r3, #4
 8000422:	9300      	str	r3, [sp, #0]
 8000424:	2300      	movs	r3, #0
 8000426:	2280      	movs	r2, #128	; 0x80
 8000428:	491f      	ldr	r1, [pc, #124]	; (80004a8 <main+0x114>)
 800042a:	4820      	ldr	r0, [pc, #128]	; (80004ac <main+0x118>)
 800042c:	f004 fc3d 	bl	8004caa <xTaskCreate>
	xTaskCreate(Temp_taskF, "TempTask", 128, NULL, 5, &Temp_Task);
 8000430:	4b1f      	ldr	r3, [pc, #124]	; (80004b0 <main+0x11c>)
 8000432:	9301      	str	r3, [sp, #4]
 8000434:	2305      	movs	r3, #5
 8000436:	9300      	str	r3, [sp, #0]
 8000438:	2300      	movs	r3, #0
 800043a:	2280      	movs	r2, #128	; 0x80
 800043c:	491d      	ldr	r1, [pc, #116]	; (80004b4 <main+0x120>)
 800043e:	481e      	ldr	r0, [pc, #120]	; (80004b8 <main+0x124>)
 8000440:	f004 fc33 	bl	8004caa <xTaskCreate>
	xTaskCreate(RPM_taskF, "RPMTask", 128, NULL, 4, &RPM_Task);
 8000444:	4b1d      	ldr	r3, [pc, #116]	; (80004bc <main+0x128>)
 8000446:	9301      	str	r3, [sp, #4]
 8000448:	2304      	movs	r3, #4
 800044a:	9300      	str	r3, [sp, #0]
 800044c:	2300      	movs	r3, #0
 800044e:	2280      	movs	r2, #128	; 0x80
 8000450:	491b      	ldr	r1, [pc, #108]	; (80004c0 <main+0x12c>)
 8000452:	481c      	ldr	r0, [pc, #112]	; (80004c4 <main+0x130>)
 8000454:	f004 fc29 	bl	8004caa <xTaskCreate>
	xTaskCreate(OD_taskF, "ODTask", 128, NULL, 6, &OD_Task);
 8000458:	4b1b      	ldr	r3, [pc, #108]	; (80004c8 <main+0x134>)
 800045a:	9301      	str	r3, [sp, #4]
 800045c:	2306      	movs	r3, #6
 800045e:	9300      	str	r3, [sp, #0]
 8000460:	2300      	movs	r3, #0
 8000462:	2280      	movs	r2, #128	; 0x80
 8000464:	4919      	ldr	r1, [pc, #100]	; (80004cc <main+0x138>)
 8000466:	481a      	ldr	r0, [pc, #104]	; (80004d0 <main+0x13c>)
 8000468:	f004 fc1f 	bl	8004caa <xTaskCreate>

	vTaskStartScheduler();
 800046c:	f004 ff00 	bl	8005270 <vTaskStartScheduler>
	/* USER CODE END 0 */

	/* We should never get here as control is now taken by the scheduler */
	/* Infinite loop */
	while (1) {
		HAL_Delay(1); /*JUST IN CASE*/
 8000470:	2001      	movs	r0, #1
 8000472:	f000 ff13 	bl	800129c <HAL_Delay>
 8000476:	e7fb      	b.n	8000470 <main+0xdc>
 8000478:	0801fc00 	.word	0x0801fc00
 800047c:	20000290 	.word	0x20000290
 8000480:	20001c4c 	.word	0x20001c4c
 8000484:	20001be8 	.word	0x20001be8
 8000488:	20001c7c 	.word	0x20001c7c
 800048c:	20001c74 	.word	0x20001c74
 8000490:	0800611c 	.word	0x0800611c
 8000494:	08000969 	.word	0x08000969
 8000498:	20001c48 	.word	0x20001c48
 800049c:	08006124 	.word	0x08006124
 80004a0:	080009dd 	.word	0x080009dd
 80004a4:	20001c78 	.word	0x20001c78
 80004a8:	08006130 	.word	0x08006130
 80004ac:	08000a4d 	.word	0x08000a4d
 80004b0:	20001cf4 	.word	0x20001cf4
 80004b4:	0800613c 	.word	0x0800613c
 80004b8:	08000b35 	.word	0x08000b35
 80004bc:	20001c44 	.word	0x20001c44
 80004c0:	08006148 	.word	0x08006148
 80004c4:	08000ac1 	.word	0x08000ac1
 80004c8:	20001bec 	.word	0x20001bec
 80004cc:	08006150 	.word	0x08006150
 80004d0:	08000c99 	.word	0x08000c99

080004d4 <SystemClock_Config>:

/**
 * @brief System Clock Configuration
 * @retval None
 */
void SystemClock_Config(void) {
 80004d4:	b580      	push	{r7, lr}
 80004d6:	b094      	sub	sp, #80	; 0x50
 80004d8:	af00      	add	r7, sp, #0
	RCC_OscInitTypeDef RCC_OscInitStruct = { 0 };
 80004da:	f107 0328 	add.w	r3, r7, #40	; 0x28
 80004de:	2228      	movs	r2, #40	; 0x28
 80004e0:	2100      	movs	r1, #0
 80004e2:	4618      	mov	r0, r3
 80004e4:	f005 fe06 	bl	80060f4 <memset>
	RCC_ClkInitTypeDef RCC_ClkInitStruct = { 0 };
 80004e8:	f107 0314 	add.w	r3, r7, #20
 80004ec:	2200      	movs	r2, #0
 80004ee:	601a      	str	r2, [r3, #0]
 80004f0:	605a      	str	r2, [r3, #4]
 80004f2:	609a      	str	r2, [r3, #8]
 80004f4:	60da      	str	r2, [r3, #12]
 80004f6:	611a      	str	r2, [r3, #16]
	RCC_PeriphCLKInitTypeDef PeriphClkInit = { 0 };
 80004f8:	1d3b      	adds	r3, r7, #4
 80004fa:	2200      	movs	r2, #0
 80004fc:	601a      	str	r2, [r3, #0]
 80004fe:	605a      	str	r2, [r3, #4]
 8000500:	609a      	str	r2, [r3, #8]
 8000502:	60da      	str	r2, [r3, #12]

	/** Initializes the CPU, AHB and APB busses clocks
	 */
	RCC_OscInitStruct.OscillatorType = RCC_OSCILLATORTYPE_HSE;
 8000504:	2301      	movs	r3, #1
 8000506:	62bb      	str	r3, [r7, #40]	; 0x28
	RCC_OscInitStruct.HSEState = RCC_HSE_ON;
 8000508:	f44f 3380 	mov.w	r3, #65536	; 0x10000
 800050c:	62fb      	str	r3, [r7, #44]	; 0x2c
	RCC_OscInitStruct.HSEPredivValue = RCC_HSE_PREDIV_DIV1;
 800050e:	2300      	movs	r3, #0
 8000510:	633b      	str	r3, [r7, #48]	; 0x30
	RCC_OscInitStruct.HSIState = RCC_HSI_ON;
 8000512:	2301      	movs	r3, #1
 8000514:	63bb      	str	r3, [r7, #56]	; 0x38
	RCC_OscInitStruct.PLL.PLLState = RCC_PLL_ON;
 8000516:	2302      	movs	r3, #2
 8000518:	647b      	str	r3, [r7, #68]	; 0x44
	RCC_OscInitStruct.PLL.PLLSource = RCC_PLLSOURCE_HSE;
 800051a:	f44f 3380 	mov.w	r3, #65536	; 0x10000
 800051e:	64bb      	str	r3, [r7, #72]	; 0x48
	RCC_OscInitStruct.PLL.PLLMUL = RCC_PLL_MUL9;
 8000520:	f44f 13e0 	mov.w	r3, #1835008	; 0x1c0000
 8000524:	64fb      	str	r3, [r7, #76]	; 0x4c
	if (HAL_RCC_OscConfig(&RCC_OscInitStruct) != HAL_OK) {
 8000526:	f107 0328 	add.w	r3, r7, #40	; 0x28
 800052a:	4618      	mov	r0, r3
 800052c:	f003 fb96 	bl	8003c5c <HAL_RCC_OscConfig>
 8000530:	4603      	mov	r3, r0
 8000532:	2b00      	cmp	r3, #0
 8000534:	d001      	beq.n	800053a <SystemClock_Config+0x66>
		Error_Handler();
 8000536:	f000 fc25 	bl	8000d84 <Error_Handler>
	}
	/** Initializes the CPU, AHB and APB busses clocks
	 */
	RCC_ClkInitStruct.ClockType = RCC_CLOCKTYPE_HCLK | RCC_CLOCKTYPE_SYSCLK
 800053a:	230f      	movs	r3, #15
 800053c:	617b      	str	r3, [r7, #20]
			| RCC_CLOCKTYPE_PCLK1 | RCC_CLOCKTYPE_PCLK2;
	RCC_ClkInitStruct.SYSCLKSource = RCC_SYSCLKSOURCE_PLLCLK;
 800053e:	2302      	movs	r3, #2
 8000540:	61bb      	str	r3, [r7, #24]
	RCC_ClkInitStruct.AHBCLKDivider = RCC_SYSCLK_DIV1;
 8000542:	2300      	movs	r3, #0
 8000544:	61fb      	str	r3, [r7, #28]
	RCC_ClkInitStruct.APB1CLKDivider = RCC_HCLK_DIV2;
 8000546:	f44f 6380 	mov.w	r3, #1024	; 0x400
 800054a:	623b      	str	r3, [r7, #32]
	RCC_ClkInitStruct.APB2CLKDivider = RCC_HCLK_DIV1;
 800054c:	2300      	movs	r3, #0
 800054e:	627b      	str	r3, [r7, #36]	; 0x24

	if (HAL_RCC_ClockConfig(&RCC_ClkInitStruct, FLASH_LATENCY_2) != HAL_OK) {
 8000550:	f107 0314 	add.w	r3, r7, #20
 8000554:	2102      	movs	r1, #2
 8000556:	4618      	mov	r0, r3
 8000558:	f003 fe00 	bl	800415c <HAL_RCC_ClockConfig>
 800055c:	4603      	mov	r3, r0
 800055e:	2b00      	cmp	r3, #0
 8000560:	d001      	beq.n	8000566 <SystemClock_Config+0x92>
		Error_Handler();
 8000562:	f000 fc0f 	bl	8000d84 <Error_Handler>
	}
	PeriphClkInit.PeriphClockSelection = RCC_PERIPHCLK_ADC;
 8000566:	2302      	movs	r3, #2
 8000568:	607b      	str	r3, [r7, #4]
	PeriphClkInit.AdcClockSelection = RCC_ADCPCLK2_DIV6;
 800056a:	f44f 4300 	mov.w	r3, #32768	; 0x8000
 800056e:	60fb      	str	r3, [r7, #12]
	if (HAL_RCCEx_PeriphCLKConfig(&PeriphClkInit) != HAL_OK) {
 8000570:	1d3b      	adds	r3, r7, #4
 8000572:	4618      	mov	r0, r3
 8000574:	f003 ffbe 	bl	80044f4 <HAL_RCCEx_PeriphCLKConfig>
 8000578:	4603      	mov	r3, r0
 800057a:	2b00      	cmp	r3, #0
 800057c:	d001      	beq.n	8000582 <SystemClock_Config+0xae>
		Error_Handler();
 800057e:	f000 fc01 	bl	8000d84 <Error_Handler>
	}
}
 8000582:	bf00      	nop
 8000584:	3750      	adds	r7, #80	; 0x50
 8000586:	46bd      	mov	sp, r7
 8000588:	bd80      	pop	{r7, pc}
	...

0800058c <MX_ADC1_Init>:
/**
 * @brief ADC1 Initialization Function
 * @param None
 * @retval None
 */
static void MX_ADC1_Init(void) {
 800058c:	b580      	push	{r7, lr}
 800058e:	b084      	sub	sp, #16
 8000590:	af00      	add	r7, sp, #0
	ADC_ChannelConfTypeDef sConfig = { 0 };
 8000592:	1d3b      	adds	r3, r7, #4
 8000594:	2200      	movs	r2, #0
 8000596:	601a      	str	r2, [r3, #0]
 8000598:	605a      	str	r2, [r3, #4]
 800059a:	609a      	str	r2, [r3, #8]

	/** Common config
	 */
	hadc1.Instance = ADC1;
 800059c:	4b2e      	ldr	r3, [pc, #184]	; (8000658 <MX_ADC1_Init+0xcc>)
 800059e:	4a2f      	ldr	r2, [pc, #188]	; (800065c <MX_ADC1_Init+0xd0>)
 80005a0:	601a      	str	r2, [r3, #0]
	hadc1.Init.ScanConvMode = ADC_SCAN_ENABLE;
 80005a2:	4b2d      	ldr	r3, [pc, #180]	; (8000658 <MX_ADC1_Init+0xcc>)
 80005a4:	f44f 7280 	mov.w	r2, #256	; 0x100
 80005a8:	609a      	str	r2, [r3, #8]
	hadc1.Init.ContinuousConvMode = ENABLE;
 80005aa:	4b2b      	ldr	r3, [pc, #172]	; (8000658 <MX_ADC1_Init+0xcc>)
 80005ac:	2201      	movs	r2, #1
 80005ae:	731a      	strb	r2, [r3, #12]
	hadc1.Init.DiscontinuousConvMode = DISABLE;
 80005b0:	4b29      	ldr	r3, [pc, #164]	; (8000658 <MX_ADC1_Init+0xcc>)
 80005b2:	2200      	movs	r2, #0
 80005b4:	751a      	strb	r2, [r3, #20]
	hadc1.Init.ExternalTrigConv = ADC_SOFTWARE_START;
 80005b6:	4b28      	ldr	r3, [pc, #160]	; (8000658 <MX_ADC1_Init+0xcc>)
 80005b8:	f44f 2260 	mov.w	r2, #917504	; 0xe0000
 80005bc:	61da      	str	r2, [r3, #28]
	hadc1.Init.DataAlign = ADC_DATAALIGN_RIGHT;
 80005be:	4b26      	ldr	r3, [pc, #152]	; (8000658 <MX_ADC1_Init+0xcc>)
 80005c0:	2200      	movs	r2, #0
 80005c2:	605a      	str	r2, [r3, #4]
	hadc1.Init.NbrOfConversion = 4;
 80005c4:	4b24      	ldr	r3, [pc, #144]	; (8000658 <MX_ADC1_Init+0xcc>)
 80005c6:	2204      	movs	r2, #4
 80005c8:	611a      	str	r2, [r3, #16]
	if (HAL_ADC_Init(&hadc1) != HAL_OK) {
 80005ca:	4823      	ldr	r0, [pc, #140]	; (8000658 <MX_ADC1_Init+0xcc>)
 80005cc:	f000 fe88 	bl	80012e0 <HAL_ADC_Init>
 80005d0:	4603      	mov	r3, r0
 80005d2:	2b00      	cmp	r3, #0
 80005d4:	d001      	beq.n	80005da <MX_ADC1_Init+0x4e>
		Error_Handler();
 80005d6:	f000 fbd5 	bl	8000d84 <Error_Handler>
	}
	/** Configure Regular Channel
	 */
	sConfig.Channel = ADC_CHANNEL_2;
 80005da:	2302      	movs	r3, #2
 80005dc:	607b      	str	r3, [r7, #4]
	sConfig.Rank = ADC_REGULAR_RANK_1;
 80005de:	2301      	movs	r3, #1
 80005e0:	60bb      	str	r3, [r7, #8]
	sConfig.SamplingTime = ADC_SAMPLETIME_239CYCLES_5;
 80005e2:	2307      	movs	r3, #7
 80005e4:	60fb      	str	r3, [r7, #12]
	if (HAL_ADC_ConfigChannel(&hadc1, &sConfig) != HAL_OK) {
 80005e6:	1d3b      	adds	r3, r7, #4
 80005e8:	4619      	mov	r1, r3
 80005ea:	481b      	ldr	r0, [pc, #108]	; (8000658 <MX_ADC1_Init+0xcc>)
 80005ec:	f001 f84a 	bl	8001684 <HAL_ADC_ConfigChannel>
 80005f0:	4603      	mov	r3, r0
 80005f2:	2b00      	cmp	r3, #0
 80005f4:	d001      	beq.n	80005fa <MX_ADC1_Init+0x6e>
		Error_Handler();
 80005f6:	f000 fbc5 	bl	8000d84 <Error_Handler>
	}
	/** Configure Regular Channel
	 */
	sConfig.Channel = ADC_CHANNEL_3;
 80005fa:	2303      	movs	r3, #3
 80005fc:	607b      	str	r3, [r7, #4]
	sConfig.Rank = ADC_REGULAR_RANK_2;
 80005fe:	2302      	movs	r3, #2
 8000600:	60bb      	str	r3, [r7, #8]
	if (HAL_ADC_ConfigChannel(&hadc1, &sConfig) != HAL_OK) {
 8000602:	1d3b      	adds	r3, r7, #4
 8000604:	4619      	mov	r1, r3
 8000606:	4814      	ldr	r0, [pc, #80]	; (8000658 <MX_ADC1_Init+0xcc>)
 8000608:	f001 f83c 	bl	8001684 <HAL_ADC_ConfigChannel>
 800060c:	4603      	mov	r3, r0
 800060e:	2b00      	cmp	r3, #0
 8000610:	d001      	beq.n	8000616 <MX_ADC1_Init+0x8a>
		Error_Handler();
 8000612:	f000 fbb7 	bl	8000d84 <Error_Handler>
	}
	/** Configure Regular Channel
	 */
	sConfig.Channel = ADC_CHANNEL_8;
 8000616:	2308      	movs	r3, #8
 8000618:	607b      	str	r3, [r7, #4]
	sConfig.Rank = ADC_REGULAR_RANK_3;
 800061a:	2303      	movs	r3, #3
 800061c:	60bb      	str	r3, [r7, #8]
	if (HAL_ADC_ConfigChannel(&hadc1, &sConfig) != HAL_OK) {
 800061e:	1d3b      	adds	r3, r7, #4
 8000620:	4619      	mov	r1, r3
 8000622:	480d      	ldr	r0, [pc, #52]	; (8000658 <MX_ADC1_Init+0xcc>)
 8000624:	f001 f82e 	bl	8001684 <HAL_ADC_ConfigChannel>
 8000628:	4603      	mov	r3, r0
 800062a:	2b00      	cmp	r3, #0
 800062c:	d001      	beq.n	8000632 <MX_ADC1_Init+0xa6>
		Error_Handler();
 800062e:	f000 fba9 	bl	8000d84 <Error_Handler>
	}
	/** Configure Regular Channel
	 */
	sConfig.Channel = ADC_CHANNEL_9;
 8000632:	2309      	movs	r3, #9
 8000634:	607b      	str	r3, [r7, #4]
	sConfig.Rank = ADC_REGULAR_RANK_4;
 8000636:	2304      	movs	r3, #4
 8000638:	60bb      	str	r3, [r7, #8]
	if (HAL_ADC_ConfigChannel(&hadc1, &sConfig) != HAL_OK) {
 800063a:	1d3b      	adds	r3, r7, #4
 800063c:	4619      	mov	r1, r3
 800063e:	4806      	ldr	r0, [pc, #24]	; (8000658 <MX_ADC1_Init+0xcc>)
 8000640:	f001 f820 	bl	8001684 <HAL_ADC_ConfigChannel>
 8000644:	4603      	mov	r3, r0
 8000646:	2b00      	cmp	r3, #0
 8000648:	d001      	beq.n	800064e <MX_ADC1_Init+0xc2>
		Error_Handler();
 800064a:	f000 fb9b 	bl	8000d84 <Error_Handler>
	}
}
 800064e:	bf00      	nop
 8000650:	3710      	adds	r7, #16
 8000652:	46bd      	mov	sp, r7
 8000654:	bd80      	pop	{r7, pc}
 8000656:	bf00      	nop
 8000658:	20001c7c 	.word	0x20001c7c
 800065c:	40012400 	.word	0x40012400

08000660 <MX_CAN_Init>:
/**
 * @brief CAN Initialization Function
 * @param None
 * @retval None
 */
static void MX_CAN_Init(void) {
 8000660:	b580      	push	{r7, lr}
 8000662:	af00      	add	r7, sp, #0
	hcan.Instance = CAN1;
 8000664:	4b17      	ldr	r3, [pc, #92]	; (80006c4 <MX_CAN_Init+0x64>)
 8000666:	4a18      	ldr	r2, [pc, #96]	; (80006c8 <MX_CAN_Init+0x68>)
 8000668:	601a      	str	r2, [r3, #0]
	hcan.Init.Prescaler = 9;
 800066a:	4b16      	ldr	r3, [pc, #88]	; (80006c4 <MX_CAN_Init+0x64>)
 800066c:	2209      	movs	r2, #9
 800066e:	605a      	str	r2, [r3, #4]
	hcan.Init.Mode = CAN_MODE_NORMAL;
 8000670:	4b14      	ldr	r3, [pc, #80]	; (80006c4 <MX_CAN_Init+0x64>)
 8000672:	2200      	movs	r2, #0
 8000674:	609a      	str	r2, [r3, #8]
	hcan.Init.SyncJumpWidth = CAN_SJW_1TQ;
 8000676:	4b13      	ldr	r3, [pc, #76]	; (80006c4 <MX_CAN_Init+0x64>)
 8000678:	2200      	movs	r2, #0
 800067a:	60da      	str	r2, [r3, #12]
	hcan.Init.TimeSeg1 = CAN_BS1_12TQ;
 800067c:	4b11      	ldr	r3, [pc, #68]	; (80006c4 <MX_CAN_Init+0x64>)
 800067e:	f44f 2230 	mov.w	r2, #720896	; 0xb0000
 8000682:	611a      	str	r2, [r3, #16]
	hcan.Init.TimeSeg2 = CAN_BS2_3TQ;
 8000684:	4b0f      	ldr	r3, [pc, #60]	; (80006c4 <MX_CAN_Init+0x64>)
 8000686:	f44f 1200 	mov.w	r2, #2097152	; 0x200000
 800068a:	615a      	str	r2, [r3, #20]
	hcan.Init.TimeTriggeredMode = DISABLE;
 800068c:	4b0d      	ldr	r3, [pc, #52]	; (80006c4 <MX_CAN_Init+0x64>)
 800068e:	2200      	movs	r2, #0
 8000690:	761a      	strb	r2, [r3, #24]
	hcan.Init.AutoBusOff = ENABLE;
 8000692:	4b0c      	ldr	r3, [pc, #48]	; (80006c4 <MX_CAN_Init+0x64>)
 8000694:	2201      	movs	r2, #1
 8000696:	765a      	strb	r2, [r3, #25]
	hcan.Init.AutoWakeUp = DISABLE;
 8000698:	4b0a      	ldr	r3, [pc, #40]	; (80006c4 <MX_CAN_Init+0x64>)
 800069a:	2200      	movs	r2, #0
 800069c:	769a      	strb	r2, [r3, #26]
	hcan.Init.AutoRetransmission = ENABLE;
 800069e:	4b09      	ldr	r3, [pc, #36]	; (80006c4 <MX_CAN_Init+0x64>)
 80006a0:	2201      	movs	r2, #1
 80006a2:	76da      	strb	r2, [r3, #27]
	hcan.Init.ReceiveFifoLocked = DISABLE;
 80006a4:	4b07      	ldr	r3, [pc, #28]	; (80006c4 <MX_CAN_Init+0x64>)
 80006a6:	2200      	movs	r2, #0
 80006a8:	771a      	strb	r2, [r3, #28]
	hcan.Init.TransmitFifoPriority = DISABLE;
 80006aa:	4b06      	ldr	r3, [pc, #24]	; (80006c4 <MX_CAN_Init+0x64>)
 80006ac:	2200      	movs	r2, #0
 80006ae:	775a      	strb	r2, [r3, #29]
	if (HAL_CAN_Init(&hcan) != HAL_OK) {
 80006b0:	4804      	ldr	r0, [pc, #16]	; (80006c4 <MX_CAN_Init+0x64>)
 80006b2:	f001 f9d1 	bl	8001a58 <HAL_CAN_Init>
 80006b6:	4603      	mov	r3, r0
 80006b8:	2b00      	cmp	r3, #0
 80006ba:	d001      	beq.n	80006c0 <MX_CAN_Init+0x60>
		Error_Handler();
 80006bc:	f000 fb62 	bl	8000d84 <Error_Handler>
	}
}
 80006c0:	bf00      	nop
 80006c2:	bd80      	pop	{r7, pc}
 80006c4:	20001c4c 	.word	0x20001c4c
 80006c8:	40006400 	.word	0x40006400

080006cc <MX_I2C1_Init>:
  * @brief I2C1 Initialization Function
  * @param None
  * @retval None
  */
static void MX_I2C1_Init(void)
{
 80006cc:	b580      	push	{r7, lr}
 80006ce:	af00      	add	r7, sp, #0
  /* USER CODE END I2C1_Init 0 */

  /* USER CODE BEGIN I2C1_Init 1 */

  /* USER CODE END I2C1_Init 1 */
  hi2c1.Instance = I2C1;
 80006d0:	4b12      	ldr	r3, [pc, #72]	; (800071c <MX_I2C1_Init+0x50>)
 80006d2:	4a13      	ldr	r2, [pc, #76]	; (8000720 <MX_I2C1_Init+0x54>)
 80006d4:	601a      	str	r2, [r3, #0]
  hi2c1.Init.ClockSpeed = 100000;
 80006d6:	4b11      	ldr	r3, [pc, #68]	; (800071c <MX_I2C1_Init+0x50>)
 80006d8:	4a12      	ldr	r2, [pc, #72]	; (8000724 <MX_I2C1_Init+0x58>)
 80006da:	605a      	str	r2, [r3, #4]
  hi2c1.Init.DutyCycle = I2C_DUTYCYCLE_2;
 80006dc:	4b0f      	ldr	r3, [pc, #60]	; (800071c <MX_I2C1_Init+0x50>)
 80006de:	2200      	movs	r2, #0
 80006e0:	609a      	str	r2, [r3, #8]
  hi2c1.Init.OwnAddress1 = 0;
 80006e2:	4b0e      	ldr	r3, [pc, #56]	; (800071c <MX_I2C1_Init+0x50>)
 80006e4:	2200      	movs	r2, #0
 80006e6:	60da      	str	r2, [r3, #12]
  hi2c1.Init.AddressingMode = I2C_ADDRESSINGMODE_7BIT;
 80006e8:	4b0c      	ldr	r3, [pc, #48]	; (800071c <MX_I2C1_Init+0x50>)
 80006ea:	f44f 4280 	mov.w	r2, #16384	; 0x4000
 80006ee:	611a      	str	r2, [r3, #16]
  hi2c1.Init.DualAddressMode = I2C_DUALADDRESS_DISABLE;
 80006f0:	4b0a      	ldr	r3, [pc, #40]	; (800071c <MX_I2C1_Init+0x50>)
 80006f2:	2200      	movs	r2, #0
 80006f4:	615a      	str	r2, [r3, #20]
  hi2c1.Init.OwnAddress2 = 0;
 80006f6:	4b09      	ldr	r3, [pc, #36]	; (800071c <MX_I2C1_Init+0x50>)
 80006f8:	2200      	movs	r2, #0
 80006fa:	619a      	str	r2, [r3, #24]
  hi2c1.Init.GeneralCallMode = I2C_GENERALCALL_DISABLE;
 80006fc:	4b07      	ldr	r3, [pc, #28]	; (800071c <MX_I2C1_Init+0x50>)
 80006fe:	2200      	movs	r2, #0
 8000700:	61da      	str	r2, [r3, #28]
  hi2c1.Init.NoStretchMode = I2C_NOSTRETCH_ENABLE;
 8000702:	4b06      	ldr	r3, [pc, #24]	; (800071c <MX_I2C1_Init+0x50>)
 8000704:	2280      	movs	r2, #128	; 0x80
 8000706:	621a      	str	r2, [r3, #32]
  if (HAL_I2C_Init(&hi2c1) != HAL_OK)
 8000708:	4804      	ldr	r0, [pc, #16]	; (800071c <MX_I2C1_Init+0x50>)
 800070a:	f002 fd6f 	bl	80031ec <HAL_I2C_Init>
 800070e:	4603      	mov	r3, r0
 8000710:	2b00      	cmp	r3, #0
 8000712:	d001      	beq.n	8000718 <MX_I2C1_Init+0x4c>
  {
    Error_Handler();
 8000714:	f000 fb36 	bl	8000d84 <Error_Handler>
  }
  /* USER CODE BEGIN I2C1_Init 2 */

  /* USER CODE END I2C1_Init 2 */

}
 8000718:	bf00      	nop
 800071a:	bd80      	pop	{r7, pc}
 800071c:	20001bf0 	.word	0x20001bf0
 8000720:	40005400 	.word	0x40005400
 8000724:	000186a0 	.word	0x000186a0

08000728 <MX_DMA_Init>:

/**
 * Enable DMA controller clock
 */
static void MX_DMA_Init(void) {
 8000728:	b580      	push	{r7, lr}
 800072a:	b082      	sub	sp, #8
 800072c:	af00      	add	r7, sp, #0
	__HAL_RCC_DMA1_CLK_ENABLE();
 800072e:	4b0c      	ldr	r3, [pc, #48]	; (8000760 <MX_DMA_Init+0x38>)
 8000730:	695b      	ldr	r3, [r3, #20]
 8000732:	4a0b      	ldr	r2, [pc, #44]	; (8000760 <MX_DMA_Init+0x38>)
 8000734:	f043 0301 	orr.w	r3, r3, #1
 8000738:	6153      	str	r3, [r2, #20]
 800073a:	4b09      	ldr	r3, [pc, #36]	; (8000760 <MX_DMA_Init+0x38>)
 800073c:	695b      	ldr	r3, [r3, #20]
 800073e:	f003 0301 	and.w	r3, r3, #1
 8000742:	607b      	str	r3, [r7, #4]
 8000744:	687b      	ldr	r3, [r7, #4]

	/* DMA interrupt init */
	/* DMA1_Channel1_IRQn interrupt configuration */
	HAL_NVIC_SetPriority(DMA1_Channel1_IRQn, 5, 0);
 8000746:	2200      	movs	r2, #0
 8000748:	2105      	movs	r1, #5
 800074a:	200b      	movs	r0, #11
 800074c:	f001 ff67 	bl	800261e <HAL_NVIC_SetPriority>
	HAL_NVIC_EnableIRQ(DMA1_Channel1_IRQn);
 8000750:	200b      	movs	r0, #11
 8000752:	f001 ff80 	bl	8002656 <HAL_NVIC_EnableIRQ>

}
 8000756:	bf00      	nop
 8000758:	3708      	adds	r7, #8
 800075a:	46bd      	mov	sp, r7
 800075c:	bd80      	pop	{r7, pc}
 800075e:	bf00      	nop
 8000760:	40021000 	.word	0x40021000

08000764 <MX_GPIO_Init>:
/**
 * @brief GPIO Initialization Function
 * @param None
 * @retval None
 */
static void MX_GPIO_Init(void) {
 8000764:	b580      	push	{r7, lr}
 8000766:	b088      	sub	sp, #32
 8000768:	af00      	add	r7, sp, #0
	GPIO_InitTypeDef GPIO_InitStruct = { 0 };
 800076a:	f107 0310 	add.w	r3, r7, #16
 800076e:	2200      	movs	r2, #0
 8000770:	601a      	str	r2, [r3, #0]
 8000772:	605a      	str	r2, [r3, #4]
 8000774:	609a      	str	r2, [r3, #8]
 8000776:	60da      	str	r2, [r3, #12]

	/* GPIO Ports Clock Enable */
	__HAL_RCC_GPIOC_CLK_ENABLE();
 8000778:	4b53      	ldr	r3, [pc, #332]	; (80008c8 <MX_GPIO_Init+0x164>)
 800077a:	699b      	ldr	r3, [r3, #24]
 800077c:	4a52      	ldr	r2, [pc, #328]	; (80008c8 <MX_GPIO_Init+0x164>)
 800077e:	f043 0310 	orr.w	r3, r3, #16
 8000782:	6193      	str	r3, [r2, #24]
 8000784:	4b50      	ldr	r3, [pc, #320]	; (80008c8 <MX_GPIO_Init+0x164>)
 8000786:	699b      	ldr	r3, [r3, #24]
 8000788:	f003 0310 	and.w	r3, r3, #16
 800078c:	60fb      	str	r3, [r7, #12]
 800078e:	68fb      	ldr	r3, [r7, #12]
	__HAL_RCC_GPIOD_CLK_ENABLE();
 8000790:	4b4d      	ldr	r3, [pc, #308]	; (80008c8 <MX_GPIO_Init+0x164>)
 8000792:	699b      	ldr	r3, [r3, #24]
 8000794:	4a4c      	ldr	r2, [pc, #304]	; (80008c8 <MX_GPIO_Init+0x164>)
 8000796:	f043 0320 	orr.w	r3, r3, #32
 800079a:	6193      	str	r3, [r2, #24]
 800079c:	4b4a      	ldr	r3, [pc, #296]	; (80008c8 <MX_GPIO_Init+0x164>)
 800079e:	699b      	ldr	r3, [r3, #24]
 80007a0:	f003 0320 	and.w	r3, r3, #32
 80007a4:	60bb      	str	r3, [r7, #8]
 80007a6:	68bb      	ldr	r3, [r7, #8]
	__HAL_RCC_GPIOA_CLK_ENABLE();
 80007a8:	4b47      	ldr	r3, [pc, #284]	; (80008c8 <MX_GPIO_Init+0x164>)
 80007aa:	699b      	ldr	r3, [r3, #24]
 80007ac:	4a46      	ldr	r2, [pc, #280]	; (80008c8 <MX_GPIO_Init+0x164>)
 80007ae:	f043 0304 	orr.w	r3, r3, #4
 80007b2:	6193      	str	r3, [r2, #24]
 80007b4:	4b44      	ldr	r3, [pc, #272]	; (80008c8 <MX_GPIO_Init+0x164>)
 80007b6:	699b      	ldr	r3, [r3, #24]
 80007b8:	f003 0304 	and.w	r3, r3, #4
 80007bc:	607b      	str	r3, [r7, #4]
 80007be:	687b      	ldr	r3, [r7, #4]
	__HAL_RCC_GPIOB_CLK_ENABLE();
 80007c0:	4b41      	ldr	r3, [pc, #260]	; (80008c8 <MX_GPIO_Init+0x164>)
 80007c2:	699b      	ldr	r3, [r3, #24]
 80007c4:	4a40      	ldr	r2, [pc, #256]	; (80008c8 <MX_GPIO_Init+0x164>)
 80007c6:	f043 0308 	orr.w	r3, r3, #8
 80007ca:	6193      	str	r3, [r2, #24]
 80007cc:	4b3e      	ldr	r3, [pc, #248]	; (80008c8 <MX_GPIO_Init+0x164>)
 80007ce:	699b      	ldr	r3, [r3, #24]
 80007d0:	f003 0308 	and.w	r3, r3, #8
 80007d4:	603b      	str	r3, [r7, #0]
 80007d6:	683b      	ldr	r3, [r7, #0]

	/*Configure GPIO pin Output Level */
	HAL_GPIO_WritePin(GPIOC, GPIO_PIN_13, GPIO_PIN_RESET);
 80007d8:	2200      	movs	r2, #0
 80007da:	f44f 5100 	mov.w	r1, #8192	; 0x2000
 80007de:	483b      	ldr	r0, [pc, #236]	; (80008cc <MX_GPIO_Init+0x168>)
 80007e0:	f002 fcb1 	bl	8003146 <HAL_GPIO_WritePin>
	HAL_GPIO_WritePin(GPIOC, GPIO_PIN_14, GPIO_PIN_RESET);
 80007e4:	2200      	movs	r2, #0
 80007e6:	f44f 4180 	mov.w	r1, #16384	; 0x4000
 80007ea:	4838      	ldr	r0, [pc, #224]	; (80008cc <MX_GPIO_Init+0x168>)
 80007ec:	f002 fcab 	bl	8003146 <HAL_GPIO_WritePin>
	/*Configure GPIO pin Output Level */
	HAL_GPIO_WritePin(GPIOA, GPIO_PIN_15, GPIO_PIN_RESET);
 80007f0:	2200      	movs	r2, #0
 80007f2:	f44f 4100 	mov.w	r1, #32768	; 0x8000
 80007f6:	4836      	ldr	r0, [pc, #216]	; (80008d0 <MX_GPIO_Init+0x16c>)
 80007f8:	f002 fca5 	bl	8003146 <HAL_GPIO_WritePin>

	/*Configure GPIO pin Output Level */
	HAL_GPIO_WritePin(GPIOB, GPIO_PIN_3, GPIO_PIN_RESET);
 80007fc:	2200      	movs	r2, #0
 80007fe:	2108      	movs	r1, #8
 8000800:	4834      	ldr	r0, [pc, #208]	; (80008d4 <MX_GPIO_Init+0x170>)
 8000802:	f002 fca0 	bl	8003146 <HAL_GPIO_WritePin>

	/*Configure GPIO pin : PC13 */
	GPIO_InitStruct.Pin = GPIO_PIN_13;
 8000806:	f44f 5300 	mov.w	r3, #8192	; 0x2000
 800080a:	613b      	str	r3, [r7, #16]
	GPIO_InitStruct.Mode = GPIO_MODE_OUTPUT_PP;
 800080c:	2301      	movs	r3, #1
 800080e:	617b      	str	r3, [r7, #20]
	GPIO_InitStruct.Pull = GPIO_NOPULL;
 8000810:	2300      	movs	r3, #0
 8000812:	61bb      	str	r3, [r7, #24]
	GPIO_InitStruct.Speed = GPIO_SPEED_FREQ_LOW;
 8000814:	2302      	movs	r3, #2
 8000816:	61fb      	str	r3, [r7, #28]
	HAL_GPIO_Init(GPIOC, &GPIO_InitStruct);
 8000818:	f107 0310 	add.w	r3, r7, #16
 800081c:	4619      	mov	r1, r3
 800081e:	482b      	ldr	r0, [pc, #172]	; (80008cc <MX_GPIO_Init+0x168>)
 8000820:	f002 fb20 	bl	8002e64 <HAL_GPIO_Init>

	GPIO_InitStruct.Pin = GPIO_PIN_14;
 8000824:	f44f 4380 	mov.w	r3, #16384	; 0x4000
 8000828:	613b      	str	r3, [r7, #16]
	GPIO_InitStruct.Mode = GPIO_MODE_OUTPUT_PP;
 800082a:	2301      	movs	r3, #1
 800082c:	617b      	str	r3, [r7, #20]
	GPIO_InitStruct.Pull = GPIO_NOPULL;
 800082e:	2300      	movs	r3, #0
 8000830:	61bb      	str	r3, [r7, #24]
	GPIO_InitStruct.Speed = GPIO_SPEED_FREQ_LOW;
 8000832:	2302      	movs	r3, #2
 8000834:	61fb      	str	r3, [r7, #28]
	HAL_GPIO_Init(GPIOC, &GPIO_InitStruct);
 8000836:	f107 0310 	add.w	r3, r7, #16
 800083a:	4619      	mov	r1, r3
 800083c:	4823      	ldr	r0, [pc, #140]	; (80008cc <MX_GPIO_Init+0x168>)
 800083e:	f002 fb11 	bl	8002e64 <HAL_GPIO_Init>

	/*Configure GPIO pin : PA15 */
	GPIO_InitStruct.Pin = GPIO_PIN_15;
 8000842:	f44f 4300 	mov.w	r3, #32768	; 0x8000
 8000846:	613b      	str	r3, [r7, #16]
	GPIO_InitStruct.Mode = GPIO_MODE_OUTPUT_PP;
 8000848:	2301      	movs	r3, #1
 800084a:	617b      	str	r3, [r7, #20]
	GPIO_InitStruct.Pull = GPIO_NOPULL;
 800084c:	2300      	movs	r3, #0
 800084e:	61bb      	str	r3, [r7, #24]
	GPIO_InitStruct.Speed = GPIO_SPEED_FREQ_LOW;
 8000850:	2302      	movs	r3, #2
 8000852:	61fb      	str	r3, [r7, #28]
	HAL_GPIO_Init(GPIOA, &GPIO_InitStruct);
 8000854:	f107 0310 	add.w	r3, r7, #16
 8000858:	4619      	mov	r1, r3
 800085a:	481d      	ldr	r0, [pc, #116]	; (80008d0 <MX_GPIO_Init+0x16c>)
 800085c:	f002 fb02 	bl	8002e64 <HAL_GPIO_Init>

	/*Configure GPIO pin : PA12 */
	GPIO_InitStruct.Pin = GPIO_PIN_12;
 8000860:	f44f 5380 	mov.w	r3, #4096	; 0x1000
 8000864:	613b      	str	r3, [r7, #16]
	GPIO_InitStruct.Mode = GPIO_MODE_IT_FALLING;
 8000866:	4b1c      	ldr	r3, [pc, #112]	; (80008d8 <MX_GPIO_Init+0x174>)
 8000868:	617b      	str	r3, [r7, #20]
	GPIO_InitStruct.Pull = GPIO_NOPULL;
 800086a:	2300      	movs	r3, #0
 800086c:	61bb      	str	r3, [r7, #24]
	HAL_GPIO_Init(GPIOA, &GPIO_InitStruct);
 800086e:	f107 0310 	add.w	r3, r7, #16
 8000872:	4619      	mov	r1, r3
 8000874:	4816      	ldr	r0, [pc, #88]	; (80008d0 <MX_GPIO_Init+0x16c>)
 8000876:	f002 faf5 	bl	8002e64 <HAL_GPIO_Init>
	/*Configure GPIO pin INTERRUPT : PA12 */
	HAL_NVIC_SetPriority(EXTI15_10_IRQn, 10, 0);
 800087a:	2200      	movs	r2, #0
 800087c:	210a      	movs	r1, #10
 800087e:	2028      	movs	r0, #40	; 0x28
 8000880:	f001 fecd 	bl	800261e <HAL_NVIC_SetPriority>
	HAL_NVIC_EnableIRQ(EXTI15_10_IRQn);
 8000884:	2028      	movs	r0, #40	; 0x28
 8000886:	f001 fee6 	bl	8002656 <HAL_NVIC_EnableIRQ>

	/*Configure GPIO pin : PB3 */
	GPIO_InitStruct.Pin = GPIO_PIN_3;
 800088a:	2308      	movs	r3, #8
 800088c:	613b      	str	r3, [r7, #16]
	GPIO_InitStruct.Mode = GPIO_MODE_OUTPUT_PP;
 800088e:	2301      	movs	r3, #1
 8000890:	617b      	str	r3, [r7, #20]
	GPIO_InitStruct.Pull = GPIO_NOPULL;
 8000892:	2300      	movs	r3, #0
 8000894:	61bb      	str	r3, [r7, #24]
	GPIO_InitStruct.Speed = GPIO_SPEED_FREQ_LOW;
 8000896:	2302      	movs	r3, #2
 8000898:	61fb      	str	r3, [r7, #28]
	HAL_GPIO_Init(GPIOB, &GPIO_InitStruct);
 800089a:	f107 0310 	add.w	r3, r7, #16
 800089e:	4619      	mov	r1, r3
 80008a0:	480c      	ldr	r0, [pc, #48]	; (80008d4 <MX_GPIO_Init+0x170>)
 80008a2:	f002 fadf 	bl	8002e64 <HAL_GPIO_Init>

	/*Configure GPIO pin : PB4 */
	GPIO_InitStruct.Pin = GPIO_PIN_4;
 80008a6:	2310      	movs	r3, #16
 80008a8:	613b      	str	r3, [r7, #16]
	GPIO_InitStruct.Mode = GPIO_MODE_INPUT;
 80008aa:	2300      	movs	r3, #0
 80008ac:	617b      	str	r3, [r7, #20]
	GPIO_InitStruct.Pull = GPIO_NOPULL;
 80008ae:	2300      	movs	r3, #0
 80008b0:	61bb      	str	r3, [r7, #24]
	HAL_GPIO_Init(GPIOB, &GPIO_InitStruct);
 80008b2:	f107 0310 	add.w	r3, r7, #16
 80008b6:	4619      	mov	r1, r3
 80008b8:	4806      	ldr	r0, [pc, #24]	; (80008d4 <MX_GPIO_Init+0x170>)
 80008ba:	f002 fad3 	bl	8002e64 <HAL_GPIO_Init>

}
 80008be:	bf00      	nop
 80008c0:	3720      	adds	r7, #32
 80008c2:	46bd      	mov	sp, r7
 80008c4:	bd80      	pop	{r7, pc}
 80008c6:	bf00      	nop
 80008c8:	40021000 	.word	0x40021000
 80008cc:	40011000 	.word	0x40011000
 80008d0:	40010800 	.word	0x40010800
 80008d4:	40010c00 	.word	0x40010c00
 80008d8:	10210000 	.word	0x10210000

080008dc <EXTI15_10_IRQHandler>:

/*Configure GPIO pin INTERRUPT HANDLER */
void EXTI15_10_IRQHandler(void) {
 80008dc:	b580      	push	{r7, lr}
 80008de:	b082      	sub	sp, #8
 80008e0:	af00      	add	r7, sp, #0
	HAL_GPIO_EXTI_IRQHandler(GPIO_PIN_12);
 80008e2:	f44f 5080 	mov.w	r0, #4096	; 0x1000
 80008e6:	f002 fc5f 	bl	80031a8 <HAL_GPIO_EXTI_IRQHandler>

	BaseType_t checkIfYieldRequired;
	checkIfYieldRequired = xTaskResumeFromISR(OD_Task);
 80008ea:	4b0a      	ldr	r3, [pc, #40]	; (8000914 <EXTI15_10_IRQHandler+0x38>)
 80008ec:	681b      	ldr	r3, [r3, #0]
 80008ee:	4618      	mov	r0, r3
 80008f0:	f004 fc4e 	bl	8005190 <xTaskResumeFromISR>
 80008f4:	6078      	str	r0, [r7, #4]
	portYIELD_FROM_ISR(checkIfYieldRequired);
 80008f6:	687b      	ldr	r3, [r7, #4]
 80008f8:	2b00      	cmp	r3, #0
 80008fa:	d007      	beq.n	800090c <EXTI15_10_IRQHandler+0x30>
 80008fc:	4b06      	ldr	r3, [pc, #24]	; (8000918 <EXTI15_10_IRQHandler+0x3c>)
 80008fe:	f04f 5280 	mov.w	r2, #268435456	; 0x10000000
 8000902:	601a      	str	r2, [r3, #0]
 8000904:	f3bf 8f4f 	dsb	sy
 8000908:	f3bf 8f6f 	isb	sy
}
 800090c:	bf00      	nop
 800090e:	3708      	adds	r7, #8
 8000910:	46bd      	mov	sp, r7
 8000912:	bd80      	pop	{r7, pc}
 8000914:	20001bec 	.word	0x20001bec
 8000918:	e000ed04 	.word	0xe000ed04

0800091c <CAN_Filter_Config>:

/*Configure can filters */
void CAN_Filter_Config(void) {
 800091c:	b580      	push	{r7, lr}
 800091e:	b08a      	sub	sp, #40	; 0x28
 8000920:	af00      	add	r7, sp, #0
	CAN_FilterTypeDef can_filt;
	can_filt.FilterActivation = ENABLE;
 8000922:	2301      	movs	r3, #1
 8000924:	623b      	str	r3, [r7, #32]
	can_filt.FilterBank = 0;
 8000926:	2300      	movs	r3, #0
 8000928:	617b      	str	r3, [r7, #20]
	can_filt.FilterFIFOAssignment = CAN_RX_FIFO0;
 800092a:	2300      	movs	r3, #0
 800092c:	613b      	str	r3, [r7, #16]
	can_filt.FilterIdHigh = 0x0000;
 800092e:	2300      	movs	r3, #0
 8000930:	603b      	str	r3, [r7, #0]
	can_filt.FilterIdLow = 0x0000;
 8000932:	2300      	movs	r3, #0
 8000934:	607b      	str	r3, [r7, #4]
	can_filt.FilterMaskIdHigh = 0x0000;
 8000936:	2300      	movs	r3, #0
 8000938:	60bb      	str	r3, [r7, #8]
	can_filt.FilterMaskIdLow = 0x0000;
 800093a:	2300      	movs	r3, #0
 800093c:	60fb      	str	r3, [r7, #12]
	can_filt.FilterMode = CAN_FILTERMODE_IDMASK;
 800093e:	2300      	movs	r3, #0
 8000940:	61bb      	str	r3, [r7, #24]
	can_filt.FilterScale = CAN_FILTERSCALE_32BIT;
 8000942:	2301      	movs	r3, #1
 8000944:	61fb      	str	r3, [r7, #28]

	if (HAL_CAN_ConfigFilter(&hcan, &can_filt) != HAL_OK) {
 8000946:	463b      	mov	r3, r7
 8000948:	4619      	mov	r1, r3
 800094a:	4806      	ldr	r0, [pc, #24]	; (8000964 <CAN_Filter_Config+0x48>)
 800094c:	f001 f97f 	bl	8001c4e <HAL_CAN_ConfigFilter>
 8000950:	4603      	mov	r3, r0
 8000952:	2b00      	cmp	r3, #0
 8000954:	d001      	beq.n	800095a <CAN_Filter_Config+0x3e>
		Error_Handler();
 8000956:	f000 fa15 	bl	8000d84 <Error_Handler>
	}
}
 800095a:	bf00      	nop
 800095c:	3728      	adds	r7, #40	; 0x28
 800095e:	46bd      	mov	sp, r7
 8000960:	bd80      	pop	{r7, pc}
 8000962:	bf00      	nop
 8000964:	20001c4c 	.word	0x20001c4c

08000968 <Bat_taskF>:

/*Battery level read task */
void Bat_taskF(void *pvParameters) {
 8000968:	b580      	push	{r7, lr}
 800096a:	b08c      	sub	sp, #48	; 0x30
 800096c:	af00      	add	r7, sp, #0
 800096e:	6078      	str	r0, [r7, #4]
	TickType_t xLastWakeTime;
	const TickType_t xFrequency = 1000;  //Ticks to wait since routine starts
 8000970:	f44f 737a 	mov.w	r3, #1000	; 0x3e8
 8000974:	62fb      	str	r3, [r7, #44]	; 0x2c
	xLastWakeTime = xTaskGetTickCount();
 8000976:	f004 fd83 	bl	8005480 <xTaskGetTickCount>
 800097a:	4603      	mov	r3, r0
 800097c:	62bb      	str	r3, [r7, #40]	; 0x28
	while (1) {
		//buffer[0] = (uint8_t) (analog[0] >> 8) & 0xFF;  //bat CALIBRAR
		//buffer[1] = (uint8_t) analog[0] & 0xFF;

		uint8_t batbuff[2];
		batbuff[0] = (uint8_t) (analog[0] >> 8) & 0xFF;
 800097e:	4b15      	ldr	r3, [pc, #84]	; (80009d4 <Bat_taskF+0x6c>)
 8000980:	881b      	ldrh	r3, [r3, #0]
 8000982:	0a1b      	lsrs	r3, r3, #8
 8000984:	b29b      	uxth	r3, r3
 8000986:	b2db      	uxtb	r3, r3
 8000988:	f887 3024 	strb.w	r3, [r7, #36]	; 0x24
		batbuff[1] = (uint8_t) analog[0] & 0xFF;
 800098c:	4b11      	ldr	r3, [pc, #68]	; (80009d4 <Bat_taskF+0x6c>)
 800098e:	881b      	ldrh	r3, [r3, #0]
 8000990:	b2db      	uxtb	r3, r3
 8000992:	f887 3025 	strb.w	r3, [r7, #37]	; 0x25

		uint32_t TxMailbox;

		CAN_TxHeaderTypeDef BatHeader;

		BatHeader.DLC = 2;
 8000996:	2302      	movs	r3, #2
 8000998:	61bb      	str	r3, [r7, #24]
		BatHeader.StdId = 0x650;
 800099a:	f44f 63ca 	mov.w	r3, #1616	; 0x650
 800099e:	60bb      	str	r3, [r7, #8]
		BatHeader.IDE = CAN_ID_STD;
 80009a0:	2300      	movs	r3, #0
 80009a2:	613b      	str	r3, [r7, #16]
		BatHeader.RTR = CAN_RTR_DATA;
 80009a4:	2300      	movs	r3, #0
 80009a6:	617b      	str	r3, [r7, #20]

		if (HAL_CAN_AddTxMessage(&hcan, &BatHeader, batbuff, &TxMailbox)
 80009a8:	f107 0320 	add.w	r3, r7, #32
 80009ac:	f107 0224 	add.w	r2, r7, #36	; 0x24
 80009b0:	f107 0108 	add.w	r1, r7, #8
 80009b4:	4808      	ldr	r0, [pc, #32]	; (80009d8 <Bat_taskF+0x70>)
 80009b6:	f001 fa57 	bl	8001e68 <HAL_CAN_AddTxMessage>
 80009ba:	4603      	mov	r3, r0
 80009bc:	2b00      	cmp	r3, #0
 80009be:	d001      	beq.n	80009c4 <Bat_taskF+0x5c>
				!= HAL_OK) {
			Error_Handler();
 80009c0:	f000 f9e0 	bl	8000d84 <Error_Handler>
		}

		vTaskDelayUntil(&xLastWakeTime, xFrequency); /*1Hz frequency*/
 80009c4:	f107 0328 	add.w	r3, r7, #40	; 0x28
 80009c8:	6af9      	ldr	r1, [r7, #44]	; 0x2c
 80009ca:	4618      	mov	r0, r3
 80009cc:	f004 fa9a 	bl	8004f04 <vTaskDelayUntil>
	while (1) {
 80009d0:	e7d5      	b.n	800097e <Bat_taskF+0x16>
 80009d2:	bf00      	nop
 80009d4:	20001be8 	.word	0x20001be8
 80009d8:	20001c4c 	.word	0x20001c4c

080009dc <Fuel_taskF>:
	}
}

/*Fuel level read task */
void Fuel_taskF(void *pvParameters) {
 80009dc:	b580      	push	{r7, lr}
 80009de:	b08c      	sub	sp, #48	; 0x30
 80009e0:	af00      	add	r7, sp, #0
 80009e2:	6078      	str	r0, [r7, #4]
	TickType_t xLastWakeTime;
	const TickType_t xFrequency = 20;  //Ticks to wait since routine starts
 80009e4:	2314      	movs	r3, #20
 80009e6:	62fb      	str	r3, [r7, #44]	; 0x2c
	xLastWakeTime = xTaskGetTickCount();
 80009e8:	f004 fd4a 	bl	8005480 <xTaskGetTickCount>
 80009ec:	4603      	mov	r3, r0
 80009ee:	62bb      	str	r3, [r7, #40]	; 0x28

	while (1) {
		uint8_t fuelbuff[2];
		fuelbuff[0] = (uint8_t) (analog[1] >> 8) & 0xFF;
 80009f0:	4b14      	ldr	r3, [pc, #80]	; (8000a44 <Fuel_taskF+0x68>)
 80009f2:	885b      	ldrh	r3, [r3, #2]
 80009f4:	0a1b      	lsrs	r3, r3, #8
 80009f6:	b29b      	uxth	r3, r3
 80009f8:	b2db      	uxtb	r3, r3
 80009fa:	f887 3024 	strb.w	r3, [r7, #36]	; 0x24
		fuelbuff[1] = (uint8_t) analog[1] & 0xFF;
 80009fe:	4b11      	ldr	r3, [pc, #68]	; (8000a44 <Fuel_taskF+0x68>)
 8000a00:	885b      	ldrh	r3, [r3, #2]
 8000a02:	b2db      	uxtb	r3, r3
 8000a04:	f887 3025 	strb.w	r3, [r7, #37]	; 0x25

		uint32_t TxMailbox;

		CAN_TxHeaderTypeDef FuelHeader;

		FuelHeader.DLC = 2;
 8000a08:	2302      	movs	r3, #2
 8000a0a:	61bb      	str	r3, [r7, #24]
		FuelHeader.StdId = 0x652;
 8000a0c:	f240 6352 	movw	r3, #1618	; 0x652
 8000a10:	60bb      	str	r3, [r7, #8]
		FuelHeader.IDE = CAN_ID_STD;
 8000a12:	2300      	movs	r3, #0
 8000a14:	613b      	str	r3, [r7, #16]
		FuelHeader.RTR = CAN_RTR_DATA;
 8000a16:	2300      	movs	r3, #0
 8000a18:	617b      	str	r3, [r7, #20]

		if (HAL_CAN_AddTxMessage(&hcan, &FuelHeader, fuelbuff, &TxMailbox)
 8000a1a:	f107 0320 	add.w	r3, r7, #32
 8000a1e:	f107 0224 	add.w	r2, r7, #36	; 0x24
 8000a22:	f107 0108 	add.w	r1, r7, #8
 8000a26:	4808      	ldr	r0, [pc, #32]	; (8000a48 <Fuel_taskF+0x6c>)
 8000a28:	f001 fa1e 	bl	8001e68 <HAL_CAN_AddTxMessage>
 8000a2c:	4603      	mov	r3, r0
 8000a2e:	2b00      	cmp	r3, #0
 8000a30:	d001      	beq.n	8000a36 <Fuel_taskF+0x5a>
				!= HAL_OK) {
			Error_Handler();
 8000a32:	f000 f9a7 	bl	8000d84 <Error_Handler>
		}

		vTaskDelayUntil(&xLastWakeTime, xFrequency); /*50Hz frequency*/
 8000a36:	f107 0328 	add.w	r3, r7, #40	; 0x28
 8000a3a:	6af9      	ldr	r1, [r7, #44]	; 0x2c
 8000a3c:	4618      	mov	r0, r3
 8000a3e:	f004 fa61 	bl	8004f04 <vTaskDelayUntil>
	while (1) {
 8000a42:	e7d5      	b.n	80009f0 <Fuel_taskF+0x14>
 8000a44:	20001be8 	.word	0x20001be8
 8000a48:	20001c4c 	.word	0x20001c4c

08000a4c <Speed_taskF>:
	}
}

/*Speed read task */
void Speed_taskF(void *pvParameters) {
 8000a4c:	b580      	push	{r7, lr}
 8000a4e:	b08e      	sub	sp, #56	; 0x38
 8000a50:	af02      	add	r7, sp, #8
 8000a52:	6078      	str	r0, [r7, #4]
	TickType_t xLastWakeTime;
	const TickType_t xFrequency = 10;  //Ticks to wait since routine starts
 8000a54:	230a      	movs	r3, #10
 8000a56:	62fb      	str	r3, [r7, #44]	; 0x2c
	xLastWakeTime = xTaskGetTickCount();
 8000a58:	f004 fd12 	bl	8005480 <xTaskGetTickCount>
 8000a5c:	4603      	mov	r3, r0
 8000a5e:	62bb      	str	r3, [r7, #40]	; 0x28
	while (1) {
		uint8_t speedbuff[2];
		speedbuff[0]=0;
 8000a60:	2300      	movs	r3, #0
 8000a62:	f887 3024 	strb.w	r3, [r7, #36]	; 0x24
		HAL_I2C_Master_Receive (&hi2c1, (0x4<<1), &speedbuff[1], 1, 10);
 8000a66:	f107 0324 	add.w	r3, r7, #36	; 0x24
 8000a6a:	1c5a      	adds	r2, r3, #1
 8000a6c:	230a      	movs	r3, #10
 8000a6e:	9300      	str	r3, [sp, #0]
 8000a70:	2301      	movs	r3, #1
 8000a72:	2108      	movs	r1, #8
 8000a74:	4810      	ldr	r0, [pc, #64]	; (8000ab8 <Speed_taskF+0x6c>)
 8000a76:	f002 fce1 	bl	800343c <HAL_I2C_Master_Receive>

		uint32_t TxMailbox;

		CAN_TxHeaderTypeDef SpeedHeader;

		SpeedHeader.DLC = 2;
 8000a7a:	2302      	movs	r3, #2
 8000a7c:	61bb      	str	r3, [r7, #24]
		SpeedHeader.StdId = 0x653;
 8000a7e:	f240 6353 	movw	r3, #1619	; 0x653
 8000a82:	60bb      	str	r3, [r7, #8]
		SpeedHeader.IDE = CAN_ID_STD;
 8000a84:	2300      	movs	r3, #0
 8000a86:	613b      	str	r3, [r7, #16]
		SpeedHeader.RTR = CAN_RTR_DATA;
 8000a88:	2300      	movs	r3, #0
 8000a8a:	617b      	str	r3, [r7, #20]

		if (HAL_CAN_AddTxMessage(&hcan, &SpeedHeader, speedbuff, &TxMailbox)
 8000a8c:	f107 0320 	add.w	r3, r7, #32
 8000a90:	f107 0224 	add.w	r2, r7, #36	; 0x24
 8000a94:	f107 0108 	add.w	r1, r7, #8
 8000a98:	4808      	ldr	r0, [pc, #32]	; (8000abc <Speed_taskF+0x70>)
 8000a9a:	f001 f9e5 	bl	8001e68 <HAL_CAN_AddTxMessage>
 8000a9e:	4603      	mov	r3, r0
 8000aa0:	2b00      	cmp	r3, #0
 8000aa2:	d001      	beq.n	8000aa8 <Speed_taskF+0x5c>
				!= HAL_OK) {
			Error_Handler();
 8000aa4:	f000 f96e 	bl	8000d84 <Error_Handler>
		}

		vTaskDelayUntil(&xLastWakeTime, xFrequency); /*100Hz frequency*/
 8000aa8:	f107 0328 	add.w	r3, r7, #40	; 0x28
 8000aac:	6af9      	ldr	r1, [r7, #44]	; 0x2c
 8000aae:	4618      	mov	r0, r3
 8000ab0:	f004 fa28 	bl	8004f04 <vTaskDelayUntil>
	while (1) {
 8000ab4:	e7d4      	b.n	8000a60 <Speed_taskF+0x14>
 8000ab6:	bf00      	nop
 8000ab8:	20001bf0 	.word	0x20001bf0
 8000abc:	20001c4c 	.word	0x20001c4c

08000ac0 <RPM_taskF>:
	}
}

/*RPM read task */
void RPM_taskF(void *pvParameters) {
 8000ac0:	b580      	push	{r7, lr}
 8000ac2:	b08e      	sub	sp, #56	; 0x38
 8000ac4:	af02      	add	r7, sp, #8
 8000ac6:	6078      	str	r0, [r7, #4]
	TickType_t xLastWakeTime;
	const TickType_t xFrequency = 10;  //Ticks to wait since routine starts
 8000ac8:	230a      	movs	r3, #10
 8000aca:	62fb      	str	r3, [r7, #44]	; 0x2c
	xLastWakeTime = xTaskGetTickCount();
 8000acc:	f004 fcd8 	bl	8005480 <xTaskGetTickCount>
 8000ad0:	4603      	mov	r3, r0
 8000ad2:	62bb      	str	r3, [r7, #40]	; 0x28

		//buffer[6] = (uint8_t) (analog[3] >> 8) & 0xFF;  //rpm CALIBRAR
		//buffer[7] = (uint8_t) analog[3] & 0xFF;

		uint8_t rpmbuff[2];
		rpmbuff[0] =0;
 8000ad4:	2300      	movs	r3, #0
 8000ad6:	f887 3024 	strb.w	r3, [r7, #36]	; 0x24
		HAL_I2C_Master_Receive (&hi2c1, (0x5<<1), &rpmbuff[1], 1, 10);
 8000ada:	f107 0324 	add.w	r3, r7, #36	; 0x24
 8000ade:	1c5a      	adds	r2, r3, #1
 8000ae0:	230a      	movs	r3, #10
 8000ae2:	9300      	str	r3, [sp, #0]
 8000ae4:	2301      	movs	r3, #1
 8000ae6:	210a      	movs	r1, #10
 8000ae8:	4810      	ldr	r0, [pc, #64]	; (8000b2c <RPM_taskF+0x6c>)
 8000aea:	f002 fca7 	bl	800343c <HAL_I2C_Master_Receive>

		uint32_t TxMailbox;

		CAN_TxHeaderTypeDef RPMHeader;

		RPMHeader.DLC = 2;
 8000aee:	2302      	movs	r3, #2
 8000af0:	61bb      	str	r3, [r7, #24]
		RPMHeader.StdId = 0x654;
 8000af2:	f240 6354 	movw	r3, #1620	; 0x654
 8000af6:	60bb      	str	r3, [r7, #8]
		RPMHeader.IDE = CAN_ID_STD;
 8000af8:	2300      	movs	r3, #0
 8000afa:	613b      	str	r3, [r7, #16]
		RPMHeader.RTR = CAN_RTR_DATA;
 8000afc:	2300      	movs	r3, #0
 8000afe:	617b      	str	r3, [r7, #20]

		if (HAL_CAN_AddTxMessage(&hcan, &RPMHeader, rpmbuff, &TxMailbox)
 8000b00:	f107 0320 	add.w	r3, r7, #32
 8000b04:	f107 0224 	add.w	r2, r7, #36	; 0x24
 8000b08:	f107 0108 	add.w	r1, r7, #8
 8000b0c:	4808      	ldr	r0, [pc, #32]	; (8000b30 <RPM_taskF+0x70>)
 8000b0e:	f001 f9ab 	bl	8001e68 <HAL_CAN_AddTxMessage>
 8000b12:	4603      	mov	r3, r0
 8000b14:	2b00      	cmp	r3, #0
 8000b16:	d001      	beq.n	8000b1c <RPM_taskF+0x5c>
				!= HAL_OK) {
			Error_Handler();
 8000b18:	f000 f934 	bl	8000d84 <Error_Handler>
		}

		vTaskDelayUntil(&xLastWakeTime, xFrequency); /*100Hz frequency*/
 8000b1c:	f107 0328 	add.w	r3, r7, #40	; 0x28
 8000b20:	6af9      	ldr	r1, [r7, #44]	; 0x2c
 8000b22:	4618      	mov	r0, r3
 8000b24:	f004 f9ee 	bl	8004f04 <vTaskDelayUntil>
	while (1) {
 8000b28:	e7d4      	b.n	8000ad4 <RPM_taskF+0x14>
 8000b2a:	bf00      	nop
 8000b2c:	20001bf0 	.word	0x20001bf0
 8000b30:	20001c4c 	.word	0x20001c4c

08000b34 <Temp_taskF>:
	}
}

/*Temperature read task */
void Temp_taskF(void *pvParameters) {
 8000b34:	b580      	push	{r7, lr}
 8000b36:	b092      	sub	sp, #72	; 0x48
 8000b38:	af00      	add	r7, sp, #0
 8000b3a:	6078      	str	r0, [r7, #4]
	TickType_t xLastWakeTime;
	const TickType_t xFrequency = 200;  //Ticks to wait since routine starts
 8000b3c:	23c8      	movs	r3, #200	; 0xc8
 8000b3e:	643b      	str	r3, [r7, #64]	; 0x40
	xLastWakeTime = xTaskGetTickCount();
 8000b40:	f004 fc9e 	bl	8005480 <xTaskGetTickCount>
 8000b44:	4603      	mov	r3, r0
 8000b46:	63fb      	str	r3, [r7, #60]	; 0x3c
	while (1) {
		uint8_t tempdata[16];

		CSen
 8000b48:	2200      	movs	r2, #0
 8000b4a:	f44f 4100 	mov.w	r1, #32768	; 0x8000
 8000b4e:	484e      	ldr	r0, [pc, #312]	; (8000c88 <Temp_taskF+0x154>)
 8000b50:	f002 faf9 	bl	8003146 <HAL_GPIO_WritePin>
		for (int i = 0; i < 16; i++) {
 8000b54:	2300      	movs	r3, #0
 8000b56:	647b      	str	r3, [r7, #68]	; 0x44
 8000b58:	e018      	b.n	8000b8c <Temp_taskF+0x58>
			SCK_H
 8000b5a:	2200      	movs	r2, #0
 8000b5c:	2108      	movs	r1, #8
 8000b5e:	484b      	ldr	r0, [pc, #300]	; (8000c8c <Temp_taskF+0x158>)
 8000b60:	f002 faf1 	bl	8003146 <HAL_GPIO_WritePin>
			tempdata[i] = HAL_GPIO_ReadPin(GPIOB, GPIO_PIN_4);
 8000b64:	2110      	movs	r1, #16
 8000b66:	4849      	ldr	r0, [pc, #292]	; (8000c8c <Temp_taskF+0x158>)
 8000b68:	f002 fad6 	bl	8003118 <HAL_GPIO_ReadPin>
 8000b6c:	4603      	mov	r3, r0
 8000b6e:	4619      	mov	r1, r3
 8000b70:	f107 022c 	add.w	r2, r7, #44	; 0x2c
 8000b74:	6c7b      	ldr	r3, [r7, #68]	; 0x44
 8000b76:	4413      	add	r3, r2
 8000b78:	460a      	mov	r2, r1
 8000b7a:	701a      	strb	r2, [r3, #0]
			SCK_L
 8000b7c:	2201      	movs	r2, #1
 8000b7e:	2108      	movs	r1, #8
 8000b80:	4842      	ldr	r0, [pc, #264]	; (8000c8c <Temp_taskF+0x158>)
 8000b82:	f002 fae0 	bl	8003146 <HAL_GPIO_WritePin>
		for (int i = 0; i < 16; i++) {
 8000b86:	6c7b      	ldr	r3, [r7, #68]	; 0x44
 8000b88:	3301      	adds	r3, #1
 8000b8a:	647b      	str	r3, [r7, #68]	; 0x44
 8000b8c:	6c7b      	ldr	r3, [r7, #68]	; 0x44
 8000b8e:	2b0f      	cmp	r3, #15
 8000b90:	dde3      	ble.n	8000b5a <Temp_taskF+0x26>
		}
		CSdis
 8000b92:	2201      	movs	r2, #1
 8000b94:	f44f 4100 	mov.w	r1, #32768	; 0x8000
 8000b98:	483b      	ldr	r0, [pc, #236]	; (8000c88 <Temp_taskF+0x154>)
 8000b9a:	f002 fad4 	bl	8003146 <HAL_GPIO_WritePin>

		if (tempdata[13] == 0) {
 8000b9e:	f897 3039 	ldrb.w	r3, [r7, #57]	; 0x39
 8000ba2:	2b00      	cmp	r3, #0
 8000ba4:	d146      	bne.n	8000c34 <Temp_taskF+0x100>
			temp16 = tempdata[1] * 2048 + tempdata[2] * 1024 + tempdata[3] * 512
 8000ba6:	f897 302d 	ldrb.w	r3, [r7, #45]	; 0x2d
 8000baa:	005b      	lsls	r3, r3, #1
 8000bac:	f897 202e 	ldrb.w	r2, [r7, #46]	; 0x2e
 8000bb0:	4413      	add	r3, r2
 8000bb2:	005b      	lsls	r3, r3, #1
 8000bb4:	f897 202f 	ldrb.w	r2, [r7, #47]	; 0x2f
 8000bb8:	4413      	add	r3, r2
					+ tempdata[4] * 256 + tempdata[5] * 128 + tempdata[6] * 64;
 8000bba:	005b      	lsls	r3, r3, #1
 8000bbc:	f897 2030 	ldrb.w	r2, [r7, #48]	; 0x30
 8000bc0:	4413      	add	r3, r2
 8000bc2:	005b      	lsls	r3, r3, #1
 8000bc4:	f897 2031 	ldrb.w	r2, [r7, #49]	; 0x31
 8000bc8:	4413      	add	r3, r2
 8000bca:	005b      	lsls	r3, r3, #1
 8000bcc:	f897 2032 	ldrb.w	r2, [r7, #50]	; 0x32
 8000bd0:	4413      	add	r3, r2
			temp16 = tempdata[1] * 2048 + tempdata[2] * 1024 + tempdata[3] * 512
 8000bd2:	b29b      	uxth	r3, r3
 8000bd4:	019b      	lsls	r3, r3, #6
 8000bd6:	b29a      	uxth	r2, r3
 8000bd8:	4b2d      	ldr	r3, [pc, #180]	; (8000c90 <Temp_taskF+0x15c>)
 8000bda:	801a      	strh	r2, [r3, #0]
			temp16 = temp16 + tempdata[7] * 32 + tempdata[8] * 16
 8000bdc:	f897 3033 	ldrb.w	r3, [r7, #51]	; 0x33
 8000be0:	b29b      	uxth	r3, r3
 8000be2:	005b      	lsls	r3, r3, #1
 8000be4:	b29a      	uxth	r2, r3
 8000be6:	f897 3034 	ldrb.w	r3, [r7, #52]	; 0x34
 8000bea:	b29b      	uxth	r3, r3
 8000bec:	4413      	add	r3, r2
 8000bee:	b29b      	uxth	r3, r3
					+ tempdata[9] * 8 + tempdata[10] * 4 + tempdata[11] * 2
 8000bf0:	005b      	lsls	r3, r3, #1
 8000bf2:	b29a      	uxth	r2, r3
 8000bf4:	f897 3035 	ldrb.w	r3, [r7, #53]	; 0x35
 8000bf8:	b29b      	uxth	r3, r3
 8000bfa:	4413      	add	r3, r2
 8000bfc:	b29b      	uxth	r3, r3
 8000bfe:	005b      	lsls	r3, r3, #1
 8000c00:	b29a      	uxth	r2, r3
 8000c02:	f897 3036 	ldrb.w	r3, [r7, #54]	; 0x36
 8000c06:	b29b      	uxth	r3, r3
 8000c08:	4413      	add	r3, r2
 8000c0a:	b29b      	uxth	r3, r3
 8000c0c:	005b      	lsls	r3, r3, #1
 8000c0e:	b29a      	uxth	r2, r3
 8000c10:	f897 3037 	ldrb.w	r3, [r7, #55]	; 0x37
 8000c14:	b29b      	uxth	r3, r3
 8000c16:	4413      	add	r3, r2
 8000c18:	b29b      	uxth	r3, r3
 8000c1a:	005b      	lsls	r3, r3, #1
 8000c1c:	b29a      	uxth	r2, r3
 8000c1e:	4b1c      	ldr	r3, [pc, #112]	; (8000c90 <Temp_taskF+0x15c>)
 8000c20:	881b      	ldrh	r3, [r3, #0]
 8000c22:	4413      	add	r3, r2
 8000c24:	b29a      	uxth	r2, r3
					+ tempdata[12];
 8000c26:	f897 3038 	ldrb.w	r3, [r7, #56]	; 0x38
 8000c2a:	b29b      	uxth	r3, r3
 8000c2c:	4413      	add	r3, r2
 8000c2e:	b29a      	uxth	r2, r3
			temp16 = temp16 + tempdata[7] * 32 + tempdata[8] * 16
 8000c30:	4b17      	ldr	r3, [pc, #92]	; (8000c90 <Temp_taskF+0x15c>)
 8000c32:	801a      	strh	r2, [r3, #0]
		}

		uint8_t tempbuff[2];
		tempbuff[0] = (uint8_t) (temp16 >> 8) & 0xFF;
 8000c34:	4b16      	ldr	r3, [pc, #88]	; (8000c90 <Temp_taskF+0x15c>)
 8000c36:	881b      	ldrh	r3, [r3, #0]
 8000c38:	0a1b      	lsrs	r3, r3, #8
 8000c3a:	b29b      	uxth	r3, r3
 8000c3c:	b2db      	uxtb	r3, r3
 8000c3e:	f887 3028 	strb.w	r3, [r7, #40]	; 0x28
		tempbuff[1] = (uint8_t) temp16 & 0xFF;
 8000c42:	4b13      	ldr	r3, [pc, #76]	; (8000c90 <Temp_taskF+0x15c>)
 8000c44:	881b      	ldrh	r3, [r3, #0]
 8000c46:	b2db      	uxtb	r3, r3
 8000c48:	f887 3029 	strb.w	r3, [r7, #41]	; 0x29

		uint32_t TxMailbox;

		CAN_TxHeaderTypeDef TempHeader;

		TempHeader.DLC = 2;
 8000c4c:	2302      	movs	r3, #2
 8000c4e:	61fb      	str	r3, [r7, #28]
		TempHeader.StdId = 0x651;
 8000c50:	f240 6351 	movw	r3, #1617	; 0x651
 8000c54:	60fb      	str	r3, [r7, #12]
		TempHeader.IDE = CAN_ID_STD;
 8000c56:	2300      	movs	r3, #0
 8000c58:	617b      	str	r3, [r7, #20]
		TempHeader.RTR = CAN_RTR_DATA;
 8000c5a:	2300      	movs	r3, #0
 8000c5c:	61bb      	str	r3, [r7, #24]

		if (HAL_CAN_AddTxMessage(&hcan, &TempHeader, tempbuff, &TxMailbox)
 8000c5e:	f107 0324 	add.w	r3, r7, #36	; 0x24
 8000c62:	f107 0228 	add.w	r2, r7, #40	; 0x28
 8000c66:	f107 010c 	add.w	r1, r7, #12
 8000c6a:	480a      	ldr	r0, [pc, #40]	; (8000c94 <Temp_taskF+0x160>)
 8000c6c:	f001 f8fc 	bl	8001e68 <HAL_CAN_AddTxMessage>
 8000c70:	4603      	mov	r3, r0
 8000c72:	2b00      	cmp	r3, #0
 8000c74:	d001      	beq.n	8000c7a <Temp_taskF+0x146>
				!= HAL_OK) {
			Error_Handler();
 8000c76:	f000 f885 	bl	8000d84 <Error_Handler>
		}

		vTaskDelayUntil(&xLastWakeTime, xFrequency); /*5Hz frequency*/
 8000c7a:	f107 033c 	add.w	r3, r7, #60	; 0x3c
 8000c7e:	6c39      	ldr	r1, [r7, #64]	; 0x40
 8000c80:	4618      	mov	r0, r3
 8000c82:	f004 f93f 	bl	8004f04 <vTaskDelayUntil>
	while (1) {
 8000c86:	e75f      	b.n	8000b48 <Temp_taskF+0x14>
 8000c88:	40010800 	.word	0x40010800
 8000c8c:	40010c00 	.word	0x40010c00
 8000c90:	20001cac 	.word	0x20001cac
 8000c94:	20001c4c 	.word	0x20001c4c

08000c98 <OD_taskF>:
	}
}

/*Odometer read write task */
void OD_taskF(void *pvParameters) {
 8000c98:	b580      	push	{r7, lr}
 8000c9a:	b08a      	sub	sp, #40	; 0x28
 8000c9c:	af00      	add	r7, sp, #0
 8000c9e:	6078      	str	r0, [r7, #4]
	while (1) {

		vTaskSuspend(NULL);
 8000ca0:	2000      	movs	r0, #0
 8000ca2:	f004 f9a9 	bl	8004ff8 <vTaskSuspend>
		PULSO += 1;
 8000ca6:	4b29      	ldr	r3, [pc, #164]	; (8000d4c <OD_taskF+0xb4>)
 8000ca8:	781b      	ldrb	r3, [r3, #0]
 8000caa:	3301      	adds	r3, #1
 8000cac:	b2da      	uxtb	r2, r3
 8000cae:	4b27      	ldr	r3, [pc, #156]	; (8000d4c <OD_taskF+0xb4>)
 8000cb0:	701a      	strb	r2, [r3, #0]
		if (PULSO == 1) { //ODOMETRO 100m A CADA 58 VOLTAS!!!
 8000cb2:	4b26      	ldr	r3, [pc, #152]	; (8000d4c <OD_taskF+0xb4>)
 8000cb4:	781b      	ldrb	r3, [r3, #0]
 8000cb6:	2b01      	cmp	r3, #1
 8000cb8:	d1f2      	bne.n	8000ca0 <OD_taskF+0x8>
			HAL_GPIO_TogglePin(GPIOC, GPIO_PIN_14);
 8000cba:	f44f 4180 	mov.w	r1, #16384	; 0x4000
 8000cbe:	4824      	ldr	r0, [pc, #144]	; (8000d50 <OD_taskF+0xb8>)
 8000cc0:	f002 fa59 	bl	8003176 <HAL_GPIO_TogglePin>
			PULSO = 0;
 8000cc4:	4b21      	ldr	r3, [pc, #132]	; (8000d4c <OD_taskF+0xb4>)
 8000cc6:	2200      	movs	r2, #0
 8000cc8:	701a      	strb	r2, [r3, #0]
			uint8_t odbuff[4];

			OD = Flash_Read_NUM(0x0801FC00);
 8000cca:	4822      	ldr	r0, [pc, #136]	; (8000d54 <OD_taskF+0xbc>)
 8000ccc:	f7ff fb34 	bl	8000338 <Flash_Read_NUM>
 8000cd0:	4602      	mov	r2, r0
 8000cd2:	4b21      	ldr	r3, [pc, #132]	; (8000d58 <OD_taskF+0xc0>)
 8000cd4:	601a      	str	r2, [r3, #0]
			OD += 100;
 8000cd6:	4b20      	ldr	r3, [pc, #128]	; (8000d58 <OD_taskF+0xc0>)
 8000cd8:	681b      	ldr	r3, [r3, #0]
 8000cda:	3364      	adds	r3, #100	; 0x64
 8000cdc:	4a1e      	ldr	r2, [pc, #120]	; (8000d58 <OD_taskF+0xc0>)
 8000cde:	6013      	str	r3, [r2, #0]
			Flash_Write_NUM(0x0801FC00, OD);
 8000ce0:	4b1d      	ldr	r3, [pc, #116]	; (8000d58 <OD_taskF+0xc0>)
 8000ce2:	681b      	ldr	r3, [r3, #0]
 8000ce4:	4619      	mov	r1, r3
 8000ce6:	481b      	ldr	r0, [pc, #108]	; (8000d54 <OD_taskF+0xbc>)
 8000ce8:	f7ff fb12 	bl	8000310 <Flash_Write_NUM>
			odbuff[0] = (uint8_t) (OD >> 24) & 0xFF;
 8000cec:	4b1a      	ldr	r3, [pc, #104]	; (8000d58 <OD_taskF+0xc0>)
 8000cee:	681b      	ldr	r3, [r3, #0]
 8000cf0:	0e1b      	lsrs	r3, r3, #24
 8000cf2:	b2db      	uxtb	r3, r3
 8000cf4:	f887 3024 	strb.w	r3, [r7, #36]	; 0x24
			odbuff[1] = (uint8_t) (OD >> 16) & 0xFF;
 8000cf8:	4b17      	ldr	r3, [pc, #92]	; (8000d58 <OD_taskF+0xc0>)
 8000cfa:	681b      	ldr	r3, [r3, #0]
 8000cfc:	0c1b      	lsrs	r3, r3, #16
 8000cfe:	b2db      	uxtb	r3, r3
 8000d00:	f887 3025 	strb.w	r3, [r7, #37]	; 0x25
			odbuff[2] = (uint8_t) (OD >> 8) & 0xFF;
 8000d04:	4b14      	ldr	r3, [pc, #80]	; (8000d58 <OD_taskF+0xc0>)
 8000d06:	681b      	ldr	r3, [r3, #0]
 8000d08:	0a1b      	lsrs	r3, r3, #8
 8000d0a:	b2db      	uxtb	r3, r3
 8000d0c:	f887 3026 	strb.w	r3, [r7, #38]	; 0x26
			odbuff[3] = (uint8_t) OD & 0xFF;
 8000d10:	4b11      	ldr	r3, [pc, #68]	; (8000d58 <OD_taskF+0xc0>)
 8000d12:	681b      	ldr	r3, [r3, #0]
 8000d14:	b2db      	uxtb	r3, r3
 8000d16:	f887 3027 	strb.w	r3, [r7, #39]	; 0x27

			uint32_t TxMailbox;

			CAN_TxHeaderTypeDef odHeader;

			odHeader.DLC = 4;
 8000d1a:	2304      	movs	r3, #4
 8000d1c:	61bb      	str	r3, [r7, #24]
			odHeader.StdId = 0x655;
 8000d1e:	f240 6355 	movw	r3, #1621	; 0x655
 8000d22:	60bb      	str	r3, [r7, #8]
			odHeader.IDE = CAN_ID_STD;
 8000d24:	2300      	movs	r3, #0
 8000d26:	613b      	str	r3, [r7, #16]
			odHeader.RTR = CAN_RTR_DATA;
 8000d28:	2300      	movs	r3, #0
 8000d2a:	617b      	str	r3, [r7, #20]

			if (HAL_CAN_AddTxMessage(&hcan, &odHeader, odbuff, &TxMailbox)
 8000d2c:	f107 0320 	add.w	r3, r7, #32
 8000d30:	f107 0224 	add.w	r2, r7, #36	; 0x24
 8000d34:	f107 0108 	add.w	r1, r7, #8
 8000d38:	4808      	ldr	r0, [pc, #32]	; (8000d5c <OD_taskF+0xc4>)
 8000d3a:	f001 f895 	bl	8001e68 <HAL_CAN_AddTxMessage>
 8000d3e:	4603      	mov	r3, r0
 8000d40:	2b00      	cmp	r3, #0
 8000d42:	d0ad      	beq.n	8000ca0 <OD_taskF+0x8>
					!= HAL_OK) {
				Error_Handler();
 8000d44:	f000 f81e 	bl	8000d84 <Error_Handler>
		vTaskSuspend(NULL);
 8000d48:	e7aa      	b.n	8000ca0 <OD_taskF+0x8>
 8000d4a:	bf00      	nop
 8000d4c:	20000294 	.word	0x20000294
 8000d50:	40011000 	.word	0x40011000
 8000d54:	0801fc00 	.word	0x0801fc00
 8000d58:	20000290 	.word	0x20000290
 8000d5c:	20001c4c 	.word	0x20001c4c

08000d60 <HAL_TIM_PeriodElapsedCallback>:
 * HAL_TIM_IRQHandler(). It makes a direct call to HAL_IncTick() to increment
 * a global variable "uwTick" used as application time base.
 * @param  htim : TIM handle
 * @retval None
 */
void HAL_TIM_PeriodElapsedCallback(TIM_HandleTypeDef *htim) {
 8000d60:	b580      	push	{r7, lr}
 8000d62:	b082      	sub	sp, #8
 8000d64:	af00      	add	r7, sp, #0
 8000d66:	6078      	str	r0, [r7, #4]
	/* USER CODE BEGIN Callback 0 */

	/* USER CODE END Callback 0 */
	if (htim->Instance == TIM1) {
 8000d68:	687b      	ldr	r3, [r7, #4]
 8000d6a:	681b      	ldr	r3, [r3, #0]
 8000d6c:	4a04      	ldr	r2, [pc, #16]	; (8000d80 <HAL_TIM_PeriodElapsedCallback+0x20>)
 8000d6e:	4293      	cmp	r3, r2
 8000d70:	d101      	bne.n	8000d76 <HAL_TIM_PeriodElapsedCallback+0x16>
		HAL_IncTick();
 8000d72:	f000 fa77 	bl	8001264 <HAL_IncTick>
	}
	/* USER CODE BEGIN Callback 1 */

	/* USER CODE END Callback 1 */
}
 8000d76:	bf00      	nop
 8000d78:	3708      	adds	r7, #8
 8000d7a:	46bd      	mov	sp, r7
 8000d7c:	bd80      	pop	{r7, pc}
 8000d7e:	bf00      	nop
 8000d80:	40012c00 	.word	0x40012c00

08000d84 <Error_Handler>:

/**
 * @brief  This function is executed in case of error occurrence.
 * @retval None
 */
void Error_Handler(void) {
 8000d84:	b480      	push	{r7}
 8000d86:	af00      	add	r7, sp, #0
	/* USER CODE BEGIN Error_Handler_Debug */
	/* User can add his own implementation to report the HAL error return state */

	/* USER CODE END Error_Handler_Debug */
}
 8000d88:	bf00      	nop
 8000d8a:	46bd      	mov	sp, r7
 8000d8c:	bc80      	pop	{r7}
 8000d8e:	4770      	bx	lr

08000d90 <HAL_MspInit>:
/* USER CODE END 0 */
/**
  * Initializes the Global MSP.
  */
void HAL_MspInit(void)
{
 8000d90:	b580      	push	{r7, lr}
 8000d92:	b084      	sub	sp, #16
 8000d94:	af00      	add	r7, sp, #0
  /* USER CODE BEGIN MspInit 0 */

  /* USER CODE END MspInit 0 */

  __HAL_RCC_AFIO_CLK_ENABLE();
 8000d96:	4b18      	ldr	r3, [pc, #96]	; (8000df8 <HAL_MspInit+0x68>)
 8000d98:	699b      	ldr	r3, [r3, #24]
 8000d9a:	4a17      	ldr	r2, [pc, #92]	; (8000df8 <HAL_MspInit+0x68>)
 8000d9c:	f043 0301 	orr.w	r3, r3, #1
 8000da0:	6193      	str	r3, [r2, #24]
 8000da2:	4b15      	ldr	r3, [pc, #84]	; (8000df8 <HAL_MspInit+0x68>)
 8000da4:	699b      	ldr	r3, [r3, #24]
 8000da6:	f003 0301 	and.w	r3, r3, #1
 8000daa:	60bb      	str	r3, [r7, #8]
 8000dac:	68bb      	ldr	r3, [r7, #8]
  __HAL_RCC_PWR_CLK_ENABLE();
 8000dae:	4b12      	ldr	r3, [pc, #72]	; (8000df8 <HAL_MspInit+0x68>)
 8000db0:	69db      	ldr	r3, [r3, #28]
 8000db2:	4a11      	ldr	r2, [pc, #68]	; (8000df8 <HAL_MspInit+0x68>)
 8000db4:	f043 5380 	orr.w	r3, r3, #268435456	; 0x10000000
 8000db8:	61d3      	str	r3, [r2, #28]
 8000dba:	4b0f      	ldr	r3, [pc, #60]	; (8000df8 <HAL_MspInit+0x68>)
 8000dbc:	69db      	ldr	r3, [r3, #28]
 8000dbe:	f003 5380 	and.w	r3, r3, #268435456	; 0x10000000
 8000dc2:	607b      	str	r3, [r7, #4]
 8000dc4:	687b      	ldr	r3, [r7, #4]

  /* System interrupt init*/
  /* PendSV_IRQn interrupt configuration */
  HAL_NVIC_SetPriority(PendSV_IRQn, 15, 0);
 8000dc6:	2200      	movs	r2, #0
 8000dc8:	210f      	movs	r1, #15
 8000dca:	f06f 0001 	mvn.w	r0, #1
 8000dce:	f001 fc26 	bl	800261e <HAL_NVIC_SetPriority>

  /** NOJTAG: JTAG-DP Disabled and SW-DP Enabled
  */
  __HAL_AFIO_REMAP_SWJ_NOJTAG();
 8000dd2:	4b0a      	ldr	r3, [pc, #40]	; (8000dfc <HAL_MspInit+0x6c>)
 8000dd4:	685b      	ldr	r3, [r3, #4]
 8000dd6:	60fb      	str	r3, [r7, #12]
 8000dd8:	68fb      	ldr	r3, [r7, #12]
 8000dda:	f023 63e0 	bic.w	r3, r3, #117440512	; 0x7000000
 8000dde:	60fb      	str	r3, [r7, #12]
 8000de0:	68fb      	ldr	r3, [r7, #12]
 8000de2:	f043 7300 	orr.w	r3, r3, #33554432	; 0x2000000
 8000de6:	60fb      	str	r3, [r7, #12]
 8000de8:	4a04      	ldr	r2, [pc, #16]	; (8000dfc <HAL_MspInit+0x6c>)
 8000dea:	68fb      	ldr	r3, [r7, #12]
 8000dec:	6053      	str	r3, [r2, #4]

  /* USER CODE BEGIN MspInit 1 */

  /* USER CODE END MspInit 1 */
}
 8000dee:	bf00      	nop
 8000df0:	3710      	adds	r7, #16
 8000df2:	46bd      	mov	sp, r7
 8000df4:	bd80      	pop	{r7, pc}
 8000df6:	bf00      	nop
 8000df8:	40021000 	.word	0x40021000
 8000dfc:	40010000 	.word	0x40010000

08000e00 <HAL_I2C_MspInit>:
* This function configures the hardware resources used in this example
* @param hi2c: I2C handle pointer
* @retval None
*/
void HAL_I2C_MspInit(I2C_HandleTypeDef* hi2c)
{
 8000e00:	b580      	push	{r7, lr}
 8000e02:	b088      	sub	sp, #32
 8000e04:	af00      	add	r7, sp, #0
 8000e06:	6078      	str	r0, [r7, #4]
  GPIO_InitTypeDef GPIO_InitStruct = {0};
 8000e08:	f107 0310 	add.w	r3, r7, #16
 8000e0c:	2200      	movs	r2, #0
 8000e0e:	601a      	str	r2, [r3, #0]
 8000e10:	605a      	str	r2, [r3, #4]
 8000e12:	609a      	str	r2, [r3, #8]
 8000e14:	60da      	str	r2, [r3, #12]
  if(hi2c->Instance==I2C1)
 8000e16:	687b      	ldr	r3, [r7, #4]
 8000e18:	681b      	ldr	r3, [r3, #0]
 8000e1a:	4a15      	ldr	r2, [pc, #84]	; (8000e70 <HAL_I2C_MspInit+0x70>)
 8000e1c:	4293      	cmp	r3, r2
 8000e1e:	d123      	bne.n	8000e68 <HAL_I2C_MspInit+0x68>
  {
  /* USER CODE BEGIN I2C1_MspInit 0 */
	    /* Peripheral clock enable */
	    __HAL_RCC_I2C1_CLK_ENABLE();
 8000e20:	4b14      	ldr	r3, [pc, #80]	; (8000e74 <HAL_I2C_MspInit+0x74>)
 8000e22:	69db      	ldr	r3, [r3, #28]
 8000e24:	4a13      	ldr	r2, [pc, #76]	; (8000e74 <HAL_I2C_MspInit+0x74>)
 8000e26:	f443 1300 	orr.w	r3, r3, #2097152	; 0x200000
 8000e2a:	61d3      	str	r3, [r2, #28]
 8000e2c:	4b11      	ldr	r3, [pc, #68]	; (8000e74 <HAL_I2C_MspInit+0x74>)
 8000e2e:	69db      	ldr	r3, [r3, #28]
 8000e30:	f403 1300 	and.w	r3, r3, #2097152	; 0x200000
 8000e34:	60fb      	str	r3, [r7, #12]
 8000e36:	68fb      	ldr	r3, [r7, #12]
  /* USER CODE END I2C1_MspInit 0 */

    __HAL_RCC_GPIOB_CLK_ENABLE();
 8000e38:	4b0e      	ldr	r3, [pc, #56]	; (8000e74 <HAL_I2C_MspInit+0x74>)
 8000e3a:	699b      	ldr	r3, [r3, #24]
 8000e3c:	4a0d      	ldr	r2, [pc, #52]	; (8000e74 <HAL_I2C_MspInit+0x74>)
 8000e3e:	f043 0308 	orr.w	r3, r3, #8
 8000e42:	6193      	str	r3, [r2, #24]
 8000e44:	4b0b      	ldr	r3, [pc, #44]	; (8000e74 <HAL_I2C_MspInit+0x74>)
 8000e46:	699b      	ldr	r3, [r3, #24]
 8000e48:	f003 0308 	and.w	r3, r3, #8
 8000e4c:	60bb      	str	r3, [r7, #8]
 8000e4e:	68bb      	ldr	r3, [r7, #8]
    /**I2C1 GPIO Configuration
    PB6     ------> I2C1_SCL
    PB7     ------> I2C1_SDA
    */
    GPIO_InitStruct.Pin = GPIO_PIN_6|GPIO_PIN_7;
 8000e50:	23c0      	movs	r3, #192	; 0xc0
 8000e52:	613b      	str	r3, [r7, #16]
    GPIO_InitStruct.Mode = GPIO_MODE_AF_OD;
 8000e54:	2312      	movs	r3, #18
 8000e56:	617b      	str	r3, [r7, #20]
    GPIO_InitStruct.Speed = GPIO_SPEED_FREQ_HIGH;
 8000e58:	2303      	movs	r3, #3
 8000e5a:	61fb      	str	r3, [r7, #28]
    HAL_GPIO_Init(GPIOB, &GPIO_InitStruct);
 8000e5c:	f107 0310 	add.w	r3, r7, #16
 8000e60:	4619      	mov	r1, r3
 8000e62:	4805      	ldr	r0, [pc, #20]	; (8000e78 <HAL_I2C_MspInit+0x78>)
 8000e64:	f001 fffe 	bl	8002e64 <HAL_GPIO_Init>
  /* USER CODE BEGIN I2C1_MspInit 1 */

  /* USER CODE END I2C1_MspInit 1 */
  }

}
 8000e68:	bf00      	nop
 8000e6a:	3720      	adds	r7, #32
 8000e6c:	46bd      	mov	sp, r7
 8000e6e:	bd80      	pop	{r7, pc}
 8000e70:	40005400 	.word	0x40005400
 8000e74:	40021000 	.word	0x40021000
 8000e78:	40010c00 	.word	0x40010c00

08000e7c <HAL_ADC_MspInit>:
* This function configures the hardware resources used in this example
* @param hadc: ADC handle pointer
* @retval None
*/
void HAL_ADC_MspInit(ADC_HandleTypeDef* hadc)
{
 8000e7c:	b580      	push	{r7, lr}
 8000e7e:	b08a      	sub	sp, #40	; 0x28
 8000e80:	af00      	add	r7, sp, #0
 8000e82:	6078      	str	r0, [r7, #4]
  GPIO_InitTypeDef GPIO_InitStruct = {0};
 8000e84:	f107 0318 	add.w	r3, r7, #24
 8000e88:	2200      	movs	r2, #0
 8000e8a:	601a      	str	r2, [r3, #0]
 8000e8c:	605a      	str	r2, [r3, #4]
 8000e8e:	609a      	str	r2, [r3, #8]
 8000e90:	60da      	str	r2, [r3, #12]
  if(hadc->Instance==ADC1)
 8000e92:	687b      	ldr	r3, [r7, #4]
 8000e94:	681b      	ldr	r3, [r3, #0]
 8000e96:	4a33      	ldr	r2, [pc, #204]	; (8000f64 <HAL_ADC_MspInit+0xe8>)
 8000e98:	4293      	cmp	r3, r2
 8000e9a:	d15f      	bne.n	8000f5c <HAL_ADC_MspInit+0xe0>
  {
  /* USER CODE BEGIN ADC1_MspInit 0 */

  /* USER CODE END ADC1_MspInit 0 */
    /* Peripheral clock enable */
    __HAL_RCC_ADC1_CLK_ENABLE();
 8000e9c:	4b32      	ldr	r3, [pc, #200]	; (8000f68 <HAL_ADC_MspInit+0xec>)
 8000e9e:	699b      	ldr	r3, [r3, #24]
 8000ea0:	4a31      	ldr	r2, [pc, #196]	; (8000f68 <HAL_ADC_MspInit+0xec>)
 8000ea2:	f443 7300 	orr.w	r3, r3, #512	; 0x200
 8000ea6:	6193      	str	r3, [r2, #24]
 8000ea8:	4b2f      	ldr	r3, [pc, #188]	; (8000f68 <HAL_ADC_MspInit+0xec>)
 8000eaa:	699b      	ldr	r3, [r3, #24]
 8000eac:	f403 7300 	and.w	r3, r3, #512	; 0x200
 8000eb0:	617b      	str	r3, [r7, #20]
 8000eb2:	697b      	ldr	r3, [r7, #20]

    __HAL_RCC_GPIOA_CLK_ENABLE();
 8000eb4:	4b2c      	ldr	r3, [pc, #176]	; (8000f68 <HAL_ADC_MspInit+0xec>)
 8000eb6:	699b      	ldr	r3, [r3, #24]
 8000eb8:	4a2b      	ldr	r2, [pc, #172]	; (8000f68 <HAL_ADC_MspInit+0xec>)
 8000eba:	f043 0304 	orr.w	r3, r3, #4
 8000ebe:	6193      	str	r3, [r2, #24]
 8000ec0:	4b29      	ldr	r3, [pc, #164]	; (8000f68 <HAL_ADC_MspInit+0xec>)
 8000ec2:	699b      	ldr	r3, [r3, #24]
 8000ec4:	f003 0304 	and.w	r3, r3, #4
 8000ec8:	613b      	str	r3, [r7, #16]
 8000eca:	693b      	ldr	r3, [r7, #16]
    __HAL_RCC_GPIOB_CLK_ENABLE();
 8000ecc:	4b26      	ldr	r3, [pc, #152]	; (8000f68 <HAL_ADC_MspInit+0xec>)
 8000ece:	699b      	ldr	r3, [r3, #24]
 8000ed0:	4a25      	ldr	r2, [pc, #148]	; (8000f68 <HAL_ADC_MspInit+0xec>)
 8000ed2:	f043 0308 	orr.w	r3, r3, #8
 8000ed6:	6193      	str	r3, [r2, #24]
 8000ed8:	4b23      	ldr	r3, [pc, #140]	; (8000f68 <HAL_ADC_MspInit+0xec>)
 8000eda:	699b      	ldr	r3, [r3, #24]
 8000edc:	f003 0308 	and.w	r3, r3, #8
 8000ee0:	60fb      	str	r3, [r7, #12]
 8000ee2:	68fb      	ldr	r3, [r7, #12]
    PA2     ------> ADC1_IN2
    PA3     ------> ADC1_IN3
    PB0     ------> ADC1_IN8
    PB1     ------> ADC1_IN9
    */
    GPIO_InitStruct.Pin = GPIO_PIN_2|GPIO_PIN_3;
 8000ee4:	230c      	movs	r3, #12
 8000ee6:	61bb      	str	r3, [r7, #24]
    GPIO_InitStruct.Mode = GPIO_MODE_ANALOG;
 8000ee8:	2303      	movs	r3, #3
 8000eea:	61fb      	str	r3, [r7, #28]
    HAL_GPIO_Init(GPIOA, &GPIO_InitStruct);
 8000eec:	f107 0318 	add.w	r3, r7, #24
 8000ef0:	4619      	mov	r1, r3
 8000ef2:	481e      	ldr	r0, [pc, #120]	; (8000f6c <HAL_ADC_MspInit+0xf0>)
 8000ef4:	f001 ffb6 	bl	8002e64 <HAL_GPIO_Init>

    GPIO_InitStruct.Pin = GPIO_PIN_0|GPIO_PIN_1;
 8000ef8:	2303      	movs	r3, #3
 8000efa:	61bb      	str	r3, [r7, #24]
    GPIO_InitStruct.Mode = GPIO_MODE_ANALOG;
 8000efc:	2303      	movs	r3, #3
 8000efe:	61fb      	str	r3, [r7, #28]
    HAL_GPIO_Init(GPIOB, &GPIO_InitStruct);
 8000f00:	f107 0318 	add.w	r3, r7, #24
 8000f04:	4619      	mov	r1, r3
 8000f06:	481a      	ldr	r0, [pc, #104]	; (8000f70 <HAL_ADC_MspInit+0xf4>)
 8000f08:	f001 ffac 	bl	8002e64 <HAL_GPIO_Init>

    /* ADC1 DMA Init */
    /* ADC1 Init */
    hdma_adc1.Instance = DMA1_Channel1;
 8000f0c:	4b19      	ldr	r3, [pc, #100]	; (8000f74 <HAL_ADC_MspInit+0xf8>)
 8000f0e:	4a1a      	ldr	r2, [pc, #104]	; (8000f78 <HAL_ADC_MspInit+0xfc>)
 8000f10:	601a      	str	r2, [r3, #0]
    hdma_adc1.Init.Direction = DMA_PERIPH_TO_MEMORY;
 8000f12:	4b18      	ldr	r3, [pc, #96]	; (8000f74 <HAL_ADC_MspInit+0xf8>)
 8000f14:	2200      	movs	r2, #0
 8000f16:	605a      	str	r2, [r3, #4]
    hdma_adc1.Init.PeriphInc = DMA_PINC_DISABLE;
 8000f18:	4b16      	ldr	r3, [pc, #88]	; (8000f74 <HAL_ADC_MspInit+0xf8>)
 8000f1a:	2200      	movs	r2, #0
 8000f1c:	609a      	str	r2, [r3, #8]
    hdma_adc1.Init.MemInc = DMA_MINC_ENABLE;
 8000f1e:	4b15      	ldr	r3, [pc, #84]	; (8000f74 <HAL_ADC_MspInit+0xf8>)
 8000f20:	2280      	movs	r2, #128	; 0x80
 8000f22:	60da      	str	r2, [r3, #12]
    hdma_adc1.Init.PeriphDataAlignment = DMA_PDATAALIGN_HALFWORD;
 8000f24:	4b13      	ldr	r3, [pc, #76]	; (8000f74 <HAL_ADC_MspInit+0xf8>)
 8000f26:	f44f 7280 	mov.w	r2, #256	; 0x100
 8000f2a:	611a      	str	r2, [r3, #16]
    hdma_adc1.Init.MemDataAlignment = DMA_MDATAALIGN_HALFWORD;
 8000f2c:	4b11      	ldr	r3, [pc, #68]	; (8000f74 <HAL_ADC_MspInit+0xf8>)
 8000f2e:	f44f 6280 	mov.w	r2, #1024	; 0x400
 8000f32:	615a      	str	r2, [r3, #20]
    hdma_adc1.Init.Mode = DMA_CIRCULAR;
 8000f34:	4b0f      	ldr	r3, [pc, #60]	; (8000f74 <HAL_ADC_MspInit+0xf8>)
 8000f36:	2220      	movs	r2, #32
 8000f38:	619a      	str	r2, [r3, #24]
    hdma_adc1.Init.Priority = DMA_PRIORITY_LOW;
 8000f3a:	4b0e      	ldr	r3, [pc, #56]	; (8000f74 <HAL_ADC_MspInit+0xf8>)
 8000f3c:	2200      	movs	r2, #0
 8000f3e:	61da      	str	r2, [r3, #28]
    if (HAL_DMA_Init(&hdma_adc1) != HAL_OK)
 8000f40:	480c      	ldr	r0, [pc, #48]	; (8000f74 <HAL_ADC_MspInit+0xf8>)
 8000f42:	f001 fb97 	bl	8002674 <HAL_DMA_Init>
 8000f46:	4603      	mov	r3, r0
 8000f48:	2b00      	cmp	r3, #0
 8000f4a:	d001      	beq.n	8000f50 <HAL_ADC_MspInit+0xd4>
    {
      Error_Handler();
 8000f4c:	f7ff ff1a 	bl	8000d84 <Error_Handler>
    }

    __HAL_LINKDMA(hadc,DMA_Handle,hdma_adc1);
 8000f50:	687b      	ldr	r3, [r7, #4]
 8000f52:	4a08      	ldr	r2, [pc, #32]	; (8000f74 <HAL_ADC_MspInit+0xf8>)
 8000f54:	621a      	str	r2, [r3, #32]
 8000f56:	4a07      	ldr	r2, [pc, #28]	; (8000f74 <HAL_ADC_MspInit+0xf8>)
 8000f58:	687b      	ldr	r3, [r7, #4]
 8000f5a:	6253      	str	r3, [r2, #36]	; 0x24
  /* USER CODE BEGIN ADC1_MspInit 1 */

  /* USER CODE END ADC1_MspInit 1 */
  }

}
 8000f5c:	bf00      	nop
 8000f5e:	3728      	adds	r7, #40	; 0x28
 8000f60:	46bd      	mov	sp, r7
 8000f62:	bd80      	pop	{r7, pc}
 8000f64:	40012400 	.word	0x40012400
 8000f68:	40021000 	.word	0x40021000
 8000f6c:	40010800 	.word	0x40010800
 8000f70:	40010c00 	.word	0x40010c00
 8000f74:	20001cb0 	.word	0x20001cb0
 8000f78:	40020008 	.word	0x40020008

08000f7c <HAL_CAN_MspInit>:
* This function configures the hardware resources used in this example
* @param hcan: CAN handle pointer
* @retval None
*/
void HAL_CAN_MspInit(CAN_HandleTypeDef* hcan)
{
 8000f7c:	b580      	push	{r7, lr}
 8000f7e:	b08a      	sub	sp, #40	; 0x28
 8000f80:	af00      	add	r7, sp, #0
 8000f82:	6078      	str	r0, [r7, #4]
  GPIO_InitTypeDef GPIO_InitStruct = {0};
 8000f84:	f107 0314 	add.w	r3, r7, #20
 8000f88:	2200      	movs	r2, #0
 8000f8a:	601a      	str	r2, [r3, #0]
 8000f8c:	605a      	str	r2, [r3, #4]
 8000f8e:	609a      	str	r2, [r3, #8]
 8000f90:	60da      	str	r2, [r3, #12]
  if(hcan->Instance==CAN1)
 8000f92:	687b      	ldr	r3, [r7, #4]
 8000f94:	681b      	ldr	r3, [r3, #0]
 8000f96:	4a35      	ldr	r2, [pc, #212]	; (800106c <HAL_CAN_MspInit+0xf0>)
 8000f98:	4293      	cmp	r3, r2
 8000f9a:	d163      	bne.n	8001064 <HAL_CAN_MspInit+0xe8>
  {
  /* USER CODE BEGIN CAN1_MspInit 0 */

  /* USER CODE END CAN1_MspInit 0 */
    /* Peripheral clock enable */
    __HAL_RCC_CAN1_CLK_ENABLE();
 8000f9c:	4b34      	ldr	r3, [pc, #208]	; (8001070 <HAL_CAN_MspInit+0xf4>)
 8000f9e:	69db      	ldr	r3, [r3, #28]
 8000fa0:	4a33      	ldr	r2, [pc, #204]	; (8001070 <HAL_CAN_MspInit+0xf4>)
 8000fa2:	f043 7300 	orr.w	r3, r3, #33554432	; 0x2000000
 8000fa6:	61d3      	str	r3, [r2, #28]
 8000fa8:	4b31      	ldr	r3, [pc, #196]	; (8001070 <HAL_CAN_MspInit+0xf4>)
 8000faa:	69db      	ldr	r3, [r3, #28]
 8000fac:	f003 7300 	and.w	r3, r3, #33554432	; 0x2000000
 8000fb0:	613b      	str	r3, [r7, #16]
 8000fb2:	693b      	ldr	r3, [r7, #16]

    __HAL_RCC_GPIOB_CLK_ENABLE();
 8000fb4:	4b2e      	ldr	r3, [pc, #184]	; (8001070 <HAL_CAN_MspInit+0xf4>)
 8000fb6:	699b      	ldr	r3, [r3, #24]
 8000fb8:	4a2d      	ldr	r2, [pc, #180]	; (8001070 <HAL_CAN_MspInit+0xf4>)
 8000fba:	f043 0308 	orr.w	r3, r3, #8
 8000fbe:	6193      	str	r3, [r2, #24]
 8000fc0:	4b2b      	ldr	r3, [pc, #172]	; (8001070 <HAL_CAN_MspInit+0xf4>)
 8000fc2:	699b      	ldr	r3, [r3, #24]
 8000fc4:	f003 0308 	and.w	r3, r3, #8
 8000fc8:	60fb      	str	r3, [r7, #12]
 8000fca:	68fb      	ldr	r3, [r7, #12]
    /**CAN GPIO Configuration
    PB8     ------> CAN_RX
    PB9     ------> CAN_TX
    */
    GPIO_InitStruct.Pin = GPIO_PIN_8;
 8000fcc:	f44f 7380 	mov.w	r3, #256	; 0x100
 8000fd0:	617b      	str	r3, [r7, #20]
    GPIO_InitStruct.Mode = GPIO_MODE_INPUT;
 8000fd2:	2300      	movs	r3, #0
 8000fd4:	61bb      	str	r3, [r7, #24]
    GPIO_InitStruct.Pull = GPIO_NOPULL;
 8000fd6:	2300      	movs	r3, #0
 8000fd8:	61fb      	str	r3, [r7, #28]
    HAL_GPIO_Init(GPIOB, &GPIO_InitStruct);
 8000fda:	f107 0314 	add.w	r3, r7, #20
 8000fde:	4619      	mov	r1, r3
 8000fe0:	4824      	ldr	r0, [pc, #144]	; (8001074 <HAL_CAN_MspInit+0xf8>)
 8000fe2:	f001 ff3f 	bl	8002e64 <HAL_GPIO_Init>

    GPIO_InitStruct.Pin = GPIO_PIN_9;
 8000fe6:	f44f 7300 	mov.w	r3, #512	; 0x200
 8000fea:	617b      	str	r3, [r7, #20]
    GPIO_InitStruct.Mode = GPIO_MODE_AF_PP;
 8000fec:	2302      	movs	r3, #2
 8000fee:	61bb      	str	r3, [r7, #24]
    GPIO_InitStruct.Speed = GPIO_SPEED_FREQ_HIGH;
 8000ff0:	2303      	movs	r3, #3
 8000ff2:	623b      	str	r3, [r7, #32]
    HAL_GPIO_Init(GPIOB, &GPIO_InitStruct);
 8000ff4:	f107 0314 	add.w	r3, r7, #20
 8000ff8:	4619      	mov	r1, r3
 8000ffa:	481e      	ldr	r0, [pc, #120]	; (8001074 <HAL_CAN_MspInit+0xf8>)
 8000ffc:	f001 ff32 	bl	8002e64 <HAL_GPIO_Init>

    __HAL_AFIO_REMAP_CAN1_2();
 8001000:	4b1d      	ldr	r3, [pc, #116]	; (8001078 <HAL_CAN_MspInit+0xfc>)
 8001002:	685b      	ldr	r3, [r3, #4]
 8001004:	627b      	str	r3, [r7, #36]	; 0x24
 8001006:	6a7b      	ldr	r3, [r7, #36]	; 0x24
 8001008:	f423 43c0 	bic.w	r3, r3, #24576	; 0x6000
 800100c:	627b      	str	r3, [r7, #36]	; 0x24
 800100e:	6a7b      	ldr	r3, [r7, #36]	; 0x24
 8001010:	f043 63e0 	orr.w	r3, r3, #117440512	; 0x7000000
 8001014:	627b      	str	r3, [r7, #36]	; 0x24
 8001016:	6a7b      	ldr	r3, [r7, #36]	; 0x24
 8001018:	f443 4380 	orr.w	r3, r3, #16384	; 0x4000
 800101c:	627b      	str	r3, [r7, #36]	; 0x24
 800101e:	4a16      	ldr	r2, [pc, #88]	; (8001078 <HAL_CAN_MspInit+0xfc>)
 8001020:	6a7b      	ldr	r3, [r7, #36]	; 0x24
 8001022:	6053      	str	r3, [r2, #4]

    /* CAN1 interrupt Init */
    HAL_NVIC_SetPriority(USB_HP_CAN1_TX_IRQn, 5, 0);
 8001024:	2200      	movs	r2, #0
 8001026:	2105      	movs	r1, #5
 8001028:	2013      	movs	r0, #19
 800102a:	f001 faf8 	bl	800261e <HAL_NVIC_SetPriority>
    HAL_NVIC_EnableIRQ(USB_HP_CAN1_TX_IRQn);
 800102e:	2013      	movs	r0, #19
 8001030:	f001 fb11 	bl	8002656 <HAL_NVIC_EnableIRQ>
    HAL_NVIC_SetPriority(USB_LP_CAN1_RX0_IRQn, 5, 0);
 8001034:	2200      	movs	r2, #0
 8001036:	2105      	movs	r1, #5
 8001038:	2014      	movs	r0, #20
 800103a:	f001 faf0 	bl	800261e <HAL_NVIC_SetPriority>
    HAL_NVIC_EnableIRQ(USB_LP_CAN1_RX0_IRQn);
 800103e:	2014      	movs	r0, #20
 8001040:	f001 fb09 	bl	8002656 <HAL_NVIC_EnableIRQ>
    HAL_NVIC_SetPriority(CAN1_RX1_IRQn, 5, 0);
 8001044:	2200      	movs	r2, #0
 8001046:	2105      	movs	r1, #5
 8001048:	2015      	movs	r0, #21
 800104a:	f001 fae8 	bl	800261e <HAL_NVIC_SetPriority>
    HAL_NVIC_EnableIRQ(CAN1_RX1_IRQn);
 800104e:	2015      	movs	r0, #21
 8001050:	f001 fb01 	bl	8002656 <HAL_NVIC_EnableIRQ>
    HAL_NVIC_SetPriority(CAN1_SCE_IRQn, 5, 0);
 8001054:	2200      	movs	r2, #0
 8001056:	2105      	movs	r1, #5
 8001058:	2016      	movs	r0, #22
 800105a:	f001 fae0 	bl	800261e <HAL_NVIC_SetPriority>
    HAL_NVIC_EnableIRQ(CAN1_SCE_IRQn);
 800105e:	2016      	movs	r0, #22
 8001060:	f001 faf9 	bl	8002656 <HAL_NVIC_EnableIRQ>
  /* USER CODE BEGIN CAN1_MspInit 1 */

  /* USER CODE END CAN1_MspInit 1 */
  }

}
 8001064:	bf00      	nop
 8001066:	3728      	adds	r7, #40	; 0x28
 8001068:	46bd      	mov	sp, r7
 800106a:	bd80      	pop	{r7, pc}
 800106c:	40006400 	.word	0x40006400
 8001070:	40021000 	.word	0x40021000
 8001074:	40010c00 	.word	0x40010c00
 8001078:	40010000 	.word	0x40010000

0800107c <HAL_InitTick>:
  *         reset by HAL_Init() or at any time when clock is configured, by HAL_RCC_ClockConfig().
  * @param  TickPriority: Tick interrupt priority.
  * @retval HAL status
  */
HAL_StatusTypeDef HAL_InitTick(uint32_t TickPriority)
{
 800107c:	b580      	push	{r7, lr}
 800107e:	b08c      	sub	sp, #48	; 0x30
 8001080:	af00      	add	r7, sp, #0
 8001082:	6078      	str	r0, [r7, #4]
  RCC_ClkInitTypeDef    clkconfig;
  uint32_t              uwTimclock = 0;
 8001084:	2300      	movs	r3, #0
 8001086:	62fb      	str	r3, [r7, #44]	; 0x2c
  uint32_t              uwPrescalerValue = 0;
 8001088:	2300      	movs	r3, #0
 800108a:	62bb      	str	r3, [r7, #40]	; 0x28
  uint32_t              pFLatency;

  /*Configure the TIM1 IRQ priority */
  HAL_NVIC_SetPriority(TIM1_UP_IRQn, TickPriority ,0);
 800108c:	2200      	movs	r2, #0
 800108e:	6879      	ldr	r1, [r7, #4]
 8001090:	2019      	movs	r0, #25
 8001092:	f001 fac4 	bl	800261e <HAL_NVIC_SetPriority>

  /* Enable the TIM1 global Interrupt */
  HAL_NVIC_EnableIRQ(TIM1_UP_IRQn);
 8001096:	2019      	movs	r0, #25
 8001098:	f001 fadd 	bl	8002656 <HAL_NVIC_EnableIRQ>

  /* Enable TIM1 clock */
  __HAL_RCC_TIM1_CLK_ENABLE();
 800109c:	4b1e      	ldr	r3, [pc, #120]	; (8001118 <HAL_InitTick+0x9c>)
 800109e:	699b      	ldr	r3, [r3, #24]
 80010a0:	4a1d      	ldr	r2, [pc, #116]	; (8001118 <HAL_InitTick+0x9c>)
 80010a2:	f443 6300 	orr.w	r3, r3, #2048	; 0x800
 80010a6:	6193      	str	r3, [r2, #24]
 80010a8:	4b1b      	ldr	r3, [pc, #108]	; (8001118 <HAL_InitTick+0x9c>)
 80010aa:	699b      	ldr	r3, [r3, #24]
 80010ac:	f403 6300 	and.w	r3, r3, #2048	; 0x800
 80010b0:	60fb      	str	r3, [r7, #12]
 80010b2:	68fb      	ldr	r3, [r7, #12]

  /* Get clock configuration */
  HAL_RCC_GetClockConfig(&clkconfig, &pFLatency);
 80010b4:	f107 0210 	add.w	r2, r7, #16
 80010b8:	f107 0314 	add.w	r3, r7, #20
 80010bc:	4611      	mov	r1, r2
 80010be:	4618      	mov	r0, r3
 80010c0:	f003 f9ca 	bl	8004458 <HAL_RCC_GetClockConfig>

  /* Compute TIM1 clock */
  uwTimclock = HAL_RCC_GetPCLK2Freq();
 80010c4:	f003 f9b4 	bl	8004430 <HAL_RCC_GetPCLK2Freq>
 80010c8:	62f8      	str	r0, [r7, #44]	; 0x2c

  /* Compute the prescaler value to have TIM1 counter clock equal to 1MHz */
  uwPrescalerValue = (uint32_t) ((uwTimclock / 1000000) - 1);
 80010ca:	6afb      	ldr	r3, [r7, #44]	; 0x2c
 80010cc:	4a13      	ldr	r2, [pc, #76]	; (800111c <HAL_InitTick+0xa0>)
 80010ce:	fba2 2303 	umull	r2, r3, r2, r3
 80010d2:	0c9b      	lsrs	r3, r3, #18
 80010d4:	3b01      	subs	r3, #1
 80010d6:	62bb      	str	r3, [r7, #40]	; 0x28

  /* Initialize TIM1 */
  htim1.Instance = TIM1;
 80010d8:	4b11      	ldr	r3, [pc, #68]	; (8001120 <HAL_InitTick+0xa4>)
 80010da:	4a12      	ldr	r2, [pc, #72]	; (8001124 <HAL_InitTick+0xa8>)
 80010dc:	601a      	str	r2, [r3, #0]
  + Period = [(TIM1CLK/1000) - 1]. to have a (1/1000) s time base.
  + Prescaler = (uwTimclock/1000000 - 1) to have a 1MHz counter clock.
  + ClockDivision = 0
  + Counter direction = Up
  */
  htim1.Init.Period = (1000000 / 1000) - 1;
 80010de:	4b10      	ldr	r3, [pc, #64]	; (8001120 <HAL_InitTick+0xa4>)
 80010e0:	f240 32e7 	movw	r2, #999	; 0x3e7
 80010e4:	60da      	str	r2, [r3, #12]
  htim1.Init.Prescaler = uwPrescalerValue;
 80010e6:	4a0e      	ldr	r2, [pc, #56]	; (8001120 <HAL_InitTick+0xa4>)
 80010e8:	6abb      	ldr	r3, [r7, #40]	; 0x28
 80010ea:	6053      	str	r3, [r2, #4]
  htim1.Init.ClockDivision = 0;
 80010ec:	4b0c      	ldr	r3, [pc, #48]	; (8001120 <HAL_InitTick+0xa4>)
 80010ee:	2200      	movs	r2, #0
 80010f0:	611a      	str	r2, [r3, #16]
  htim1.Init.CounterMode = TIM_COUNTERMODE_UP;
 80010f2:	4b0b      	ldr	r3, [pc, #44]	; (8001120 <HAL_InitTick+0xa4>)
 80010f4:	2200      	movs	r2, #0
 80010f6:	609a      	str	r2, [r3, #8]
  if(HAL_TIM_Base_Init(&htim1) == HAL_OK)
 80010f8:	4809      	ldr	r0, [pc, #36]	; (8001120 <HAL_InitTick+0xa4>)
 80010fa:	f003 fab1 	bl	8004660 <HAL_TIM_Base_Init>
 80010fe:	4603      	mov	r3, r0
 8001100:	2b00      	cmp	r3, #0
 8001102:	d104      	bne.n	800110e <HAL_InitTick+0x92>
  {
    /* Start the TIM time Base generation in interrupt mode */
    return HAL_TIM_Base_Start_IT(&htim1);
 8001104:	4806      	ldr	r0, [pc, #24]	; (8001120 <HAL_InitTick+0xa4>)
 8001106:	f003 fadf 	bl	80046c8 <HAL_TIM_Base_Start_IT>
 800110a:	4603      	mov	r3, r0
 800110c:	e000      	b.n	8001110 <HAL_InitTick+0x94>
  }

  /* Return function status */
  return HAL_ERROR;
 800110e:	2301      	movs	r3, #1
}
 8001110:	4618      	mov	r0, r3
 8001112:	3730      	adds	r7, #48	; 0x30
 8001114:	46bd      	mov	sp, r7
 8001116:	bd80      	pop	{r7, pc}
 8001118:	40021000 	.word	0x40021000
 800111c:	431bde83 	.word	0x431bde83
 8001120:	20001cf8 	.word	0x20001cf8
 8001124:	40012c00 	.word	0x40012c00

08001128 <NMI_Handler>:
/******************************************************************************/
/**
  * @brief This function handles Non maskable interrupt.
  */
void NMI_Handler(void)
{
 8001128:	b480      	push	{r7}
 800112a:	af00      	add	r7, sp, #0

  /* USER CODE END NonMaskableInt_IRQn 0 */
  /* USER CODE BEGIN NonMaskableInt_IRQn 1 */

  /* USER CODE END NonMaskableInt_IRQn 1 */
}
 800112c:	bf00      	nop
 800112e:	46bd      	mov	sp, r7
 8001130:	bc80      	pop	{r7}
 8001132:	4770      	bx	lr

08001134 <HardFault_Handler>:

/**
  * @brief This function handles Hard fault interrupt.
  */
void HardFault_Handler(void)
{
 8001134:	b480      	push	{r7}
 8001136:	af00      	add	r7, sp, #0
  /* USER CODE BEGIN HardFault_IRQn 0 */

  /* USER CODE END HardFault_IRQn 0 */
  while (1)
 8001138:	e7fe      	b.n	8001138 <HardFault_Handler+0x4>

0800113a <MemManage_Handler>:

/**
  * @brief This function handles Memory management fault.
  */
void MemManage_Handler(void)
{
 800113a:	b480      	push	{r7}
 800113c:	af00      	add	r7, sp, #0
  /* USER CODE BEGIN MemoryManagement_IRQn 0 */

  /* USER CODE END MemoryManagement_IRQn 0 */
  while (1)
 800113e:	e7fe      	b.n	800113e <MemManage_Handler+0x4>

08001140 <BusFault_Handler>:

/**
  * @brief This function handles Prefetch fault, memory access fault.
  */
void BusFault_Handler(void)
{
 8001140:	b480      	push	{r7}
 8001142:	af00      	add	r7, sp, #0
  /* USER CODE BEGIN BusFault_IRQn 0 */

  /* USER CODE END BusFault_IRQn 0 */
  while (1)
 8001144:	e7fe      	b.n	8001144 <BusFault_Handler+0x4>

08001146 <UsageFault_Handler>:

/**
  * @brief This function handles Undefined instruction or illegal state.
  */
void UsageFault_Handler(void)
{
 8001146:	b480      	push	{r7}
 8001148:	af00      	add	r7, sp, #0
  /* USER CODE BEGIN UsageFault_IRQn 0 */

  /* USER CODE END UsageFault_IRQn 0 */
  while (1)
 800114a:	e7fe      	b.n	800114a <UsageFault_Handler+0x4>

0800114c <DebugMon_Handler>:

/**
  * @brief This function handles Debug monitor.
  */
void DebugMon_Handler(void)
{
 800114c:	b480      	push	{r7}
 800114e:	af00      	add	r7, sp, #0

  /* USER CODE END DebugMonitor_IRQn 0 */
  /* USER CODE BEGIN DebugMonitor_IRQn 1 */

  /* USER CODE END DebugMonitor_IRQn 1 */
}
 8001150:	bf00      	nop
 8001152:	46bd      	mov	sp, r7
 8001154:	bc80      	pop	{r7}
 8001156:	4770      	bx	lr

08001158 <DMA1_Channel1_IRQHandler>:

/**
  * @brief This function handles DMA1 channel1 global interrupt.
  */
void DMA1_Channel1_IRQHandler(void)
{
 8001158:	b580      	push	{r7, lr}
 800115a:	af00      	add	r7, sp, #0
  /* USER CODE BEGIN DMA1_Channel1_IRQn 0 */

  /* USER CODE END DMA1_Channel1_IRQn 0 */
  HAL_DMA_IRQHandler(&hdma_adc1);
 800115c:	4802      	ldr	r0, [pc, #8]	; (8001168 <DMA1_Channel1_IRQHandler+0x10>)
 800115e:	f001 fb43 	bl	80027e8 <HAL_DMA_IRQHandler>
  /* USER CODE BEGIN DMA1_Channel1_IRQn 1 */

  /* USER CODE END DMA1_Channel1_IRQn 1 */
}
 8001162:	bf00      	nop
 8001164:	bd80      	pop	{r7, pc}
 8001166:	bf00      	nop
 8001168:	20001cb0 	.word	0x20001cb0

0800116c <USB_HP_CAN1_TX_IRQHandler>:

/**
  * @brief This function handles USB high priority or CAN TX interrupts.
  */
void USB_HP_CAN1_TX_IRQHandler(void)
{
 800116c:	b580      	push	{r7, lr}
 800116e:	af00      	add	r7, sp, #0
  /* USER CODE BEGIN USB_HP_CAN1_TX_IRQn 0 */

  /* USER CODE END USB_HP_CAN1_TX_IRQn 0 */
  HAL_CAN_IRQHandler(&hcan);
 8001170:	4802      	ldr	r0, [pc, #8]	; (800117c <USB_HP_CAN1_TX_IRQHandler+0x10>)
 8001172:	f000 ff78 	bl	8002066 <HAL_CAN_IRQHandler>
  /* USER CODE BEGIN USB_HP_CAN1_TX_IRQn 1 */

  /* USER CODE END USB_HP_CAN1_TX_IRQn 1 */
}
 8001176:	bf00      	nop
 8001178:	bd80      	pop	{r7, pc}
 800117a:	bf00      	nop
 800117c:	20001c4c 	.word	0x20001c4c

08001180 <USB_LP_CAN1_RX0_IRQHandler>:

/**
  * @brief This function handles USB low priority or CAN RX0 interrupts.
  */
void USB_LP_CAN1_RX0_IRQHandler(void)
{
 8001180:	b580      	push	{r7, lr}
 8001182:	af00      	add	r7, sp, #0
  /* USER CODE BEGIN USB_LP_CAN1_RX0_IRQn 0 */

  /* USER CODE END USB_LP_CAN1_RX0_IRQn 0 */
  HAL_CAN_IRQHandler(&hcan);
 8001184:	4802      	ldr	r0, [pc, #8]	; (8001190 <USB_LP_CAN1_RX0_IRQHandler+0x10>)
 8001186:	f000 ff6e 	bl	8002066 <HAL_CAN_IRQHandler>
  /* USER CODE BEGIN USB_LP_CAN1_RX0_IRQn 1 */

  /* USER CODE END USB_LP_CAN1_RX0_IRQn 1 */
}
 800118a:	bf00      	nop
 800118c:	bd80      	pop	{r7, pc}
 800118e:	bf00      	nop
 8001190:	20001c4c 	.word	0x20001c4c

08001194 <CAN1_RX1_IRQHandler>:

/**
  * @brief This function handles CAN RX1 interrupt.
  */
void CAN1_RX1_IRQHandler(void)
{
 8001194:	b580      	push	{r7, lr}
 8001196:	af00      	add	r7, sp, #0
  /* USER CODE BEGIN CAN1_RX1_IRQn 0 */

  /* USER CODE END CAN1_RX1_IRQn 0 */
  HAL_CAN_IRQHandler(&hcan);
 8001198:	4802      	ldr	r0, [pc, #8]	; (80011a4 <CAN1_RX1_IRQHandler+0x10>)
 800119a:	f000 ff64 	bl	8002066 <HAL_CAN_IRQHandler>
  /* USER CODE BEGIN CAN1_RX1_IRQn 1 */

  /* USER CODE END CAN1_RX1_IRQn 1 */
}
 800119e:	bf00      	nop
 80011a0:	bd80      	pop	{r7, pc}
 80011a2:	bf00      	nop
 80011a4:	20001c4c 	.word	0x20001c4c

080011a8 <CAN1_SCE_IRQHandler>:

/**
  * @brief This function handles CAN SCE interrupt.
  */
void CAN1_SCE_IRQHandler(void)
{
 80011a8:	b580      	push	{r7, lr}
 80011aa:	af00      	add	r7, sp, #0
  /* USER CODE BEGIN CAN1_SCE_IRQn 0 */

  /* USER CODE END CAN1_SCE_IRQn 0 */
  HAL_CAN_IRQHandler(&hcan);
 80011ac:	4802      	ldr	r0, [pc, #8]	; (80011b8 <CAN1_SCE_IRQHandler+0x10>)
 80011ae:	f000 ff5a 	bl	8002066 <HAL_CAN_IRQHandler>
  /* USER CODE BEGIN CAN1_SCE_IRQn 1 */

  /* USER CODE END CAN1_SCE_IRQn 1 */
}
 80011b2:	bf00      	nop
 80011b4:	bd80      	pop	{r7, pc}
 80011b6:	bf00      	nop
 80011b8:	20001c4c 	.word	0x20001c4c

080011bc <TIM1_UP_IRQHandler>:

/**
  * @brief This function handles TIM1 update interrupt.
  */
void TIM1_UP_IRQHandler(void)
{
 80011bc:	b580      	push	{r7, lr}
 80011be:	af00      	add	r7, sp, #0
  /* USER CODE BEGIN TIM1_UP_IRQn 0 */

  /* USER CODE END TIM1_UP_IRQn 0 */
  HAL_TIM_IRQHandler(&htim1);
 80011c0:	4802      	ldr	r0, [pc, #8]	; (80011cc <TIM1_UP_IRQHandler+0x10>)
 80011c2:	f003 faa4 	bl	800470e <HAL_TIM_IRQHandler>
  /* USER CODE BEGIN TIM1_UP_IRQn 1 */

  /* USER CODE END TIM1_UP_IRQn 1 */
}
 80011c6:	bf00      	nop
 80011c8:	bd80      	pop	{r7, pc}
 80011ca:	bf00      	nop
 80011cc:	20001cf8 	.word	0x20001cf8

080011d0 <SystemInit>:
  * @note   This function should be used only after reset.
  * @param  None
  * @retval None
  */
void SystemInit (void)
{
 80011d0:	b480      	push	{r7}
 80011d2:	af00      	add	r7, sp, #0
  /* Reset the RCC clock configuration to the default reset state(for debug purpose) */
  /* Set HSION bit */
  RCC->CR |= 0x00000001U;
 80011d4:	4b15      	ldr	r3, [pc, #84]	; (800122c <SystemInit+0x5c>)
 80011d6:	681b      	ldr	r3, [r3, #0]
 80011d8:	4a14      	ldr	r2, [pc, #80]	; (800122c <SystemInit+0x5c>)
 80011da:	f043 0301 	orr.w	r3, r3, #1
 80011de:	6013      	str	r3, [r2, #0]

  /* Reset SW, HPRE, PPRE1, PPRE2, ADCPRE and MCO bits */
#if !defined(STM32F105xC) && !defined(STM32F107xC)
  RCC->CFGR &= 0xF8FF0000U;
 80011e0:	4b12      	ldr	r3, [pc, #72]	; (800122c <SystemInit+0x5c>)
 80011e2:	685a      	ldr	r2, [r3, #4]
 80011e4:	4911      	ldr	r1, [pc, #68]	; (800122c <SystemInit+0x5c>)
 80011e6:	4b12      	ldr	r3, [pc, #72]	; (8001230 <SystemInit+0x60>)
 80011e8:	4013      	ands	r3, r2
 80011ea:	604b      	str	r3, [r1, #4]
#else
  RCC->CFGR &= 0xF0FF0000U;
#endif /* STM32F105xC */   
  
  /* Reset HSEON, CSSON and PLLON bits */
  RCC->CR &= 0xFEF6FFFFU;
 80011ec:	4b0f      	ldr	r3, [pc, #60]	; (800122c <SystemInit+0x5c>)
 80011ee:	681b      	ldr	r3, [r3, #0]
 80011f0:	4a0e      	ldr	r2, [pc, #56]	; (800122c <SystemInit+0x5c>)
 80011f2:	f023 7384 	bic.w	r3, r3, #17301504	; 0x1080000
 80011f6:	f423 3380 	bic.w	r3, r3, #65536	; 0x10000
 80011fa:	6013      	str	r3, [r2, #0]

  /* Reset HSEBYP bit */
  RCC->CR &= 0xFFFBFFFFU;
 80011fc:	4b0b      	ldr	r3, [pc, #44]	; (800122c <SystemInit+0x5c>)
 80011fe:	681b      	ldr	r3, [r3, #0]
 8001200:	4a0a      	ldr	r2, [pc, #40]	; (800122c <SystemInit+0x5c>)
 8001202:	f423 2380 	bic.w	r3, r3, #262144	; 0x40000
 8001206:	6013      	str	r3, [r2, #0]

  /* Reset PLLSRC, PLLXTPRE, PLLMUL and USBPRE/OTGFSPRE bits */
  RCC->CFGR &= 0xFF80FFFFU;
 8001208:	4b08      	ldr	r3, [pc, #32]	; (800122c <SystemInit+0x5c>)
 800120a:	685b      	ldr	r3, [r3, #4]
 800120c:	4a07      	ldr	r2, [pc, #28]	; (800122c <SystemInit+0x5c>)
 800120e:	f423 03fe 	bic.w	r3, r3, #8323072	; 0x7f0000
 8001212:	6053      	str	r3, [r2, #4]

  /* Reset CFGR2 register */
  RCC->CFGR2 = 0x00000000U;      
#else
  /* Disable all interrupts and clear pending bits  */
  RCC->CIR = 0x009F0000U;
 8001214:	4b05      	ldr	r3, [pc, #20]	; (800122c <SystemInit+0x5c>)
 8001216:	f44f 021f 	mov.w	r2, #10420224	; 0x9f0000
 800121a:	609a      	str	r2, [r3, #8]
#endif 

#ifdef VECT_TAB_SRAM
  SCB->VTOR = SRAM_BASE | VECT_TAB_OFFSET; /* Vector Table Relocation in Internal SRAM. */
#else
  SCB->VTOR = FLASH_BASE | VECT_TAB_OFFSET; /* Vector Table Relocation in Internal FLASH. */
 800121c:	4b05      	ldr	r3, [pc, #20]	; (8001234 <SystemInit+0x64>)
 800121e:	f04f 6200 	mov.w	r2, #134217728	; 0x8000000
 8001222:	609a      	str	r2, [r3, #8]
#endif 
}
 8001224:	bf00      	nop
 8001226:	46bd      	mov	sp, r7
 8001228:	bc80      	pop	{r7}
 800122a:	4770      	bx	lr
 800122c:	40021000 	.word	0x40021000
 8001230:	f8ff0000 	.word	0xf8ff0000
 8001234:	e000ed00 	.word	0xe000ed00

08001238 <HAL_Init>:
  *         need to ensure that the SysTick time base is always set to 1 millisecond
  *         to have correct HAL operation.
  * @retval HAL status
  */
HAL_StatusTypeDef HAL_Init(void)
{
 8001238:	b580      	push	{r7, lr}
 800123a:	af00      	add	r7, sp, #0
    defined(STM32F102x6) || defined(STM32F102xB) || \
    defined(STM32F103x6) || defined(STM32F103xB) || defined(STM32F103xE) || defined(STM32F103xG) || \
    defined(STM32F105xC) || defined(STM32F107xC)

  /* Prefetch buffer is not available on value line devices */
  __HAL_FLASH_PREFETCH_BUFFER_ENABLE();
 800123c:	4b08      	ldr	r3, [pc, #32]	; (8001260 <HAL_Init+0x28>)
 800123e:	681b      	ldr	r3, [r3, #0]
 8001240:	4a07      	ldr	r2, [pc, #28]	; (8001260 <HAL_Init+0x28>)
 8001242:	f043 0310 	orr.w	r3, r3, #16
 8001246:	6013      	str	r3, [r2, #0]
#endif
#endif /* PREFETCH_ENABLE */

  /* Set Interrupt Group Priority */
  HAL_NVIC_SetPriorityGrouping(NVIC_PRIORITYGROUP_4);
 8001248:	2003      	movs	r0, #3
 800124a:	f001 f9dd 	bl	8002608 <HAL_NVIC_SetPriorityGrouping>

  /* Use systick as time base source and configure 1ms tick (default clock after Reset is HSI) */
  HAL_InitTick(TICK_INT_PRIORITY);
 800124e:	2000      	movs	r0, #0
 8001250:	f7ff ff14 	bl	800107c <HAL_InitTick>

  /* Init the low level hardware */
  HAL_MspInit();
 8001254:	f7ff fd9c 	bl	8000d90 <HAL_MspInit>

  /* Return function status */
  return HAL_OK;
 8001258:	2300      	movs	r3, #0
}
 800125a:	4618      	mov	r0, r3
 800125c:	bd80      	pop	{r7, pc}
 800125e:	bf00      	nop
 8001260:	40022000 	.word	0x40022000

08001264 <HAL_IncTick>:
  * @note This function is declared as __weak to be overwritten in case of other
  *      implementations in user file.
  * @retval None
  */
__weak void HAL_IncTick(void)
{
 8001264:	b480      	push	{r7}
 8001266:	af00      	add	r7, sp, #0
  uwTick += uwTickFreq;
 8001268:	4b05      	ldr	r3, [pc, #20]	; (8001280 <HAL_IncTick+0x1c>)
 800126a:	781b      	ldrb	r3, [r3, #0]
 800126c:	461a      	mov	r2, r3
 800126e:	4b05      	ldr	r3, [pc, #20]	; (8001284 <HAL_IncTick+0x20>)
 8001270:	681b      	ldr	r3, [r3, #0]
 8001272:	4413      	add	r3, r2
 8001274:	4a03      	ldr	r2, [pc, #12]	; (8001284 <HAL_IncTick+0x20>)
 8001276:	6013      	str	r3, [r2, #0]
}
 8001278:	bf00      	nop
 800127a:	46bd      	mov	sp, r7
 800127c:	bc80      	pop	{r7}
 800127e:	4770      	bx	lr
 8001280:	20000008 	.word	0x20000008
 8001284:	20001d38 	.word	0x20001d38

08001288 <HAL_GetTick>:
  * @note  This function is declared as __weak to be overwritten in case of other
  *       implementations in user file.
  * @retval tick value
  */
__weak uint32_t HAL_GetTick(void)
{
 8001288:	b480      	push	{r7}
 800128a:	af00      	add	r7, sp, #0
  return uwTick;
 800128c:	4b02      	ldr	r3, [pc, #8]	; (8001298 <HAL_GetTick+0x10>)
 800128e:	681b      	ldr	r3, [r3, #0]
}
 8001290:	4618      	mov	r0, r3
 8001292:	46bd      	mov	sp, r7
 8001294:	bc80      	pop	{r7}
 8001296:	4770      	bx	lr
 8001298:	20001d38 	.word	0x20001d38

0800129c <HAL_Delay>:
  *       implementations in user file.
  * @param Delay specifies the delay time length, in milliseconds.
  * @retval None
  */
__weak void HAL_Delay(uint32_t Delay)
{
 800129c:	b580      	push	{r7, lr}
 800129e:	b084      	sub	sp, #16
 80012a0:	af00      	add	r7, sp, #0
 80012a2:	6078      	str	r0, [r7, #4]
  uint32_t tickstart = HAL_GetTick();
 80012a4:	f7ff fff0 	bl	8001288 <HAL_GetTick>
 80012a8:	60b8      	str	r0, [r7, #8]
  uint32_t wait = Delay;
 80012aa:	687b      	ldr	r3, [r7, #4]
 80012ac:	60fb      	str	r3, [r7, #12]

  /* Add a freq to guarantee minimum wait */
  if (wait < HAL_MAX_DELAY)
 80012ae:	68fb      	ldr	r3, [r7, #12]
 80012b0:	f1b3 3fff 	cmp.w	r3, #4294967295
 80012b4:	d005      	beq.n	80012c2 <HAL_Delay+0x26>
  {
    wait += (uint32_t)(uwTickFreq);
 80012b6:	4b09      	ldr	r3, [pc, #36]	; (80012dc <HAL_Delay+0x40>)
 80012b8:	781b      	ldrb	r3, [r3, #0]
 80012ba:	461a      	mov	r2, r3
 80012bc:	68fb      	ldr	r3, [r7, #12]
 80012be:	4413      	add	r3, r2
 80012c0:	60fb      	str	r3, [r7, #12]
  }

  while ((HAL_GetTick() - tickstart) < wait)
 80012c2:	bf00      	nop
 80012c4:	f7ff ffe0 	bl	8001288 <HAL_GetTick>
 80012c8:	4602      	mov	r2, r0
 80012ca:	68bb      	ldr	r3, [r7, #8]
 80012cc:	1ad3      	subs	r3, r2, r3
 80012ce:	68fa      	ldr	r2, [r7, #12]
 80012d0:	429a      	cmp	r2, r3
 80012d2:	d8f7      	bhi.n	80012c4 <HAL_Delay+0x28>
  {
  }
}
 80012d4:	bf00      	nop
 80012d6:	3710      	adds	r7, #16
 80012d8:	46bd      	mov	sp, r7
 80012da:	bd80      	pop	{r7, pc}
 80012dc:	20000008 	.word	0x20000008

080012e0 <HAL_ADC_Init>:
  *         of structure "ADC_InitTypeDef".
  * @param  hadc: ADC handle
  * @retval HAL status
  */
HAL_StatusTypeDef HAL_ADC_Init(ADC_HandleTypeDef* hadc)
{
 80012e0:	b580      	push	{r7, lr}
 80012e2:	b086      	sub	sp, #24
 80012e4:	af00      	add	r7, sp, #0
 80012e6:	6078      	str	r0, [r7, #4]
  HAL_StatusTypeDef tmp_hal_status = HAL_OK;
 80012e8:	2300      	movs	r3, #0
 80012ea:	75fb      	strb	r3, [r7, #23]
  uint32_t tmp_cr1 = 0U;
 80012ec:	2300      	movs	r3, #0
 80012ee:	613b      	str	r3, [r7, #16]
  uint32_t tmp_cr2 = 0U;
 80012f0:	2300      	movs	r3, #0
 80012f2:	60bb      	str	r3, [r7, #8]
  uint32_t tmp_sqr1 = 0U;
 80012f4:	2300      	movs	r3, #0
 80012f6:	60fb      	str	r3, [r7, #12]
  
  /* Check ADC handle */
  if(hadc == NULL)
 80012f8:	687b      	ldr	r3, [r7, #4]
 80012fa:	2b00      	cmp	r3, #0
 80012fc:	d101      	bne.n	8001302 <HAL_ADC_Init+0x22>
  {
    return HAL_ERROR;
 80012fe:	2301      	movs	r3, #1
 8001300:	e0be      	b.n	8001480 <HAL_ADC_Init+0x1a0>
  assert_param(IS_ADC_DATA_ALIGN(hadc->Init.DataAlign));
  assert_param(IS_ADC_SCAN_MODE(hadc->Init.ScanConvMode));
  assert_param(IS_FUNCTIONAL_STATE(hadc->Init.ContinuousConvMode));
  assert_param(IS_ADC_EXTTRIG(hadc->Init.ExternalTrigConv));
  
  if(hadc->Init.ScanConvMode != ADC_SCAN_DISABLE)
 8001302:	687b      	ldr	r3, [r7, #4]
 8001304:	689b      	ldr	r3, [r3, #8]
 8001306:	2b00      	cmp	r3, #0
  /* Refer to header of this file for more details on clock enabling          */
  /* procedure.                                                               */

  /* Actions performed only if ADC is coming from state reset:                */
  /* - Initialization of ADC MSP                                              */
  if (hadc->State == HAL_ADC_STATE_RESET)
 8001308:	687b      	ldr	r3, [r7, #4]
 800130a:	6a9b      	ldr	r3, [r3, #40]	; 0x28
 800130c:	2b00      	cmp	r3, #0
 800130e:	d109      	bne.n	8001324 <HAL_ADC_Init+0x44>
  {
    /* Initialize ADC error code */
    ADC_CLEAR_ERRORCODE(hadc);
 8001310:	687b      	ldr	r3, [r7, #4]
 8001312:	2200      	movs	r2, #0
 8001314:	62da      	str	r2, [r3, #44]	; 0x2c
    
    /* Allocate lock resource and initialize it */
    hadc->Lock = HAL_UNLOCKED;
 8001316:	687b      	ldr	r3, [r7, #4]
 8001318:	2200      	movs	r2, #0
 800131a:	f883 2024 	strb.w	r2, [r3, #36]	; 0x24
    
    /* Init the low level hardware */
    hadc->MspInitCallback(hadc);
#else
    /* Init the low level hardware */
    HAL_ADC_MspInit(hadc);
 800131e:	6878      	ldr	r0, [r7, #4]
 8001320:	f7ff fdac 	bl	8000e7c <HAL_ADC_MspInit>
  /* Stop potential conversion on going, on regular and injected groups */
  /* Disable ADC peripheral */
  /* Note: In case of ADC already enabled, precaution to not launch an        */
  /*       unwanted conversion while modifying register CR2 by writing 1 to   */
  /*       bit ADON.                                                          */
  tmp_hal_status = ADC_ConversionStop_Disable(hadc);
 8001324:	6878      	ldr	r0, [r7, #4]
 8001326:	f000 faf7 	bl	8001918 <ADC_ConversionStop_Disable>
 800132a:	4603      	mov	r3, r0
 800132c:	75fb      	strb	r3, [r7, #23]
  
  
  /* Configuration of ADC parameters if previous preliminary actions are      */ 
  /* correctly completed.                                                     */
  if (HAL_IS_BIT_CLR(hadc->State, HAL_ADC_STATE_ERROR_INTERNAL) &&
 800132e:	687b      	ldr	r3, [r7, #4]
 8001330:	6a9b      	ldr	r3, [r3, #40]	; 0x28
 8001332:	f003 0310 	and.w	r3, r3, #16
 8001336:	2b00      	cmp	r3, #0
 8001338:	f040 8099 	bne.w	800146e <HAL_ADC_Init+0x18e>
 800133c:	7dfb      	ldrb	r3, [r7, #23]
 800133e:	2b00      	cmp	r3, #0
 8001340:	f040 8095 	bne.w	800146e <HAL_ADC_Init+0x18e>
      (tmp_hal_status == HAL_OK)                                  )
  {
    /* Set ADC state */
    ADC_STATE_CLR_SET(hadc->State,
 8001344:	687b      	ldr	r3, [r7, #4]
 8001346:	6a9b      	ldr	r3, [r3, #40]	; 0x28
 8001348:	f423 5388 	bic.w	r3, r3, #4352	; 0x1100
 800134c:	f023 0302 	bic.w	r3, r3, #2
 8001350:	f043 0202 	orr.w	r2, r3, #2
 8001354:	687b      	ldr	r3, [r7, #4]
 8001356:	629a      	str	r2, [r3, #40]	; 0x28
    /*  - continuous conversion mode                                          */
    /* Note: External trigger polarity (ADC_CR2_EXTTRIG) is set into          */
    /*       HAL_ADC_Start_xxx functions because if set in this function,     */
    /*       a conversion on injected group would start a conversion also on  */
    /*       regular group after ADC enabling.                                */
    tmp_cr2 |= (hadc->Init.DataAlign                                          |
 8001358:	687b      	ldr	r3, [r7, #4]
 800135a:	685a      	ldr	r2, [r3, #4]
                ADC_CFGR_EXTSEL(hadc, hadc->Init.ExternalTrigConv)            |
 800135c:	687b      	ldr	r3, [r7, #4]
 800135e:	69db      	ldr	r3, [r3, #28]
    tmp_cr2 |= (hadc->Init.DataAlign                                          |
 8001360:	431a      	orrs	r2, r3
                ADC_CR2_CONTINUOUS((uint32_t)hadc->Init.ContinuousConvMode)   );
 8001362:	687b      	ldr	r3, [r7, #4]
 8001364:	7b1b      	ldrb	r3, [r3, #12]
 8001366:	005b      	lsls	r3, r3, #1
                ADC_CFGR_EXTSEL(hadc, hadc->Init.ExternalTrigConv)            |
 8001368:	4313      	orrs	r3, r2
    tmp_cr2 |= (hadc->Init.DataAlign                                          |
 800136a:	68ba      	ldr	r2, [r7, #8]
 800136c:	4313      	orrs	r3, r2
 800136e:	60bb      	str	r3, [r7, #8]

    /* Configuration of ADC:                                                  */
    /*  - scan mode                                                           */
    /*  - discontinuous mode disable/enable                                   */
    /*  - discontinuous mode number of conversions                            */
    tmp_cr1 |= (ADC_CR1_SCAN_SET(hadc->Init.ScanConvMode));
 8001370:	687b      	ldr	r3, [r7, #4]
 8001372:	689b      	ldr	r3, [r3, #8]
 8001374:	f5b3 7f80 	cmp.w	r3, #256	; 0x100
 8001378:	d003      	beq.n	8001382 <HAL_ADC_Init+0xa2>
 800137a:	687b      	ldr	r3, [r7, #4]
 800137c:	689b      	ldr	r3, [r3, #8]
 800137e:	2b01      	cmp	r3, #1
 8001380:	d102      	bne.n	8001388 <HAL_ADC_Init+0xa8>
 8001382:	f44f 7380 	mov.w	r3, #256	; 0x100
 8001386:	e000      	b.n	800138a <HAL_ADC_Init+0xaa>
 8001388:	2300      	movs	r3, #0
 800138a:	693a      	ldr	r2, [r7, #16]
 800138c:	4313      	orrs	r3, r2
 800138e:	613b      	str	r3, [r7, #16]
    
    /* Enable discontinuous mode only if continuous mode is disabled */
    /* Note: If parameter "Init.ScanConvMode" is set to disable, parameter    */
    /*       discontinuous is set anyway, but will have no effect on ADC HW.  */
    if (hadc->Init.DiscontinuousConvMode == ENABLE)
 8001390:	687b      	ldr	r3, [r7, #4]
 8001392:	7d1b      	ldrb	r3, [r3, #20]
 8001394:	2b01      	cmp	r3, #1
 8001396:	d119      	bne.n	80013cc <HAL_ADC_Init+0xec>
    {
      if (hadc->Init.ContinuousConvMode == DISABLE)
 8001398:	687b      	ldr	r3, [r7, #4]
 800139a:	7b1b      	ldrb	r3, [r3, #12]
 800139c:	2b00      	cmp	r3, #0
 800139e:	d109      	bne.n	80013b4 <HAL_ADC_Init+0xd4>
      {
        /* Enable the selected ADC regular discontinuous mode */
        /* Set the number of channels to be converted in discontinuous mode */
        SET_BIT(tmp_cr1, ADC_CR1_DISCEN                                            |
 80013a0:	687b      	ldr	r3, [r7, #4]
 80013a2:	699b      	ldr	r3, [r3, #24]
 80013a4:	3b01      	subs	r3, #1
 80013a6:	035a      	lsls	r2, r3, #13
 80013a8:	693b      	ldr	r3, [r7, #16]
 80013aa:	4313      	orrs	r3, r2
 80013ac:	f443 6300 	orr.w	r3, r3, #2048	; 0x800
 80013b0:	613b      	str	r3, [r7, #16]
 80013b2:	e00b      	b.n	80013cc <HAL_ADC_Init+0xec>
      {
        /* ADC regular group settings continuous and sequencer discontinuous*/
        /* cannot be enabled simultaneously.                                */
        
        /* Update ADC state machine to error */
        SET_BIT(hadc->State, HAL_ADC_STATE_ERROR_CONFIG);
 80013b4:	687b      	ldr	r3, [r7, #4]
 80013b6:	6a9b      	ldr	r3, [r3, #40]	; 0x28
 80013b8:	f043 0220 	orr.w	r2, r3, #32
 80013bc:	687b      	ldr	r3, [r7, #4]
 80013be:	629a      	str	r2, [r3, #40]	; 0x28
        
        /* Set ADC error code to ADC IP internal error */
        SET_BIT(hadc->ErrorCode, HAL_ADC_ERROR_INTERNAL);
 80013c0:	687b      	ldr	r3, [r7, #4]
 80013c2:	6adb      	ldr	r3, [r3, #44]	; 0x2c
 80013c4:	f043 0201 	orr.w	r2, r3, #1
 80013c8:	687b      	ldr	r3, [r7, #4]
 80013ca:	62da      	str	r2, [r3, #44]	; 0x2c
      }
    }
    
    /* Update ADC configuration register CR1 with previous settings */
      MODIFY_REG(hadc->Instance->CR1,
 80013cc:	687b      	ldr	r3, [r7, #4]
 80013ce:	681b      	ldr	r3, [r3, #0]
 80013d0:	685b      	ldr	r3, [r3, #4]
 80013d2:	f423 4169 	bic.w	r1, r3, #59648	; 0xe900
 80013d6:	687b      	ldr	r3, [r7, #4]
 80013d8:	681b      	ldr	r3, [r3, #0]
 80013da:	693a      	ldr	r2, [r7, #16]
 80013dc:	430a      	orrs	r2, r1
 80013de:	605a      	str	r2, [r3, #4]
                 ADC_CR1_DISCEN  |
                 ADC_CR1_DISCNUM    ,
                 tmp_cr1             );
    
    /* Update ADC configuration register CR2 with previous settings */
      MODIFY_REG(hadc->Instance->CR2,
 80013e0:	687b      	ldr	r3, [r7, #4]
 80013e2:	681b      	ldr	r3, [r3, #0]
 80013e4:	689a      	ldr	r2, [r3, #8]
 80013e6:	4b28      	ldr	r3, [pc, #160]	; (8001488 <HAL_ADC_Init+0x1a8>)
 80013e8:	4013      	ands	r3, r2
 80013ea:	687a      	ldr	r2, [r7, #4]
 80013ec:	6812      	ldr	r2, [r2, #0]
 80013ee:	68b9      	ldr	r1, [r7, #8]
 80013f0:	430b      	orrs	r3, r1
 80013f2:	6093      	str	r3, [r2, #8]
    /*   Note: Scan mode is present by hardware on this device and, if        */
    /*   disabled, discards automatically nb of conversions. Anyway, nb of    */
    /*   conversions is forced to 0x00 for alignment over all STM32 devices.  */
    /* - if scan mode is enabled, regular channels sequence length is set to  */
    /*   parameter "NbrOfConversion"                                          */
    if (ADC_CR1_SCAN_SET(hadc->Init.ScanConvMode) == ADC_SCAN_ENABLE)
 80013f4:	687b      	ldr	r3, [r7, #4]
 80013f6:	689b      	ldr	r3, [r3, #8]
 80013f8:	f5b3 7f80 	cmp.w	r3, #256	; 0x100
 80013fc:	d003      	beq.n	8001406 <HAL_ADC_Init+0x126>
 80013fe:	687b      	ldr	r3, [r7, #4]
 8001400:	689b      	ldr	r3, [r3, #8]
 8001402:	2b01      	cmp	r3, #1
 8001404:	d104      	bne.n	8001410 <HAL_ADC_Init+0x130>
    {
      tmp_sqr1 = ADC_SQR1_L_SHIFT(hadc->Init.NbrOfConversion);
 8001406:	687b      	ldr	r3, [r7, #4]
 8001408:	691b      	ldr	r3, [r3, #16]
 800140a:	3b01      	subs	r3, #1
 800140c:	051b      	lsls	r3, r3, #20
 800140e:	60fb      	str	r3, [r7, #12]
    }
      
    MODIFY_REG(hadc->Instance->SQR1,
 8001410:	687b      	ldr	r3, [r7, #4]
 8001412:	681b      	ldr	r3, [r3, #0]
 8001414:	6adb      	ldr	r3, [r3, #44]	; 0x2c
 8001416:	f423 0170 	bic.w	r1, r3, #15728640	; 0xf00000
 800141a:	687b      	ldr	r3, [r7, #4]
 800141c:	681b      	ldr	r3, [r3, #0]
 800141e:	68fa      	ldr	r2, [r7, #12]
 8001420:	430a      	orrs	r2, r1
 8001422:	62da      	str	r2, [r3, #44]	; 0x2c
    /* ensure of no potential problem of ADC core IP clocking.                */
    /* Check through register CR2 (excluding bits set in other functions:     */
    /* execution control bits (ADON, JSWSTART, SWSTART), regular group bits   */
    /* (DMA), injected group bits (JEXTTRIG and JEXTSEL), channel internal    */
    /* measurement path bit (TSVREFE).                                        */
    if (READ_BIT(hadc->Instance->CR2, ~(ADC_CR2_ADON | ADC_CR2_DMA |
 8001424:	687b      	ldr	r3, [r7, #4]
 8001426:	681b      	ldr	r3, [r3, #0]
 8001428:	689a      	ldr	r2, [r3, #8]
 800142a:	4b18      	ldr	r3, [pc, #96]	; (800148c <HAL_ADC_Init+0x1ac>)
 800142c:	4013      	ands	r3, r2
 800142e:	68ba      	ldr	r2, [r7, #8]
 8001430:	429a      	cmp	r2, r3
 8001432:	d10b      	bne.n	800144c <HAL_ADC_Init+0x16c>
                                        ADC_CR2_JEXTTRIG | ADC_CR2_JEXTSEL |
                                        ADC_CR2_TSVREFE                     ))
         == tmp_cr2)
    {
      /* Set ADC error code to none */
      ADC_CLEAR_ERRORCODE(hadc);
 8001434:	687b      	ldr	r3, [r7, #4]
 8001436:	2200      	movs	r2, #0
 8001438:	62da      	str	r2, [r3, #44]	; 0x2c
      
      /* Set the ADC state */
      ADC_STATE_CLR_SET(hadc->State,
 800143a:	687b      	ldr	r3, [r7, #4]
 800143c:	6a9b      	ldr	r3, [r3, #40]	; 0x28
 800143e:	f023 0303 	bic.w	r3, r3, #3
 8001442:	f043 0201 	orr.w	r2, r3, #1
 8001446:	687b      	ldr	r3, [r7, #4]
 8001448:	629a      	str	r2, [r3, #40]	; 0x28
    if (READ_BIT(hadc->Instance->CR2, ~(ADC_CR2_ADON | ADC_CR2_DMA |
 800144a:	e018      	b.n	800147e <HAL_ADC_Init+0x19e>
                        HAL_ADC_STATE_READY);
    }
    else
    {
      /* Update ADC state machine to error */
      ADC_STATE_CLR_SET(hadc->State,
 800144c:	687b      	ldr	r3, [r7, #4]
 800144e:	6a9b      	ldr	r3, [r3, #40]	; 0x28
 8001450:	f023 0312 	bic.w	r3, r3, #18
 8001454:	f043 0210 	orr.w	r2, r3, #16
 8001458:	687b      	ldr	r3, [r7, #4]
 800145a:	629a      	str	r2, [r3, #40]	; 0x28
                        HAL_ADC_STATE_BUSY_INTERNAL,
                        HAL_ADC_STATE_ERROR_INTERNAL);
      
      /* Set ADC error code to ADC IP internal error */
      SET_BIT(hadc->ErrorCode, HAL_ADC_ERROR_INTERNAL);
 800145c:	687b      	ldr	r3, [r7, #4]
 800145e:	6adb      	ldr	r3, [r3, #44]	; 0x2c
 8001460:	f043 0201 	orr.w	r2, r3, #1
 8001464:	687b      	ldr	r3, [r7, #4]
 8001466:	62da      	str	r2, [r3, #44]	; 0x2c
      
      tmp_hal_status = HAL_ERROR;
 8001468:	2301      	movs	r3, #1
 800146a:	75fb      	strb	r3, [r7, #23]
    if (READ_BIT(hadc->Instance->CR2, ~(ADC_CR2_ADON | ADC_CR2_DMA |
 800146c:	e007      	b.n	800147e <HAL_ADC_Init+0x19e>
  
  }
  else
  {
    /* Update ADC state machine to error */
    SET_BIT(hadc->State, HAL_ADC_STATE_ERROR_INTERNAL);
 800146e:	687b      	ldr	r3, [r7, #4]
 8001470:	6a9b      	ldr	r3, [r3, #40]	; 0x28
 8001472:	f043 0210 	orr.w	r2, r3, #16
 8001476:	687b      	ldr	r3, [r7, #4]
 8001478:	629a      	str	r2, [r3, #40]	; 0x28
        
    tmp_hal_status = HAL_ERROR;
 800147a:	2301      	movs	r3, #1
 800147c:	75fb      	strb	r3, [r7, #23]
  }
  
  /* Return function status */
  return tmp_hal_status;
 800147e:	7dfb      	ldrb	r3, [r7, #23]
}
 8001480:	4618      	mov	r0, r3
 8001482:	3718      	adds	r7, #24
 8001484:	46bd      	mov	sp, r7
 8001486:	bd80      	pop	{r7, pc}
 8001488:	ffe1f7fd 	.word	0xffe1f7fd
 800148c:	ff1f0efe 	.word	0xff1f0efe

08001490 <HAL_ADC_Start_DMA>:
  * @param  pData: The destination Buffer address.
  * @param  Length: The length of data to be transferred from ADC peripheral to memory.
  * @retval None
  */
HAL_StatusTypeDef HAL_ADC_Start_DMA(ADC_HandleTypeDef* hadc, uint32_t* pData, uint32_t Length)
{
 8001490:	b580      	push	{r7, lr}
 8001492:	b086      	sub	sp, #24
 8001494:	af00      	add	r7, sp, #0
 8001496:	60f8      	str	r0, [r7, #12]
 8001498:	60b9      	str	r1, [r7, #8]
 800149a:	607a      	str	r2, [r7, #4]
  HAL_StatusTypeDef tmp_hal_status = HAL_OK;
 800149c:	2300      	movs	r3, #0
 800149e:	75fb      	strb	r3, [r7, #23]
  assert_param(IS_ADC_DMA_CAPABILITY_INSTANCE(hadc->Instance));
    
  /* Verification if multimode is disabled (for devices with several ADC)     */
  /* If multimode is enabled, dedicated function multimode conversion         */
  /* start DMA must be used.                                                  */
  if(ADC_MULTIMODE_IS_ENABLE(hadc) == RESET)
 80014a0:	68fb      	ldr	r3, [r7, #12]
 80014a2:	681b      	ldr	r3, [r3, #0]
 80014a4:	4a64      	ldr	r2, [pc, #400]	; (8001638 <HAL_ADC_Start_DMA+0x1a8>)
 80014a6:	4293      	cmp	r3, r2
 80014a8:	d004      	beq.n	80014b4 <HAL_ADC_Start_DMA+0x24>
 80014aa:	68fb      	ldr	r3, [r7, #12]
 80014ac:	681b      	ldr	r3, [r3, #0]
 80014ae:	4a63      	ldr	r2, [pc, #396]	; (800163c <HAL_ADC_Start_DMA+0x1ac>)
 80014b0:	4293      	cmp	r3, r2
 80014b2:	d106      	bne.n	80014c2 <HAL_ADC_Start_DMA+0x32>
 80014b4:	4b60      	ldr	r3, [pc, #384]	; (8001638 <HAL_ADC_Start_DMA+0x1a8>)
 80014b6:	685b      	ldr	r3, [r3, #4]
 80014b8:	f403 2370 	and.w	r3, r3, #983040	; 0xf0000
 80014bc:	2b00      	cmp	r3, #0
 80014be:	f040 80b3 	bne.w	8001628 <HAL_ADC_Start_DMA+0x198>
  {
    /* Process locked */
    __HAL_LOCK(hadc);
 80014c2:	68fb      	ldr	r3, [r7, #12]
 80014c4:	f893 3024 	ldrb.w	r3, [r3, #36]	; 0x24
 80014c8:	2b01      	cmp	r3, #1
 80014ca:	d101      	bne.n	80014d0 <HAL_ADC_Start_DMA+0x40>
 80014cc:	2302      	movs	r3, #2
 80014ce:	e0ae      	b.n	800162e <HAL_ADC_Start_DMA+0x19e>
 80014d0:	68fb      	ldr	r3, [r7, #12]
 80014d2:	2201      	movs	r2, #1
 80014d4:	f883 2024 	strb.w	r2, [r3, #36]	; 0x24
    
    /* Enable the ADC peripheral */
    tmp_hal_status = ADC_Enable(hadc);
 80014d8:	68f8      	ldr	r0, [r7, #12]
 80014da:	f000 f9cb 	bl	8001874 <ADC_Enable>
 80014de:	4603      	mov	r3, r0
 80014e0:	75fb      	strb	r3, [r7, #23]
    
    /* Start conversion if ADC is effectively enabled */
    if (tmp_hal_status == HAL_OK)
 80014e2:	7dfb      	ldrb	r3, [r7, #23]
 80014e4:	2b00      	cmp	r3, #0
 80014e6:	f040 809a 	bne.w	800161e <HAL_ADC_Start_DMA+0x18e>
    {
      /* Set ADC state                                                        */
      /* - Clear state bitfield related to regular group conversion results   */
      /* - Set state bitfield related to regular operation                    */
      ADC_STATE_CLR_SET(hadc->State,
 80014ea:	68fb      	ldr	r3, [r7, #12]
 80014ec:	6a9b      	ldr	r3, [r3, #40]	; 0x28
 80014ee:	f423 6370 	bic.w	r3, r3, #3840	; 0xf00
 80014f2:	f023 0301 	bic.w	r3, r3, #1
 80014f6:	f443 7280 	orr.w	r2, r3, #256	; 0x100
 80014fa:	68fb      	ldr	r3, [r7, #12]
 80014fc:	629a      	str	r2, [r3, #40]	; 0x28
                        HAL_ADC_STATE_REG_BUSY);
    
    /* Set group injected state (from auto-injection) and multimode state     */
    /* for all cases of multimode: independent mode, multimode ADC master     */
    /* or multimode ADC slave (for devices with several ADCs):                */
    if (ADC_NONMULTIMODE_OR_MULTIMODEMASTER(hadc))
 80014fe:	68fb      	ldr	r3, [r7, #12]
 8001500:	681b      	ldr	r3, [r3, #0]
 8001502:	4a4e      	ldr	r2, [pc, #312]	; (800163c <HAL_ADC_Start_DMA+0x1ac>)
 8001504:	4293      	cmp	r3, r2
 8001506:	d105      	bne.n	8001514 <HAL_ADC_Start_DMA+0x84>
 8001508:	4b4b      	ldr	r3, [pc, #300]	; (8001638 <HAL_ADC_Start_DMA+0x1a8>)
 800150a:	685b      	ldr	r3, [r3, #4]
 800150c:	f403 2370 	and.w	r3, r3, #983040	; 0xf0000
 8001510:	2b00      	cmp	r3, #0
 8001512:	d115      	bne.n	8001540 <HAL_ADC_Start_DMA+0xb0>
    {
      /* Set ADC state (ADC independent or master) */
      CLEAR_BIT(hadc->State, HAL_ADC_STATE_MULTIMODE_SLAVE);
 8001514:	68fb      	ldr	r3, [r7, #12]
 8001516:	6a9b      	ldr	r3, [r3, #40]	; 0x28
 8001518:	f423 1280 	bic.w	r2, r3, #1048576	; 0x100000
 800151c:	68fb      	ldr	r3, [r7, #12]
 800151e:	629a      	str	r2, [r3, #40]	; 0x28
      
      /* If conversions on group regular are also triggering group injected,  */
      /* update ADC state.                                                    */
      if (READ_BIT(hadc->Instance->CR1, ADC_CR1_JAUTO) != RESET)
 8001520:	68fb      	ldr	r3, [r7, #12]
 8001522:	681b      	ldr	r3, [r3, #0]
 8001524:	685b      	ldr	r3, [r3, #4]
 8001526:	f403 6380 	and.w	r3, r3, #1024	; 0x400
 800152a:	2b00      	cmp	r3, #0
 800152c:	d026      	beq.n	800157c <HAL_ADC_Start_DMA+0xec>
      {
        ADC_STATE_CLR_SET(hadc->State, HAL_ADC_STATE_INJ_EOC, HAL_ADC_STATE_INJ_BUSY);  
 800152e:	68fb      	ldr	r3, [r7, #12]
 8001530:	6a9b      	ldr	r3, [r3, #40]	; 0x28
 8001532:	f423 5340 	bic.w	r3, r3, #12288	; 0x3000
 8001536:	f443 5280 	orr.w	r2, r3, #4096	; 0x1000
 800153a:	68fb      	ldr	r3, [r7, #12]
 800153c:	629a      	str	r2, [r3, #40]	; 0x28
      if (READ_BIT(hadc->Instance->CR1, ADC_CR1_JAUTO) != RESET)
 800153e:	e01d      	b.n	800157c <HAL_ADC_Start_DMA+0xec>
      }
    }
    else
    {
      /* Set ADC state (ADC slave) */
      SET_BIT(hadc->State, HAL_ADC_STATE_MULTIMODE_SLAVE);
 8001540:	68fb      	ldr	r3, [r7, #12]
 8001542:	6a9b      	ldr	r3, [r3, #40]	; 0x28
 8001544:	f443 1280 	orr.w	r2, r3, #1048576	; 0x100000
 8001548:	68fb      	ldr	r3, [r7, #12]
 800154a:	629a      	str	r2, [r3, #40]	; 0x28
      
      /* If conversions on group regular are also triggering group injected,  */
      /* update ADC state.                                                    */
      if (ADC_MULTIMODE_AUTO_INJECTED(hadc))
 800154c:	68fb      	ldr	r3, [r7, #12]
 800154e:	681b      	ldr	r3, [r3, #0]
 8001550:	4a39      	ldr	r2, [pc, #228]	; (8001638 <HAL_ADC_Start_DMA+0x1a8>)
 8001552:	4293      	cmp	r3, r2
 8001554:	d004      	beq.n	8001560 <HAL_ADC_Start_DMA+0xd0>
 8001556:	68fb      	ldr	r3, [r7, #12]
 8001558:	681b      	ldr	r3, [r3, #0]
 800155a:	4a38      	ldr	r2, [pc, #224]	; (800163c <HAL_ADC_Start_DMA+0x1ac>)
 800155c:	4293      	cmp	r3, r2
 800155e:	d10d      	bne.n	800157c <HAL_ADC_Start_DMA+0xec>
 8001560:	4b35      	ldr	r3, [pc, #212]	; (8001638 <HAL_ADC_Start_DMA+0x1a8>)
 8001562:	685b      	ldr	r3, [r3, #4]
 8001564:	f403 6380 	and.w	r3, r3, #1024	; 0x400
 8001568:	2b00      	cmp	r3, #0
 800156a:	d007      	beq.n	800157c <HAL_ADC_Start_DMA+0xec>
      {
        ADC_STATE_CLR_SET(hadc->State, HAL_ADC_STATE_INJ_EOC, HAL_ADC_STATE_INJ_BUSY);
 800156c:	68fb      	ldr	r3, [r7, #12]
 800156e:	6a9b      	ldr	r3, [r3, #40]	; 0x28
 8001570:	f423 5340 	bic.w	r3, r3, #12288	; 0x3000
 8001574:	f443 5280 	orr.w	r2, r3, #4096	; 0x1000
 8001578:	68fb      	ldr	r3, [r7, #12]
 800157a:	629a      	str	r2, [r3, #40]	; 0x28
      }
    }
      
      /* State machine update: Check if an injected conversion is ongoing */
      if (HAL_IS_BIT_SET(hadc->State, HAL_ADC_STATE_INJ_BUSY))
 800157c:	68fb      	ldr	r3, [r7, #12]
 800157e:	6a9b      	ldr	r3, [r3, #40]	; 0x28
 8001580:	f403 5380 	and.w	r3, r3, #4096	; 0x1000
 8001584:	2b00      	cmp	r3, #0
 8001586:	d006      	beq.n	8001596 <HAL_ADC_Start_DMA+0x106>
      {
        /* Reset ADC error code fields related to conversions on group regular */
        CLEAR_BIT(hadc->ErrorCode, (HAL_ADC_ERROR_OVR | HAL_ADC_ERROR_DMA));         
 8001588:	68fb      	ldr	r3, [r7, #12]
 800158a:	6adb      	ldr	r3, [r3, #44]	; 0x2c
 800158c:	f023 0206 	bic.w	r2, r3, #6
 8001590:	68fb      	ldr	r3, [r7, #12]
 8001592:	62da      	str	r2, [r3, #44]	; 0x2c
 8001594:	e002      	b.n	800159c <HAL_ADC_Start_DMA+0x10c>
      }
      else
      {
        /* Reset ADC all error code fields */
        ADC_CLEAR_ERRORCODE(hadc);
 8001596:	68fb      	ldr	r3, [r7, #12]
 8001598:	2200      	movs	r2, #0
 800159a:	62da      	str	r2, [r3, #44]	; 0x2c
      }
      
      /* Process unlocked */
      /* Unlock before starting ADC conversions: in case of potential         */
      /* interruption, to let the process to ADC IRQ Handler.                 */
      __HAL_UNLOCK(hadc);
 800159c:	68fb      	ldr	r3, [r7, #12]
 800159e:	2200      	movs	r2, #0
 80015a0:	f883 2024 	strb.w	r2, [r3, #36]	; 0x24
      
      /* Set the DMA transfer complete callback */
      hadc->DMA_Handle->XferCpltCallback = ADC_DMAConvCplt;
 80015a4:	68fb      	ldr	r3, [r7, #12]
 80015a6:	6a1b      	ldr	r3, [r3, #32]
 80015a8:	4a25      	ldr	r2, [pc, #148]	; (8001640 <HAL_ADC_Start_DMA+0x1b0>)
 80015aa:	629a      	str	r2, [r3, #40]	; 0x28

      /* Set the DMA half transfer complete callback */
      hadc->DMA_Handle->XferHalfCpltCallback = ADC_DMAHalfConvCplt;
 80015ac:	68fb      	ldr	r3, [r7, #12]
 80015ae:	6a1b      	ldr	r3, [r3, #32]
 80015b0:	4a24      	ldr	r2, [pc, #144]	; (8001644 <HAL_ADC_Start_DMA+0x1b4>)
 80015b2:	62da      	str	r2, [r3, #44]	; 0x2c
      
      /* Set the DMA error callback */
      hadc->DMA_Handle->XferErrorCallback = ADC_DMAError;
 80015b4:	68fb      	ldr	r3, [r7, #12]
 80015b6:	6a1b      	ldr	r3, [r3, #32]
 80015b8:	4a23      	ldr	r2, [pc, #140]	; (8001648 <HAL_ADC_Start_DMA+0x1b8>)
 80015ba:	631a      	str	r2, [r3, #48]	; 0x30
      /* start (in case of SW start):                                         */
      
      /* Clear regular group conversion flag and overrun flag */
      /* (To ensure of no unknown state from potential previous ADC           */
      /* operations)                                                          */
      __HAL_ADC_CLEAR_FLAG(hadc, ADC_FLAG_EOC);
 80015bc:	68fb      	ldr	r3, [r7, #12]
 80015be:	681b      	ldr	r3, [r3, #0]
 80015c0:	f06f 0202 	mvn.w	r2, #2
 80015c4:	601a      	str	r2, [r3, #0]
      
      /* Enable ADC DMA mode */
      SET_BIT(hadc->Instance->CR2, ADC_CR2_DMA);
 80015c6:	68fb      	ldr	r3, [r7, #12]
 80015c8:	681b      	ldr	r3, [r3, #0]
 80015ca:	689a      	ldr	r2, [r3, #8]
 80015cc:	68fb      	ldr	r3, [r7, #12]
 80015ce:	681b      	ldr	r3, [r3, #0]
 80015d0:	f442 7280 	orr.w	r2, r2, #256	; 0x100
 80015d4:	609a      	str	r2, [r3, #8]
      
      /* Start the DMA channel */
      HAL_DMA_Start_IT(hadc->DMA_Handle, (uint32_t)&hadc->Instance->DR, (uint32_t)pData, Length);
 80015d6:	68fb      	ldr	r3, [r7, #12]
 80015d8:	6a18      	ldr	r0, [r3, #32]
 80015da:	68fb      	ldr	r3, [r7, #12]
 80015dc:	681b      	ldr	r3, [r3, #0]
 80015de:	334c      	adds	r3, #76	; 0x4c
 80015e0:	4619      	mov	r1, r3
 80015e2:	68ba      	ldr	r2, [r7, #8]
 80015e4:	687b      	ldr	r3, [r7, #4]
 80015e6:	f001 f89f 	bl	8002728 <HAL_DMA_Start_IT>
      
      /* Enable conversion of regular group.                                  */
      /* If software start has been selected, conversion starts immediately.  */
      /* If external trigger has been selected, conversion will start at next */
      /* trigger event.                                                       */
      if (ADC_IS_SOFTWARE_START_REGULAR(hadc))
 80015ea:	68fb      	ldr	r3, [r7, #12]
 80015ec:	681b      	ldr	r3, [r3, #0]
 80015ee:	689b      	ldr	r3, [r3, #8]
 80015f0:	f403 2360 	and.w	r3, r3, #917504	; 0xe0000
 80015f4:	f5b3 2f60 	cmp.w	r3, #917504	; 0xe0000
 80015f8:	d108      	bne.n	800160c <HAL_ADC_Start_DMA+0x17c>
      {
        /* Start ADC conversion on regular group with SW start */
        SET_BIT(hadc->Instance->CR2, (ADC_CR2_SWSTART | ADC_CR2_EXTTRIG));
 80015fa:	68fb      	ldr	r3, [r7, #12]
 80015fc:	681b      	ldr	r3, [r3, #0]
 80015fe:	689a      	ldr	r2, [r3, #8]
 8001600:	68fb      	ldr	r3, [r7, #12]
 8001602:	681b      	ldr	r3, [r3, #0]
 8001604:	f442 02a0 	orr.w	r2, r2, #5242880	; 0x500000
 8001608:	609a      	str	r2, [r3, #8]
    if (tmp_hal_status == HAL_OK)
 800160a:	e00f      	b.n	800162c <HAL_ADC_Start_DMA+0x19c>
      }
      else
      {
        /* Start ADC conversion on regular group with external trigger */
        SET_BIT(hadc->Instance->CR2, ADC_CR2_EXTTRIG);
 800160c:	68fb      	ldr	r3, [r7, #12]
 800160e:	681b      	ldr	r3, [r3, #0]
 8001610:	689a      	ldr	r2, [r3, #8]
 8001612:	68fb      	ldr	r3, [r7, #12]
 8001614:	681b      	ldr	r3, [r3, #0]
 8001616:	f442 1280 	orr.w	r2, r2, #1048576	; 0x100000
 800161a:	609a      	str	r2, [r3, #8]
    if (tmp_hal_status == HAL_OK)
 800161c:	e006      	b.n	800162c <HAL_ADC_Start_DMA+0x19c>
      }
    }
    else
    {
      /* Process unlocked */
      __HAL_UNLOCK(hadc);
 800161e:	68fb      	ldr	r3, [r7, #12]
 8001620:	2200      	movs	r2, #0
 8001622:	f883 2024 	strb.w	r2, [r3, #36]	; 0x24
    if (tmp_hal_status == HAL_OK)
 8001626:	e001      	b.n	800162c <HAL_ADC_Start_DMA+0x19c>
    }
  }
  else
  {
    tmp_hal_status = HAL_ERROR;
 8001628:	2301      	movs	r3, #1
 800162a:	75fb      	strb	r3, [r7, #23]
  }
  
  /* Return function status */
  return tmp_hal_status;
 800162c:	7dfb      	ldrb	r3, [r7, #23]
}
 800162e:	4618      	mov	r0, r3
 8001630:	3718      	adds	r7, #24
 8001632:	46bd      	mov	sp, r7
 8001634:	bd80      	pop	{r7, pc}
 8001636:	bf00      	nop
 8001638:	40012400 	.word	0x40012400
 800163c:	40012800 	.word	0x40012800
 8001640:	0800198d 	.word	0x0800198d
 8001644:	08001a09 	.word	0x08001a09
 8001648:	08001a25 	.word	0x08001a25

0800164c <HAL_ADC_ConvCpltCallback>:
  * @brief  Conversion complete callback in non blocking mode 
  * @param  hadc: ADC handle
  * @retval None
  */
__weak void HAL_ADC_ConvCpltCallback(ADC_HandleTypeDef* hadc)
{
 800164c:	b480      	push	{r7}
 800164e:	b083      	sub	sp, #12
 8001650:	af00      	add	r7, sp, #0
 8001652:	6078      	str	r0, [r7, #4]
  /* Prevent unused argument(s) compilation warning */
  UNUSED(hadc);
  /* NOTE : This function should not be modified. When the callback is needed,
            function HAL_ADC_ConvCpltCallback must be implemented in the user file.
   */
}
 8001654:	bf00      	nop
 8001656:	370c      	adds	r7, #12
 8001658:	46bd      	mov	sp, r7
 800165a:	bc80      	pop	{r7}
 800165c:	4770      	bx	lr

0800165e <HAL_ADC_ConvHalfCpltCallback>:
  * @brief  Conversion DMA half-transfer callback in non blocking mode 
  * @param  hadc: ADC handle
  * @retval None
  */
__weak void HAL_ADC_ConvHalfCpltCallback(ADC_HandleTypeDef* hadc)
{
 800165e:	b480      	push	{r7}
 8001660:	b083      	sub	sp, #12
 8001662:	af00      	add	r7, sp, #0
 8001664:	6078      	str	r0, [r7, #4]
  /* Prevent unused argument(s) compilation warning */
  UNUSED(hadc);
  /* NOTE : This function should not be modified. When the callback is needed,
            function HAL_ADC_ConvHalfCpltCallback must be implemented in the user file.
  */
}
 8001666:	bf00      	nop
 8001668:	370c      	adds	r7, #12
 800166a:	46bd      	mov	sp, r7
 800166c:	bc80      	pop	{r7}
 800166e:	4770      	bx	lr

08001670 <HAL_ADC_ErrorCallback>:
  *        (ADC conversion with interruption or transfer by DMA)
  * @param  hadc: ADC handle
  * @retval None
  */
__weak void HAL_ADC_ErrorCallback(ADC_HandleTypeDef *hadc)
{
 8001670:	b480      	push	{r7}
 8001672:	b083      	sub	sp, #12
 8001674:	af00      	add	r7, sp, #0
 8001676:	6078      	str	r0, [r7, #4]
  /* Prevent unused argument(s) compilation warning */
  UNUSED(hadc);
  /* NOTE : This function should not be modified. When the callback is needed,
            function HAL_ADC_ErrorCallback must be implemented in the user file.
  */
}
 8001678:	bf00      	nop
 800167a:	370c      	adds	r7, #12
 800167c:	46bd      	mov	sp, r7
 800167e:	bc80      	pop	{r7}
 8001680:	4770      	bx	lr
	...

08001684 <HAL_ADC_ConfigChannel>:
  * @param  hadc: ADC handle
  * @param  sConfig: Structure of ADC channel for regular group.
  * @retval HAL status
  */
HAL_StatusTypeDef HAL_ADC_ConfigChannel(ADC_HandleTypeDef* hadc, ADC_ChannelConfTypeDef* sConfig)
{ 
 8001684:	b480      	push	{r7}
 8001686:	b085      	sub	sp, #20
 8001688:	af00      	add	r7, sp, #0
 800168a:	6078      	str	r0, [r7, #4]
 800168c:	6039      	str	r1, [r7, #0]
  HAL_StatusTypeDef tmp_hal_status = HAL_OK;
 800168e:	2300      	movs	r3, #0
 8001690:	73fb      	strb	r3, [r7, #15]
  __IO uint32_t wait_loop_index = 0U;
 8001692:	2300      	movs	r3, #0
 8001694:	60bb      	str	r3, [r7, #8]
  assert_param(IS_ADC_CHANNEL(sConfig->Channel));
  assert_param(IS_ADC_REGULAR_RANK(sConfig->Rank));
  assert_param(IS_ADC_SAMPLE_TIME(sConfig->SamplingTime));
  
  /* Process locked */
  __HAL_LOCK(hadc);
 8001696:	687b      	ldr	r3, [r7, #4]
 8001698:	f893 3024 	ldrb.w	r3, [r3, #36]	; 0x24
 800169c:	2b01      	cmp	r3, #1
 800169e:	d101      	bne.n	80016a4 <HAL_ADC_ConfigChannel+0x20>
 80016a0:	2302      	movs	r3, #2
 80016a2:	e0dc      	b.n	800185e <HAL_ADC_ConfigChannel+0x1da>
 80016a4:	687b      	ldr	r3, [r7, #4]
 80016a6:	2201      	movs	r2, #1
 80016a8:	f883 2024 	strb.w	r2, [r3, #36]	; 0x24
  
  
  /* Regular sequence configuration */
  /* For Rank 1 to 6 */
  if (sConfig->Rank < 7U)
 80016ac:	683b      	ldr	r3, [r7, #0]
 80016ae:	685b      	ldr	r3, [r3, #4]
 80016b0:	2b06      	cmp	r3, #6
 80016b2:	d81c      	bhi.n	80016ee <HAL_ADC_ConfigChannel+0x6a>
  {
    MODIFY_REG(hadc->Instance->SQR3                        ,
 80016b4:	687b      	ldr	r3, [r7, #4]
 80016b6:	681b      	ldr	r3, [r3, #0]
 80016b8:	6b59      	ldr	r1, [r3, #52]	; 0x34
 80016ba:	683b      	ldr	r3, [r7, #0]
 80016bc:	685a      	ldr	r2, [r3, #4]
 80016be:	4613      	mov	r3, r2
 80016c0:	009b      	lsls	r3, r3, #2
 80016c2:	4413      	add	r3, r2
 80016c4:	3b05      	subs	r3, #5
 80016c6:	221f      	movs	r2, #31
 80016c8:	fa02 f303 	lsl.w	r3, r2, r3
 80016cc:	43db      	mvns	r3, r3
 80016ce:	4019      	ands	r1, r3
 80016d0:	683b      	ldr	r3, [r7, #0]
 80016d2:	6818      	ldr	r0, [r3, #0]
 80016d4:	683b      	ldr	r3, [r7, #0]
 80016d6:	685a      	ldr	r2, [r3, #4]
 80016d8:	4613      	mov	r3, r2
 80016da:	009b      	lsls	r3, r3, #2
 80016dc:	4413      	add	r3, r2
 80016de:	3b05      	subs	r3, #5
 80016e0:	fa00 f203 	lsl.w	r2, r0, r3
 80016e4:	687b      	ldr	r3, [r7, #4]
 80016e6:	681b      	ldr	r3, [r3, #0]
 80016e8:	430a      	orrs	r2, r1
 80016ea:	635a      	str	r2, [r3, #52]	; 0x34
 80016ec:	e03c      	b.n	8001768 <HAL_ADC_ConfigChannel+0xe4>
               ADC_SQR3_RK(ADC_SQR3_SQ1, sConfig->Rank)    ,
               ADC_SQR3_RK(sConfig->Channel, sConfig->Rank) );
  }
  /* For Rank 7 to 12 */
  else if (sConfig->Rank < 13U)
 80016ee:	683b      	ldr	r3, [r7, #0]
 80016f0:	685b      	ldr	r3, [r3, #4]
 80016f2:	2b0c      	cmp	r3, #12
 80016f4:	d81c      	bhi.n	8001730 <HAL_ADC_ConfigChannel+0xac>
  {
    MODIFY_REG(hadc->Instance->SQR2                        ,
 80016f6:	687b      	ldr	r3, [r7, #4]
 80016f8:	681b      	ldr	r3, [r3, #0]
 80016fa:	6b19      	ldr	r1, [r3, #48]	; 0x30
 80016fc:	683b      	ldr	r3, [r7, #0]
 80016fe:	685a      	ldr	r2, [r3, #4]
 8001700:	4613      	mov	r3, r2
 8001702:	009b      	lsls	r3, r3, #2
 8001704:	4413      	add	r3, r2
 8001706:	3b23      	subs	r3, #35	; 0x23
 8001708:	221f      	movs	r2, #31
 800170a:	fa02 f303 	lsl.w	r3, r2, r3
 800170e:	43db      	mvns	r3, r3
 8001710:	4019      	ands	r1, r3
 8001712:	683b      	ldr	r3, [r7, #0]
 8001714:	6818      	ldr	r0, [r3, #0]
 8001716:	683b      	ldr	r3, [r7, #0]
 8001718:	685a      	ldr	r2, [r3, #4]
 800171a:	4613      	mov	r3, r2
 800171c:	009b      	lsls	r3, r3, #2
 800171e:	4413      	add	r3, r2
 8001720:	3b23      	subs	r3, #35	; 0x23
 8001722:	fa00 f203 	lsl.w	r2, r0, r3
 8001726:	687b      	ldr	r3, [r7, #4]
 8001728:	681b      	ldr	r3, [r3, #0]
 800172a:	430a      	orrs	r2, r1
 800172c:	631a      	str	r2, [r3, #48]	; 0x30
 800172e:	e01b      	b.n	8001768 <HAL_ADC_ConfigChannel+0xe4>
               ADC_SQR2_RK(sConfig->Channel, sConfig->Rank) );
  }
  /* For Rank 13 to 16 */
  else
  {
    MODIFY_REG(hadc->Instance->SQR1                        ,
 8001730:	687b      	ldr	r3, [r7, #4]
 8001732:	681b      	ldr	r3, [r3, #0]
 8001734:	6ad9      	ldr	r1, [r3, #44]	; 0x2c
 8001736:	683b      	ldr	r3, [r7, #0]
 8001738:	685a      	ldr	r2, [r3, #4]
 800173a:	4613      	mov	r3, r2
 800173c:	009b      	lsls	r3, r3, #2
 800173e:	4413      	add	r3, r2
 8001740:	3b41      	subs	r3, #65	; 0x41
 8001742:	221f      	movs	r2, #31
 8001744:	fa02 f303 	lsl.w	r3, r2, r3
 8001748:	43db      	mvns	r3, r3
 800174a:	4019      	ands	r1, r3
 800174c:	683b      	ldr	r3, [r7, #0]
 800174e:	6818      	ldr	r0, [r3, #0]
 8001750:	683b      	ldr	r3, [r7, #0]
 8001752:	685a      	ldr	r2, [r3, #4]
 8001754:	4613      	mov	r3, r2
 8001756:	009b      	lsls	r3, r3, #2
 8001758:	4413      	add	r3, r2
 800175a:	3b41      	subs	r3, #65	; 0x41
 800175c:	fa00 f203 	lsl.w	r2, r0, r3
 8001760:	687b      	ldr	r3, [r7, #4]
 8001762:	681b      	ldr	r3, [r3, #0]
 8001764:	430a      	orrs	r2, r1
 8001766:	62da      	str	r2, [r3, #44]	; 0x2c
  }
  
  
  /* Channel sampling time configuration */
  /* For channels 10 to 17 */
  if (sConfig->Channel >= ADC_CHANNEL_10)
 8001768:	683b      	ldr	r3, [r7, #0]
 800176a:	681b      	ldr	r3, [r3, #0]
 800176c:	2b09      	cmp	r3, #9
 800176e:	d91c      	bls.n	80017aa <HAL_ADC_ConfigChannel+0x126>
  {
    MODIFY_REG(hadc->Instance->SMPR1                             ,
 8001770:	687b      	ldr	r3, [r7, #4]
 8001772:	681b      	ldr	r3, [r3, #0]
 8001774:	68d9      	ldr	r1, [r3, #12]
 8001776:	683b      	ldr	r3, [r7, #0]
 8001778:	681a      	ldr	r2, [r3, #0]
 800177a:	4613      	mov	r3, r2
 800177c:	005b      	lsls	r3, r3, #1
 800177e:	4413      	add	r3, r2
 8001780:	3b1e      	subs	r3, #30
 8001782:	2207      	movs	r2, #7
 8001784:	fa02 f303 	lsl.w	r3, r2, r3
 8001788:	43db      	mvns	r3, r3
 800178a:	4019      	ands	r1, r3
 800178c:	683b      	ldr	r3, [r7, #0]
 800178e:	6898      	ldr	r0, [r3, #8]
 8001790:	683b      	ldr	r3, [r7, #0]
 8001792:	681a      	ldr	r2, [r3, #0]
 8001794:	4613      	mov	r3, r2
 8001796:	005b      	lsls	r3, r3, #1
 8001798:	4413      	add	r3, r2
 800179a:	3b1e      	subs	r3, #30
 800179c:	fa00 f203 	lsl.w	r2, r0, r3
 80017a0:	687b      	ldr	r3, [r7, #4]
 80017a2:	681b      	ldr	r3, [r3, #0]
 80017a4:	430a      	orrs	r2, r1
 80017a6:	60da      	str	r2, [r3, #12]
 80017a8:	e019      	b.n	80017de <HAL_ADC_ConfigChannel+0x15a>
               ADC_SMPR1(ADC_SMPR1_SMP10, sConfig->Channel)      ,
               ADC_SMPR1(sConfig->SamplingTime, sConfig->Channel) );
  }
  else /* For channels 0 to 9 */
  {
    MODIFY_REG(hadc->Instance->SMPR2                             ,
 80017aa:	687b      	ldr	r3, [r7, #4]
 80017ac:	681b      	ldr	r3, [r3, #0]
 80017ae:	6919      	ldr	r1, [r3, #16]
 80017b0:	683b      	ldr	r3, [r7, #0]
 80017b2:	681a      	ldr	r2, [r3, #0]
 80017b4:	4613      	mov	r3, r2
 80017b6:	005b      	lsls	r3, r3, #1
 80017b8:	4413      	add	r3, r2
 80017ba:	2207      	movs	r2, #7
 80017bc:	fa02 f303 	lsl.w	r3, r2, r3
 80017c0:	43db      	mvns	r3, r3
 80017c2:	4019      	ands	r1, r3
 80017c4:	683b      	ldr	r3, [r7, #0]
 80017c6:	6898      	ldr	r0, [r3, #8]
 80017c8:	683b      	ldr	r3, [r7, #0]
 80017ca:	681a      	ldr	r2, [r3, #0]
 80017cc:	4613      	mov	r3, r2
 80017ce:	005b      	lsls	r3, r3, #1
 80017d0:	4413      	add	r3, r2
 80017d2:	fa00 f203 	lsl.w	r2, r0, r3
 80017d6:	687b      	ldr	r3, [r7, #4]
 80017d8:	681b      	ldr	r3, [r3, #0]
 80017da:	430a      	orrs	r2, r1
 80017dc:	611a      	str	r2, [r3, #16]
               ADC_SMPR2(sConfig->SamplingTime, sConfig->Channel) );
  }
  
  /* If ADC1 Channel_16 or Channel_17 is selected, enable Temperature sensor  */
  /* and VREFINT measurement path.                                            */
  if ((sConfig->Channel == ADC_CHANNEL_TEMPSENSOR) ||
 80017de:	683b      	ldr	r3, [r7, #0]
 80017e0:	681b      	ldr	r3, [r3, #0]
 80017e2:	2b10      	cmp	r3, #16
 80017e4:	d003      	beq.n	80017ee <HAL_ADC_ConfigChannel+0x16a>
      (sConfig->Channel == ADC_CHANNEL_VREFINT)      )
 80017e6:	683b      	ldr	r3, [r7, #0]
 80017e8:	681b      	ldr	r3, [r3, #0]
  if ((sConfig->Channel == ADC_CHANNEL_TEMPSENSOR) ||
 80017ea:	2b11      	cmp	r3, #17
 80017ec:	d132      	bne.n	8001854 <HAL_ADC_ConfigChannel+0x1d0>
  {
    /* For STM32F1 devices with several ADC: Only ADC1 can access internal    */
    /* measurement channels (VrefInt/TempSensor). If these channels are       */
    /* intended to be set on other ADC instances, an error is reported.       */
    if (hadc->Instance == ADC1)
 80017ee:	687b      	ldr	r3, [r7, #4]
 80017f0:	681b      	ldr	r3, [r3, #0]
 80017f2:	4a1d      	ldr	r2, [pc, #116]	; (8001868 <HAL_ADC_ConfigChannel+0x1e4>)
 80017f4:	4293      	cmp	r3, r2
 80017f6:	d125      	bne.n	8001844 <HAL_ADC_ConfigChannel+0x1c0>
    {
      if (READ_BIT(hadc->Instance->CR2, ADC_CR2_TSVREFE) == RESET)
 80017f8:	687b      	ldr	r3, [r7, #4]
 80017fa:	681b      	ldr	r3, [r3, #0]
 80017fc:	689b      	ldr	r3, [r3, #8]
 80017fe:	f403 0300 	and.w	r3, r3, #8388608	; 0x800000
 8001802:	2b00      	cmp	r3, #0
 8001804:	d126      	bne.n	8001854 <HAL_ADC_ConfigChannel+0x1d0>
      {
        SET_BIT(hadc->Instance->CR2, ADC_CR2_TSVREFE);
 8001806:	687b      	ldr	r3, [r7, #4]
 8001808:	681b      	ldr	r3, [r3, #0]
 800180a:	689a      	ldr	r2, [r3, #8]
 800180c:	687b      	ldr	r3, [r7, #4]
 800180e:	681b      	ldr	r3, [r3, #0]
 8001810:	f442 0200 	orr.w	r2, r2, #8388608	; 0x800000
 8001814:	609a      	str	r2, [r3, #8]
        
        if ((sConfig->Channel == ADC_CHANNEL_TEMPSENSOR))
 8001816:	683b      	ldr	r3, [r7, #0]
 8001818:	681b      	ldr	r3, [r3, #0]
 800181a:	2b10      	cmp	r3, #16
 800181c:	d11a      	bne.n	8001854 <HAL_ADC_ConfigChannel+0x1d0>
        {
          /* Delay for temperature sensor stabilization time */
          /* Compute number of CPU cycles to wait for */
          wait_loop_index = (ADC_TEMPSENSOR_DELAY_US * (SystemCoreClock / 1000000U));
 800181e:	4b13      	ldr	r3, [pc, #76]	; (800186c <HAL_ADC_ConfigChannel+0x1e8>)
 8001820:	681b      	ldr	r3, [r3, #0]
 8001822:	4a13      	ldr	r2, [pc, #76]	; (8001870 <HAL_ADC_ConfigChannel+0x1ec>)
 8001824:	fba2 2303 	umull	r2, r3, r2, r3
 8001828:	0c9a      	lsrs	r2, r3, #18
 800182a:	4613      	mov	r3, r2
 800182c:	009b      	lsls	r3, r3, #2
 800182e:	4413      	add	r3, r2
 8001830:	005b      	lsls	r3, r3, #1
 8001832:	60bb      	str	r3, [r7, #8]
          while(wait_loop_index != 0U)
 8001834:	e002      	b.n	800183c <HAL_ADC_ConfigChannel+0x1b8>
          {
            wait_loop_index--;
 8001836:	68bb      	ldr	r3, [r7, #8]
 8001838:	3b01      	subs	r3, #1
 800183a:	60bb      	str	r3, [r7, #8]
          while(wait_loop_index != 0U)
 800183c:	68bb      	ldr	r3, [r7, #8]
 800183e:	2b00      	cmp	r3, #0
 8001840:	d1f9      	bne.n	8001836 <HAL_ADC_ConfigChannel+0x1b2>
 8001842:	e007      	b.n	8001854 <HAL_ADC_ConfigChannel+0x1d0>
      }
    }
    else
    {
      /* Update ADC state machine to error */
      SET_BIT(hadc->State, HAL_ADC_STATE_ERROR_CONFIG);
 8001844:	687b      	ldr	r3, [r7, #4]
 8001846:	6a9b      	ldr	r3, [r3, #40]	; 0x28
 8001848:	f043 0220 	orr.w	r2, r3, #32
 800184c:	687b      	ldr	r3, [r7, #4]
 800184e:	629a      	str	r2, [r3, #40]	; 0x28
      
      tmp_hal_status = HAL_ERROR;
 8001850:	2301      	movs	r3, #1
 8001852:	73fb      	strb	r3, [r7, #15]
    }
  }
  
  /* Process unlocked */
  __HAL_UNLOCK(hadc);
 8001854:	687b      	ldr	r3, [r7, #4]
 8001856:	2200      	movs	r2, #0
 8001858:	f883 2024 	strb.w	r2, [r3, #36]	; 0x24
  
  /* Return function status */
  return tmp_hal_status;
 800185c:	7bfb      	ldrb	r3, [r7, #15]
}
 800185e:	4618      	mov	r0, r3
 8001860:	3714      	adds	r7, #20
 8001862:	46bd      	mov	sp, r7
 8001864:	bc80      	pop	{r7}
 8001866:	4770      	bx	lr
 8001868:	40012400 	.word	0x40012400
 800186c:	20000000 	.word	0x20000000
 8001870:	431bde83 	.word	0x431bde83

08001874 <ADC_Enable>:
  *         and voltage regulator must be enabled (done into HAL_ADC_Init()).
  * @param  hadc: ADC handle
  * @retval HAL status.
  */
HAL_StatusTypeDef ADC_Enable(ADC_HandleTypeDef* hadc)
{
 8001874:	b580      	push	{r7, lr}
 8001876:	b084      	sub	sp, #16
 8001878:	af00      	add	r7, sp, #0
 800187a:	6078      	str	r0, [r7, #4]
  uint32_t tickstart = 0U;
 800187c:	2300      	movs	r3, #0
 800187e:	60fb      	str	r3, [r7, #12]
  __IO uint32_t wait_loop_index = 0U;
 8001880:	2300      	movs	r3, #0
 8001882:	60bb      	str	r3, [r7, #8]
  
  /* ADC enable and wait for ADC ready (in case of ADC is disabled or         */
  /* enabling phase not yet completed: flag ADC ready not yet set).           */
  /* Timeout implemented to not be stuck if ADC cannot be enabled (possible   */
  /* causes: ADC clock not running, ...).                                     */
  if (ADC_IS_ENABLE(hadc) == RESET)
 8001884:	687b      	ldr	r3, [r7, #4]
 8001886:	681b      	ldr	r3, [r3, #0]
 8001888:	689b      	ldr	r3, [r3, #8]
 800188a:	f003 0301 	and.w	r3, r3, #1
 800188e:	2b01      	cmp	r3, #1
 8001890:	d039      	beq.n	8001906 <ADC_Enable+0x92>
  {
    /* Enable the Peripheral */
    __HAL_ADC_ENABLE(hadc);
 8001892:	687b      	ldr	r3, [r7, #4]
 8001894:	681b      	ldr	r3, [r3, #0]
 8001896:	689a      	ldr	r2, [r3, #8]
 8001898:	687b      	ldr	r3, [r7, #4]
 800189a:	681b      	ldr	r3, [r3, #0]
 800189c:	f042 0201 	orr.w	r2, r2, #1
 80018a0:	609a      	str	r2, [r3, #8]
    
    /* Delay for ADC stabilization time */
    /* Compute number of CPU cycles to wait for */
    wait_loop_index = (ADC_STAB_DELAY_US * (SystemCoreClock / 1000000U));
 80018a2:	4b1b      	ldr	r3, [pc, #108]	; (8001910 <ADC_Enable+0x9c>)
 80018a4:	681b      	ldr	r3, [r3, #0]
 80018a6:	4a1b      	ldr	r2, [pc, #108]	; (8001914 <ADC_Enable+0xa0>)
 80018a8:	fba2 2303 	umull	r2, r3, r2, r3
 80018ac:	0c9b      	lsrs	r3, r3, #18
 80018ae:	60bb      	str	r3, [r7, #8]
    while(wait_loop_index != 0U)
 80018b0:	e002      	b.n	80018b8 <ADC_Enable+0x44>
    {
      wait_loop_index--;
 80018b2:	68bb      	ldr	r3, [r7, #8]
 80018b4:	3b01      	subs	r3, #1
 80018b6:	60bb      	str	r3, [r7, #8]
    while(wait_loop_index != 0U)
 80018b8:	68bb      	ldr	r3, [r7, #8]
 80018ba:	2b00      	cmp	r3, #0
 80018bc:	d1f9      	bne.n	80018b2 <ADC_Enable+0x3e>
    }
    
    /* Get tick count */
    tickstart = HAL_GetTick();
 80018be:	f7ff fce3 	bl	8001288 <HAL_GetTick>
 80018c2:	60f8      	str	r0, [r7, #12]

    /* Wait for ADC effectively enabled */
    while(ADC_IS_ENABLE(hadc) == RESET)
 80018c4:	e018      	b.n	80018f8 <ADC_Enable+0x84>
    {
      if((HAL_GetTick() - tickstart) > ADC_ENABLE_TIMEOUT)
 80018c6:	f7ff fcdf 	bl	8001288 <HAL_GetTick>
 80018ca:	4602      	mov	r2, r0
 80018cc:	68fb      	ldr	r3, [r7, #12]
 80018ce:	1ad3      	subs	r3, r2, r3
 80018d0:	2b02      	cmp	r3, #2
 80018d2:	d911      	bls.n	80018f8 <ADC_Enable+0x84>
      {
        /* Update ADC state machine to error */
        SET_BIT(hadc->State, HAL_ADC_STATE_ERROR_INTERNAL);
 80018d4:	687b      	ldr	r3, [r7, #4]
 80018d6:	6a9b      	ldr	r3, [r3, #40]	; 0x28
 80018d8:	f043 0210 	orr.w	r2, r3, #16
 80018dc:	687b      	ldr	r3, [r7, #4]
 80018de:	629a      	str	r2, [r3, #40]	; 0x28
      
        /* Set ADC error code to ADC IP internal error */
        SET_BIT(hadc->ErrorCode, HAL_ADC_ERROR_INTERNAL);
 80018e0:	687b      	ldr	r3, [r7, #4]
 80018e2:	6adb      	ldr	r3, [r3, #44]	; 0x2c
 80018e4:	f043 0201 	orr.w	r2, r3, #1
 80018e8:	687b      	ldr	r3, [r7, #4]
 80018ea:	62da      	str	r2, [r3, #44]	; 0x2c
        
        /* Process unlocked */
        __HAL_UNLOCK(hadc);
 80018ec:	687b      	ldr	r3, [r7, #4]
 80018ee:	2200      	movs	r2, #0
 80018f0:	f883 2024 	strb.w	r2, [r3, #36]	; 0x24
      
        return HAL_ERROR;
 80018f4:	2301      	movs	r3, #1
 80018f6:	e007      	b.n	8001908 <ADC_Enable+0x94>
    while(ADC_IS_ENABLE(hadc) == RESET)
 80018f8:	687b      	ldr	r3, [r7, #4]
 80018fa:	681b      	ldr	r3, [r3, #0]
 80018fc:	689b      	ldr	r3, [r3, #8]
 80018fe:	f003 0301 	and.w	r3, r3, #1
 8001902:	2b01      	cmp	r3, #1
 8001904:	d1df      	bne.n	80018c6 <ADC_Enable+0x52>
      }
    }
  }
   
  /* Return HAL status */
  return HAL_OK;
 8001906:	2300      	movs	r3, #0
}
 8001908:	4618      	mov	r0, r3
 800190a:	3710      	adds	r7, #16
 800190c:	46bd      	mov	sp, r7
 800190e:	bd80      	pop	{r7, pc}
 8001910:	20000000 	.word	0x20000000
 8001914:	431bde83 	.word	0x431bde83

08001918 <ADC_ConversionStop_Disable>:
  *         stopped to disable the ADC.
  * @param  hadc: ADC handle
  * @retval HAL status.
  */
HAL_StatusTypeDef ADC_ConversionStop_Disable(ADC_HandleTypeDef* hadc)
{
 8001918:	b580      	push	{r7, lr}
 800191a:	b084      	sub	sp, #16
 800191c:	af00      	add	r7, sp, #0
 800191e:	6078      	str	r0, [r7, #4]
  uint32_t tickstart = 0U;
 8001920:	2300      	movs	r3, #0
 8001922:	60fb      	str	r3, [r7, #12]
  
  /* Verification if ADC is not already disabled */
  if (ADC_IS_ENABLE(hadc) != RESET)
 8001924:	687b      	ldr	r3, [r7, #4]
 8001926:	681b      	ldr	r3, [r3, #0]
 8001928:	689b      	ldr	r3, [r3, #8]
 800192a:	f003 0301 	and.w	r3, r3, #1
 800192e:	2b01      	cmp	r3, #1
 8001930:	d127      	bne.n	8001982 <ADC_ConversionStop_Disable+0x6a>
  {
    /* Disable the ADC peripheral */
    __HAL_ADC_DISABLE(hadc);
 8001932:	687b      	ldr	r3, [r7, #4]
 8001934:	681b      	ldr	r3, [r3, #0]
 8001936:	689a      	ldr	r2, [r3, #8]
 8001938:	687b      	ldr	r3, [r7, #4]
 800193a:	681b      	ldr	r3, [r3, #0]
 800193c:	f022 0201 	bic.w	r2, r2, #1
 8001940:	609a      	str	r2, [r3, #8]
     
    /* Get tick count */
    tickstart = HAL_GetTick();
 8001942:	f7ff fca1 	bl	8001288 <HAL_GetTick>
 8001946:	60f8      	str	r0, [r7, #12]
    
    /* Wait for ADC effectively disabled */
    while(ADC_IS_ENABLE(hadc) != RESET)
 8001948:	e014      	b.n	8001974 <ADC_ConversionStop_Disable+0x5c>
    {
      if((HAL_GetTick() - tickstart) > ADC_DISABLE_TIMEOUT)
 800194a:	f7ff fc9d 	bl	8001288 <HAL_GetTick>
 800194e:	4602      	mov	r2, r0
 8001950:	68fb      	ldr	r3, [r7, #12]
 8001952:	1ad3      	subs	r3, r2, r3
 8001954:	2b02      	cmp	r3, #2
 8001956:	d90d      	bls.n	8001974 <ADC_ConversionStop_Disable+0x5c>
      {
        /* Update ADC state machine to error */
        SET_BIT(hadc->State, HAL_ADC_STATE_ERROR_INTERNAL);
 8001958:	687b      	ldr	r3, [r7, #4]
 800195a:	6a9b      	ldr	r3, [r3, #40]	; 0x28
 800195c:	f043 0210 	orr.w	r2, r3, #16
 8001960:	687b      	ldr	r3, [r7, #4]
 8001962:	629a      	str	r2, [r3, #40]	; 0x28
        
        /* Set ADC error code to ADC IP internal error */
        SET_BIT(hadc->ErrorCode, HAL_ADC_ERROR_INTERNAL);
 8001964:	687b      	ldr	r3, [r7, #4]
 8001966:	6adb      	ldr	r3, [r3, #44]	; 0x2c
 8001968:	f043 0201 	orr.w	r2, r3, #1
 800196c:	687b      	ldr	r3, [r7, #4]
 800196e:	62da      	str	r2, [r3, #44]	; 0x2c
        
        return HAL_ERROR;
 8001970:	2301      	movs	r3, #1
 8001972:	e007      	b.n	8001984 <ADC_ConversionStop_Disable+0x6c>
    while(ADC_IS_ENABLE(hadc) != RESET)
 8001974:	687b      	ldr	r3, [r7, #4]
 8001976:	681b      	ldr	r3, [r3, #0]
 8001978:	689b      	ldr	r3, [r3, #8]
 800197a:	f003 0301 	and.w	r3, r3, #1
 800197e:	2b01      	cmp	r3, #1
 8001980:	d0e3      	beq.n	800194a <ADC_ConversionStop_Disable+0x32>
      }
    }
  }
  
  /* Return HAL status */
  return HAL_OK;
 8001982:	2300      	movs	r3, #0
}
 8001984:	4618      	mov	r0, r3
 8001986:	3710      	adds	r7, #16
 8001988:	46bd      	mov	sp, r7
 800198a:	bd80      	pop	{r7, pc}

0800198c <ADC_DMAConvCplt>:
  * @brief  DMA transfer complete callback. 
  * @param  hdma: pointer to DMA handle.
  * @retval None
  */
void ADC_DMAConvCplt(DMA_HandleTypeDef *hdma)
{
 800198c:	b580      	push	{r7, lr}
 800198e:	b084      	sub	sp, #16
 8001990:	af00      	add	r7, sp, #0
 8001992:	6078      	str	r0, [r7, #4]
  /* Retrieve ADC handle corresponding to current DMA handle */
  ADC_HandleTypeDef* hadc = ( ADC_HandleTypeDef* )((DMA_HandleTypeDef* )hdma)->Parent;
 8001994:	687b      	ldr	r3, [r7, #4]
 8001996:	6a5b      	ldr	r3, [r3, #36]	; 0x24
 8001998:	60fb      	str	r3, [r7, #12]
 
  /* Update state machine on conversion status if not in error state */
  if (HAL_IS_BIT_CLR(hadc->State, HAL_ADC_STATE_ERROR_INTERNAL | HAL_ADC_STATE_ERROR_DMA))
 800199a:	68fb      	ldr	r3, [r7, #12]
 800199c:	6a9b      	ldr	r3, [r3, #40]	; 0x28
 800199e:	f003 0350 	and.w	r3, r3, #80	; 0x50
 80019a2:	2b00      	cmp	r3, #0
 80019a4:	d127      	bne.n	80019f6 <ADC_DMAConvCplt+0x6a>
  {
    /* Update ADC state machine */
    SET_BIT(hadc->State, HAL_ADC_STATE_REG_EOC);
 80019a6:	68fb      	ldr	r3, [r7, #12]
 80019a8:	6a9b      	ldr	r3, [r3, #40]	; 0x28
 80019aa:	f443 7200 	orr.w	r2, r3, #512	; 0x200
 80019ae:	68fb      	ldr	r3, [r7, #12]
 80019b0:	629a      	str	r2, [r3, #40]	; 0x28
    /* Determine whether any further conversion upcoming on group regular     */
    /* by external trigger, continuous mode or scan sequence on going.        */
    /* Note: On STM32F1 devices, in case of sequencer enabled                 */
    /*       (several ranks selected), end of conversion flag is raised       */
    /*       at the end of the sequence.                                      */
    if(ADC_IS_SOFTWARE_START_REGULAR(hadc)        && 
 80019b2:	68fb      	ldr	r3, [r7, #12]
 80019b4:	681b      	ldr	r3, [r3, #0]
 80019b6:	689b      	ldr	r3, [r3, #8]
 80019b8:	f403 2360 	and.w	r3, r3, #917504	; 0xe0000
 80019bc:	f5b3 2f60 	cmp.w	r3, #917504	; 0xe0000
 80019c0:	d115      	bne.n	80019ee <ADC_DMAConvCplt+0x62>
       (hadc->Init.ContinuousConvMode == DISABLE)   )
 80019c2:	68fb      	ldr	r3, [r7, #12]
 80019c4:	7b1b      	ldrb	r3, [r3, #12]
    if(ADC_IS_SOFTWARE_START_REGULAR(hadc)        && 
 80019c6:	2b00      	cmp	r3, #0
 80019c8:	d111      	bne.n	80019ee <ADC_DMAConvCplt+0x62>
    {
      /* Set ADC state */
      CLEAR_BIT(hadc->State, HAL_ADC_STATE_REG_BUSY);   
 80019ca:	68fb      	ldr	r3, [r7, #12]
 80019cc:	6a9b      	ldr	r3, [r3, #40]	; 0x28
 80019ce:	f423 7280 	bic.w	r2, r3, #256	; 0x100
 80019d2:	68fb      	ldr	r3, [r7, #12]
 80019d4:	629a      	str	r2, [r3, #40]	; 0x28
      
      if (HAL_IS_BIT_CLR(hadc->State, HAL_ADC_STATE_INJ_BUSY))
 80019d6:	68fb      	ldr	r3, [r7, #12]
 80019d8:	6a9b      	ldr	r3, [r3, #40]	; 0x28
 80019da:	f403 5380 	and.w	r3, r3, #4096	; 0x1000
 80019de:	2b00      	cmp	r3, #0
 80019e0:	d105      	bne.n	80019ee <ADC_DMAConvCplt+0x62>
      {
        SET_BIT(hadc->State, HAL_ADC_STATE_READY);
 80019e2:	68fb      	ldr	r3, [r7, #12]
 80019e4:	6a9b      	ldr	r3, [r3, #40]	; 0x28
 80019e6:	f043 0201 	orr.w	r2, r3, #1
 80019ea:	68fb      	ldr	r3, [r7, #12]
 80019ec:	629a      	str	r2, [r3, #40]	; 0x28
    
    /* Conversion complete callback */
#if (USE_HAL_ADC_REGISTER_CALLBACKS == 1)
    hadc->ConvCpltCallback(hadc);
#else
    HAL_ADC_ConvCpltCallback(hadc);
 80019ee:	68f8      	ldr	r0, [r7, #12]
 80019f0:	f7ff fe2c 	bl	800164c <HAL_ADC_ConvCpltCallback>
  else
  {
    /* Call DMA error callback */
    hadc->DMA_Handle->XferErrorCallback(hdma);
  }
}
 80019f4:	e004      	b.n	8001a00 <ADC_DMAConvCplt+0x74>
    hadc->DMA_Handle->XferErrorCallback(hdma);
 80019f6:	68fb      	ldr	r3, [r7, #12]
 80019f8:	6a1b      	ldr	r3, [r3, #32]
 80019fa:	6b1b      	ldr	r3, [r3, #48]	; 0x30
 80019fc:	6878      	ldr	r0, [r7, #4]
 80019fe:	4798      	blx	r3
}
 8001a00:	bf00      	nop
 8001a02:	3710      	adds	r7, #16
 8001a04:	46bd      	mov	sp, r7
 8001a06:	bd80      	pop	{r7, pc}

08001a08 <ADC_DMAHalfConvCplt>:
  * @brief  DMA half transfer complete callback. 
  * @param  hdma: pointer to DMA handle.
  * @retval None
  */
void ADC_DMAHalfConvCplt(DMA_HandleTypeDef *hdma)   
{
 8001a08:	b580      	push	{r7, lr}
 8001a0a:	b084      	sub	sp, #16
 8001a0c:	af00      	add	r7, sp, #0
 8001a0e:	6078      	str	r0, [r7, #4]
  /* Retrieve ADC handle corresponding to current DMA handle */
  ADC_HandleTypeDef* hadc = ( ADC_HandleTypeDef* )((DMA_HandleTypeDef* )hdma)->Parent;
 8001a10:	687b      	ldr	r3, [r7, #4]
 8001a12:	6a5b      	ldr	r3, [r3, #36]	; 0x24
 8001a14:	60fb      	str	r3, [r7, #12]
  
  /* Half conversion callback */
#if (USE_HAL_ADC_REGISTER_CALLBACKS == 1)
    hadc->ConvHalfCpltCallback(hadc);
#else
  HAL_ADC_ConvHalfCpltCallback(hadc);
 8001a16:	68f8      	ldr	r0, [r7, #12]
 8001a18:	f7ff fe21 	bl	800165e <HAL_ADC_ConvHalfCpltCallback>
#endif /* USE_HAL_ADC_REGISTER_CALLBACKS */
}
 8001a1c:	bf00      	nop
 8001a1e:	3710      	adds	r7, #16
 8001a20:	46bd      	mov	sp, r7
 8001a22:	bd80      	pop	{r7, pc}

08001a24 <ADC_DMAError>:
  * @brief  DMA error callback 
  * @param  hdma: pointer to DMA handle.
  * @retval None
  */
void ADC_DMAError(DMA_HandleTypeDef *hdma)   
{
 8001a24:	b580      	push	{r7, lr}
 8001a26:	b084      	sub	sp, #16
 8001a28:	af00      	add	r7, sp, #0
 8001a2a:	6078      	str	r0, [r7, #4]
  /* Retrieve ADC handle corresponding to current DMA handle */
  ADC_HandleTypeDef* hadc = ( ADC_HandleTypeDef* )((DMA_HandleTypeDef* )hdma)->Parent;
 8001a2c:	687b      	ldr	r3, [r7, #4]
 8001a2e:	6a5b      	ldr	r3, [r3, #36]	; 0x24
 8001a30:	60fb      	str	r3, [r7, #12]
  
  /* Set ADC state */
  SET_BIT(hadc->State, HAL_ADC_STATE_ERROR_DMA);
 8001a32:	68fb      	ldr	r3, [r7, #12]
 8001a34:	6a9b      	ldr	r3, [r3, #40]	; 0x28
 8001a36:	f043 0240 	orr.w	r2, r3, #64	; 0x40
 8001a3a:	68fb      	ldr	r3, [r7, #12]
 8001a3c:	629a      	str	r2, [r3, #40]	; 0x28
  
  /* Set ADC error code to DMA error */
  SET_BIT(hadc->ErrorCode, HAL_ADC_ERROR_DMA);
 8001a3e:	68fb      	ldr	r3, [r7, #12]
 8001a40:	6adb      	ldr	r3, [r3, #44]	; 0x2c
 8001a42:	f043 0204 	orr.w	r2, r3, #4
 8001a46:	68fb      	ldr	r3, [r7, #12]
 8001a48:	62da      	str	r2, [r3, #44]	; 0x2c
  
  /* Error callback */
#if (USE_HAL_ADC_REGISTER_CALLBACKS == 1)
  hadc->ErrorCallback(hadc);
#else
  HAL_ADC_ErrorCallback(hadc);
 8001a4a:	68f8      	ldr	r0, [r7, #12]
 8001a4c:	f7ff fe10 	bl	8001670 <HAL_ADC_ErrorCallback>
#endif /* USE_HAL_ADC_REGISTER_CALLBACKS */
}
 8001a50:	bf00      	nop
 8001a52:	3710      	adds	r7, #16
 8001a54:	46bd      	mov	sp, r7
 8001a56:	bd80      	pop	{r7, pc}

08001a58 <HAL_CAN_Init>:
  * @param  hcan pointer to a CAN_HandleTypeDef structure that contains
  *         the configuration information for the specified CAN.
  * @retval HAL status
  */
HAL_StatusTypeDef HAL_CAN_Init(CAN_HandleTypeDef *hcan)
{
 8001a58:	b580      	push	{r7, lr}
 8001a5a:	b084      	sub	sp, #16
 8001a5c:	af00      	add	r7, sp, #0
 8001a5e:	6078      	str	r0, [r7, #4]
  uint32_t tickstart;

  /* Check CAN handle */
  if (hcan == NULL)
 8001a60:	687b      	ldr	r3, [r7, #4]
 8001a62:	2b00      	cmp	r3, #0
 8001a64:	d101      	bne.n	8001a6a <HAL_CAN_Init+0x12>
  {
    return HAL_ERROR;
 8001a66:	2301      	movs	r3, #1
 8001a68:	e0ed      	b.n	8001c46 <HAL_CAN_Init+0x1ee>
    /* Init the low level hardware: CLOCK, NVIC */
    hcan->MspInitCallback(hcan);
  }

#else
  if (hcan->State == HAL_CAN_STATE_RESET)
 8001a6a:	687b      	ldr	r3, [r7, #4]
 8001a6c:	f893 3020 	ldrb.w	r3, [r3, #32]
 8001a70:	b2db      	uxtb	r3, r3
 8001a72:	2b00      	cmp	r3, #0
 8001a74:	d102      	bne.n	8001a7c <HAL_CAN_Init+0x24>
  {
    /* Init the low level hardware: CLOCK, NVIC */
    HAL_CAN_MspInit(hcan);
 8001a76:	6878      	ldr	r0, [r7, #4]
 8001a78:	f7ff fa80 	bl	8000f7c <HAL_CAN_MspInit>
  }
#endif /* (USE_HAL_CAN_REGISTER_CALLBACKS) */

  /* Exit from sleep mode */
  CLEAR_BIT(hcan->Instance->MCR, CAN_MCR_SLEEP);
 8001a7c:	687b      	ldr	r3, [r7, #4]
 8001a7e:	681b      	ldr	r3, [r3, #0]
 8001a80:	681a      	ldr	r2, [r3, #0]
 8001a82:	687b      	ldr	r3, [r7, #4]
 8001a84:	681b      	ldr	r3, [r3, #0]
 8001a86:	f022 0202 	bic.w	r2, r2, #2
 8001a8a:	601a      	str	r2, [r3, #0]

  /* Get tick */
  tickstart = HAL_GetTick();
 8001a8c:	f7ff fbfc 	bl	8001288 <HAL_GetTick>
 8001a90:	60f8      	str	r0, [r7, #12]

  /* Check Sleep mode leave acknowledge */
  while ((hcan->Instance->MSR & CAN_MSR_SLAK) != 0U)
 8001a92:	e012      	b.n	8001aba <HAL_CAN_Init+0x62>
  {
    if ((HAL_GetTick() - tickstart) > CAN_TIMEOUT_VALUE)
 8001a94:	f7ff fbf8 	bl	8001288 <HAL_GetTick>
 8001a98:	4602      	mov	r2, r0
 8001a9a:	68fb      	ldr	r3, [r7, #12]
 8001a9c:	1ad3      	subs	r3, r2, r3
 8001a9e:	2b0a      	cmp	r3, #10
 8001aa0:	d90b      	bls.n	8001aba <HAL_CAN_Init+0x62>
    {
      /* Update error code */
      hcan->ErrorCode |= HAL_CAN_ERROR_TIMEOUT;
 8001aa2:	687b      	ldr	r3, [r7, #4]
 8001aa4:	6a5b      	ldr	r3, [r3, #36]	; 0x24
 8001aa6:	f443 3200 	orr.w	r2, r3, #131072	; 0x20000
 8001aaa:	687b      	ldr	r3, [r7, #4]
 8001aac:	625a      	str	r2, [r3, #36]	; 0x24

      /* Change CAN state */
      hcan->State = HAL_CAN_STATE_ERROR;
 8001aae:	687b      	ldr	r3, [r7, #4]
 8001ab0:	2205      	movs	r2, #5
 8001ab2:	f883 2020 	strb.w	r2, [r3, #32]

      return HAL_ERROR;
 8001ab6:	2301      	movs	r3, #1
 8001ab8:	e0c5      	b.n	8001c46 <HAL_CAN_Init+0x1ee>
  while ((hcan->Instance->MSR & CAN_MSR_SLAK) != 0U)
 8001aba:	687b      	ldr	r3, [r7, #4]
 8001abc:	681b      	ldr	r3, [r3, #0]
 8001abe:	685b      	ldr	r3, [r3, #4]
 8001ac0:	f003 0302 	and.w	r3, r3, #2
 8001ac4:	2b00      	cmp	r3, #0
 8001ac6:	d1e5      	bne.n	8001a94 <HAL_CAN_Init+0x3c>
    }
  }

  /* Request initialisation */
  SET_BIT(hcan->Instance->MCR, CAN_MCR_INRQ);
 8001ac8:	687b      	ldr	r3, [r7, #4]
 8001aca:	681b      	ldr	r3, [r3, #0]
 8001acc:	681a      	ldr	r2, [r3, #0]
 8001ace:	687b      	ldr	r3, [r7, #4]
 8001ad0:	681b      	ldr	r3, [r3, #0]
 8001ad2:	f042 0201 	orr.w	r2, r2, #1
 8001ad6:	601a      	str	r2, [r3, #0]

  /* Get tick */
  tickstart = HAL_GetTick();
 8001ad8:	f7ff fbd6 	bl	8001288 <HAL_GetTick>
 8001adc:	60f8      	str	r0, [r7, #12]

  /* Wait initialisation acknowledge */
  while ((hcan->Instance->MSR & CAN_MSR_INAK) == 0U)
 8001ade:	e012      	b.n	8001b06 <HAL_CAN_Init+0xae>
  {
    if ((HAL_GetTick() - tickstart) > CAN_TIMEOUT_VALUE)
 8001ae0:	f7ff fbd2 	bl	8001288 <HAL_GetTick>
 8001ae4:	4602      	mov	r2, r0
 8001ae6:	68fb      	ldr	r3, [r7, #12]
 8001ae8:	1ad3      	subs	r3, r2, r3
 8001aea:	2b0a      	cmp	r3, #10
 8001aec:	d90b      	bls.n	8001b06 <HAL_CAN_Init+0xae>
    {
      /* Update error code */
      hcan->ErrorCode |= HAL_CAN_ERROR_TIMEOUT;
 8001aee:	687b      	ldr	r3, [r7, #4]
 8001af0:	6a5b      	ldr	r3, [r3, #36]	; 0x24
 8001af2:	f443 3200 	orr.w	r2, r3, #131072	; 0x20000
 8001af6:	687b      	ldr	r3, [r7, #4]
 8001af8:	625a      	str	r2, [r3, #36]	; 0x24

      /* Change CAN state */
      hcan->State = HAL_CAN_STATE_ERROR;
 8001afa:	687b      	ldr	r3, [r7, #4]
 8001afc:	2205      	movs	r2, #5
 8001afe:	f883 2020 	strb.w	r2, [r3, #32]

      return HAL_ERROR;
 8001b02:	2301      	movs	r3, #1
 8001b04:	e09f      	b.n	8001c46 <HAL_CAN_Init+0x1ee>
  while ((hcan->Instance->MSR & CAN_MSR_INAK) == 0U)
 8001b06:	687b      	ldr	r3, [r7, #4]
 8001b08:	681b      	ldr	r3, [r3, #0]
 8001b0a:	685b      	ldr	r3, [r3, #4]
 8001b0c:	f003 0301 	and.w	r3, r3, #1
 8001b10:	2b00      	cmp	r3, #0
 8001b12:	d0e5      	beq.n	8001ae0 <HAL_CAN_Init+0x88>
    }
  }

  /* Set the time triggered communication mode */
  if (hcan->Init.TimeTriggeredMode == ENABLE)
 8001b14:	687b      	ldr	r3, [r7, #4]
 8001b16:	7e1b      	ldrb	r3, [r3, #24]
 8001b18:	2b01      	cmp	r3, #1
 8001b1a:	d108      	bne.n	8001b2e <HAL_CAN_Init+0xd6>
  {
    SET_BIT(hcan->Instance->MCR, CAN_MCR_TTCM);
 8001b1c:	687b      	ldr	r3, [r7, #4]
 8001b1e:	681b      	ldr	r3, [r3, #0]
 8001b20:	681a      	ldr	r2, [r3, #0]
 8001b22:	687b      	ldr	r3, [r7, #4]
 8001b24:	681b      	ldr	r3, [r3, #0]
 8001b26:	f042 0280 	orr.w	r2, r2, #128	; 0x80
 8001b2a:	601a      	str	r2, [r3, #0]
 8001b2c:	e007      	b.n	8001b3e <HAL_CAN_Init+0xe6>
  }
  else
  {
    CLEAR_BIT(hcan->Instance->MCR, CAN_MCR_TTCM);
 8001b2e:	687b      	ldr	r3, [r7, #4]
 8001b30:	681b      	ldr	r3, [r3, #0]
 8001b32:	681a      	ldr	r2, [r3, #0]
 8001b34:	687b      	ldr	r3, [r7, #4]
 8001b36:	681b      	ldr	r3, [r3, #0]
 8001b38:	f022 0280 	bic.w	r2, r2, #128	; 0x80
 8001b3c:	601a      	str	r2, [r3, #0]
  }

  /* Set the automatic bus-off management */
  if (hcan->Init.AutoBusOff == ENABLE)
 8001b3e:	687b      	ldr	r3, [r7, #4]
 8001b40:	7e5b      	ldrb	r3, [r3, #25]
 8001b42:	2b01      	cmp	r3, #1
 8001b44:	d108      	bne.n	8001b58 <HAL_CAN_Init+0x100>
  {
    SET_BIT(hcan->Instance->MCR, CAN_MCR_ABOM);
 8001b46:	687b      	ldr	r3, [r7, #4]
 8001b48:	681b      	ldr	r3, [r3, #0]
 8001b4a:	681a      	ldr	r2, [r3, #0]
 8001b4c:	687b      	ldr	r3, [r7, #4]
 8001b4e:	681b      	ldr	r3, [r3, #0]
 8001b50:	f042 0240 	orr.w	r2, r2, #64	; 0x40
 8001b54:	601a      	str	r2, [r3, #0]
 8001b56:	e007      	b.n	8001b68 <HAL_CAN_Init+0x110>
  }
  else
  {
    CLEAR_BIT(hcan->Instance->MCR, CAN_MCR_ABOM);
 8001b58:	687b      	ldr	r3, [r7, #4]
 8001b5a:	681b      	ldr	r3, [r3, #0]
 8001b5c:	681a      	ldr	r2, [r3, #0]
 8001b5e:	687b      	ldr	r3, [r7, #4]
 8001b60:	681b      	ldr	r3, [r3, #0]
 8001b62:	f022 0240 	bic.w	r2, r2, #64	; 0x40
 8001b66:	601a      	str	r2, [r3, #0]
  }

  /* Set the automatic wake-up mode */
  if (hcan->Init.AutoWakeUp == ENABLE)
 8001b68:	687b      	ldr	r3, [r7, #4]
 8001b6a:	7e9b      	ldrb	r3, [r3, #26]
 8001b6c:	2b01      	cmp	r3, #1
 8001b6e:	d108      	bne.n	8001b82 <HAL_CAN_Init+0x12a>
  {
    SET_BIT(hcan->Instance->MCR, CAN_MCR_AWUM);
 8001b70:	687b      	ldr	r3, [r7, #4]
 8001b72:	681b      	ldr	r3, [r3, #0]
 8001b74:	681a      	ldr	r2, [r3, #0]
 8001b76:	687b      	ldr	r3, [r7, #4]
 8001b78:	681b      	ldr	r3, [r3, #0]
 8001b7a:	f042 0220 	orr.w	r2, r2, #32
 8001b7e:	601a      	str	r2, [r3, #0]
 8001b80:	e007      	b.n	8001b92 <HAL_CAN_Init+0x13a>
  }
  else
  {
    CLEAR_BIT(hcan->Instance->MCR, CAN_MCR_AWUM);
 8001b82:	687b      	ldr	r3, [r7, #4]
 8001b84:	681b      	ldr	r3, [r3, #0]
 8001b86:	681a      	ldr	r2, [r3, #0]
 8001b88:	687b      	ldr	r3, [r7, #4]
 8001b8a:	681b      	ldr	r3, [r3, #0]
 8001b8c:	f022 0220 	bic.w	r2, r2, #32
 8001b90:	601a      	str	r2, [r3, #0]
  }

  /* Set the automatic retransmission */
  if (hcan->Init.AutoRetransmission == ENABLE)
 8001b92:	687b      	ldr	r3, [r7, #4]
 8001b94:	7edb      	ldrb	r3, [r3, #27]
 8001b96:	2b01      	cmp	r3, #1
 8001b98:	d108      	bne.n	8001bac <HAL_CAN_Init+0x154>
  {
    CLEAR_BIT(hcan->Instance->MCR, CAN_MCR_NART);
 8001b9a:	687b      	ldr	r3, [r7, #4]
 8001b9c:	681b      	ldr	r3, [r3, #0]
 8001b9e:	681a      	ldr	r2, [r3, #0]
 8001ba0:	687b      	ldr	r3, [r7, #4]
 8001ba2:	681b      	ldr	r3, [r3, #0]
 8001ba4:	f022 0210 	bic.w	r2, r2, #16
 8001ba8:	601a      	str	r2, [r3, #0]
 8001baa:	e007      	b.n	8001bbc <HAL_CAN_Init+0x164>
  }
  else
  {
    SET_BIT(hcan->Instance->MCR, CAN_MCR_NART);
 8001bac:	687b      	ldr	r3, [r7, #4]
 8001bae:	681b      	ldr	r3, [r3, #0]
 8001bb0:	681a      	ldr	r2, [r3, #0]
 8001bb2:	687b      	ldr	r3, [r7, #4]
 8001bb4:	681b      	ldr	r3, [r3, #0]
 8001bb6:	f042 0210 	orr.w	r2, r2, #16
 8001bba:	601a      	str	r2, [r3, #0]
  }

  /* Set the receive FIFO locked mode */
  if (hcan->Init.ReceiveFifoLocked == ENABLE)
 8001bbc:	687b      	ldr	r3, [r7, #4]
 8001bbe:	7f1b      	ldrb	r3, [r3, #28]
 8001bc0:	2b01      	cmp	r3, #1
 8001bc2:	d108      	bne.n	8001bd6 <HAL_CAN_Init+0x17e>
  {
    SET_BIT(hcan->Instance->MCR, CAN_MCR_RFLM);
 8001bc4:	687b      	ldr	r3, [r7, #4]
 8001bc6:	681b      	ldr	r3, [r3, #0]
 8001bc8:	681a      	ldr	r2, [r3, #0]
 8001bca:	687b      	ldr	r3, [r7, #4]
 8001bcc:	681b      	ldr	r3, [r3, #0]
 8001bce:	f042 0208 	orr.w	r2, r2, #8
 8001bd2:	601a      	str	r2, [r3, #0]
 8001bd4:	e007      	b.n	8001be6 <HAL_CAN_Init+0x18e>
  }
  else
  {
    CLEAR_BIT(hcan->Instance->MCR, CAN_MCR_RFLM);
 8001bd6:	687b      	ldr	r3, [r7, #4]
 8001bd8:	681b      	ldr	r3, [r3, #0]
 8001bda:	681a      	ldr	r2, [r3, #0]
 8001bdc:	687b      	ldr	r3, [r7, #4]
 8001bde:	681b      	ldr	r3, [r3, #0]
 8001be0:	f022 0208 	bic.w	r2, r2, #8
 8001be4:	601a      	str	r2, [r3, #0]
  }

  /* Set the transmit FIFO priority */
  if (hcan->Init.TransmitFifoPriority == ENABLE)
 8001be6:	687b      	ldr	r3, [r7, #4]
 8001be8:	7f5b      	ldrb	r3, [r3, #29]
 8001bea:	2b01      	cmp	r3, #1
 8001bec:	d108      	bne.n	8001c00 <HAL_CAN_Init+0x1a8>
  {
    SET_BIT(hcan->Instance->MCR, CAN_MCR_TXFP);
 8001bee:	687b      	ldr	r3, [r7, #4]
 8001bf0:	681b      	ldr	r3, [r3, #0]
 8001bf2:	681a      	ldr	r2, [r3, #0]
 8001bf4:	687b      	ldr	r3, [r7, #4]
 8001bf6:	681b      	ldr	r3, [r3, #0]
 8001bf8:	f042 0204 	orr.w	r2, r2, #4
 8001bfc:	601a      	str	r2, [r3, #0]
 8001bfe:	e007      	b.n	8001c10 <HAL_CAN_Init+0x1b8>
  }
  else
  {
    CLEAR_BIT(hcan->Instance->MCR, CAN_MCR_TXFP);
 8001c00:	687b      	ldr	r3, [r7, #4]
 8001c02:	681b      	ldr	r3, [r3, #0]
 8001c04:	681a      	ldr	r2, [r3, #0]
 8001c06:	687b      	ldr	r3, [r7, #4]
 8001c08:	681b      	ldr	r3, [r3, #0]
 8001c0a:	f022 0204 	bic.w	r2, r2, #4
 8001c0e:	601a      	str	r2, [r3, #0]
  }

  /* Set the bit timing register */
  WRITE_REG(hcan->Instance->BTR, (uint32_t)(hcan->Init.Mode           |
 8001c10:	687b      	ldr	r3, [r7, #4]
 8001c12:	689a      	ldr	r2, [r3, #8]
 8001c14:	687b      	ldr	r3, [r7, #4]
 8001c16:	68db      	ldr	r3, [r3, #12]
 8001c18:	431a      	orrs	r2, r3
 8001c1a:	687b      	ldr	r3, [r7, #4]
 8001c1c:	691b      	ldr	r3, [r3, #16]
 8001c1e:	431a      	orrs	r2, r3
 8001c20:	687b      	ldr	r3, [r7, #4]
 8001c22:	695b      	ldr	r3, [r3, #20]
 8001c24:	ea42 0103 	orr.w	r1, r2, r3
 8001c28:	687b      	ldr	r3, [r7, #4]
 8001c2a:	685b      	ldr	r3, [r3, #4]
 8001c2c:	1e5a      	subs	r2, r3, #1
 8001c2e:	687b      	ldr	r3, [r7, #4]
 8001c30:	681b      	ldr	r3, [r3, #0]
 8001c32:	430a      	orrs	r2, r1
 8001c34:	61da      	str	r2, [r3, #28]
                                            hcan->Init.TimeSeg1       |
                                            hcan->Init.TimeSeg2       |
                                            (hcan->Init.Prescaler - 1U)));

  /* Initialize the error code */
  hcan->ErrorCode = HAL_CAN_ERROR_NONE;
 8001c36:	687b      	ldr	r3, [r7, #4]
 8001c38:	2200      	movs	r2, #0
 8001c3a:	625a      	str	r2, [r3, #36]	; 0x24

  /* Initialize the CAN state */
  hcan->State = HAL_CAN_STATE_READY;
 8001c3c:	687b      	ldr	r3, [r7, #4]
 8001c3e:	2201      	movs	r2, #1
 8001c40:	f883 2020 	strb.w	r2, [r3, #32]

  /* Return function status */
  return HAL_OK;
 8001c44:	2300      	movs	r3, #0
}
 8001c46:	4618      	mov	r0, r3
 8001c48:	3710      	adds	r7, #16
 8001c4a:	46bd      	mov	sp, r7
 8001c4c:	bd80      	pop	{r7, pc}

08001c4e <HAL_CAN_ConfigFilter>:
  * @param  sFilterConfig pointer to a CAN_FilterTypeDef structure that
  *         contains the filter configuration information.
  * @retval None
  */
HAL_StatusTypeDef HAL_CAN_ConfigFilter(CAN_HandleTypeDef *hcan, CAN_FilterTypeDef *sFilterConfig)
{
 8001c4e:	b480      	push	{r7}
 8001c50:	b087      	sub	sp, #28
 8001c52:	af00      	add	r7, sp, #0
 8001c54:	6078      	str	r0, [r7, #4]
 8001c56:	6039      	str	r1, [r7, #0]
  uint32_t filternbrbitpos;
  CAN_TypeDef *can_ip = hcan->Instance;
 8001c58:	687b      	ldr	r3, [r7, #4]
 8001c5a:	681b      	ldr	r3, [r3, #0]
 8001c5c:	617b      	str	r3, [r7, #20]
  HAL_CAN_StateTypeDef state = hcan->State;
 8001c5e:	687b      	ldr	r3, [r7, #4]
 8001c60:	f893 3020 	ldrb.w	r3, [r3, #32]
 8001c64:	74fb      	strb	r3, [r7, #19]

  if ((state == HAL_CAN_STATE_READY) ||
 8001c66:	7cfb      	ldrb	r3, [r7, #19]
 8001c68:	2b01      	cmp	r3, #1
 8001c6a:	d003      	beq.n	8001c74 <HAL_CAN_ConfigFilter+0x26>
 8001c6c:	7cfb      	ldrb	r3, [r7, #19]
 8001c6e:	2b02      	cmp	r3, #2
 8001c70:	f040 80aa 	bne.w	8001dc8 <HAL_CAN_ConfigFilter+0x17a>
    /* Check the parameters */
    assert_param(IS_CAN_FILTER_BANK_SINGLE(sFilterConfig->FilterBank));
#endif

    /* Initialisation mode for the filter */
    SET_BIT(can_ip->FMR, CAN_FMR_FINIT);
 8001c74:	697b      	ldr	r3, [r7, #20]
 8001c76:	f8d3 3200 	ldr.w	r3, [r3, #512]	; 0x200
 8001c7a:	f043 0201 	orr.w	r2, r3, #1
 8001c7e:	697b      	ldr	r3, [r7, #20]
 8001c80:	f8c3 2200 	str.w	r2, [r3, #512]	; 0x200
    CLEAR_BIT(can_ip->FMR, CAN_FMR_CAN2SB);
    SET_BIT(can_ip->FMR, sFilterConfig->SlaveStartFilterBank << CAN_FMR_CAN2SB_Pos);

#endif
    /* Convert filter number into bit position */
    filternbrbitpos = (uint32_t)1 << (sFilterConfig->FilterBank & 0x1FU);
 8001c84:	683b      	ldr	r3, [r7, #0]
 8001c86:	695b      	ldr	r3, [r3, #20]
 8001c88:	f003 031f 	and.w	r3, r3, #31
 8001c8c:	2201      	movs	r2, #1
 8001c8e:	fa02 f303 	lsl.w	r3, r2, r3
 8001c92:	60fb      	str	r3, [r7, #12]

    /* Filter Deactivation */
    CLEAR_BIT(can_ip->FA1R, filternbrbitpos);
 8001c94:	697b      	ldr	r3, [r7, #20]
 8001c96:	f8d3 221c 	ldr.w	r2, [r3, #540]	; 0x21c
 8001c9a:	68fb      	ldr	r3, [r7, #12]
 8001c9c:	43db      	mvns	r3, r3
 8001c9e:	401a      	ands	r2, r3
 8001ca0:	697b      	ldr	r3, [r7, #20]
 8001ca2:	f8c3 221c 	str.w	r2, [r3, #540]	; 0x21c

    /* Filter Scale */
    if (sFilterConfig->FilterScale == CAN_FILTERSCALE_16BIT)
 8001ca6:	683b      	ldr	r3, [r7, #0]
 8001ca8:	69db      	ldr	r3, [r3, #28]
 8001caa:	2b00      	cmp	r3, #0
 8001cac:	d123      	bne.n	8001cf6 <HAL_CAN_ConfigFilter+0xa8>
    {
      /* 16-bit scale for the filter */
      CLEAR_BIT(can_ip->FS1R, filternbrbitpos);
 8001cae:	697b      	ldr	r3, [r7, #20]
 8001cb0:	f8d3 220c 	ldr.w	r2, [r3, #524]	; 0x20c
 8001cb4:	68fb      	ldr	r3, [r7, #12]
 8001cb6:	43db      	mvns	r3, r3
 8001cb8:	401a      	ands	r2, r3
 8001cba:	697b      	ldr	r3, [r7, #20]
 8001cbc:	f8c3 220c 	str.w	r2, [r3, #524]	; 0x20c

      /* First 16-bit identifier and First 16-bit mask */
      /* Or First 16-bit identifier and Second 16-bit identifier */
      can_ip->sFilterRegister[sFilterConfig->FilterBank].FR1 =
        ((0x0000FFFFU & (uint32_t)sFilterConfig->FilterMaskIdLow) << 16U) |
 8001cc0:	683b      	ldr	r3, [r7, #0]
 8001cc2:	68db      	ldr	r3, [r3, #12]
 8001cc4:	0419      	lsls	r1, r3, #16
        (0x0000FFFFU & (uint32_t)sFilterConfig->FilterIdLow);
 8001cc6:	683b      	ldr	r3, [r7, #0]
 8001cc8:	685b      	ldr	r3, [r3, #4]
 8001cca:	b29b      	uxth	r3, r3
      can_ip->sFilterRegister[sFilterConfig->FilterBank].FR1 =
 8001ccc:	683a      	ldr	r2, [r7, #0]
 8001cce:	6952      	ldr	r2, [r2, #20]
        ((0x0000FFFFU & (uint32_t)sFilterConfig->FilterMaskIdLow) << 16U) |
 8001cd0:	4319      	orrs	r1, r3
      can_ip->sFilterRegister[sFilterConfig->FilterBank].FR1 =
 8001cd2:	697b      	ldr	r3, [r7, #20]
 8001cd4:	3248      	adds	r2, #72	; 0x48
 8001cd6:	f843 1032 	str.w	r1, [r3, r2, lsl #3]

      /* Second 16-bit identifier and Second 16-bit mask */
      /* Or Third 16-bit identifier and Fourth 16-bit identifier */
      can_ip->sFilterRegister[sFilterConfig->FilterBank].FR2 =
        ((0x0000FFFFU & (uint32_t)sFilterConfig->FilterMaskIdHigh) << 16U) |
 8001cda:	683b      	ldr	r3, [r7, #0]
 8001cdc:	689b      	ldr	r3, [r3, #8]
 8001cde:	0419      	lsls	r1, r3, #16
        (0x0000FFFFU & (uint32_t)sFilterConfig->FilterIdHigh);
 8001ce0:	683b      	ldr	r3, [r7, #0]
 8001ce2:	681b      	ldr	r3, [r3, #0]
 8001ce4:	b29a      	uxth	r2, r3
      can_ip->sFilterRegister[sFilterConfig->FilterBank].FR2 =
 8001ce6:	683b      	ldr	r3, [r7, #0]
 8001ce8:	695b      	ldr	r3, [r3, #20]
        ((0x0000FFFFU & (uint32_t)sFilterConfig->FilterMaskIdHigh) << 16U) |
 8001cea:	430a      	orrs	r2, r1
      can_ip->sFilterRegister[sFilterConfig->FilterBank].FR2 =
 8001cec:	6979      	ldr	r1, [r7, #20]
 8001cee:	3348      	adds	r3, #72	; 0x48
 8001cf0:	00db      	lsls	r3, r3, #3
 8001cf2:	440b      	add	r3, r1
 8001cf4:	605a      	str	r2, [r3, #4]
    }

    if (sFilterConfig->FilterScale == CAN_FILTERSCALE_32BIT)
 8001cf6:	683b      	ldr	r3, [r7, #0]
 8001cf8:	69db      	ldr	r3, [r3, #28]
 8001cfa:	2b01      	cmp	r3, #1
 8001cfc:	d122      	bne.n	8001d44 <HAL_CAN_ConfigFilter+0xf6>
    {
      /* 32-bit scale for the filter */
      SET_BIT(can_ip->FS1R, filternbrbitpos);
 8001cfe:	697b      	ldr	r3, [r7, #20]
 8001d00:	f8d3 220c 	ldr.w	r2, [r3, #524]	; 0x20c
 8001d04:	68fb      	ldr	r3, [r7, #12]
 8001d06:	431a      	orrs	r2, r3
 8001d08:	697b      	ldr	r3, [r7, #20]
 8001d0a:	f8c3 220c 	str.w	r2, [r3, #524]	; 0x20c

      /* 32-bit identifier or First 32-bit identifier */
      can_ip->sFilterRegister[sFilterConfig->FilterBank].FR1 =
        ((0x0000FFFFU & (uint32_t)sFilterConfig->FilterIdHigh) << 16U) |
 8001d0e:	683b      	ldr	r3, [r7, #0]
 8001d10:	681b      	ldr	r3, [r3, #0]
 8001d12:	0419      	lsls	r1, r3, #16
        (0x0000FFFFU & (uint32_t)sFilterConfig->FilterIdLow);
 8001d14:	683b      	ldr	r3, [r7, #0]
 8001d16:	685b      	ldr	r3, [r3, #4]
 8001d18:	b29b      	uxth	r3, r3
      can_ip->sFilterRegister[sFilterConfig->FilterBank].FR1 =
 8001d1a:	683a      	ldr	r2, [r7, #0]
 8001d1c:	6952      	ldr	r2, [r2, #20]
        ((0x0000FFFFU & (uint32_t)sFilterConfig->FilterIdHigh) << 16U) |
 8001d1e:	4319      	orrs	r1, r3
      can_ip->sFilterRegister[sFilterConfig->FilterBank].FR1 =
 8001d20:	697b      	ldr	r3, [r7, #20]
 8001d22:	3248      	adds	r2, #72	; 0x48
 8001d24:	f843 1032 	str.w	r1, [r3, r2, lsl #3]

      /* 32-bit mask or Second 32-bit identifier */
      can_ip->sFilterRegister[sFilterConfig->FilterBank].FR2 =
        ((0x0000FFFFU & (uint32_t)sFilterConfig->FilterMaskIdHigh) << 16U) |
 8001d28:	683b      	ldr	r3, [r7, #0]
 8001d2a:	689b      	ldr	r3, [r3, #8]
 8001d2c:	0419      	lsls	r1, r3, #16
        (0x0000FFFFU & (uint32_t)sFilterConfig->FilterMaskIdLow);
 8001d2e:	683b      	ldr	r3, [r7, #0]
 8001d30:	68db      	ldr	r3, [r3, #12]
 8001d32:	b29a      	uxth	r2, r3
      can_ip->sFilterRegister[sFilterConfig->FilterBank].FR2 =
 8001d34:	683b      	ldr	r3, [r7, #0]
 8001d36:	695b      	ldr	r3, [r3, #20]
        ((0x0000FFFFU & (uint32_t)sFilterConfig->FilterMaskIdHigh) << 16U) |
 8001d38:	430a      	orrs	r2, r1
      can_ip->sFilterRegister[sFilterConfig->FilterBank].FR2 =
 8001d3a:	6979      	ldr	r1, [r7, #20]
 8001d3c:	3348      	adds	r3, #72	; 0x48
 8001d3e:	00db      	lsls	r3, r3, #3
 8001d40:	440b      	add	r3, r1
 8001d42:	605a      	str	r2, [r3, #4]
    }

    /* Filter Mode */
    if (sFilterConfig->FilterMode == CAN_FILTERMODE_IDMASK)
 8001d44:	683b      	ldr	r3, [r7, #0]
 8001d46:	699b      	ldr	r3, [r3, #24]
 8001d48:	2b00      	cmp	r3, #0
 8001d4a:	d109      	bne.n	8001d60 <HAL_CAN_ConfigFilter+0x112>
    {
      /* Id/Mask mode for the filter*/
      CLEAR_BIT(can_ip->FM1R, filternbrbitpos);
 8001d4c:	697b      	ldr	r3, [r7, #20]
 8001d4e:	f8d3 2204 	ldr.w	r2, [r3, #516]	; 0x204
 8001d52:	68fb      	ldr	r3, [r7, #12]
 8001d54:	43db      	mvns	r3, r3
 8001d56:	401a      	ands	r2, r3
 8001d58:	697b      	ldr	r3, [r7, #20]
 8001d5a:	f8c3 2204 	str.w	r2, [r3, #516]	; 0x204
 8001d5e:	e007      	b.n	8001d70 <HAL_CAN_ConfigFilter+0x122>
    }
    else /* CAN_FilterInitStruct->CAN_FilterMode == CAN_FilterMode_IdList */
    {
      /* Identifier list mode for the filter*/
      SET_BIT(can_ip->FM1R, filternbrbitpos);
 8001d60:	697b      	ldr	r3, [r7, #20]
 8001d62:	f8d3 2204 	ldr.w	r2, [r3, #516]	; 0x204
 8001d66:	68fb      	ldr	r3, [r7, #12]
 8001d68:	431a      	orrs	r2, r3
 8001d6a:	697b      	ldr	r3, [r7, #20]
 8001d6c:	f8c3 2204 	str.w	r2, [r3, #516]	; 0x204
    }

    /* Filter FIFO assignment */
    if (sFilterConfig->FilterFIFOAssignment == CAN_FILTER_FIFO0)
 8001d70:	683b      	ldr	r3, [r7, #0]
 8001d72:	691b      	ldr	r3, [r3, #16]
 8001d74:	2b00      	cmp	r3, #0
 8001d76:	d109      	bne.n	8001d8c <HAL_CAN_ConfigFilter+0x13e>
    {
      /* FIFO 0 assignation for the filter */
      CLEAR_BIT(can_ip->FFA1R, filternbrbitpos);
 8001d78:	697b      	ldr	r3, [r7, #20]
 8001d7a:	f8d3 2214 	ldr.w	r2, [r3, #532]	; 0x214
 8001d7e:	68fb      	ldr	r3, [r7, #12]
 8001d80:	43db      	mvns	r3, r3
 8001d82:	401a      	ands	r2, r3
 8001d84:	697b      	ldr	r3, [r7, #20]
 8001d86:	f8c3 2214 	str.w	r2, [r3, #532]	; 0x214
 8001d8a:	e007      	b.n	8001d9c <HAL_CAN_ConfigFilter+0x14e>
    }
    else
    {
      /* FIFO 1 assignation for the filter */
      SET_BIT(can_ip->FFA1R, filternbrbitpos);
 8001d8c:	697b      	ldr	r3, [r7, #20]
 8001d8e:	f8d3 2214 	ldr.w	r2, [r3, #532]	; 0x214
 8001d92:	68fb      	ldr	r3, [r7, #12]
 8001d94:	431a      	orrs	r2, r3
 8001d96:	697b      	ldr	r3, [r7, #20]
 8001d98:	f8c3 2214 	str.w	r2, [r3, #532]	; 0x214
    }

    /* Filter activation */
    if (sFilterConfig->FilterActivation == CAN_FILTER_ENABLE)
 8001d9c:	683b      	ldr	r3, [r7, #0]
 8001d9e:	6a1b      	ldr	r3, [r3, #32]
 8001da0:	2b01      	cmp	r3, #1
 8001da2:	d107      	bne.n	8001db4 <HAL_CAN_ConfigFilter+0x166>
    {
      SET_BIT(can_ip->FA1R, filternbrbitpos);
 8001da4:	697b      	ldr	r3, [r7, #20]
 8001da6:	f8d3 221c 	ldr.w	r2, [r3, #540]	; 0x21c
 8001daa:	68fb      	ldr	r3, [r7, #12]
 8001dac:	431a      	orrs	r2, r3
 8001dae:	697b      	ldr	r3, [r7, #20]
 8001db0:	f8c3 221c 	str.w	r2, [r3, #540]	; 0x21c
    }

    /* Leave the initialisation mode for the filter */
    CLEAR_BIT(can_ip->FMR, CAN_FMR_FINIT);
 8001db4:	697b      	ldr	r3, [r7, #20]
 8001db6:	f8d3 3200 	ldr.w	r3, [r3, #512]	; 0x200
 8001dba:	f023 0201 	bic.w	r2, r3, #1
 8001dbe:	697b      	ldr	r3, [r7, #20]
 8001dc0:	f8c3 2200 	str.w	r2, [r3, #512]	; 0x200

    /* Return function status */
    return HAL_OK;
 8001dc4:	2300      	movs	r3, #0
 8001dc6:	e006      	b.n	8001dd6 <HAL_CAN_ConfigFilter+0x188>
  }
  else
  {
    /* Update error code */
    hcan->ErrorCode |= HAL_CAN_ERROR_NOT_INITIALIZED;
 8001dc8:	687b      	ldr	r3, [r7, #4]
 8001dca:	6a5b      	ldr	r3, [r3, #36]	; 0x24
 8001dcc:	f443 2280 	orr.w	r2, r3, #262144	; 0x40000
 8001dd0:	687b      	ldr	r3, [r7, #4]
 8001dd2:	625a      	str	r2, [r3, #36]	; 0x24

    return HAL_ERROR;
 8001dd4:	2301      	movs	r3, #1
  }
}
 8001dd6:	4618      	mov	r0, r3
 8001dd8:	371c      	adds	r7, #28
 8001dda:	46bd      	mov	sp, r7
 8001ddc:	bc80      	pop	{r7}
 8001dde:	4770      	bx	lr

08001de0 <HAL_CAN_Start>:
  * @param  hcan pointer to an CAN_HandleTypeDef structure that contains
  *         the configuration information for the specified CAN.
  * @retval HAL status
  */
HAL_StatusTypeDef HAL_CAN_Start(CAN_HandleTypeDef *hcan)
{
 8001de0:	b580      	push	{r7, lr}
 8001de2:	b084      	sub	sp, #16
 8001de4:	af00      	add	r7, sp, #0
 8001de6:	6078      	str	r0, [r7, #4]
  uint32_t tickstart;

  if (hcan->State == HAL_CAN_STATE_READY)
 8001de8:	687b      	ldr	r3, [r7, #4]
 8001dea:	f893 3020 	ldrb.w	r3, [r3, #32]
 8001dee:	b2db      	uxtb	r3, r3
 8001df0:	2b01      	cmp	r3, #1
 8001df2:	d12e      	bne.n	8001e52 <HAL_CAN_Start+0x72>
  {
    /* Change CAN peripheral state */
    hcan->State = HAL_CAN_STATE_LISTENING;
 8001df4:	687b      	ldr	r3, [r7, #4]
 8001df6:	2202      	movs	r2, #2
 8001df8:	f883 2020 	strb.w	r2, [r3, #32]

    /* Request leave initialisation */
    CLEAR_BIT(hcan->Instance->MCR, CAN_MCR_INRQ);
 8001dfc:	687b      	ldr	r3, [r7, #4]
 8001dfe:	681b      	ldr	r3, [r3, #0]
 8001e00:	681a      	ldr	r2, [r3, #0]
 8001e02:	687b      	ldr	r3, [r7, #4]
 8001e04:	681b      	ldr	r3, [r3, #0]
 8001e06:	f022 0201 	bic.w	r2, r2, #1
 8001e0a:	601a      	str	r2, [r3, #0]

    /* Get tick */
    tickstart = HAL_GetTick();
 8001e0c:	f7ff fa3c 	bl	8001288 <HAL_GetTick>
 8001e10:	60f8      	str	r0, [r7, #12]

    /* Wait the acknowledge */
    while ((hcan->Instance->MSR & CAN_MSR_INAK) != 0U)
 8001e12:	e012      	b.n	8001e3a <HAL_CAN_Start+0x5a>
    {
      /* Check for the Timeout */
      if ((HAL_GetTick() - tickstart) > CAN_TIMEOUT_VALUE)
 8001e14:	f7ff fa38 	bl	8001288 <HAL_GetTick>
 8001e18:	4602      	mov	r2, r0
 8001e1a:	68fb      	ldr	r3, [r7, #12]
 8001e1c:	1ad3      	subs	r3, r2, r3
 8001e1e:	2b0a      	cmp	r3, #10
 8001e20:	d90b      	bls.n	8001e3a <HAL_CAN_Start+0x5a>
      {
        /* Update error code */
        hcan->ErrorCode |= HAL_CAN_ERROR_TIMEOUT;
 8001e22:	687b      	ldr	r3, [r7, #4]
 8001e24:	6a5b      	ldr	r3, [r3, #36]	; 0x24
 8001e26:	f443 3200 	orr.w	r2, r3, #131072	; 0x20000
 8001e2a:	687b      	ldr	r3, [r7, #4]
 8001e2c:	625a      	str	r2, [r3, #36]	; 0x24

        /* Change CAN state */
        hcan->State = HAL_CAN_STATE_ERROR;
 8001e2e:	687b      	ldr	r3, [r7, #4]
 8001e30:	2205      	movs	r2, #5
 8001e32:	f883 2020 	strb.w	r2, [r3, #32]

        return HAL_ERROR;
 8001e36:	2301      	movs	r3, #1
 8001e38:	e012      	b.n	8001e60 <HAL_CAN_Start+0x80>
    while ((hcan->Instance->MSR & CAN_MSR_INAK) != 0U)
 8001e3a:	687b      	ldr	r3, [r7, #4]
 8001e3c:	681b      	ldr	r3, [r3, #0]
 8001e3e:	685b      	ldr	r3, [r3, #4]
 8001e40:	f003 0301 	and.w	r3, r3, #1
 8001e44:	2b00      	cmp	r3, #0
 8001e46:	d1e5      	bne.n	8001e14 <HAL_CAN_Start+0x34>
      }
    }

    /* Reset the CAN ErrorCode */
    hcan->ErrorCode = HAL_CAN_ERROR_NONE;
 8001e48:	687b      	ldr	r3, [r7, #4]
 8001e4a:	2200      	movs	r2, #0
 8001e4c:	625a      	str	r2, [r3, #36]	; 0x24

    /* Return function status */
    return HAL_OK;
 8001e4e:	2300      	movs	r3, #0
 8001e50:	e006      	b.n	8001e60 <HAL_CAN_Start+0x80>
  }
  else
  {
    /* Update error code */
    hcan->ErrorCode |= HAL_CAN_ERROR_NOT_READY;
 8001e52:	687b      	ldr	r3, [r7, #4]
 8001e54:	6a5b      	ldr	r3, [r3, #36]	; 0x24
 8001e56:	f443 2200 	orr.w	r2, r3, #524288	; 0x80000
 8001e5a:	687b      	ldr	r3, [r7, #4]
 8001e5c:	625a      	str	r2, [r3, #36]	; 0x24

    return HAL_ERROR;
 8001e5e:	2301      	movs	r3, #1
  }
}
 8001e60:	4618      	mov	r0, r3
 8001e62:	3710      	adds	r7, #16
 8001e64:	46bd      	mov	sp, r7
 8001e66:	bd80      	pop	{r7, pc}

08001e68 <HAL_CAN_AddTxMessage>:
  *         the TxMailbox used to store the Tx message.
  *         This parameter can be a value of @arg CAN_Tx_Mailboxes.
  * @retval HAL status
  */
HAL_StatusTypeDef HAL_CAN_AddTxMessage(CAN_HandleTypeDef *hcan, CAN_TxHeaderTypeDef *pHeader, uint8_t aData[], uint32_t *pTxMailbox)
{
 8001e68:	b480      	push	{r7}
 8001e6a:	b089      	sub	sp, #36	; 0x24
 8001e6c:	af00      	add	r7, sp, #0
 8001e6e:	60f8      	str	r0, [r7, #12]
 8001e70:	60b9      	str	r1, [r7, #8]
 8001e72:	607a      	str	r2, [r7, #4]
 8001e74:	603b      	str	r3, [r7, #0]
  uint32_t transmitmailbox;
  HAL_CAN_StateTypeDef state = hcan->State;
 8001e76:	68fb      	ldr	r3, [r7, #12]
 8001e78:	f893 3020 	ldrb.w	r3, [r3, #32]
 8001e7c:	77fb      	strb	r3, [r7, #31]
  uint32_t tsr = READ_REG(hcan->Instance->TSR);
 8001e7e:	68fb      	ldr	r3, [r7, #12]
 8001e80:	681b      	ldr	r3, [r3, #0]
 8001e82:	689b      	ldr	r3, [r3, #8]
 8001e84:	61bb      	str	r3, [r7, #24]
  {
    assert_param(IS_CAN_EXTID(pHeader->ExtId));
  }
  assert_param(IS_FUNCTIONAL_STATE(pHeader->TransmitGlobalTime));

  if ((state == HAL_CAN_STATE_READY) ||
 8001e86:	7ffb      	ldrb	r3, [r7, #31]
 8001e88:	2b01      	cmp	r3, #1
 8001e8a:	d003      	beq.n	8001e94 <HAL_CAN_AddTxMessage+0x2c>
 8001e8c:	7ffb      	ldrb	r3, [r7, #31]
 8001e8e:	2b02      	cmp	r3, #2
 8001e90:	f040 80b8 	bne.w	8002004 <HAL_CAN_AddTxMessage+0x19c>
      (state == HAL_CAN_STATE_LISTENING))
  {
    /* Check that all the Tx mailboxes are not full */
    if (((tsr & CAN_TSR_TME0) != 0U) ||
 8001e94:	69bb      	ldr	r3, [r7, #24]
 8001e96:	f003 6380 	and.w	r3, r3, #67108864	; 0x4000000
 8001e9a:	2b00      	cmp	r3, #0
 8001e9c:	d10a      	bne.n	8001eb4 <HAL_CAN_AddTxMessage+0x4c>
        ((tsr & CAN_TSR_TME1) != 0U) ||
 8001e9e:	69bb      	ldr	r3, [r7, #24]
 8001ea0:	f003 6300 	and.w	r3, r3, #134217728	; 0x8000000
    if (((tsr & CAN_TSR_TME0) != 0U) ||
 8001ea4:	2b00      	cmp	r3, #0
 8001ea6:	d105      	bne.n	8001eb4 <HAL_CAN_AddTxMessage+0x4c>
        ((tsr & CAN_TSR_TME2) != 0U))
 8001ea8:	69bb      	ldr	r3, [r7, #24]
 8001eaa:	f003 5380 	and.w	r3, r3, #268435456	; 0x10000000
        ((tsr & CAN_TSR_TME1) != 0U) ||
 8001eae:	2b00      	cmp	r3, #0
 8001eb0:	f000 80a0 	beq.w	8001ff4 <HAL_CAN_AddTxMessage+0x18c>
    {
      /* Select an empty transmit mailbox */
      transmitmailbox = (tsr & CAN_TSR_CODE) >> CAN_TSR_CODE_Pos;
 8001eb4:	69bb      	ldr	r3, [r7, #24]
 8001eb6:	0e1b      	lsrs	r3, r3, #24
 8001eb8:	f003 0303 	and.w	r3, r3, #3
 8001ebc:	617b      	str	r3, [r7, #20]

      /* Check transmit mailbox value */
      if (transmitmailbox > 2U)
 8001ebe:	697b      	ldr	r3, [r7, #20]
 8001ec0:	2b02      	cmp	r3, #2
 8001ec2:	d907      	bls.n	8001ed4 <HAL_CAN_AddTxMessage+0x6c>
      {
        /* Update error code */
        hcan->ErrorCode |= HAL_CAN_ERROR_INTERNAL;
 8001ec4:	68fb      	ldr	r3, [r7, #12]
 8001ec6:	6a5b      	ldr	r3, [r3, #36]	; 0x24
 8001ec8:	f443 0200 	orr.w	r2, r3, #8388608	; 0x800000
 8001ecc:	68fb      	ldr	r3, [r7, #12]
 8001ece:	625a      	str	r2, [r3, #36]	; 0x24

        return HAL_ERROR;
 8001ed0:	2301      	movs	r3, #1
 8001ed2:	e09e      	b.n	8002012 <HAL_CAN_AddTxMessage+0x1aa>
      }

      /* Store the Tx mailbox */
      *pTxMailbox = (uint32_t)1 << transmitmailbox;
 8001ed4:	2201      	movs	r2, #1
 8001ed6:	697b      	ldr	r3, [r7, #20]
 8001ed8:	409a      	lsls	r2, r3
 8001eda:	683b      	ldr	r3, [r7, #0]
 8001edc:	601a      	str	r2, [r3, #0]

      /* Set up the Id */
      if (pHeader->IDE == CAN_ID_STD)
 8001ede:	68bb      	ldr	r3, [r7, #8]
 8001ee0:	689b      	ldr	r3, [r3, #8]
 8001ee2:	2b00      	cmp	r3, #0
 8001ee4:	d10d      	bne.n	8001f02 <HAL_CAN_AddTxMessage+0x9a>
      {
        hcan->Instance->sTxMailBox[transmitmailbox].TIR = ((pHeader->StdId << CAN_TI0R_STID_Pos) |
 8001ee6:	68bb      	ldr	r3, [r7, #8]
 8001ee8:	681b      	ldr	r3, [r3, #0]
 8001eea:	055a      	lsls	r2, r3, #21
                                                           pHeader->RTR);
 8001eec:	68bb      	ldr	r3, [r7, #8]
 8001eee:	68db      	ldr	r3, [r3, #12]
        hcan->Instance->sTxMailBox[transmitmailbox].TIR = ((pHeader->StdId << CAN_TI0R_STID_Pos) |
 8001ef0:	68f9      	ldr	r1, [r7, #12]
 8001ef2:	6809      	ldr	r1, [r1, #0]
 8001ef4:	431a      	orrs	r2, r3
 8001ef6:	697b      	ldr	r3, [r7, #20]
 8001ef8:	3318      	adds	r3, #24
 8001efa:	011b      	lsls	r3, r3, #4
 8001efc:	440b      	add	r3, r1
 8001efe:	601a      	str	r2, [r3, #0]
 8001f00:	e00f      	b.n	8001f22 <HAL_CAN_AddTxMessage+0xba>
      }
      else
      {
        hcan->Instance->sTxMailBox[transmitmailbox].TIR = ((pHeader->ExtId << CAN_TI0R_EXID_Pos) |
 8001f02:	68bb      	ldr	r3, [r7, #8]
 8001f04:	685b      	ldr	r3, [r3, #4]
 8001f06:	00da      	lsls	r2, r3, #3
                                                           pHeader->IDE |
 8001f08:	68bb      	ldr	r3, [r7, #8]
 8001f0a:	689b      	ldr	r3, [r3, #8]
        hcan->Instance->sTxMailBox[transmitmailbox].TIR = ((pHeader->ExtId << CAN_TI0R_EXID_Pos) |
 8001f0c:	431a      	orrs	r2, r3
                                                           pHeader->RTR);
 8001f0e:	68bb      	ldr	r3, [r7, #8]
 8001f10:	68db      	ldr	r3, [r3, #12]
        hcan->Instance->sTxMailBox[transmitmailbox].TIR = ((pHeader->ExtId << CAN_TI0R_EXID_Pos) |
 8001f12:	68f9      	ldr	r1, [r7, #12]
 8001f14:	6809      	ldr	r1, [r1, #0]
                                                           pHeader->IDE |
 8001f16:	431a      	orrs	r2, r3
        hcan->Instance->sTxMailBox[transmitmailbox].TIR = ((pHeader->ExtId << CAN_TI0R_EXID_Pos) |
 8001f18:	697b      	ldr	r3, [r7, #20]
 8001f1a:	3318      	adds	r3, #24
 8001f1c:	011b      	lsls	r3, r3, #4
 8001f1e:	440b      	add	r3, r1
 8001f20:	601a      	str	r2, [r3, #0]
      }

      /* Set up the DLC */
      hcan->Instance->sTxMailBox[transmitmailbox].TDTR = (pHeader->DLC);
 8001f22:	68fb      	ldr	r3, [r7, #12]
 8001f24:	6819      	ldr	r1, [r3, #0]
 8001f26:	68bb      	ldr	r3, [r7, #8]
 8001f28:	691a      	ldr	r2, [r3, #16]
 8001f2a:	697b      	ldr	r3, [r7, #20]
 8001f2c:	3318      	adds	r3, #24
 8001f2e:	011b      	lsls	r3, r3, #4
 8001f30:	440b      	add	r3, r1
 8001f32:	3304      	adds	r3, #4
 8001f34:	601a      	str	r2, [r3, #0]

      /* Set up the Transmit Global Time mode */
      if (pHeader->TransmitGlobalTime == ENABLE)
 8001f36:	68bb      	ldr	r3, [r7, #8]
 8001f38:	7d1b      	ldrb	r3, [r3, #20]
 8001f3a:	2b01      	cmp	r3, #1
 8001f3c:	d111      	bne.n	8001f62 <HAL_CAN_AddTxMessage+0xfa>
      {
        SET_BIT(hcan->Instance->sTxMailBox[transmitmailbox].TDTR, CAN_TDT0R_TGT);
 8001f3e:	68fb      	ldr	r3, [r7, #12]
 8001f40:	681a      	ldr	r2, [r3, #0]
 8001f42:	697b      	ldr	r3, [r7, #20]
 8001f44:	3318      	adds	r3, #24
 8001f46:	011b      	lsls	r3, r3, #4
 8001f48:	4413      	add	r3, r2
 8001f4a:	3304      	adds	r3, #4
 8001f4c:	681b      	ldr	r3, [r3, #0]
 8001f4e:	68fa      	ldr	r2, [r7, #12]
 8001f50:	6811      	ldr	r1, [r2, #0]
 8001f52:	f443 7280 	orr.w	r2, r3, #256	; 0x100
 8001f56:	697b      	ldr	r3, [r7, #20]
 8001f58:	3318      	adds	r3, #24
 8001f5a:	011b      	lsls	r3, r3, #4
 8001f5c:	440b      	add	r3, r1
 8001f5e:	3304      	adds	r3, #4
 8001f60:	601a      	str	r2, [r3, #0]
      }

      /* Set up the data field */
      WRITE_REG(hcan->Instance->sTxMailBox[transmitmailbox].TDHR,
 8001f62:	687b      	ldr	r3, [r7, #4]
 8001f64:	3307      	adds	r3, #7
 8001f66:	781b      	ldrb	r3, [r3, #0]
 8001f68:	061a      	lsls	r2, r3, #24
 8001f6a:	687b      	ldr	r3, [r7, #4]
 8001f6c:	3306      	adds	r3, #6
 8001f6e:	781b      	ldrb	r3, [r3, #0]
 8001f70:	041b      	lsls	r3, r3, #16
 8001f72:	431a      	orrs	r2, r3
 8001f74:	687b      	ldr	r3, [r7, #4]
 8001f76:	3305      	adds	r3, #5
 8001f78:	781b      	ldrb	r3, [r3, #0]
 8001f7a:	021b      	lsls	r3, r3, #8
 8001f7c:	4313      	orrs	r3, r2
 8001f7e:	687a      	ldr	r2, [r7, #4]
 8001f80:	3204      	adds	r2, #4
 8001f82:	7812      	ldrb	r2, [r2, #0]
 8001f84:	4610      	mov	r0, r2
 8001f86:	68fa      	ldr	r2, [r7, #12]
 8001f88:	6811      	ldr	r1, [r2, #0]
 8001f8a:	ea43 0200 	orr.w	r2, r3, r0
 8001f8e:	697b      	ldr	r3, [r7, #20]
 8001f90:	011b      	lsls	r3, r3, #4
 8001f92:	440b      	add	r3, r1
 8001f94:	f503 73c6 	add.w	r3, r3, #396	; 0x18c
 8001f98:	601a      	str	r2, [r3, #0]
                ((uint32_t)aData[7] << CAN_TDH0R_DATA7_Pos) |
                ((uint32_t)aData[6] << CAN_TDH0R_DATA6_Pos) |
                ((uint32_t)aData[5] << CAN_TDH0R_DATA5_Pos) |
                ((uint32_t)aData[4] << CAN_TDH0R_DATA4_Pos));
      WRITE_REG(hcan->Instance->sTxMailBox[transmitmailbox].TDLR,
 8001f9a:	687b      	ldr	r3, [r7, #4]
 8001f9c:	3303      	adds	r3, #3
 8001f9e:	781b      	ldrb	r3, [r3, #0]
 8001fa0:	061a      	lsls	r2, r3, #24
 8001fa2:	687b      	ldr	r3, [r7, #4]
 8001fa4:	3302      	adds	r3, #2
 8001fa6:	781b      	ldrb	r3, [r3, #0]
 8001fa8:	041b      	lsls	r3, r3, #16
 8001faa:	431a      	orrs	r2, r3
 8001fac:	687b      	ldr	r3, [r7, #4]
 8001fae:	3301      	adds	r3, #1
 8001fb0:	781b      	ldrb	r3, [r3, #0]
 8001fb2:	021b      	lsls	r3, r3, #8
 8001fb4:	4313      	orrs	r3, r2
 8001fb6:	687a      	ldr	r2, [r7, #4]
 8001fb8:	7812      	ldrb	r2, [r2, #0]
 8001fba:	4610      	mov	r0, r2
 8001fbc:	68fa      	ldr	r2, [r7, #12]
 8001fbe:	6811      	ldr	r1, [r2, #0]
 8001fc0:	ea43 0200 	orr.w	r2, r3, r0
 8001fc4:	697b      	ldr	r3, [r7, #20]
 8001fc6:	011b      	lsls	r3, r3, #4
 8001fc8:	440b      	add	r3, r1
 8001fca:	f503 73c4 	add.w	r3, r3, #392	; 0x188
 8001fce:	601a      	str	r2, [r3, #0]
                ((uint32_t)aData[2] << CAN_TDL0R_DATA2_Pos) |
                ((uint32_t)aData[1] << CAN_TDL0R_DATA1_Pos) |
                ((uint32_t)aData[0] << CAN_TDL0R_DATA0_Pos));

      /* Request transmission */
      SET_BIT(hcan->Instance->sTxMailBox[transmitmailbox].TIR, CAN_TI0R_TXRQ);
 8001fd0:	68fb      	ldr	r3, [r7, #12]
 8001fd2:	681a      	ldr	r2, [r3, #0]
 8001fd4:	697b      	ldr	r3, [r7, #20]
 8001fd6:	3318      	adds	r3, #24
 8001fd8:	011b      	lsls	r3, r3, #4
 8001fda:	4413      	add	r3, r2
 8001fdc:	681b      	ldr	r3, [r3, #0]
 8001fde:	68fa      	ldr	r2, [r7, #12]
 8001fe0:	6811      	ldr	r1, [r2, #0]
 8001fe2:	f043 0201 	orr.w	r2, r3, #1
 8001fe6:	697b      	ldr	r3, [r7, #20]
 8001fe8:	3318      	adds	r3, #24
 8001fea:	011b      	lsls	r3, r3, #4
 8001fec:	440b      	add	r3, r1
 8001fee:	601a      	str	r2, [r3, #0]

      /* Return function status */
      return HAL_OK;
 8001ff0:	2300      	movs	r3, #0
 8001ff2:	e00e      	b.n	8002012 <HAL_CAN_AddTxMessage+0x1aa>
    }
    else
    {
      /* Update error code */
      hcan->ErrorCode |= HAL_CAN_ERROR_PARAM;
 8001ff4:	68fb      	ldr	r3, [r7, #12]
 8001ff6:	6a5b      	ldr	r3, [r3, #36]	; 0x24
 8001ff8:	f443 1200 	orr.w	r2, r3, #2097152	; 0x200000
 8001ffc:	68fb      	ldr	r3, [r7, #12]
 8001ffe:	625a      	str	r2, [r3, #36]	; 0x24

      return HAL_ERROR;
 8002000:	2301      	movs	r3, #1
 8002002:	e006      	b.n	8002012 <HAL_CAN_AddTxMessage+0x1aa>
    }
  }
  else
  {
    /* Update error code */
    hcan->ErrorCode |= HAL_CAN_ERROR_NOT_INITIALIZED;
 8002004:	68fb      	ldr	r3, [r7, #12]
 8002006:	6a5b      	ldr	r3, [r3, #36]	; 0x24
 8002008:	f443 2280 	orr.w	r2, r3, #262144	; 0x40000
 800200c:	68fb      	ldr	r3, [r7, #12]
 800200e:	625a      	str	r2, [r3, #36]	; 0x24

    return HAL_ERROR;
 8002010:	2301      	movs	r3, #1
  }
}
 8002012:	4618      	mov	r0, r3
 8002014:	3724      	adds	r7, #36	; 0x24
 8002016:	46bd      	mov	sp, r7
 8002018:	bc80      	pop	{r7}
 800201a:	4770      	bx	lr

0800201c <HAL_CAN_ActivateNotification>:
  * @param  ActiveITs indicates which interrupts will be enabled.
  *         This parameter can be any combination of @arg CAN_Interrupts.
  * @retval HAL status
  */
HAL_StatusTypeDef HAL_CAN_ActivateNotification(CAN_HandleTypeDef *hcan, uint32_t ActiveITs)
{
 800201c:	b480      	push	{r7}
 800201e:	b085      	sub	sp, #20
 8002020:	af00      	add	r7, sp, #0
 8002022:	6078      	str	r0, [r7, #4]
 8002024:	6039      	str	r1, [r7, #0]
  HAL_CAN_StateTypeDef state = hcan->State;
 8002026:	687b      	ldr	r3, [r7, #4]
 8002028:	f893 3020 	ldrb.w	r3, [r3, #32]
 800202c:	73fb      	strb	r3, [r7, #15]

  /* Check function parameters */
  assert_param(IS_CAN_IT(ActiveITs));

  if ((state == HAL_CAN_STATE_READY) ||
 800202e:	7bfb      	ldrb	r3, [r7, #15]
 8002030:	2b01      	cmp	r3, #1
 8002032:	d002      	beq.n	800203a <HAL_CAN_ActivateNotification+0x1e>
 8002034:	7bfb      	ldrb	r3, [r7, #15]
 8002036:	2b02      	cmp	r3, #2
 8002038:	d109      	bne.n	800204e <HAL_CAN_ActivateNotification+0x32>
      (state == HAL_CAN_STATE_LISTENING))
  {
    /* Enable the selected interrupts */
    __HAL_CAN_ENABLE_IT(hcan, ActiveITs);
 800203a:	687b      	ldr	r3, [r7, #4]
 800203c:	681b      	ldr	r3, [r3, #0]
 800203e:	6959      	ldr	r1, [r3, #20]
 8002040:	687b      	ldr	r3, [r7, #4]
 8002042:	681b      	ldr	r3, [r3, #0]
 8002044:	683a      	ldr	r2, [r7, #0]
 8002046:	430a      	orrs	r2, r1
 8002048:	615a      	str	r2, [r3, #20]

    /* Return function status */
    return HAL_OK;
 800204a:	2300      	movs	r3, #0
 800204c:	e006      	b.n	800205c <HAL_CAN_ActivateNotification+0x40>
  }
  else
  {
    /* Update error code */
    hcan->ErrorCode |= HAL_CAN_ERROR_NOT_INITIALIZED;
 800204e:	687b      	ldr	r3, [r7, #4]
 8002050:	6a5b      	ldr	r3, [r3, #36]	; 0x24
 8002052:	f443 2280 	orr.w	r2, r3, #262144	; 0x40000
 8002056:	687b      	ldr	r3, [r7, #4]
 8002058:	625a      	str	r2, [r3, #36]	; 0x24

    return HAL_ERROR;
 800205a:	2301      	movs	r3, #1
  }
}
 800205c:	4618      	mov	r0, r3
 800205e:	3714      	adds	r7, #20
 8002060:	46bd      	mov	sp, r7
 8002062:	bc80      	pop	{r7}
 8002064:	4770      	bx	lr

08002066 <HAL_CAN_IRQHandler>:
  * @param  hcan pointer to a CAN_HandleTypeDef structure that contains
  *         the configuration information for the specified CAN.
  * @retval None
  */
void HAL_CAN_IRQHandler(CAN_HandleTypeDef *hcan)
{
 8002066:	b580      	push	{r7, lr}
 8002068:	b08a      	sub	sp, #40	; 0x28
 800206a:	af00      	add	r7, sp, #0
 800206c:	6078      	str	r0, [r7, #4]
  uint32_t errorcode = HAL_CAN_ERROR_NONE;
 800206e:	2300      	movs	r3, #0
 8002070:	627b      	str	r3, [r7, #36]	; 0x24
  uint32_t interrupts = READ_REG(hcan->Instance->IER);
 8002072:	687b      	ldr	r3, [r7, #4]
 8002074:	681b      	ldr	r3, [r3, #0]
 8002076:	695b      	ldr	r3, [r3, #20]
 8002078:	623b      	str	r3, [r7, #32]
  uint32_t msrflags = READ_REG(hcan->Instance->MSR);
 800207a:	687b      	ldr	r3, [r7, #4]
 800207c:	681b      	ldr	r3, [r3, #0]
 800207e:	685b      	ldr	r3, [r3, #4]
 8002080:	61fb      	str	r3, [r7, #28]
  uint32_t tsrflags = READ_REG(hcan->Instance->TSR);
 8002082:	687b      	ldr	r3, [r7, #4]
 8002084:	681b      	ldr	r3, [r3, #0]
 8002086:	689b      	ldr	r3, [r3, #8]
 8002088:	61bb      	str	r3, [r7, #24]
  uint32_t rf0rflags = READ_REG(hcan->Instance->RF0R);
 800208a:	687b      	ldr	r3, [r7, #4]
 800208c:	681b      	ldr	r3, [r3, #0]
 800208e:	68db      	ldr	r3, [r3, #12]
 8002090:	617b      	str	r3, [r7, #20]
  uint32_t rf1rflags = READ_REG(hcan->Instance->RF1R);
 8002092:	687b      	ldr	r3, [r7, #4]
 8002094:	681b      	ldr	r3, [r3, #0]
 8002096:	691b      	ldr	r3, [r3, #16]
 8002098:	613b      	str	r3, [r7, #16]
  uint32_t esrflags = READ_REG(hcan->Instance->ESR);
 800209a:	687b      	ldr	r3, [r7, #4]
 800209c:	681b      	ldr	r3, [r3, #0]
 800209e:	699b      	ldr	r3, [r3, #24]
 80020a0:	60fb      	str	r3, [r7, #12]

  /* Transmit Mailbox empty interrupt management *****************************/
  if ((interrupts & CAN_IT_TX_MAILBOX_EMPTY) != 0U)
 80020a2:	6a3b      	ldr	r3, [r7, #32]
 80020a4:	f003 0301 	and.w	r3, r3, #1
 80020a8:	2b00      	cmp	r3, #0
 80020aa:	d07c      	beq.n	80021a6 <HAL_CAN_IRQHandler+0x140>
  {
    /* Transmit Mailbox 0 management *****************************************/
    if ((tsrflags & CAN_TSR_RQCP0) != 0U)
 80020ac:	69bb      	ldr	r3, [r7, #24]
 80020ae:	f003 0301 	and.w	r3, r3, #1
 80020b2:	2b00      	cmp	r3, #0
 80020b4:	d023      	beq.n	80020fe <HAL_CAN_IRQHandler+0x98>
    {
      /* Clear the Transmission Complete flag (and TXOK0,ALST0,TERR0 bits) */
      __HAL_CAN_CLEAR_FLAG(hcan, CAN_FLAG_RQCP0);
 80020b6:	687b      	ldr	r3, [r7, #4]
 80020b8:	681b      	ldr	r3, [r3, #0]
 80020ba:	2201      	movs	r2, #1
 80020bc:	609a      	str	r2, [r3, #8]

      if ((tsrflags & CAN_TSR_TXOK0) != 0U)
 80020be:	69bb      	ldr	r3, [r7, #24]
 80020c0:	f003 0302 	and.w	r3, r3, #2
 80020c4:	2b00      	cmp	r3, #0
 80020c6:	d003      	beq.n	80020d0 <HAL_CAN_IRQHandler+0x6a>
#if USE_HAL_CAN_REGISTER_CALLBACKS == 1
        /* Call registered callback*/
        hcan->TxMailbox0CompleteCallback(hcan);
#else
        /* Call weak (surcharged) callback */
        HAL_CAN_TxMailbox0CompleteCallback(hcan);
 80020c8:	6878      	ldr	r0, [r7, #4]
 80020ca:	f000 f97d 	bl	80023c8 <HAL_CAN_TxMailbox0CompleteCallback>
 80020ce:	e016      	b.n	80020fe <HAL_CAN_IRQHandler+0x98>
#endif /* USE_HAL_CAN_REGISTER_CALLBACKS */
      }
      else
      {
        if ((tsrflags & CAN_TSR_ALST0) != 0U)
 80020d0:	69bb      	ldr	r3, [r7, #24]
 80020d2:	f003 0304 	and.w	r3, r3, #4
 80020d6:	2b00      	cmp	r3, #0
 80020d8:	d004      	beq.n	80020e4 <HAL_CAN_IRQHandler+0x7e>
        {
          /* Update error code */
          errorcode |= HAL_CAN_ERROR_TX_ALST0;
 80020da:	6a7b      	ldr	r3, [r7, #36]	; 0x24
 80020dc:	f443 6300 	orr.w	r3, r3, #2048	; 0x800
 80020e0:	627b      	str	r3, [r7, #36]	; 0x24
 80020e2:	e00c      	b.n	80020fe <HAL_CAN_IRQHandler+0x98>
        }
        else if ((tsrflags & CAN_TSR_TERR0) != 0U)
 80020e4:	69bb      	ldr	r3, [r7, #24]
 80020e6:	f003 0308 	and.w	r3, r3, #8
 80020ea:	2b00      	cmp	r3, #0
 80020ec:	d004      	beq.n	80020f8 <HAL_CAN_IRQHandler+0x92>
        {
          /* Update error code */
          errorcode |= HAL_CAN_ERROR_TX_TERR0;
 80020ee:	6a7b      	ldr	r3, [r7, #36]	; 0x24
 80020f0:	f443 5380 	orr.w	r3, r3, #4096	; 0x1000
 80020f4:	627b      	str	r3, [r7, #36]	; 0x24
 80020f6:	e002      	b.n	80020fe <HAL_CAN_IRQHandler+0x98>
#if USE_HAL_CAN_REGISTER_CALLBACKS == 1
          /* Call registered callback*/
          hcan->TxMailbox0AbortCallback(hcan);
#else
          /* Call weak (surcharged) callback */
          HAL_CAN_TxMailbox0AbortCallback(hcan);
 80020f8:	6878      	ldr	r0, [r7, #4]
 80020fa:	f000 f980 	bl	80023fe <HAL_CAN_TxMailbox0AbortCallback>
        }
      }
    }

    /* Transmit Mailbox 1 management *****************************************/
    if ((tsrflags & CAN_TSR_RQCP1) != 0U)
 80020fe:	69bb      	ldr	r3, [r7, #24]
 8002100:	f403 7380 	and.w	r3, r3, #256	; 0x100
 8002104:	2b00      	cmp	r3, #0
 8002106:	d024      	beq.n	8002152 <HAL_CAN_IRQHandler+0xec>
    {
      /* Clear the Transmission Complete flag (and TXOK1,ALST1,TERR1 bits) */
      __HAL_CAN_CLEAR_FLAG(hcan, CAN_FLAG_RQCP1);
 8002108:	687b      	ldr	r3, [r7, #4]
 800210a:	681b      	ldr	r3, [r3, #0]
 800210c:	f44f 7280 	mov.w	r2, #256	; 0x100
 8002110:	609a      	str	r2, [r3, #8]

      if ((tsrflags & CAN_TSR_TXOK1) != 0U)
 8002112:	69bb      	ldr	r3, [r7, #24]
 8002114:	f403 7300 	and.w	r3, r3, #512	; 0x200
 8002118:	2b00      	cmp	r3, #0
 800211a:	d003      	beq.n	8002124 <HAL_CAN_IRQHandler+0xbe>
#if USE_HAL_CAN_REGISTER_CALLBACKS == 1
        /* Call registered callback*/
        hcan->TxMailbox1CompleteCallback(hcan);
#else
        /* Call weak (surcharged) callback */
        HAL_CAN_TxMailbox1CompleteCallback(hcan);
 800211c:	6878      	ldr	r0, [r7, #4]
 800211e:	f000 f95c 	bl	80023da <HAL_CAN_TxMailbox1CompleteCallback>
 8002122:	e016      	b.n	8002152 <HAL_CAN_IRQHandler+0xec>
#endif /* USE_HAL_CAN_REGISTER_CALLBACKS */
      }
      else
      {
        if ((tsrflags & CAN_TSR_ALST1) != 0U)
 8002124:	69bb      	ldr	r3, [r7, #24]
 8002126:	f403 6380 	and.w	r3, r3, #1024	; 0x400
 800212a:	2b00      	cmp	r3, #0
 800212c:	d004      	beq.n	8002138 <HAL_CAN_IRQHandler+0xd2>
        {
          /* Update error code */
          errorcode |= HAL_CAN_ERROR_TX_ALST1;
 800212e:	6a7b      	ldr	r3, [r7, #36]	; 0x24
 8002130:	f443 5300 	orr.w	r3, r3, #8192	; 0x2000
 8002134:	627b      	str	r3, [r7, #36]	; 0x24
 8002136:	e00c      	b.n	8002152 <HAL_CAN_IRQHandler+0xec>
        }
        else if ((tsrflags & CAN_TSR_TERR1) != 0U)
 8002138:	69bb      	ldr	r3, [r7, #24]
 800213a:	f403 6300 	and.w	r3, r3, #2048	; 0x800
 800213e:	2b00      	cmp	r3, #0
 8002140:	d004      	beq.n	800214c <HAL_CAN_IRQHandler+0xe6>
        {
          /* Update error code */
          errorcode |= HAL_CAN_ERROR_TX_TERR1;
 8002142:	6a7b      	ldr	r3, [r7, #36]	; 0x24
 8002144:	f443 4380 	orr.w	r3, r3, #16384	; 0x4000
 8002148:	627b      	str	r3, [r7, #36]	; 0x24
 800214a:	e002      	b.n	8002152 <HAL_CAN_IRQHandler+0xec>
#if USE_HAL_CAN_REGISTER_CALLBACKS == 1
          /* Call registered callback*/
          hcan->TxMailbox1AbortCallback(hcan);
#else
          /* Call weak (surcharged) callback */
          HAL_CAN_TxMailbox1AbortCallback(hcan);
 800214c:	6878      	ldr	r0, [r7, #4]
 800214e:	f000 f95f 	bl	8002410 <HAL_CAN_TxMailbox1AbortCallback>
        }
      }
    }

    /* Transmit Mailbox 2 management *****************************************/
    if ((tsrflags & CAN_TSR_RQCP2) != 0U)
 8002152:	69bb      	ldr	r3, [r7, #24]
 8002154:	f403 3380 	and.w	r3, r3, #65536	; 0x10000
 8002158:	2b00      	cmp	r3, #0
 800215a:	d024      	beq.n	80021a6 <HAL_CAN_IRQHandler+0x140>
    {
      /* Clear the Transmission Complete flag (and TXOK2,ALST2,TERR2 bits) */
      __HAL_CAN_CLEAR_FLAG(hcan, CAN_FLAG_RQCP2);
 800215c:	687b      	ldr	r3, [r7, #4]
 800215e:	681b      	ldr	r3, [r3, #0]
 8002160:	f44f 3280 	mov.w	r2, #65536	; 0x10000
 8002164:	609a      	str	r2, [r3, #8]

      if ((tsrflags & CAN_TSR_TXOK2) != 0U)
 8002166:	69bb      	ldr	r3, [r7, #24]
 8002168:	f403 3300 	and.w	r3, r3, #131072	; 0x20000
 800216c:	2b00      	cmp	r3, #0
 800216e:	d003      	beq.n	8002178 <HAL_CAN_IRQHandler+0x112>
#if USE_HAL_CAN_REGISTER_CALLBACKS == 1
        /* Call registered callback*/
        hcan->TxMailbox2CompleteCallback(hcan);
#else
        /* Call weak (surcharged) callback */
        HAL_CAN_TxMailbox2CompleteCallback(hcan);
 8002170:	6878      	ldr	r0, [r7, #4]
 8002172:	f000 f93b 	bl	80023ec <HAL_CAN_TxMailbox2CompleteCallback>
 8002176:	e016      	b.n	80021a6 <HAL_CAN_IRQHandler+0x140>
#endif /* USE_HAL_CAN_REGISTER_CALLBACKS */
      }
      else
      {
        if ((tsrflags & CAN_TSR_ALST2) != 0U)
 8002178:	69bb      	ldr	r3, [r7, #24]
 800217a:	f403 2380 	and.w	r3, r3, #262144	; 0x40000
 800217e:	2b00      	cmp	r3, #0
 8002180:	d004      	beq.n	800218c <HAL_CAN_IRQHandler+0x126>
        {
          /* Update error code */
          errorcode |= HAL_CAN_ERROR_TX_ALST2;
 8002182:	6a7b      	ldr	r3, [r7, #36]	; 0x24
 8002184:	f443 4300 	orr.w	r3, r3, #32768	; 0x8000
 8002188:	627b      	str	r3, [r7, #36]	; 0x24
 800218a:	e00c      	b.n	80021a6 <HAL_CAN_IRQHandler+0x140>
        }
        else if ((tsrflags & CAN_TSR_TERR2) != 0U)
 800218c:	69bb      	ldr	r3, [r7, #24]
 800218e:	f403 2300 	and.w	r3, r3, #524288	; 0x80000
 8002192:	2b00      	cmp	r3, #0
 8002194:	d004      	beq.n	80021a0 <HAL_CAN_IRQHandler+0x13a>
        {
          /* Update error code */
          errorcode |= HAL_CAN_ERROR_TX_TERR2;
 8002196:	6a7b      	ldr	r3, [r7, #36]	; 0x24
 8002198:	f443 3380 	orr.w	r3, r3, #65536	; 0x10000
 800219c:	627b      	str	r3, [r7, #36]	; 0x24
 800219e:	e002      	b.n	80021a6 <HAL_CAN_IRQHandler+0x140>
#if USE_HAL_CAN_REGISTER_CALLBACKS == 1
          /* Call registered callback*/
          hcan->TxMailbox2AbortCallback(hcan);
#else
          /* Call weak (surcharged) callback */
          HAL_CAN_TxMailbox2AbortCallback(hcan);
 80021a0:	6878      	ldr	r0, [r7, #4]
 80021a2:	f000 f93e 	bl	8002422 <HAL_CAN_TxMailbox2AbortCallback>
      }
    }
  }

  /* Receive FIFO 0 overrun interrupt management *****************************/
  if ((interrupts & CAN_IT_RX_FIFO0_OVERRUN) != 0U)
 80021a6:	6a3b      	ldr	r3, [r7, #32]
 80021a8:	f003 0308 	and.w	r3, r3, #8
 80021ac:	2b00      	cmp	r3, #0
 80021ae:	d00c      	beq.n	80021ca <HAL_CAN_IRQHandler+0x164>
  {
    if ((rf0rflags & CAN_RF0R_FOVR0) != 0U)
 80021b0:	697b      	ldr	r3, [r7, #20]
 80021b2:	f003 0310 	and.w	r3, r3, #16
 80021b6:	2b00      	cmp	r3, #0
 80021b8:	d007      	beq.n	80021ca <HAL_CAN_IRQHandler+0x164>
    {
      /* Set CAN error code to Rx Fifo 0 overrun error */
      errorcode |= HAL_CAN_ERROR_RX_FOV0;
 80021ba:	6a7b      	ldr	r3, [r7, #36]	; 0x24
 80021bc:	f443 7300 	orr.w	r3, r3, #512	; 0x200
 80021c0:	627b      	str	r3, [r7, #36]	; 0x24

      /* Clear FIFO0 Overrun Flag */
      __HAL_CAN_CLEAR_FLAG(hcan, CAN_FLAG_FOV0);
 80021c2:	687b      	ldr	r3, [r7, #4]
 80021c4:	681b      	ldr	r3, [r3, #0]
 80021c6:	2210      	movs	r2, #16
 80021c8:	60da      	str	r2, [r3, #12]
    }
  }

  /* Receive FIFO 0 full interrupt management ********************************/
  if ((interrupts & CAN_IT_RX_FIFO0_FULL) != 0U)
 80021ca:	6a3b      	ldr	r3, [r7, #32]
 80021cc:	f003 0304 	and.w	r3, r3, #4
 80021d0:	2b00      	cmp	r3, #0
 80021d2:	d00b      	beq.n	80021ec <HAL_CAN_IRQHandler+0x186>
  {
    if ((rf0rflags & CAN_RF0R_FULL0) != 0U)
 80021d4:	697b      	ldr	r3, [r7, #20]
 80021d6:	f003 0308 	and.w	r3, r3, #8
 80021da:	2b00      	cmp	r3, #0
 80021dc:	d006      	beq.n	80021ec <HAL_CAN_IRQHandler+0x186>
    {
      /* Clear FIFO 0 full Flag */
      __HAL_CAN_CLEAR_FLAG(hcan, CAN_FLAG_FF0);
 80021de:	687b      	ldr	r3, [r7, #4]
 80021e0:	681b      	ldr	r3, [r3, #0]
 80021e2:	2208      	movs	r2, #8
 80021e4:	60da      	str	r2, [r3, #12]
#if USE_HAL_CAN_REGISTER_CALLBACKS == 1
      /* Call registered callback*/
      hcan->RxFifo0FullCallback(hcan);
#else
      /* Call weak (surcharged) callback */
      HAL_CAN_RxFifo0FullCallback(hcan);
 80021e6:	6878      	ldr	r0, [r7, #4]
 80021e8:	f000 f92d 	bl	8002446 <HAL_CAN_RxFifo0FullCallback>
#endif /* USE_HAL_CAN_REGISTER_CALLBACKS */
    }
  }

  /* Receive FIFO 0 message pending interrupt management *********************/
  if ((interrupts & CAN_IT_RX_FIFO0_MSG_PENDING) != 0U)
 80021ec:	6a3b      	ldr	r3, [r7, #32]
 80021ee:	f003 0302 	and.w	r3, r3, #2
 80021f2:	2b00      	cmp	r3, #0
 80021f4:	d009      	beq.n	800220a <HAL_CAN_IRQHandler+0x1a4>
  {
    /* Check if message is still pending */
    if ((hcan->Instance->RF0R & CAN_RF0R_FMP0) != 0U)
 80021f6:	687b      	ldr	r3, [r7, #4]
 80021f8:	681b      	ldr	r3, [r3, #0]
 80021fa:	68db      	ldr	r3, [r3, #12]
 80021fc:	f003 0303 	and.w	r3, r3, #3
 8002200:	2b00      	cmp	r3, #0
 8002202:	d002      	beq.n	800220a <HAL_CAN_IRQHandler+0x1a4>
#if USE_HAL_CAN_REGISTER_CALLBACKS == 1
      /* Call registered callback*/
      hcan->RxFifo0MsgPendingCallback(hcan);
#else
      /* Call weak (surcharged) callback */
      HAL_CAN_RxFifo0MsgPendingCallback(hcan);
 8002204:	6878      	ldr	r0, [r7, #4]
 8002206:	f000 f915 	bl	8002434 <HAL_CAN_RxFifo0MsgPendingCallback>
#endif /* USE_HAL_CAN_REGISTER_CALLBACKS */
    }
  }

  /* Receive FIFO 1 overrun interrupt management *****************************/
  if ((interrupts & CAN_IT_RX_FIFO1_OVERRUN) != 0U)
 800220a:	6a3b      	ldr	r3, [r7, #32]
 800220c:	f003 0340 	and.w	r3, r3, #64	; 0x40
 8002210:	2b00      	cmp	r3, #0
 8002212:	d00c      	beq.n	800222e <HAL_CAN_IRQHandler+0x1c8>
  {
    if ((rf1rflags & CAN_RF1R_FOVR1) != 0U)
 8002214:	693b      	ldr	r3, [r7, #16]
 8002216:	f003 0310 	and.w	r3, r3, #16
 800221a:	2b00      	cmp	r3, #0
 800221c:	d007      	beq.n	800222e <HAL_CAN_IRQHandler+0x1c8>
    {
      /* Set CAN error code to Rx Fifo 1 overrun error */
      errorcode |= HAL_CAN_ERROR_RX_FOV1;
 800221e:	6a7b      	ldr	r3, [r7, #36]	; 0x24
 8002220:	f443 6380 	orr.w	r3, r3, #1024	; 0x400
 8002224:	627b      	str	r3, [r7, #36]	; 0x24

      /* Clear FIFO1 Overrun Flag */
      __HAL_CAN_CLEAR_FLAG(hcan, CAN_FLAG_FOV1);
 8002226:	687b      	ldr	r3, [r7, #4]
 8002228:	681b      	ldr	r3, [r3, #0]
 800222a:	2210      	movs	r2, #16
 800222c:	611a      	str	r2, [r3, #16]
    }
  }

  /* Receive FIFO 1 full interrupt management ********************************/
  if ((interrupts & CAN_IT_RX_FIFO1_FULL) != 0U)
 800222e:	6a3b      	ldr	r3, [r7, #32]
 8002230:	f003 0320 	and.w	r3, r3, #32
 8002234:	2b00      	cmp	r3, #0
 8002236:	d00b      	beq.n	8002250 <HAL_CAN_IRQHandler+0x1ea>
  {
    if ((rf1rflags & CAN_RF1R_FULL1) != 0U)
 8002238:	693b      	ldr	r3, [r7, #16]
 800223a:	f003 0308 	and.w	r3, r3, #8
 800223e:	2b00      	cmp	r3, #0
 8002240:	d006      	beq.n	8002250 <HAL_CAN_IRQHandler+0x1ea>
    {
      /* Clear FIFO 1 full Flag */
      __HAL_CAN_CLEAR_FLAG(hcan, CAN_FLAG_FF1);
 8002242:	687b      	ldr	r3, [r7, #4]
 8002244:	681b      	ldr	r3, [r3, #0]
 8002246:	2208      	movs	r2, #8
 8002248:	611a      	str	r2, [r3, #16]
#if USE_HAL_CAN_REGISTER_CALLBACKS == 1
      /* Call registered callback*/
      hcan->RxFifo1FullCallback(hcan);
#else
      /* Call weak (surcharged) callback */
      HAL_CAN_RxFifo1FullCallback(hcan);
 800224a:	6878      	ldr	r0, [r7, #4]
 800224c:	f000 f90d 	bl	800246a <HAL_CAN_RxFifo1FullCallback>
#endif /* USE_HAL_CAN_REGISTER_CALLBACKS */
    }
  }

  /* Receive FIFO 1 message pending interrupt management *********************/
  if ((interrupts & CAN_IT_RX_FIFO1_MSG_PENDING) != 0U)
 8002250:	6a3b      	ldr	r3, [r7, #32]
 8002252:	f003 0310 	and.w	r3, r3, #16
 8002256:	2b00      	cmp	r3, #0
 8002258:	d009      	beq.n	800226e <HAL_CAN_IRQHandler+0x208>
  {
    /* Check if message is still pending */
    if ((hcan->Instance->RF1R & CAN_RF1R_FMP1) != 0U)
 800225a:	687b      	ldr	r3, [r7, #4]
 800225c:	681b      	ldr	r3, [r3, #0]
 800225e:	691b      	ldr	r3, [r3, #16]
 8002260:	f003 0303 	and.w	r3, r3, #3
 8002264:	2b00      	cmp	r3, #0
 8002266:	d002      	beq.n	800226e <HAL_CAN_IRQHandler+0x208>
#if USE_HAL_CAN_REGISTER_CALLBACKS == 1
      /* Call registered callback*/
      hcan->RxFifo1MsgPendingCallback(hcan);
#else
      /* Call weak (surcharged) callback */
      HAL_CAN_RxFifo1MsgPendingCallback(hcan);
 8002268:	6878      	ldr	r0, [r7, #4]
 800226a:	f000 f8f5 	bl	8002458 <HAL_CAN_RxFifo1MsgPendingCallback>
#endif /* USE_HAL_CAN_REGISTER_CALLBACKS */
    }
  }

  /* Sleep interrupt management *********************************************/
  if ((interrupts & CAN_IT_SLEEP_ACK) != 0U)
 800226e:	6a3b      	ldr	r3, [r7, #32]
 8002270:	f403 3300 	and.w	r3, r3, #131072	; 0x20000
 8002274:	2b00      	cmp	r3, #0
 8002276:	d00b      	beq.n	8002290 <HAL_CAN_IRQHandler+0x22a>
  {
    if ((msrflags & CAN_MSR_SLAKI) != 0U)
 8002278:	69fb      	ldr	r3, [r7, #28]
 800227a:	f003 0310 	and.w	r3, r3, #16
 800227e:	2b00      	cmp	r3, #0
 8002280:	d006      	beq.n	8002290 <HAL_CAN_IRQHandler+0x22a>
    {
      /* Clear Sleep interrupt Flag */
      __HAL_CAN_CLEAR_FLAG(hcan, CAN_FLAG_SLAKI);
 8002282:	687b      	ldr	r3, [r7, #4]
 8002284:	681b      	ldr	r3, [r3, #0]
 8002286:	2210      	movs	r2, #16
 8002288:	605a      	str	r2, [r3, #4]
#if USE_HAL_CAN_REGISTER_CALLBACKS == 1
      /* Call registered callback*/
      hcan->SleepCallback(hcan);
#else
      /* Call weak (surcharged) callback */
      HAL_CAN_SleepCallback(hcan);
 800228a:	6878      	ldr	r0, [r7, #4]
 800228c:	f000 f8f6 	bl	800247c <HAL_CAN_SleepCallback>
#endif /* USE_HAL_CAN_REGISTER_CALLBACKS */
    }
  }

  /* WakeUp interrupt management *********************************************/
  if ((interrupts & CAN_IT_WAKEUP) != 0U)
 8002290:	6a3b      	ldr	r3, [r7, #32]
 8002292:	f403 3380 	and.w	r3, r3, #65536	; 0x10000
 8002296:	2b00      	cmp	r3, #0
 8002298:	d00b      	beq.n	80022b2 <HAL_CAN_IRQHandler+0x24c>
  {
    if ((msrflags & CAN_MSR_WKUI) != 0U)
 800229a:	69fb      	ldr	r3, [r7, #28]
 800229c:	f003 0308 	and.w	r3, r3, #8
 80022a0:	2b00      	cmp	r3, #0
 80022a2:	d006      	beq.n	80022b2 <HAL_CAN_IRQHandler+0x24c>
    {
      /* Clear WakeUp Flag */
      __HAL_CAN_CLEAR_FLAG(hcan, CAN_FLAG_WKU);
 80022a4:	687b      	ldr	r3, [r7, #4]
 80022a6:	681b      	ldr	r3, [r3, #0]
 80022a8:	2208      	movs	r2, #8
 80022aa:	605a      	str	r2, [r3, #4]
#if USE_HAL_CAN_REGISTER_CALLBACKS == 1
      /* Call registered callback*/
      hcan->WakeUpFromRxMsgCallback(hcan);
#else
      /* Call weak (surcharged) callback */
      HAL_CAN_WakeUpFromRxMsgCallback(hcan);
 80022ac:	6878      	ldr	r0, [r7, #4]
 80022ae:	f000 f8ee 	bl	800248e <HAL_CAN_WakeUpFromRxMsgCallback>
#endif /* USE_HAL_CAN_REGISTER_CALLBACKS */
    }
  }

  /* Error interrupts management *********************************************/
  if ((interrupts & CAN_IT_ERROR) != 0U)
 80022b2:	6a3b      	ldr	r3, [r7, #32]
 80022b4:	f403 4300 	and.w	r3, r3, #32768	; 0x8000
 80022b8:	2b00      	cmp	r3, #0
 80022ba:	d075      	beq.n	80023a8 <HAL_CAN_IRQHandler+0x342>
  {
    if ((msrflags & CAN_MSR_ERRI) != 0U)
 80022bc:	69fb      	ldr	r3, [r7, #28]
 80022be:	f003 0304 	and.w	r3, r3, #4
 80022c2:	2b00      	cmp	r3, #0
 80022c4:	d06c      	beq.n	80023a0 <HAL_CAN_IRQHandler+0x33a>
    {
      /* Check Error Warning Flag */
      if (((interrupts & CAN_IT_ERROR_WARNING) != 0U) &&
 80022c6:	6a3b      	ldr	r3, [r7, #32]
 80022c8:	f403 7380 	and.w	r3, r3, #256	; 0x100
 80022cc:	2b00      	cmp	r3, #0
 80022ce:	d008      	beq.n	80022e2 <HAL_CAN_IRQHandler+0x27c>
          ((esrflags & CAN_ESR_EWGF) != 0U))
 80022d0:	68fb      	ldr	r3, [r7, #12]
 80022d2:	f003 0301 	and.w	r3, r3, #1
      if (((interrupts & CAN_IT_ERROR_WARNING) != 0U) &&
 80022d6:	2b00      	cmp	r3, #0
 80022d8:	d003      	beq.n	80022e2 <HAL_CAN_IRQHandler+0x27c>
      {
        /* Set CAN error code to Error Warning */
        errorcode |= HAL_CAN_ERROR_EWG;
 80022da:	6a7b      	ldr	r3, [r7, #36]	; 0x24
 80022dc:	f043 0301 	orr.w	r3, r3, #1
 80022e0:	627b      	str	r3, [r7, #36]	; 0x24

        /* No need for clear of Error Warning Flag as read-only */
      }

      /* Check Error Passive Flag */
      if (((interrupts & CAN_IT_ERROR_PASSIVE) != 0U) &&
 80022e2:	6a3b      	ldr	r3, [r7, #32]
 80022e4:	f403 7300 	and.w	r3, r3, #512	; 0x200
 80022e8:	2b00      	cmp	r3, #0
 80022ea:	d008      	beq.n	80022fe <HAL_CAN_IRQHandler+0x298>
          ((esrflags & CAN_ESR_EPVF) != 0U))
 80022ec:	68fb      	ldr	r3, [r7, #12]
 80022ee:	f003 0302 	and.w	r3, r3, #2
      if (((interrupts & CAN_IT_ERROR_PASSIVE) != 0U) &&
 80022f2:	2b00      	cmp	r3, #0
 80022f4:	d003      	beq.n	80022fe <HAL_CAN_IRQHandler+0x298>
      {
        /* Set CAN error code to Error Passive */
        errorcode |= HAL_CAN_ERROR_EPV;
 80022f6:	6a7b      	ldr	r3, [r7, #36]	; 0x24
 80022f8:	f043 0302 	orr.w	r3, r3, #2
 80022fc:	627b      	str	r3, [r7, #36]	; 0x24

        /* No need for clear of Error Passive Flag as read-only */
      }

      /* Check Bus-off Flag */
      if (((interrupts & CAN_IT_BUSOFF) != 0U) &&
 80022fe:	6a3b      	ldr	r3, [r7, #32]
 8002300:	f403 6380 	and.w	r3, r3, #1024	; 0x400
 8002304:	2b00      	cmp	r3, #0
 8002306:	d008      	beq.n	800231a <HAL_CAN_IRQHandler+0x2b4>
          ((esrflags & CAN_ESR_BOFF) != 0U))
 8002308:	68fb      	ldr	r3, [r7, #12]
 800230a:	f003 0304 	and.w	r3, r3, #4
      if (((interrupts & CAN_IT_BUSOFF) != 0U) &&
 800230e:	2b00      	cmp	r3, #0
 8002310:	d003      	beq.n	800231a <HAL_CAN_IRQHandler+0x2b4>
      {
        /* Set CAN error code to Bus-Off */
        errorcode |= HAL_CAN_ERROR_BOF;
 8002312:	6a7b      	ldr	r3, [r7, #36]	; 0x24
 8002314:	f043 0304 	orr.w	r3, r3, #4
 8002318:	627b      	str	r3, [r7, #36]	; 0x24

        /* No need for clear of Error Bus-Off as read-only */
      }

      /* Check Last Error Code Flag */
      if (((interrupts & CAN_IT_LAST_ERROR_CODE) != 0U) &&
 800231a:	6a3b      	ldr	r3, [r7, #32]
 800231c:	f403 6300 	and.w	r3, r3, #2048	; 0x800
 8002320:	2b00      	cmp	r3, #0
 8002322:	d03d      	beq.n	80023a0 <HAL_CAN_IRQHandler+0x33a>
          ((esrflags & CAN_ESR_LEC) != 0U))
 8002324:	68fb      	ldr	r3, [r7, #12]
 8002326:	f003 0370 	and.w	r3, r3, #112	; 0x70
      if (((interrupts & CAN_IT_LAST_ERROR_CODE) != 0U) &&
 800232a:	2b00      	cmp	r3, #0
 800232c:	d038      	beq.n	80023a0 <HAL_CAN_IRQHandler+0x33a>
      {
        switch (esrflags & CAN_ESR_LEC)
 800232e:	68fb      	ldr	r3, [r7, #12]
 8002330:	f003 0370 	and.w	r3, r3, #112	; 0x70
 8002334:	2b30      	cmp	r3, #48	; 0x30
 8002336:	d017      	beq.n	8002368 <HAL_CAN_IRQHandler+0x302>
 8002338:	2b30      	cmp	r3, #48	; 0x30
 800233a:	d804      	bhi.n	8002346 <HAL_CAN_IRQHandler+0x2e0>
 800233c:	2b10      	cmp	r3, #16
 800233e:	d009      	beq.n	8002354 <HAL_CAN_IRQHandler+0x2ee>
 8002340:	2b20      	cmp	r3, #32
 8002342:	d00c      	beq.n	800235e <HAL_CAN_IRQHandler+0x2f8>
          case (CAN_ESR_LEC_2 | CAN_ESR_LEC_1):
            /* Set CAN error code to CRC error */
            errorcode |= HAL_CAN_ERROR_CRC;
            break;
          default:
            break;
 8002344:	e024      	b.n	8002390 <HAL_CAN_IRQHandler+0x32a>
        switch (esrflags & CAN_ESR_LEC)
 8002346:	2b50      	cmp	r3, #80	; 0x50
 8002348:	d018      	beq.n	800237c <HAL_CAN_IRQHandler+0x316>
 800234a:	2b60      	cmp	r3, #96	; 0x60
 800234c:	d01b      	beq.n	8002386 <HAL_CAN_IRQHandler+0x320>
 800234e:	2b40      	cmp	r3, #64	; 0x40
 8002350:	d00f      	beq.n	8002372 <HAL_CAN_IRQHandler+0x30c>
            break;
 8002352:	e01d      	b.n	8002390 <HAL_CAN_IRQHandler+0x32a>
            errorcode |= HAL_CAN_ERROR_STF;
 8002354:	6a7b      	ldr	r3, [r7, #36]	; 0x24
 8002356:	f043 0308 	orr.w	r3, r3, #8
 800235a:	627b      	str	r3, [r7, #36]	; 0x24
            break;
 800235c:	e018      	b.n	8002390 <HAL_CAN_IRQHandler+0x32a>
            errorcode |= HAL_CAN_ERROR_FOR;
 800235e:	6a7b      	ldr	r3, [r7, #36]	; 0x24
 8002360:	f043 0310 	orr.w	r3, r3, #16
 8002364:	627b      	str	r3, [r7, #36]	; 0x24
            break;
 8002366:	e013      	b.n	8002390 <HAL_CAN_IRQHandler+0x32a>
            errorcode |= HAL_CAN_ERROR_ACK;
 8002368:	6a7b      	ldr	r3, [r7, #36]	; 0x24
 800236a:	f043 0320 	orr.w	r3, r3, #32
 800236e:	627b      	str	r3, [r7, #36]	; 0x24
            break;
 8002370:	e00e      	b.n	8002390 <HAL_CAN_IRQHandler+0x32a>
            errorcode |= HAL_CAN_ERROR_BR;
 8002372:	6a7b      	ldr	r3, [r7, #36]	; 0x24
 8002374:	f043 0340 	orr.w	r3, r3, #64	; 0x40
 8002378:	627b      	str	r3, [r7, #36]	; 0x24
            break;
 800237a:	e009      	b.n	8002390 <HAL_CAN_IRQHandler+0x32a>
            errorcode |= HAL_CAN_ERROR_BD;
 800237c:	6a7b      	ldr	r3, [r7, #36]	; 0x24
 800237e:	f043 0380 	orr.w	r3, r3, #128	; 0x80
 8002382:	627b      	str	r3, [r7, #36]	; 0x24
            break;
 8002384:	e004      	b.n	8002390 <HAL_CAN_IRQHandler+0x32a>
            errorcode |= HAL_CAN_ERROR_CRC;
 8002386:	6a7b      	ldr	r3, [r7, #36]	; 0x24
 8002388:	f443 7380 	orr.w	r3, r3, #256	; 0x100
 800238c:	627b      	str	r3, [r7, #36]	; 0x24
            break;
 800238e:	bf00      	nop
        }

        /* Clear Last error code Flag */
        CLEAR_BIT(hcan->Instance->ESR, CAN_ESR_LEC);
 8002390:	687b      	ldr	r3, [r7, #4]
 8002392:	681b      	ldr	r3, [r3, #0]
 8002394:	699a      	ldr	r2, [r3, #24]
 8002396:	687b      	ldr	r3, [r7, #4]
 8002398:	681b      	ldr	r3, [r3, #0]
 800239a:	f022 0270 	bic.w	r2, r2, #112	; 0x70
 800239e:	619a      	str	r2, [r3, #24]
      }
    }

    /* Clear ERRI Flag */
    __HAL_CAN_CLEAR_FLAG(hcan, CAN_FLAG_ERRI);
 80023a0:	687b      	ldr	r3, [r7, #4]
 80023a2:	681b      	ldr	r3, [r3, #0]
 80023a4:	2204      	movs	r2, #4
 80023a6:	605a      	str	r2, [r3, #4]
  }

  /* Call the Error call Back in case of Errors */
  if (errorcode != HAL_CAN_ERROR_NONE)
 80023a8:	6a7b      	ldr	r3, [r7, #36]	; 0x24
 80023aa:	2b00      	cmp	r3, #0
 80023ac:	d008      	beq.n	80023c0 <HAL_CAN_IRQHandler+0x35a>
  {
    /* Update error code in handle */
    hcan->ErrorCode |= errorcode;
 80023ae:	687b      	ldr	r3, [r7, #4]
 80023b0:	6a5a      	ldr	r2, [r3, #36]	; 0x24
 80023b2:	6a7b      	ldr	r3, [r7, #36]	; 0x24
 80023b4:	431a      	orrs	r2, r3
 80023b6:	687b      	ldr	r3, [r7, #4]
 80023b8:	625a      	str	r2, [r3, #36]	; 0x24
#if USE_HAL_CAN_REGISTER_CALLBACKS == 1
    /* Call registered callback*/
    hcan->ErrorCallback(hcan);
#else
    /* Call weak (surcharged) callback */
    HAL_CAN_ErrorCallback(hcan);
 80023ba:	6878      	ldr	r0, [r7, #4]
 80023bc:	f000 f870 	bl	80024a0 <HAL_CAN_ErrorCallback>
#endif /* USE_HAL_CAN_REGISTER_CALLBACKS */
  }
}
 80023c0:	bf00      	nop
 80023c2:	3728      	adds	r7, #40	; 0x28
 80023c4:	46bd      	mov	sp, r7
 80023c6:	bd80      	pop	{r7, pc}

080023c8 <HAL_CAN_TxMailbox0CompleteCallback>:
  * @param  hcan pointer to a CAN_HandleTypeDef structure that contains
  *         the configuration information for the specified CAN.
  * @retval None
  */
__weak void HAL_CAN_TxMailbox0CompleteCallback(CAN_HandleTypeDef *hcan)
{
 80023c8:	b480      	push	{r7}
 80023ca:	b083      	sub	sp, #12
 80023cc:	af00      	add	r7, sp, #0
 80023ce:	6078      	str	r0, [r7, #4]

  /* NOTE : This function Should not be modified, when the callback is needed,
            the HAL_CAN_TxMailbox0CompleteCallback could be implemented in the
            user file
   */
}
 80023d0:	bf00      	nop
 80023d2:	370c      	adds	r7, #12
 80023d4:	46bd      	mov	sp, r7
 80023d6:	bc80      	pop	{r7}
 80023d8:	4770      	bx	lr

080023da <HAL_CAN_TxMailbox1CompleteCallback>:
  * @param  hcan pointer to a CAN_HandleTypeDef structure that contains
  *         the configuration information for the specified CAN.
  * @retval None
  */
__weak void HAL_CAN_TxMailbox1CompleteCallback(CAN_HandleTypeDef *hcan)
{
 80023da:	b480      	push	{r7}
 80023dc:	b083      	sub	sp, #12
 80023de:	af00      	add	r7, sp, #0
 80023e0:	6078      	str	r0, [r7, #4]

  /* NOTE : This function Should not be modified, when the callback is needed,
            the HAL_CAN_TxMailbox1CompleteCallback could be implemented in the
            user file
   */
}
 80023e2:	bf00      	nop
 80023e4:	370c      	adds	r7, #12
 80023e6:	46bd      	mov	sp, r7
 80023e8:	bc80      	pop	{r7}
 80023ea:	4770      	bx	lr

080023ec <HAL_CAN_TxMailbox2CompleteCallback>:
  * @param  hcan pointer to a CAN_HandleTypeDef structure that contains
  *         the configuration information for the specified CAN.
  * @retval None
  */
__weak void HAL_CAN_TxMailbox2CompleteCallback(CAN_HandleTypeDef *hcan)
{
 80023ec:	b480      	push	{r7}
 80023ee:	b083      	sub	sp, #12
 80023f0:	af00      	add	r7, sp, #0
 80023f2:	6078      	str	r0, [r7, #4]

  /* NOTE : This function Should not be modified, when the callback is needed,
            the HAL_CAN_TxMailbox2CompleteCallback could be implemented in the
            user file
   */
}
 80023f4:	bf00      	nop
 80023f6:	370c      	adds	r7, #12
 80023f8:	46bd      	mov	sp, r7
 80023fa:	bc80      	pop	{r7}
 80023fc:	4770      	bx	lr

080023fe <HAL_CAN_TxMailbox0AbortCallback>:
  * @param  hcan pointer to an CAN_HandleTypeDef structure that contains
  *         the configuration information for the specified CAN.
  * @retval None
  */
__weak void HAL_CAN_TxMailbox0AbortCallback(CAN_HandleTypeDef *hcan)
{
 80023fe:	b480      	push	{r7}
 8002400:	b083      	sub	sp, #12
 8002402:	af00      	add	r7, sp, #0
 8002404:	6078      	str	r0, [r7, #4]

  /* NOTE : This function Should not be modified, when the callback is needed,
            the HAL_CAN_TxMailbox0AbortCallback could be implemented in the
            user file
   */
}
 8002406:	bf00      	nop
 8002408:	370c      	adds	r7, #12
 800240a:	46bd      	mov	sp, r7
 800240c:	bc80      	pop	{r7}
 800240e:	4770      	bx	lr

08002410 <HAL_CAN_TxMailbox1AbortCallback>:
  * @param  hcan pointer to an CAN_HandleTypeDef structure that contains
  *         the configuration information for the specified CAN.
  * @retval None
  */
__weak void HAL_CAN_TxMailbox1AbortCallback(CAN_HandleTypeDef *hcan)
{
 8002410:	b480      	push	{r7}
 8002412:	b083      	sub	sp, #12
 8002414:	af00      	add	r7, sp, #0
 8002416:	6078      	str	r0, [r7, #4]

  /* NOTE : This function Should not be modified, when the callback is needed,
            the HAL_CAN_TxMailbox1AbortCallback could be implemented in the
            user file
   */
}
 8002418:	bf00      	nop
 800241a:	370c      	adds	r7, #12
 800241c:	46bd      	mov	sp, r7
 800241e:	bc80      	pop	{r7}
 8002420:	4770      	bx	lr

08002422 <HAL_CAN_TxMailbox2AbortCallback>:
  * @param  hcan pointer to an CAN_HandleTypeDef structure that contains
  *         the configuration information for the specified CAN.
  * @retval None
  */
__weak void HAL_CAN_TxMailbox2AbortCallback(CAN_HandleTypeDef *hcan)
{
 8002422:	b480      	push	{r7}
 8002424:	b083      	sub	sp, #12
 8002426:	af00      	add	r7, sp, #0
 8002428:	6078      	str	r0, [r7, #4]

  /* NOTE : This function Should not be modified, when the callback is needed,
            the HAL_CAN_TxMailbox2AbortCallback could be implemented in the
            user file
   */
}
 800242a:	bf00      	nop
 800242c:	370c      	adds	r7, #12
 800242e:	46bd      	mov	sp, r7
 8002430:	bc80      	pop	{r7}
 8002432:	4770      	bx	lr

08002434 <HAL_CAN_RxFifo0MsgPendingCallback>:
  * @param  hcan pointer to a CAN_HandleTypeDef structure that contains
  *         the configuration information for the specified CAN.
  * @retval None
  */
__weak void HAL_CAN_RxFifo0MsgPendingCallback(CAN_HandleTypeDef *hcan)
{
 8002434:	b480      	push	{r7}
 8002436:	b083      	sub	sp, #12
 8002438:	af00      	add	r7, sp, #0
 800243a:	6078      	str	r0, [r7, #4]

  /* NOTE : This function Should not be modified, when the callback is needed,
            the HAL_CAN_RxFifo0MsgPendingCallback could be implemented in the
            user file
   */
}
 800243c:	bf00      	nop
 800243e:	370c      	adds	r7, #12
 8002440:	46bd      	mov	sp, r7
 8002442:	bc80      	pop	{r7}
 8002444:	4770      	bx	lr

08002446 <HAL_CAN_RxFifo0FullCallback>:
  * @param  hcan pointer to a CAN_HandleTypeDef structure that contains
  *         the configuration information for the specified CAN.
  * @retval None
  */
__weak void HAL_CAN_RxFifo0FullCallback(CAN_HandleTypeDef *hcan)
{
 8002446:	b480      	push	{r7}
 8002448:	b083      	sub	sp, #12
 800244a:	af00      	add	r7, sp, #0
 800244c:	6078      	str	r0, [r7, #4]

  /* NOTE : This function Should not be modified, when the callback is needed,
            the HAL_CAN_RxFifo0FullCallback could be implemented in the user
            file
   */
}
 800244e:	bf00      	nop
 8002450:	370c      	adds	r7, #12
 8002452:	46bd      	mov	sp, r7
 8002454:	bc80      	pop	{r7}
 8002456:	4770      	bx	lr

08002458 <HAL_CAN_RxFifo1MsgPendingCallback>:
  * @param  hcan pointer to a CAN_HandleTypeDef structure that contains
  *         the configuration information for the specified CAN.
  * @retval None
  */
__weak void HAL_CAN_RxFifo1MsgPendingCallback(CAN_HandleTypeDef *hcan)
{
 8002458:	b480      	push	{r7}
 800245a:	b083      	sub	sp, #12
 800245c:	af00      	add	r7, sp, #0
 800245e:	6078      	str	r0, [r7, #4]

  /* NOTE : This function Should not be modified, when the callback is needed,
            the HAL_CAN_RxFifo1MsgPendingCallback could be implemented in the
            user file
   */
}
 8002460:	bf00      	nop
 8002462:	370c      	adds	r7, #12
 8002464:	46bd      	mov	sp, r7
 8002466:	bc80      	pop	{r7}
 8002468:	4770      	bx	lr

0800246a <HAL_CAN_RxFifo1FullCallback>:
  * @param  hcan pointer to a CAN_HandleTypeDef structure that contains
  *         the configuration information for the specified CAN.
  * @retval None
  */
__weak void HAL_CAN_RxFifo1FullCallback(CAN_HandleTypeDef *hcan)
{
 800246a:	b480      	push	{r7}
 800246c:	b083      	sub	sp, #12
 800246e:	af00      	add	r7, sp, #0
 8002470:	6078      	str	r0, [r7, #4]

  /* NOTE : This function Should not be modified, when the callback is needed,
            the HAL_CAN_RxFifo1FullCallback could be implemented in the user
            file
   */
}
 8002472:	bf00      	nop
 8002474:	370c      	adds	r7, #12
 8002476:	46bd      	mov	sp, r7
 8002478:	bc80      	pop	{r7}
 800247a:	4770      	bx	lr

0800247c <HAL_CAN_SleepCallback>:
  * @param  hcan pointer to a CAN_HandleTypeDef structure that contains
  *         the configuration information for the specified CAN.
  * @retval None
  */
__weak void HAL_CAN_SleepCallback(CAN_HandleTypeDef *hcan)
{
 800247c:	b480      	push	{r7}
 800247e:	b083      	sub	sp, #12
 8002480:	af00      	add	r7, sp, #0
 8002482:	6078      	str	r0, [r7, #4]
  UNUSED(hcan);

  /* NOTE : This function Should not be modified, when the callback is needed,
            the HAL_CAN_SleepCallback could be implemented in the user file
   */
}
 8002484:	bf00      	nop
 8002486:	370c      	adds	r7, #12
 8002488:	46bd      	mov	sp, r7
 800248a:	bc80      	pop	{r7}
 800248c:	4770      	bx	lr

0800248e <HAL_CAN_WakeUpFromRxMsgCallback>:
  * @param  hcan pointer to a CAN_HandleTypeDef structure that contains
  *         the configuration information for the specified CAN.
  * @retval None
  */
__weak void HAL_CAN_WakeUpFromRxMsgCallback(CAN_HandleTypeDef *hcan)
{
 800248e:	b480      	push	{r7}
 8002490:	b083      	sub	sp, #12
 8002492:	af00      	add	r7, sp, #0
 8002494:	6078      	str	r0, [r7, #4]

  /* NOTE : This function Should not be modified, when the callback is needed,
            the HAL_CAN_WakeUpFromRxMsgCallback could be implemented in the
            user file
   */
}
 8002496:	bf00      	nop
 8002498:	370c      	adds	r7, #12
 800249a:	46bd      	mov	sp, r7
 800249c:	bc80      	pop	{r7}
 800249e:	4770      	bx	lr

080024a0 <HAL_CAN_ErrorCallback>:
  * @param  hcan pointer to a CAN_HandleTypeDef structure that contains
  *         the configuration information for the specified CAN.
  * @retval None
  */
__weak void HAL_CAN_ErrorCallback(CAN_HandleTypeDef *hcan)
{
 80024a0:	b480      	push	{r7}
 80024a2:	b083      	sub	sp, #12
 80024a4:	af00      	add	r7, sp, #0
 80024a6:	6078      	str	r0, [r7, #4]
  UNUSED(hcan);

  /* NOTE : This function Should not be modified, when the callback is needed,
            the HAL_CAN_ErrorCallback could be implemented in the user file
   */
}
 80024a8:	bf00      	nop
 80024aa:	370c      	adds	r7, #12
 80024ac:	46bd      	mov	sp, r7
 80024ae:	bc80      	pop	{r7}
 80024b0:	4770      	bx	lr
	...

080024b4 <__NVIC_SetPriorityGrouping>:
           In case of a conflict between priority grouping and available
           priority bits (__NVIC_PRIO_BITS), the smallest possible priority group is set.
  \param [in]      PriorityGroup  Priority grouping field.
 */
__STATIC_INLINE void __NVIC_SetPriorityGrouping(uint32_t PriorityGroup)
{
 80024b4:	b480      	push	{r7}
 80024b6:	b085      	sub	sp, #20
 80024b8:	af00      	add	r7, sp, #0
 80024ba:	6078      	str	r0, [r7, #4]
  uint32_t reg_value;
  uint32_t PriorityGroupTmp = (PriorityGroup & (uint32_t)0x07UL);             /* only values 0..7 are used          */
 80024bc:	687b      	ldr	r3, [r7, #4]
 80024be:	f003 0307 	and.w	r3, r3, #7
 80024c2:	60fb      	str	r3, [r7, #12]

  reg_value  =  SCB->AIRCR;                                                   /* read old register configuration    */
 80024c4:	4b0c      	ldr	r3, [pc, #48]	; (80024f8 <__NVIC_SetPriorityGrouping+0x44>)
 80024c6:	68db      	ldr	r3, [r3, #12]
 80024c8:	60bb      	str	r3, [r7, #8]
  reg_value &= ~((uint32_t)(SCB_AIRCR_VECTKEY_Msk | SCB_AIRCR_PRIGROUP_Msk)); /* clear bits to change               */
 80024ca:	68ba      	ldr	r2, [r7, #8]
 80024cc:	f64f 03ff 	movw	r3, #63743	; 0xf8ff
 80024d0:	4013      	ands	r3, r2
 80024d2:	60bb      	str	r3, [r7, #8]
  reg_value  =  (reg_value                                   |
                ((uint32_t)0x5FAUL << SCB_AIRCR_VECTKEY_Pos) |
                (PriorityGroupTmp << SCB_AIRCR_PRIGROUP_Pos) );               /* Insert write key and priority group */
 80024d4:	68fb      	ldr	r3, [r7, #12]
 80024d6:	021a      	lsls	r2, r3, #8
                ((uint32_t)0x5FAUL << SCB_AIRCR_VECTKEY_Pos) |
 80024d8:	68bb      	ldr	r3, [r7, #8]
 80024da:	4313      	orrs	r3, r2
  reg_value  =  (reg_value                                   |
 80024dc:	f043 63bf 	orr.w	r3, r3, #100139008	; 0x5f80000
 80024e0:	f443 3300 	orr.w	r3, r3, #131072	; 0x20000
 80024e4:	60bb      	str	r3, [r7, #8]
  SCB->AIRCR =  reg_value;
 80024e6:	4a04      	ldr	r2, [pc, #16]	; (80024f8 <__NVIC_SetPriorityGrouping+0x44>)
 80024e8:	68bb      	ldr	r3, [r7, #8]
 80024ea:	60d3      	str	r3, [r2, #12]
}
 80024ec:	bf00      	nop
 80024ee:	3714      	adds	r7, #20
 80024f0:	46bd      	mov	sp, r7
 80024f2:	bc80      	pop	{r7}
 80024f4:	4770      	bx	lr
 80024f6:	bf00      	nop
 80024f8:	e000ed00 	.word	0xe000ed00

080024fc <__NVIC_GetPriorityGrouping>:
  \brief   Get Priority Grouping
  \details Reads the priority grouping field from the NVIC Interrupt Controller.
  \return                Priority grouping field (SCB->AIRCR [10:8] PRIGROUP field).
 */
__STATIC_INLINE uint32_t __NVIC_GetPriorityGrouping(void)
{
 80024fc:	b480      	push	{r7}
 80024fe:	af00      	add	r7, sp, #0
  return ((uint32_t)((SCB->AIRCR & SCB_AIRCR_PRIGROUP_Msk) >> SCB_AIRCR_PRIGROUP_Pos));
 8002500:	4b04      	ldr	r3, [pc, #16]	; (8002514 <__NVIC_GetPriorityGrouping+0x18>)
 8002502:	68db      	ldr	r3, [r3, #12]
 8002504:	0a1b      	lsrs	r3, r3, #8
 8002506:	f003 0307 	and.w	r3, r3, #7
}
 800250a:	4618      	mov	r0, r3
 800250c:	46bd      	mov	sp, r7
 800250e:	bc80      	pop	{r7}
 8002510:	4770      	bx	lr
 8002512:	bf00      	nop
 8002514:	e000ed00 	.word	0xe000ed00

08002518 <__NVIC_EnableIRQ>:
  \details Enables a device specific interrupt in the NVIC interrupt controller.
  \param [in]      IRQn  Device specific interrupt number.
  \note    IRQn must not be negative.
 */
__STATIC_INLINE void __NVIC_EnableIRQ(IRQn_Type IRQn)
{
 8002518:	b480      	push	{r7}
 800251a:	b083      	sub	sp, #12
 800251c:	af00      	add	r7, sp, #0
 800251e:	4603      	mov	r3, r0
 8002520:	71fb      	strb	r3, [r7, #7]
  if ((int32_t)(IRQn) >= 0)
 8002522:	f997 3007 	ldrsb.w	r3, [r7, #7]
 8002526:	2b00      	cmp	r3, #0
 8002528:	db0b      	blt.n	8002542 <__NVIC_EnableIRQ+0x2a>
  {
    NVIC->ISER[(((uint32_t)IRQn) >> 5UL)] = (uint32_t)(1UL << (((uint32_t)IRQn) & 0x1FUL));
 800252a:	79fb      	ldrb	r3, [r7, #7]
 800252c:	f003 021f 	and.w	r2, r3, #31
 8002530:	4906      	ldr	r1, [pc, #24]	; (800254c <__NVIC_EnableIRQ+0x34>)
 8002532:	f997 3007 	ldrsb.w	r3, [r7, #7]
 8002536:	095b      	lsrs	r3, r3, #5
 8002538:	2001      	movs	r0, #1
 800253a:	fa00 f202 	lsl.w	r2, r0, r2
 800253e:	f841 2023 	str.w	r2, [r1, r3, lsl #2]
  }
}
 8002542:	bf00      	nop
 8002544:	370c      	adds	r7, #12
 8002546:	46bd      	mov	sp, r7
 8002548:	bc80      	pop	{r7}
 800254a:	4770      	bx	lr
 800254c:	e000e100 	.word	0xe000e100

08002550 <__NVIC_SetPriority>:
  \param [in]      IRQn  Interrupt number.
  \param [in]  priority  Priority to set.
  \note    The priority cannot be set for every processor exception.
 */
__STATIC_INLINE void __NVIC_SetPriority(IRQn_Type IRQn, uint32_t priority)
{
 8002550:	b480      	push	{r7}
 8002552:	b083      	sub	sp, #12
 8002554:	af00      	add	r7, sp, #0
 8002556:	4603      	mov	r3, r0
 8002558:	6039      	str	r1, [r7, #0]
 800255a:	71fb      	strb	r3, [r7, #7]
  if ((int32_t)(IRQn) >= 0)
 800255c:	f997 3007 	ldrsb.w	r3, [r7, #7]
 8002560:	2b00      	cmp	r3, #0
 8002562:	db0a      	blt.n	800257a <__NVIC_SetPriority+0x2a>
  {
    NVIC->IP[((uint32_t)IRQn)]               = (uint8_t)((priority << (8U - __NVIC_PRIO_BITS)) & (uint32_t)0xFFUL);
 8002564:	683b      	ldr	r3, [r7, #0]
 8002566:	b2da      	uxtb	r2, r3
 8002568:	490c      	ldr	r1, [pc, #48]	; (800259c <__NVIC_SetPriority+0x4c>)
 800256a:	f997 3007 	ldrsb.w	r3, [r7, #7]
 800256e:	0112      	lsls	r2, r2, #4
 8002570:	b2d2      	uxtb	r2, r2
 8002572:	440b      	add	r3, r1
 8002574:	f883 2300 	strb.w	r2, [r3, #768]	; 0x300
  }
  else
  {
    SCB->SHP[(((uint32_t)IRQn) & 0xFUL)-4UL] = (uint8_t)((priority << (8U - __NVIC_PRIO_BITS)) & (uint32_t)0xFFUL);
  }
}
 8002578:	e00a      	b.n	8002590 <__NVIC_SetPriority+0x40>
    SCB->SHP[(((uint32_t)IRQn) & 0xFUL)-4UL] = (uint8_t)((priority << (8U - __NVIC_PRIO_BITS)) & (uint32_t)0xFFUL);
 800257a:	683b      	ldr	r3, [r7, #0]
 800257c:	b2da      	uxtb	r2, r3
 800257e:	4908      	ldr	r1, [pc, #32]	; (80025a0 <__NVIC_SetPriority+0x50>)
 8002580:	79fb      	ldrb	r3, [r7, #7]
 8002582:	f003 030f 	and.w	r3, r3, #15
 8002586:	3b04      	subs	r3, #4
 8002588:	0112      	lsls	r2, r2, #4
 800258a:	b2d2      	uxtb	r2, r2
 800258c:	440b      	add	r3, r1
 800258e:	761a      	strb	r2, [r3, #24]
}
 8002590:	bf00      	nop
 8002592:	370c      	adds	r7, #12
 8002594:	46bd      	mov	sp, r7
 8002596:	bc80      	pop	{r7}
 8002598:	4770      	bx	lr
 800259a:	bf00      	nop
 800259c:	e000e100 	.word	0xe000e100
 80025a0:	e000ed00 	.word	0xe000ed00

080025a4 <NVIC_EncodePriority>:
  \param [in]   PreemptPriority  Preemptive priority value (starting from 0).
  \param [in]       SubPriority  Subpriority value (starting from 0).
  \return                        Encoded priority. Value can be used in the function \ref NVIC_SetPriority().
 */
__STATIC_INLINE uint32_t NVIC_EncodePriority (uint32_t PriorityGroup, uint32_t PreemptPriority, uint32_t SubPriority)
{
 80025a4:	b480      	push	{r7}
 80025a6:	b089      	sub	sp, #36	; 0x24
 80025a8:	af00      	add	r7, sp, #0
 80025aa:	60f8      	str	r0, [r7, #12]
 80025ac:	60b9      	str	r1, [r7, #8]
 80025ae:	607a      	str	r2, [r7, #4]
  uint32_t PriorityGroupTmp = (PriorityGroup & (uint32_t)0x07UL);   /* only values 0..7 are used          */
 80025b0:	68fb      	ldr	r3, [r7, #12]
 80025b2:	f003 0307 	and.w	r3, r3, #7
 80025b6:	61fb      	str	r3, [r7, #28]
  uint32_t PreemptPriorityBits;
  uint32_t SubPriorityBits;

  PreemptPriorityBits = ((7UL - PriorityGroupTmp) > (uint32_t)(__NVIC_PRIO_BITS)) ? (uint32_t)(__NVIC_PRIO_BITS) : (uint32_t)(7UL - PriorityGroupTmp);
 80025b8:	69fb      	ldr	r3, [r7, #28]
 80025ba:	f1c3 0307 	rsb	r3, r3, #7
 80025be:	2b04      	cmp	r3, #4
 80025c0:	bf28      	it	cs
 80025c2:	2304      	movcs	r3, #4
 80025c4:	61bb      	str	r3, [r7, #24]
  SubPriorityBits     = ((PriorityGroupTmp + (uint32_t)(__NVIC_PRIO_BITS)) < (uint32_t)7UL) ? (uint32_t)0UL : (uint32_t)((PriorityGroupTmp - 7UL) + (uint32_t)(__NVIC_PRIO_BITS));
 80025c6:	69fb      	ldr	r3, [r7, #28]
 80025c8:	3304      	adds	r3, #4
 80025ca:	2b06      	cmp	r3, #6
 80025cc:	d902      	bls.n	80025d4 <NVIC_EncodePriority+0x30>
 80025ce:	69fb      	ldr	r3, [r7, #28]
 80025d0:	3b03      	subs	r3, #3
 80025d2:	e000      	b.n	80025d6 <NVIC_EncodePriority+0x32>
 80025d4:	2300      	movs	r3, #0
 80025d6:	617b      	str	r3, [r7, #20]

  return (
           ((PreemptPriority & (uint32_t)((1UL << (PreemptPriorityBits)) - 1UL)) << SubPriorityBits) |
 80025d8:	f04f 32ff 	mov.w	r2, #4294967295
 80025dc:	69bb      	ldr	r3, [r7, #24]
 80025de:	fa02 f303 	lsl.w	r3, r2, r3
 80025e2:	43da      	mvns	r2, r3
 80025e4:	68bb      	ldr	r3, [r7, #8]
 80025e6:	401a      	ands	r2, r3
 80025e8:	697b      	ldr	r3, [r7, #20]
 80025ea:	409a      	lsls	r2, r3
           ((SubPriority     & (uint32_t)((1UL << (SubPriorityBits    )) - 1UL)))
 80025ec:	f04f 31ff 	mov.w	r1, #4294967295
 80025f0:	697b      	ldr	r3, [r7, #20]
 80025f2:	fa01 f303 	lsl.w	r3, r1, r3
 80025f6:	43d9      	mvns	r1, r3
 80025f8:	687b      	ldr	r3, [r7, #4]
 80025fa:	400b      	ands	r3, r1
           ((PreemptPriority & (uint32_t)((1UL << (PreemptPriorityBits)) - 1UL)) << SubPriorityBits) |
 80025fc:	4313      	orrs	r3, r2
         );
}
 80025fe:	4618      	mov	r0, r3
 8002600:	3724      	adds	r7, #36	; 0x24
 8002602:	46bd      	mov	sp, r7
 8002604:	bc80      	pop	{r7}
 8002606:	4770      	bx	lr

08002608 <HAL_NVIC_SetPriorityGrouping>:
  * @note   When the NVIC_PriorityGroup_0 is selected, IRQ preemption is no more possible. 
  *         The pending IRQ priority will be managed only by the subpriority. 
  * @retval None
  */
void HAL_NVIC_SetPriorityGrouping(uint32_t PriorityGroup)
{
 8002608:	b580      	push	{r7, lr}
 800260a:	b082      	sub	sp, #8
 800260c:	af00      	add	r7, sp, #0
 800260e:	6078      	str	r0, [r7, #4]
  /* Check the parameters */
  assert_param(IS_NVIC_PRIORITY_GROUP(PriorityGroup));
  
  /* Set the PRIGROUP[10:8] bits according to the PriorityGroup parameter value */
  NVIC_SetPriorityGrouping(PriorityGroup);
 8002610:	6878      	ldr	r0, [r7, #4]
 8002612:	f7ff ff4f 	bl	80024b4 <__NVIC_SetPriorityGrouping>
}
 8002616:	bf00      	nop
 8002618:	3708      	adds	r7, #8
 800261a:	46bd      	mov	sp, r7
 800261c:	bd80      	pop	{r7, pc}

0800261e <HAL_NVIC_SetPriority>:
  *         This parameter can be a value between 0 and 15
  *         A lower priority value indicates a higher priority.          
  * @retval None
  */
void HAL_NVIC_SetPriority(IRQn_Type IRQn, uint32_t PreemptPriority, uint32_t SubPriority)
{ 
 800261e:	b580      	push	{r7, lr}
 8002620:	b086      	sub	sp, #24
 8002622:	af00      	add	r7, sp, #0
 8002624:	4603      	mov	r3, r0
 8002626:	60b9      	str	r1, [r7, #8]
 8002628:	607a      	str	r2, [r7, #4]
 800262a:	73fb      	strb	r3, [r7, #15]
  uint32_t prioritygroup = 0x00U;
 800262c:	2300      	movs	r3, #0
 800262e:	617b      	str	r3, [r7, #20]
  
  /* Check the parameters */
  assert_param(IS_NVIC_SUB_PRIORITY(SubPriority));
  assert_param(IS_NVIC_PREEMPTION_PRIORITY(PreemptPriority));
  
  prioritygroup = NVIC_GetPriorityGrouping();
 8002630:	f7ff ff64 	bl	80024fc <__NVIC_GetPriorityGrouping>
 8002634:	6178      	str	r0, [r7, #20]
  
  NVIC_SetPriority(IRQn, NVIC_EncodePriority(prioritygroup, PreemptPriority, SubPriority));
 8002636:	687a      	ldr	r2, [r7, #4]
 8002638:	68b9      	ldr	r1, [r7, #8]
 800263a:	6978      	ldr	r0, [r7, #20]
 800263c:	f7ff ffb2 	bl	80025a4 <NVIC_EncodePriority>
 8002640:	4602      	mov	r2, r0
 8002642:	f997 300f 	ldrsb.w	r3, [r7, #15]
 8002646:	4611      	mov	r1, r2
 8002648:	4618      	mov	r0, r3
 800264a:	f7ff ff81 	bl	8002550 <__NVIC_SetPriority>
}
 800264e:	bf00      	nop
 8002650:	3718      	adds	r7, #24
 8002652:	46bd      	mov	sp, r7
 8002654:	bd80      	pop	{r7, pc}

08002656 <HAL_NVIC_EnableIRQ>:
  *         This parameter can be an enumerator of IRQn_Type enumeration
  *         (For the complete STM32 Devices IRQ Channels list, please refer to the appropriate CMSIS device file (stm32f10xxx.h))
  * @retval None
  */
void HAL_NVIC_EnableIRQ(IRQn_Type IRQn)
{
 8002656:	b580      	push	{r7, lr}
 8002658:	b082      	sub	sp, #8
 800265a:	af00      	add	r7, sp, #0
 800265c:	4603      	mov	r3, r0
 800265e:	71fb      	strb	r3, [r7, #7]
  /* Check the parameters */
  assert_param(IS_NVIC_DEVICE_IRQ(IRQn));

  /* Enable interrupt */
  NVIC_EnableIRQ(IRQn);
 8002660:	f997 3007 	ldrsb.w	r3, [r7, #7]
 8002664:	4618      	mov	r0, r3
 8002666:	f7ff ff57 	bl	8002518 <__NVIC_EnableIRQ>
}
 800266a:	bf00      	nop
 800266c:	3708      	adds	r7, #8
 800266e:	46bd      	mov	sp, r7
 8002670:	bd80      	pop	{r7, pc}
	...

08002674 <HAL_DMA_Init>:
  * @param  hdma: Pointer to a DMA_HandleTypeDef structure that contains
  *               the configuration information for the specified DMA Channel.
  * @retval HAL status
  */
HAL_StatusTypeDef HAL_DMA_Init(DMA_HandleTypeDef *hdma)
{
 8002674:	b480      	push	{r7}
 8002676:	b085      	sub	sp, #20
 8002678:	af00      	add	r7, sp, #0
 800267a:	6078      	str	r0, [r7, #4]
  uint32_t tmp = 0U;
 800267c:	2300      	movs	r3, #0
 800267e:	60fb      	str	r3, [r7, #12]

  /* Check the DMA handle allocation */
  if(hdma == NULL)
 8002680:	687b      	ldr	r3, [r7, #4]
 8002682:	2b00      	cmp	r3, #0
 8002684:	d101      	bne.n	800268a <HAL_DMA_Init+0x16>
  {
    return HAL_ERROR;
 8002686:	2301      	movs	r3, #1
 8002688:	e043      	b.n	8002712 <HAL_DMA_Init+0x9e>
    hdma->ChannelIndex = (((uint32_t)hdma->Instance - (uint32_t)DMA2_Channel1) / ((uint32_t)DMA2_Channel2 - (uint32_t)DMA2_Channel1)) << 2;
    hdma->DmaBaseAddress = DMA2;
  }
#else
  /* DMA1 */
  hdma->ChannelIndex = (((uint32_t)hdma->Instance - (uint32_t)DMA1_Channel1) / ((uint32_t)DMA1_Channel2 - (uint32_t)DMA1_Channel1)) << 2;
 800268a:	687b      	ldr	r3, [r7, #4]
 800268c:	681b      	ldr	r3, [r3, #0]
 800268e:	461a      	mov	r2, r3
 8002690:	4b22      	ldr	r3, [pc, #136]	; (800271c <HAL_DMA_Init+0xa8>)
 8002692:	4413      	add	r3, r2
 8002694:	4a22      	ldr	r2, [pc, #136]	; (8002720 <HAL_DMA_Init+0xac>)
 8002696:	fba2 2303 	umull	r2, r3, r2, r3
 800269a:	091b      	lsrs	r3, r3, #4
 800269c:	009a      	lsls	r2, r3, #2
 800269e:	687b      	ldr	r3, [r7, #4]
 80026a0:	641a      	str	r2, [r3, #64]	; 0x40
  hdma->DmaBaseAddress = DMA1;
 80026a2:	687b      	ldr	r3, [r7, #4]
 80026a4:	4a1f      	ldr	r2, [pc, #124]	; (8002724 <HAL_DMA_Init+0xb0>)
 80026a6:	63da      	str	r2, [r3, #60]	; 0x3c
#endif /* DMA2 */

  /* Change DMA peripheral state */
  hdma->State = HAL_DMA_STATE_BUSY;
 80026a8:	687b      	ldr	r3, [r7, #4]
 80026aa:	2202      	movs	r2, #2
 80026ac:	f883 2021 	strb.w	r2, [r3, #33]	; 0x21

  /* Get the CR register value */
  tmp = hdma->Instance->CCR;
 80026b0:	687b      	ldr	r3, [r7, #4]
 80026b2:	681b      	ldr	r3, [r3, #0]
 80026b4:	681b      	ldr	r3, [r3, #0]
 80026b6:	60fb      	str	r3, [r7, #12]

  /* Clear PL, MSIZE, PSIZE, MINC, PINC, CIRC and DIR bits */
  tmp &= ((uint32_t)~(DMA_CCR_PL    | DMA_CCR_MSIZE  | DMA_CCR_PSIZE  | \
 80026b8:	68fb      	ldr	r3, [r7, #12]
 80026ba:	f423 537f 	bic.w	r3, r3, #16320	; 0x3fc0
 80026be:	f023 0330 	bic.w	r3, r3, #48	; 0x30
 80026c2:	60fb      	str	r3, [r7, #12]
                      DMA_CCR_MINC  | DMA_CCR_PINC   | DMA_CCR_CIRC   | \
                      DMA_CCR_DIR));

  /* Prepare the DMA Channel configuration */
  tmp |=  hdma->Init.Direction        |
 80026c4:	687b      	ldr	r3, [r7, #4]
 80026c6:	685a      	ldr	r2, [r3, #4]
          hdma->Init.PeriphInc           | hdma->Init.MemInc           |
 80026c8:	687b      	ldr	r3, [r7, #4]
 80026ca:	689b      	ldr	r3, [r3, #8]
  tmp |=  hdma->Init.Direction        |
 80026cc:	431a      	orrs	r2, r3
          hdma->Init.PeriphInc           | hdma->Init.MemInc           |
 80026ce:	687b      	ldr	r3, [r7, #4]
 80026d0:	68db      	ldr	r3, [r3, #12]
 80026d2:	431a      	orrs	r2, r3
          hdma->Init.PeriphDataAlignment | hdma->Init.MemDataAlignment |
 80026d4:	687b      	ldr	r3, [r7, #4]
 80026d6:	691b      	ldr	r3, [r3, #16]
          hdma->Init.PeriphInc           | hdma->Init.MemInc           |
 80026d8:	431a      	orrs	r2, r3
          hdma->Init.PeriphDataAlignment | hdma->Init.MemDataAlignment |
 80026da:	687b      	ldr	r3, [r7, #4]
 80026dc:	695b      	ldr	r3, [r3, #20]
 80026de:	431a      	orrs	r2, r3
          hdma->Init.Mode                | hdma->Init.Priority;
 80026e0:	687b      	ldr	r3, [r7, #4]
 80026e2:	699b      	ldr	r3, [r3, #24]
          hdma->Init.PeriphDataAlignment | hdma->Init.MemDataAlignment |
 80026e4:	431a      	orrs	r2, r3
          hdma->Init.Mode                | hdma->Init.Priority;
 80026e6:	687b      	ldr	r3, [r7, #4]
 80026e8:	69db      	ldr	r3, [r3, #28]
 80026ea:	4313      	orrs	r3, r2
  tmp |=  hdma->Init.Direction        |
 80026ec:	68fa      	ldr	r2, [r7, #12]
 80026ee:	4313      	orrs	r3, r2
 80026f0:	60fb      	str	r3, [r7, #12]

  /* Write to DMA Channel CR register */
  hdma->Instance->CCR = tmp;
 80026f2:	687b      	ldr	r3, [r7, #4]
 80026f4:	681b      	ldr	r3, [r3, #0]
 80026f6:	68fa      	ldr	r2, [r7, #12]
 80026f8:	601a      	str	r2, [r3, #0]

  /* Initialise the error code */
  hdma->ErrorCode = HAL_DMA_ERROR_NONE;
 80026fa:	687b      	ldr	r3, [r7, #4]
 80026fc:	2200      	movs	r2, #0
 80026fe:	639a      	str	r2, [r3, #56]	; 0x38

  /* Initialize the DMA state*/
  hdma->State = HAL_DMA_STATE_READY;
 8002700:	687b      	ldr	r3, [r7, #4]
 8002702:	2201      	movs	r2, #1
 8002704:	f883 2021 	strb.w	r2, [r3, #33]	; 0x21
  /* Allocate lock resource and initialize it */
  hdma->Lock = HAL_UNLOCKED;
 8002708:	687b      	ldr	r3, [r7, #4]
 800270a:	2200      	movs	r2, #0
 800270c:	f883 2020 	strb.w	r2, [r3, #32]

  return HAL_OK;
 8002710:	2300      	movs	r3, #0
}
 8002712:	4618      	mov	r0, r3
 8002714:	3714      	adds	r7, #20
 8002716:	46bd      	mov	sp, r7
 8002718:	bc80      	pop	{r7}
 800271a:	4770      	bx	lr
 800271c:	bffdfff8 	.word	0xbffdfff8
 8002720:	cccccccd 	.word	0xcccccccd
 8002724:	40020000 	.word	0x40020000

08002728 <HAL_DMA_Start_IT>:
  * @param  DstAddress: The destination memory Buffer address
  * @param  DataLength: The length of data to be transferred from source to destination
  * @retval HAL status
  */
HAL_StatusTypeDef HAL_DMA_Start_IT(DMA_HandleTypeDef *hdma, uint32_t SrcAddress, uint32_t DstAddress, uint32_t DataLength)
{
 8002728:	b580      	push	{r7, lr}
 800272a:	b086      	sub	sp, #24
 800272c:	af00      	add	r7, sp, #0
 800272e:	60f8      	str	r0, [r7, #12]
 8002730:	60b9      	str	r1, [r7, #8]
 8002732:	607a      	str	r2, [r7, #4]
 8002734:	603b      	str	r3, [r7, #0]
  HAL_StatusTypeDef status = HAL_OK;
 8002736:	2300      	movs	r3, #0
 8002738:	75fb      	strb	r3, [r7, #23]

  /* Check the parameters */
  assert_param(IS_DMA_BUFFER_SIZE(DataLength));

  /* Process locked */
  __HAL_LOCK(hdma);
 800273a:	68fb      	ldr	r3, [r7, #12]
 800273c:	f893 3020 	ldrb.w	r3, [r3, #32]
 8002740:	2b01      	cmp	r3, #1
 8002742:	d101      	bne.n	8002748 <HAL_DMA_Start_IT+0x20>
 8002744:	2302      	movs	r3, #2
 8002746:	e04a      	b.n	80027de <HAL_DMA_Start_IT+0xb6>
 8002748:	68fb      	ldr	r3, [r7, #12]
 800274a:	2201      	movs	r2, #1
 800274c:	f883 2020 	strb.w	r2, [r3, #32]
  
  if(HAL_DMA_STATE_READY == hdma->State)
 8002750:	68fb      	ldr	r3, [r7, #12]
 8002752:	f893 3021 	ldrb.w	r3, [r3, #33]	; 0x21
 8002756:	2b01      	cmp	r3, #1
 8002758:	d13a      	bne.n	80027d0 <HAL_DMA_Start_IT+0xa8>
  {
    /* Change DMA peripheral state */
    hdma->State = HAL_DMA_STATE_BUSY;
 800275a:	68fb      	ldr	r3, [r7, #12]
 800275c:	2202      	movs	r2, #2
 800275e:	f883 2021 	strb.w	r2, [r3, #33]	; 0x21
    hdma->ErrorCode = HAL_DMA_ERROR_NONE;
 8002762:	68fb      	ldr	r3, [r7, #12]
 8002764:	2200      	movs	r2, #0
 8002766:	639a      	str	r2, [r3, #56]	; 0x38
    
    /* Disable the peripheral */
    __HAL_DMA_DISABLE(hdma);
 8002768:	68fb      	ldr	r3, [r7, #12]
 800276a:	681b      	ldr	r3, [r3, #0]
 800276c:	681a      	ldr	r2, [r3, #0]
 800276e:	68fb      	ldr	r3, [r7, #12]
 8002770:	681b      	ldr	r3, [r3, #0]
 8002772:	f022 0201 	bic.w	r2, r2, #1
 8002776:	601a      	str	r2, [r3, #0]
    
    /* Configure the source, destination address and the data length & clear flags*/
    DMA_SetConfig(hdma, SrcAddress, DstAddress, DataLength);
 8002778:	683b      	ldr	r3, [r7, #0]
 800277a:	687a      	ldr	r2, [r7, #4]
 800277c:	68b9      	ldr	r1, [r7, #8]
 800277e:	68f8      	ldr	r0, [r7, #12]
 8002780:	f000 f938 	bl	80029f4 <DMA_SetConfig>
    
    /* Enable the transfer complete interrupt */
    /* Enable the transfer Error interrupt */
    if(NULL != hdma->XferHalfCpltCallback)
 8002784:	68fb      	ldr	r3, [r7, #12]
 8002786:	6adb      	ldr	r3, [r3, #44]	; 0x2c
 8002788:	2b00      	cmp	r3, #0
 800278a:	d008      	beq.n	800279e <HAL_DMA_Start_IT+0x76>
    {
      /* Enable the Half transfer complete interrupt as well */
      __HAL_DMA_ENABLE_IT(hdma, (DMA_IT_TC | DMA_IT_HT | DMA_IT_TE));
 800278c:	68fb      	ldr	r3, [r7, #12]
 800278e:	681b      	ldr	r3, [r3, #0]
 8002790:	681a      	ldr	r2, [r3, #0]
 8002792:	68fb      	ldr	r3, [r7, #12]
 8002794:	681b      	ldr	r3, [r3, #0]
 8002796:	f042 020e 	orr.w	r2, r2, #14
 800279a:	601a      	str	r2, [r3, #0]
 800279c:	e00f      	b.n	80027be <HAL_DMA_Start_IT+0x96>
    }
    else
    {
      __HAL_DMA_DISABLE_IT(hdma, DMA_IT_HT);
 800279e:	68fb      	ldr	r3, [r7, #12]
 80027a0:	681b      	ldr	r3, [r3, #0]
 80027a2:	681a      	ldr	r2, [r3, #0]
 80027a4:	68fb      	ldr	r3, [r7, #12]
 80027a6:	681b      	ldr	r3, [r3, #0]
 80027a8:	f022 0204 	bic.w	r2, r2, #4
 80027ac:	601a      	str	r2, [r3, #0]
      __HAL_DMA_ENABLE_IT(hdma, (DMA_IT_TC | DMA_IT_TE));
 80027ae:	68fb      	ldr	r3, [r7, #12]
 80027b0:	681b      	ldr	r3, [r3, #0]
 80027b2:	681a      	ldr	r2, [r3, #0]
 80027b4:	68fb      	ldr	r3, [r7, #12]
 80027b6:	681b      	ldr	r3, [r3, #0]
 80027b8:	f042 020a 	orr.w	r2, r2, #10
 80027bc:	601a      	str	r2, [r3, #0]
    }
    /* Enable the Peripheral */
    __HAL_DMA_ENABLE(hdma);
 80027be:	68fb      	ldr	r3, [r7, #12]
 80027c0:	681b      	ldr	r3, [r3, #0]
 80027c2:	681a      	ldr	r2, [r3, #0]
 80027c4:	68fb      	ldr	r3, [r7, #12]
 80027c6:	681b      	ldr	r3, [r3, #0]
 80027c8:	f042 0201 	orr.w	r2, r2, #1
 80027cc:	601a      	str	r2, [r3, #0]
 80027ce:	e005      	b.n	80027dc <HAL_DMA_Start_IT+0xb4>
  }
  else
  {      
    /* Process Unlocked */
    __HAL_UNLOCK(hdma); 
 80027d0:	68fb      	ldr	r3, [r7, #12]
 80027d2:	2200      	movs	r2, #0
 80027d4:	f883 2020 	strb.w	r2, [r3, #32]

    /* Remain BUSY */
    status = HAL_BUSY;
 80027d8:	2302      	movs	r3, #2
 80027da:	75fb      	strb	r3, [r7, #23]
  }    
  return status;
 80027dc:	7dfb      	ldrb	r3, [r7, #23]
}
 80027de:	4618      	mov	r0, r3
 80027e0:	3718      	adds	r7, #24
 80027e2:	46bd      	mov	sp, r7
 80027e4:	bd80      	pop	{r7, pc}
	...

080027e8 <HAL_DMA_IRQHandler>:
  * @param  hdma: pointer to a DMA_HandleTypeDef structure that contains
  *               the configuration information for the specified DMA Channel.  
  * @retval None
  */
void HAL_DMA_IRQHandler(DMA_HandleTypeDef *hdma)
{
 80027e8:	b580      	push	{r7, lr}
 80027ea:	b084      	sub	sp, #16
 80027ec:	af00      	add	r7, sp, #0
 80027ee:	6078      	str	r0, [r7, #4]
  uint32_t flag_it = hdma->DmaBaseAddress->ISR;
 80027f0:	687b      	ldr	r3, [r7, #4]
 80027f2:	6bdb      	ldr	r3, [r3, #60]	; 0x3c
 80027f4:	681b      	ldr	r3, [r3, #0]
 80027f6:	60fb      	str	r3, [r7, #12]
  uint32_t source_it = hdma->Instance->CCR;
 80027f8:	687b      	ldr	r3, [r7, #4]
 80027fa:	681b      	ldr	r3, [r3, #0]
 80027fc:	681b      	ldr	r3, [r3, #0]
 80027fe:	60bb      	str	r3, [r7, #8]
  
  /* Half Transfer Complete Interrupt management ******************************/
  if (((flag_it & (DMA_FLAG_HT1 << hdma->ChannelIndex)) != RESET) && ((source_it & DMA_IT_HT) != RESET))
 8002800:	687b      	ldr	r3, [r7, #4]
 8002802:	6c1b      	ldr	r3, [r3, #64]	; 0x40
 8002804:	2204      	movs	r2, #4
 8002806:	409a      	lsls	r2, r3
 8002808:	68fb      	ldr	r3, [r7, #12]
 800280a:	4013      	ands	r3, r2
 800280c:	2b00      	cmp	r3, #0
 800280e:	d04f      	beq.n	80028b0 <HAL_DMA_IRQHandler+0xc8>
 8002810:	68bb      	ldr	r3, [r7, #8]
 8002812:	f003 0304 	and.w	r3, r3, #4
 8002816:	2b00      	cmp	r3, #0
 8002818:	d04a      	beq.n	80028b0 <HAL_DMA_IRQHandler+0xc8>
  {
    /* Disable the half transfer interrupt if the DMA mode is not CIRCULAR */
    if((hdma->Instance->CCR & DMA_CCR_CIRC) == 0U)
 800281a:	687b      	ldr	r3, [r7, #4]
 800281c:	681b      	ldr	r3, [r3, #0]
 800281e:	681b      	ldr	r3, [r3, #0]
 8002820:	f003 0320 	and.w	r3, r3, #32
 8002824:	2b00      	cmp	r3, #0
 8002826:	d107      	bne.n	8002838 <HAL_DMA_IRQHandler+0x50>
    {
      /* Disable the half transfer interrupt */
      __HAL_DMA_DISABLE_IT(hdma, DMA_IT_HT);
 8002828:	687b      	ldr	r3, [r7, #4]
 800282a:	681b      	ldr	r3, [r3, #0]
 800282c:	681a      	ldr	r2, [r3, #0]
 800282e:	687b      	ldr	r3, [r7, #4]
 8002830:	681b      	ldr	r3, [r3, #0]
 8002832:	f022 0204 	bic.w	r2, r2, #4
 8002836:	601a      	str	r2, [r3, #0]
    }
    /* Clear the half transfer complete flag */
    __HAL_DMA_CLEAR_FLAG(hdma, __HAL_DMA_GET_HT_FLAG_INDEX(hdma));
 8002838:	687b      	ldr	r3, [r7, #4]
 800283a:	681b      	ldr	r3, [r3, #0]
 800283c:	4a66      	ldr	r2, [pc, #408]	; (80029d8 <HAL_DMA_IRQHandler+0x1f0>)
 800283e:	4293      	cmp	r3, r2
 8002840:	d029      	beq.n	8002896 <HAL_DMA_IRQHandler+0xae>
 8002842:	687b      	ldr	r3, [r7, #4]
 8002844:	681b      	ldr	r3, [r3, #0]
 8002846:	4a65      	ldr	r2, [pc, #404]	; (80029dc <HAL_DMA_IRQHandler+0x1f4>)
 8002848:	4293      	cmp	r3, r2
 800284a:	d022      	beq.n	8002892 <HAL_DMA_IRQHandler+0xaa>
 800284c:	687b      	ldr	r3, [r7, #4]
 800284e:	681b      	ldr	r3, [r3, #0]
 8002850:	4a63      	ldr	r2, [pc, #396]	; (80029e0 <HAL_DMA_IRQHandler+0x1f8>)
 8002852:	4293      	cmp	r3, r2
 8002854:	d01a      	beq.n	800288c <HAL_DMA_IRQHandler+0xa4>
 8002856:	687b      	ldr	r3, [r7, #4]
 8002858:	681b      	ldr	r3, [r3, #0]
 800285a:	4a62      	ldr	r2, [pc, #392]	; (80029e4 <HAL_DMA_IRQHandler+0x1fc>)
 800285c:	4293      	cmp	r3, r2
 800285e:	d012      	beq.n	8002886 <HAL_DMA_IRQHandler+0x9e>
 8002860:	687b      	ldr	r3, [r7, #4]
 8002862:	681b      	ldr	r3, [r3, #0]
 8002864:	4a60      	ldr	r2, [pc, #384]	; (80029e8 <HAL_DMA_IRQHandler+0x200>)
 8002866:	4293      	cmp	r3, r2
 8002868:	d00a      	beq.n	8002880 <HAL_DMA_IRQHandler+0x98>
 800286a:	687b      	ldr	r3, [r7, #4]
 800286c:	681b      	ldr	r3, [r3, #0]
 800286e:	4a5f      	ldr	r2, [pc, #380]	; (80029ec <HAL_DMA_IRQHandler+0x204>)
 8002870:	4293      	cmp	r3, r2
 8002872:	d102      	bne.n	800287a <HAL_DMA_IRQHandler+0x92>
 8002874:	f44f 0380 	mov.w	r3, #4194304	; 0x400000
 8002878:	e00e      	b.n	8002898 <HAL_DMA_IRQHandler+0xb0>
 800287a:	f04f 6380 	mov.w	r3, #67108864	; 0x4000000
 800287e:	e00b      	b.n	8002898 <HAL_DMA_IRQHandler+0xb0>
 8002880:	f44f 2380 	mov.w	r3, #262144	; 0x40000
 8002884:	e008      	b.n	8002898 <HAL_DMA_IRQHandler+0xb0>
 8002886:	f44f 4380 	mov.w	r3, #16384	; 0x4000
 800288a:	e005      	b.n	8002898 <HAL_DMA_IRQHandler+0xb0>
 800288c:	f44f 6380 	mov.w	r3, #1024	; 0x400
 8002890:	e002      	b.n	8002898 <HAL_DMA_IRQHandler+0xb0>
 8002892:	2340      	movs	r3, #64	; 0x40
 8002894:	e000      	b.n	8002898 <HAL_DMA_IRQHandler+0xb0>
 8002896:	2304      	movs	r3, #4
 8002898:	4a55      	ldr	r2, [pc, #340]	; (80029f0 <HAL_DMA_IRQHandler+0x208>)
 800289a:	6053      	str	r3, [r2, #4]

    /* DMA peripheral state is not updated in Half Transfer */
    /* but in Transfer Complete case */

    if(hdma->XferHalfCpltCallback != NULL)
 800289c:	687b      	ldr	r3, [r7, #4]
 800289e:	6adb      	ldr	r3, [r3, #44]	; 0x2c
 80028a0:	2b00      	cmp	r3, #0
 80028a2:	f000 8094 	beq.w	80029ce <HAL_DMA_IRQHandler+0x1e6>
    {
      /* Half transfer callback */
      hdma->XferHalfCpltCallback(hdma);
 80028a6:	687b      	ldr	r3, [r7, #4]
 80028a8:	6adb      	ldr	r3, [r3, #44]	; 0x2c
 80028aa:	6878      	ldr	r0, [r7, #4]
 80028ac:	4798      	blx	r3
    if(hdma->XferHalfCpltCallback != NULL)
 80028ae:	e08e      	b.n	80029ce <HAL_DMA_IRQHandler+0x1e6>
    }
  }

  /* Transfer Complete Interrupt management ***********************************/
  else if (((flag_it & (DMA_FLAG_TC1 << hdma->ChannelIndex)) != RESET) && ((source_it & DMA_IT_TC) != RESET))
 80028b0:	687b      	ldr	r3, [r7, #4]
 80028b2:	6c1b      	ldr	r3, [r3, #64]	; 0x40
 80028b4:	2202      	movs	r2, #2
 80028b6:	409a      	lsls	r2, r3
 80028b8:	68fb      	ldr	r3, [r7, #12]
 80028ba:	4013      	ands	r3, r2
 80028bc:	2b00      	cmp	r3, #0
 80028be:	d056      	beq.n	800296e <HAL_DMA_IRQHandler+0x186>
 80028c0:	68bb      	ldr	r3, [r7, #8]
 80028c2:	f003 0302 	and.w	r3, r3, #2
 80028c6:	2b00      	cmp	r3, #0
 80028c8:	d051      	beq.n	800296e <HAL_DMA_IRQHandler+0x186>
  {
    if((hdma->Instance->CCR & DMA_CCR_CIRC) == 0U)
 80028ca:	687b      	ldr	r3, [r7, #4]
 80028cc:	681b      	ldr	r3, [r3, #0]
 80028ce:	681b      	ldr	r3, [r3, #0]
 80028d0:	f003 0320 	and.w	r3, r3, #32
 80028d4:	2b00      	cmp	r3, #0
 80028d6:	d10b      	bne.n	80028f0 <HAL_DMA_IRQHandler+0x108>
    {
      /* Disable the transfer complete and error interrupt */
      __HAL_DMA_DISABLE_IT(hdma, DMA_IT_TE | DMA_IT_TC);  
 80028d8:	687b      	ldr	r3, [r7, #4]
 80028da:	681b      	ldr	r3, [r3, #0]
 80028dc:	681a      	ldr	r2, [r3, #0]
 80028de:	687b      	ldr	r3, [r7, #4]
 80028e0:	681b      	ldr	r3, [r3, #0]
 80028e2:	f022 020a 	bic.w	r2, r2, #10
 80028e6:	601a      	str	r2, [r3, #0]

      /* Change the DMA state */
      hdma->State = HAL_DMA_STATE_READY;
 80028e8:	687b      	ldr	r3, [r7, #4]
 80028ea:	2201      	movs	r2, #1
 80028ec:	f883 2021 	strb.w	r2, [r3, #33]	; 0x21
    }
    /* Clear the transfer complete flag */
      __HAL_DMA_CLEAR_FLAG(hdma, __HAL_DMA_GET_TC_FLAG_INDEX(hdma));
 80028f0:	687b      	ldr	r3, [r7, #4]
 80028f2:	681b      	ldr	r3, [r3, #0]
 80028f4:	4a38      	ldr	r2, [pc, #224]	; (80029d8 <HAL_DMA_IRQHandler+0x1f0>)
 80028f6:	4293      	cmp	r3, r2
 80028f8:	d029      	beq.n	800294e <HAL_DMA_IRQHandler+0x166>
 80028fa:	687b      	ldr	r3, [r7, #4]
 80028fc:	681b      	ldr	r3, [r3, #0]
 80028fe:	4a37      	ldr	r2, [pc, #220]	; (80029dc <HAL_DMA_IRQHandler+0x1f4>)
 8002900:	4293      	cmp	r3, r2
 8002902:	d022      	beq.n	800294a <HAL_DMA_IRQHandler+0x162>
 8002904:	687b      	ldr	r3, [r7, #4]
 8002906:	681b      	ldr	r3, [r3, #0]
 8002908:	4a35      	ldr	r2, [pc, #212]	; (80029e0 <HAL_DMA_IRQHandler+0x1f8>)
 800290a:	4293      	cmp	r3, r2
 800290c:	d01a      	beq.n	8002944 <HAL_DMA_IRQHandler+0x15c>
 800290e:	687b      	ldr	r3, [r7, #4]
 8002910:	681b      	ldr	r3, [r3, #0]
 8002912:	4a34      	ldr	r2, [pc, #208]	; (80029e4 <HAL_DMA_IRQHandler+0x1fc>)
 8002914:	4293      	cmp	r3, r2
 8002916:	d012      	beq.n	800293e <HAL_DMA_IRQHandler+0x156>
 8002918:	687b      	ldr	r3, [r7, #4]
 800291a:	681b      	ldr	r3, [r3, #0]
 800291c:	4a32      	ldr	r2, [pc, #200]	; (80029e8 <HAL_DMA_IRQHandler+0x200>)
 800291e:	4293      	cmp	r3, r2
 8002920:	d00a      	beq.n	8002938 <HAL_DMA_IRQHandler+0x150>
 8002922:	687b      	ldr	r3, [r7, #4]
 8002924:	681b      	ldr	r3, [r3, #0]
 8002926:	4a31      	ldr	r2, [pc, #196]	; (80029ec <HAL_DMA_IRQHandler+0x204>)
 8002928:	4293      	cmp	r3, r2
 800292a:	d102      	bne.n	8002932 <HAL_DMA_IRQHandler+0x14a>
 800292c:	f44f 1300 	mov.w	r3, #2097152	; 0x200000
 8002930:	e00e      	b.n	8002950 <HAL_DMA_IRQHandler+0x168>
 8002932:	f04f 7300 	mov.w	r3, #33554432	; 0x2000000
 8002936:	e00b      	b.n	8002950 <HAL_DMA_IRQHandler+0x168>
 8002938:	f44f 3300 	mov.w	r3, #131072	; 0x20000
 800293c:	e008      	b.n	8002950 <HAL_DMA_IRQHandler+0x168>
 800293e:	f44f 5300 	mov.w	r3, #8192	; 0x2000
 8002942:	e005      	b.n	8002950 <HAL_DMA_IRQHandler+0x168>
 8002944:	f44f 7300 	mov.w	r3, #512	; 0x200
 8002948:	e002      	b.n	8002950 <HAL_DMA_IRQHandler+0x168>
 800294a:	2320      	movs	r3, #32
 800294c:	e000      	b.n	8002950 <HAL_DMA_IRQHandler+0x168>
 800294e:	2302      	movs	r3, #2
 8002950:	4a27      	ldr	r2, [pc, #156]	; (80029f0 <HAL_DMA_IRQHandler+0x208>)
 8002952:	6053      	str	r3, [r2, #4]

    /* Process Unlocked */
    __HAL_UNLOCK(hdma);
 8002954:	687b      	ldr	r3, [r7, #4]
 8002956:	2200      	movs	r2, #0
 8002958:	f883 2020 	strb.w	r2, [r3, #32]

    if(hdma->XferCpltCallback != NULL)
 800295c:	687b      	ldr	r3, [r7, #4]
 800295e:	6a9b      	ldr	r3, [r3, #40]	; 0x28
 8002960:	2b00      	cmp	r3, #0
 8002962:	d034      	beq.n	80029ce <HAL_DMA_IRQHandler+0x1e6>
    {
      /* Transfer complete callback */
      hdma->XferCpltCallback(hdma);
 8002964:	687b      	ldr	r3, [r7, #4]
 8002966:	6a9b      	ldr	r3, [r3, #40]	; 0x28
 8002968:	6878      	ldr	r0, [r7, #4]
 800296a:	4798      	blx	r3
    if(hdma->XferCpltCallback != NULL)
 800296c:	e02f      	b.n	80029ce <HAL_DMA_IRQHandler+0x1e6>
    }
  }

  /* Transfer Error Interrupt management **************************************/
  else if (( RESET != (flag_it & (DMA_FLAG_TE1 << hdma->ChannelIndex))) && (RESET != (source_it & DMA_IT_TE)))
 800296e:	687b      	ldr	r3, [r7, #4]
 8002970:	6c1b      	ldr	r3, [r3, #64]	; 0x40
 8002972:	2208      	movs	r2, #8
 8002974:	409a      	lsls	r2, r3
 8002976:	68fb      	ldr	r3, [r7, #12]
 8002978:	4013      	ands	r3, r2
 800297a:	2b00      	cmp	r3, #0
 800297c:	d028      	beq.n	80029d0 <HAL_DMA_IRQHandler+0x1e8>
 800297e:	68bb      	ldr	r3, [r7, #8]
 8002980:	f003 0308 	and.w	r3, r3, #8
 8002984:	2b00      	cmp	r3, #0
 8002986:	d023      	beq.n	80029d0 <HAL_DMA_IRQHandler+0x1e8>
  {
    /* When a DMA transfer error occurs */
    /* A hardware clear of its EN bits is performed */
    /* Disable ALL DMA IT */
    __HAL_DMA_DISABLE_IT(hdma, (DMA_IT_TC | DMA_IT_HT | DMA_IT_TE));
 8002988:	687b      	ldr	r3, [r7, #4]
 800298a:	681b      	ldr	r3, [r3, #0]
 800298c:	681a      	ldr	r2, [r3, #0]
 800298e:	687b      	ldr	r3, [r7, #4]
 8002990:	681b      	ldr	r3, [r3, #0]
 8002992:	f022 020e 	bic.w	r2, r2, #14
 8002996:	601a      	str	r2, [r3, #0]

    /* Clear all flags */
    hdma->DmaBaseAddress->IFCR = (DMA_ISR_GIF1 << hdma->ChannelIndex);
 8002998:	687b      	ldr	r3, [r7, #4]
 800299a:	6c1a      	ldr	r2, [r3, #64]	; 0x40
 800299c:	687b      	ldr	r3, [r7, #4]
 800299e:	6bdb      	ldr	r3, [r3, #60]	; 0x3c
 80029a0:	2101      	movs	r1, #1
 80029a2:	fa01 f202 	lsl.w	r2, r1, r2
 80029a6:	605a      	str	r2, [r3, #4]

    /* Update error code */
    hdma->ErrorCode = HAL_DMA_ERROR_TE;
 80029a8:	687b      	ldr	r3, [r7, #4]
 80029aa:	2201      	movs	r2, #1
 80029ac:	639a      	str	r2, [r3, #56]	; 0x38

    /* Change the DMA state */
    hdma->State = HAL_DMA_STATE_READY;
 80029ae:	687b      	ldr	r3, [r7, #4]
 80029b0:	2201      	movs	r2, #1
 80029b2:	f883 2021 	strb.w	r2, [r3, #33]	; 0x21

    /* Process Unlocked */
    __HAL_UNLOCK(hdma);
 80029b6:	687b      	ldr	r3, [r7, #4]
 80029b8:	2200      	movs	r2, #0
 80029ba:	f883 2020 	strb.w	r2, [r3, #32]

    if (hdma->XferErrorCallback != NULL)
 80029be:	687b      	ldr	r3, [r7, #4]
 80029c0:	6b1b      	ldr	r3, [r3, #48]	; 0x30
 80029c2:	2b00      	cmp	r3, #0
 80029c4:	d004      	beq.n	80029d0 <HAL_DMA_IRQHandler+0x1e8>
    {
      /* Transfer error callback */
      hdma->XferErrorCallback(hdma);
 80029c6:	687b      	ldr	r3, [r7, #4]
 80029c8:	6b1b      	ldr	r3, [r3, #48]	; 0x30
 80029ca:	6878      	ldr	r0, [r7, #4]
 80029cc:	4798      	blx	r3
    }
  }
  return;
 80029ce:	bf00      	nop
 80029d0:	bf00      	nop
}
 80029d2:	3710      	adds	r7, #16
 80029d4:	46bd      	mov	sp, r7
 80029d6:	bd80      	pop	{r7, pc}
 80029d8:	40020008 	.word	0x40020008
 80029dc:	4002001c 	.word	0x4002001c
 80029e0:	40020030 	.word	0x40020030
 80029e4:	40020044 	.word	0x40020044
 80029e8:	40020058 	.word	0x40020058
 80029ec:	4002006c 	.word	0x4002006c
 80029f0:	40020000 	.word	0x40020000

080029f4 <DMA_SetConfig>:
  * @param  DstAddress: The destination memory Buffer address
  * @param  DataLength: The length of data to be transferred from source to destination
  * @retval HAL status
  */
static void DMA_SetConfig(DMA_HandleTypeDef *hdma, uint32_t SrcAddress, uint32_t DstAddress, uint32_t DataLength)
{
 80029f4:	b480      	push	{r7}
 80029f6:	b085      	sub	sp, #20
 80029f8:	af00      	add	r7, sp, #0
 80029fa:	60f8      	str	r0, [r7, #12]
 80029fc:	60b9      	str	r1, [r7, #8]
 80029fe:	607a      	str	r2, [r7, #4]
 8002a00:	603b      	str	r3, [r7, #0]
  /* Clear all flags */
  hdma->DmaBaseAddress->IFCR = (DMA_ISR_GIF1 << hdma->ChannelIndex);
 8002a02:	68fb      	ldr	r3, [r7, #12]
 8002a04:	6c1a      	ldr	r2, [r3, #64]	; 0x40
 8002a06:	68fb      	ldr	r3, [r7, #12]
 8002a08:	6bdb      	ldr	r3, [r3, #60]	; 0x3c
 8002a0a:	2101      	movs	r1, #1
 8002a0c:	fa01 f202 	lsl.w	r2, r1, r2
 8002a10:	605a      	str	r2, [r3, #4]

  /* Configure DMA Channel data length */
  hdma->Instance->CNDTR = DataLength;
 8002a12:	68fb      	ldr	r3, [r7, #12]
 8002a14:	681b      	ldr	r3, [r3, #0]
 8002a16:	683a      	ldr	r2, [r7, #0]
 8002a18:	605a      	str	r2, [r3, #4]

  /* Memory to Peripheral */
  if((hdma->Init.Direction) == DMA_MEMORY_TO_PERIPH)
 8002a1a:	68fb      	ldr	r3, [r7, #12]
 8002a1c:	685b      	ldr	r3, [r3, #4]
 8002a1e:	2b10      	cmp	r3, #16
 8002a20:	d108      	bne.n	8002a34 <DMA_SetConfig+0x40>
  {
    /* Configure DMA Channel destination address */
    hdma->Instance->CPAR = DstAddress;
 8002a22:	68fb      	ldr	r3, [r7, #12]
 8002a24:	681b      	ldr	r3, [r3, #0]
 8002a26:	687a      	ldr	r2, [r7, #4]
 8002a28:	609a      	str	r2, [r3, #8]

    /* Configure DMA Channel source address */
    hdma->Instance->CMAR = SrcAddress;
 8002a2a:	68fb      	ldr	r3, [r7, #12]
 8002a2c:	681b      	ldr	r3, [r3, #0]
 8002a2e:	68ba      	ldr	r2, [r7, #8]
 8002a30:	60da      	str	r2, [r3, #12]
    hdma->Instance->CPAR = SrcAddress;

    /* Configure DMA Channel destination address */
    hdma->Instance->CMAR = DstAddress;
  }
}
 8002a32:	e007      	b.n	8002a44 <DMA_SetConfig+0x50>
    hdma->Instance->CPAR = SrcAddress;
 8002a34:	68fb      	ldr	r3, [r7, #12]
 8002a36:	681b      	ldr	r3, [r3, #0]
 8002a38:	68ba      	ldr	r2, [r7, #8]
 8002a3a:	609a      	str	r2, [r3, #8]
    hdma->Instance->CMAR = DstAddress;
 8002a3c:	68fb      	ldr	r3, [r7, #12]
 8002a3e:	681b      	ldr	r3, [r3, #0]
 8002a40:	687a      	ldr	r2, [r7, #4]
 8002a42:	60da      	str	r2, [r3, #12]
}
 8002a44:	bf00      	nop
 8002a46:	3714      	adds	r7, #20
 8002a48:	46bd      	mov	sp, r7
 8002a4a:	bc80      	pop	{r7}
 8002a4c:	4770      	bx	lr
	...

08002a50 <HAL_FLASH_Program>:
  * @param  Data:         Specifies the data to be programmed
  * 
  * @retval HAL_StatusTypeDef HAL Status
  */
HAL_StatusTypeDef HAL_FLASH_Program(uint32_t TypeProgram, uint32_t Address, uint64_t Data)
{
 8002a50:	b5f0      	push	{r4, r5, r6, r7, lr}
 8002a52:	b087      	sub	sp, #28
 8002a54:	af00      	add	r7, sp, #0
 8002a56:	60f8      	str	r0, [r7, #12]
 8002a58:	60b9      	str	r1, [r7, #8]
 8002a5a:	e9c7 2300 	strd	r2, r3, [r7]
  HAL_StatusTypeDef status = HAL_ERROR;
 8002a5e:	2301      	movs	r3, #1
 8002a60:	75fb      	strb	r3, [r7, #23]
  uint8_t index = 0;
 8002a62:	2300      	movs	r3, #0
 8002a64:	75bb      	strb	r3, [r7, #22]
  uint8_t nbiterations = 0;
 8002a66:	2300      	movs	r3, #0
 8002a68:	757b      	strb	r3, [r7, #21]
  
  /* Process Locked */
  __HAL_LOCK(&pFlash);
 8002a6a:	4b2f      	ldr	r3, [pc, #188]	; (8002b28 <HAL_FLASH_Program+0xd8>)
 8002a6c:	7e1b      	ldrb	r3, [r3, #24]
 8002a6e:	2b01      	cmp	r3, #1
 8002a70:	d101      	bne.n	8002a76 <HAL_FLASH_Program+0x26>
 8002a72:	2302      	movs	r3, #2
 8002a74:	e054      	b.n	8002b20 <HAL_FLASH_Program+0xd0>
 8002a76:	4b2c      	ldr	r3, [pc, #176]	; (8002b28 <HAL_FLASH_Program+0xd8>)
 8002a78:	2201      	movs	r2, #1
 8002a7a:	761a      	strb	r2, [r3, #24]
#if defined(FLASH_BANK2_END)
  if(Address <= FLASH_BANK1_END)
  {
#endif /* FLASH_BANK2_END */
    /* Wait for last operation to be completed */
    status = FLASH_WaitForLastOperation(FLASH_TIMEOUT_VALUE);
 8002a7c:	f24c 3050 	movw	r0, #50000	; 0xc350
 8002a80:	f000 f8b2 	bl	8002be8 <FLASH_WaitForLastOperation>
 8002a84:	4603      	mov	r3, r0
 8002a86:	75fb      	strb	r3, [r7, #23]
    /* Wait for last operation to be completed */
    status = FLASH_WaitForLastOperationBank2(FLASH_TIMEOUT_VALUE);
  }
#endif /* FLASH_BANK2_END */
  
  if(status == HAL_OK)
 8002a88:	7dfb      	ldrb	r3, [r7, #23]
 8002a8a:	2b00      	cmp	r3, #0
 8002a8c:	d144      	bne.n	8002b18 <HAL_FLASH_Program+0xc8>
  {
    if(TypeProgram == FLASH_TYPEPROGRAM_HALFWORD)
 8002a8e:	68fb      	ldr	r3, [r7, #12]
 8002a90:	2b01      	cmp	r3, #1
 8002a92:	d102      	bne.n	8002a9a <HAL_FLASH_Program+0x4a>
    {
      /* Program halfword (16-bit) at a specified address. */
      nbiterations = 1U;
 8002a94:	2301      	movs	r3, #1
 8002a96:	757b      	strb	r3, [r7, #21]
 8002a98:	e007      	b.n	8002aaa <HAL_FLASH_Program+0x5a>
    }
    else if(TypeProgram == FLASH_TYPEPROGRAM_WORD)
 8002a9a:	68fb      	ldr	r3, [r7, #12]
 8002a9c:	2b02      	cmp	r3, #2
 8002a9e:	d102      	bne.n	8002aa6 <HAL_FLASH_Program+0x56>
    {
      /* Program word (32-bit = 2*16-bit) at a specified address. */
      nbiterations = 2U;
 8002aa0:	2302      	movs	r3, #2
 8002aa2:	757b      	strb	r3, [r7, #21]
 8002aa4:	e001      	b.n	8002aaa <HAL_FLASH_Program+0x5a>
    }
    else
    {
      /* Program double word (64-bit = 4*16-bit) at a specified address. */
      nbiterations = 4U;
 8002aa6:	2304      	movs	r3, #4
 8002aa8:	757b      	strb	r3, [r7, #21]
    }

    for (index = 0U; index < nbiterations; index++)
 8002aaa:	2300      	movs	r3, #0
 8002aac:	75bb      	strb	r3, [r7, #22]
 8002aae:	e02d      	b.n	8002b0c <HAL_FLASH_Program+0xbc>
    {
      FLASH_Program_HalfWord((Address + (2U*index)), (uint16_t)(Data >> (16U*index)));
 8002ab0:	7dbb      	ldrb	r3, [r7, #22]
 8002ab2:	005a      	lsls	r2, r3, #1
 8002ab4:	68bb      	ldr	r3, [r7, #8]
 8002ab6:	eb02 0c03 	add.w	ip, r2, r3
 8002aba:	7dbb      	ldrb	r3, [r7, #22]
 8002abc:	0119      	lsls	r1, r3, #4
 8002abe:	e9d7 2300 	ldrd	r2, r3, [r7]
 8002ac2:	f1c1 0620 	rsb	r6, r1, #32
 8002ac6:	f1a1 0020 	sub.w	r0, r1, #32
 8002aca:	fa22 f401 	lsr.w	r4, r2, r1
 8002ace:	fa03 f606 	lsl.w	r6, r3, r6
 8002ad2:	4334      	orrs	r4, r6
 8002ad4:	fa23 f000 	lsr.w	r0, r3, r0
 8002ad8:	4304      	orrs	r4, r0
 8002ada:	fa23 f501 	lsr.w	r5, r3, r1
 8002ade:	b2a3      	uxth	r3, r4
 8002ae0:	4619      	mov	r1, r3
 8002ae2:	4660      	mov	r0, ip
 8002ae4:	f000 f864 	bl	8002bb0 <FLASH_Program_HalfWord>
#if defined(FLASH_BANK2_END)
      if(Address <= FLASH_BANK1_END)
      {
#endif /* FLASH_BANK2_END */
        /* Wait for last operation to be completed */
        status = FLASH_WaitForLastOperation(FLASH_TIMEOUT_VALUE);
 8002ae8:	f24c 3050 	movw	r0, #50000	; 0xc350
 8002aec:	f000 f87c 	bl	8002be8 <FLASH_WaitForLastOperation>
 8002af0:	4603      	mov	r3, r0
 8002af2:	75fb      	strb	r3, [r7, #23]
    
        /* If the program operation is completed, disable the PG Bit */
        CLEAR_BIT(FLASH->CR, FLASH_CR_PG);
 8002af4:	4b0d      	ldr	r3, [pc, #52]	; (8002b2c <HAL_FLASH_Program+0xdc>)
 8002af6:	691b      	ldr	r3, [r3, #16]
 8002af8:	4a0c      	ldr	r2, [pc, #48]	; (8002b2c <HAL_FLASH_Program+0xdc>)
 8002afa:	f023 0301 	bic.w	r3, r3, #1
 8002afe:	6113      	str	r3, [r2, #16]
        /* If the program operation is completed, disable the PG Bit */
        CLEAR_BIT(FLASH->CR2, FLASH_CR2_PG);
      }
#endif /* FLASH_BANK2_END */
      /* In case of error, stop programation procedure */
      if (status != HAL_OK)
 8002b00:	7dfb      	ldrb	r3, [r7, #23]
 8002b02:	2b00      	cmp	r3, #0
 8002b04:	d107      	bne.n	8002b16 <HAL_FLASH_Program+0xc6>
    for (index = 0U; index < nbiterations; index++)
 8002b06:	7dbb      	ldrb	r3, [r7, #22]
 8002b08:	3301      	adds	r3, #1
 8002b0a:	75bb      	strb	r3, [r7, #22]
 8002b0c:	7dba      	ldrb	r2, [r7, #22]
 8002b0e:	7d7b      	ldrb	r3, [r7, #21]
 8002b10:	429a      	cmp	r2, r3
 8002b12:	d3cd      	bcc.n	8002ab0 <HAL_FLASH_Program+0x60>
 8002b14:	e000      	b.n	8002b18 <HAL_FLASH_Program+0xc8>
      {
        break;
 8002b16:	bf00      	nop
      }
    }
  }

  /* Process Unlocked */
  __HAL_UNLOCK(&pFlash);
 8002b18:	4b03      	ldr	r3, [pc, #12]	; (8002b28 <HAL_FLASH_Program+0xd8>)
 8002b1a:	2200      	movs	r2, #0
 8002b1c:	761a      	strb	r2, [r3, #24]

  return status;
 8002b1e:	7dfb      	ldrb	r3, [r7, #23]
}
 8002b20:	4618      	mov	r0, r3
 8002b22:	371c      	adds	r7, #28
 8002b24:	46bd      	mov	sp, r7
 8002b26:	bdf0      	pop	{r4, r5, r6, r7, pc}
 8002b28:	20001d40 	.word	0x20001d40
 8002b2c:	40022000 	.word	0x40022000

08002b30 <HAL_FLASH_Unlock>:
/**
  * @brief  Unlock the FLASH control register access
  * @retval HAL Status
  */
HAL_StatusTypeDef HAL_FLASH_Unlock(void)
{
 8002b30:	b480      	push	{r7}
 8002b32:	b083      	sub	sp, #12
 8002b34:	af00      	add	r7, sp, #0
  HAL_StatusTypeDef status = HAL_OK;
 8002b36:	2300      	movs	r3, #0
 8002b38:	71fb      	strb	r3, [r7, #7]

  if(READ_BIT(FLASH->CR, FLASH_CR_LOCK) != RESET)
 8002b3a:	4b0d      	ldr	r3, [pc, #52]	; (8002b70 <HAL_FLASH_Unlock+0x40>)
 8002b3c:	691b      	ldr	r3, [r3, #16]
 8002b3e:	f003 0380 	and.w	r3, r3, #128	; 0x80
 8002b42:	2b00      	cmp	r3, #0
 8002b44:	d00d      	beq.n	8002b62 <HAL_FLASH_Unlock+0x32>
  {
    /* Authorize the FLASH Registers access */
    WRITE_REG(FLASH->KEYR, FLASH_KEY1);
 8002b46:	4b0a      	ldr	r3, [pc, #40]	; (8002b70 <HAL_FLASH_Unlock+0x40>)
 8002b48:	4a0a      	ldr	r2, [pc, #40]	; (8002b74 <HAL_FLASH_Unlock+0x44>)
 8002b4a:	605a      	str	r2, [r3, #4]
    WRITE_REG(FLASH->KEYR, FLASH_KEY2);
 8002b4c:	4b08      	ldr	r3, [pc, #32]	; (8002b70 <HAL_FLASH_Unlock+0x40>)
 8002b4e:	4a0a      	ldr	r2, [pc, #40]	; (8002b78 <HAL_FLASH_Unlock+0x48>)
 8002b50:	605a      	str	r2, [r3, #4]

    /* Verify Flash is unlocked */
    if(READ_BIT(FLASH->CR, FLASH_CR_LOCK) != RESET)
 8002b52:	4b07      	ldr	r3, [pc, #28]	; (8002b70 <HAL_FLASH_Unlock+0x40>)
 8002b54:	691b      	ldr	r3, [r3, #16]
 8002b56:	f003 0380 	and.w	r3, r3, #128	; 0x80
 8002b5a:	2b00      	cmp	r3, #0
 8002b5c:	d001      	beq.n	8002b62 <HAL_FLASH_Unlock+0x32>
    {
      status = HAL_ERROR;
 8002b5e:	2301      	movs	r3, #1
 8002b60:	71fb      	strb	r3, [r7, #7]
      status = HAL_ERROR;
    }
  }
#endif /* FLASH_BANK2_END */

  return status;
 8002b62:	79fb      	ldrb	r3, [r7, #7]
}
 8002b64:	4618      	mov	r0, r3
 8002b66:	370c      	adds	r7, #12
 8002b68:	46bd      	mov	sp, r7
 8002b6a:	bc80      	pop	{r7}
 8002b6c:	4770      	bx	lr
 8002b6e:	bf00      	nop
 8002b70:	40022000 	.word	0x40022000
 8002b74:	45670123 	.word	0x45670123
 8002b78:	cdef89ab 	.word	0xcdef89ab

08002b7c <HAL_FLASH_Lock>:
/**
  * @brief  Locks the FLASH control register access
  * @retval HAL Status
  */
HAL_StatusTypeDef HAL_FLASH_Lock(void)
{
 8002b7c:	b480      	push	{r7}
 8002b7e:	af00      	add	r7, sp, #0
  /* Set the LOCK Bit to lock the FLASH Registers access */
  SET_BIT(FLASH->CR, FLASH_CR_LOCK);
 8002b80:	4b05      	ldr	r3, [pc, #20]	; (8002b98 <HAL_FLASH_Lock+0x1c>)
 8002b82:	691b      	ldr	r3, [r3, #16]
 8002b84:	4a04      	ldr	r2, [pc, #16]	; (8002b98 <HAL_FLASH_Lock+0x1c>)
 8002b86:	f043 0380 	orr.w	r3, r3, #128	; 0x80
 8002b8a:	6113      	str	r3, [r2, #16]
#if defined(FLASH_BANK2_END)
  /* Set the LOCK Bit to lock the FLASH BANK2 Registers access */
  SET_BIT(FLASH->CR2, FLASH_CR2_LOCK);

#endif /* FLASH_BANK2_END */
  return HAL_OK;  
 8002b8c:	2300      	movs	r3, #0
}
 8002b8e:	4618      	mov	r0, r3
 8002b90:	46bd      	mov	sp, r7
 8002b92:	bc80      	pop	{r7}
 8002b94:	4770      	bx	lr
 8002b96:	bf00      	nop
 8002b98:	40022000 	.word	0x40022000

08002b9c <HAL_FLASH_GetError>:
  * @brief  Get the specific FLASH error flag.
  * @retval FLASH_ErrorCode The returned value can be:
  *            @ref FLASH_Error_Codes
  */
uint32_t HAL_FLASH_GetError(void)
{
 8002b9c:	b480      	push	{r7}
 8002b9e:	af00      	add	r7, sp, #0
   return pFlash.ErrorCode;
 8002ba0:	4b02      	ldr	r3, [pc, #8]	; (8002bac <HAL_FLASH_GetError+0x10>)
 8002ba2:	69db      	ldr	r3, [r3, #28]
}
 8002ba4:	4618      	mov	r0, r3
 8002ba6:	46bd      	mov	sp, r7
 8002ba8:	bc80      	pop	{r7}
 8002baa:	4770      	bx	lr
 8002bac:	20001d40 	.word	0x20001d40

08002bb0 <FLASH_Program_HalfWord>:
  * @param  Address specify the address to be programmed.
  * @param  Data    specify the data to be programmed.
  * @retval None
  */
static void FLASH_Program_HalfWord(uint32_t Address, uint16_t Data)
{
 8002bb0:	b480      	push	{r7}
 8002bb2:	b083      	sub	sp, #12
 8002bb4:	af00      	add	r7, sp, #0
 8002bb6:	6078      	str	r0, [r7, #4]
 8002bb8:	460b      	mov	r3, r1
 8002bba:	807b      	strh	r3, [r7, #2]
  /* Clean the error context */
  pFlash.ErrorCode = HAL_FLASH_ERROR_NONE;
 8002bbc:	4b08      	ldr	r3, [pc, #32]	; (8002be0 <FLASH_Program_HalfWord+0x30>)
 8002bbe:	2200      	movs	r2, #0
 8002bc0:	61da      	str	r2, [r3, #28]
#if defined(FLASH_BANK2_END)
  if(Address <= FLASH_BANK1_END)
  {
#endif /* FLASH_BANK2_END */
    /* Proceed to program the new data */
    SET_BIT(FLASH->CR, FLASH_CR_PG);
 8002bc2:	4b08      	ldr	r3, [pc, #32]	; (8002be4 <FLASH_Program_HalfWord+0x34>)
 8002bc4:	691b      	ldr	r3, [r3, #16]
 8002bc6:	4a07      	ldr	r2, [pc, #28]	; (8002be4 <FLASH_Program_HalfWord+0x34>)
 8002bc8:	f043 0301 	orr.w	r3, r3, #1
 8002bcc:	6113      	str	r3, [r2, #16]
    SET_BIT(FLASH->CR2, FLASH_CR2_PG);
  }
#endif /* FLASH_BANK2_END */

  /* Write data in the address */
  *(__IO uint16_t*)Address = Data;
 8002bce:	687b      	ldr	r3, [r7, #4]
 8002bd0:	887a      	ldrh	r2, [r7, #2]
 8002bd2:	801a      	strh	r2, [r3, #0]
}
 8002bd4:	bf00      	nop
 8002bd6:	370c      	adds	r7, #12
 8002bd8:	46bd      	mov	sp, r7
 8002bda:	bc80      	pop	{r7}
 8002bdc:	4770      	bx	lr
 8002bde:	bf00      	nop
 8002be0:	20001d40 	.word	0x20001d40
 8002be4:	40022000 	.word	0x40022000

08002be8 <FLASH_WaitForLastOperation>:
  * @brief  Wait for a FLASH operation to complete.
  * @param  Timeout  maximum flash operation timeout
  * @retval HAL Status
  */
HAL_StatusTypeDef FLASH_WaitForLastOperation(uint32_t Timeout)
{
 8002be8:	b580      	push	{r7, lr}
 8002bea:	b084      	sub	sp, #16
 8002bec:	af00      	add	r7, sp, #0
 8002bee:	6078      	str	r0, [r7, #4]
  /* Wait for the FLASH operation to complete by polling on BUSY flag to be reset.
     Even if the FLASH operation fails, the BUSY flag will be reset and an error
     flag will be set */
     
  uint32_t tickstart = HAL_GetTick();
 8002bf0:	f7fe fb4a 	bl	8001288 <HAL_GetTick>
 8002bf4:	60f8      	str	r0, [r7, #12]
     
  while(__HAL_FLASH_GET_FLAG(FLASH_FLAG_BSY)) 
 8002bf6:	e010      	b.n	8002c1a <FLASH_WaitForLastOperation+0x32>
  { 
    if (Timeout != HAL_MAX_DELAY)
 8002bf8:	687b      	ldr	r3, [r7, #4]
 8002bfa:	f1b3 3fff 	cmp.w	r3, #4294967295
 8002bfe:	d00c      	beq.n	8002c1a <FLASH_WaitForLastOperation+0x32>
    {
      if((Timeout == 0U) || ((HAL_GetTick()-tickstart) > Timeout))
 8002c00:	687b      	ldr	r3, [r7, #4]
 8002c02:	2b00      	cmp	r3, #0
 8002c04:	d007      	beq.n	8002c16 <FLASH_WaitForLastOperation+0x2e>
 8002c06:	f7fe fb3f 	bl	8001288 <HAL_GetTick>
 8002c0a:	4602      	mov	r2, r0
 8002c0c:	68fb      	ldr	r3, [r7, #12]
 8002c0e:	1ad3      	subs	r3, r2, r3
 8002c10:	687a      	ldr	r2, [r7, #4]
 8002c12:	429a      	cmp	r2, r3
 8002c14:	d201      	bcs.n	8002c1a <FLASH_WaitForLastOperation+0x32>
      {
        return HAL_TIMEOUT;
 8002c16:	2303      	movs	r3, #3
 8002c18:	e025      	b.n	8002c66 <FLASH_WaitForLastOperation+0x7e>
  while(__HAL_FLASH_GET_FLAG(FLASH_FLAG_BSY)) 
 8002c1a:	4b15      	ldr	r3, [pc, #84]	; (8002c70 <FLASH_WaitForLastOperation+0x88>)
 8002c1c:	68db      	ldr	r3, [r3, #12]
 8002c1e:	f003 0301 	and.w	r3, r3, #1
 8002c22:	2b00      	cmp	r3, #0
 8002c24:	d1e8      	bne.n	8002bf8 <FLASH_WaitForLastOperation+0x10>
      }
    }
  }
  
  /* Check FLASH End of Operation flag  */
  if (__HAL_FLASH_GET_FLAG(FLASH_FLAG_EOP))
 8002c26:	4b12      	ldr	r3, [pc, #72]	; (8002c70 <FLASH_WaitForLastOperation+0x88>)
 8002c28:	68db      	ldr	r3, [r3, #12]
 8002c2a:	f003 0320 	and.w	r3, r3, #32
 8002c2e:	2b00      	cmp	r3, #0
 8002c30:	d002      	beq.n	8002c38 <FLASH_WaitForLastOperation+0x50>
  {
    /* Clear FLASH End of Operation pending bit */
    __HAL_FLASH_CLEAR_FLAG(FLASH_FLAG_EOP);
 8002c32:	4b0f      	ldr	r3, [pc, #60]	; (8002c70 <FLASH_WaitForLastOperation+0x88>)
 8002c34:	2220      	movs	r2, #32
 8002c36:	60da      	str	r2, [r3, #12]
  }
  
  if(__HAL_FLASH_GET_FLAG(FLASH_FLAG_WRPERR)  || 
 8002c38:	4b0d      	ldr	r3, [pc, #52]	; (8002c70 <FLASH_WaitForLastOperation+0x88>)
 8002c3a:	68db      	ldr	r3, [r3, #12]
 8002c3c:	f003 0310 	and.w	r3, r3, #16
 8002c40:	2b00      	cmp	r3, #0
 8002c42:	d10b      	bne.n	8002c5c <FLASH_WaitForLastOperation+0x74>
     __HAL_FLASH_GET_FLAG(FLASH_FLAG_OPTVERR) || 
 8002c44:	4b0a      	ldr	r3, [pc, #40]	; (8002c70 <FLASH_WaitForLastOperation+0x88>)
 8002c46:	69db      	ldr	r3, [r3, #28]
 8002c48:	f003 0301 	and.w	r3, r3, #1
  if(__HAL_FLASH_GET_FLAG(FLASH_FLAG_WRPERR)  || 
 8002c4c:	2b00      	cmp	r3, #0
 8002c4e:	d105      	bne.n	8002c5c <FLASH_WaitForLastOperation+0x74>
     __HAL_FLASH_GET_FLAG(FLASH_FLAG_PGERR))
 8002c50:	4b07      	ldr	r3, [pc, #28]	; (8002c70 <FLASH_WaitForLastOperation+0x88>)
 8002c52:	68db      	ldr	r3, [r3, #12]
 8002c54:	f003 0304 	and.w	r3, r3, #4
     __HAL_FLASH_GET_FLAG(FLASH_FLAG_OPTVERR) || 
 8002c58:	2b00      	cmp	r3, #0
 8002c5a:	d003      	beq.n	8002c64 <FLASH_WaitForLastOperation+0x7c>
  {
    /*Save the error code*/
    FLASH_SetErrorCode();
 8002c5c:	f000 f80a 	bl	8002c74 <FLASH_SetErrorCode>
    return HAL_ERROR;
 8002c60:	2301      	movs	r3, #1
 8002c62:	e000      	b.n	8002c66 <FLASH_WaitForLastOperation+0x7e>
  }

  /* There is no error flag set */
  return HAL_OK;
 8002c64:	2300      	movs	r3, #0
}
 8002c66:	4618      	mov	r0, r3
 8002c68:	3710      	adds	r7, #16
 8002c6a:	46bd      	mov	sp, r7
 8002c6c:	bd80      	pop	{r7, pc}
 8002c6e:	bf00      	nop
 8002c70:	40022000 	.word	0x40022000

08002c74 <FLASH_SetErrorCode>:
/**
  * @brief  Set the specific FLASH error flag.
  * @retval None
  */
static void FLASH_SetErrorCode(void)
{
 8002c74:	b480      	push	{r7}
 8002c76:	b083      	sub	sp, #12
 8002c78:	af00      	add	r7, sp, #0
  uint32_t flags = 0U;
 8002c7a:	2300      	movs	r3, #0
 8002c7c:	607b      	str	r3, [r7, #4]
  
#if defined(FLASH_BANK2_END)
  if(__HAL_FLASH_GET_FLAG(FLASH_FLAG_WRPERR) || __HAL_FLASH_GET_FLAG(FLASH_FLAG_WRPERR_BANK2))
#else
  if(__HAL_FLASH_GET_FLAG(FLASH_FLAG_WRPERR))
 8002c7e:	4b23      	ldr	r3, [pc, #140]	; (8002d0c <FLASH_SetErrorCode+0x98>)
 8002c80:	68db      	ldr	r3, [r3, #12]
 8002c82:	f003 0310 	and.w	r3, r3, #16
 8002c86:	2b00      	cmp	r3, #0
 8002c88:	d009      	beq.n	8002c9e <FLASH_SetErrorCode+0x2a>
#endif /* FLASH_BANK2_END */
  {
    pFlash.ErrorCode |= HAL_FLASH_ERROR_WRP;
 8002c8a:	4b21      	ldr	r3, [pc, #132]	; (8002d10 <FLASH_SetErrorCode+0x9c>)
 8002c8c:	69db      	ldr	r3, [r3, #28]
 8002c8e:	f043 0302 	orr.w	r3, r3, #2
 8002c92:	4a1f      	ldr	r2, [pc, #124]	; (8002d10 <FLASH_SetErrorCode+0x9c>)
 8002c94:	61d3      	str	r3, [r2, #28]
#if defined(FLASH_BANK2_END)
    flags |= FLASH_FLAG_WRPERR | FLASH_FLAG_WRPERR_BANK2;
#else
    flags |= FLASH_FLAG_WRPERR;
 8002c96:	687b      	ldr	r3, [r7, #4]
 8002c98:	f043 0310 	orr.w	r3, r3, #16
 8002c9c:	607b      	str	r3, [r7, #4]
#endif /* FLASH_BANK2_END */
  }
#if defined(FLASH_BANK2_END)
  if(__HAL_FLASH_GET_FLAG(FLASH_FLAG_PGERR) || __HAL_FLASH_GET_FLAG(FLASH_FLAG_PGERR_BANK2))
#else
  if(__HAL_FLASH_GET_FLAG(FLASH_FLAG_PGERR))
 8002c9e:	4b1b      	ldr	r3, [pc, #108]	; (8002d0c <FLASH_SetErrorCode+0x98>)
 8002ca0:	68db      	ldr	r3, [r3, #12]
 8002ca2:	f003 0304 	and.w	r3, r3, #4
 8002ca6:	2b00      	cmp	r3, #0
 8002ca8:	d009      	beq.n	8002cbe <FLASH_SetErrorCode+0x4a>
#endif /* FLASH_BANK2_END */
  {
    pFlash.ErrorCode |= HAL_FLASH_ERROR_PROG;
 8002caa:	4b19      	ldr	r3, [pc, #100]	; (8002d10 <FLASH_SetErrorCode+0x9c>)
 8002cac:	69db      	ldr	r3, [r3, #28]
 8002cae:	f043 0301 	orr.w	r3, r3, #1
 8002cb2:	4a17      	ldr	r2, [pc, #92]	; (8002d10 <FLASH_SetErrorCode+0x9c>)
 8002cb4:	61d3      	str	r3, [r2, #28]
#if defined(FLASH_BANK2_END)
    flags |= FLASH_FLAG_PGERR | FLASH_FLAG_PGERR_BANK2;
#else
    flags |= FLASH_FLAG_PGERR;
 8002cb6:	687b      	ldr	r3, [r7, #4]
 8002cb8:	f043 0304 	orr.w	r3, r3, #4
 8002cbc:	607b      	str	r3, [r7, #4]
#endif /* FLASH_BANK2_END */
  }
  if(__HAL_FLASH_GET_FLAG(FLASH_FLAG_OPTVERR))
 8002cbe:	4b13      	ldr	r3, [pc, #76]	; (8002d0c <FLASH_SetErrorCode+0x98>)
 8002cc0:	69db      	ldr	r3, [r3, #28]
 8002cc2:	f003 0301 	and.w	r3, r3, #1
 8002cc6:	2b00      	cmp	r3, #0
 8002cc8:	d00b      	beq.n	8002ce2 <FLASH_SetErrorCode+0x6e>
  {
    pFlash.ErrorCode |= HAL_FLASH_ERROR_OPTV;
 8002cca:	4b11      	ldr	r3, [pc, #68]	; (8002d10 <FLASH_SetErrorCode+0x9c>)
 8002ccc:	69db      	ldr	r3, [r3, #28]
 8002cce:	f043 0304 	orr.w	r3, r3, #4
 8002cd2:	4a0f      	ldr	r2, [pc, #60]	; (8002d10 <FLASH_SetErrorCode+0x9c>)
 8002cd4:	61d3      	str	r3, [r2, #28]
  __HAL_FLASH_CLEAR_FLAG(FLASH_FLAG_OPTVERR);
 8002cd6:	4b0d      	ldr	r3, [pc, #52]	; (8002d0c <FLASH_SetErrorCode+0x98>)
 8002cd8:	69db      	ldr	r3, [r3, #28]
 8002cda:	4a0c      	ldr	r2, [pc, #48]	; (8002d0c <FLASH_SetErrorCode+0x98>)
 8002cdc:	f023 0301 	bic.w	r3, r3, #1
 8002ce0:	61d3      	str	r3, [r2, #28]
  }

  /* Clear FLASH error pending bits */
  __HAL_FLASH_CLEAR_FLAG(flags);
 8002ce2:	687b      	ldr	r3, [r7, #4]
 8002ce4:	f240 1201 	movw	r2, #257	; 0x101
 8002ce8:	4293      	cmp	r3, r2
 8002cea:	d106      	bne.n	8002cfa <FLASH_SetErrorCode+0x86>
 8002cec:	4b07      	ldr	r3, [pc, #28]	; (8002d0c <FLASH_SetErrorCode+0x98>)
 8002cee:	69db      	ldr	r3, [r3, #28]
 8002cf0:	4a06      	ldr	r2, [pc, #24]	; (8002d0c <FLASH_SetErrorCode+0x98>)
 8002cf2:	f023 0301 	bic.w	r3, r3, #1
 8002cf6:	61d3      	str	r3, [r2, #28]
}  
 8002cf8:	e002      	b.n	8002d00 <FLASH_SetErrorCode+0x8c>
  __HAL_FLASH_CLEAR_FLAG(flags);
 8002cfa:	4a04      	ldr	r2, [pc, #16]	; (8002d0c <FLASH_SetErrorCode+0x98>)
 8002cfc:	687b      	ldr	r3, [r7, #4]
 8002cfe:	60d3      	str	r3, [r2, #12]
}  
 8002d00:	bf00      	nop
 8002d02:	370c      	adds	r7, #12
 8002d04:	46bd      	mov	sp, r7
 8002d06:	bc80      	pop	{r7}
 8002d08:	4770      	bx	lr
 8002d0a:	bf00      	nop
 8002d0c:	40022000 	.word	0x40022000
 8002d10:	20001d40 	.word	0x20001d40

08002d14 <HAL_FLASHEx_Erase>:
  *         (0xFFFFFFFF means that all the pages have been correctly erased)
  *
  * @retval HAL_StatusTypeDef HAL Status
  */
HAL_StatusTypeDef HAL_FLASHEx_Erase(FLASH_EraseInitTypeDef *pEraseInit, uint32_t *PageError)
{
 8002d14:	b580      	push	{r7, lr}
 8002d16:	b084      	sub	sp, #16
 8002d18:	af00      	add	r7, sp, #0
 8002d1a:	6078      	str	r0, [r7, #4]
 8002d1c:	6039      	str	r1, [r7, #0]
  HAL_StatusTypeDef status = HAL_ERROR;
 8002d1e:	2301      	movs	r3, #1
 8002d20:	73fb      	strb	r3, [r7, #15]
  uint32_t address = 0U;
 8002d22:	2300      	movs	r3, #0
 8002d24:	60bb      	str	r3, [r7, #8]

  /* Process Locked */
  __HAL_LOCK(&pFlash);
 8002d26:	4b2f      	ldr	r3, [pc, #188]	; (8002de4 <HAL_FLASHEx_Erase+0xd0>)
 8002d28:	7e1b      	ldrb	r3, [r3, #24]
 8002d2a:	2b01      	cmp	r3, #1
 8002d2c:	d101      	bne.n	8002d32 <HAL_FLASHEx_Erase+0x1e>
 8002d2e:	2302      	movs	r3, #2
 8002d30:	e053      	b.n	8002dda <HAL_FLASHEx_Erase+0xc6>
 8002d32:	4b2c      	ldr	r3, [pc, #176]	; (8002de4 <HAL_FLASHEx_Erase+0xd0>)
 8002d34:	2201      	movs	r2, #1
 8002d36:	761a      	strb	r2, [r3, #24]

  /* Check the parameters */
  assert_param(IS_FLASH_TYPEERASE(pEraseInit->TypeErase));

  if (pEraseInit->TypeErase == FLASH_TYPEERASE_MASSERASE)
 8002d38:	687b      	ldr	r3, [r7, #4]
 8002d3a:	681b      	ldr	r3, [r3, #0]
 8002d3c:	2b02      	cmp	r3, #2
 8002d3e:	d116      	bne.n	8002d6e <HAL_FLASHEx_Erase+0x5a>
    else 
#endif /* FLASH_BANK2_END */
    {
      /* Mass Erase requested for Bank1 */
      /* Wait for last operation to be completed */
      if (FLASH_WaitForLastOperation((uint32_t)FLASH_TIMEOUT_VALUE) == HAL_OK)
 8002d40:	f24c 3050 	movw	r0, #50000	; 0xc350
 8002d44:	f7ff ff50 	bl	8002be8 <FLASH_WaitForLastOperation>
 8002d48:	4603      	mov	r3, r0
 8002d4a:	2b00      	cmp	r3, #0
 8002d4c:	d141      	bne.n	8002dd2 <HAL_FLASHEx_Erase+0xbe>
      {
        /*Mass erase to be done*/
        FLASH_MassErase(FLASH_BANK_1);
 8002d4e:	2001      	movs	r0, #1
 8002d50:	f000 f84c 	bl	8002dec <FLASH_MassErase>
        
        /* Wait for last operation to be completed */
        status = FLASH_WaitForLastOperation((uint32_t)FLASH_TIMEOUT_VALUE);
 8002d54:	f24c 3050 	movw	r0, #50000	; 0xc350
 8002d58:	f7ff ff46 	bl	8002be8 <FLASH_WaitForLastOperation>
 8002d5c:	4603      	mov	r3, r0
 8002d5e:	73fb      	strb	r3, [r7, #15]
        
        /* If the erase operation is completed, disable the MER Bit */
        CLEAR_BIT(FLASH->CR, FLASH_CR_MER);
 8002d60:	4b21      	ldr	r3, [pc, #132]	; (8002de8 <HAL_FLASHEx_Erase+0xd4>)
 8002d62:	691b      	ldr	r3, [r3, #16]
 8002d64:	4a20      	ldr	r2, [pc, #128]	; (8002de8 <HAL_FLASHEx_Erase+0xd4>)
 8002d66:	f023 0304 	bic.w	r3, r3, #4
 8002d6a:	6113      	str	r3, [r2, #16]
 8002d6c:	e031      	b.n	8002dd2 <HAL_FLASHEx_Erase+0xbe>
    else
#endif /* FLASH_BANK2_END */
   {
      /* Page Erase requested on address located on bank1 */
      /* Wait for last operation to be completed */
      if (FLASH_WaitForLastOperation((uint32_t)FLASH_TIMEOUT_VALUE) == HAL_OK)
 8002d6e:	f24c 3050 	movw	r0, #50000	; 0xc350
 8002d72:	f7ff ff39 	bl	8002be8 <FLASH_WaitForLastOperation>
 8002d76:	4603      	mov	r3, r0
 8002d78:	2b00      	cmp	r3, #0
 8002d7a:	d12a      	bne.n	8002dd2 <HAL_FLASHEx_Erase+0xbe>
      {
        /*Initialization of PageError variable*/
        *PageError = 0xFFFFFFFFU;
 8002d7c:	683b      	ldr	r3, [r7, #0]
 8002d7e:	f04f 32ff 	mov.w	r2, #4294967295
 8002d82:	601a      	str	r2, [r3, #0]
        
        /* Erase page by page to be done*/
        for(address = pEraseInit->PageAddress;
 8002d84:	687b      	ldr	r3, [r7, #4]
 8002d86:	689b      	ldr	r3, [r3, #8]
 8002d88:	60bb      	str	r3, [r7, #8]
 8002d8a:	e019      	b.n	8002dc0 <HAL_FLASHEx_Erase+0xac>
            address < ((pEraseInit->NbPages * FLASH_PAGE_SIZE) + pEraseInit->PageAddress);
            address += FLASH_PAGE_SIZE)
        {
          FLASH_PageErase(address);
 8002d8c:	68b8      	ldr	r0, [r7, #8]
 8002d8e:	f000 f849 	bl	8002e24 <FLASH_PageErase>
          
          /* Wait for last operation to be completed */
          status = FLASH_WaitForLastOperation((uint32_t)FLASH_TIMEOUT_VALUE);
 8002d92:	f24c 3050 	movw	r0, #50000	; 0xc350
 8002d96:	f7ff ff27 	bl	8002be8 <FLASH_WaitForLastOperation>
 8002d9a:	4603      	mov	r3, r0
 8002d9c:	73fb      	strb	r3, [r7, #15]
          
          /* If the erase operation is completed, disable the PER Bit */
          CLEAR_BIT(FLASH->CR, FLASH_CR_PER);
 8002d9e:	4b12      	ldr	r3, [pc, #72]	; (8002de8 <HAL_FLASHEx_Erase+0xd4>)
 8002da0:	691b      	ldr	r3, [r3, #16]
 8002da2:	4a11      	ldr	r2, [pc, #68]	; (8002de8 <HAL_FLASHEx_Erase+0xd4>)
 8002da4:	f023 0302 	bic.w	r3, r3, #2
 8002da8:	6113      	str	r3, [r2, #16]
          
          if (status != HAL_OK)
 8002daa:	7bfb      	ldrb	r3, [r7, #15]
 8002dac:	2b00      	cmp	r3, #0
 8002dae:	d003      	beq.n	8002db8 <HAL_FLASHEx_Erase+0xa4>
          {
            /* In case of error, stop erase procedure and return the faulty address */
            *PageError = address;
 8002db0:	683b      	ldr	r3, [r7, #0]
 8002db2:	68ba      	ldr	r2, [r7, #8]
 8002db4:	601a      	str	r2, [r3, #0]
            break;
 8002db6:	e00c      	b.n	8002dd2 <HAL_FLASHEx_Erase+0xbe>
            address += FLASH_PAGE_SIZE)
 8002db8:	68bb      	ldr	r3, [r7, #8]
 8002dba:	f503 6380 	add.w	r3, r3, #1024	; 0x400
 8002dbe:	60bb      	str	r3, [r7, #8]
            address < ((pEraseInit->NbPages * FLASH_PAGE_SIZE) + pEraseInit->PageAddress);
 8002dc0:	687b      	ldr	r3, [r7, #4]
 8002dc2:	68db      	ldr	r3, [r3, #12]
 8002dc4:	029a      	lsls	r2, r3, #10
 8002dc6:	687b      	ldr	r3, [r7, #4]
 8002dc8:	689b      	ldr	r3, [r3, #8]
 8002dca:	4413      	add	r3, r2
        for(address = pEraseInit->PageAddress;
 8002dcc:	68ba      	ldr	r2, [r7, #8]
 8002dce:	429a      	cmp	r2, r3
 8002dd0:	d3dc      	bcc.n	8002d8c <HAL_FLASHEx_Erase+0x78>
      }
    }
  }

  /* Process Unlocked */
  __HAL_UNLOCK(&pFlash);
 8002dd2:	4b04      	ldr	r3, [pc, #16]	; (8002de4 <HAL_FLASHEx_Erase+0xd0>)
 8002dd4:	2200      	movs	r2, #0
 8002dd6:	761a      	strb	r2, [r3, #24]

  return status;
 8002dd8:	7bfb      	ldrb	r3, [r7, #15]
}
 8002dda:	4618      	mov	r0, r3
 8002ddc:	3710      	adds	r7, #16
 8002dde:	46bd      	mov	sp, r7
 8002de0:	bd80      	pop	{r7, pc}
 8002de2:	bf00      	nop
 8002de4:	20001d40 	.word	0x20001d40
 8002de8:	40022000 	.word	0x40022000

08002dec <FLASH_MassErase>:
  @endif
  *
  * @retval None
  */
static void FLASH_MassErase(uint32_t Banks)
{
 8002dec:	b480      	push	{r7}
 8002dee:	b083      	sub	sp, #12
 8002df0:	af00      	add	r7, sp, #0
 8002df2:	6078      	str	r0, [r7, #4]
  /* Check the parameters */
  assert_param(IS_FLASH_BANK(Banks));

  /* Clean the error context */
  pFlash.ErrorCode = HAL_FLASH_ERROR_NONE;
 8002df4:	4b09      	ldr	r3, [pc, #36]	; (8002e1c <FLASH_MassErase+0x30>)
 8002df6:	2200      	movs	r2, #0
 8002df8:	61da      	str	r2, [r3, #28]
#if !defined(FLASH_BANK2_END)
  /* Prevent unused argument(s) compilation warning */
  UNUSED(Banks);
#endif /* FLASH_BANK2_END */  
    /* Only bank1 will be erased*/
    SET_BIT(FLASH->CR, FLASH_CR_MER);
 8002dfa:	4b09      	ldr	r3, [pc, #36]	; (8002e20 <FLASH_MassErase+0x34>)
 8002dfc:	691b      	ldr	r3, [r3, #16]
 8002dfe:	4a08      	ldr	r2, [pc, #32]	; (8002e20 <FLASH_MassErase+0x34>)
 8002e00:	f043 0304 	orr.w	r3, r3, #4
 8002e04:	6113      	str	r3, [r2, #16]
    SET_BIT(FLASH->CR, FLASH_CR_STRT);
 8002e06:	4b06      	ldr	r3, [pc, #24]	; (8002e20 <FLASH_MassErase+0x34>)
 8002e08:	691b      	ldr	r3, [r3, #16]
 8002e0a:	4a05      	ldr	r2, [pc, #20]	; (8002e20 <FLASH_MassErase+0x34>)
 8002e0c:	f043 0340 	orr.w	r3, r3, #64	; 0x40
 8002e10:	6113      	str	r3, [r2, #16]
#if defined(FLASH_BANK2_END)
  }
#endif /* FLASH_BANK2_END */
}
 8002e12:	bf00      	nop
 8002e14:	370c      	adds	r7, #12
 8002e16:	46bd      	mov	sp, r7
 8002e18:	bc80      	pop	{r7}
 8002e1a:	4770      	bx	lr
 8002e1c:	20001d40 	.word	0x20001d40
 8002e20:	40022000 	.word	0x40022000

08002e24 <FLASH_PageErase>:
  *         The value of this parameter depend on device used within the same series      
  * 
  * @retval None
  */
void FLASH_PageErase(uint32_t PageAddress)
{
 8002e24:	b480      	push	{r7}
 8002e26:	b083      	sub	sp, #12
 8002e28:	af00      	add	r7, sp, #0
 8002e2a:	6078      	str	r0, [r7, #4]
  /* Clean the error context */
  pFlash.ErrorCode = HAL_FLASH_ERROR_NONE;
 8002e2c:	4b0b      	ldr	r3, [pc, #44]	; (8002e5c <FLASH_PageErase+0x38>)
 8002e2e:	2200      	movs	r2, #0
 8002e30:	61da      	str	r2, [r3, #28]
  }
  else
  {
#endif /* FLASH_BANK2_END */
    /* Proceed to erase the page */
    SET_BIT(FLASH->CR, FLASH_CR_PER);
 8002e32:	4b0b      	ldr	r3, [pc, #44]	; (8002e60 <FLASH_PageErase+0x3c>)
 8002e34:	691b      	ldr	r3, [r3, #16]
 8002e36:	4a0a      	ldr	r2, [pc, #40]	; (8002e60 <FLASH_PageErase+0x3c>)
 8002e38:	f043 0302 	orr.w	r3, r3, #2
 8002e3c:	6113      	str	r3, [r2, #16]
    WRITE_REG(FLASH->AR, PageAddress);
 8002e3e:	4a08      	ldr	r2, [pc, #32]	; (8002e60 <FLASH_PageErase+0x3c>)
 8002e40:	687b      	ldr	r3, [r7, #4]
 8002e42:	6153      	str	r3, [r2, #20]
    SET_BIT(FLASH->CR, FLASH_CR_STRT);
 8002e44:	4b06      	ldr	r3, [pc, #24]	; (8002e60 <FLASH_PageErase+0x3c>)
 8002e46:	691b      	ldr	r3, [r3, #16]
 8002e48:	4a05      	ldr	r2, [pc, #20]	; (8002e60 <FLASH_PageErase+0x3c>)
 8002e4a:	f043 0340 	orr.w	r3, r3, #64	; 0x40
 8002e4e:	6113      	str	r3, [r2, #16]
#if defined(FLASH_BANK2_END)
  }
#endif /* FLASH_BANK2_END */
}
 8002e50:	bf00      	nop
 8002e52:	370c      	adds	r7, #12
 8002e54:	46bd      	mov	sp, r7
 8002e56:	bc80      	pop	{r7}
 8002e58:	4770      	bx	lr
 8002e5a:	bf00      	nop
 8002e5c:	20001d40 	.word	0x20001d40
 8002e60:	40022000 	.word	0x40022000

08002e64 <HAL_GPIO_Init>:
  * @param  GPIO_Init: pointer to a GPIO_InitTypeDef structure that contains
  *         the configuration information for the specified GPIO peripheral.
  * @retval None
  */
void HAL_GPIO_Init(GPIO_TypeDef  *GPIOx, GPIO_InitTypeDef *GPIO_Init)
{
 8002e64:	b480      	push	{r7}
 8002e66:	b08b      	sub	sp, #44	; 0x2c
 8002e68:	af00      	add	r7, sp, #0
 8002e6a:	6078      	str	r0, [r7, #4]
 8002e6c:	6039      	str	r1, [r7, #0]
  uint32_t position = 0x00u;
 8002e6e:	2300      	movs	r3, #0
 8002e70:	627b      	str	r3, [r7, #36]	; 0x24
  uint32_t ioposition;
  uint32_t iocurrent;
  uint32_t temp;
  uint32_t config = 0x00u;
 8002e72:	2300      	movs	r3, #0
 8002e74:	623b      	str	r3, [r7, #32]
  assert_param(IS_GPIO_ALL_INSTANCE(GPIOx));
  assert_param(IS_GPIO_PIN(GPIO_Init->Pin));
  assert_param(IS_GPIO_MODE(GPIO_Init->Mode));

  /* Configure the port pins */
  while (((GPIO_Init->Pin) >> position) != 0x00u)
 8002e76:	e127      	b.n	80030c8 <HAL_GPIO_Init+0x264>
  {
    /* Get the IO position */
    ioposition = (0x01uL << position);
 8002e78:	2201      	movs	r2, #1
 8002e7a:	6a7b      	ldr	r3, [r7, #36]	; 0x24
 8002e7c:	fa02 f303 	lsl.w	r3, r2, r3
 8002e80:	61fb      	str	r3, [r7, #28]

    /* Get the current IO position */
    iocurrent = (uint32_t)(GPIO_Init->Pin) & ioposition;
 8002e82:	683b      	ldr	r3, [r7, #0]
 8002e84:	681b      	ldr	r3, [r3, #0]
 8002e86:	69fa      	ldr	r2, [r7, #28]
 8002e88:	4013      	ands	r3, r2
 8002e8a:	61bb      	str	r3, [r7, #24]

    if (iocurrent == ioposition)
 8002e8c:	69ba      	ldr	r2, [r7, #24]
 8002e8e:	69fb      	ldr	r3, [r7, #28]
 8002e90:	429a      	cmp	r2, r3
 8002e92:	f040 8116 	bne.w	80030c2 <HAL_GPIO_Init+0x25e>
    {
      /* Check the Alternate function parameters */
      assert_param(IS_GPIO_AF_INSTANCE(GPIOx));

      /* Based on the required mode, filling config variable with MODEy[1:0] and CNFy[3:2] corresponding bits */
      switch (GPIO_Init->Mode)
 8002e96:	683b      	ldr	r3, [r7, #0]
 8002e98:	685b      	ldr	r3, [r3, #4]
 8002e9a:	2b12      	cmp	r3, #18
 8002e9c:	d034      	beq.n	8002f08 <HAL_GPIO_Init+0xa4>
 8002e9e:	2b12      	cmp	r3, #18
 8002ea0:	d80d      	bhi.n	8002ebe <HAL_GPIO_Init+0x5a>
 8002ea2:	2b02      	cmp	r3, #2
 8002ea4:	d02b      	beq.n	8002efe <HAL_GPIO_Init+0x9a>
 8002ea6:	2b02      	cmp	r3, #2
 8002ea8:	d804      	bhi.n	8002eb4 <HAL_GPIO_Init+0x50>
 8002eaa:	2b00      	cmp	r3, #0
 8002eac:	d031      	beq.n	8002f12 <HAL_GPIO_Init+0xae>
 8002eae:	2b01      	cmp	r3, #1
 8002eb0:	d01c      	beq.n	8002eec <HAL_GPIO_Init+0x88>
          config = GPIO_CR_MODE_INPUT + GPIO_CR_CNF_ANALOG;
          break;

        /* Parameters are checked with assert_param */
        default:
          break;
 8002eb2:	e048      	b.n	8002f46 <HAL_GPIO_Init+0xe2>
      switch (GPIO_Init->Mode)
 8002eb4:	2b03      	cmp	r3, #3
 8002eb6:	d043      	beq.n	8002f40 <HAL_GPIO_Init+0xdc>
 8002eb8:	2b11      	cmp	r3, #17
 8002eba:	d01b      	beq.n	8002ef4 <HAL_GPIO_Init+0x90>
          break;
 8002ebc:	e043      	b.n	8002f46 <HAL_GPIO_Init+0xe2>
      switch (GPIO_Init->Mode)
 8002ebe:	4a89      	ldr	r2, [pc, #548]	; (80030e4 <HAL_GPIO_Init+0x280>)
 8002ec0:	4293      	cmp	r3, r2
 8002ec2:	d026      	beq.n	8002f12 <HAL_GPIO_Init+0xae>
 8002ec4:	4a87      	ldr	r2, [pc, #540]	; (80030e4 <HAL_GPIO_Init+0x280>)
 8002ec6:	4293      	cmp	r3, r2
 8002ec8:	d806      	bhi.n	8002ed8 <HAL_GPIO_Init+0x74>
 8002eca:	4a87      	ldr	r2, [pc, #540]	; (80030e8 <HAL_GPIO_Init+0x284>)
 8002ecc:	4293      	cmp	r3, r2
 8002ece:	d020      	beq.n	8002f12 <HAL_GPIO_Init+0xae>
 8002ed0:	4a86      	ldr	r2, [pc, #536]	; (80030ec <HAL_GPIO_Init+0x288>)
 8002ed2:	4293      	cmp	r3, r2
 8002ed4:	d01d      	beq.n	8002f12 <HAL_GPIO_Init+0xae>
          break;
 8002ed6:	e036      	b.n	8002f46 <HAL_GPIO_Init+0xe2>
      switch (GPIO_Init->Mode)
 8002ed8:	4a85      	ldr	r2, [pc, #532]	; (80030f0 <HAL_GPIO_Init+0x28c>)
 8002eda:	4293      	cmp	r3, r2
 8002edc:	d019      	beq.n	8002f12 <HAL_GPIO_Init+0xae>
 8002ede:	4a85      	ldr	r2, [pc, #532]	; (80030f4 <HAL_GPIO_Init+0x290>)
 8002ee0:	4293      	cmp	r3, r2
 8002ee2:	d016      	beq.n	8002f12 <HAL_GPIO_Init+0xae>
 8002ee4:	4a84      	ldr	r2, [pc, #528]	; (80030f8 <HAL_GPIO_Init+0x294>)
 8002ee6:	4293      	cmp	r3, r2
 8002ee8:	d013      	beq.n	8002f12 <HAL_GPIO_Init+0xae>
          break;
 8002eea:	e02c      	b.n	8002f46 <HAL_GPIO_Init+0xe2>
          config = GPIO_Init->Speed + GPIO_CR_CNF_GP_OUTPUT_PP;
 8002eec:	683b      	ldr	r3, [r7, #0]
 8002eee:	68db      	ldr	r3, [r3, #12]
 8002ef0:	623b      	str	r3, [r7, #32]
          break;
 8002ef2:	e028      	b.n	8002f46 <HAL_GPIO_Init+0xe2>
          config = GPIO_Init->Speed + GPIO_CR_CNF_GP_OUTPUT_OD;
 8002ef4:	683b      	ldr	r3, [r7, #0]
 8002ef6:	68db      	ldr	r3, [r3, #12]
 8002ef8:	3304      	adds	r3, #4
 8002efa:	623b      	str	r3, [r7, #32]
          break;
 8002efc:	e023      	b.n	8002f46 <HAL_GPIO_Init+0xe2>
          config = GPIO_Init->Speed + GPIO_CR_CNF_AF_OUTPUT_PP;
 8002efe:	683b      	ldr	r3, [r7, #0]
 8002f00:	68db      	ldr	r3, [r3, #12]
 8002f02:	3308      	adds	r3, #8
 8002f04:	623b      	str	r3, [r7, #32]
          break;
 8002f06:	e01e      	b.n	8002f46 <HAL_GPIO_Init+0xe2>
          config = GPIO_Init->Speed + GPIO_CR_CNF_AF_OUTPUT_OD;
 8002f08:	683b      	ldr	r3, [r7, #0]
 8002f0a:	68db      	ldr	r3, [r3, #12]
 8002f0c:	330c      	adds	r3, #12
 8002f0e:	623b      	str	r3, [r7, #32]
          break;
 8002f10:	e019      	b.n	8002f46 <HAL_GPIO_Init+0xe2>
          if (GPIO_Init->Pull == GPIO_NOPULL)
 8002f12:	683b      	ldr	r3, [r7, #0]
 8002f14:	689b      	ldr	r3, [r3, #8]
 8002f16:	2b00      	cmp	r3, #0
 8002f18:	d102      	bne.n	8002f20 <HAL_GPIO_Init+0xbc>
            config = GPIO_CR_MODE_INPUT + GPIO_CR_CNF_INPUT_FLOATING;
 8002f1a:	2304      	movs	r3, #4
 8002f1c:	623b      	str	r3, [r7, #32]
          break;
 8002f1e:	e012      	b.n	8002f46 <HAL_GPIO_Init+0xe2>
          else if (GPIO_Init->Pull == GPIO_PULLUP)
 8002f20:	683b      	ldr	r3, [r7, #0]
 8002f22:	689b      	ldr	r3, [r3, #8]
 8002f24:	2b01      	cmp	r3, #1
 8002f26:	d105      	bne.n	8002f34 <HAL_GPIO_Init+0xd0>
            config = GPIO_CR_MODE_INPUT + GPIO_CR_CNF_INPUT_PU_PD;
 8002f28:	2308      	movs	r3, #8
 8002f2a:	623b      	str	r3, [r7, #32]
            GPIOx->BSRR = ioposition;
 8002f2c:	687b      	ldr	r3, [r7, #4]
 8002f2e:	69fa      	ldr	r2, [r7, #28]
 8002f30:	611a      	str	r2, [r3, #16]
          break;
 8002f32:	e008      	b.n	8002f46 <HAL_GPIO_Init+0xe2>
            config = GPIO_CR_MODE_INPUT + GPIO_CR_CNF_INPUT_PU_PD;
 8002f34:	2308      	movs	r3, #8
 8002f36:	623b      	str	r3, [r7, #32]
            GPIOx->BRR = ioposition;
 8002f38:	687b      	ldr	r3, [r7, #4]
 8002f3a:	69fa      	ldr	r2, [r7, #28]
 8002f3c:	615a      	str	r2, [r3, #20]
          break;
 8002f3e:	e002      	b.n	8002f46 <HAL_GPIO_Init+0xe2>
          config = GPIO_CR_MODE_INPUT + GPIO_CR_CNF_ANALOG;
 8002f40:	2300      	movs	r3, #0
 8002f42:	623b      	str	r3, [r7, #32]
          break;
 8002f44:	bf00      	nop
      }

      /* Check if the current bit belongs to first half or last half of the pin count number
       in order to address CRH or CRL register*/
      configregister = (iocurrent < GPIO_PIN_8) ? &GPIOx->CRL     : &GPIOx->CRH;
 8002f46:	69bb      	ldr	r3, [r7, #24]
 8002f48:	2bff      	cmp	r3, #255	; 0xff
 8002f4a:	d801      	bhi.n	8002f50 <HAL_GPIO_Init+0xec>
 8002f4c:	687b      	ldr	r3, [r7, #4]
 8002f4e:	e001      	b.n	8002f54 <HAL_GPIO_Init+0xf0>
 8002f50:	687b      	ldr	r3, [r7, #4]
 8002f52:	3304      	adds	r3, #4
 8002f54:	617b      	str	r3, [r7, #20]
      registeroffset = (iocurrent < GPIO_PIN_8) ? (position << 2u) : ((position - 8u) << 2u);
 8002f56:	69bb      	ldr	r3, [r7, #24]
 8002f58:	2bff      	cmp	r3, #255	; 0xff
 8002f5a:	d802      	bhi.n	8002f62 <HAL_GPIO_Init+0xfe>
 8002f5c:	6a7b      	ldr	r3, [r7, #36]	; 0x24
 8002f5e:	009b      	lsls	r3, r3, #2
 8002f60:	e002      	b.n	8002f68 <HAL_GPIO_Init+0x104>
 8002f62:	6a7b      	ldr	r3, [r7, #36]	; 0x24
 8002f64:	3b08      	subs	r3, #8
 8002f66:	009b      	lsls	r3, r3, #2
 8002f68:	613b      	str	r3, [r7, #16]

      /* Apply the new configuration of the pin to the register */
      MODIFY_REG((*configregister), ((GPIO_CRL_MODE0 | GPIO_CRL_CNF0) << registeroffset), (config << registeroffset));
 8002f6a:	697b      	ldr	r3, [r7, #20]
 8002f6c:	681a      	ldr	r2, [r3, #0]
 8002f6e:	210f      	movs	r1, #15
 8002f70:	693b      	ldr	r3, [r7, #16]
 8002f72:	fa01 f303 	lsl.w	r3, r1, r3
 8002f76:	43db      	mvns	r3, r3
 8002f78:	401a      	ands	r2, r3
 8002f7a:	6a39      	ldr	r1, [r7, #32]
 8002f7c:	693b      	ldr	r3, [r7, #16]
 8002f7e:	fa01 f303 	lsl.w	r3, r1, r3
 8002f82:	431a      	orrs	r2, r3
 8002f84:	697b      	ldr	r3, [r7, #20]
 8002f86:	601a      	str	r2, [r3, #0]

      /*--------------------- EXTI Mode Configuration ------------------------*/
      /* Configure the External Interrupt or event for the current IO */
      if ((GPIO_Init->Mode & EXTI_MODE) == EXTI_MODE)
 8002f88:	683b      	ldr	r3, [r7, #0]
 8002f8a:	685b      	ldr	r3, [r3, #4]
 8002f8c:	f003 5380 	and.w	r3, r3, #268435456	; 0x10000000
 8002f90:	2b00      	cmp	r3, #0
 8002f92:	f000 8096 	beq.w	80030c2 <HAL_GPIO_Init+0x25e>
      {
        /* Enable AFIO Clock */
        __HAL_RCC_AFIO_CLK_ENABLE();
 8002f96:	4b59      	ldr	r3, [pc, #356]	; (80030fc <HAL_GPIO_Init+0x298>)
 8002f98:	699b      	ldr	r3, [r3, #24]
 8002f9a:	4a58      	ldr	r2, [pc, #352]	; (80030fc <HAL_GPIO_Init+0x298>)
 8002f9c:	f043 0301 	orr.w	r3, r3, #1
 8002fa0:	6193      	str	r3, [r2, #24]
 8002fa2:	4b56      	ldr	r3, [pc, #344]	; (80030fc <HAL_GPIO_Init+0x298>)
 8002fa4:	699b      	ldr	r3, [r3, #24]
 8002fa6:	f003 0301 	and.w	r3, r3, #1
 8002faa:	60bb      	str	r3, [r7, #8]
 8002fac:	68bb      	ldr	r3, [r7, #8]
        temp = AFIO->EXTICR[position >> 2u];
 8002fae:	4a54      	ldr	r2, [pc, #336]	; (8003100 <HAL_GPIO_Init+0x29c>)
 8002fb0:	6a7b      	ldr	r3, [r7, #36]	; 0x24
 8002fb2:	089b      	lsrs	r3, r3, #2
 8002fb4:	3302      	adds	r3, #2
 8002fb6:	f852 3023 	ldr.w	r3, [r2, r3, lsl #2]
 8002fba:	60fb      	str	r3, [r7, #12]
        CLEAR_BIT(temp, (0x0Fu) << (4u * (position & 0x03u)));
 8002fbc:	6a7b      	ldr	r3, [r7, #36]	; 0x24
 8002fbe:	f003 0303 	and.w	r3, r3, #3
 8002fc2:	009b      	lsls	r3, r3, #2
 8002fc4:	220f      	movs	r2, #15
 8002fc6:	fa02 f303 	lsl.w	r3, r2, r3
 8002fca:	43db      	mvns	r3, r3
 8002fcc:	68fa      	ldr	r2, [r7, #12]
 8002fce:	4013      	ands	r3, r2
 8002fd0:	60fb      	str	r3, [r7, #12]
        SET_BIT(temp, (GPIO_GET_INDEX(GPIOx)) << (4u * (position & 0x03u)));
 8002fd2:	687b      	ldr	r3, [r7, #4]
 8002fd4:	4a4b      	ldr	r2, [pc, #300]	; (8003104 <HAL_GPIO_Init+0x2a0>)
 8002fd6:	4293      	cmp	r3, r2
 8002fd8:	d013      	beq.n	8003002 <HAL_GPIO_Init+0x19e>
 8002fda:	687b      	ldr	r3, [r7, #4]
 8002fdc:	4a4a      	ldr	r2, [pc, #296]	; (8003108 <HAL_GPIO_Init+0x2a4>)
 8002fde:	4293      	cmp	r3, r2
 8002fe0:	d00d      	beq.n	8002ffe <HAL_GPIO_Init+0x19a>
 8002fe2:	687b      	ldr	r3, [r7, #4]
 8002fe4:	4a49      	ldr	r2, [pc, #292]	; (800310c <HAL_GPIO_Init+0x2a8>)
 8002fe6:	4293      	cmp	r3, r2
 8002fe8:	d007      	beq.n	8002ffa <HAL_GPIO_Init+0x196>
 8002fea:	687b      	ldr	r3, [r7, #4]
 8002fec:	4a48      	ldr	r2, [pc, #288]	; (8003110 <HAL_GPIO_Init+0x2ac>)
 8002fee:	4293      	cmp	r3, r2
 8002ff0:	d101      	bne.n	8002ff6 <HAL_GPIO_Init+0x192>
 8002ff2:	2303      	movs	r3, #3
 8002ff4:	e006      	b.n	8003004 <HAL_GPIO_Init+0x1a0>
 8002ff6:	2304      	movs	r3, #4
 8002ff8:	e004      	b.n	8003004 <HAL_GPIO_Init+0x1a0>
 8002ffa:	2302      	movs	r3, #2
 8002ffc:	e002      	b.n	8003004 <HAL_GPIO_Init+0x1a0>
 8002ffe:	2301      	movs	r3, #1
 8003000:	e000      	b.n	8003004 <HAL_GPIO_Init+0x1a0>
 8003002:	2300      	movs	r3, #0
 8003004:	6a7a      	ldr	r2, [r7, #36]	; 0x24
 8003006:	f002 0203 	and.w	r2, r2, #3
 800300a:	0092      	lsls	r2, r2, #2
 800300c:	4093      	lsls	r3, r2
 800300e:	68fa      	ldr	r2, [r7, #12]
 8003010:	4313      	orrs	r3, r2
 8003012:	60fb      	str	r3, [r7, #12]
        AFIO->EXTICR[position >> 2u] = temp;
 8003014:	493a      	ldr	r1, [pc, #232]	; (8003100 <HAL_GPIO_Init+0x29c>)
 8003016:	6a7b      	ldr	r3, [r7, #36]	; 0x24
 8003018:	089b      	lsrs	r3, r3, #2
 800301a:	3302      	adds	r3, #2
 800301c:	68fa      	ldr	r2, [r7, #12]
 800301e:	f841 2023 	str.w	r2, [r1, r3, lsl #2]


        /* Configure the interrupt mask */
        if ((GPIO_Init->Mode & GPIO_MODE_IT) == GPIO_MODE_IT)
 8003022:	683b      	ldr	r3, [r7, #0]
 8003024:	685b      	ldr	r3, [r3, #4]
 8003026:	f403 3380 	and.w	r3, r3, #65536	; 0x10000
 800302a:	2b00      	cmp	r3, #0
 800302c:	d006      	beq.n	800303c <HAL_GPIO_Init+0x1d8>
        {
          SET_BIT(EXTI->IMR, iocurrent);
 800302e:	4b39      	ldr	r3, [pc, #228]	; (8003114 <HAL_GPIO_Init+0x2b0>)
 8003030:	681a      	ldr	r2, [r3, #0]
 8003032:	4938      	ldr	r1, [pc, #224]	; (8003114 <HAL_GPIO_Init+0x2b0>)
 8003034:	69bb      	ldr	r3, [r7, #24]
 8003036:	4313      	orrs	r3, r2
 8003038:	600b      	str	r3, [r1, #0]
 800303a:	e006      	b.n	800304a <HAL_GPIO_Init+0x1e6>
        }
        else
        {
          CLEAR_BIT(EXTI->IMR, iocurrent);
 800303c:	4b35      	ldr	r3, [pc, #212]	; (8003114 <HAL_GPIO_Init+0x2b0>)
 800303e:	681a      	ldr	r2, [r3, #0]
 8003040:	69bb      	ldr	r3, [r7, #24]
 8003042:	43db      	mvns	r3, r3
 8003044:	4933      	ldr	r1, [pc, #204]	; (8003114 <HAL_GPIO_Init+0x2b0>)
 8003046:	4013      	ands	r3, r2
 8003048:	600b      	str	r3, [r1, #0]
        }

        /* Configure the event mask */
        if ((GPIO_Init->Mode & GPIO_MODE_EVT) == GPIO_MODE_EVT)
 800304a:	683b      	ldr	r3, [r7, #0]
 800304c:	685b      	ldr	r3, [r3, #4]
 800304e:	f403 3300 	and.w	r3, r3, #131072	; 0x20000
 8003052:	2b00      	cmp	r3, #0
 8003054:	d006      	beq.n	8003064 <HAL_GPIO_Init+0x200>
        {
          SET_BIT(EXTI->EMR, iocurrent);
 8003056:	4b2f      	ldr	r3, [pc, #188]	; (8003114 <HAL_GPIO_Init+0x2b0>)
 8003058:	685a      	ldr	r2, [r3, #4]
 800305a:	492e      	ldr	r1, [pc, #184]	; (8003114 <HAL_GPIO_Init+0x2b0>)
 800305c:	69bb      	ldr	r3, [r7, #24]
 800305e:	4313      	orrs	r3, r2
 8003060:	604b      	str	r3, [r1, #4]
 8003062:	e006      	b.n	8003072 <HAL_GPIO_Init+0x20e>
        }
        else
        {
          CLEAR_BIT(EXTI->EMR, iocurrent);
 8003064:	4b2b      	ldr	r3, [pc, #172]	; (8003114 <HAL_GPIO_Init+0x2b0>)
 8003066:	685a      	ldr	r2, [r3, #4]
 8003068:	69bb      	ldr	r3, [r7, #24]
 800306a:	43db      	mvns	r3, r3
 800306c:	4929      	ldr	r1, [pc, #164]	; (8003114 <HAL_GPIO_Init+0x2b0>)
 800306e:	4013      	ands	r3, r2
 8003070:	604b      	str	r3, [r1, #4]
        }

        /* Enable or disable the rising trigger */
        if ((GPIO_Init->Mode & RISING_EDGE) == RISING_EDGE)
 8003072:	683b      	ldr	r3, [r7, #0]
 8003074:	685b      	ldr	r3, [r3, #4]
 8003076:	f403 1380 	and.w	r3, r3, #1048576	; 0x100000
 800307a:	2b00      	cmp	r3, #0
 800307c:	d006      	beq.n	800308c <HAL_GPIO_Init+0x228>
        {
          SET_BIT(EXTI->RTSR, iocurrent);
 800307e:	4b25      	ldr	r3, [pc, #148]	; (8003114 <HAL_GPIO_Init+0x2b0>)
 8003080:	689a      	ldr	r2, [r3, #8]
 8003082:	4924      	ldr	r1, [pc, #144]	; (8003114 <HAL_GPIO_Init+0x2b0>)
 8003084:	69bb      	ldr	r3, [r7, #24]
 8003086:	4313      	orrs	r3, r2
 8003088:	608b      	str	r3, [r1, #8]
 800308a:	e006      	b.n	800309a <HAL_GPIO_Init+0x236>
        }
        else
        {
          CLEAR_BIT(EXTI->RTSR, iocurrent);
 800308c:	4b21      	ldr	r3, [pc, #132]	; (8003114 <HAL_GPIO_Init+0x2b0>)
 800308e:	689a      	ldr	r2, [r3, #8]
 8003090:	69bb      	ldr	r3, [r7, #24]
 8003092:	43db      	mvns	r3, r3
 8003094:	491f      	ldr	r1, [pc, #124]	; (8003114 <HAL_GPIO_Init+0x2b0>)
 8003096:	4013      	ands	r3, r2
 8003098:	608b      	str	r3, [r1, #8]
        }

        /* Enable or disable the falling trigger */
        if ((GPIO_Init->Mode & FALLING_EDGE) == FALLING_EDGE)
 800309a:	683b      	ldr	r3, [r7, #0]
 800309c:	685b      	ldr	r3, [r3, #4]
 800309e:	f403 1300 	and.w	r3, r3, #2097152	; 0x200000
 80030a2:	2b00      	cmp	r3, #0
 80030a4:	d006      	beq.n	80030b4 <HAL_GPIO_Init+0x250>
        {
          SET_BIT(EXTI->FTSR, iocurrent);
 80030a6:	4b1b      	ldr	r3, [pc, #108]	; (8003114 <HAL_GPIO_Init+0x2b0>)
 80030a8:	68da      	ldr	r2, [r3, #12]
 80030aa:	491a      	ldr	r1, [pc, #104]	; (8003114 <HAL_GPIO_Init+0x2b0>)
 80030ac:	69bb      	ldr	r3, [r7, #24]
 80030ae:	4313      	orrs	r3, r2
 80030b0:	60cb      	str	r3, [r1, #12]
 80030b2:	e006      	b.n	80030c2 <HAL_GPIO_Init+0x25e>
        }
        else
        {
          CLEAR_BIT(EXTI->FTSR, iocurrent);
 80030b4:	4b17      	ldr	r3, [pc, #92]	; (8003114 <HAL_GPIO_Init+0x2b0>)
 80030b6:	68da      	ldr	r2, [r3, #12]
 80030b8:	69bb      	ldr	r3, [r7, #24]
 80030ba:	43db      	mvns	r3, r3
 80030bc:	4915      	ldr	r1, [pc, #84]	; (8003114 <HAL_GPIO_Init+0x2b0>)
 80030be:	4013      	ands	r3, r2
 80030c0:	60cb      	str	r3, [r1, #12]
        }
      }
    }

	position++;
 80030c2:	6a7b      	ldr	r3, [r7, #36]	; 0x24
 80030c4:	3301      	adds	r3, #1
 80030c6:	627b      	str	r3, [r7, #36]	; 0x24
  while (((GPIO_Init->Pin) >> position) != 0x00u)
 80030c8:	683b      	ldr	r3, [r7, #0]
 80030ca:	681a      	ldr	r2, [r3, #0]
 80030cc:	6a7b      	ldr	r3, [r7, #36]	; 0x24
 80030ce:	fa22 f303 	lsr.w	r3, r2, r3
 80030d2:	2b00      	cmp	r3, #0
 80030d4:	f47f aed0 	bne.w	8002e78 <HAL_GPIO_Init+0x14>
  }
}
 80030d8:	bf00      	nop
 80030da:	372c      	adds	r7, #44	; 0x2c
 80030dc:	46bd      	mov	sp, r7
 80030de:	bc80      	pop	{r7}
 80030e0:	4770      	bx	lr
 80030e2:	bf00      	nop
 80030e4:	10210000 	.word	0x10210000
 80030e8:	10110000 	.word	0x10110000
 80030ec:	10120000 	.word	0x10120000
 80030f0:	10310000 	.word	0x10310000
 80030f4:	10320000 	.word	0x10320000
 80030f8:	10220000 	.word	0x10220000
 80030fc:	40021000 	.word	0x40021000
 8003100:	40010000 	.word	0x40010000
 8003104:	40010800 	.word	0x40010800
 8003108:	40010c00 	.word	0x40010c00
 800310c:	40011000 	.word	0x40011000
 8003110:	40011400 	.word	0x40011400
 8003114:	40010400 	.word	0x40010400

08003118 <HAL_GPIO_ReadPin>:
  * @param  GPIO_Pin: specifies the port bit to read.
  *         This parameter can be GPIO_PIN_x where x can be (0..15).
  * @retval The input port pin value.
  */
GPIO_PinState HAL_GPIO_ReadPin(GPIO_TypeDef *GPIOx, uint16_t GPIO_Pin)
{
 8003118:	b480      	push	{r7}
 800311a:	b085      	sub	sp, #20
 800311c:	af00      	add	r7, sp, #0
 800311e:	6078      	str	r0, [r7, #4]
 8003120:	460b      	mov	r3, r1
 8003122:	807b      	strh	r3, [r7, #2]
  GPIO_PinState bitstatus;

  /* Check the parameters */
  assert_param(IS_GPIO_PIN(GPIO_Pin));

  if ((GPIOx->IDR & GPIO_Pin) != (uint32_t)GPIO_PIN_RESET)
 8003124:	687b      	ldr	r3, [r7, #4]
 8003126:	689a      	ldr	r2, [r3, #8]
 8003128:	887b      	ldrh	r3, [r7, #2]
 800312a:	4013      	ands	r3, r2
 800312c:	2b00      	cmp	r3, #0
 800312e:	d002      	beq.n	8003136 <HAL_GPIO_ReadPin+0x1e>
  {
    bitstatus = GPIO_PIN_SET;
 8003130:	2301      	movs	r3, #1
 8003132:	73fb      	strb	r3, [r7, #15]
 8003134:	e001      	b.n	800313a <HAL_GPIO_ReadPin+0x22>
  }
  else
  {
    bitstatus = GPIO_PIN_RESET;
 8003136:	2300      	movs	r3, #0
 8003138:	73fb      	strb	r3, [r7, #15]
  }
  return bitstatus;
 800313a:	7bfb      	ldrb	r3, [r7, #15]
}
 800313c:	4618      	mov	r0, r3
 800313e:	3714      	adds	r7, #20
 8003140:	46bd      	mov	sp, r7
 8003142:	bc80      	pop	{r7}
 8003144:	4770      	bx	lr

08003146 <HAL_GPIO_WritePin>:
  *            @arg GPIO_PIN_RESET: to clear the port pin
  *            @arg GPIO_PIN_SET: to set the port pin
  * @retval None
  */
void HAL_GPIO_WritePin(GPIO_TypeDef *GPIOx, uint16_t GPIO_Pin, GPIO_PinState PinState)
{
 8003146:	b480      	push	{r7}
 8003148:	b083      	sub	sp, #12
 800314a:	af00      	add	r7, sp, #0
 800314c:	6078      	str	r0, [r7, #4]
 800314e:	460b      	mov	r3, r1
 8003150:	807b      	strh	r3, [r7, #2]
 8003152:	4613      	mov	r3, r2
 8003154:	707b      	strb	r3, [r7, #1]
  /* Check the parameters */
  assert_param(IS_GPIO_PIN(GPIO_Pin));
  assert_param(IS_GPIO_PIN_ACTION(PinState));

  if (PinState != GPIO_PIN_RESET)
 8003156:	787b      	ldrb	r3, [r7, #1]
 8003158:	2b00      	cmp	r3, #0
 800315a:	d003      	beq.n	8003164 <HAL_GPIO_WritePin+0x1e>
  {
    GPIOx->BSRR = GPIO_Pin;
 800315c:	887a      	ldrh	r2, [r7, #2]
 800315e:	687b      	ldr	r3, [r7, #4]
 8003160:	611a      	str	r2, [r3, #16]
  }
  else
  {
    GPIOx->BSRR = (uint32_t)GPIO_Pin << 16u;
  }
}
 8003162:	e003      	b.n	800316c <HAL_GPIO_WritePin+0x26>
    GPIOx->BSRR = (uint32_t)GPIO_Pin << 16u;
 8003164:	887b      	ldrh	r3, [r7, #2]
 8003166:	041a      	lsls	r2, r3, #16
 8003168:	687b      	ldr	r3, [r7, #4]
 800316a:	611a      	str	r2, [r3, #16]
}
 800316c:	bf00      	nop
 800316e:	370c      	adds	r7, #12
 8003170:	46bd      	mov	sp, r7
 8003172:	bc80      	pop	{r7}
 8003174:	4770      	bx	lr

08003176 <HAL_GPIO_TogglePin>:
  * @param  GPIOx: where x can be (A..G depending on device used) to select the GPIO peripheral
  * @param  GPIO_Pin: Specifies the pins to be toggled.
  * @retval None
  */
void HAL_GPIO_TogglePin(GPIO_TypeDef *GPIOx, uint16_t GPIO_Pin)
{
 8003176:	b480      	push	{r7}
 8003178:	b083      	sub	sp, #12
 800317a:	af00      	add	r7, sp, #0
 800317c:	6078      	str	r0, [r7, #4]
 800317e:	460b      	mov	r3, r1
 8003180:	807b      	strh	r3, [r7, #2]
  /* Check the parameters */
  assert_param(IS_GPIO_PIN(GPIO_Pin));

  if ((GPIOx->ODR & GPIO_Pin) != 0x00u)
 8003182:	687b      	ldr	r3, [r7, #4]
 8003184:	68da      	ldr	r2, [r3, #12]
 8003186:	887b      	ldrh	r3, [r7, #2]
 8003188:	4013      	ands	r3, r2
 800318a:	2b00      	cmp	r3, #0
 800318c:	d003      	beq.n	8003196 <HAL_GPIO_TogglePin+0x20>
  {
    GPIOx->BRR = (uint32_t)GPIO_Pin;
 800318e:	887a      	ldrh	r2, [r7, #2]
 8003190:	687b      	ldr	r3, [r7, #4]
 8003192:	615a      	str	r2, [r3, #20]
  }
  else
  {
    GPIOx->BSRR = (uint32_t)GPIO_Pin;
  }
}
 8003194:	e002      	b.n	800319c <HAL_GPIO_TogglePin+0x26>
    GPIOx->BSRR = (uint32_t)GPIO_Pin;
 8003196:	887a      	ldrh	r2, [r7, #2]
 8003198:	687b      	ldr	r3, [r7, #4]
 800319a:	611a      	str	r2, [r3, #16]
}
 800319c:	bf00      	nop
 800319e:	370c      	adds	r7, #12
 80031a0:	46bd      	mov	sp, r7
 80031a2:	bc80      	pop	{r7}
 80031a4:	4770      	bx	lr
	...

080031a8 <HAL_GPIO_EXTI_IRQHandler>:
  * @brief  This function handles EXTI interrupt request.
  * @param  GPIO_Pin: Specifies the pins connected EXTI line
  * @retval None
  */
void HAL_GPIO_EXTI_IRQHandler(uint16_t GPIO_Pin)
{
 80031a8:	b580      	push	{r7, lr}
 80031aa:	b082      	sub	sp, #8
 80031ac:	af00      	add	r7, sp, #0
 80031ae:	4603      	mov	r3, r0
 80031b0:	80fb      	strh	r3, [r7, #6]
  /* EXTI line interrupt detected */
  if (__HAL_GPIO_EXTI_GET_IT(GPIO_Pin) != 0x00u)
 80031b2:	4b08      	ldr	r3, [pc, #32]	; (80031d4 <HAL_GPIO_EXTI_IRQHandler+0x2c>)
 80031b4:	695a      	ldr	r2, [r3, #20]
 80031b6:	88fb      	ldrh	r3, [r7, #6]
 80031b8:	4013      	ands	r3, r2
 80031ba:	2b00      	cmp	r3, #0
 80031bc:	d006      	beq.n	80031cc <HAL_GPIO_EXTI_IRQHandler+0x24>
  {
    __HAL_GPIO_EXTI_CLEAR_IT(GPIO_Pin);
 80031be:	4a05      	ldr	r2, [pc, #20]	; (80031d4 <HAL_GPIO_EXTI_IRQHandler+0x2c>)
 80031c0:	88fb      	ldrh	r3, [r7, #6]
 80031c2:	6153      	str	r3, [r2, #20]
    HAL_GPIO_EXTI_Callback(GPIO_Pin);
 80031c4:	88fb      	ldrh	r3, [r7, #6]
 80031c6:	4618      	mov	r0, r3
 80031c8:	f000 f806 	bl	80031d8 <HAL_GPIO_EXTI_Callback>
  }
}
 80031cc:	bf00      	nop
 80031ce:	3708      	adds	r7, #8
 80031d0:	46bd      	mov	sp, r7
 80031d2:	bd80      	pop	{r7, pc}
 80031d4:	40010400 	.word	0x40010400

080031d8 <HAL_GPIO_EXTI_Callback>:
  * @brief  EXTI line detection callbacks.
  * @param  GPIO_Pin: Specifies the pins connected EXTI line
  * @retval None
  */
__weak void HAL_GPIO_EXTI_Callback(uint16_t GPIO_Pin)
{
 80031d8:	b480      	push	{r7}
 80031da:	b083      	sub	sp, #12
 80031dc:	af00      	add	r7, sp, #0
 80031de:	4603      	mov	r3, r0
 80031e0:	80fb      	strh	r3, [r7, #6]
  /* Prevent unused argument(s) compilation warning */
  UNUSED(GPIO_Pin);
  /* NOTE: This function Should not be modified, when the callback is needed,
           the HAL_GPIO_EXTI_Callback could be implemented in the user file
   */
}
 80031e2:	bf00      	nop
 80031e4:	370c      	adds	r7, #12
 80031e6:	46bd      	mov	sp, r7
 80031e8:	bc80      	pop	{r7}
 80031ea:	4770      	bx	lr

080031ec <HAL_I2C_Init>:
  * @param  hi2c Pointer to a I2C_HandleTypeDef structure that contains
  *                the configuration information for the specified I2C.
  * @retval HAL status
  */
HAL_StatusTypeDef HAL_I2C_Init(I2C_HandleTypeDef *hi2c)
{
 80031ec:	b580      	push	{r7, lr}
 80031ee:	b084      	sub	sp, #16
 80031f0:	af00      	add	r7, sp, #0
 80031f2:	6078      	str	r0, [r7, #4]
  uint32_t freqrange;
  uint32_t pclk1;

  /* Check the I2C handle allocation */
  if (hi2c == NULL)
 80031f4:	687b      	ldr	r3, [r7, #4]
 80031f6:	2b00      	cmp	r3, #0
 80031f8:	d101      	bne.n	80031fe <HAL_I2C_Init+0x12>
  {
    return HAL_ERROR;
 80031fa:	2301      	movs	r3, #1
 80031fc:	e10f      	b.n	800341e <HAL_I2C_Init+0x232>
  assert_param(IS_I2C_DUAL_ADDRESS(hi2c->Init.DualAddressMode));
  assert_param(IS_I2C_OWN_ADDRESS2(hi2c->Init.OwnAddress2));
  assert_param(IS_I2C_GENERAL_CALL(hi2c->Init.GeneralCallMode));
  assert_param(IS_I2C_NO_STRETCH(hi2c->Init.NoStretchMode));

  if (hi2c->State == HAL_I2C_STATE_RESET)
 80031fe:	687b      	ldr	r3, [r7, #4]
 8003200:	f893 303d 	ldrb.w	r3, [r3, #61]	; 0x3d
 8003204:	b2db      	uxtb	r3, r3
 8003206:	2b00      	cmp	r3, #0
 8003208:	d106      	bne.n	8003218 <HAL_I2C_Init+0x2c>
  {
    /* Allocate lock resource and initialize it */
    hi2c->Lock = HAL_UNLOCKED;
 800320a:	687b      	ldr	r3, [r7, #4]
 800320c:	2200      	movs	r2, #0
 800320e:	f883 203c 	strb.w	r2, [r3, #60]	; 0x3c

    /* Init the low level hardware : GPIO, CLOCK, NVIC */
    hi2c->MspInitCallback(hi2c);
#else
    /* Init the low level hardware : GPIO, CLOCK, NVIC */
    HAL_I2C_MspInit(hi2c);
 8003212:	6878      	ldr	r0, [r7, #4]
 8003214:	f7fd fdf4 	bl	8000e00 <HAL_I2C_MspInit>
#endif /* USE_HAL_I2C_REGISTER_CALLBACKS */
  }

  hi2c->State = HAL_I2C_STATE_BUSY;
 8003218:	687b      	ldr	r3, [r7, #4]
 800321a:	2224      	movs	r2, #36	; 0x24
 800321c:	f883 203d 	strb.w	r2, [r3, #61]	; 0x3d

  /* Disable the selected I2C peripheral */
  __HAL_I2C_DISABLE(hi2c);
 8003220:	687b      	ldr	r3, [r7, #4]
 8003222:	681b      	ldr	r3, [r3, #0]
 8003224:	681a      	ldr	r2, [r3, #0]
 8003226:	687b      	ldr	r3, [r7, #4]
 8003228:	681b      	ldr	r3, [r3, #0]
 800322a:	f022 0201 	bic.w	r2, r2, #1
 800322e:	601a      	str	r2, [r3, #0]

  /* Get PCLK1 frequency */
  pclk1 = HAL_RCC_GetPCLK1Freq();
 8003230:	f001 f8ea 	bl	8004408 <HAL_RCC_GetPCLK1Freq>
 8003234:	60f8      	str	r0, [r7, #12]

  /* Check the minimum allowed PCLK1 frequency */
  if (I2C_MIN_PCLK_FREQ(pclk1, hi2c->Init.ClockSpeed) == 1U)
 8003236:	687b      	ldr	r3, [r7, #4]
 8003238:	685b      	ldr	r3, [r3, #4]
 800323a:	4a7b      	ldr	r2, [pc, #492]	; (8003428 <HAL_I2C_Init+0x23c>)
 800323c:	4293      	cmp	r3, r2
 800323e:	d807      	bhi.n	8003250 <HAL_I2C_Init+0x64>
 8003240:	68fb      	ldr	r3, [r7, #12]
 8003242:	4a7a      	ldr	r2, [pc, #488]	; (800342c <HAL_I2C_Init+0x240>)
 8003244:	4293      	cmp	r3, r2
 8003246:	bf94      	ite	ls
 8003248:	2301      	movls	r3, #1
 800324a:	2300      	movhi	r3, #0
 800324c:	b2db      	uxtb	r3, r3
 800324e:	e006      	b.n	800325e <HAL_I2C_Init+0x72>
 8003250:	68fb      	ldr	r3, [r7, #12]
 8003252:	4a77      	ldr	r2, [pc, #476]	; (8003430 <HAL_I2C_Init+0x244>)
 8003254:	4293      	cmp	r3, r2
 8003256:	bf94      	ite	ls
 8003258:	2301      	movls	r3, #1
 800325a:	2300      	movhi	r3, #0
 800325c:	b2db      	uxtb	r3, r3
 800325e:	2b00      	cmp	r3, #0
 8003260:	d001      	beq.n	8003266 <HAL_I2C_Init+0x7a>
  {
    return HAL_ERROR;
 8003262:	2301      	movs	r3, #1
 8003264:	e0db      	b.n	800341e <HAL_I2C_Init+0x232>
  }

  /* Calculate frequency range */
  freqrange = I2C_FREQRANGE(pclk1);
 8003266:	68fb      	ldr	r3, [r7, #12]
 8003268:	4a72      	ldr	r2, [pc, #456]	; (8003434 <HAL_I2C_Init+0x248>)
 800326a:	fba2 2303 	umull	r2, r3, r2, r3
 800326e:	0c9b      	lsrs	r3, r3, #18
 8003270:	60bb      	str	r3, [r7, #8]

  /*---------------------------- I2Cx CR2 Configuration ----------------------*/
  /* Configure I2Cx: Frequency range */
  MODIFY_REG(hi2c->Instance->CR2, I2C_CR2_FREQ, freqrange);
 8003272:	687b      	ldr	r3, [r7, #4]
 8003274:	681b      	ldr	r3, [r3, #0]
 8003276:	685b      	ldr	r3, [r3, #4]
 8003278:	f023 013f 	bic.w	r1, r3, #63	; 0x3f
 800327c:	687b      	ldr	r3, [r7, #4]
 800327e:	681b      	ldr	r3, [r3, #0]
 8003280:	68ba      	ldr	r2, [r7, #8]
 8003282:	430a      	orrs	r2, r1
 8003284:	605a      	str	r2, [r3, #4]

  /*---------------------------- I2Cx TRISE Configuration --------------------*/
  /* Configure I2Cx: Rise Time */
  MODIFY_REG(hi2c->Instance->TRISE, I2C_TRISE_TRISE, I2C_RISE_TIME(freqrange, hi2c->Init.ClockSpeed));
 8003286:	687b      	ldr	r3, [r7, #4]
 8003288:	681b      	ldr	r3, [r3, #0]
 800328a:	6a1b      	ldr	r3, [r3, #32]
 800328c:	f023 013f 	bic.w	r1, r3, #63	; 0x3f
 8003290:	687b      	ldr	r3, [r7, #4]
 8003292:	685b      	ldr	r3, [r3, #4]
 8003294:	4a64      	ldr	r2, [pc, #400]	; (8003428 <HAL_I2C_Init+0x23c>)
 8003296:	4293      	cmp	r3, r2
 8003298:	d802      	bhi.n	80032a0 <HAL_I2C_Init+0xb4>
 800329a:	68bb      	ldr	r3, [r7, #8]
 800329c:	3301      	adds	r3, #1
 800329e:	e009      	b.n	80032b4 <HAL_I2C_Init+0xc8>
 80032a0:	68bb      	ldr	r3, [r7, #8]
 80032a2:	f44f 7296 	mov.w	r2, #300	; 0x12c
 80032a6:	fb02 f303 	mul.w	r3, r2, r3
 80032aa:	4a63      	ldr	r2, [pc, #396]	; (8003438 <HAL_I2C_Init+0x24c>)
 80032ac:	fba2 2303 	umull	r2, r3, r2, r3
 80032b0:	099b      	lsrs	r3, r3, #6
 80032b2:	3301      	adds	r3, #1
 80032b4:	687a      	ldr	r2, [r7, #4]
 80032b6:	6812      	ldr	r2, [r2, #0]
 80032b8:	430b      	orrs	r3, r1
 80032ba:	6213      	str	r3, [r2, #32]

  /*---------------------------- I2Cx CCR Configuration ----------------------*/
  /* Configure I2Cx: Speed */
  MODIFY_REG(hi2c->Instance->CCR, (I2C_CCR_FS | I2C_CCR_DUTY | I2C_CCR_CCR), I2C_SPEED(pclk1, hi2c->Init.ClockSpeed, hi2c->Init.DutyCycle));
 80032bc:	687b      	ldr	r3, [r7, #4]
 80032be:	681b      	ldr	r3, [r3, #0]
 80032c0:	69db      	ldr	r3, [r3, #28]
 80032c2:	f423 424f 	bic.w	r2, r3, #52992	; 0xcf00
 80032c6:	f022 02ff 	bic.w	r2, r2, #255	; 0xff
 80032ca:	687b      	ldr	r3, [r7, #4]
 80032cc:	685b      	ldr	r3, [r3, #4]
 80032ce:	4956      	ldr	r1, [pc, #344]	; (8003428 <HAL_I2C_Init+0x23c>)
 80032d0:	428b      	cmp	r3, r1
 80032d2:	d80d      	bhi.n	80032f0 <HAL_I2C_Init+0x104>
 80032d4:	68fb      	ldr	r3, [r7, #12]
 80032d6:	1e59      	subs	r1, r3, #1
 80032d8:	687b      	ldr	r3, [r7, #4]
 80032da:	685b      	ldr	r3, [r3, #4]
 80032dc:	005b      	lsls	r3, r3, #1
 80032de:	fbb1 f3f3 	udiv	r3, r1, r3
 80032e2:	3301      	adds	r3, #1
 80032e4:	f3c3 030b 	ubfx	r3, r3, #0, #12
 80032e8:	2b04      	cmp	r3, #4
 80032ea:	bf38      	it	cc
 80032ec:	2304      	movcc	r3, #4
 80032ee:	e04f      	b.n	8003390 <HAL_I2C_Init+0x1a4>
 80032f0:	687b      	ldr	r3, [r7, #4]
 80032f2:	689b      	ldr	r3, [r3, #8]
 80032f4:	2b00      	cmp	r3, #0
 80032f6:	d111      	bne.n	800331c <HAL_I2C_Init+0x130>
 80032f8:	68fb      	ldr	r3, [r7, #12]
 80032fa:	1e58      	subs	r0, r3, #1
 80032fc:	687b      	ldr	r3, [r7, #4]
 80032fe:	6859      	ldr	r1, [r3, #4]
 8003300:	460b      	mov	r3, r1
 8003302:	005b      	lsls	r3, r3, #1
 8003304:	440b      	add	r3, r1
 8003306:	fbb0 f3f3 	udiv	r3, r0, r3
 800330a:	3301      	adds	r3, #1
 800330c:	f3c3 030b 	ubfx	r3, r3, #0, #12
 8003310:	2b00      	cmp	r3, #0
 8003312:	bf0c      	ite	eq
 8003314:	2301      	moveq	r3, #1
 8003316:	2300      	movne	r3, #0
 8003318:	b2db      	uxtb	r3, r3
 800331a:	e012      	b.n	8003342 <HAL_I2C_Init+0x156>
 800331c:	68fb      	ldr	r3, [r7, #12]
 800331e:	1e58      	subs	r0, r3, #1
 8003320:	687b      	ldr	r3, [r7, #4]
 8003322:	6859      	ldr	r1, [r3, #4]
 8003324:	460b      	mov	r3, r1
 8003326:	009b      	lsls	r3, r3, #2
 8003328:	440b      	add	r3, r1
 800332a:	0099      	lsls	r1, r3, #2
 800332c:	440b      	add	r3, r1
 800332e:	fbb0 f3f3 	udiv	r3, r0, r3
 8003332:	3301      	adds	r3, #1
 8003334:	f3c3 030b 	ubfx	r3, r3, #0, #12
 8003338:	2b00      	cmp	r3, #0
 800333a:	bf0c      	ite	eq
 800333c:	2301      	moveq	r3, #1
 800333e:	2300      	movne	r3, #0
 8003340:	b2db      	uxtb	r3, r3
 8003342:	2b00      	cmp	r3, #0
 8003344:	d001      	beq.n	800334a <HAL_I2C_Init+0x15e>
 8003346:	2301      	movs	r3, #1
 8003348:	e022      	b.n	8003390 <HAL_I2C_Init+0x1a4>
 800334a:	687b      	ldr	r3, [r7, #4]
 800334c:	689b      	ldr	r3, [r3, #8]
 800334e:	2b00      	cmp	r3, #0
 8003350:	d10e      	bne.n	8003370 <HAL_I2C_Init+0x184>
 8003352:	68fb      	ldr	r3, [r7, #12]
 8003354:	1e58      	subs	r0, r3, #1
 8003356:	687b      	ldr	r3, [r7, #4]
 8003358:	6859      	ldr	r1, [r3, #4]
 800335a:	460b      	mov	r3, r1
 800335c:	005b      	lsls	r3, r3, #1
 800335e:	440b      	add	r3, r1
 8003360:	fbb0 f3f3 	udiv	r3, r0, r3
 8003364:	3301      	adds	r3, #1
 8003366:	f3c3 030b 	ubfx	r3, r3, #0, #12
 800336a:	f443 4300 	orr.w	r3, r3, #32768	; 0x8000
 800336e:	e00f      	b.n	8003390 <HAL_I2C_Init+0x1a4>
 8003370:	68fb      	ldr	r3, [r7, #12]
 8003372:	1e58      	subs	r0, r3, #1
 8003374:	687b      	ldr	r3, [r7, #4]
 8003376:	6859      	ldr	r1, [r3, #4]
 8003378:	460b      	mov	r3, r1
 800337a:	009b      	lsls	r3, r3, #2
 800337c:	440b      	add	r3, r1
 800337e:	0099      	lsls	r1, r3, #2
 8003380:	440b      	add	r3, r1
 8003382:	fbb0 f3f3 	udiv	r3, r0, r3
 8003386:	3301      	adds	r3, #1
 8003388:	f3c3 030b 	ubfx	r3, r3, #0, #12
 800338c:	f443 4340 	orr.w	r3, r3, #49152	; 0xc000
 8003390:	6879      	ldr	r1, [r7, #4]
 8003392:	6809      	ldr	r1, [r1, #0]
 8003394:	4313      	orrs	r3, r2
 8003396:	61cb      	str	r3, [r1, #28]

  /*---------------------------- I2Cx CR1 Configuration ----------------------*/
  /* Configure I2Cx: Generalcall and NoStretch mode */
  MODIFY_REG(hi2c->Instance->CR1, (I2C_CR1_ENGC | I2C_CR1_NOSTRETCH), (hi2c->Init.GeneralCallMode | hi2c->Init.NoStretchMode));
 8003398:	687b      	ldr	r3, [r7, #4]
 800339a:	681b      	ldr	r3, [r3, #0]
 800339c:	681b      	ldr	r3, [r3, #0]
 800339e:	f023 01c0 	bic.w	r1, r3, #192	; 0xc0
 80033a2:	687b      	ldr	r3, [r7, #4]
 80033a4:	69da      	ldr	r2, [r3, #28]
 80033a6:	687b      	ldr	r3, [r7, #4]
 80033a8:	6a1b      	ldr	r3, [r3, #32]
 80033aa:	431a      	orrs	r2, r3
 80033ac:	687b      	ldr	r3, [r7, #4]
 80033ae:	681b      	ldr	r3, [r3, #0]
 80033b0:	430a      	orrs	r2, r1
 80033b2:	601a      	str	r2, [r3, #0]

  /*---------------------------- I2Cx OAR1 Configuration ---------------------*/
  /* Configure I2Cx: Own Address1 and addressing mode */
  MODIFY_REG(hi2c->Instance->OAR1, (I2C_OAR1_ADDMODE | I2C_OAR1_ADD8_9 | I2C_OAR1_ADD1_7 | I2C_OAR1_ADD0), (hi2c->Init.AddressingMode | hi2c->Init.OwnAddress1));
 80033b4:	687b      	ldr	r3, [r7, #4]
 80033b6:	681b      	ldr	r3, [r3, #0]
 80033b8:	689b      	ldr	r3, [r3, #8]
 80033ba:	f423 4303 	bic.w	r3, r3, #33536	; 0x8300
 80033be:	f023 03ff 	bic.w	r3, r3, #255	; 0xff
 80033c2:	687a      	ldr	r2, [r7, #4]
 80033c4:	6911      	ldr	r1, [r2, #16]
 80033c6:	687a      	ldr	r2, [r7, #4]
 80033c8:	68d2      	ldr	r2, [r2, #12]
 80033ca:	4311      	orrs	r1, r2
 80033cc:	687a      	ldr	r2, [r7, #4]
 80033ce:	6812      	ldr	r2, [r2, #0]
 80033d0:	430b      	orrs	r3, r1
 80033d2:	6093      	str	r3, [r2, #8]

  /*---------------------------- I2Cx OAR2 Configuration ---------------------*/
  /* Configure I2Cx: Dual mode and Own Address2 */
  MODIFY_REG(hi2c->Instance->OAR2, (I2C_OAR2_ENDUAL | I2C_OAR2_ADD2), (hi2c->Init.DualAddressMode | hi2c->Init.OwnAddress2));
 80033d4:	687b      	ldr	r3, [r7, #4]
 80033d6:	681b      	ldr	r3, [r3, #0]
 80033d8:	68db      	ldr	r3, [r3, #12]
 80033da:	f023 01ff 	bic.w	r1, r3, #255	; 0xff
 80033de:	687b      	ldr	r3, [r7, #4]
 80033e0:	695a      	ldr	r2, [r3, #20]
 80033e2:	687b      	ldr	r3, [r7, #4]
 80033e4:	699b      	ldr	r3, [r3, #24]
 80033e6:	431a      	orrs	r2, r3
 80033e8:	687b      	ldr	r3, [r7, #4]
 80033ea:	681b      	ldr	r3, [r3, #0]
 80033ec:	430a      	orrs	r2, r1
 80033ee:	60da      	str	r2, [r3, #12]

  /* Enable the selected I2C peripheral */
  __HAL_I2C_ENABLE(hi2c);
 80033f0:	687b      	ldr	r3, [r7, #4]
 80033f2:	681b      	ldr	r3, [r3, #0]
 80033f4:	681a      	ldr	r2, [r3, #0]
 80033f6:	687b      	ldr	r3, [r7, #4]
 80033f8:	681b      	ldr	r3, [r3, #0]
 80033fa:	f042 0201 	orr.w	r2, r2, #1
 80033fe:	601a      	str	r2, [r3, #0]

  hi2c->ErrorCode = HAL_I2C_ERROR_NONE;
 8003400:	687b      	ldr	r3, [r7, #4]
 8003402:	2200      	movs	r2, #0
 8003404:	641a      	str	r2, [r3, #64]	; 0x40
  hi2c->State = HAL_I2C_STATE_READY;
 8003406:	687b      	ldr	r3, [r7, #4]
 8003408:	2220      	movs	r2, #32
 800340a:	f883 203d 	strb.w	r2, [r3, #61]	; 0x3d
  hi2c->PreviousState = I2C_STATE_NONE;
 800340e:	687b      	ldr	r3, [r7, #4]
 8003410:	2200      	movs	r2, #0
 8003412:	631a      	str	r2, [r3, #48]	; 0x30
  hi2c->Mode = HAL_I2C_MODE_NONE;
 8003414:	687b      	ldr	r3, [r7, #4]
 8003416:	2200      	movs	r2, #0
 8003418:	f883 203e 	strb.w	r2, [r3, #62]	; 0x3e

  return HAL_OK;
 800341c:	2300      	movs	r3, #0
}
 800341e:	4618      	mov	r0, r3
 8003420:	3710      	adds	r7, #16
 8003422:	46bd      	mov	sp, r7
 8003424:	bd80      	pop	{r7, pc}
 8003426:	bf00      	nop
 8003428:	000186a0 	.word	0x000186a0
 800342c:	001e847f 	.word	0x001e847f
 8003430:	003d08ff 	.word	0x003d08ff
 8003434:	431bde83 	.word	0x431bde83
 8003438:	10624dd3 	.word	0x10624dd3

0800343c <HAL_I2C_Master_Receive>:
  * @param  Size Amount of data to be sent
  * @param  Timeout Timeout duration
  * @retval HAL status
  */
HAL_StatusTypeDef HAL_I2C_Master_Receive(I2C_HandleTypeDef *hi2c, uint16_t DevAddress, uint8_t *pData, uint16_t Size, uint32_t Timeout)
{
 800343c:	b580      	push	{r7, lr}
 800343e:	b08c      	sub	sp, #48	; 0x30
 8003440:	af02      	add	r7, sp, #8
 8003442:	60f8      	str	r0, [r7, #12]
 8003444:	607a      	str	r2, [r7, #4]
 8003446:	461a      	mov	r2, r3
 8003448:	460b      	mov	r3, r1
 800344a:	817b      	strh	r3, [r7, #10]
 800344c:	4613      	mov	r3, r2
 800344e:	813b      	strh	r3, [r7, #8]
  /* Init tickstart for timeout management*/
  uint32_t tickstart = HAL_GetTick();
 8003450:	f7fd ff1a 	bl	8001288 <HAL_GetTick>
 8003454:	6278      	str	r0, [r7, #36]	; 0x24

  if (hi2c->State == HAL_I2C_STATE_READY)
 8003456:	68fb      	ldr	r3, [r7, #12]
 8003458:	f893 303d 	ldrb.w	r3, [r3, #61]	; 0x3d
 800345c:	b2db      	uxtb	r3, r3
 800345e:	2b20      	cmp	r3, #32
 8003460:	f040 8213 	bne.w	800388a <HAL_I2C_Master_Receive+0x44e>
  {
    /* Wait until BUSY flag is reset */
    if (I2C_WaitOnFlagUntilTimeout(hi2c, I2C_FLAG_BUSY, SET, I2C_TIMEOUT_BUSY_FLAG, tickstart) != HAL_OK)
 8003464:	6a7b      	ldr	r3, [r7, #36]	; 0x24
 8003466:	9300      	str	r3, [sp, #0]
 8003468:	2319      	movs	r3, #25
 800346a:	2201      	movs	r2, #1
 800346c:	497e      	ldr	r1, [pc, #504]	; (8003668 <HAL_I2C_Master_Receive+0x22c>)
 800346e:	68f8      	ldr	r0, [r7, #12]
 8003470:	f000 fac8 	bl	8003a04 <I2C_WaitOnFlagUntilTimeout>
 8003474:	4603      	mov	r3, r0
 8003476:	2b00      	cmp	r3, #0
 8003478:	d001      	beq.n	800347e <HAL_I2C_Master_Receive+0x42>
    {
      return HAL_BUSY;
 800347a:	2302      	movs	r3, #2
 800347c:	e206      	b.n	800388c <HAL_I2C_Master_Receive+0x450>
    }

    /* Process Locked */
    __HAL_LOCK(hi2c);
 800347e:	68fb      	ldr	r3, [r7, #12]
 8003480:	f893 303c 	ldrb.w	r3, [r3, #60]	; 0x3c
 8003484:	2b01      	cmp	r3, #1
 8003486:	d101      	bne.n	800348c <HAL_I2C_Master_Receive+0x50>
 8003488:	2302      	movs	r3, #2
 800348a:	e1ff      	b.n	800388c <HAL_I2C_Master_Receive+0x450>
 800348c:	68fb      	ldr	r3, [r7, #12]
 800348e:	2201      	movs	r2, #1
 8003490:	f883 203c 	strb.w	r2, [r3, #60]	; 0x3c

    /* Check if the I2C is already enabled */
    if ((hi2c->Instance->CR1 & I2C_CR1_PE) != I2C_CR1_PE)
 8003494:	68fb      	ldr	r3, [r7, #12]
 8003496:	681b      	ldr	r3, [r3, #0]
 8003498:	681b      	ldr	r3, [r3, #0]
 800349a:	f003 0301 	and.w	r3, r3, #1
 800349e:	2b01      	cmp	r3, #1
 80034a0:	d007      	beq.n	80034b2 <HAL_I2C_Master_Receive+0x76>
    {
      /* Enable I2C peripheral */
      __HAL_I2C_ENABLE(hi2c);
 80034a2:	68fb      	ldr	r3, [r7, #12]
 80034a4:	681b      	ldr	r3, [r3, #0]
 80034a6:	681a      	ldr	r2, [r3, #0]
 80034a8:	68fb      	ldr	r3, [r7, #12]
 80034aa:	681b      	ldr	r3, [r3, #0]
 80034ac:	f042 0201 	orr.w	r2, r2, #1
 80034b0:	601a      	str	r2, [r3, #0]
    }

    /* Disable Pos */
    CLEAR_BIT(hi2c->Instance->CR1, I2C_CR1_POS);
 80034b2:	68fb      	ldr	r3, [r7, #12]
 80034b4:	681b      	ldr	r3, [r3, #0]
 80034b6:	681a      	ldr	r2, [r3, #0]
 80034b8:	68fb      	ldr	r3, [r7, #12]
 80034ba:	681b      	ldr	r3, [r3, #0]
 80034bc:	f422 6200 	bic.w	r2, r2, #2048	; 0x800
 80034c0:	601a      	str	r2, [r3, #0]

    hi2c->State       = HAL_I2C_STATE_BUSY_RX;
 80034c2:	68fb      	ldr	r3, [r7, #12]
 80034c4:	2222      	movs	r2, #34	; 0x22
 80034c6:	f883 203d 	strb.w	r2, [r3, #61]	; 0x3d
    hi2c->Mode        = HAL_I2C_MODE_MASTER;
 80034ca:	68fb      	ldr	r3, [r7, #12]
 80034cc:	2210      	movs	r2, #16
 80034ce:	f883 203e 	strb.w	r2, [r3, #62]	; 0x3e
    hi2c->ErrorCode   = HAL_I2C_ERROR_NONE;
 80034d2:	68fb      	ldr	r3, [r7, #12]
 80034d4:	2200      	movs	r2, #0
 80034d6:	641a      	str	r2, [r3, #64]	; 0x40

    /* Prepare transfer parameters */
    hi2c->pBuffPtr    = pData;
 80034d8:	68fb      	ldr	r3, [r7, #12]
 80034da:	687a      	ldr	r2, [r7, #4]
 80034dc:	625a      	str	r2, [r3, #36]	; 0x24
    hi2c->XferCount   = Size;
 80034de:	68fb      	ldr	r3, [r7, #12]
 80034e0:	893a      	ldrh	r2, [r7, #8]
 80034e2:	855a      	strh	r2, [r3, #42]	; 0x2a
    hi2c->XferSize    = hi2c->XferCount;
 80034e4:	68fb      	ldr	r3, [r7, #12]
 80034e6:	8d5b      	ldrh	r3, [r3, #42]	; 0x2a
 80034e8:	b29a      	uxth	r2, r3
 80034ea:	68fb      	ldr	r3, [r7, #12]
 80034ec:	851a      	strh	r2, [r3, #40]	; 0x28
    hi2c->XferOptions = I2C_NO_OPTION_FRAME;
 80034ee:	68fb      	ldr	r3, [r7, #12]
 80034f0:	4a5e      	ldr	r2, [pc, #376]	; (800366c <HAL_I2C_Master_Receive+0x230>)
 80034f2:	62da      	str	r2, [r3, #44]	; 0x2c

    /* Send Slave Address */
    if (I2C_MasterRequestRead(hi2c, DevAddress, Timeout, tickstart) != HAL_OK)
 80034f4:	8979      	ldrh	r1, [r7, #10]
 80034f6:	6a7b      	ldr	r3, [r7, #36]	; 0x24
 80034f8:	6b3a      	ldr	r2, [r7, #48]	; 0x30
 80034fa:	68f8      	ldr	r0, [r7, #12]
 80034fc:	f000 f9cc 	bl	8003898 <I2C_MasterRequestRead>
 8003500:	4603      	mov	r3, r0
 8003502:	2b00      	cmp	r3, #0
 8003504:	d001      	beq.n	800350a <HAL_I2C_Master_Receive+0xce>
    {
      return HAL_ERROR;
 8003506:	2301      	movs	r3, #1
 8003508:	e1c0      	b.n	800388c <HAL_I2C_Master_Receive+0x450>
    }

    if (hi2c->XferSize == 0U)
 800350a:	68fb      	ldr	r3, [r7, #12]
 800350c:	8d1b      	ldrh	r3, [r3, #40]	; 0x28
 800350e:	2b00      	cmp	r3, #0
 8003510:	d113      	bne.n	800353a <HAL_I2C_Master_Receive+0xfe>
    {
      /* Clear ADDR flag */
      __HAL_I2C_CLEAR_ADDRFLAG(hi2c);
 8003512:	2300      	movs	r3, #0
 8003514:	623b      	str	r3, [r7, #32]
 8003516:	68fb      	ldr	r3, [r7, #12]
 8003518:	681b      	ldr	r3, [r3, #0]
 800351a:	695b      	ldr	r3, [r3, #20]
 800351c:	623b      	str	r3, [r7, #32]
 800351e:	68fb      	ldr	r3, [r7, #12]
 8003520:	681b      	ldr	r3, [r3, #0]
 8003522:	699b      	ldr	r3, [r3, #24]
 8003524:	623b      	str	r3, [r7, #32]
 8003526:	6a3b      	ldr	r3, [r7, #32]

      /* Generate Stop */
      SET_BIT(hi2c->Instance->CR1, I2C_CR1_STOP);
 8003528:	68fb      	ldr	r3, [r7, #12]
 800352a:	681b      	ldr	r3, [r3, #0]
 800352c:	681a      	ldr	r2, [r3, #0]
 800352e:	68fb      	ldr	r3, [r7, #12]
 8003530:	681b      	ldr	r3, [r3, #0]
 8003532:	f442 7200 	orr.w	r2, r2, #512	; 0x200
 8003536:	601a      	str	r2, [r3, #0]
 8003538:	e194      	b.n	8003864 <HAL_I2C_Master_Receive+0x428>
    }
    else if (hi2c->XferSize == 1U)
 800353a:	68fb      	ldr	r3, [r7, #12]
 800353c:	8d1b      	ldrh	r3, [r3, #40]	; 0x28
 800353e:	2b01      	cmp	r3, #1
 8003540:	d11d      	bne.n	800357e <HAL_I2C_Master_Receive+0x142>
    {
      /* Disable Acknowledge */
      CLEAR_BIT(hi2c->Instance->CR1, I2C_CR1_ACK);
 8003542:	68fb      	ldr	r3, [r7, #12]
 8003544:	681b      	ldr	r3, [r3, #0]
 8003546:	681a      	ldr	r2, [r3, #0]
 8003548:	68fb      	ldr	r3, [r7, #12]
 800354a:	681b      	ldr	r3, [r3, #0]
 800354c:	f422 6280 	bic.w	r2, r2, #1024	; 0x400
 8003550:	601a      	str	r2, [r3, #0]
  \details Disables IRQ interrupts by setting the I-bit in the CPSR.
           Can only be executed in Privileged modes.
 */
__STATIC_FORCEINLINE void __disable_irq(void)
{
  __ASM volatile ("cpsid i" : : : "memory");
 8003552:	b672      	cpsid	i
      /* Disable all active IRQs around ADDR clearing and STOP programming because the EV6_3
      software sequence must complete before the current byte end of transfer */
      __disable_irq();

      /* Clear ADDR flag */
      __HAL_I2C_CLEAR_ADDRFLAG(hi2c);
 8003554:	2300      	movs	r3, #0
 8003556:	61fb      	str	r3, [r7, #28]
 8003558:	68fb      	ldr	r3, [r7, #12]
 800355a:	681b      	ldr	r3, [r3, #0]
 800355c:	695b      	ldr	r3, [r3, #20]
 800355e:	61fb      	str	r3, [r7, #28]
 8003560:	68fb      	ldr	r3, [r7, #12]
 8003562:	681b      	ldr	r3, [r3, #0]
 8003564:	699b      	ldr	r3, [r3, #24]
 8003566:	61fb      	str	r3, [r7, #28]
 8003568:	69fb      	ldr	r3, [r7, #28]

      /* Generate Stop */
      SET_BIT(hi2c->Instance->CR1, I2C_CR1_STOP);
 800356a:	68fb      	ldr	r3, [r7, #12]
 800356c:	681b      	ldr	r3, [r3, #0]
 800356e:	681a      	ldr	r2, [r3, #0]
 8003570:	68fb      	ldr	r3, [r7, #12]
 8003572:	681b      	ldr	r3, [r3, #0]
 8003574:	f442 7200 	orr.w	r2, r2, #512	; 0x200
 8003578:	601a      	str	r2, [r3, #0]
  __ASM volatile ("cpsie i" : : : "memory");
 800357a:	b662      	cpsie	i
 800357c:	e172      	b.n	8003864 <HAL_I2C_Master_Receive+0x428>

      /* Re-enable IRQs */
      __enable_irq();
    }
    else if (hi2c->XferSize == 2U)
 800357e:	68fb      	ldr	r3, [r7, #12]
 8003580:	8d1b      	ldrh	r3, [r3, #40]	; 0x28
 8003582:	2b02      	cmp	r3, #2
 8003584:	d11d      	bne.n	80035c2 <HAL_I2C_Master_Receive+0x186>
    {
      /* Enable Pos */
      SET_BIT(hi2c->Instance->CR1, I2C_CR1_POS);
 8003586:	68fb      	ldr	r3, [r7, #12]
 8003588:	681b      	ldr	r3, [r3, #0]
 800358a:	681a      	ldr	r2, [r3, #0]
 800358c:	68fb      	ldr	r3, [r7, #12]
 800358e:	681b      	ldr	r3, [r3, #0]
 8003590:	f442 6200 	orr.w	r2, r2, #2048	; 0x800
 8003594:	601a      	str	r2, [r3, #0]
  __ASM volatile ("cpsid i" : : : "memory");
 8003596:	b672      	cpsid	i
      /* Disable all active IRQs around ADDR clearing and STOP programming because the EV6_3
      software sequence must complete before the current byte end of transfer */
      __disable_irq();

      /* Clear ADDR flag */
      __HAL_I2C_CLEAR_ADDRFLAG(hi2c);
 8003598:	2300      	movs	r3, #0
 800359a:	61bb      	str	r3, [r7, #24]
 800359c:	68fb      	ldr	r3, [r7, #12]
 800359e:	681b      	ldr	r3, [r3, #0]
 80035a0:	695b      	ldr	r3, [r3, #20]
 80035a2:	61bb      	str	r3, [r7, #24]
 80035a4:	68fb      	ldr	r3, [r7, #12]
 80035a6:	681b      	ldr	r3, [r3, #0]
 80035a8:	699b      	ldr	r3, [r3, #24]
 80035aa:	61bb      	str	r3, [r7, #24]
 80035ac:	69bb      	ldr	r3, [r7, #24]

      /* Disable Acknowledge */
      CLEAR_BIT(hi2c->Instance->CR1, I2C_CR1_ACK);
 80035ae:	68fb      	ldr	r3, [r7, #12]
 80035b0:	681b      	ldr	r3, [r3, #0]
 80035b2:	681a      	ldr	r2, [r3, #0]
 80035b4:	68fb      	ldr	r3, [r7, #12]
 80035b6:	681b      	ldr	r3, [r3, #0]
 80035b8:	f422 6280 	bic.w	r2, r2, #1024	; 0x400
 80035bc:	601a      	str	r2, [r3, #0]
  __ASM volatile ("cpsie i" : : : "memory");
 80035be:	b662      	cpsie	i
 80035c0:	e150      	b.n	8003864 <HAL_I2C_Master_Receive+0x428>
      __enable_irq();
    }
    else
    {
      /* Enable Acknowledge */
      SET_BIT(hi2c->Instance->CR1, I2C_CR1_ACK);
 80035c2:	68fb      	ldr	r3, [r7, #12]
 80035c4:	681b      	ldr	r3, [r3, #0]
 80035c6:	681a      	ldr	r2, [r3, #0]
 80035c8:	68fb      	ldr	r3, [r7, #12]
 80035ca:	681b      	ldr	r3, [r3, #0]
 80035cc:	f442 6280 	orr.w	r2, r2, #1024	; 0x400
 80035d0:	601a      	str	r2, [r3, #0]

      /* Clear ADDR flag */
      __HAL_I2C_CLEAR_ADDRFLAG(hi2c);
 80035d2:	2300      	movs	r3, #0
 80035d4:	617b      	str	r3, [r7, #20]
 80035d6:	68fb      	ldr	r3, [r7, #12]
 80035d8:	681b      	ldr	r3, [r3, #0]
 80035da:	695b      	ldr	r3, [r3, #20]
 80035dc:	617b      	str	r3, [r7, #20]
 80035de:	68fb      	ldr	r3, [r7, #12]
 80035e0:	681b      	ldr	r3, [r3, #0]
 80035e2:	699b      	ldr	r3, [r3, #24]
 80035e4:	617b      	str	r3, [r7, #20]
 80035e6:	697b      	ldr	r3, [r7, #20]
    }

    while (hi2c->XferSize > 0U)
 80035e8:	e13c      	b.n	8003864 <HAL_I2C_Master_Receive+0x428>
    {
      if (hi2c->XferSize <= 3U)
 80035ea:	68fb      	ldr	r3, [r7, #12]
 80035ec:	8d1b      	ldrh	r3, [r3, #40]	; 0x28
 80035ee:	2b03      	cmp	r3, #3
 80035f0:	f200 80f5 	bhi.w	80037de <HAL_I2C_Master_Receive+0x3a2>
      {
        /* One byte */
        if (hi2c->XferSize == 1U)
 80035f4:	68fb      	ldr	r3, [r7, #12]
 80035f6:	8d1b      	ldrh	r3, [r3, #40]	; 0x28
 80035f8:	2b01      	cmp	r3, #1
 80035fa:	d123      	bne.n	8003644 <HAL_I2C_Master_Receive+0x208>
        {
          /* Wait until RXNE flag is set */
          if (I2C_WaitOnRXNEFlagUntilTimeout(hi2c, Timeout, tickstart) != HAL_OK)
 80035fc:	6a7a      	ldr	r2, [r7, #36]	; 0x24
 80035fe:	6b39      	ldr	r1, [r7, #48]	; 0x30
 8003600:	68f8      	ldr	r0, [r7, #12]
 8003602:	f000 fad5 	bl	8003bb0 <I2C_WaitOnRXNEFlagUntilTimeout>
 8003606:	4603      	mov	r3, r0
 8003608:	2b00      	cmp	r3, #0
 800360a:	d001      	beq.n	8003610 <HAL_I2C_Master_Receive+0x1d4>
          {
            return HAL_ERROR;
 800360c:	2301      	movs	r3, #1
 800360e:	e13d      	b.n	800388c <HAL_I2C_Master_Receive+0x450>
          }

          /* Read data from DR */
          *hi2c->pBuffPtr = (uint8_t)hi2c->Instance->DR;
 8003610:	68fb      	ldr	r3, [r7, #12]
 8003612:	681b      	ldr	r3, [r3, #0]
 8003614:	691a      	ldr	r2, [r3, #16]
 8003616:	68fb      	ldr	r3, [r7, #12]
 8003618:	6a5b      	ldr	r3, [r3, #36]	; 0x24
 800361a:	b2d2      	uxtb	r2, r2
 800361c:	701a      	strb	r2, [r3, #0]

          /* Increment Buffer pointer */
          hi2c->pBuffPtr++;
 800361e:	68fb      	ldr	r3, [r7, #12]
 8003620:	6a5b      	ldr	r3, [r3, #36]	; 0x24
 8003622:	1c5a      	adds	r2, r3, #1
 8003624:	68fb      	ldr	r3, [r7, #12]
 8003626:	625a      	str	r2, [r3, #36]	; 0x24

          /* Update counter */
          hi2c->XferSize--;
 8003628:	68fb      	ldr	r3, [r7, #12]
 800362a:	8d1b      	ldrh	r3, [r3, #40]	; 0x28
 800362c:	3b01      	subs	r3, #1
 800362e:	b29a      	uxth	r2, r3
 8003630:	68fb      	ldr	r3, [r7, #12]
 8003632:	851a      	strh	r2, [r3, #40]	; 0x28
          hi2c->XferCount--;
 8003634:	68fb      	ldr	r3, [r7, #12]
 8003636:	8d5b      	ldrh	r3, [r3, #42]	; 0x2a
 8003638:	b29b      	uxth	r3, r3
 800363a:	3b01      	subs	r3, #1
 800363c:	b29a      	uxth	r2, r3
 800363e:	68fb      	ldr	r3, [r7, #12]
 8003640:	855a      	strh	r2, [r3, #42]	; 0x2a
 8003642:	e10f      	b.n	8003864 <HAL_I2C_Master_Receive+0x428>
        }
        /* Two bytes */
        else if (hi2c->XferSize == 2U)
 8003644:	68fb      	ldr	r3, [r7, #12]
 8003646:	8d1b      	ldrh	r3, [r3, #40]	; 0x28
 8003648:	2b02      	cmp	r3, #2
 800364a:	d150      	bne.n	80036ee <HAL_I2C_Master_Receive+0x2b2>
        {
          /* Wait until BTF flag is set */
          if (I2C_WaitOnFlagUntilTimeout(hi2c, I2C_FLAG_BTF, RESET, Timeout, tickstart) != HAL_OK)
 800364c:	6a7b      	ldr	r3, [r7, #36]	; 0x24
 800364e:	9300      	str	r3, [sp, #0]
 8003650:	6b3b      	ldr	r3, [r7, #48]	; 0x30
 8003652:	2200      	movs	r2, #0
 8003654:	4906      	ldr	r1, [pc, #24]	; (8003670 <HAL_I2C_Master_Receive+0x234>)
 8003656:	68f8      	ldr	r0, [r7, #12]
 8003658:	f000 f9d4 	bl	8003a04 <I2C_WaitOnFlagUntilTimeout>
 800365c:	4603      	mov	r3, r0
 800365e:	2b00      	cmp	r3, #0
 8003660:	d008      	beq.n	8003674 <HAL_I2C_Master_Receive+0x238>
          {
            return HAL_ERROR;
 8003662:	2301      	movs	r3, #1
 8003664:	e112      	b.n	800388c <HAL_I2C_Master_Receive+0x450>
 8003666:	bf00      	nop
 8003668:	00100002 	.word	0x00100002
 800366c:	ffff0000 	.word	0xffff0000
 8003670:	00010004 	.word	0x00010004
  __ASM volatile ("cpsid i" : : : "memory");
 8003674:	b672      	cpsid	i
          /* Disable all active IRQs around ADDR clearing and STOP programming because the EV6_3
             software sequence must complete before the current byte end of transfer */
          __disable_irq();

          /* Generate Stop */
          SET_BIT(hi2c->Instance->CR1, I2C_CR1_STOP);
 8003676:	68fb      	ldr	r3, [r7, #12]
 8003678:	681b      	ldr	r3, [r3, #0]
 800367a:	681a      	ldr	r2, [r3, #0]
 800367c:	68fb      	ldr	r3, [r7, #12]
 800367e:	681b      	ldr	r3, [r3, #0]
 8003680:	f442 7200 	orr.w	r2, r2, #512	; 0x200
 8003684:	601a      	str	r2, [r3, #0]

          /* Read data from DR */
          *hi2c->pBuffPtr = (uint8_t)hi2c->Instance->DR;
 8003686:	68fb      	ldr	r3, [r7, #12]
 8003688:	681b      	ldr	r3, [r3, #0]
 800368a:	691a      	ldr	r2, [r3, #16]
 800368c:	68fb      	ldr	r3, [r7, #12]
 800368e:	6a5b      	ldr	r3, [r3, #36]	; 0x24
 8003690:	b2d2      	uxtb	r2, r2
 8003692:	701a      	strb	r2, [r3, #0]

          /* Increment Buffer pointer */
          hi2c->pBuffPtr++;
 8003694:	68fb      	ldr	r3, [r7, #12]
 8003696:	6a5b      	ldr	r3, [r3, #36]	; 0x24
 8003698:	1c5a      	adds	r2, r3, #1
 800369a:	68fb      	ldr	r3, [r7, #12]
 800369c:	625a      	str	r2, [r3, #36]	; 0x24

          /* Update counter */
          hi2c->XferSize--;
 800369e:	68fb      	ldr	r3, [r7, #12]
 80036a0:	8d1b      	ldrh	r3, [r3, #40]	; 0x28
 80036a2:	3b01      	subs	r3, #1
 80036a4:	b29a      	uxth	r2, r3
 80036a6:	68fb      	ldr	r3, [r7, #12]
 80036a8:	851a      	strh	r2, [r3, #40]	; 0x28
          hi2c->XferCount--;
 80036aa:	68fb      	ldr	r3, [r7, #12]
 80036ac:	8d5b      	ldrh	r3, [r3, #42]	; 0x2a
 80036ae:	b29b      	uxth	r3, r3
 80036b0:	3b01      	subs	r3, #1
 80036b2:	b29a      	uxth	r2, r3
 80036b4:	68fb      	ldr	r3, [r7, #12]
 80036b6:	855a      	strh	r2, [r3, #42]	; 0x2a
  __ASM volatile ("cpsie i" : : : "memory");
 80036b8:	b662      	cpsie	i

          /* Re-enable IRQs */
          __enable_irq();

          /* Read data from DR */
          *hi2c->pBuffPtr = (uint8_t)hi2c->Instance->DR;
 80036ba:	68fb      	ldr	r3, [r7, #12]
 80036bc:	681b      	ldr	r3, [r3, #0]
 80036be:	691a      	ldr	r2, [r3, #16]
 80036c0:	68fb      	ldr	r3, [r7, #12]
 80036c2:	6a5b      	ldr	r3, [r3, #36]	; 0x24
 80036c4:	b2d2      	uxtb	r2, r2
 80036c6:	701a      	strb	r2, [r3, #0]

          /* Increment Buffer pointer */
          hi2c->pBuffPtr++;
 80036c8:	68fb      	ldr	r3, [r7, #12]
 80036ca:	6a5b      	ldr	r3, [r3, #36]	; 0x24
 80036cc:	1c5a      	adds	r2, r3, #1
 80036ce:	68fb      	ldr	r3, [r7, #12]
 80036d0:	625a      	str	r2, [r3, #36]	; 0x24

          /* Update counter */
          hi2c->XferSize--;
 80036d2:	68fb      	ldr	r3, [r7, #12]
 80036d4:	8d1b      	ldrh	r3, [r3, #40]	; 0x28
 80036d6:	3b01      	subs	r3, #1
 80036d8:	b29a      	uxth	r2, r3
 80036da:	68fb      	ldr	r3, [r7, #12]
 80036dc:	851a      	strh	r2, [r3, #40]	; 0x28
          hi2c->XferCount--;
 80036de:	68fb      	ldr	r3, [r7, #12]
 80036e0:	8d5b      	ldrh	r3, [r3, #42]	; 0x2a
 80036e2:	b29b      	uxth	r3, r3
 80036e4:	3b01      	subs	r3, #1
 80036e6:	b29a      	uxth	r2, r3
 80036e8:	68fb      	ldr	r3, [r7, #12]
 80036ea:	855a      	strh	r2, [r3, #42]	; 0x2a
 80036ec:	e0ba      	b.n	8003864 <HAL_I2C_Master_Receive+0x428>
        }
        /* 3 Last bytes */
        else
        {
          /* Wait until BTF flag is set */
          if (I2C_WaitOnFlagUntilTimeout(hi2c, I2C_FLAG_BTF, RESET, Timeout, tickstart) != HAL_OK)
 80036ee:	6a7b      	ldr	r3, [r7, #36]	; 0x24
 80036f0:	9300      	str	r3, [sp, #0]
 80036f2:	6b3b      	ldr	r3, [r7, #48]	; 0x30
 80036f4:	2200      	movs	r2, #0
 80036f6:	4967      	ldr	r1, [pc, #412]	; (8003894 <HAL_I2C_Master_Receive+0x458>)
 80036f8:	68f8      	ldr	r0, [r7, #12]
 80036fa:	f000 f983 	bl	8003a04 <I2C_WaitOnFlagUntilTimeout>
 80036fe:	4603      	mov	r3, r0
 8003700:	2b00      	cmp	r3, #0
 8003702:	d001      	beq.n	8003708 <HAL_I2C_Master_Receive+0x2cc>
          {
            return HAL_ERROR;
 8003704:	2301      	movs	r3, #1
 8003706:	e0c1      	b.n	800388c <HAL_I2C_Master_Receive+0x450>
          }

          /* Disable Acknowledge */
          CLEAR_BIT(hi2c->Instance->CR1, I2C_CR1_ACK);
 8003708:	68fb      	ldr	r3, [r7, #12]
 800370a:	681b      	ldr	r3, [r3, #0]
 800370c:	681a      	ldr	r2, [r3, #0]
 800370e:	68fb      	ldr	r3, [r7, #12]
 8003710:	681b      	ldr	r3, [r3, #0]
 8003712:	f422 6280 	bic.w	r2, r2, #1024	; 0x400
 8003716:	601a      	str	r2, [r3, #0]
  __ASM volatile ("cpsid i" : : : "memory");
 8003718:	b672      	cpsid	i
          /* Disable all active IRQs around ADDR clearing and STOP programming because the EV6_3
             software sequence must complete before the current byte end of transfer */
          __disable_irq();

          /* Read data from DR */
          *hi2c->pBuffPtr = (uint8_t)hi2c->Instance->DR;
 800371a:	68fb      	ldr	r3, [r7, #12]
 800371c:	681b      	ldr	r3, [r3, #0]
 800371e:	691a      	ldr	r2, [r3, #16]
 8003720:	68fb      	ldr	r3, [r7, #12]
 8003722:	6a5b      	ldr	r3, [r3, #36]	; 0x24
 8003724:	b2d2      	uxtb	r2, r2
 8003726:	701a      	strb	r2, [r3, #0]

          /* Increment Buffer pointer */
          hi2c->pBuffPtr++;
 8003728:	68fb      	ldr	r3, [r7, #12]
 800372a:	6a5b      	ldr	r3, [r3, #36]	; 0x24
 800372c:	1c5a      	adds	r2, r3, #1
 800372e:	68fb      	ldr	r3, [r7, #12]
 8003730:	625a      	str	r2, [r3, #36]	; 0x24

          /* Update counter */
          hi2c->XferSize--;
 8003732:	68fb      	ldr	r3, [r7, #12]
 8003734:	8d1b      	ldrh	r3, [r3, #40]	; 0x28
 8003736:	3b01      	subs	r3, #1
 8003738:	b29a      	uxth	r2, r3
 800373a:	68fb      	ldr	r3, [r7, #12]
 800373c:	851a      	strh	r2, [r3, #40]	; 0x28
          hi2c->XferCount--;
 800373e:	68fb      	ldr	r3, [r7, #12]
 8003740:	8d5b      	ldrh	r3, [r3, #42]	; 0x2a
 8003742:	b29b      	uxth	r3, r3
 8003744:	3b01      	subs	r3, #1
 8003746:	b29a      	uxth	r2, r3
 8003748:	68fb      	ldr	r3, [r7, #12]
 800374a:	855a      	strh	r2, [r3, #42]	; 0x2a

          /* Wait until BTF flag is set */
          if (I2C_WaitOnFlagUntilTimeout(hi2c, I2C_FLAG_BTF, RESET, Timeout, tickstart) != HAL_OK)
 800374c:	6a7b      	ldr	r3, [r7, #36]	; 0x24
 800374e:	9300      	str	r3, [sp, #0]
 8003750:	6b3b      	ldr	r3, [r7, #48]	; 0x30
 8003752:	2200      	movs	r2, #0
 8003754:	494f      	ldr	r1, [pc, #316]	; (8003894 <HAL_I2C_Master_Receive+0x458>)
 8003756:	68f8      	ldr	r0, [r7, #12]
 8003758:	f000 f954 	bl	8003a04 <I2C_WaitOnFlagUntilTimeout>
 800375c:	4603      	mov	r3, r0
 800375e:	2b00      	cmp	r3, #0
 8003760:	d001      	beq.n	8003766 <HAL_I2C_Master_Receive+0x32a>
          {
            return HAL_ERROR;
 8003762:	2301      	movs	r3, #1
 8003764:	e092      	b.n	800388c <HAL_I2C_Master_Receive+0x450>
          }

          /* Generate Stop */
          SET_BIT(hi2c->Instance->CR1, I2C_CR1_STOP);
 8003766:	68fb      	ldr	r3, [r7, #12]
 8003768:	681b      	ldr	r3, [r3, #0]
 800376a:	681a      	ldr	r2, [r3, #0]
 800376c:	68fb      	ldr	r3, [r7, #12]
 800376e:	681b      	ldr	r3, [r3, #0]
 8003770:	f442 7200 	orr.w	r2, r2, #512	; 0x200
 8003774:	601a      	str	r2, [r3, #0]

          /* Read data from DR */
          *hi2c->pBuffPtr = (uint8_t)hi2c->Instance->DR;
 8003776:	68fb      	ldr	r3, [r7, #12]
 8003778:	681b      	ldr	r3, [r3, #0]
 800377a:	691a      	ldr	r2, [r3, #16]
 800377c:	68fb      	ldr	r3, [r7, #12]
 800377e:	6a5b      	ldr	r3, [r3, #36]	; 0x24
 8003780:	b2d2      	uxtb	r2, r2
 8003782:	701a      	strb	r2, [r3, #0]

          /* Increment Buffer pointer */
          hi2c->pBuffPtr++;
 8003784:	68fb      	ldr	r3, [r7, #12]
 8003786:	6a5b      	ldr	r3, [r3, #36]	; 0x24
 8003788:	1c5a      	adds	r2, r3, #1
 800378a:	68fb      	ldr	r3, [r7, #12]
 800378c:	625a      	str	r2, [r3, #36]	; 0x24

          /* Update counter */
          hi2c->XferSize--;
 800378e:	68fb      	ldr	r3, [r7, #12]
 8003790:	8d1b      	ldrh	r3, [r3, #40]	; 0x28
 8003792:	3b01      	subs	r3, #1
 8003794:	b29a      	uxth	r2, r3
 8003796:	68fb      	ldr	r3, [r7, #12]
 8003798:	851a      	strh	r2, [r3, #40]	; 0x28
          hi2c->XferCount--;
 800379a:	68fb      	ldr	r3, [r7, #12]
 800379c:	8d5b      	ldrh	r3, [r3, #42]	; 0x2a
 800379e:	b29b      	uxth	r3, r3
 80037a0:	3b01      	subs	r3, #1
 80037a2:	b29a      	uxth	r2, r3
 80037a4:	68fb      	ldr	r3, [r7, #12]
 80037a6:	855a      	strh	r2, [r3, #42]	; 0x2a
  __ASM volatile ("cpsie i" : : : "memory");
 80037a8:	b662      	cpsie	i

          /* Re-enable IRQs */
          __enable_irq();

          /* Read data from DR */
          *hi2c->pBuffPtr = (uint8_t)hi2c->Instance->DR;
 80037aa:	68fb      	ldr	r3, [r7, #12]
 80037ac:	681b      	ldr	r3, [r3, #0]
 80037ae:	691a      	ldr	r2, [r3, #16]
 80037b0:	68fb      	ldr	r3, [r7, #12]
 80037b2:	6a5b      	ldr	r3, [r3, #36]	; 0x24
 80037b4:	b2d2      	uxtb	r2, r2
 80037b6:	701a      	strb	r2, [r3, #0]

          /* Increment Buffer pointer */
          hi2c->pBuffPtr++;
 80037b8:	68fb      	ldr	r3, [r7, #12]
 80037ba:	6a5b      	ldr	r3, [r3, #36]	; 0x24
 80037bc:	1c5a      	adds	r2, r3, #1
 80037be:	68fb      	ldr	r3, [r7, #12]
 80037c0:	625a      	str	r2, [r3, #36]	; 0x24

          /* Update counter */
          hi2c->XferSize--;
 80037c2:	68fb      	ldr	r3, [r7, #12]
 80037c4:	8d1b      	ldrh	r3, [r3, #40]	; 0x28
 80037c6:	3b01      	subs	r3, #1
 80037c8:	b29a      	uxth	r2, r3
 80037ca:	68fb      	ldr	r3, [r7, #12]
 80037cc:	851a      	strh	r2, [r3, #40]	; 0x28
          hi2c->XferCount--;
 80037ce:	68fb      	ldr	r3, [r7, #12]
 80037d0:	8d5b      	ldrh	r3, [r3, #42]	; 0x2a
 80037d2:	b29b      	uxth	r3, r3
 80037d4:	3b01      	subs	r3, #1
 80037d6:	b29a      	uxth	r2, r3
 80037d8:	68fb      	ldr	r3, [r7, #12]
 80037da:	855a      	strh	r2, [r3, #42]	; 0x2a
 80037dc:	e042      	b.n	8003864 <HAL_I2C_Master_Receive+0x428>
        }
      }
      else
      {
        /* Wait until RXNE flag is set */
        if (I2C_WaitOnRXNEFlagUntilTimeout(hi2c, Timeout, tickstart) != HAL_OK)
 80037de:	6a7a      	ldr	r2, [r7, #36]	; 0x24
 80037e0:	6b39      	ldr	r1, [r7, #48]	; 0x30
 80037e2:	68f8      	ldr	r0, [r7, #12]
 80037e4:	f000 f9e4 	bl	8003bb0 <I2C_WaitOnRXNEFlagUntilTimeout>
 80037e8:	4603      	mov	r3, r0
 80037ea:	2b00      	cmp	r3, #0
 80037ec:	d001      	beq.n	80037f2 <HAL_I2C_Master_Receive+0x3b6>
        {
          return HAL_ERROR;
 80037ee:	2301      	movs	r3, #1
 80037f0:	e04c      	b.n	800388c <HAL_I2C_Master_Receive+0x450>
        }

        /* Read data from DR */
        *hi2c->pBuffPtr = (uint8_t)hi2c->Instance->DR;
 80037f2:	68fb      	ldr	r3, [r7, #12]
 80037f4:	681b      	ldr	r3, [r3, #0]
 80037f6:	691a      	ldr	r2, [r3, #16]
 80037f8:	68fb      	ldr	r3, [r7, #12]
 80037fa:	6a5b      	ldr	r3, [r3, #36]	; 0x24
 80037fc:	b2d2      	uxtb	r2, r2
 80037fe:	701a      	strb	r2, [r3, #0]

        /* Increment Buffer pointer */
        hi2c->pBuffPtr++;
 8003800:	68fb      	ldr	r3, [r7, #12]
 8003802:	6a5b      	ldr	r3, [r3, #36]	; 0x24
 8003804:	1c5a      	adds	r2, r3, #1
 8003806:	68fb      	ldr	r3, [r7, #12]
 8003808:	625a      	str	r2, [r3, #36]	; 0x24

        /* Update counter */
        hi2c->XferSize--;
 800380a:	68fb      	ldr	r3, [r7, #12]
 800380c:	8d1b      	ldrh	r3, [r3, #40]	; 0x28
 800380e:	3b01      	subs	r3, #1
 8003810:	b29a      	uxth	r2, r3
 8003812:	68fb      	ldr	r3, [r7, #12]
 8003814:	851a      	strh	r2, [r3, #40]	; 0x28
        hi2c->XferCount--;
 8003816:	68fb      	ldr	r3, [r7, #12]
 8003818:	8d5b      	ldrh	r3, [r3, #42]	; 0x2a
 800381a:	b29b      	uxth	r3, r3
 800381c:	3b01      	subs	r3, #1
 800381e:	b29a      	uxth	r2, r3
 8003820:	68fb      	ldr	r3, [r7, #12]
 8003822:	855a      	strh	r2, [r3, #42]	; 0x2a

        if (__HAL_I2C_GET_FLAG(hi2c, I2C_FLAG_BTF) == SET)
 8003824:	68fb      	ldr	r3, [r7, #12]
 8003826:	681b      	ldr	r3, [r3, #0]
 8003828:	695b      	ldr	r3, [r3, #20]
 800382a:	f003 0304 	and.w	r3, r3, #4
 800382e:	2b04      	cmp	r3, #4
 8003830:	d118      	bne.n	8003864 <HAL_I2C_Master_Receive+0x428>
        {
          /* Read data from DR */
          *hi2c->pBuffPtr = (uint8_t)hi2c->Instance->DR;
 8003832:	68fb      	ldr	r3, [r7, #12]
 8003834:	681b      	ldr	r3, [r3, #0]
 8003836:	691a      	ldr	r2, [r3, #16]
 8003838:	68fb      	ldr	r3, [r7, #12]
 800383a:	6a5b      	ldr	r3, [r3, #36]	; 0x24
 800383c:	b2d2      	uxtb	r2, r2
 800383e:	701a      	strb	r2, [r3, #0]

          /* Increment Buffer pointer */
          hi2c->pBuffPtr++;
 8003840:	68fb      	ldr	r3, [r7, #12]
 8003842:	6a5b      	ldr	r3, [r3, #36]	; 0x24
 8003844:	1c5a      	adds	r2, r3, #1
 8003846:	68fb      	ldr	r3, [r7, #12]
 8003848:	625a      	str	r2, [r3, #36]	; 0x24

          /* Update counter */
          hi2c->XferSize--;
 800384a:	68fb      	ldr	r3, [r7, #12]
 800384c:	8d1b      	ldrh	r3, [r3, #40]	; 0x28
 800384e:	3b01      	subs	r3, #1
 8003850:	b29a      	uxth	r2, r3
 8003852:	68fb      	ldr	r3, [r7, #12]
 8003854:	851a      	strh	r2, [r3, #40]	; 0x28
          hi2c->XferCount--;
 8003856:	68fb      	ldr	r3, [r7, #12]
 8003858:	8d5b      	ldrh	r3, [r3, #42]	; 0x2a
 800385a:	b29b      	uxth	r3, r3
 800385c:	3b01      	subs	r3, #1
 800385e:	b29a      	uxth	r2, r3
 8003860:	68fb      	ldr	r3, [r7, #12]
 8003862:	855a      	strh	r2, [r3, #42]	; 0x2a
    while (hi2c->XferSize > 0U)
 8003864:	68fb      	ldr	r3, [r7, #12]
 8003866:	8d1b      	ldrh	r3, [r3, #40]	; 0x28
 8003868:	2b00      	cmp	r3, #0
 800386a:	f47f aebe 	bne.w	80035ea <HAL_I2C_Master_Receive+0x1ae>
        }
      }
    }

    hi2c->State = HAL_I2C_STATE_READY;
 800386e:	68fb      	ldr	r3, [r7, #12]
 8003870:	2220      	movs	r2, #32
 8003872:	f883 203d 	strb.w	r2, [r3, #61]	; 0x3d
    hi2c->Mode = HAL_I2C_MODE_NONE;
 8003876:	68fb      	ldr	r3, [r7, #12]
 8003878:	2200      	movs	r2, #0
 800387a:	f883 203e 	strb.w	r2, [r3, #62]	; 0x3e

    /* Process Unlocked */
    __HAL_UNLOCK(hi2c);
 800387e:	68fb      	ldr	r3, [r7, #12]
 8003880:	2200      	movs	r2, #0
 8003882:	f883 203c 	strb.w	r2, [r3, #60]	; 0x3c

    return HAL_OK;
 8003886:	2300      	movs	r3, #0
 8003888:	e000      	b.n	800388c <HAL_I2C_Master_Receive+0x450>
  }
  else
  {
    return HAL_BUSY;
 800388a:	2302      	movs	r3, #2
  }
}
 800388c:	4618      	mov	r0, r3
 800388e:	3728      	adds	r7, #40	; 0x28
 8003890:	46bd      	mov	sp, r7
 8003892:	bd80      	pop	{r7, pc}
 8003894:	00010004 	.word	0x00010004

08003898 <I2C_MasterRequestRead>:
  * @param  Timeout Timeout duration
  * @param  Tickstart Tick start value
  * @retval HAL status
  */
static HAL_StatusTypeDef I2C_MasterRequestRead(I2C_HandleTypeDef *hi2c, uint16_t DevAddress, uint32_t Timeout, uint32_t Tickstart)
{
 8003898:	b580      	push	{r7, lr}
 800389a:	b088      	sub	sp, #32
 800389c:	af02      	add	r7, sp, #8
 800389e:	60f8      	str	r0, [r7, #12]
 80038a0:	607a      	str	r2, [r7, #4]
 80038a2:	603b      	str	r3, [r7, #0]
 80038a4:	460b      	mov	r3, r1
 80038a6:	817b      	strh	r3, [r7, #10]
  /* Declaration of temporary variable to prevent undefined behavior of volatile usage */
  uint32_t CurrentXferOptions = hi2c->XferOptions;
 80038a8:	68fb      	ldr	r3, [r7, #12]
 80038aa:	6adb      	ldr	r3, [r3, #44]	; 0x2c
 80038ac:	617b      	str	r3, [r7, #20]

  /* Enable Acknowledge */
  SET_BIT(hi2c->Instance->CR1, I2C_CR1_ACK);
 80038ae:	68fb      	ldr	r3, [r7, #12]
 80038b0:	681b      	ldr	r3, [r3, #0]
 80038b2:	681a      	ldr	r2, [r3, #0]
 80038b4:	68fb      	ldr	r3, [r7, #12]
 80038b6:	681b      	ldr	r3, [r3, #0]
 80038b8:	f442 6280 	orr.w	r2, r2, #1024	; 0x400
 80038bc:	601a      	str	r2, [r3, #0]

  /* Generate Start condition if first transfer */
  if ((CurrentXferOptions == I2C_FIRST_AND_LAST_FRAME) || (CurrentXferOptions == I2C_FIRST_FRAME)  || (CurrentXferOptions == I2C_NO_OPTION_FRAME))
 80038be:	697b      	ldr	r3, [r7, #20]
 80038c0:	2b08      	cmp	r3, #8
 80038c2:	d006      	beq.n	80038d2 <I2C_MasterRequestRead+0x3a>
 80038c4:	697b      	ldr	r3, [r7, #20]
 80038c6:	2b01      	cmp	r3, #1
 80038c8:	d003      	beq.n	80038d2 <I2C_MasterRequestRead+0x3a>
 80038ca:	697b      	ldr	r3, [r7, #20]
 80038cc:	f513 3f80 	cmn.w	r3, #65536	; 0x10000
 80038d0:	d108      	bne.n	80038e4 <I2C_MasterRequestRead+0x4c>
  {
    /* Generate Start */
    SET_BIT(hi2c->Instance->CR1, I2C_CR1_START);
 80038d2:	68fb      	ldr	r3, [r7, #12]
 80038d4:	681b      	ldr	r3, [r3, #0]
 80038d6:	681a      	ldr	r2, [r3, #0]
 80038d8:	68fb      	ldr	r3, [r7, #12]
 80038da:	681b      	ldr	r3, [r3, #0]
 80038dc:	f442 7280 	orr.w	r2, r2, #256	; 0x100
 80038e0:	601a      	str	r2, [r3, #0]
 80038e2:	e00b      	b.n	80038fc <I2C_MasterRequestRead+0x64>
  }
  else if (hi2c->PreviousState == I2C_STATE_MASTER_BUSY_TX)
 80038e4:	68fb      	ldr	r3, [r7, #12]
 80038e6:	6b1b      	ldr	r3, [r3, #48]	; 0x30
 80038e8:	2b11      	cmp	r3, #17
 80038ea:	d107      	bne.n	80038fc <I2C_MasterRequestRead+0x64>
  {
    /* Generate ReStart */
    SET_BIT(hi2c->Instance->CR1, I2C_CR1_START);
 80038ec:	68fb      	ldr	r3, [r7, #12]
 80038ee:	681b      	ldr	r3, [r3, #0]
 80038f0:	681a      	ldr	r2, [r3, #0]
 80038f2:	68fb      	ldr	r3, [r7, #12]
 80038f4:	681b      	ldr	r3, [r3, #0]
 80038f6:	f442 7280 	orr.w	r2, r2, #256	; 0x100
 80038fa:	601a      	str	r2, [r3, #0]
  {
    /* Do nothing */
  }

  /* Wait until SB flag is set */
  if (I2C_WaitOnFlagUntilTimeout(hi2c, I2C_FLAG_SB, RESET, Timeout, Tickstart) != HAL_OK)
 80038fc:	683b      	ldr	r3, [r7, #0]
 80038fe:	9300      	str	r3, [sp, #0]
 8003900:	687b      	ldr	r3, [r7, #4]
 8003902:	2200      	movs	r2, #0
 8003904:	f04f 1101 	mov.w	r1, #65537	; 0x10001
 8003908:	68f8      	ldr	r0, [r7, #12]
 800390a:	f000 f87b 	bl	8003a04 <I2C_WaitOnFlagUntilTimeout>
 800390e:	4603      	mov	r3, r0
 8003910:	2b00      	cmp	r3, #0
 8003912:	d001      	beq.n	8003918 <I2C_MasterRequestRead+0x80>
  {
    return HAL_ERROR;
 8003914:	2301      	movs	r3, #1
 8003916:	e06d      	b.n	80039f4 <I2C_MasterRequestRead+0x15c>
  }

  if (hi2c->Init.AddressingMode == I2C_ADDRESSINGMODE_7BIT)
 8003918:	68fb      	ldr	r3, [r7, #12]
 800391a:	691b      	ldr	r3, [r3, #16]
 800391c:	f5b3 4f80 	cmp.w	r3, #16384	; 0x4000
 8003920:	d108      	bne.n	8003934 <I2C_MasterRequestRead+0x9c>
  {
    /* Send slave address */
    hi2c->Instance->DR = I2C_7BIT_ADD_READ(DevAddress);
 8003922:	897b      	ldrh	r3, [r7, #10]
 8003924:	b2db      	uxtb	r3, r3
 8003926:	f043 0301 	orr.w	r3, r3, #1
 800392a:	b2da      	uxtb	r2, r3
 800392c:	68fb      	ldr	r3, [r7, #12]
 800392e:	681b      	ldr	r3, [r3, #0]
 8003930:	611a      	str	r2, [r3, #16]
 8003932:	e053      	b.n	80039dc <I2C_MasterRequestRead+0x144>
  }
  else
  {
    /* Send header of slave address */
    hi2c->Instance->DR = I2C_10BIT_HEADER_WRITE(DevAddress);
 8003934:	897b      	ldrh	r3, [r7, #10]
 8003936:	11db      	asrs	r3, r3, #7
 8003938:	b2db      	uxtb	r3, r3
 800393a:	f003 0306 	and.w	r3, r3, #6
 800393e:	b2db      	uxtb	r3, r3
 8003940:	f063 030f 	orn	r3, r3, #15
 8003944:	b2da      	uxtb	r2, r3
 8003946:	68fb      	ldr	r3, [r7, #12]
 8003948:	681b      	ldr	r3, [r3, #0]
 800394a:	611a      	str	r2, [r3, #16]

    /* Wait until ADD10 flag is set */
    if (I2C_WaitOnMasterAddressFlagUntilTimeout(hi2c, I2C_FLAG_ADD10, Timeout, Tickstart) != HAL_OK)
 800394c:	683b      	ldr	r3, [r7, #0]
 800394e:	687a      	ldr	r2, [r7, #4]
 8003950:	492a      	ldr	r1, [pc, #168]	; (80039fc <I2C_MasterRequestRead+0x164>)
 8003952:	68f8      	ldr	r0, [r7, #12]
 8003954:	f000 f8ad 	bl	8003ab2 <I2C_WaitOnMasterAddressFlagUntilTimeout>
 8003958:	4603      	mov	r3, r0
 800395a:	2b00      	cmp	r3, #0
 800395c:	d001      	beq.n	8003962 <I2C_MasterRequestRead+0xca>
    {
      return HAL_ERROR;
 800395e:	2301      	movs	r3, #1
 8003960:	e048      	b.n	80039f4 <I2C_MasterRequestRead+0x15c>
    }

    /* Send slave address */
    hi2c->Instance->DR = I2C_10BIT_ADDRESS(DevAddress);
 8003962:	897b      	ldrh	r3, [r7, #10]
 8003964:	b2da      	uxtb	r2, r3
 8003966:	68fb      	ldr	r3, [r7, #12]
 8003968:	681b      	ldr	r3, [r3, #0]
 800396a:	611a      	str	r2, [r3, #16]

    /* Wait until ADDR flag is set */
    if (I2C_WaitOnMasterAddressFlagUntilTimeout(hi2c, I2C_FLAG_ADDR, Timeout, Tickstart) != HAL_OK)
 800396c:	683b      	ldr	r3, [r7, #0]
 800396e:	687a      	ldr	r2, [r7, #4]
 8003970:	4923      	ldr	r1, [pc, #140]	; (8003a00 <I2C_MasterRequestRead+0x168>)
 8003972:	68f8      	ldr	r0, [r7, #12]
 8003974:	f000 f89d 	bl	8003ab2 <I2C_WaitOnMasterAddressFlagUntilTimeout>
 8003978:	4603      	mov	r3, r0
 800397a:	2b00      	cmp	r3, #0
 800397c:	d001      	beq.n	8003982 <I2C_MasterRequestRead+0xea>
    {
      return HAL_ERROR;
 800397e:	2301      	movs	r3, #1
 8003980:	e038      	b.n	80039f4 <I2C_MasterRequestRead+0x15c>
    }

    /* Clear ADDR flag */
    __HAL_I2C_CLEAR_ADDRFLAG(hi2c);
 8003982:	2300      	movs	r3, #0
 8003984:	613b      	str	r3, [r7, #16]
 8003986:	68fb      	ldr	r3, [r7, #12]
 8003988:	681b      	ldr	r3, [r3, #0]
 800398a:	695b      	ldr	r3, [r3, #20]
 800398c:	613b      	str	r3, [r7, #16]
 800398e:	68fb      	ldr	r3, [r7, #12]
 8003990:	681b      	ldr	r3, [r3, #0]
 8003992:	699b      	ldr	r3, [r3, #24]
 8003994:	613b      	str	r3, [r7, #16]
 8003996:	693b      	ldr	r3, [r7, #16]

    /* Generate Restart */
    SET_BIT(hi2c->Instance->CR1, I2C_CR1_START);
 8003998:	68fb      	ldr	r3, [r7, #12]
 800399a:	681b      	ldr	r3, [r3, #0]
 800399c:	681a      	ldr	r2, [r3, #0]
 800399e:	68fb      	ldr	r3, [r7, #12]
 80039a0:	681b      	ldr	r3, [r3, #0]
 80039a2:	f442 7280 	orr.w	r2, r2, #256	; 0x100
 80039a6:	601a      	str	r2, [r3, #0]

    /* Wait until SB flag is set */
    if (I2C_WaitOnFlagUntilTimeout(hi2c, I2C_FLAG_SB, RESET, Timeout, Tickstart) != HAL_OK)
 80039a8:	683b      	ldr	r3, [r7, #0]
 80039aa:	9300      	str	r3, [sp, #0]
 80039ac:	687b      	ldr	r3, [r7, #4]
 80039ae:	2200      	movs	r2, #0
 80039b0:	f04f 1101 	mov.w	r1, #65537	; 0x10001
 80039b4:	68f8      	ldr	r0, [r7, #12]
 80039b6:	f000 f825 	bl	8003a04 <I2C_WaitOnFlagUntilTimeout>
 80039ba:	4603      	mov	r3, r0
 80039bc:	2b00      	cmp	r3, #0
 80039be:	d001      	beq.n	80039c4 <I2C_MasterRequestRead+0x12c>
    {
      return HAL_ERROR;
 80039c0:	2301      	movs	r3, #1
 80039c2:	e017      	b.n	80039f4 <I2C_MasterRequestRead+0x15c>
    }

    /* Send header of slave address */
    hi2c->Instance->DR = I2C_10BIT_HEADER_READ(DevAddress);
 80039c4:	897b      	ldrh	r3, [r7, #10]
 80039c6:	11db      	asrs	r3, r3, #7
 80039c8:	b2db      	uxtb	r3, r3
 80039ca:	f003 0306 	and.w	r3, r3, #6
 80039ce:	b2db      	uxtb	r3, r3
 80039d0:	f063 030e 	orn	r3, r3, #14
 80039d4:	b2da      	uxtb	r2, r3
 80039d6:	68fb      	ldr	r3, [r7, #12]
 80039d8:	681b      	ldr	r3, [r3, #0]
 80039da:	611a      	str	r2, [r3, #16]
  }

  /* Wait until ADDR flag is set */
  if (I2C_WaitOnMasterAddressFlagUntilTimeout(hi2c, I2C_FLAG_ADDR, Timeout, Tickstart) != HAL_OK)
 80039dc:	683b      	ldr	r3, [r7, #0]
 80039de:	687a      	ldr	r2, [r7, #4]
 80039e0:	4907      	ldr	r1, [pc, #28]	; (8003a00 <I2C_MasterRequestRead+0x168>)
 80039e2:	68f8      	ldr	r0, [r7, #12]
 80039e4:	f000 f865 	bl	8003ab2 <I2C_WaitOnMasterAddressFlagUntilTimeout>
 80039e8:	4603      	mov	r3, r0
 80039ea:	2b00      	cmp	r3, #0
 80039ec:	d001      	beq.n	80039f2 <I2C_MasterRequestRead+0x15a>
  {
    return HAL_ERROR;
 80039ee:	2301      	movs	r3, #1
 80039f0:	e000      	b.n	80039f4 <I2C_MasterRequestRead+0x15c>
  }

  return HAL_OK;
 80039f2:	2300      	movs	r3, #0
}
 80039f4:	4618      	mov	r0, r3
 80039f6:	3718      	adds	r7, #24
 80039f8:	46bd      	mov	sp, r7
 80039fa:	bd80      	pop	{r7, pc}
 80039fc:	00010008 	.word	0x00010008
 8003a00:	00010002 	.word	0x00010002

08003a04 <I2C_WaitOnFlagUntilTimeout>:
  * @param  Timeout Timeout duration
  * @param  Tickstart Tick start value
  * @retval HAL status
  */
static HAL_StatusTypeDef I2C_WaitOnFlagUntilTimeout(I2C_HandleTypeDef *hi2c, uint32_t Flag, FlagStatus Status, uint32_t Timeout, uint32_t Tickstart)
{
 8003a04:	b580      	push	{r7, lr}
 8003a06:	b084      	sub	sp, #16
 8003a08:	af00      	add	r7, sp, #0
 8003a0a:	60f8      	str	r0, [r7, #12]
 8003a0c:	60b9      	str	r1, [r7, #8]
 8003a0e:	603b      	str	r3, [r7, #0]
 8003a10:	4613      	mov	r3, r2
 8003a12:	71fb      	strb	r3, [r7, #7]
  /* Wait until flag is set */
  while (__HAL_I2C_GET_FLAG(hi2c, Flag) == Status)
 8003a14:	e025      	b.n	8003a62 <I2C_WaitOnFlagUntilTimeout+0x5e>
  {
    /* Check for the Timeout */
    if (Timeout != HAL_MAX_DELAY)
 8003a16:	683b      	ldr	r3, [r7, #0]
 8003a18:	f1b3 3fff 	cmp.w	r3, #4294967295
 8003a1c:	d021      	beq.n	8003a62 <I2C_WaitOnFlagUntilTimeout+0x5e>
    {
      if (((HAL_GetTick() - Tickstart) > Timeout) || (Timeout == 0U))
 8003a1e:	f7fd fc33 	bl	8001288 <HAL_GetTick>
 8003a22:	4602      	mov	r2, r0
 8003a24:	69bb      	ldr	r3, [r7, #24]
 8003a26:	1ad3      	subs	r3, r2, r3
 8003a28:	683a      	ldr	r2, [r7, #0]
 8003a2a:	429a      	cmp	r2, r3
 8003a2c:	d302      	bcc.n	8003a34 <I2C_WaitOnFlagUntilTimeout+0x30>
 8003a2e:	683b      	ldr	r3, [r7, #0]
 8003a30:	2b00      	cmp	r3, #0
 8003a32:	d116      	bne.n	8003a62 <I2C_WaitOnFlagUntilTimeout+0x5e>
      {
        hi2c->PreviousState     = I2C_STATE_NONE;
 8003a34:	68fb      	ldr	r3, [r7, #12]
 8003a36:	2200      	movs	r2, #0
 8003a38:	631a      	str	r2, [r3, #48]	; 0x30
        hi2c->State             = HAL_I2C_STATE_READY;
 8003a3a:	68fb      	ldr	r3, [r7, #12]
 8003a3c:	2220      	movs	r2, #32
 8003a3e:	f883 203d 	strb.w	r2, [r3, #61]	; 0x3d
        hi2c->Mode              = HAL_I2C_MODE_NONE;
 8003a42:	68fb      	ldr	r3, [r7, #12]
 8003a44:	2200      	movs	r2, #0
 8003a46:	f883 203e 	strb.w	r2, [r3, #62]	; 0x3e
        hi2c->ErrorCode         |= HAL_I2C_ERROR_TIMEOUT;
 8003a4a:	68fb      	ldr	r3, [r7, #12]
 8003a4c:	6c1b      	ldr	r3, [r3, #64]	; 0x40
 8003a4e:	f043 0220 	orr.w	r2, r3, #32
 8003a52:	68fb      	ldr	r3, [r7, #12]
 8003a54:	641a      	str	r2, [r3, #64]	; 0x40

        /* Process Unlocked */
        __HAL_UNLOCK(hi2c);
 8003a56:	68fb      	ldr	r3, [r7, #12]
 8003a58:	2200      	movs	r2, #0
 8003a5a:	f883 203c 	strb.w	r2, [r3, #60]	; 0x3c

        return HAL_ERROR;
 8003a5e:	2301      	movs	r3, #1
 8003a60:	e023      	b.n	8003aaa <I2C_WaitOnFlagUntilTimeout+0xa6>
  while (__HAL_I2C_GET_FLAG(hi2c, Flag) == Status)
 8003a62:	68bb      	ldr	r3, [r7, #8]
 8003a64:	0c1b      	lsrs	r3, r3, #16
 8003a66:	b2db      	uxtb	r3, r3
 8003a68:	2b01      	cmp	r3, #1
 8003a6a:	d10d      	bne.n	8003a88 <I2C_WaitOnFlagUntilTimeout+0x84>
 8003a6c:	68fb      	ldr	r3, [r7, #12]
 8003a6e:	681b      	ldr	r3, [r3, #0]
 8003a70:	695b      	ldr	r3, [r3, #20]
 8003a72:	43da      	mvns	r2, r3
 8003a74:	68bb      	ldr	r3, [r7, #8]
 8003a76:	4013      	ands	r3, r2
 8003a78:	b29b      	uxth	r3, r3
 8003a7a:	2b00      	cmp	r3, #0
 8003a7c:	bf0c      	ite	eq
 8003a7e:	2301      	moveq	r3, #1
 8003a80:	2300      	movne	r3, #0
 8003a82:	b2db      	uxtb	r3, r3
 8003a84:	461a      	mov	r2, r3
 8003a86:	e00c      	b.n	8003aa2 <I2C_WaitOnFlagUntilTimeout+0x9e>
 8003a88:	68fb      	ldr	r3, [r7, #12]
 8003a8a:	681b      	ldr	r3, [r3, #0]
 8003a8c:	699b      	ldr	r3, [r3, #24]
 8003a8e:	43da      	mvns	r2, r3
 8003a90:	68bb      	ldr	r3, [r7, #8]
 8003a92:	4013      	ands	r3, r2
 8003a94:	b29b      	uxth	r3, r3
 8003a96:	2b00      	cmp	r3, #0
 8003a98:	bf0c      	ite	eq
 8003a9a:	2301      	moveq	r3, #1
 8003a9c:	2300      	movne	r3, #0
 8003a9e:	b2db      	uxtb	r3, r3
 8003aa0:	461a      	mov	r2, r3
 8003aa2:	79fb      	ldrb	r3, [r7, #7]
 8003aa4:	429a      	cmp	r2, r3
 8003aa6:	d0b6      	beq.n	8003a16 <I2C_WaitOnFlagUntilTimeout+0x12>
      }
    }
  }
  return HAL_OK;
 8003aa8:	2300      	movs	r3, #0
}
 8003aaa:	4618      	mov	r0, r3
 8003aac:	3710      	adds	r7, #16
 8003aae:	46bd      	mov	sp, r7
 8003ab0:	bd80      	pop	{r7, pc}

08003ab2 <I2C_WaitOnMasterAddressFlagUntilTimeout>:
  * @param  Timeout Timeout duration
  * @param  Tickstart Tick start value
  * @retval HAL status
  */
static HAL_StatusTypeDef I2C_WaitOnMasterAddressFlagUntilTimeout(I2C_HandleTypeDef *hi2c, uint32_t Flag, uint32_t Timeout, uint32_t Tickstart)
{
 8003ab2:	b580      	push	{r7, lr}
 8003ab4:	b084      	sub	sp, #16
 8003ab6:	af00      	add	r7, sp, #0
 8003ab8:	60f8      	str	r0, [r7, #12]
 8003aba:	60b9      	str	r1, [r7, #8]
 8003abc:	607a      	str	r2, [r7, #4]
 8003abe:	603b      	str	r3, [r7, #0]
  while (__HAL_I2C_GET_FLAG(hi2c, Flag) == RESET)
 8003ac0:	e051      	b.n	8003b66 <I2C_WaitOnMasterAddressFlagUntilTimeout+0xb4>
  {
    if (__HAL_I2C_GET_FLAG(hi2c, I2C_FLAG_AF) == SET)
 8003ac2:	68fb      	ldr	r3, [r7, #12]
 8003ac4:	681b      	ldr	r3, [r3, #0]
 8003ac6:	695b      	ldr	r3, [r3, #20]
 8003ac8:	f403 6380 	and.w	r3, r3, #1024	; 0x400
 8003acc:	f5b3 6f80 	cmp.w	r3, #1024	; 0x400
 8003ad0:	d123      	bne.n	8003b1a <I2C_WaitOnMasterAddressFlagUntilTimeout+0x68>
    {
      /* Generate Stop */
      SET_BIT(hi2c->Instance->CR1, I2C_CR1_STOP);
 8003ad2:	68fb      	ldr	r3, [r7, #12]
 8003ad4:	681b      	ldr	r3, [r3, #0]
 8003ad6:	681a      	ldr	r2, [r3, #0]
 8003ad8:	68fb      	ldr	r3, [r7, #12]
 8003ada:	681b      	ldr	r3, [r3, #0]
 8003adc:	f442 7200 	orr.w	r2, r2, #512	; 0x200
 8003ae0:	601a      	str	r2, [r3, #0]

      /* Clear AF Flag */
      __HAL_I2C_CLEAR_FLAG(hi2c, I2C_FLAG_AF);
 8003ae2:	68fb      	ldr	r3, [r7, #12]
 8003ae4:	681b      	ldr	r3, [r3, #0]
 8003ae6:	f46f 6280 	mvn.w	r2, #1024	; 0x400
 8003aea:	615a      	str	r2, [r3, #20]

      hi2c->PreviousState       = I2C_STATE_NONE;
 8003aec:	68fb      	ldr	r3, [r7, #12]
 8003aee:	2200      	movs	r2, #0
 8003af0:	631a      	str	r2, [r3, #48]	; 0x30
      hi2c->State               = HAL_I2C_STATE_READY;
 8003af2:	68fb      	ldr	r3, [r7, #12]
 8003af4:	2220      	movs	r2, #32
 8003af6:	f883 203d 	strb.w	r2, [r3, #61]	; 0x3d
      hi2c->Mode                = HAL_I2C_MODE_NONE;
 8003afa:	68fb      	ldr	r3, [r7, #12]
 8003afc:	2200      	movs	r2, #0
 8003afe:	f883 203e 	strb.w	r2, [r3, #62]	; 0x3e
      hi2c->ErrorCode           |= HAL_I2C_ERROR_AF;
 8003b02:	68fb      	ldr	r3, [r7, #12]
 8003b04:	6c1b      	ldr	r3, [r3, #64]	; 0x40
 8003b06:	f043 0204 	orr.w	r2, r3, #4
 8003b0a:	68fb      	ldr	r3, [r7, #12]
 8003b0c:	641a      	str	r2, [r3, #64]	; 0x40

      /* Process Unlocked */
      __HAL_UNLOCK(hi2c);
 8003b0e:	68fb      	ldr	r3, [r7, #12]
 8003b10:	2200      	movs	r2, #0
 8003b12:	f883 203c 	strb.w	r2, [r3, #60]	; 0x3c

      return HAL_ERROR;
 8003b16:	2301      	movs	r3, #1
 8003b18:	e046      	b.n	8003ba8 <I2C_WaitOnMasterAddressFlagUntilTimeout+0xf6>
    }

    /* Check for the Timeout */
    if (Timeout != HAL_MAX_DELAY)
 8003b1a:	687b      	ldr	r3, [r7, #4]
 8003b1c:	f1b3 3fff 	cmp.w	r3, #4294967295
 8003b20:	d021      	beq.n	8003b66 <I2C_WaitOnMasterAddressFlagUntilTimeout+0xb4>
    {
      if (((HAL_GetTick() - Tickstart) > Timeout) || (Timeout == 0U))
 8003b22:	f7fd fbb1 	bl	8001288 <HAL_GetTick>
 8003b26:	4602      	mov	r2, r0
 8003b28:	683b      	ldr	r3, [r7, #0]
 8003b2a:	1ad3      	subs	r3, r2, r3
 8003b2c:	687a      	ldr	r2, [r7, #4]
 8003b2e:	429a      	cmp	r2, r3
 8003b30:	d302      	bcc.n	8003b38 <I2C_WaitOnMasterAddressFlagUntilTimeout+0x86>
 8003b32:	687b      	ldr	r3, [r7, #4]
 8003b34:	2b00      	cmp	r3, #0
 8003b36:	d116      	bne.n	8003b66 <I2C_WaitOnMasterAddressFlagUntilTimeout+0xb4>
      {
        hi2c->PreviousState       = I2C_STATE_NONE;
 8003b38:	68fb      	ldr	r3, [r7, #12]
 8003b3a:	2200      	movs	r2, #0
 8003b3c:	631a      	str	r2, [r3, #48]	; 0x30
        hi2c->State               = HAL_I2C_STATE_READY;
 8003b3e:	68fb      	ldr	r3, [r7, #12]
 8003b40:	2220      	movs	r2, #32
 8003b42:	f883 203d 	strb.w	r2, [r3, #61]	; 0x3d
        hi2c->Mode                = HAL_I2C_MODE_NONE;
 8003b46:	68fb      	ldr	r3, [r7, #12]
 8003b48:	2200      	movs	r2, #0
 8003b4a:	f883 203e 	strb.w	r2, [r3, #62]	; 0x3e
        hi2c->ErrorCode           |= HAL_I2C_ERROR_TIMEOUT;
 8003b4e:	68fb      	ldr	r3, [r7, #12]
 8003b50:	6c1b      	ldr	r3, [r3, #64]	; 0x40
 8003b52:	f043 0220 	orr.w	r2, r3, #32
 8003b56:	68fb      	ldr	r3, [r7, #12]
 8003b58:	641a      	str	r2, [r3, #64]	; 0x40

        /* Process Unlocked */
        __HAL_UNLOCK(hi2c);
 8003b5a:	68fb      	ldr	r3, [r7, #12]
 8003b5c:	2200      	movs	r2, #0
 8003b5e:	f883 203c 	strb.w	r2, [r3, #60]	; 0x3c

        return HAL_ERROR;
 8003b62:	2301      	movs	r3, #1
 8003b64:	e020      	b.n	8003ba8 <I2C_WaitOnMasterAddressFlagUntilTimeout+0xf6>
  while (__HAL_I2C_GET_FLAG(hi2c, Flag) == RESET)
 8003b66:	68bb      	ldr	r3, [r7, #8]
 8003b68:	0c1b      	lsrs	r3, r3, #16
 8003b6a:	b2db      	uxtb	r3, r3
 8003b6c:	2b01      	cmp	r3, #1
 8003b6e:	d10c      	bne.n	8003b8a <I2C_WaitOnMasterAddressFlagUntilTimeout+0xd8>
 8003b70:	68fb      	ldr	r3, [r7, #12]
 8003b72:	681b      	ldr	r3, [r3, #0]
 8003b74:	695b      	ldr	r3, [r3, #20]
 8003b76:	43da      	mvns	r2, r3
 8003b78:	68bb      	ldr	r3, [r7, #8]
 8003b7a:	4013      	ands	r3, r2
 8003b7c:	b29b      	uxth	r3, r3
 8003b7e:	2b00      	cmp	r3, #0
 8003b80:	bf14      	ite	ne
 8003b82:	2301      	movne	r3, #1
 8003b84:	2300      	moveq	r3, #0
 8003b86:	b2db      	uxtb	r3, r3
 8003b88:	e00b      	b.n	8003ba2 <I2C_WaitOnMasterAddressFlagUntilTimeout+0xf0>
 8003b8a:	68fb      	ldr	r3, [r7, #12]
 8003b8c:	681b      	ldr	r3, [r3, #0]
 8003b8e:	699b      	ldr	r3, [r3, #24]
 8003b90:	43da      	mvns	r2, r3
 8003b92:	68bb      	ldr	r3, [r7, #8]
 8003b94:	4013      	ands	r3, r2
 8003b96:	b29b      	uxth	r3, r3
 8003b98:	2b00      	cmp	r3, #0
 8003b9a:	bf14      	ite	ne
 8003b9c:	2301      	movne	r3, #1
 8003b9e:	2300      	moveq	r3, #0
 8003ba0:	b2db      	uxtb	r3, r3
 8003ba2:	2b00      	cmp	r3, #0
 8003ba4:	d18d      	bne.n	8003ac2 <I2C_WaitOnMasterAddressFlagUntilTimeout+0x10>
      }
    }
  }
  return HAL_OK;
 8003ba6:	2300      	movs	r3, #0
}
 8003ba8:	4618      	mov	r0, r3
 8003baa:	3710      	adds	r7, #16
 8003bac:	46bd      	mov	sp, r7
 8003bae:	bd80      	pop	{r7, pc}

08003bb0 <I2C_WaitOnRXNEFlagUntilTimeout>:
  * @param  Timeout Timeout duration
  * @param  Tickstart Tick start value
  * @retval HAL status
  */
static HAL_StatusTypeDef I2C_WaitOnRXNEFlagUntilTimeout(I2C_HandleTypeDef *hi2c, uint32_t Timeout, uint32_t Tickstart)
{
 8003bb0:	b580      	push	{r7, lr}
 8003bb2:	b084      	sub	sp, #16
 8003bb4:	af00      	add	r7, sp, #0
 8003bb6:	60f8      	str	r0, [r7, #12]
 8003bb8:	60b9      	str	r1, [r7, #8]
 8003bba:	607a      	str	r2, [r7, #4]

  while (__HAL_I2C_GET_FLAG(hi2c, I2C_FLAG_RXNE) == RESET)
 8003bbc:	e042      	b.n	8003c44 <I2C_WaitOnRXNEFlagUntilTimeout+0x94>
  {
    /* Check if a STOPF is detected */
    if (__HAL_I2C_GET_FLAG(hi2c, I2C_FLAG_STOPF) == SET)
 8003bbe:	68fb      	ldr	r3, [r7, #12]
 8003bc0:	681b      	ldr	r3, [r3, #0]
 8003bc2:	695b      	ldr	r3, [r3, #20]
 8003bc4:	f003 0310 	and.w	r3, r3, #16
 8003bc8:	2b10      	cmp	r3, #16
 8003bca:	d119      	bne.n	8003c00 <I2C_WaitOnRXNEFlagUntilTimeout+0x50>
    {
      /* Clear STOP Flag */
      __HAL_I2C_CLEAR_FLAG(hi2c, I2C_FLAG_STOPF);
 8003bcc:	68fb      	ldr	r3, [r7, #12]
 8003bce:	681b      	ldr	r3, [r3, #0]
 8003bd0:	f06f 0210 	mvn.w	r2, #16
 8003bd4:	615a      	str	r2, [r3, #20]

      hi2c->PreviousState       = I2C_STATE_NONE;
 8003bd6:	68fb      	ldr	r3, [r7, #12]
 8003bd8:	2200      	movs	r2, #0
 8003bda:	631a      	str	r2, [r3, #48]	; 0x30
      hi2c->State               = HAL_I2C_STATE_READY;
 8003bdc:	68fb      	ldr	r3, [r7, #12]
 8003bde:	2220      	movs	r2, #32
 8003be0:	f883 203d 	strb.w	r2, [r3, #61]	; 0x3d
      hi2c->Mode                = HAL_I2C_MODE_NONE;
 8003be4:	68fb      	ldr	r3, [r7, #12]
 8003be6:	2200      	movs	r2, #0
 8003be8:	f883 203e 	strb.w	r2, [r3, #62]	; 0x3e
      hi2c->ErrorCode           |= HAL_I2C_ERROR_NONE;
 8003bec:	68fb      	ldr	r3, [r7, #12]
 8003bee:	6c1a      	ldr	r2, [r3, #64]	; 0x40
 8003bf0:	68fb      	ldr	r3, [r7, #12]
 8003bf2:	641a      	str	r2, [r3, #64]	; 0x40

      /* Process Unlocked */
      __HAL_UNLOCK(hi2c);
 8003bf4:	68fb      	ldr	r3, [r7, #12]
 8003bf6:	2200      	movs	r2, #0
 8003bf8:	f883 203c 	strb.w	r2, [r3, #60]	; 0x3c

      return HAL_ERROR;
 8003bfc:	2301      	movs	r3, #1
 8003bfe:	e029      	b.n	8003c54 <I2C_WaitOnRXNEFlagUntilTimeout+0xa4>
    }

    /* Check for the Timeout */
    if (((HAL_GetTick() - Tickstart) > Timeout) || (Timeout == 0U))
 8003c00:	f7fd fb42 	bl	8001288 <HAL_GetTick>
 8003c04:	4602      	mov	r2, r0
 8003c06:	687b      	ldr	r3, [r7, #4]
 8003c08:	1ad3      	subs	r3, r2, r3
 8003c0a:	68ba      	ldr	r2, [r7, #8]
 8003c0c:	429a      	cmp	r2, r3
 8003c0e:	d302      	bcc.n	8003c16 <I2C_WaitOnRXNEFlagUntilTimeout+0x66>
 8003c10:	68bb      	ldr	r3, [r7, #8]
 8003c12:	2b00      	cmp	r3, #0
 8003c14:	d116      	bne.n	8003c44 <I2C_WaitOnRXNEFlagUntilTimeout+0x94>
    {
      hi2c->PreviousState       = I2C_STATE_NONE;
 8003c16:	68fb      	ldr	r3, [r7, #12]
 8003c18:	2200      	movs	r2, #0
 8003c1a:	631a      	str	r2, [r3, #48]	; 0x30
      hi2c->State               = HAL_I2C_STATE_READY;
 8003c1c:	68fb      	ldr	r3, [r7, #12]
 8003c1e:	2220      	movs	r2, #32
 8003c20:	f883 203d 	strb.w	r2, [r3, #61]	; 0x3d
      hi2c->Mode                = HAL_I2C_MODE_NONE;
 8003c24:	68fb      	ldr	r3, [r7, #12]
 8003c26:	2200      	movs	r2, #0
 8003c28:	f883 203e 	strb.w	r2, [r3, #62]	; 0x3e
      hi2c->ErrorCode           |= HAL_I2C_ERROR_TIMEOUT;
 8003c2c:	68fb      	ldr	r3, [r7, #12]
 8003c2e:	6c1b      	ldr	r3, [r3, #64]	; 0x40
 8003c30:	f043 0220 	orr.w	r2, r3, #32
 8003c34:	68fb      	ldr	r3, [r7, #12]
 8003c36:	641a      	str	r2, [r3, #64]	; 0x40

      /* Process Unlocked */
      __HAL_UNLOCK(hi2c);
 8003c38:	68fb      	ldr	r3, [r7, #12]
 8003c3a:	2200      	movs	r2, #0
 8003c3c:	f883 203c 	strb.w	r2, [r3, #60]	; 0x3c

      return HAL_ERROR;
 8003c40:	2301      	movs	r3, #1
 8003c42:	e007      	b.n	8003c54 <I2C_WaitOnRXNEFlagUntilTimeout+0xa4>
  while (__HAL_I2C_GET_FLAG(hi2c, I2C_FLAG_RXNE) == RESET)
 8003c44:	68fb      	ldr	r3, [r7, #12]
 8003c46:	681b      	ldr	r3, [r3, #0]
 8003c48:	695b      	ldr	r3, [r3, #20]
 8003c4a:	f003 0340 	and.w	r3, r3, #64	; 0x40
 8003c4e:	2b40      	cmp	r3, #64	; 0x40
 8003c50:	d1b5      	bne.n	8003bbe <I2C_WaitOnRXNEFlagUntilTimeout+0xe>
    }
  }
  return HAL_OK;
 8003c52:	2300      	movs	r3, #0
}
 8003c54:	4618      	mov	r0, r3
 8003c56:	3710      	adds	r7, #16
 8003c58:	46bd      	mov	sp, r7
 8003c5a:	bd80      	pop	{r7, pc}

08003c5c <HAL_RCC_OscConfig>:
  *         supported by this macro. User should request a transition to HSE Off
  *         first and then HSE On or HSE Bypass.
  * @retval HAL status
  */
HAL_StatusTypeDef HAL_RCC_OscConfig(RCC_OscInitTypeDef  *RCC_OscInitStruct)
{
 8003c5c:	b580      	push	{r7, lr}
 8003c5e:	b086      	sub	sp, #24
 8003c60:	af00      	add	r7, sp, #0
 8003c62:	6078      	str	r0, [r7, #4]
  uint32_t tickstart;
  uint32_t pll_config;

  /* Check Null pointer */
  if (RCC_OscInitStruct == NULL)
 8003c64:	687b      	ldr	r3, [r7, #4]
 8003c66:	2b00      	cmp	r3, #0
 8003c68:	d101      	bne.n	8003c6e <HAL_RCC_OscConfig+0x12>
  {
    return HAL_ERROR;
 8003c6a:	2301      	movs	r3, #1
 8003c6c:	e26c      	b.n	8004148 <HAL_RCC_OscConfig+0x4ec>

  /* Check the parameters */
  assert_param(IS_RCC_OSCILLATORTYPE(RCC_OscInitStruct->OscillatorType));

  /*------------------------------- HSE Configuration ------------------------*/
  if (((RCC_OscInitStruct->OscillatorType) & RCC_OSCILLATORTYPE_HSE) == RCC_OSCILLATORTYPE_HSE)
 8003c6e:	687b      	ldr	r3, [r7, #4]
 8003c70:	681b      	ldr	r3, [r3, #0]
 8003c72:	f003 0301 	and.w	r3, r3, #1
 8003c76:	2b00      	cmp	r3, #0
 8003c78:	f000 8087 	beq.w	8003d8a <HAL_RCC_OscConfig+0x12e>
  {
    /* Check the parameters */
    assert_param(IS_RCC_HSE(RCC_OscInitStruct->HSEState));

    /* When the HSE is used as system clock or clock source for PLL in these cases it is not allowed to be disabled */
    if ((__HAL_RCC_GET_SYSCLK_SOURCE() == RCC_SYSCLKSOURCE_STATUS_HSE)
 8003c7c:	4b92      	ldr	r3, [pc, #584]	; (8003ec8 <HAL_RCC_OscConfig+0x26c>)
 8003c7e:	685b      	ldr	r3, [r3, #4]
 8003c80:	f003 030c 	and.w	r3, r3, #12
 8003c84:	2b04      	cmp	r3, #4
 8003c86:	d00c      	beq.n	8003ca2 <HAL_RCC_OscConfig+0x46>
        || ((__HAL_RCC_GET_SYSCLK_SOURCE() == RCC_SYSCLKSOURCE_STATUS_PLLCLK) && (__HAL_RCC_GET_PLL_OSCSOURCE() == RCC_PLLSOURCE_HSE)))
 8003c88:	4b8f      	ldr	r3, [pc, #572]	; (8003ec8 <HAL_RCC_OscConfig+0x26c>)
 8003c8a:	685b      	ldr	r3, [r3, #4]
 8003c8c:	f003 030c 	and.w	r3, r3, #12
 8003c90:	2b08      	cmp	r3, #8
 8003c92:	d112      	bne.n	8003cba <HAL_RCC_OscConfig+0x5e>
 8003c94:	4b8c      	ldr	r3, [pc, #560]	; (8003ec8 <HAL_RCC_OscConfig+0x26c>)
 8003c96:	685b      	ldr	r3, [r3, #4]
 8003c98:	f403 3380 	and.w	r3, r3, #65536	; 0x10000
 8003c9c:	f5b3 3f80 	cmp.w	r3, #65536	; 0x10000
 8003ca0:	d10b      	bne.n	8003cba <HAL_RCC_OscConfig+0x5e>
    {
      if ((__HAL_RCC_GET_FLAG(RCC_FLAG_HSERDY) != RESET) && (RCC_OscInitStruct->HSEState == RCC_HSE_OFF))
 8003ca2:	4b89      	ldr	r3, [pc, #548]	; (8003ec8 <HAL_RCC_OscConfig+0x26c>)
 8003ca4:	681b      	ldr	r3, [r3, #0]
 8003ca6:	f403 3300 	and.w	r3, r3, #131072	; 0x20000
 8003caa:	2b00      	cmp	r3, #0
 8003cac:	d06c      	beq.n	8003d88 <HAL_RCC_OscConfig+0x12c>
 8003cae:	687b      	ldr	r3, [r7, #4]
 8003cb0:	685b      	ldr	r3, [r3, #4]
 8003cb2:	2b00      	cmp	r3, #0
 8003cb4:	d168      	bne.n	8003d88 <HAL_RCC_OscConfig+0x12c>
      {
        return HAL_ERROR;
 8003cb6:	2301      	movs	r3, #1
 8003cb8:	e246      	b.n	8004148 <HAL_RCC_OscConfig+0x4ec>
      }
    }
    else
    {
      /* Set the new HSE configuration ---------------------------------------*/
      __HAL_RCC_HSE_CONFIG(RCC_OscInitStruct->HSEState);
 8003cba:	687b      	ldr	r3, [r7, #4]
 8003cbc:	685b      	ldr	r3, [r3, #4]
 8003cbe:	f5b3 3f80 	cmp.w	r3, #65536	; 0x10000
 8003cc2:	d106      	bne.n	8003cd2 <HAL_RCC_OscConfig+0x76>
 8003cc4:	4b80      	ldr	r3, [pc, #512]	; (8003ec8 <HAL_RCC_OscConfig+0x26c>)
 8003cc6:	681b      	ldr	r3, [r3, #0]
 8003cc8:	4a7f      	ldr	r2, [pc, #508]	; (8003ec8 <HAL_RCC_OscConfig+0x26c>)
 8003cca:	f443 3380 	orr.w	r3, r3, #65536	; 0x10000
 8003cce:	6013      	str	r3, [r2, #0]
 8003cd0:	e02e      	b.n	8003d30 <HAL_RCC_OscConfig+0xd4>
 8003cd2:	687b      	ldr	r3, [r7, #4]
 8003cd4:	685b      	ldr	r3, [r3, #4]
 8003cd6:	2b00      	cmp	r3, #0
 8003cd8:	d10c      	bne.n	8003cf4 <HAL_RCC_OscConfig+0x98>
 8003cda:	4b7b      	ldr	r3, [pc, #492]	; (8003ec8 <HAL_RCC_OscConfig+0x26c>)
 8003cdc:	681b      	ldr	r3, [r3, #0]
 8003cde:	4a7a      	ldr	r2, [pc, #488]	; (8003ec8 <HAL_RCC_OscConfig+0x26c>)
 8003ce0:	f423 3380 	bic.w	r3, r3, #65536	; 0x10000
 8003ce4:	6013      	str	r3, [r2, #0]
 8003ce6:	4b78      	ldr	r3, [pc, #480]	; (8003ec8 <HAL_RCC_OscConfig+0x26c>)
 8003ce8:	681b      	ldr	r3, [r3, #0]
 8003cea:	4a77      	ldr	r2, [pc, #476]	; (8003ec8 <HAL_RCC_OscConfig+0x26c>)
 8003cec:	f423 2380 	bic.w	r3, r3, #262144	; 0x40000
 8003cf0:	6013      	str	r3, [r2, #0]
 8003cf2:	e01d      	b.n	8003d30 <HAL_RCC_OscConfig+0xd4>
 8003cf4:	687b      	ldr	r3, [r7, #4]
 8003cf6:	685b      	ldr	r3, [r3, #4]
 8003cf8:	f5b3 2fa0 	cmp.w	r3, #327680	; 0x50000
 8003cfc:	d10c      	bne.n	8003d18 <HAL_RCC_OscConfig+0xbc>
 8003cfe:	4b72      	ldr	r3, [pc, #456]	; (8003ec8 <HAL_RCC_OscConfig+0x26c>)
 8003d00:	681b      	ldr	r3, [r3, #0]
 8003d02:	4a71      	ldr	r2, [pc, #452]	; (8003ec8 <HAL_RCC_OscConfig+0x26c>)
 8003d04:	f443 2380 	orr.w	r3, r3, #262144	; 0x40000
 8003d08:	6013      	str	r3, [r2, #0]
 8003d0a:	4b6f      	ldr	r3, [pc, #444]	; (8003ec8 <HAL_RCC_OscConfig+0x26c>)
 8003d0c:	681b      	ldr	r3, [r3, #0]
 8003d0e:	4a6e      	ldr	r2, [pc, #440]	; (8003ec8 <HAL_RCC_OscConfig+0x26c>)
 8003d10:	f443 3380 	orr.w	r3, r3, #65536	; 0x10000
 8003d14:	6013      	str	r3, [r2, #0]
 8003d16:	e00b      	b.n	8003d30 <HAL_RCC_OscConfig+0xd4>
 8003d18:	4b6b      	ldr	r3, [pc, #428]	; (8003ec8 <HAL_RCC_OscConfig+0x26c>)
 8003d1a:	681b      	ldr	r3, [r3, #0]
 8003d1c:	4a6a      	ldr	r2, [pc, #424]	; (8003ec8 <HAL_RCC_OscConfig+0x26c>)
 8003d1e:	f423 3380 	bic.w	r3, r3, #65536	; 0x10000
 8003d22:	6013      	str	r3, [r2, #0]
 8003d24:	4b68      	ldr	r3, [pc, #416]	; (8003ec8 <HAL_RCC_OscConfig+0x26c>)
 8003d26:	681b      	ldr	r3, [r3, #0]
 8003d28:	4a67      	ldr	r2, [pc, #412]	; (8003ec8 <HAL_RCC_OscConfig+0x26c>)
 8003d2a:	f423 2380 	bic.w	r3, r3, #262144	; 0x40000
 8003d2e:	6013      	str	r3, [r2, #0]


      /* Check the HSE State */
      if (RCC_OscInitStruct->HSEState != RCC_HSE_OFF)
 8003d30:	687b      	ldr	r3, [r7, #4]
 8003d32:	685b      	ldr	r3, [r3, #4]
 8003d34:	2b00      	cmp	r3, #0
 8003d36:	d013      	beq.n	8003d60 <HAL_RCC_OscConfig+0x104>
      {
        /* Get Start Tick */
        tickstart = HAL_GetTick();
 8003d38:	f7fd faa6 	bl	8001288 <HAL_GetTick>
 8003d3c:	6138      	str	r0, [r7, #16]

        /* Wait till HSE is ready */
        while (__HAL_RCC_GET_FLAG(RCC_FLAG_HSERDY) == RESET)
 8003d3e:	e008      	b.n	8003d52 <HAL_RCC_OscConfig+0xf6>
        {
          if ((HAL_GetTick() - tickstart) > HSE_TIMEOUT_VALUE)
 8003d40:	f7fd faa2 	bl	8001288 <HAL_GetTick>
 8003d44:	4602      	mov	r2, r0
 8003d46:	693b      	ldr	r3, [r7, #16]
 8003d48:	1ad3      	subs	r3, r2, r3
 8003d4a:	2b64      	cmp	r3, #100	; 0x64
 8003d4c:	d901      	bls.n	8003d52 <HAL_RCC_OscConfig+0xf6>
          {
            return HAL_TIMEOUT;
 8003d4e:	2303      	movs	r3, #3
 8003d50:	e1fa      	b.n	8004148 <HAL_RCC_OscConfig+0x4ec>
        while (__HAL_RCC_GET_FLAG(RCC_FLAG_HSERDY) == RESET)
 8003d52:	4b5d      	ldr	r3, [pc, #372]	; (8003ec8 <HAL_RCC_OscConfig+0x26c>)
 8003d54:	681b      	ldr	r3, [r3, #0]
 8003d56:	f403 3300 	and.w	r3, r3, #131072	; 0x20000
 8003d5a:	2b00      	cmp	r3, #0
 8003d5c:	d0f0      	beq.n	8003d40 <HAL_RCC_OscConfig+0xe4>
 8003d5e:	e014      	b.n	8003d8a <HAL_RCC_OscConfig+0x12e>
        }
      }
      else
      {
        /* Get Start Tick */
        tickstart = HAL_GetTick();
 8003d60:	f7fd fa92 	bl	8001288 <HAL_GetTick>
 8003d64:	6138      	str	r0, [r7, #16]

        /* Wait till HSE is disabled */
        while (__HAL_RCC_GET_FLAG(RCC_FLAG_HSERDY) != RESET)
 8003d66:	e008      	b.n	8003d7a <HAL_RCC_OscConfig+0x11e>
        {
          if ((HAL_GetTick() - tickstart) > HSE_TIMEOUT_VALUE)
 8003d68:	f7fd fa8e 	bl	8001288 <HAL_GetTick>
 8003d6c:	4602      	mov	r2, r0
 8003d6e:	693b      	ldr	r3, [r7, #16]
 8003d70:	1ad3      	subs	r3, r2, r3
 8003d72:	2b64      	cmp	r3, #100	; 0x64
 8003d74:	d901      	bls.n	8003d7a <HAL_RCC_OscConfig+0x11e>
          {
            return HAL_TIMEOUT;
 8003d76:	2303      	movs	r3, #3
 8003d78:	e1e6      	b.n	8004148 <HAL_RCC_OscConfig+0x4ec>
        while (__HAL_RCC_GET_FLAG(RCC_FLAG_HSERDY) != RESET)
 8003d7a:	4b53      	ldr	r3, [pc, #332]	; (8003ec8 <HAL_RCC_OscConfig+0x26c>)
 8003d7c:	681b      	ldr	r3, [r3, #0]
 8003d7e:	f403 3300 	and.w	r3, r3, #131072	; 0x20000
 8003d82:	2b00      	cmp	r3, #0
 8003d84:	d1f0      	bne.n	8003d68 <HAL_RCC_OscConfig+0x10c>
 8003d86:	e000      	b.n	8003d8a <HAL_RCC_OscConfig+0x12e>
      if ((__HAL_RCC_GET_FLAG(RCC_FLAG_HSERDY) != RESET) && (RCC_OscInitStruct->HSEState == RCC_HSE_OFF))
 8003d88:	bf00      	nop
        }
      }
    }
  }
  /*----------------------------- HSI Configuration --------------------------*/
  if (((RCC_OscInitStruct->OscillatorType) & RCC_OSCILLATORTYPE_HSI) == RCC_OSCILLATORTYPE_HSI)
 8003d8a:	687b      	ldr	r3, [r7, #4]
 8003d8c:	681b      	ldr	r3, [r3, #0]
 8003d8e:	f003 0302 	and.w	r3, r3, #2
 8003d92:	2b00      	cmp	r3, #0
 8003d94:	d063      	beq.n	8003e5e <HAL_RCC_OscConfig+0x202>
    /* Check the parameters */
    assert_param(IS_RCC_HSI(RCC_OscInitStruct->HSIState));
    assert_param(IS_RCC_CALIBRATION_VALUE(RCC_OscInitStruct->HSICalibrationValue));

    /* Check if HSI is used as system clock or as PLL source when PLL is selected as system clock */
    if ((__HAL_RCC_GET_SYSCLK_SOURCE() == RCC_SYSCLKSOURCE_STATUS_HSI)
 8003d96:	4b4c      	ldr	r3, [pc, #304]	; (8003ec8 <HAL_RCC_OscConfig+0x26c>)
 8003d98:	685b      	ldr	r3, [r3, #4]
 8003d9a:	f003 030c 	and.w	r3, r3, #12
 8003d9e:	2b00      	cmp	r3, #0
 8003da0:	d00b      	beq.n	8003dba <HAL_RCC_OscConfig+0x15e>
        || ((__HAL_RCC_GET_SYSCLK_SOURCE() == RCC_SYSCLKSOURCE_STATUS_PLLCLK) && (__HAL_RCC_GET_PLL_OSCSOURCE() == RCC_PLLSOURCE_HSI_DIV2)))
 8003da2:	4b49      	ldr	r3, [pc, #292]	; (8003ec8 <HAL_RCC_OscConfig+0x26c>)
 8003da4:	685b      	ldr	r3, [r3, #4]
 8003da6:	f003 030c 	and.w	r3, r3, #12
 8003daa:	2b08      	cmp	r3, #8
 8003dac:	d11c      	bne.n	8003de8 <HAL_RCC_OscConfig+0x18c>
 8003dae:	4b46      	ldr	r3, [pc, #280]	; (8003ec8 <HAL_RCC_OscConfig+0x26c>)
 8003db0:	685b      	ldr	r3, [r3, #4]
 8003db2:	f403 3380 	and.w	r3, r3, #65536	; 0x10000
 8003db6:	2b00      	cmp	r3, #0
 8003db8:	d116      	bne.n	8003de8 <HAL_RCC_OscConfig+0x18c>
    {
      /* When HSI is used as system clock it will not disabled */
      if ((__HAL_RCC_GET_FLAG(RCC_FLAG_HSIRDY) != RESET) && (RCC_OscInitStruct->HSIState != RCC_HSI_ON))
 8003dba:	4b43      	ldr	r3, [pc, #268]	; (8003ec8 <HAL_RCC_OscConfig+0x26c>)
 8003dbc:	681b      	ldr	r3, [r3, #0]
 8003dbe:	f003 0302 	and.w	r3, r3, #2
 8003dc2:	2b00      	cmp	r3, #0
 8003dc4:	d005      	beq.n	8003dd2 <HAL_RCC_OscConfig+0x176>
 8003dc6:	687b      	ldr	r3, [r7, #4]
 8003dc8:	691b      	ldr	r3, [r3, #16]
 8003dca:	2b01      	cmp	r3, #1
 8003dcc:	d001      	beq.n	8003dd2 <HAL_RCC_OscConfig+0x176>
      {
        return HAL_ERROR;
 8003dce:	2301      	movs	r3, #1
 8003dd0:	e1ba      	b.n	8004148 <HAL_RCC_OscConfig+0x4ec>
      }
      /* Otherwise, just the calibration is allowed */
      else
      {
        /* Adjusts the Internal High Speed oscillator (HSI) calibration value.*/
        __HAL_RCC_HSI_CALIBRATIONVALUE_ADJUST(RCC_OscInitStruct->HSICalibrationValue);
 8003dd2:	4b3d      	ldr	r3, [pc, #244]	; (8003ec8 <HAL_RCC_OscConfig+0x26c>)
 8003dd4:	681b      	ldr	r3, [r3, #0]
 8003dd6:	f023 02f8 	bic.w	r2, r3, #248	; 0xf8
 8003dda:	687b      	ldr	r3, [r7, #4]
 8003ddc:	695b      	ldr	r3, [r3, #20]
 8003dde:	00db      	lsls	r3, r3, #3
 8003de0:	4939      	ldr	r1, [pc, #228]	; (8003ec8 <HAL_RCC_OscConfig+0x26c>)
 8003de2:	4313      	orrs	r3, r2
 8003de4:	600b      	str	r3, [r1, #0]
      if ((__HAL_RCC_GET_FLAG(RCC_FLAG_HSIRDY) != RESET) && (RCC_OscInitStruct->HSIState != RCC_HSI_ON))
 8003de6:	e03a      	b.n	8003e5e <HAL_RCC_OscConfig+0x202>
      }
    }
    else
    {
      /* Check the HSI State */
      if (RCC_OscInitStruct->HSIState != RCC_HSI_OFF)
 8003de8:	687b      	ldr	r3, [r7, #4]
 8003dea:	691b      	ldr	r3, [r3, #16]
 8003dec:	2b00      	cmp	r3, #0
 8003dee:	d020      	beq.n	8003e32 <HAL_RCC_OscConfig+0x1d6>
      {
        /* Enable the Internal High Speed oscillator (HSI). */
        __HAL_RCC_HSI_ENABLE();
 8003df0:	4b36      	ldr	r3, [pc, #216]	; (8003ecc <HAL_RCC_OscConfig+0x270>)
 8003df2:	2201      	movs	r2, #1
 8003df4:	601a      	str	r2, [r3, #0]

        /* Get Start Tick */
        tickstart = HAL_GetTick();
 8003df6:	f7fd fa47 	bl	8001288 <HAL_GetTick>
 8003dfa:	6138      	str	r0, [r7, #16]

        /* Wait till HSI is ready */
        while (__HAL_RCC_GET_FLAG(RCC_FLAG_HSIRDY) == RESET)
 8003dfc:	e008      	b.n	8003e10 <HAL_RCC_OscConfig+0x1b4>
        {
          if ((HAL_GetTick() - tickstart) > HSI_TIMEOUT_VALUE)
 8003dfe:	f7fd fa43 	bl	8001288 <HAL_GetTick>
 8003e02:	4602      	mov	r2, r0
 8003e04:	693b      	ldr	r3, [r7, #16]
 8003e06:	1ad3      	subs	r3, r2, r3
 8003e08:	2b02      	cmp	r3, #2
 8003e0a:	d901      	bls.n	8003e10 <HAL_RCC_OscConfig+0x1b4>
          {
            return HAL_TIMEOUT;
 8003e0c:	2303      	movs	r3, #3
 8003e0e:	e19b      	b.n	8004148 <HAL_RCC_OscConfig+0x4ec>
        while (__HAL_RCC_GET_FLAG(RCC_FLAG_HSIRDY) == RESET)
 8003e10:	4b2d      	ldr	r3, [pc, #180]	; (8003ec8 <HAL_RCC_OscConfig+0x26c>)
 8003e12:	681b      	ldr	r3, [r3, #0]
 8003e14:	f003 0302 	and.w	r3, r3, #2
 8003e18:	2b00      	cmp	r3, #0
 8003e1a:	d0f0      	beq.n	8003dfe <HAL_RCC_OscConfig+0x1a2>
          }
        }

        /* Adjusts the Internal High Speed oscillator (HSI) calibration value.*/
        __HAL_RCC_HSI_CALIBRATIONVALUE_ADJUST(RCC_OscInitStruct->HSICalibrationValue);
 8003e1c:	4b2a      	ldr	r3, [pc, #168]	; (8003ec8 <HAL_RCC_OscConfig+0x26c>)
 8003e1e:	681b      	ldr	r3, [r3, #0]
 8003e20:	f023 02f8 	bic.w	r2, r3, #248	; 0xf8
 8003e24:	687b      	ldr	r3, [r7, #4]
 8003e26:	695b      	ldr	r3, [r3, #20]
 8003e28:	00db      	lsls	r3, r3, #3
 8003e2a:	4927      	ldr	r1, [pc, #156]	; (8003ec8 <HAL_RCC_OscConfig+0x26c>)
 8003e2c:	4313      	orrs	r3, r2
 8003e2e:	600b      	str	r3, [r1, #0]
 8003e30:	e015      	b.n	8003e5e <HAL_RCC_OscConfig+0x202>
      }
      else
      {
        /* Disable the Internal High Speed oscillator (HSI). */
        __HAL_RCC_HSI_DISABLE();
 8003e32:	4b26      	ldr	r3, [pc, #152]	; (8003ecc <HAL_RCC_OscConfig+0x270>)
 8003e34:	2200      	movs	r2, #0
 8003e36:	601a      	str	r2, [r3, #0]

        /* Get Start Tick */
        tickstart = HAL_GetTick();
 8003e38:	f7fd fa26 	bl	8001288 <HAL_GetTick>
 8003e3c:	6138      	str	r0, [r7, #16]

        /* Wait till HSI is disabled */
        while (__HAL_RCC_GET_FLAG(RCC_FLAG_HSIRDY) != RESET)
 8003e3e:	e008      	b.n	8003e52 <HAL_RCC_OscConfig+0x1f6>
        {
          if ((HAL_GetTick() - tickstart) > HSI_TIMEOUT_VALUE)
 8003e40:	f7fd fa22 	bl	8001288 <HAL_GetTick>
 8003e44:	4602      	mov	r2, r0
 8003e46:	693b      	ldr	r3, [r7, #16]
 8003e48:	1ad3      	subs	r3, r2, r3
 8003e4a:	2b02      	cmp	r3, #2
 8003e4c:	d901      	bls.n	8003e52 <HAL_RCC_OscConfig+0x1f6>
          {
            return HAL_TIMEOUT;
 8003e4e:	2303      	movs	r3, #3
 8003e50:	e17a      	b.n	8004148 <HAL_RCC_OscConfig+0x4ec>
        while (__HAL_RCC_GET_FLAG(RCC_FLAG_HSIRDY) != RESET)
 8003e52:	4b1d      	ldr	r3, [pc, #116]	; (8003ec8 <HAL_RCC_OscConfig+0x26c>)
 8003e54:	681b      	ldr	r3, [r3, #0]
 8003e56:	f003 0302 	and.w	r3, r3, #2
 8003e5a:	2b00      	cmp	r3, #0
 8003e5c:	d1f0      	bne.n	8003e40 <HAL_RCC_OscConfig+0x1e4>
        }
      }
    }
  }
  /*------------------------------ LSI Configuration -------------------------*/
  if (((RCC_OscInitStruct->OscillatorType) & RCC_OSCILLATORTYPE_LSI) == RCC_OSCILLATORTYPE_LSI)
 8003e5e:	687b      	ldr	r3, [r7, #4]
 8003e60:	681b      	ldr	r3, [r3, #0]
 8003e62:	f003 0308 	and.w	r3, r3, #8
 8003e66:	2b00      	cmp	r3, #0
 8003e68:	d03a      	beq.n	8003ee0 <HAL_RCC_OscConfig+0x284>
  {
    /* Check the parameters */
    assert_param(IS_RCC_LSI(RCC_OscInitStruct->LSIState));

    /* Check the LSI State */
    if (RCC_OscInitStruct->LSIState != RCC_LSI_OFF)
 8003e6a:	687b      	ldr	r3, [r7, #4]
 8003e6c:	699b      	ldr	r3, [r3, #24]
 8003e6e:	2b00      	cmp	r3, #0
 8003e70:	d019      	beq.n	8003ea6 <HAL_RCC_OscConfig+0x24a>
    {
      /* Enable the Internal Low Speed oscillator (LSI). */
      __HAL_RCC_LSI_ENABLE();
 8003e72:	4b17      	ldr	r3, [pc, #92]	; (8003ed0 <HAL_RCC_OscConfig+0x274>)
 8003e74:	2201      	movs	r2, #1
 8003e76:	601a      	str	r2, [r3, #0]

      /* Get Start Tick */
      tickstart = HAL_GetTick();
 8003e78:	f7fd fa06 	bl	8001288 <HAL_GetTick>
 8003e7c:	6138      	str	r0, [r7, #16]

      /* Wait till LSI is ready */
      while (__HAL_RCC_GET_FLAG(RCC_FLAG_LSIRDY) == RESET)
 8003e7e:	e008      	b.n	8003e92 <HAL_RCC_OscConfig+0x236>
      {
        if ((HAL_GetTick() - tickstart) > LSI_TIMEOUT_VALUE)
 8003e80:	f7fd fa02 	bl	8001288 <HAL_GetTick>
 8003e84:	4602      	mov	r2, r0
 8003e86:	693b      	ldr	r3, [r7, #16]
 8003e88:	1ad3      	subs	r3, r2, r3
 8003e8a:	2b02      	cmp	r3, #2
 8003e8c:	d901      	bls.n	8003e92 <HAL_RCC_OscConfig+0x236>
        {
          return HAL_TIMEOUT;
 8003e8e:	2303      	movs	r3, #3
 8003e90:	e15a      	b.n	8004148 <HAL_RCC_OscConfig+0x4ec>
      while (__HAL_RCC_GET_FLAG(RCC_FLAG_LSIRDY) == RESET)
 8003e92:	4b0d      	ldr	r3, [pc, #52]	; (8003ec8 <HAL_RCC_OscConfig+0x26c>)
 8003e94:	6a5b      	ldr	r3, [r3, #36]	; 0x24
 8003e96:	f003 0302 	and.w	r3, r3, #2
 8003e9a:	2b00      	cmp	r3, #0
 8003e9c:	d0f0      	beq.n	8003e80 <HAL_RCC_OscConfig+0x224>
        }
      }
      /*  To have a fully stabilized clock in the specified range, a software delay of 1ms
          should be added.*/
      RCC_Delay(1);
 8003e9e:	2001      	movs	r0, #1
 8003ea0:	f000 fb0a 	bl	80044b8 <RCC_Delay>
 8003ea4:	e01c      	b.n	8003ee0 <HAL_RCC_OscConfig+0x284>
    }
    else
    {
      /* Disable the Internal Low Speed oscillator (LSI). */
      __HAL_RCC_LSI_DISABLE();
 8003ea6:	4b0a      	ldr	r3, [pc, #40]	; (8003ed0 <HAL_RCC_OscConfig+0x274>)
 8003ea8:	2200      	movs	r2, #0
 8003eaa:	601a      	str	r2, [r3, #0]

      /* Get Start Tick */
      tickstart = HAL_GetTick();
 8003eac:	f7fd f9ec 	bl	8001288 <HAL_GetTick>
 8003eb0:	6138      	str	r0, [r7, #16]

      /* Wait till LSI is disabled */
      while (__HAL_RCC_GET_FLAG(RCC_FLAG_LSIRDY) != RESET)
 8003eb2:	e00f      	b.n	8003ed4 <HAL_RCC_OscConfig+0x278>
      {
        if ((HAL_GetTick() - tickstart) > LSI_TIMEOUT_VALUE)
 8003eb4:	f7fd f9e8 	bl	8001288 <HAL_GetTick>
 8003eb8:	4602      	mov	r2, r0
 8003eba:	693b      	ldr	r3, [r7, #16]
 8003ebc:	1ad3      	subs	r3, r2, r3
 8003ebe:	2b02      	cmp	r3, #2
 8003ec0:	d908      	bls.n	8003ed4 <HAL_RCC_OscConfig+0x278>
        {
          return HAL_TIMEOUT;
 8003ec2:	2303      	movs	r3, #3
 8003ec4:	e140      	b.n	8004148 <HAL_RCC_OscConfig+0x4ec>
 8003ec6:	bf00      	nop
 8003ec8:	40021000 	.word	0x40021000
 8003ecc:	42420000 	.word	0x42420000
 8003ed0:	42420480 	.word	0x42420480
      while (__HAL_RCC_GET_FLAG(RCC_FLAG_LSIRDY) != RESET)
 8003ed4:	4b9e      	ldr	r3, [pc, #632]	; (8004150 <HAL_RCC_OscConfig+0x4f4>)
 8003ed6:	6a5b      	ldr	r3, [r3, #36]	; 0x24
 8003ed8:	f003 0302 	and.w	r3, r3, #2
 8003edc:	2b00      	cmp	r3, #0
 8003ede:	d1e9      	bne.n	8003eb4 <HAL_RCC_OscConfig+0x258>
        }
      }
    }
  }
  /*------------------------------ LSE Configuration -------------------------*/
  if (((RCC_OscInitStruct->OscillatorType) & RCC_OSCILLATORTYPE_LSE) == RCC_OSCILLATORTYPE_LSE)
 8003ee0:	687b      	ldr	r3, [r7, #4]
 8003ee2:	681b      	ldr	r3, [r3, #0]
 8003ee4:	f003 0304 	and.w	r3, r3, #4
 8003ee8:	2b00      	cmp	r3, #0
 8003eea:	f000 80a6 	beq.w	800403a <HAL_RCC_OscConfig+0x3de>
  {
    FlagStatus       pwrclkchanged = RESET;
 8003eee:	2300      	movs	r3, #0
 8003ef0:	75fb      	strb	r3, [r7, #23]
    /* Check the parameters */
    assert_param(IS_RCC_LSE(RCC_OscInitStruct->LSEState));

    /* Update LSE configuration in Backup Domain control register    */
    /* Requires to enable write access to Backup Domain of necessary */
    if (__HAL_RCC_PWR_IS_CLK_DISABLED())
 8003ef2:	4b97      	ldr	r3, [pc, #604]	; (8004150 <HAL_RCC_OscConfig+0x4f4>)
 8003ef4:	69db      	ldr	r3, [r3, #28]
 8003ef6:	f003 5380 	and.w	r3, r3, #268435456	; 0x10000000
 8003efa:	2b00      	cmp	r3, #0
 8003efc:	d10d      	bne.n	8003f1a <HAL_RCC_OscConfig+0x2be>
    {
      __HAL_RCC_PWR_CLK_ENABLE();
 8003efe:	4b94      	ldr	r3, [pc, #592]	; (8004150 <HAL_RCC_OscConfig+0x4f4>)
 8003f00:	69db      	ldr	r3, [r3, #28]
 8003f02:	4a93      	ldr	r2, [pc, #588]	; (8004150 <HAL_RCC_OscConfig+0x4f4>)
 8003f04:	f043 5380 	orr.w	r3, r3, #268435456	; 0x10000000
 8003f08:	61d3      	str	r3, [r2, #28]
 8003f0a:	4b91      	ldr	r3, [pc, #580]	; (8004150 <HAL_RCC_OscConfig+0x4f4>)
 8003f0c:	69db      	ldr	r3, [r3, #28]
 8003f0e:	f003 5380 	and.w	r3, r3, #268435456	; 0x10000000
 8003f12:	60bb      	str	r3, [r7, #8]
 8003f14:	68bb      	ldr	r3, [r7, #8]
      pwrclkchanged = SET;
 8003f16:	2301      	movs	r3, #1
 8003f18:	75fb      	strb	r3, [r7, #23]
    }

    if (HAL_IS_BIT_CLR(PWR->CR, PWR_CR_DBP))
 8003f1a:	4b8e      	ldr	r3, [pc, #568]	; (8004154 <HAL_RCC_OscConfig+0x4f8>)
 8003f1c:	681b      	ldr	r3, [r3, #0]
 8003f1e:	f403 7380 	and.w	r3, r3, #256	; 0x100
 8003f22:	2b00      	cmp	r3, #0
 8003f24:	d118      	bne.n	8003f58 <HAL_RCC_OscConfig+0x2fc>
    {
      /* Enable write access to Backup domain */
      SET_BIT(PWR->CR, PWR_CR_DBP);
 8003f26:	4b8b      	ldr	r3, [pc, #556]	; (8004154 <HAL_RCC_OscConfig+0x4f8>)
 8003f28:	681b      	ldr	r3, [r3, #0]
 8003f2a:	4a8a      	ldr	r2, [pc, #552]	; (8004154 <HAL_RCC_OscConfig+0x4f8>)
 8003f2c:	f443 7380 	orr.w	r3, r3, #256	; 0x100
 8003f30:	6013      	str	r3, [r2, #0]

      /* Wait for Backup domain Write protection disable */
      tickstart = HAL_GetTick();
 8003f32:	f7fd f9a9 	bl	8001288 <HAL_GetTick>
 8003f36:	6138      	str	r0, [r7, #16]

      while (HAL_IS_BIT_CLR(PWR->CR, PWR_CR_DBP))
 8003f38:	e008      	b.n	8003f4c <HAL_RCC_OscConfig+0x2f0>
      {
        if ((HAL_GetTick() - tickstart) > RCC_DBP_TIMEOUT_VALUE)
 8003f3a:	f7fd f9a5 	bl	8001288 <HAL_GetTick>
 8003f3e:	4602      	mov	r2, r0
 8003f40:	693b      	ldr	r3, [r7, #16]
 8003f42:	1ad3      	subs	r3, r2, r3
 8003f44:	2b64      	cmp	r3, #100	; 0x64
 8003f46:	d901      	bls.n	8003f4c <HAL_RCC_OscConfig+0x2f0>
        {
          return HAL_TIMEOUT;
 8003f48:	2303      	movs	r3, #3
 8003f4a:	e0fd      	b.n	8004148 <HAL_RCC_OscConfig+0x4ec>
      while (HAL_IS_BIT_CLR(PWR->CR, PWR_CR_DBP))
 8003f4c:	4b81      	ldr	r3, [pc, #516]	; (8004154 <HAL_RCC_OscConfig+0x4f8>)
 8003f4e:	681b      	ldr	r3, [r3, #0]
 8003f50:	f403 7380 	and.w	r3, r3, #256	; 0x100
 8003f54:	2b00      	cmp	r3, #0
 8003f56:	d0f0      	beq.n	8003f3a <HAL_RCC_OscConfig+0x2de>
        }
      }
    }

    /* Set the new LSE configuration -----------------------------------------*/
    __HAL_RCC_LSE_CONFIG(RCC_OscInitStruct->LSEState);
 8003f58:	687b      	ldr	r3, [r7, #4]
 8003f5a:	68db      	ldr	r3, [r3, #12]
 8003f5c:	2b01      	cmp	r3, #1
 8003f5e:	d106      	bne.n	8003f6e <HAL_RCC_OscConfig+0x312>
 8003f60:	4b7b      	ldr	r3, [pc, #492]	; (8004150 <HAL_RCC_OscConfig+0x4f4>)
 8003f62:	6a1b      	ldr	r3, [r3, #32]
 8003f64:	4a7a      	ldr	r2, [pc, #488]	; (8004150 <HAL_RCC_OscConfig+0x4f4>)
 8003f66:	f043 0301 	orr.w	r3, r3, #1
 8003f6a:	6213      	str	r3, [r2, #32]
 8003f6c:	e02d      	b.n	8003fca <HAL_RCC_OscConfig+0x36e>
 8003f6e:	687b      	ldr	r3, [r7, #4]
 8003f70:	68db      	ldr	r3, [r3, #12]
 8003f72:	2b00      	cmp	r3, #0
 8003f74:	d10c      	bne.n	8003f90 <HAL_RCC_OscConfig+0x334>
 8003f76:	4b76      	ldr	r3, [pc, #472]	; (8004150 <HAL_RCC_OscConfig+0x4f4>)
 8003f78:	6a1b      	ldr	r3, [r3, #32]
 8003f7a:	4a75      	ldr	r2, [pc, #468]	; (8004150 <HAL_RCC_OscConfig+0x4f4>)
 8003f7c:	f023 0301 	bic.w	r3, r3, #1
 8003f80:	6213      	str	r3, [r2, #32]
 8003f82:	4b73      	ldr	r3, [pc, #460]	; (8004150 <HAL_RCC_OscConfig+0x4f4>)
 8003f84:	6a1b      	ldr	r3, [r3, #32]
 8003f86:	4a72      	ldr	r2, [pc, #456]	; (8004150 <HAL_RCC_OscConfig+0x4f4>)
 8003f88:	f023 0304 	bic.w	r3, r3, #4
 8003f8c:	6213      	str	r3, [r2, #32]
 8003f8e:	e01c      	b.n	8003fca <HAL_RCC_OscConfig+0x36e>
 8003f90:	687b      	ldr	r3, [r7, #4]
 8003f92:	68db      	ldr	r3, [r3, #12]
 8003f94:	2b05      	cmp	r3, #5
 8003f96:	d10c      	bne.n	8003fb2 <HAL_RCC_OscConfig+0x356>
 8003f98:	4b6d      	ldr	r3, [pc, #436]	; (8004150 <HAL_RCC_OscConfig+0x4f4>)
 8003f9a:	6a1b      	ldr	r3, [r3, #32]
 8003f9c:	4a6c      	ldr	r2, [pc, #432]	; (8004150 <HAL_RCC_OscConfig+0x4f4>)
 8003f9e:	f043 0304 	orr.w	r3, r3, #4
 8003fa2:	6213      	str	r3, [r2, #32]
 8003fa4:	4b6a      	ldr	r3, [pc, #424]	; (8004150 <HAL_RCC_OscConfig+0x4f4>)
 8003fa6:	6a1b      	ldr	r3, [r3, #32]
 8003fa8:	4a69      	ldr	r2, [pc, #420]	; (8004150 <HAL_RCC_OscConfig+0x4f4>)
 8003faa:	f043 0301 	orr.w	r3, r3, #1
 8003fae:	6213      	str	r3, [r2, #32]
 8003fb0:	e00b      	b.n	8003fca <HAL_RCC_OscConfig+0x36e>
 8003fb2:	4b67      	ldr	r3, [pc, #412]	; (8004150 <HAL_RCC_OscConfig+0x4f4>)
 8003fb4:	6a1b      	ldr	r3, [r3, #32]
 8003fb6:	4a66      	ldr	r2, [pc, #408]	; (8004150 <HAL_RCC_OscConfig+0x4f4>)
 8003fb8:	f023 0301 	bic.w	r3, r3, #1
 8003fbc:	6213      	str	r3, [r2, #32]
 8003fbe:	4b64      	ldr	r3, [pc, #400]	; (8004150 <HAL_RCC_OscConfig+0x4f4>)
 8003fc0:	6a1b      	ldr	r3, [r3, #32]
 8003fc2:	4a63      	ldr	r2, [pc, #396]	; (8004150 <HAL_RCC_OscConfig+0x4f4>)
 8003fc4:	f023 0304 	bic.w	r3, r3, #4
 8003fc8:	6213      	str	r3, [r2, #32]
    /* Check the LSE State */
    if (RCC_OscInitStruct->LSEState != RCC_LSE_OFF)
 8003fca:	687b      	ldr	r3, [r7, #4]
 8003fcc:	68db      	ldr	r3, [r3, #12]
 8003fce:	2b00      	cmp	r3, #0
 8003fd0:	d015      	beq.n	8003ffe <HAL_RCC_OscConfig+0x3a2>
    {
      /* Get Start Tick */
      tickstart = HAL_GetTick();
 8003fd2:	f7fd f959 	bl	8001288 <HAL_GetTick>
 8003fd6:	6138      	str	r0, [r7, #16]

      /* Wait till LSE is ready */
      while (__HAL_RCC_GET_FLAG(RCC_FLAG_LSERDY) == RESET)
 8003fd8:	e00a      	b.n	8003ff0 <HAL_RCC_OscConfig+0x394>
      {
        if ((HAL_GetTick() - tickstart) > RCC_LSE_TIMEOUT_VALUE)
 8003fda:	f7fd f955 	bl	8001288 <HAL_GetTick>
 8003fde:	4602      	mov	r2, r0
 8003fe0:	693b      	ldr	r3, [r7, #16]
 8003fe2:	1ad3      	subs	r3, r2, r3
 8003fe4:	f241 3288 	movw	r2, #5000	; 0x1388
 8003fe8:	4293      	cmp	r3, r2
 8003fea:	d901      	bls.n	8003ff0 <HAL_RCC_OscConfig+0x394>
        {
          return HAL_TIMEOUT;
 8003fec:	2303      	movs	r3, #3
 8003fee:	e0ab      	b.n	8004148 <HAL_RCC_OscConfig+0x4ec>
      while (__HAL_RCC_GET_FLAG(RCC_FLAG_LSERDY) == RESET)
 8003ff0:	4b57      	ldr	r3, [pc, #348]	; (8004150 <HAL_RCC_OscConfig+0x4f4>)
 8003ff2:	6a1b      	ldr	r3, [r3, #32]
 8003ff4:	f003 0302 	and.w	r3, r3, #2
 8003ff8:	2b00      	cmp	r3, #0
 8003ffa:	d0ee      	beq.n	8003fda <HAL_RCC_OscConfig+0x37e>
 8003ffc:	e014      	b.n	8004028 <HAL_RCC_OscConfig+0x3cc>
      }
    }
    else
    {
      /* Get Start Tick */
      tickstart = HAL_GetTick();
 8003ffe:	f7fd f943 	bl	8001288 <HAL_GetTick>
 8004002:	6138      	str	r0, [r7, #16]

      /* Wait till LSE is disabled */
      while (__HAL_RCC_GET_FLAG(RCC_FLAG_LSERDY) != RESET)
 8004004:	e00a      	b.n	800401c <HAL_RCC_OscConfig+0x3c0>
      {
        if ((HAL_GetTick() - tickstart) > RCC_LSE_TIMEOUT_VALUE)
 8004006:	f7fd f93f 	bl	8001288 <HAL_GetTick>
 800400a:	4602      	mov	r2, r0
 800400c:	693b      	ldr	r3, [r7, #16]
 800400e:	1ad3      	subs	r3, r2, r3
 8004010:	f241 3288 	movw	r2, #5000	; 0x1388
 8004014:	4293      	cmp	r3, r2
 8004016:	d901      	bls.n	800401c <HAL_RCC_OscConfig+0x3c0>
        {
          return HAL_TIMEOUT;
 8004018:	2303      	movs	r3, #3
 800401a:	e095      	b.n	8004148 <HAL_RCC_OscConfig+0x4ec>
      while (__HAL_RCC_GET_FLAG(RCC_FLAG_LSERDY) != RESET)
 800401c:	4b4c      	ldr	r3, [pc, #304]	; (8004150 <HAL_RCC_OscConfig+0x4f4>)
 800401e:	6a1b      	ldr	r3, [r3, #32]
 8004020:	f003 0302 	and.w	r3, r3, #2
 8004024:	2b00      	cmp	r3, #0
 8004026:	d1ee      	bne.n	8004006 <HAL_RCC_OscConfig+0x3aa>
        }
      }
    }

    /* Require to disable power clock if necessary */
    if (pwrclkchanged == SET)
 8004028:	7dfb      	ldrb	r3, [r7, #23]
 800402a:	2b01      	cmp	r3, #1
 800402c:	d105      	bne.n	800403a <HAL_RCC_OscConfig+0x3de>
    {
      __HAL_RCC_PWR_CLK_DISABLE();
 800402e:	4b48      	ldr	r3, [pc, #288]	; (8004150 <HAL_RCC_OscConfig+0x4f4>)
 8004030:	69db      	ldr	r3, [r3, #28]
 8004032:	4a47      	ldr	r2, [pc, #284]	; (8004150 <HAL_RCC_OscConfig+0x4f4>)
 8004034:	f023 5380 	bic.w	r3, r3, #268435456	; 0x10000000
 8004038:	61d3      	str	r3, [r2, #28]

#endif /* RCC_CR_PLL2ON */
  /*-------------------------------- PLL Configuration -----------------------*/
  /* Check the parameters */
  assert_param(IS_RCC_PLL(RCC_OscInitStruct->PLL.PLLState));
  if ((RCC_OscInitStruct->PLL.PLLState) != RCC_PLL_NONE)
 800403a:	687b      	ldr	r3, [r7, #4]
 800403c:	69db      	ldr	r3, [r3, #28]
 800403e:	2b00      	cmp	r3, #0
 8004040:	f000 8081 	beq.w	8004146 <HAL_RCC_OscConfig+0x4ea>
  {
    /* Check if the PLL is used as system clock or not */
    if (__HAL_RCC_GET_SYSCLK_SOURCE() != RCC_SYSCLKSOURCE_STATUS_PLLCLK)
 8004044:	4b42      	ldr	r3, [pc, #264]	; (8004150 <HAL_RCC_OscConfig+0x4f4>)
 8004046:	685b      	ldr	r3, [r3, #4]
 8004048:	f003 030c 	and.w	r3, r3, #12
 800404c:	2b08      	cmp	r3, #8
 800404e:	d061      	beq.n	8004114 <HAL_RCC_OscConfig+0x4b8>
    {
      if ((RCC_OscInitStruct->PLL.PLLState) == RCC_PLL_ON)
 8004050:	687b      	ldr	r3, [r7, #4]
 8004052:	69db      	ldr	r3, [r3, #28]
 8004054:	2b02      	cmp	r3, #2
 8004056:	d146      	bne.n	80040e6 <HAL_RCC_OscConfig+0x48a>
        /* Check the parameters */
        assert_param(IS_RCC_PLLSOURCE(RCC_OscInitStruct->PLL.PLLSource));
        assert_param(IS_RCC_PLL_MUL(RCC_OscInitStruct->PLL.PLLMUL));

        /* Disable the main PLL. */
        __HAL_RCC_PLL_DISABLE();
 8004058:	4b3f      	ldr	r3, [pc, #252]	; (8004158 <HAL_RCC_OscConfig+0x4fc>)
 800405a:	2200      	movs	r2, #0
 800405c:	601a      	str	r2, [r3, #0]

        /* Get Start Tick */
        tickstart = HAL_GetTick();
 800405e:	f7fd f913 	bl	8001288 <HAL_GetTick>
 8004062:	6138      	str	r0, [r7, #16]

        /* Wait till PLL is disabled */
        while (__HAL_RCC_GET_FLAG(RCC_FLAG_PLLRDY)  != RESET)
 8004064:	e008      	b.n	8004078 <HAL_RCC_OscConfig+0x41c>
        {
          if ((HAL_GetTick() - tickstart) > PLL_TIMEOUT_VALUE)
 8004066:	f7fd f90f 	bl	8001288 <HAL_GetTick>
 800406a:	4602      	mov	r2, r0
 800406c:	693b      	ldr	r3, [r7, #16]
 800406e:	1ad3      	subs	r3, r2, r3
 8004070:	2b02      	cmp	r3, #2
 8004072:	d901      	bls.n	8004078 <HAL_RCC_OscConfig+0x41c>
          {
            return HAL_TIMEOUT;
 8004074:	2303      	movs	r3, #3
 8004076:	e067      	b.n	8004148 <HAL_RCC_OscConfig+0x4ec>
        while (__HAL_RCC_GET_FLAG(RCC_FLAG_PLLRDY)  != RESET)
 8004078:	4b35      	ldr	r3, [pc, #212]	; (8004150 <HAL_RCC_OscConfig+0x4f4>)
 800407a:	681b      	ldr	r3, [r3, #0]
 800407c:	f003 7300 	and.w	r3, r3, #33554432	; 0x2000000
 8004080:	2b00      	cmp	r3, #0
 8004082:	d1f0      	bne.n	8004066 <HAL_RCC_OscConfig+0x40a>
          }
        }

        /* Configure the HSE prediv factor --------------------------------*/
        /* It can be written only when the PLL is disabled. Not used in PLL source is different than HSE */
        if (RCC_OscInitStruct->PLL.PLLSource == RCC_PLLSOURCE_HSE)
 8004084:	687b      	ldr	r3, [r7, #4]
 8004086:	6a1b      	ldr	r3, [r3, #32]
 8004088:	f5b3 3f80 	cmp.w	r3, #65536	; 0x10000
 800408c:	d108      	bne.n	80040a0 <HAL_RCC_OscConfig+0x444>
          /* Set PREDIV1 source */
          SET_BIT(RCC->CFGR2, RCC_OscInitStruct->Prediv1Source);
#endif /* RCC_CFGR2_PREDIV1SRC */

          /* Set PREDIV1 Value */
          __HAL_RCC_HSE_PREDIV_CONFIG(RCC_OscInitStruct->HSEPredivValue);
 800408e:	4b30      	ldr	r3, [pc, #192]	; (8004150 <HAL_RCC_OscConfig+0x4f4>)
 8004090:	685b      	ldr	r3, [r3, #4]
 8004092:	f423 3200 	bic.w	r2, r3, #131072	; 0x20000
 8004096:	687b      	ldr	r3, [r7, #4]
 8004098:	689b      	ldr	r3, [r3, #8]
 800409a:	492d      	ldr	r1, [pc, #180]	; (8004150 <HAL_RCC_OscConfig+0x4f4>)
 800409c:	4313      	orrs	r3, r2
 800409e:	604b      	str	r3, [r1, #4]
        }

        /* Configure the main PLL clock source and multiplication factors. */
        __HAL_RCC_PLL_CONFIG(RCC_OscInitStruct->PLL.PLLSource,
 80040a0:	4b2b      	ldr	r3, [pc, #172]	; (8004150 <HAL_RCC_OscConfig+0x4f4>)
 80040a2:	685b      	ldr	r3, [r3, #4]
 80040a4:	f423 1274 	bic.w	r2, r3, #3997696	; 0x3d0000
 80040a8:	687b      	ldr	r3, [r7, #4]
 80040aa:	6a19      	ldr	r1, [r3, #32]
 80040ac:	687b      	ldr	r3, [r7, #4]
 80040ae:	6a5b      	ldr	r3, [r3, #36]	; 0x24
 80040b0:	430b      	orrs	r3, r1
 80040b2:	4927      	ldr	r1, [pc, #156]	; (8004150 <HAL_RCC_OscConfig+0x4f4>)
 80040b4:	4313      	orrs	r3, r2
 80040b6:	604b      	str	r3, [r1, #4]
                             RCC_OscInitStruct->PLL.PLLMUL);
        /* Enable the main PLL. */
        __HAL_RCC_PLL_ENABLE();
 80040b8:	4b27      	ldr	r3, [pc, #156]	; (8004158 <HAL_RCC_OscConfig+0x4fc>)
 80040ba:	2201      	movs	r2, #1
 80040bc:	601a      	str	r2, [r3, #0]

        /* Get Start Tick */
        tickstart = HAL_GetTick();
 80040be:	f7fd f8e3 	bl	8001288 <HAL_GetTick>
 80040c2:	6138      	str	r0, [r7, #16]

        /* Wait till PLL is ready */
        while (__HAL_RCC_GET_FLAG(RCC_FLAG_PLLRDY)  == RESET)
 80040c4:	e008      	b.n	80040d8 <HAL_RCC_OscConfig+0x47c>
        {
          if ((HAL_GetTick() - tickstart) > PLL_TIMEOUT_VALUE)
 80040c6:	f7fd f8df 	bl	8001288 <HAL_GetTick>
 80040ca:	4602      	mov	r2, r0
 80040cc:	693b      	ldr	r3, [r7, #16]
 80040ce:	1ad3      	subs	r3, r2, r3
 80040d0:	2b02      	cmp	r3, #2
 80040d2:	d901      	bls.n	80040d8 <HAL_RCC_OscConfig+0x47c>
          {
            return HAL_TIMEOUT;
 80040d4:	2303      	movs	r3, #3
 80040d6:	e037      	b.n	8004148 <HAL_RCC_OscConfig+0x4ec>
        while (__HAL_RCC_GET_FLAG(RCC_FLAG_PLLRDY)  == RESET)
 80040d8:	4b1d      	ldr	r3, [pc, #116]	; (8004150 <HAL_RCC_OscConfig+0x4f4>)
 80040da:	681b      	ldr	r3, [r3, #0]
 80040dc:	f003 7300 	and.w	r3, r3, #33554432	; 0x2000000
 80040e0:	2b00      	cmp	r3, #0
 80040e2:	d0f0      	beq.n	80040c6 <HAL_RCC_OscConfig+0x46a>
 80040e4:	e02f      	b.n	8004146 <HAL_RCC_OscConfig+0x4ea>
        }
      }
      else
      {
        /* Disable the main PLL. */
        __HAL_RCC_PLL_DISABLE();
 80040e6:	4b1c      	ldr	r3, [pc, #112]	; (8004158 <HAL_RCC_OscConfig+0x4fc>)
 80040e8:	2200      	movs	r2, #0
 80040ea:	601a      	str	r2, [r3, #0]

        /* Get Start Tick */
        tickstart = HAL_GetTick();
 80040ec:	f7fd f8cc 	bl	8001288 <HAL_GetTick>
 80040f0:	6138      	str	r0, [r7, #16]

        /* Wait till PLL is disabled */
        while (__HAL_RCC_GET_FLAG(RCC_FLAG_PLLRDY)  != RESET)
 80040f2:	e008      	b.n	8004106 <HAL_RCC_OscConfig+0x4aa>
        {
          if ((HAL_GetTick() - tickstart) > PLL_TIMEOUT_VALUE)
 80040f4:	f7fd f8c8 	bl	8001288 <HAL_GetTick>
 80040f8:	4602      	mov	r2, r0
 80040fa:	693b      	ldr	r3, [r7, #16]
 80040fc:	1ad3      	subs	r3, r2, r3
 80040fe:	2b02      	cmp	r3, #2
 8004100:	d901      	bls.n	8004106 <HAL_RCC_OscConfig+0x4aa>
          {
            return HAL_TIMEOUT;
 8004102:	2303      	movs	r3, #3
 8004104:	e020      	b.n	8004148 <HAL_RCC_OscConfig+0x4ec>
        while (__HAL_RCC_GET_FLAG(RCC_FLAG_PLLRDY)  != RESET)
 8004106:	4b12      	ldr	r3, [pc, #72]	; (8004150 <HAL_RCC_OscConfig+0x4f4>)
 8004108:	681b      	ldr	r3, [r3, #0]
 800410a:	f003 7300 	and.w	r3, r3, #33554432	; 0x2000000
 800410e:	2b00      	cmp	r3, #0
 8004110:	d1f0      	bne.n	80040f4 <HAL_RCC_OscConfig+0x498>
 8004112:	e018      	b.n	8004146 <HAL_RCC_OscConfig+0x4ea>
      }
    }
    else
    {
      /* Check if there is a request to disable the PLL used as System clock source */
      if ((RCC_OscInitStruct->PLL.PLLState) == RCC_PLL_OFF)
 8004114:	687b      	ldr	r3, [r7, #4]
 8004116:	69db      	ldr	r3, [r3, #28]
 8004118:	2b01      	cmp	r3, #1
 800411a:	d101      	bne.n	8004120 <HAL_RCC_OscConfig+0x4c4>
      {
        return HAL_ERROR;
 800411c:	2301      	movs	r3, #1
 800411e:	e013      	b.n	8004148 <HAL_RCC_OscConfig+0x4ec>
      }
      else
      {
        /* Do not return HAL_ERROR if request repeats the current configuration */
        pll_config = RCC->CFGR;
 8004120:	4b0b      	ldr	r3, [pc, #44]	; (8004150 <HAL_RCC_OscConfig+0x4f4>)
 8004122:	685b      	ldr	r3, [r3, #4]
 8004124:	60fb      	str	r3, [r7, #12]
        if ((READ_BIT(pll_config, RCC_CFGR_PLLSRC) != RCC_OscInitStruct->PLL.PLLSource) ||
 8004126:	68fb      	ldr	r3, [r7, #12]
 8004128:	f403 3280 	and.w	r2, r3, #65536	; 0x10000
 800412c:	687b      	ldr	r3, [r7, #4]
 800412e:	6a1b      	ldr	r3, [r3, #32]
 8004130:	429a      	cmp	r2, r3
 8004132:	d106      	bne.n	8004142 <HAL_RCC_OscConfig+0x4e6>
            (READ_BIT(pll_config, RCC_CFGR_PLLMULL) != RCC_OscInitStruct->PLL.PLLMUL))
 8004134:	68fb      	ldr	r3, [r7, #12]
 8004136:	f403 1270 	and.w	r2, r3, #3932160	; 0x3c0000
 800413a:	687b      	ldr	r3, [r7, #4]
 800413c:	6a5b      	ldr	r3, [r3, #36]	; 0x24
        if ((READ_BIT(pll_config, RCC_CFGR_PLLSRC) != RCC_OscInitStruct->PLL.PLLSource) ||
 800413e:	429a      	cmp	r2, r3
 8004140:	d001      	beq.n	8004146 <HAL_RCC_OscConfig+0x4ea>
        {
          return HAL_ERROR;
 8004142:	2301      	movs	r3, #1
 8004144:	e000      	b.n	8004148 <HAL_RCC_OscConfig+0x4ec>
        }
      }
    }
  }

  return HAL_OK;
 8004146:	2300      	movs	r3, #0
}
 8004148:	4618      	mov	r0, r3
 800414a:	3718      	adds	r7, #24
 800414c:	46bd      	mov	sp, r7
 800414e:	bd80      	pop	{r7, pc}
 8004150:	40021000 	.word	0x40021000
 8004154:	40007000 	.word	0x40007000
 8004158:	42420060 	.word	0x42420060

0800415c <HAL_RCC_ClockConfig>:
  *         You can use @ref HAL_RCC_GetClockConfig() function to know which clock is
  *         currently used as system clock source.
  * @retval HAL status
  */
HAL_StatusTypeDef HAL_RCC_ClockConfig(RCC_ClkInitTypeDef  *RCC_ClkInitStruct, uint32_t FLatency)
{
 800415c:	b580      	push	{r7, lr}
 800415e:	b084      	sub	sp, #16
 8004160:	af00      	add	r7, sp, #0
 8004162:	6078      	str	r0, [r7, #4]
 8004164:	6039      	str	r1, [r7, #0]
  uint32_t tickstart;

  /* Check Null pointer */
  if (RCC_ClkInitStruct == NULL)
 8004166:	687b      	ldr	r3, [r7, #4]
 8004168:	2b00      	cmp	r3, #0
 800416a:	d101      	bne.n	8004170 <HAL_RCC_ClockConfig+0x14>
  {
    return HAL_ERROR;
 800416c:	2301      	movs	r3, #1
 800416e:	e0d0      	b.n	8004312 <HAL_RCC_ClockConfig+0x1b6>
  must be correctly programmed according to the frequency of the CPU clock
    (HCLK) of the device. */

#if defined(FLASH_ACR_LATENCY)
  /* Increasing the number of wait states because of higher CPU frequency */
  if (FLatency > __HAL_FLASH_GET_LATENCY())
 8004170:	4b6a      	ldr	r3, [pc, #424]	; (800431c <HAL_RCC_ClockConfig+0x1c0>)
 8004172:	681b      	ldr	r3, [r3, #0]
 8004174:	f003 0307 	and.w	r3, r3, #7
 8004178:	683a      	ldr	r2, [r7, #0]
 800417a:	429a      	cmp	r2, r3
 800417c:	d910      	bls.n	80041a0 <HAL_RCC_ClockConfig+0x44>
  {
    /* Program the new number of wait states to the LATENCY bits in the FLASH_ACR register */
    __HAL_FLASH_SET_LATENCY(FLatency);
 800417e:	4b67      	ldr	r3, [pc, #412]	; (800431c <HAL_RCC_ClockConfig+0x1c0>)
 8004180:	681b      	ldr	r3, [r3, #0]
 8004182:	f023 0207 	bic.w	r2, r3, #7
 8004186:	4965      	ldr	r1, [pc, #404]	; (800431c <HAL_RCC_ClockConfig+0x1c0>)
 8004188:	683b      	ldr	r3, [r7, #0]
 800418a:	4313      	orrs	r3, r2
 800418c:	600b      	str	r3, [r1, #0]

    /* Check that the new number of wait states is taken into account to access the Flash
    memory by reading the FLASH_ACR register */
    if (__HAL_FLASH_GET_LATENCY() != FLatency)
 800418e:	4b63      	ldr	r3, [pc, #396]	; (800431c <HAL_RCC_ClockConfig+0x1c0>)
 8004190:	681b      	ldr	r3, [r3, #0]
 8004192:	f003 0307 	and.w	r3, r3, #7
 8004196:	683a      	ldr	r2, [r7, #0]
 8004198:	429a      	cmp	r2, r3
 800419a:	d001      	beq.n	80041a0 <HAL_RCC_ClockConfig+0x44>
  {
    return HAL_ERROR;
 800419c:	2301      	movs	r3, #1
 800419e:	e0b8      	b.n	8004312 <HAL_RCC_ClockConfig+0x1b6>
  }
}

#endif /* FLASH_ACR_LATENCY */
/*-------------------------- HCLK Configuration --------------------------*/
if (((RCC_ClkInitStruct->ClockType) & RCC_CLOCKTYPE_HCLK) == RCC_CLOCKTYPE_HCLK)
 80041a0:	687b      	ldr	r3, [r7, #4]
 80041a2:	681b      	ldr	r3, [r3, #0]
 80041a4:	f003 0302 	and.w	r3, r3, #2
 80041a8:	2b00      	cmp	r3, #0
 80041aa:	d020      	beq.n	80041ee <HAL_RCC_ClockConfig+0x92>
  {
    /* Set the highest APBx dividers in order to ensure that we do not go through
    a non-spec phase whatever we decrease or increase HCLK. */
    if (((RCC_ClkInitStruct->ClockType) & RCC_CLOCKTYPE_PCLK1) == RCC_CLOCKTYPE_PCLK1)
 80041ac:	687b      	ldr	r3, [r7, #4]
 80041ae:	681b      	ldr	r3, [r3, #0]
 80041b0:	f003 0304 	and.w	r3, r3, #4
 80041b4:	2b00      	cmp	r3, #0
 80041b6:	d005      	beq.n	80041c4 <HAL_RCC_ClockConfig+0x68>
    {
      MODIFY_REG(RCC->CFGR, RCC_CFGR_PPRE1, RCC_HCLK_DIV16);
 80041b8:	4b59      	ldr	r3, [pc, #356]	; (8004320 <HAL_RCC_ClockConfig+0x1c4>)
 80041ba:	685b      	ldr	r3, [r3, #4]
 80041bc:	4a58      	ldr	r2, [pc, #352]	; (8004320 <HAL_RCC_ClockConfig+0x1c4>)
 80041be:	f443 63e0 	orr.w	r3, r3, #1792	; 0x700
 80041c2:	6053      	str	r3, [r2, #4]
    }

    if (((RCC_ClkInitStruct->ClockType) & RCC_CLOCKTYPE_PCLK2) == RCC_CLOCKTYPE_PCLK2)
 80041c4:	687b      	ldr	r3, [r7, #4]
 80041c6:	681b      	ldr	r3, [r3, #0]
 80041c8:	f003 0308 	and.w	r3, r3, #8
 80041cc:	2b00      	cmp	r3, #0
 80041ce:	d005      	beq.n	80041dc <HAL_RCC_ClockConfig+0x80>
    {
      MODIFY_REG(RCC->CFGR, RCC_CFGR_PPRE2, (RCC_HCLK_DIV16 << 3));
 80041d0:	4b53      	ldr	r3, [pc, #332]	; (8004320 <HAL_RCC_ClockConfig+0x1c4>)
 80041d2:	685b      	ldr	r3, [r3, #4]
 80041d4:	4a52      	ldr	r2, [pc, #328]	; (8004320 <HAL_RCC_ClockConfig+0x1c4>)
 80041d6:	f443 5360 	orr.w	r3, r3, #14336	; 0x3800
 80041da:	6053      	str	r3, [r2, #4]
    }

    /* Set the new HCLK clock divider */
    assert_param(IS_RCC_HCLK(RCC_ClkInitStruct->AHBCLKDivider));
    MODIFY_REG(RCC->CFGR, RCC_CFGR_HPRE, RCC_ClkInitStruct->AHBCLKDivider);
 80041dc:	4b50      	ldr	r3, [pc, #320]	; (8004320 <HAL_RCC_ClockConfig+0x1c4>)
 80041de:	685b      	ldr	r3, [r3, #4]
 80041e0:	f023 02f0 	bic.w	r2, r3, #240	; 0xf0
 80041e4:	687b      	ldr	r3, [r7, #4]
 80041e6:	689b      	ldr	r3, [r3, #8]
 80041e8:	494d      	ldr	r1, [pc, #308]	; (8004320 <HAL_RCC_ClockConfig+0x1c4>)
 80041ea:	4313      	orrs	r3, r2
 80041ec:	604b      	str	r3, [r1, #4]
  }

  /*------------------------- SYSCLK Configuration ---------------------------*/
  if (((RCC_ClkInitStruct->ClockType) & RCC_CLOCKTYPE_SYSCLK) == RCC_CLOCKTYPE_SYSCLK)
 80041ee:	687b      	ldr	r3, [r7, #4]
 80041f0:	681b      	ldr	r3, [r3, #0]
 80041f2:	f003 0301 	and.w	r3, r3, #1
 80041f6:	2b00      	cmp	r3, #0
 80041f8:	d040      	beq.n	800427c <HAL_RCC_ClockConfig+0x120>
  {
    assert_param(IS_RCC_SYSCLKSOURCE(RCC_ClkInitStruct->SYSCLKSource));

    /* HSE is selected as System Clock Source */
    if (RCC_ClkInitStruct->SYSCLKSource == RCC_SYSCLKSOURCE_HSE)
 80041fa:	687b      	ldr	r3, [r7, #4]
 80041fc:	685b      	ldr	r3, [r3, #4]
 80041fe:	2b01      	cmp	r3, #1
 8004200:	d107      	bne.n	8004212 <HAL_RCC_ClockConfig+0xb6>
    {
      /* Check the HSE ready flag */
      if (__HAL_RCC_GET_FLAG(RCC_FLAG_HSERDY) == RESET)
 8004202:	4b47      	ldr	r3, [pc, #284]	; (8004320 <HAL_RCC_ClockConfig+0x1c4>)
 8004204:	681b      	ldr	r3, [r3, #0]
 8004206:	f403 3300 	and.w	r3, r3, #131072	; 0x20000
 800420a:	2b00      	cmp	r3, #0
 800420c:	d115      	bne.n	800423a <HAL_RCC_ClockConfig+0xde>
      {
        return HAL_ERROR;
 800420e:	2301      	movs	r3, #1
 8004210:	e07f      	b.n	8004312 <HAL_RCC_ClockConfig+0x1b6>
      }
    }
    /* PLL is selected as System Clock Source */
    else if (RCC_ClkInitStruct->SYSCLKSource == RCC_SYSCLKSOURCE_PLLCLK)
 8004212:	687b      	ldr	r3, [r7, #4]
 8004214:	685b      	ldr	r3, [r3, #4]
 8004216:	2b02      	cmp	r3, #2
 8004218:	d107      	bne.n	800422a <HAL_RCC_ClockConfig+0xce>
    {
      /* Check the PLL ready flag */
      if (__HAL_RCC_GET_FLAG(RCC_FLAG_PLLRDY) == RESET)
 800421a:	4b41      	ldr	r3, [pc, #260]	; (8004320 <HAL_RCC_ClockConfig+0x1c4>)
 800421c:	681b      	ldr	r3, [r3, #0]
 800421e:	f003 7300 	and.w	r3, r3, #33554432	; 0x2000000
 8004222:	2b00      	cmp	r3, #0
 8004224:	d109      	bne.n	800423a <HAL_RCC_ClockConfig+0xde>
      {
        return HAL_ERROR;
 8004226:	2301      	movs	r3, #1
 8004228:	e073      	b.n	8004312 <HAL_RCC_ClockConfig+0x1b6>
    }
    /* HSI is selected as System Clock Source */
    else
    {
      /* Check the HSI ready flag */
      if (__HAL_RCC_GET_FLAG(RCC_FLAG_HSIRDY) == RESET)
 800422a:	4b3d      	ldr	r3, [pc, #244]	; (8004320 <HAL_RCC_ClockConfig+0x1c4>)
 800422c:	681b      	ldr	r3, [r3, #0]
 800422e:	f003 0302 	and.w	r3, r3, #2
 8004232:	2b00      	cmp	r3, #0
 8004234:	d101      	bne.n	800423a <HAL_RCC_ClockConfig+0xde>
      {
        return HAL_ERROR;
 8004236:	2301      	movs	r3, #1
 8004238:	e06b      	b.n	8004312 <HAL_RCC_ClockConfig+0x1b6>
      }
    }
    __HAL_RCC_SYSCLK_CONFIG(RCC_ClkInitStruct->SYSCLKSource);
 800423a:	4b39      	ldr	r3, [pc, #228]	; (8004320 <HAL_RCC_ClockConfig+0x1c4>)
 800423c:	685b      	ldr	r3, [r3, #4]
 800423e:	f023 0203 	bic.w	r2, r3, #3
 8004242:	687b      	ldr	r3, [r7, #4]
 8004244:	685b      	ldr	r3, [r3, #4]
 8004246:	4936      	ldr	r1, [pc, #216]	; (8004320 <HAL_RCC_ClockConfig+0x1c4>)
 8004248:	4313      	orrs	r3, r2
 800424a:	604b      	str	r3, [r1, #4]

    /* Get Start Tick */
    tickstart = HAL_GetTick();
 800424c:	f7fd f81c 	bl	8001288 <HAL_GetTick>
 8004250:	60f8      	str	r0, [r7, #12]

    while (__HAL_RCC_GET_SYSCLK_SOURCE() != (RCC_ClkInitStruct->SYSCLKSource << RCC_CFGR_SWS_Pos))
 8004252:	e00a      	b.n	800426a <HAL_RCC_ClockConfig+0x10e>
    {
      if ((HAL_GetTick() - tickstart) > CLOCKSWITCH_TIMEOUT_VALUE)
 8004254:	f7fd f818 	bl	8001288 <HAL_GetTick>
 8004258:	4602      	mov	r2, r0
 800425a:	68fb      	ldr	r3, [r7, #12]
 800425c:	1ad3      	subs	r3, r2, r3
 800425e:	f241 3288 	movw	r2, #5000	; 0x1388
 8004262:	4293      	cmp	r3, r2
 8004264:	d901      	bls.n	800426a <HAL_RCC_ClockConfig+0x10e>
      {
        return HAL_TIMEOUT;
 8004266:	2303      	movs	r3, #3
 8004268:	e053      	b.n	8004312 <HAL_RCC_ClockConfig+0x1b6>
    while (__HAL_RCC_GET_SYSCLK_SOURCE() != (RCC_ClkInitStruct->SYSCLKSource << RCC_CFGR_SWS_Pos))
 800426a:	4b2d      	ldr	r3, [pc, #180]	; (8004320 <HAL_RCC_ClockConfig+0x1c4>)
 800426c:	685b      	ldr	r3, [r3, #4]
 800426e:	f003 020c 	and.w	r2, r3, #12
 8004272:	687b      	ldr	r3, [r7, #4]
 8004274:	685b      	ldr	r3, [r3, #4]
 8004276:	009b      	lsls	r3, r3, #2
 8004278:	429a      	cmp	r2, r3
 800427a:	d1eb      	bne.n	8004254 <HAL_RCC_ClockConfig+0xf8>
    }
  }

#if defined(FLASH_ACR_LATENCY)
  /* Decreasing the number of wait states because of lower CPU frequency */
  if (FLatency < __HAL_FLASH_GET_LATENCY())
 800427c:	4b27      	ldr	r3, [pc, #156]	; (800431c <HAL_RCC_ClockConfig+0x1c0>)
 800427e:	681b      	ldr	r3, [r3, #0]
 8004280:	f003 0307 	and.w	r3, r3, #7
 8004284:	683a      	ldr	r2, [r7, #0]
 8004286:	429a      	cmp	r2, r3
 8004288:	d210      	bcs.n	80042ac <HAL_RCC_ClockConfig+0x150>
  {
    /* Program the new number of wait states to the LATENCY bits in the FLASH_ACR register */
    __HAL_FLASH_SET_LATENCY(FLatency);
 800428a:	4b24      	ldr	r3, [pc, #144]	; (800431c <HAL_RCC_ClockConfig+0x1c0>)
 800428c:	681b      	ldr	r3, [r3, #0]
 800428e:	f023 0207 	bic.w	r2, r3, #7
 8004292:	4922      	ldr	r1, [pc, #136]	; (800431c <HAL_RCC_ClockConfig+0x1c0>)
 8004294:	683b      	ldr	r3, [r7, #0]
 8004296:	4313      	orrs	r3, r2
 8004298:	600b      	str	r3, [r1, #0]

    /* Check that the new number of wait states is taken into account to access the Flash
    memory by reading the FLASH_ACR register */
    if (__HAL_FLASH_GET_LATENCY() != FLatency)
 800429a:	4b20      	ldr	r3, [pc, #128]	; (800431c <HAL_RCC_ClockConfig+0x1c0>)
 800429c:	681b      	ldr	r3, [r3, #0]
 800429e:	f003 0307 	and.w	r3, r3, #7
 80042a2:	683a      	ldr	r2, [r7, #0]
 80042a4:	429a      	cmp	r2, r3
 80042a6:	d001      	beq.n	80042ac <HAL_RCC_ClockConfig+0x150>
  {
    return HAL_ERROR;
 80042a8:	2301      	movs	r3, #1
 80042aa:	e032      	b.n	8004312 <HAL_RCC_ClockConfig+0x1b6>
  }
}
#endif /* FLASH_ACR_LATENCY */

/*-------------------------- PCLK1 Configuration ---------------------------*/
if (((RCC_ClkInitStruct->ClockType) & RCC_CLOCKTYPE_PCLK1) == RCC_CLOCKTYPE_PCLK1)
 80042ac:	687b      	ldr	r3, [r7, #4]
 80042ae:	681b      	ldr	r3, [r3, #0]
 80042b0:	f003 0304 	and.w	r3, r3, #4
 80042b4:	2b00      	cmp	r3, #0
 80042b6:	d008      	beq.n	80042ca <HAL_RCC_ClockConfig+0x16e>
  {
    assert_param(IS_RCC_PCLK(RCC_ClkInitStruct->APB1CLKDivider));
    MODIFY_REG(RCC->CFGR, RCC_CFGR_PPRE1, RCC_ClkInitStruct->APB1CLKDivider);
 80042b8:	4b19      	ldr	r3, [pc, #100]	; (8004320 <HAL_RCC_ClockConfig+0x1c4>)
 80042ba:	685b      	ldr	r3, [r3, #4]
 80042bc:	f423 62e0 	bic.w	r2, r3, #1792	; 0x700
 80042c0:	687b      	ldr	r3, [r7, #4]
 80042c2:	68db      	ldr	r3, [r3, #12]
 80042c4:	4916      	ldr	r1, [pc, #88]	; (8004320 <HAL_RCC_ClockConfig+0x1c4>)
 80042c6:	4313      	orrs	r3, r2
 80042c8:	604b      	str	r3, [r1, #4]
  }

  /*-------------------------- PCLK2 Configuration ---------------------------*/
  if (((RCC_ClkInitStruct->ClockType) & RCC_CLOCKTYPE_PCLK2) == RCC_CLOCKTYPE_PCLK2)
 80042ca:	687b      	ldr	r3, [r7, #4]
 80042cc:	681b      	ldr	r3, [r3, #0]
 80042ce:	f003 0308 	and.w	r3, r3, #8
 80042d2:	2b00      	cmp	r3, #0
 80042d4:	d009      	beq.n	80042ea <HAL_RCC_ClockConfig+0x18e>
  {
    assert_param(IS_RCC_PCLK(RCC_ClkInitStruct->APB2CLKDivider));
    MODIFY_REG(RCC->CFGR, RCC_CFGR_PPRE2, ((RCC_ClkInitStruct->APB2CLKDivider) << 3));
 80042d6:	4b12      	ldr	r3, [pc, #72]	; (8004320 <HAL_RCC_ClockConfig+0x1c4>)
 80042d8:	685b      	ldr	r3, [r3, #4]
 80042da:	f423 5260 	bic.w	r2, r3, #14336	; 0x3800
 80042de:	687b      	ldr	r3, [r7, #4]
 80042e0:	691b      	ldr	r3, [r3, #16]
 80042e2:	00db      	lsls	r3, r3, #3
 80042e4:	490e      	ldr	r1, [pc, #56]	; (8004320 <HAL_RCC_ClockConfig+0x1c4>)
 80042e6:	4313      	orrs	r3, r2
 80042e8:	604b      	str	r3, [r1, #4]
  }

  /* Update the SystemCoreClock global variable */
  SystemCoreClock = HAL_RCC_GetSysClockFreq() >> AHBPrescTable[(RCC->CFGR & RCC_CFGR_HPRE) >> RCC_CFGR_HPRE_Pos];
 80042ea:	f000 f821 	bl	8004330 <HAL_RCC_GetSysClockFreq>
 80042ee:	4601      	mov	r1, r0
 80042f0:	4b0b      	ldr	r3, [pc, #44]	; (8004320 <HAL_RCC_ClockConfig+0x1c4>)
 80042f2:	685b      	ldr	r3, [r3, #4]
 80042f4:	091b      	lsrs	r3, r3, #4
 80042f6:	f003 030f 	and.w	r3, r3, #15
 80042fa:	4a0a      	ldr	r2, [pc, #40]	; (8004324 <HAL_RCC_ClockConfig+0x1c8>)
 80042fc:	5cd3      	ldrb	r3, [r2, r3]
 80042fe:	fa21 f303 	lsr.w	r3, r1, r3
 8004302:	4a09      	ldr	r2, [pc, #36]	; (8004328 <HAL_RCC_ClockConfig+0x1cc>)
 8004304:	6013      	str	r3, [r2, #0]

  /* Configure the source of time base considering new system clocks settings*/
  HAL_InitTick(uwTickPrio);
 8004306:	4b09      	ldr	r3, [pc, #36]	; (800432c <HAL_RCC_ClockConfig+0x1d0>)
 8004308:	681b      	ldr	r3, [r3, #0]
 800430a:	4618      	mov	r0, r3
 800430c:	f7fc feb6 	bl	800107c <HAL_InitTick>

  return HAL_OK;
 8004310:	2300      	movs	r3, #0
}
 8004312:	4618      	mov	r0, r3
 8004314:	3710      	adds	r7, #16
 8004316:	46bd      	mov	sp, r7
 8004318:	bd80      	pop	{r7, pc}
 800431a:	bf00      	nop
 800431c:	40022000 	.word	0x40022000
 8004320:	40021000 	.word	0x40021000
 8004324:	08006174 	.word	0x08006174
 8004328:	20000000 	.word	0x20000000
 800432c:	20000004 	.word	0x20000004

08004330 <HAL_RCC_GetSysClockFreq>:
  *         right SYSCLK value. Otherwise, any configuration based on this function will be incorrect.
  *
  * @retval SYSCLK frequency
  */
uint32_t HAL_RCC_GetSysClockFreq(void)
{
 8004330:	b490      	push	{r4, r7}
 8004332:	b08a      	sub	sp, #40	; 0x28
 8004334:	af00      	add	r7, sp, #0
#if defined(RCC_CFGR2_PREDIV1SRC)
  const uint8_t aPLLMULFactorTable[14] = {0, 0, 4, 5, 6, 7, 8, 9, 0, 0, 0, 0, 0, 13};
  const uint8_t aPredivFactorTable[16] = {1, 2, 3, 4, 5, 6, 7, 8, 9, 10, 11, 12, 13, 14, 15, 16};
#else
  const uint8_t aPLLMULFactorTable[16] = {2, 3, 4, 5, 6, 7, 8, 9, 10, 11, 12, 13, 14, 15, 16, 16};
 8004336:	4b2a      	ldr	r3, [pc, #168]	; (80043e0 <HAL_RCC_GetSysClockFreq+0xb0>)
 8004338:	1d3c      	adds	r4, r7, #4
 800433a:	cb0f      	ldmia	r3, {r0, r1, r2, r3}
 800433c:	e884 000f 	stmia.w	r4, {r0, r1, r2, r3}
#if defined(RCC_CFGR2_PREDIV1)
  const uint8_t aPredivFactorTable[16] = {1, 2, 3, 4, 5, 6, 7, 8, 9, 10, 11, 12, 13, 14, 15, 16};
#else
  const uint8_t aPredivFactorTable[2] = {1, 2};
 8004340:	4b28      	ldr	r3, [pc, #160]	; (80043e4 <HAL_RCC_GetSysClockFreq+0xb4>)
 8004342:	881b      	ldrh	r3, [r3, #0]
 8004344:	803b      	strh	r3, [r7, #0]
#endif /*RCC_CFGR2_PREDIV1*/

#endif
  uint32_t tmpreg = 0U, prediv = 0U, pllclk = 0U, pllmul = 0U;
 8004346:	2300      	movs	r3, #0
 8004348:	61fb      	str	r3, [r7, #28]
 800434a:	2300      	movs	r3, #0
 800434c:	61bb      	str	r3, [r7, #24]
 800434e:	2300      	movs	r3, #0
 8004350:	627b      	str	r3, [r7, #36]	; 0x24
 8004352:	2300      	movs	r3, #0
 8004354:	617b      	str	r3, [r7, #20]
  uint32_t sysclockfreq = 0U;
 8004356:	2300      	movs	r3, #0
 8004358:	623b      	str	r3, [r7, #32]
#if defined(RCC_CFGR2_PREDIV1SRC)
  uint32_t prediv2 = 0U, pll2mul = 0U;
#endif /*RCC_CFGR2_PREDIV1SRC*/

  tmpreg = RCC->CFGR;
 800435a:	4b23      	ldr	r3, [pc, #140]	; (80043e8 <HAL_RCC_GetSysClockFreq+0xb8>)
 800435c:	685b      	ldr	r3, [r3, #4]
 800435e:	61fb      	str	r3, [r7, #28]

  /* Get SYSCLK source -------------------------------------------------------*/
  switch (tmpreg & RCC_CFGR_SWS)
 8004360:	69fb      	ldr	r3, [r7, #28]
 8004362:	f003 030c 	and.w	r3, r3, #12
 8004366:	2b04      	cmp	r3, #4
 8004368:	d002      	beq.n	8004370 <HAL_RCC_GetSysClockFreq+0x40>
 800436a:	2b08      	cmp	r3, #8
 800436c:	d003      	beq.n	8004376 <HAL_RCC_GetSysClockFreq+0x46>
 800436e:	e02d      	b.n	80043cc <HAL_RCC_GetSysClockFreq+0x9c>
  {
    case RCC_SYSCLKSOURCE_STATUS_HSE:  /* HSE used as system clock */
    {
      sysclockfreq = HSE_VALUE;
 8004370:	4b1e      	ldr	r3, [pc, #120]	; (80043ec <HAL_RCC_GetSysClockFreq+0xbc>)
 8004372:	623b      	str	r3, [r7, #32]
      break;
 8004374:	e02d      	b.n	80043d2 <HAL_RCC_GetSysClockFreq+0xa2>
    }
    case RCC_SYSCLKSOURCE_STATUS_PLLCLK:  /* PLL used as system clock */
    {
      pllmul = aPLLMULFactorTable[(uint32_t)(tmpreg & RCC_CFGR_PLLMULL) >> RCC_CFGR_PLLMULL_Pos];
 8004376:	69fb      	ldr	r3, [r7, #28]
 8004378:	0c9b      	lsrs	r3, r3, #18
 800437a:	f003 030f 	and.w	r3, r3, #15
 800437e:	f107 0228 	add.w	r2, r7, #40	; 0x28
 8004382:	4413      	add	r3, r2
 8004384:	f813 3c24 	ldrb.w	r3, [r3, #-36]
 8004388:	617b      	str	r3, [r7, #20]
      if ((tmpreg & RCC_CFGR_PLLSRC) != RCC_PLLSOURCE_HSI_DIV2)
 800438a:	69fb      	ldr	r3, [r7, #28]
 800438c:	f403 3380 	and.w	r3, r3, #65536	; 0x10000
 8004390:	2b00      	cmp	r3, #0
 8004392:	d013      	beq.n	80043bc <HAL_RCC_GetSysClockFreq+0x8c>
      {
#if defined(RCC_CFGR2_PREDIV1)
        prediv = aPredivFactorTable[(uint32_t)(RCC->CFGR2 & RCC_CFGR2_PREDIV1) >> RCC_CFGR2_PREDIV1_Pos];
#else
        prediv = aPredivFactorTable[(uint32_t)(RCC->CFGR & RCC_CFGR_PLLXTPRE) >> RCC_CFGR_PLLXTPRE_Pos];
 8004394:	4b14      	ldr	r3, [pc, #80]	; (80043e8 <HAL_RCC_GetSysClockFreq+0xb8>)
 8004396:	685b      	ldr	r3, [r3, #4]
 8004398:	0c5b      	lsrs	r3, r3, #17
 800439a:	f003 0301 	and.w	r3, r3, #1
 800439e:	f107 0228 	add.w	r2, r7, #40	; 0x28
 80043a2:	4413      	add	r3, r2
 80043a4:	f813 3c28 	ldrb.w	r3, [r3, #-40]
 80043a8:	61bb      	str	r3, [r7, #24]
        {
          pllclk = pllclk / 2;
        }
#else
        /* HSE used as PLL clock source : PLLCLK = HSE/PREDIV1 * PLLMUL */
        pllclk = (uint32_t)((HSE_VALUE  * pllmul) / prediv);
 80043aa:	697b      	ldr	r3, [r7, #20]
 80043ac:	4a0f      	ldr	r2, [pc, #60]	; (80043ec <HAL_RCC_GetSysClockFreq+0xbc>)
 80043ae:	fb02 f203 	mul.w	r2, r2, r3
 80043b2:	69bb      	ldr	r3, [r7, #24]
 80043b4:	fbb2 f3f3 	udiv	r3, r2, r3
 80043b8:	627b      	str	r3, [r7, #36]	; 0x24
 80043ba:	e004      	b.n	80043c6 <HAL_RCC_GetSysClockFreq+0x96>
#endif /*RCC_CFGR2_PREDIV1SRC*/
      }
      else
      {
        /* HSI used as PLL clock source : PLLCLK = HSI/2 * PLLMUL */
        pllclk = (uint32_t)((HSI_VALUE >> 1) * pllmul);
 80043bc:	697b      	ldr	r3, [r7, #20]
 80043be:	4a0c      	ldr	r2, [pc, #48]	; (80043f0 <HAL_RCC_GetSysClockFreq+0xc0>)
 80043c0:	fb02 f303 	mul.w	r3, r2, r3
 80043c4:	627b      	str	r3, [r7, #36]	; 0x24
      }
      sysclockfreq = pllclk;
 80043c6:	6a7b      	ldr	r3, [r7, #36]	; 0x24
 80043c8:	623b      	str	r3, [r7, #32]
      break;
 80043ca:	e002      	b.n	80043d2 <HAL_RCC_GetSysClockFreq+0xa2>
    }
    case RCC_SYSCLKSOURCE_STATUS_HSI:  /* HSI used as system clock source */
    default: /* HSI used as system clock */
    {
      sysclockfreq = HSI_VALUE;
 80043cc:	4b07      	ldr	r3, [pc, #28]	; (80043ec <HAL_RCC_GetSysClockFreq+0xbc>)
 80043ce:	623b      	str	r3, [r7, #32]
      break;
 80043d0:	bf00      	nop
    }
  }
  return sysclockfreq;
 80043d2:	6a3b      	ldr	r3, [r7, #32]
}
 80043d4:	4618      	mov	r0, r3
 80043d6:	3728      	adds	r7, #40	; 0x28
 80043d8:	46bd      	mov	sp, r7
 80043da:	bc90      	pop	{r4, r7}
 80043dc:	4770      	bx	lr
 80043de:	bf00      	nop
 80043e0:	08006158 	.word	0x08006158
 80043e4:	08006168 	.word	0x08006168
 80043e8:	40021000 	.word	0x40021000
 80043ec:	007a1200 	.word	0x007a1200
 80043f0:	003d0900 	.word	0x003d0900

080043f4 <HAL_RCC_GetHCLKFreq>:
  * @note   The SystemCoreClock CMSIS variable is used to store System Clock Frequency
  *         and updated within this function
  * @retval HCLK frequency
  */
uint32_t HAL_RCC_GetHCLKFreq(void)
{
 80043f4:	b480      	push	{r7}
 80043f6:	af00      	add	r7, sp, #0
  return SystemCoreClock;
 80043f8:	4b02      	ldr	r3, [pc, #8]	; (8004404 <HAL_RCC_GetHCLKFreq+0x10>)
 80043fa:	681b      	ldr	r3, [r3, #0]
}
 80043fc:	4618      	mov	r0, r3
 80043fe:	46bd      	mov	sp, r7
 8004400:	bc80      	pop	{r7}
 8004402:	4770      	bx	lr
 8004404:	20000000 	.word	0x20000000

08004408 <HAL_RCC_GetPCLK1Freq>:
  * @note   Each time PCLK1 changes, this function must be called to update the
  *         right PCLK1 value. Otherwise, any configuration based on this function will be incorrect.
  * @retval PCLK1 frequency
  */
uint32_t HAL_RCC_GetPCLK1Freq(void)
{
 8004408:	b580      	push	{r7, lr}
 800440a:	af00      	add	r7, sp, #0
  /* Get HCLK source and Compute PCLK1 frequency ---------------------------*/
  return (HAL_RCC_GetHCLKFreq() >> APBPrescTable[(RCC->CFGR & RCC_CFGR_PPRE1) >> RCC_CFGR_PPRE1_Pos]);
 800440c:	f7ff fff2 	bl	80043f4 <HAL_RCC_GetHCLKFreq>
 8004410:	4601      	mov	r1, r0
 8004412:	4b05      	ldr	r3, [pc, #20]	; (8004428 <HAL_RCC_GetPCLK1Freq+0x20>)
 8004414:	685b      	ldr	r3, [r3, #4]
 8004416:	0a1b      	lsrs	r3, r3, #8
 8004418:	f003 0307 	and.w	r3, r3, #7
 800441c:	4a03      	ldr	r2, [pc, #12]	; (800442c <HAL_RCC_GetPCLK1Freq+0x24>)
 800441e:	5cd3      	ldrb	r3, [r2, r3]
 8004420:	fa21 f303 	lsr.w	r3, r1, r3
}
 8004424:	4618      	mov	r0, r3
 8004426:	bd80      	pop	{r7, pc}
 8004428:	40021000 	.word	0x40021000
 800442c:	08006184 	.word	0x08006184

08004430 <HAL_RCC_GetPCLK2Freq>:
  * @note   Each time PCLK2 changes, this function must be called to update the
  *         right PCLK2 value. Otherwise, any configuration based on this function will be incorrect.
  * @retval PCLK2 frequency
  */
uint32_t HAL_RCC_GetPCLK2Freq(void)
{
 8004430:	b580      	push	{r7, lr}
 8004432:	af00      	add	r7, sp, #0
  /* Get HCLK source and Compute PCLK2 frequency ---------------------------*/
  return (HAL_RCC_GetHCLKFreq() >> APBPrescTable[(RCC->CFGR & RCC_CFGR_PPRE2) >> RCC_CFGR_PPRE2_Pos]);
 8004434:	f7ff ffde 	bl	80043f4 <HAL_RCC_GetHCLKFreq>
 8004438:	4601      	mov	r1, r0
 800443a:	4b05      	ldr	r3, [pc, #20]	; (8004450 <HAL_RCC_GetPCLK2Freq+0x20>)
 800443c:	685b      	ldr	r3, [r3, #4]
 800443e:	0adb      	lsrs	r3, r3, #11
 8004440:	f003 0307 	and.w	r3, r3, #7
 8004444:	4a03      	ldr	r2, [pc, #12]	; (8004454 <HAL_RCC_GetPCLK2Freq+0x24>)
 8004446:	5cd3      	ldrb	r3, [r2, r3]
 8004448:	fa21 f303 	lsr.w	r3, r1, r3
}
 800444c:	4618      	mov	r0, r3
 800444e:	bd80      	pop	{r7, pc}
 8004450:	40021000 	.word	0x40021000
 8004454:	08006184 	.word	0x08006184

08004458 <HAL_RCC_GetClockConfig>:
  * contains the current clock configuration.
  * @param  pFLatency Pointer on the Flash Latency.
  * @retval None
  */
void HAL_RCC_GetClockConfig(RCC_ClkInitTypeDef  *RCC_ClkInitStruct, uint32_t *pFLatency)
{
 8004458:	b480      	push	{r7}
 800445a:	b083      	sub	sp, #12
 800445c:	af00      	add	r7, sp, #0
 800445e:	6078      	str	r0, [r7, #4]
 8004460:	6039      	str	r1, [r7, #0]
  /* Check the parameters */
  assert_param(RCC_ClkInitStruct != NULL);
  assert_param(pFLatency != NULL);

  /* Set all possible values for the Clock type parameter --------------------*/
  RCC_ClkInitStruct->ClockType = RCC_CLOCKTYPE_SYSCLK | RCC_CLOCKTYPE_HCLK | RCC_CLOCKTYPE_PCLK1 | RCC_CLOCKTYPE_PCLK2;
 8004462:	687b      	ldr	r3, [r7, #4]
 8004464:	220f      	movs	r2, #15
 8004466:	601a      	str	r2, [r3, #0]

  /* Get the SYSCLK configuration --------------------------------------------*/
  RCC_ClkInitStruct->SYSCLKSource = (uint32_t)(RCC->CFGR & RCC_CFGR_SW);
 8004468:	4b11      	ldr	r3, [pc, #68]	; (80044b0 <HAL_RCC_GetClockConfig+0x58>)
 800446a:	685b      	ldr	r3, [r3, #4]
 800446c:	f003 0203 	and.w	r2, r3, #3
 8004470:	687b      	ldr	r3, [r7, #4]
 8004472:	605a      	str	r2, [r3, #4]

  /* Get the HCLK configuration ----------------------------------------------*/
  RCC_ClkInitStruct->AHBCLKDivider = (uint32_t)(RCC->CFGR & RCC_CFGR_HPRE);
 8004474:	4b0e      	ldr	r3, [pc, #56]	; (80044b0 <HAL_RCC_GetClockConfig+0x58>)
 8004476:	685b      	ldr	r3, [r3, #4]
 8004478:	f003 02f0 	and.w	r2, r3, #240	; 0xf0
 800447c:	687b      	ldr	r3, [r7, #4]
 800447e:	609a      	str	r2, [r3, #8]

  /* Get the APB1 configuration ----------------------------------------------*/
  RCC_ClkInitStruct->APB1CLKDivider = (uint32_t)(RCC->CFGR & RCC_CFGR_PPRE1);
 8004480:	4b0b      	ldr	r3, [pc, #44]	; (80044b0 <HAL_RCC_GetClockConfig+0x58>)
 8004482:	685b      	ldr	r3, [r3, #4]
 8004484:	f403 62e0 	and.w	r2, r3, #1792	; 0x700
 8004488:	687b      	ldr	r3, [r7, #4]
 800448a:	60da      	str	r2, [r3, #12]

  /* Get the APB2 configuration ----------------------------------------------*/
  RCC_ClkInitStruct->APB2CLKDivider = (uint32_t)((RCC->CFGR & RCC_CFGR_PPRE2) >> 3);
 800448c:	4b08      	ldr	r3, [pc, #32]	; (80044b0 <HAL_RCC_GetClockConfig+0x58>)
 800448e:	685b      	ldr	r3, [r3, #4]
 8004490:	08db      	lsrs	r3, r3, #3
 8004492:	f403 62e0 	and.w	r2, r3, #1792	; 0x700
 8004496:	687b      	ldr	r3, [r7, #4]
 8004498:	611a      	str	r2, [r3, #16]

#if   defined(FLASH_ACR_LATENCY)
  /* Get the Flash Wait State (Latency) configuration ------------------------*/
  *pFLatency = (uint32_t)(FLASH->ACR & FLASH_ACR_LATENCY);
 800449a:	4b06      	ldr	r3, [pc, #24]	; (80044b4 <HAL_RCC_GetClockConfig+0x5c>)
 800449c:	681b      	ldr	r3, [r3, #0]
 800449e:	f003 0207 	and.w	r2, r3, #7
 80044a2:	683b      	ldr	r3, [r7, #0]
 80044a4:	601a      	str	r2, [r3, #0]
#else
  /* For VALUE lines devices, only LATENCY_0 can be set*/
  *pFLatency = (uint32_t)FLASH_LATENCY_0;
#endif
}
 80044a6:	bf00      	nop
 80044a8:	370c      	adds	r7, #12
 80044aa:	46bd      	mov	sp, r7
 80044ac:	bc80      	pop	{r7}
 80044ae:	4770      	bx	lr
 80044b0:	40021000 	.word	0x40021000
 80044b4:	40022000 	.word	0x40022000

080044b8 <RCC_Delay>:
  * @brief  This function provides delay (in milliseconds) based on CPU cycles method.
  * @param  mdelay: specifies the delay time length, in milliseconds.
  * @retval None
  */
static void RCC_Delay(uint32_t mdelay)
{
 80044b8:	b480      	push	{r7}
 80044ba:	b085      	sub	sp, #20
 80044bc:	af00      	add	r7, sp, #0
 80044be:	6078      	str	r0, [r7, #4]
  __IO uint32_t Delay = mdelay * (SystemCoreClock / 8U / 1000U);
 80044c0:	4b0a      	ldr	r3, [pc, #40]	; (80044ec <RCC_Delay+0x34>)
 80044c2:	681b      	ldr	r3, [r3, #0]
 80044c4:	4a0a      	ldr	r2, [pc, #40]	; (80044f0 <RCC_Delay+0x38>)
 80044c6:	fba2 2303 	umull	r2, r3, r2, r3
 80044ca:	0a5b      	lsrs	r3, r3, #9
 80044cc:	687a      	ldr	r2, [r7, #4]
 80044ce:	fb02 f303 	mul.w	r3, r2, r3
 80044d2:	60fb      	str	r3, [r7, #12]
  do
  {
    __NOP();
 80044d4:	bf00      	nop
  }
  while (Delay --);
 80044d6:	68fb      	ldr	r3, [r7, #12]
 80044d8:	1e5a      	subs	r2, r3, #1
 80044da:	60fa      	str	r2, [r7, #12]
 80044dc:	2b00      	cmp	r3, #0
 80044de:	d1f9      	bne.n	80044d4 <RCC_Delay+0x1c>
}
 80044e0:	bf00      	nop
 80044e2:	3714      	adds	r7, #20
 80044e4:	46bd      	mov	sp, r7
 80044e6:	bc80      	pop	{r7}
 80044e8:	4770      	bx	lr
 80044ea:	bf00      	nop
 80044ec:	20000000 	.word	0x20000000
 80044f0:	10624dd3 	.word	0x10624dd3

080044f4 <HAL_RCCEx_PeriphCLKConfig>:
  *         manually disable it.
  *
  * @retval HAL status
  */
HAL_StatusTypeDef HAL_RCCEx_PeriphCLKConfig(RCC_PeriphCLKInitTypeDef  *PeriphClkInit)
{
 80044f4:	b580      	push	{r7, lr}
 80044f6:	b086      	sub	sp, #24
 80044f8:	af00      	add	r7, sp, #0
 80044fa:	6078      	str	r0, [r7, #4]
  uint32_t tickstart = 0U, temp_reg = 0U;
 80044fc:	2300      	movs	r3, #0
 80044fe:	613b      	str	r3, [r7, #16]
 8004500:	2300      	movs	r3, #0
 8004502:	60fb      	str	r3, [r7, #12]

  /* Check the parameters */
  assert_param(IS_RCC_PERIPHCLOCK(PeriphClkInit->PeriphClockSelection));

  /*------------------------------- RTC/LCD Configuration ------------------------*/
  if ((((PeriphClkInit->PeriphClockSelection) & RCC_PERIPHCLK_RTC) == RCC_PERIPHCLK_RTC))
 8004504:	687b      	ldr	r3, [r7, #4]
 8004506:	681b      	ldr	r3, [r3, #0]
 8004508:	f003 0301 	and.w	r3, r3, #1
 800450c:	2b00      	cmp	r3, #0
 800450e:	d07d      	beq.n	800460c <HAL_RCCEx_PeriphCLKConfig+0x118>
  {
    /* check for RTC Parameters used to output RTCCLK */
    assert_param(IS_RCC_RTCCLKSOURCE(PeriphClkInit->RTCClockSelection));

    FlagStatus       pwrclkchanged = RESET;
 8004510:	2300      	movs	r3, #0
 8004512:	75fb      	strb	r3, [r7, #23]

    /* As soon as function is called to change RTC clock source, activation of the
       power domain is done. */
    /* Requires to enable write access to Backup Domain of necessary */
    if (__HAL_RCC_PWR_IS_CLK_DISABLED())
 8004514:	4b4f      	ldr	r3, [pc, #316]	; (8004654 <HAL_RCCEx_PeriphCLKConfig+0x160>)
 8004516:	69db      	ldr	r3, [r3, #28]
 8004518:	f003 5380 	and.w	r3, r3, #268435456	; 0x10000000
 800451c:	2b00      	cmp	r3, #0
 800451e:	d10d      	bne.n	800453c <HAL_RCCEx_PeriphCLKConfig+0x48>
    {
      __HAL_RCC_PWR_CLK_ENABLE();
 8004520:	4b4c      	ldr	r3, [pc, #304]	; (8004654 <HAL_RCCEx_PeriphCLKConfig+0x160>)
 8004522:	69db      	ldr	r3, [r3, #28]
 8004524:	4a4b      	ldr	r2, [pc, #300]	; (8004654 <HAL_RCCEx_PeriphCLKConfig+0x160>)
 8004526:	f043 5380 	orr.w	r3, r3, #268435456	; 0x10000000
 800452a:	61d3      	str	r3, [r2, #28]
 800452c:	4b49      	ldr	r3, [pc, #292]	; (8004654 <HAL_RCCEx_PeriphCLKConfig+0x160>)
 800452e:	69db      	ldr	r3, [r3, #28]
 8004530:	f003 5380 	and.w	r3, r3, #268435456	; 0x10000000
 8004534:	60bb      	str	r3, [r7, #8]
 8004536:	68bb      	ldr	r3, [r7, #8]
      pwrclkchanged = SET;
 8004538:	2301      	movs	r3, #1
 800453a:	75fb      	strb	r3, [r7, #23]
    }

    if (HAL_IS_BIT_CLR(PWR->CR, PWR_CR_DBP))
 800453c:	4b46      	ldr	r3, [pc, #280]	; (8004658 <HAL_RCCEx_PeriphCLKConfig+0x164>)
 800453e:	681b      	ldr	r3, [r3, #0]
 8004540:	f403 7380 	and.w	r3, r3, #256	; 0x100
 8004544:	2b00      	cmp	r3, #0
 8004546:	d118      	bne.n	800457a <HAL_RCCEx_PeriphCLKConfig+0x86>
    {
      /* Enable write access to Backup domain */
      SET_BIT(PWR->CR, PWR_CR_DBP);
 8004548:	4b43      	ldr	r3, [pc, #268]	; (8004658 <HAL_RCCEx_PeriphCLKConfig+0x164>)
 800454a:	681b      	ldr	r3, [r3, #0]
 800454c:	4a42      	ldr	r2, [pc, #264]	; (8004658 <HAL_RCCEx_PeriphCLKConfig+0x164>)
 800454e:	f443 7380 	orr.w	r3, r3, #256	; 0x100
 8004552:	6013      	str	r3, [r2, #0]

      /* Wait for Backup domain Write protection disable */
      tickstart = HAL_GetTick();
 8004554:	f7fc fe98 	bl	8001288 <HAL_GetTick>
 8004558:	6138      	str	r0, [r7, #16]

      while (HAL_IS_BIT_CLR(PWR->CR, PWR_CR_DBP))
 800455a:	e008      	b.n	800456e <HAL_RCCEx_PeriphCLKConfig+0x7a>
      {
        if ((HAL_GetTick() - tickstart) > RCC_DBP_TIMEOUT_VALUE)
 800455c:	f7fc fe94 	bl	8001288 <HAL_GetTick>
 8004560:	4602      	mov	r2, r0
 8004562:	693b      	ldr	r3, [r7, #16]
 8004564:	1ad3      	subs	r3, r2, r3
 8004566:	2b64      	cmp	r3, #100	; 0x64
 8004568:	d901      	bls.n	800456e <HAL_RCCEx_PeriphCLKConfig+0x7a>
        {
          return HAL_TIMEOUT;
 800456a:	2303      	movs	r3, #3
 800456c:	e06d      	b.n	800464a <HAL_RCCEx_PeriphCLKConfig+0x156>
      while (HAL_IS_BIT_CLR(PWR->CR, PWR_CR_DBP))
 800456e:	4b3a      	ldr	r3, [pc, #232]	; (8004658 <HAL_RCCEx_PeriphCLKConfig+0x164>)
 8004570:	681b      	ldr	r3, [r3, #0]
 8004572:	f403 7380 	and.w	r3, r3, #256	; 0x100
 8004576:	2b00      	cmp	r3, #0
 8004578:	d0f0      	beq.n	800455c <HAL_RCCEx_PeriphCLKConfig+0x68>
        }
      }
    }

    /* Reset the Backup domain only if the RTC Clock source selection is modified from reset value */
    temp_reg = (RCC->BDCR & RCC_BDCR_RTCSEL);
 800457a:	4b36      	ldr	r3, [pc, #216]	; (8004654 <HAL_RCCEx_PeriphCLKConfig+0x160>)
 800457c:	6a1b      	ldr	r3, [r3, #32]
 800457e:	f403 7340 	and.w	r3, r3, #768	; 0x300
 8004582:	60fb      	str	r3, [r7, #12]
    if ((temp_reg != 0x00000000U) && (temp_reg != (PeriphClkInit->RTCClockSelection & RCC_BDCR_RTCSEL)))
 8004584:	68fb      	ldr	r3, [r7, #12]
 8004586:	2b00      	cmp	r3, #0
 8004588:	d02e      	beq.n	80045e8 <HAL_RCCEx_PeriphCLKConfig+0xf4>
 800458a:	687b      	ldr	r3, [r7, #4]
 800458c:	685b      	ldr	r3, [r3, #4]
 800458e:	f403 7340 	and.w	r3, r3, #768	; 0x300
 8004592:	68fa      	ldr	r2, [r7, #12]
 8004594:	429a      	cmp	r2, r3
 8004596:	d027      	beq.n	80045e8 <HAL_RCCEx_PeriphCLKConfig+0xf4>
    {
      /* Store the content of BDCR register before the reset of Backup Domain */
      temp_reg = (RCC->BDCR & ~(RCC_BDCR_RTCSEL));
 8004598:	4b2e      	ldr	r3, [pc, #184]	; (8004654 <HAL_RCCEx_PeriphCLKConfig+0x160>)
 800459a:	6a1b      	ldr	r3, [r3, #32]
 800459c:	f423 7340 	bic.w	r3, r3, #768	; 0x300
 80045a0:	60fb      	str	r3, [r7, #12]
      /* RTC Clock selection can be changed only if the Backup Domain is reset */
      __HAL_RCC_BACKUPRESET_FORCE();
 80045a2:	4b2e      	ldr	r3, [pc, #184]	; (800465c <HAL_RCCEx_PeriphCLKConfig+0x168>)
 80045a4:	2201      	movs	r2, #1
 80045a6:	601a      	str	r2, [r3, #0]
      __HAL_RCC_BACKUPRESET_RELEASE();
 80045a8:	4b2c      	ldr	r3, [pc, #176]	; (800465c <HAL_RCCEx_PeriphCLKConfig+0x168>)
 80045aa:	2200      	movs	r2, #0
 80045ac:	601a      	str	r2, [r3, #0]
      /* Restore the Content of BDCR register */
      RCC->BDCR = temp_reg;
 80045ae:	4a29      	ldr	r2, [pc, #164]	; (8004654 <HAL_RCCEx_PeriphCLKConfig+0x160>)
 80045b0:	68fb      	ldr	r3, [r7, #12]
 80045b2:	6213      	str	r3, [r2, #32]

      /* Wait for LSERDY if LSE was enabled */
      if (HAL_IS_BIT_SET(temp_reg, RCC_BDCR_LSEON))
 80045b4:	68fb      	ldr	r3, [r7, #12]
 80045b6:	f003 0301 	and.w	r3, r3, #1
 80045ba:	2b00      	cmp	r3, #0
 80045bc:	d014      	beq.n	80045e8 <HAL_RCCEx_PeriphCLKConfig+0xf4>
      {
        /* Get Start Tick */
        tickstart = HAL_GetTick();
 80045be:	f7fc fe63 	bl	8001288 <HAL_GetTick>
 80045c2:	6138      	str	r0, [r7, #16]

        /* Wait till LSE is ready */
        while (__HAL_RCC_GET_FLAG(RCC_FLAG_LSERDY) == RESET)
 80045c4:	e00a      	b.n	80045dc <HAL_RCCEx_PeriphCLKConfig+0xe8>
        {
          if ((HAL_GetTick() - tickstart) > RCC_LSE_TIMEOUT_VALUE)
 80045c6:	f7fc fe5f 	bl	8001288 <HAL_GetTick>
 80045ca:	4602      	mov	r2, r0
 80045cc:	693b      	ldr	r3, [r7, #16]
 80045ce:	1ad3      	subs	r3, r2, r3
 80045d0:	f241 3288 	movw	r2, #5000	; 0x1388
 80045d4:	4293      	cmp	r3, r2
 80045d6:	d901      	bls.n	80045dc <HAL_RCCEx_PeriphCLKConfig+0xe8>
          {
            return HAL_TIMEOUT;
 80045d8:	2303      	movs	r3, #3
 80045da:	e036      	b.n	800464a <HAL_RCCEx_PeriphCLKConfig+0x156>
        while (__HAL_RCC_GET_FLAG(RCC_FLAG_LSERDY) == RESET)
 80045dc:	4b1d      	ldr	r3, [pc, #116]	; (8004654 <HAL_RCCEx_PeriphCLKConfig+0x160>)
 80045de:	6a1b      	ldr	r3, [r3, #32]
 80045e0:	f003 0302 	and.w	r3, r3, #2
 80045e4:	2b00      	cmp	r3, #0
 80045e6:	d0ee      	beq.n	80045c6 <HAL_RCCEx_PeriphCLKConfig+0xd2>
          }
        }
      }
    }
    __HAL_RCC_RTC_CONFIG(PeriphClkInit->RTCClockSelection);
 80045e8:	4b1a      	ldr	r3, [pc, #104]	; (8004654 <HAL_RCCEx_PeriphCLKConfig+0x160>)
 80045ea:	6a1b      	ldr	r3, [r3, #32]
 80045ec:	f423 7240 	bic.w	r2, r3, #768	; 0x300
 80045f0:	687b      	ldr	r3, [r7, #4]
 80045f2:	685b      	ldr	r3, [r3, #4]
 80045f4:	4917      	ldr	r1, [pc, #92]	; (8004654 <HAL_RCCEx_PeriphCLKConfig+0x160>)
 80045f6:	4313      	orrs	r3, r2
 80045f8:	620b      	str	r3, [r1, #32]

    /* Require to disable power clock if necessary */
    if (pwrclkchanged == SET)
 80045fa:	7dfb      	ldrb	r3, [r7, #23]
 80045fc:	2b01      	cmp	r3, #1
 80045fe:	d105      	bne.n	800460c <HAL_RCCEx_PeriphCLKConfig+0x118>
    {
      __HAL_RCC_PWR_CLK_DISABLE();
 8004600:	4b14      	ldr	r3, [pc, #80]	; (8004654 <HAL_RCCEx_PeriphCLKConfig+0x160>)
 8004602:	69db      	ldr	r3, [r3, #28]
 8004604:	4a13      	ldr	r2, [pc, #76]	; (8004654 <HAL_RCCEx_PeriphCLKConfig+0x160>)
 8004606:	f023 5380 	bic.w	r3, r3, #268435456	; 0x10000000
 800460a:	61d3      	str	r3, [r2, #28]
    }
  }

  /*------------------------------ ADC clock Configuration ------------------*/
  if (((PeriphClkInit->PeriphClockSelection) & RCC_PERIPHCLK_ADC) == RCC_PERIPHCLK_ADC)
 800460c:	687b      	ldr	r3, [r7, #4]
 800460e:	681b      	ldr	r3, [r3, #0]
 8004610:	f003 0302 	and.w	r3, r3, #2
 8004614:	2b00      	cmp	r3, #0
 8004616:	d008      	beq.n	800462a <HAL_RCCEx_PeriphCLKConfig+0x136>
  {
    /* Check the parameters */
    assert_param(IS_RCC_ADCPLLCLK_DIV(PeriphClkInit->AdcClockSelection));

    /* Configure the ADC clock source */
    __HAL_RCC_ADC_CONFIG(PeriphClkInit->AdcClockSelection);
 8004618:	4b0e      	ldr	r3, [pc, #56]	; (8004654 <HAL_RCCEx_PeriphCLKConfig+0x160>)
 800461a:	685b      	ldr	r3, [r3, #4]
 800461c:	f423 4240 	bic.w	r2, r3, #49152	; 0xc000
 8004620:	687b      	ldr	r3, [r7, #4]
 8004622:	689b      	ldr	r3, [r3, #8]
 8004624:	490b      	ldr	r1, [pc, #44]	; (8004654 <HAL_RCCEx_PeriphCLKConfig+0x160>)
 8004626:	4313      	orrs	r3, r2
 8004628:	604b      	str	r3, [r1, #4]

#if defined(STM32F102x6) || defined(STM32F102xB) || defined(STM32F103x6)\
 || defined(STM32F103xB) || defined(STM32F103xE) || defined(STM32F103xG)\
 || defined(STM32F105xC) || defined(STM32F107xC)
  /*------------------------------ USB clock Configuration ------------------*/
  if (((PeriphClkInit->PeriphClockSelection) & RCC_PERIPHCLK_USB) == RCC_PERIPHCLK_USB)
 800462a:	687b      	ldr	r3, [r7, #4]
 800462c:	681b      	ldr	r3, [r3, #0]
 800462e:	f003 0310 	and.w	r3, r3, #16
 8004632:	2b00      	cmp	r3, #0
 8004634:	d008      	beq.n	8004648 <HAL_RCCEx_PeriphCLKConfig+0x154>
  {
    /* Check the parameters */
    assert_param(IS_RCC_USBPLLCLK_DIV(PeriphClkInit->UsbClockSelection));

    /* Configure the USB clock source */
    __HAL_RCC_USB_CONFIG(PeriphClkInit->UsbClockSelection);
 8004636:	4b07      	ldr	r3, [pc, #28]	; (8004654 <HAL_RCCEx_PeriphCLKConfig+0x160>)
 8004638:	685b      	ldr	r3, [r3, #4]
 800463a:	f423 0280 	bic.w	r2, r3, #4194304	; 0x400000
 800463e:	687b      	ldr	r3, [r7, #4]
 8004640:	68db      	ldr	r3, [r3, #12]
 8004642:	4904      	ldr	r1, [pc, #16]	; (8004654 <HAL_RCCEx_PeriphCLKConfig+0x160>)
 8004644:	4313      	orrs	r3, r2
 8004646:	604b      	str	r3, [r1, #4]
  }
#endif /* STM32F102x6 || STM32F102xB || STM32F103x6 || STM32F103xB || STM32F103xE || STM32F103xG || STM32F105xC || STM32F107xC */

  return HAL_OK;
 8004648:	2300      	movs	r3, #0
}
 800464a:	4618      	mov	r0, r3
 800464c:	3718      	adds	r7, #24
 800464e:	46bd      	mov	sp, r7
 8004650:	bd80      	pop	{r7, pc}
 8004652:	bf00      	nop
 8004654:	40021000 	.word	0x40021000
 8004658:	40007000 	.word	0x40007000
 800465c:	42420440 	.word	0x42420440

08004660 <HAL_TIM_Base_Init>:
  *         Ex: call @ref HAL_TIM_Base_DeInit() before HAL_TIM_Base_Init()
  * @param  htim TIM Base handle
  * @retval HAL status
  */
HAL_StatusTypeDef HAL_TIM_Base_Init(TIM_HandleTypeDef *htim)
{
 8004660:	b580      	push	{r7, lr}
 8004662:	b082      	sub	sp, #8
 8004664:	af00      	add	r7, sp, #0
 8004666:	6078      	str	r0, [r7, #4]
  /* Check the TIM handle allocation */
  if (htim == NULL)
 8004668:	687b      	ldr	r3, [r7, #4]
 800466a:	2b00      	cmp	r3, #0
 800466c:	d101      	bne.n	8004672 <HAL_TIM_Base_Init+0x12>
  {
    return HAL_ERROR;
 800466e:	2301      	movs	r3, #1
 8004670:	e01d      	b.n	80046ae <HAL_TIM_Base_Init+0x4e>
  assert_param(IS_TIM_INSTANCE(htim->Instance));
  assert_param(IS_TIM_COUNTER_MODE(htim->Init.CounterMode));
  assert_param(IS_TIM_CLOCKDIVISION_DIV(htim->Init.ClockDivision));
  assert_param(IS_TIM_AUTORELOAD_PRELOAD(htim->Init.AutoReloadPreload));

  if (htim->State == HAL_TIM_STATE_RESET)
 8004672:	687b      	ldr	r3, [r7, #4]
 8004674:	f893 303d 	ldrb.w	r3, [r3, #61]	; 0x3d
 8004678:	b2db      	uxtb	r3, r3
 800467a:	2b00      	cmp	r3, #0
 800467c:	d106      	bne.n	800468c <HAL_TIM_Base_Init+0x2c>
  {
    /* Allocate lock resource and initialize it */
    htim->Lock = HAL_UNLOCKED;
 800467e:	687b      	ldr	r3, [r7, #4]
 8004680:	2200      	movs	r2, #0
 8004682:	f883 203c 	strb.w	r2, [r3, #60]	; 0x3c
    }
    /* Init the low level hardware : GPIO, CLOCK, NVIC */
    htim->Base_MspInitCallback(htim);
#else
    /* Init the low level hardware : GPIO, CLOCK, NVIC */
    HAL_TIM_Base_MspInit(htim);
 8004686:	6878      	ldr	r0, [r7, #4]
 8004688:	f000 f815 	bl	80046b6 <HAL_TIM_Base_MspInit>
#endif /* USE_HAL_TIM_REGISTER_CALLBACKS */
  }

  /* Set the TIM state */
  htim->State = HAL_TIM_STATE_BUSY;
 800468c:	687b      	ldr	r3, [r7, #4]
 800468e:	2202      	movs	r2, #2
 8004690:	f883 203d 	strb.w	r2, [r3, #61]	; 0x3d

  /* Set the Time Base configuration */
  TIM_Base_SetConfig(htim->Instance, &htim->Init);
 8004694:	687b      	ldr	r3, [r7, #4]
 8004696:	681a      	ldr	r2, [r3, #0]
 8004698:	687b      	ldr	r3, [r7, #4]
 800469a:	3304      	adds	r3, #4
 800469c:	4619      	mov	r1, r3
 800469e:	4610      	mov	r0, r2
 80046a0:	f000 f962 	bl	8004968 <TIM_Base_SetConfig>

  /* Initialize the TIM state*/
  htim->State = HAL_TIM_STATE_READY;
 80046a4:	687b      	ldr	r3, [r7, #4]
 80046a6:	2201      	movs	r2, #1
 80046a8:	f883 203d 	strb.w	r2, [r3, #61]	; 0x3d

  return HAL_OK;
 80046ac:	2300      	movs	r3, #0
}
 80046ae:	4618      	mov	r0, r3
 80046b0:	3708      	adds	r7, #8
 80046b2:	46bd      	mov	sp, r7
 80046b4:	bd80      	pop	{r7, pc}

080046b6 <HAL_TIM_Base_MspInit>:
  * @brief  Initializes the TIM Base MSP.
  * @param  htim TIM Base handle
  * @retval None
  */
__weak void HAL_TIM_Base_MspInit(TIM_HandleTypeDef *htim)
{
 80046b6:	b480      	push	{r7}
 80046b8:	b083      	sub	sp, #12
 80046ba:	af00      	add	r7, sp, #0
 80046bc:	6078      	str	r0, [r7, #4]
  UNUSED(htim);

  /* NOTE : This function should not be modified, when the callback is needed,
            the HAL_TIM_Base_MspInit could be implemented in the user file
   */
}
 80046be:	bf00      	nop
 80046c0:	370c      	adds	r7, #12
 80046c2:	46bd      	mov	sp, r7
 80046c4:	bc80      	pop	{r7}
 80046c6:	4770      	bx	lr

080046c8 <HAL_TIM_Base_Start_IT>:
  * @brief  Starts the TIM Base generation in interrupt mode.
  * @param  htim TIM Base handle
  * @retval HAL status
  */
HAL_StatusTypeDef HAL_TIM_Base_Start_IT(TIM_HandleTypeDef *htim)
{
 80046c8:	b480      	push	{r7}
 80046ca:	b085      	sub	sp, #20
 80046cc:	af00      	add	r7, sp, #0
 80046ce:	6078      	str	r0, [r7, #4]

  /* Check the parameters */
  assert_param(IS_TIM_INSTANCE(htim->Instance));

  /* Enable the TIM Update interrupt */
  __HAL_TIM_ENABLE_IT(htim, TIM_IT_UPDATE);
 80046d0:	687b      	ldr	r3, [r7, #4]
 80046d2:	681b      	ldr	r3, [r3, #0]
 80046d4:	68da      	ldr	r2, [r3, #12]
 80046d6:	687b      	ldr	r3, [r7, #4]
 80046d8:	681b      	ldr	r3, [r3, #0]
 80046da:	f042 0201 	orr.w	r2, r2, #1
 80046de:	60da      	str	r2, [r3, #12]

  /* Enable the Peripheral, except in trigger mode where enable is automatically done with trigger */
  tmpsmcr = htim->Instance->SMCR & TIM_SMCR_SMS;
 80046e0:	687b      	ldr	r3, [r7, #4]
 80046e2:	681b      	ldr	r3, [r3, #0]
 80046e4:	689b      	ldr	r3, [r3, #8]
 80046e6:	f003 0307 	and.w	r3, r3, #7
 80046ea:	60fb      	str	r3, [r7, #12]
  if (!IS_TIM_SLAVEMODE_TRIGGER_ENABLED(tmpsmcr))
 80046ec:	68fb      	ldr	r3, [r7, #12]
 80046ee:	2b06      	cmp	r3, #6
 80046f0:	d007      	beq.n	8004702 <HAL_TIM_Base_Start_IT+0x3a>
  {
    __HAL_TIM_ENABLE(htim);
 80046f2:	687b      	ldr	r3, [r7, #4]
 80046f4:	681b      	ldr	r3, [r3, #0]
 80046f6:	681a      	ldr	r2, [r3, #0]
 80046f8:	687b      	ldr	r3, [r7, #4]
 80046fa:	681b      	ldr	r3, [r3, #0]
 80046fc:	f042 0201 	orr.w	r2, r2, #1
 8004700:	601a      	str	r2, [r3, #0]
  }

  /* Return function status */
  return HAL_OK;
 8004702:	2300      	movs	r3, #0
}
 8004704:	4618      	mov	r0, r3
 8004706:	3714      	adds	r7, #20
 8004708:	46bd      	mov	sp, r7
 800470a:	bc80      	pop	{r7}
 800470c:	4770      	bx	lr

0800470e <HAL_TIM_IRQHandler>:
  * @brief  This function handles TIM interrupts requests.
  * @param  htim TIM  handle
  * @retval None
  */
void HAL_TIM_IRQHandler(TIM_HandleTypeDef *htim)
{
 800470e:	b580      	push	{r7, lr}
 8004710:	b082      	sub	sp, #8
 8004712:	af00      	add	r7, sp, #0
 8004714:	6078      	str	r0, [r7, #4]
  /* Capture compare 1 event */
  if (__HAL_TIM_GET_FLAG(htim, TIM_FLAG_CC1) != RESET)
 8004716:	687b      	ldr	r3, [r7, #4]
 8004718:	681b      	ldr	r3, [r3, #0]
 800471a:	691b      	ldr	r3, [r3, #16]
 800471c:	f003 0302 	and.w	r3, r3, #2
 8004720:	2b02      	cmp	r3, #2
 8004722:	d122      	bne.n	800476a <HAL_TIM_IRQHandler+0x5c>
  {
    if (__HAL_TIM_GET_IT_SOURCE(htim, TIM_IT_CC1) != RESET)
 8004724:	687b      	ldr	r3, [r7, #4]
 8004726:	681b      	ldr	r3, [r3, #0]
 8004728:	68db      	ldr	r3, [r3, #12]
 800472a:	f003 0302 	and.w	r3, r3, #2
 800472e:	2b02      	cmp	r3, #2
 8004730:	d11b      	bne.n	800476a <HAL_TIM_IRQHandler+0x5c>
    {
      {
        __HAL_TIM_CLEAR_IT(htim, TIM_IT_CC1);
 8004732:	687b      	ldr	r3, [r7, #4]
 8004734:	681b      	ldr	r3, [r3, #0]
 8004736:	f06f 0202 	mvn.w	r2, #2
 800473a:	611a      	str	r2, [r3, #16]
        htim->Channel = HAL_TIM_ACTIVE_CHANNEL_1;
 800473c:	687b      	ldr	r3, [r7, #4]
 800473e:	2201      	movs	r2, #1
 8004740:	771a      	strb	r2, [r3, #28]

        /* Input capture event */
        if ((htim->Instance->CCMR1 & TIM_CCMR1_CC1S) != 0x00U)
 8004742:	687b      	ldr	r3, [r7, #4]
 8004744:	681b      	ldr	r3, [r3, #0]
 8004746:	699b      	ldr	r3, [r3, #24]
 8004748:	f003 0303 	and.w	r3, r3, #3
 800474c:	2b00      	cmp	r3, #0
 800474e:	d003      	beq.n	8004758 <HAL_TIM_IRQHandler+0x4a>
        {
#if (USE_HAL_TIM_REGISTER_CALLBACKS == 1)
          htim->IC_CaptureCallback(htim);
#else
          HAL_TIM_IC_CaptureCallback(htim);
 8004750:	6878      	ldr	r0, [r7, #4]
 8004752:	f000 f8ed 	bl	8004930 <HAL_TIM_IC_CaptureCallback>
 8004756:	e005      	b.n	8004764 <HAL_TIM_IRQHandler+0x56>
        {
#if (USE_HAL_TIM_REGISTER_CALLBACKS == 1)
          htim->OC_DelayElapsedCallback(htim);
          htim->PWM_PulseFinishedCallback(htim);
#else
          HAL_TIM_OC_DelayElapsedCallback(htim);
 8004758:	6878      	ldr	r0, [r7, #4]
 800475a:	f000 f8e0 	bl	800491e <HAL_TIM_OC_DelayElapsedCallback>
          HAL_TIM_PWM_PulseFinishedCallback(htim);
 800475e:	6878      	ldr	r0, [r7, #4]
 8004760:	f000 f8ef 	bl	8004942 <HAL_TIM_PWM_PulseFinishedCallback>
#endif /* USE_HAL_TIM_REGISTER_CALLBACKS */
        }
        htim->Channel = HAL_TIM_ACTIVE_CHANNEL_CLEARED;
 8004764:	687b      	ldr	r3, [r7, #4]
 8004766:	2200      	movs	r2, #0
 8004768:	771a      	strb	r2, [r3, #28]
      }
    }
  }
  /* Capture compare 2 event */
  if (__HAL_TIM_GET_FLAG(htim, TIM_FLAG_CC2) != RESET)
 800476a:	687b      	ldr	r3, [r7, #4]
 800476c:	681b      	ldr	r3, [r3, #0]
 800476e:	691b      	ldr	r3, [r3, #16]
 8004770:	f003 0304 	and.w	r3, r3, #4
 8004774:	2b04      	cmp	r3, #4
 8004776:	d122      	bne.n	80047be <HAL_TIM_IRQHandler+0xb0>
  {
    if (__HAL_TIM_GET_IT_SOURCE(htim, TIM_IT_CC2) != RESET)
 8004778:	687b      	ldr	r3, [r7, #4]
 800477a:	681b      	ldr	r3, [r3, #0]
 800477c:	68db      	ldr	r3, [r3, #12]
 800477e:	f003 0304 	and.w	r3, r3, #4
 8004782:	2b04      	cmp	r3, #4
 8004784:	d11b      	bne.n	80047be <HAL_TIM_IRQHandler+0xb0>
    {
      __HAL_TIM_CLEAR_IT(htim, TIM_IT_CC2);
 8004786:	687b      	ldr	r3, [r7, #4]
 8004788:	681b      	ldr	r3, [r3, #0]
 800478a:	f06f 0204 	mvn.w	r2, #4
 800478e:	611a      	str	r2, [r3, #16]
      htim->Channel = HAL_TIM_ACTIVE_CHANNEL_2;
 8004790:	687b      	ldr	r3, [r7, #4]
 8004792:	2202      	movs	r2, #2
 8004794:	771a      	strb	r2, [r3, #28]
      /* Input capture event */
      if ((htim->Instance->CCMR1 & TIM_CCMR1_CC2S) != 0x00U)
 8004796:	687b      	ldr	r3, [r7, #4]
 8004798:	681b      	ldr	r3, [r3, #0]
 800479a:	699b      	ldr	r3, [r3, #24]
 800479c:	f403 7340 	and.w	r3, r3, #768	; 0x300
 80047a0:	2b00      	cmp	r3, #0
 80047a2:	d003      	beq.n	80047ac <HAL_TIM_IRQHandler+0x9e>
      {
#if (USE_HAL_TIM_REGISTER_CALLBACKS == 1)
        htim->IC_CaptureCallback(htim);
#else
        HAL_TIM_IC_CaptureCallback(htim);
 80047a4:	6878      	ldr	r0, [r7, #4]
 80047a6:	f000 f8c3 	bl	8004930 <HAL_TIM_IC_CaptureCallback>
 80047aa:	e005      	b.n	80047b8 <HAL_TIM_IRQHandler+0xaa>
      {
#if (USE_HAL_TIM_REGISTER_CALLBACKS == 1)
        htim->OC_DelayElapsedCallback(htim);
        htim->PWM_PulseFinishedCallback(htim);
#else
        HAL_TIM_OC_DelayElapsedCallback(htim);
 80047ac:	6878      	ldr	r0, [r7, #4]
 80047ae:	f000 f8b6 	bl	800491e <HAL_TIM_OC_DelayElapsedCallback>
        HAL_TIM_PWM_PulseFinishedCallback(htim);
 80047b2:	6878      	ldr	r0, [r7, #4]
 80047b4:	f000 f8c5 	bl	8004942 <HAL_TIM_PWM_PulseFinishedCallback>
#endif /* USE_HAL_TIM_REGISTER_CALLBACKS */
      }
      htim->Channel = HAL_TIM_ACTIVE_CHANNEL_CLEARED;
 80047b8:	687b      	ldr	r3, [r7, #4]
 80047ba:	2200      	movs	r2, #0
 80047bc:	771a      	strb	r2, [r3, #28]
    }
  }
  /* Capture compare 3 event */
  if (__HAL_TIM_GET_FLAG(htim, TIM_FLAG_CC3) != RESET)
 80047be:	687b      	ldr	r3, [r7, #4]
 80047c0:	681b      	ldr	r3, [r3, #0]
 80047c2:	691b      	ldr	r3, [r3, #16]
 80047c4:	f003 0308 	and.w	r3, r3, #8
 80047c8:	2b08      	cmp	r3, #8
 80047ca:	d122      	bne.n	8004812 <HAL_TIM_IRQHandler+0x104>
  {
    if (__HAL_TIM_GET_IT_SOURCE(htim, TIM_IT_CC3) != RESET)
 80047cc:	687b      	ldr	r3, [r7, #4]
 80047ce:	681b      	ldr	r3, [r3, #0]
 80047d0:	68db      	ldr	r3, [r3, #12]
 80047d2:	f003 0308 	and.w	r3, r3, #8
 80047d6:	2b08      	cmp	r3, #8
 80047d8:	d11b      	bne.n	8004812 <HAL_TIM_IRQHandler+0x104>
    {
      __HAL_TIM_CLEAR_IT(htim, TIM_IT_CC3);
 80047da:	687b      	ldr	r3, [r7, #4]
 80047dc:	681b      	ldr	r3, [r3, #0]
 80047de:	f06f 0208 	mvn.w	r2, #8
 80047e2:	611a      	str	r2, [r3, #16]
      htim->Channel = HAL_TIM_ACTIVE_CHANNEL_3;
 80047e4:	687b      	ldr	r3, [r7, #4]
 80047e6:	2204      	movs	r2, #4
 80047e8:	771a      	strb	r2, [r3, #28]
      /* Input capture event */
      if ((htim->Instance->CCMR2 & TIM_CCMR2_CC3S) != 0x00U)
 80047ea:	687b      	ldr	r3, [r7, #4]
 80047ec:	681b      	ldr	r3, [r3, #0]
 80047ee:	69db      	ldr	r3, [r3, #28]
 80047f0:	f003 0303 	and.w	r3, r3, #3
 80047f4:	2b00      	cmp	r3, #0
 80047f6:	d003      	beq.n	8004800 <HAL_TIM_IRQHandler+0xf2>
      {
#if (USE_HAL_TIM_REGISTER_CALLBACKS == 1)
        htim->IC_CaptureCallback(htim);
#else
        HAL_TIM_IC_CaptureCallback(htim);
 80047f8:	6878      	ldr	r0, [r7, #4]
 80047fa:	f000 f899 	bl	8004930 <HAL_TIM_IC_CaptureCallback>
 80047fe:	e005      	b.n	800480c <HAL_TIM_IRQHandler+0xfe>
      {
#if (USE_HAL_TIM_REGISTER_CALLBACKS == 1)
        htim->OC_DelayElapsedCallback(htim);
        htim->PWM_PulseFinishedCallback(htim);
#else
        HAL_TIM_OC_DelayElapsedCallback(htim);
 8004800:	6878      	ldr	r0, [r7, #4]
 8004802:	f000 f88c 	bl	800491e <HAL_TIM_OC_DelayElapsedCallback>
        HAL_TIM_PWM_PulseFinishedCallback(htim);
 8004806:	6878      	ldr	r0, [r7, #4]
 8004808:	f000 f89b 	bl	8004942 <HAL_TIM_PWM_PulseFinishedCallback>
#endif /* USE_HAL_TIM_REGISTER_CALLBACKS */
      }
      htim->Channel = HAL_TIM_ACTIVE_CHANNEL_CLEARED;
 800480c:	687b      	ldr	r3, [r7, #4]
 800480e:	2200      	movs	r2, #0
 8004810:	771a      	strb	r2, [r3, #28]
    }
  }
  /* Capture compare 4 event */
  if (__HAL_TIM_GET_FLAG(htim, TIM_FLAG_CC4) != RESET)
 8004812:	687b      	ldr	r3, [r7, #4]
 8004814:	681b      	ldr	r3, [r3, #0]
 8004816:	691b      	ldr	r3, [r3, #16]
 8004818:	f003 0310 	and.w	r3, r3, #16
 800481c:	2b10      	cmp	r3, #16
 800481e:	d122      	bne.n	8004866 <HAL_TIM_IRQHandler+0x158>
  {
    if (__HAL_TIM_GET_IT_SOURCE(htim, TIM_IT_CC4) != RESET)
 8004820:	687b      	ldr	r3, [r7, #4]
 8004822:	681b      	ldr	r3, [r3, #0]
 8004824:	68db      	ldr	r3, [r3, #12]
 8004826:	f003 0310 	and.w	r3, r3, #16
 800482a:	2b10      	cmp	r3, #16
 800482c:	d11b      	bne.n	8004866 <HAL_TIM_IRQHandler+0x158>
    {
      __HAL_TIM_CLEAR_IT(htim, TIM_IT_CC4);
 800482e:	687b      	ldr	r3, [r7, #4]
 8004830:	681b      	ldr	r3, [r3, #0]
 8004832:	f06f 0210 	mvn.w	r2, #16
 8004836:	611a      	str	r2, [r3, #16]
      htim->Channel = HAL_TIM_ACTIVE_CHANNEL_4;
 8004838:	687b      	ldr	r3, [r7, #4]
 800483a:	2208      	movs	r2, #8
 800483c:	771a      	strb	r2, [r3, #28]
      /* Input capture event */
      if ((htim->Instance->CCMR2 & TIM_CCMR2_CC4S) != 0x00U)
 800483e:	687b      	ldr	r3, [r7, #4]
 8004840:	681b      	ldr	r3, [r3, #0]
 8004842:	69db      	ldr	r3, [r3, #28]
 8004844:	f403 7340 	and.w	r3, r3, #768	; 0x300
 8004848:	2b00      	cmp	r3, #0
 800484a:	d003      	beq.n	8004854 <HAL_TIM_IRQHandler+0x146>
      {
#if (USE_HAL_TIM_REGISTER_CALLBACKS == 1)
        htim->IC_CaptureCallback(htim);
#else
        HAL_TIM_IC_CaptureCallback(htim);
 800484c:	6878      	ldr	r0, [r7, #4]
 800484e:	f000 f86f 	bl	8004930 <HAL_TIM_IC_CaptureCallback>
 8004852:	e005      	b.n	8004860 <HAL_TIM_IRQHandler+0x152>
      {
#if (USE_HAL_TIM_REGISTER_CALLBACKS == 1)
        htim->OC_DelayElapsedCallback(htim);
        htim->PWM_PulseFinishedCallback(htim);
#else
        HAL_TIM_OC_DelayElapsedCallback(htim);
 8004854:	6878      	ldr	r0, [r7, #4]
 8004856:	f000 f862 	bl	800491e <HAL_TIM_OC_DelayElapsedCallback>
        HAL_TIM_PWM_PulseFinishedCallback(htim);
 800485a:	6878      	ldr	r0, [r7, #4]
 800485c:	f000 f871 	bl	8004942 <HAL_TIM_PWM_PulseFinishedCallback>
#endif /* USE_HAL_TIM_REGISTER_CALLBACKS */
      }
      htim->Channel = HAL_TIM_ACTIVE_CHANNEL_CLEARED;
 8004860:	687b      	ldr	r3, [r7, #4]
 8004862:	2200      	movs	r2, #0
 8004864:	771a      	strb	r2, [r3, #28]
    }
  }
  /* TIM Update event */
  if (__HAL_TIM_GET_FLAG(htim, TIM_FLAG_UPDATE) != RESET)
 8004866:	687b      	ldr	r3, [r7, #4]
 8004868:	681b      	ldr	r3, [r3, #0]
 800486a:	691b      	ldr	r3, [r3, #16]
 800486c:	f003 0301 	and.w	r3, r3, #1
 8004870:	2b01      	cmp	r3, #1
 8004872:	d10e      	bne.n	8004892 <HAL_TIM_IRQHandler+0x184>
  {
    if (__HAL_TIM_GET_IT_SOURCE(htim, TIM_IT_UPDATE) != RESET)
 8004874:	687b      	ldr	r3, [r7, #4]
 8004876:	681b      	ldr	r3, [r3, #0]
 8004878:	68db      	ldr	r3, [r3, #12]
 800487a:	f003 0301 	and.w	r3, r3, #1
 800487e:	2b01      	cmp	r3, #1
 8004880:	d107      	bne.n	8004892 <HAL_TIM_IRQHandler+0x184>
    {
      __HAL_TIM_CLEAR_IT(htim, TIM_IT_UPDATE);
 8004882:	687b      	ldr	r3, [r7, #4]
 8004884:	681b      	ldr	r3, [r3, #0]
 8004886:	f06f 0201 	mvn.w	r2, #1
 800488a:	611a      	str	r2, [r3, #16]
#if (USE_HAL_TIM_REGISTER_CALLBACKS == 1)
      htim->PeriodElapsedCallback(htim);
#else
      HAL_TIM_PeriodElapsedCallback(htim);
 800488c:	6878      	ldr	r0, [r7, #4]
 800488e:	f7fc fa67 	bl	8000d60 <HAL_TIM_PeriodElapsedCallback>
#endif /* USE_HAL_TIM_REGISTER_CALLBACKS */
    }
  }
  /* TIM Break input event */
  if (__HAL_TIM_GET_FLAG(htim, TIM_FLAG_BREAK) != RESET)
 8004892:	687b      	ldr	r3, [r7, #4]
 8004894:	681b      	ldr	r3, [r3, #0]
 8004896:	691b      	ldr	r3, [r3, #16]
 8004898:	f003 0380 	and.w	r3, r3, #128	; 0x80
 800489c:	2b80      	cmp	r3, #128	; 0x80
 800489e:	d10e      	bne.n	80048be <HAL_TIM_IRQHandler+0x1b0>
  {
    if (__HAL_TIM_GET_IT_SOURCE(htim, TIM_IT_BREAK) != RESET)
 80048a0:	687b      	ldr	r3, [r7, #4]
 80048a2:	681b      	ldr	r3, [r3, #0]
 80048a4:	68db      	ldr	r3, [r3, #12]
 80048a6:	f003 0380 	and.w	r3, r3, #128	; 0x80
 80048aa:	2b80      	cmp	r3, #128	; 0x80
 80048ac:	d107      	bne.n	80048be <HAL_TIM_IRQHandler+0x1b0>
    {
      __HAL_TIM_CLEAR_IT(htim, TIM_IT_BREAK);
 80048ae:	687b      	ldr	r3, [r7, #4]
 80048b0:	681b      	ldr	r3, [r3, #0]
 80048b2:	f06f 0280 	mvn.w	r2, #128	; 0x80
 80048b6:	611a      	str	r2, [r3, #16]
#if (USE_HAL_TIM_REGISTER_CALLBACKS == 1)
      htim->BreakCallback(htim);
#else
      HAL_TIMEx_BreakCallback(htim);
 80048b8:	6878      	ldr	r0, [r7, #4]
 80048ba:	f000 f8c0 	bl	8004a3e <HAL_TIMEx_BreakCallback>
#endif /* USE_HAL_TIM_REGISTER_CALLBACKS */
    }
  }
  /* TIM Trigger detection event */
  if (__HAL_TIM_GET_FLAG(htim, TIM_FLAG_TRIGGER) != RESET)
 80048be:	687b      	ldr	r3, [r7, #4]
 80048c0:	681b      	ldr	r3, [r3, #0]
 80048c2:	691b      	ldr	r3, [r3, #16]
 80048c4:	f003 0340 	and.w	r3, r3, #64	; 0x40
 80048c8:	2b40      	cmp	r3, #64	; 0x40
 80048ca:	d10e      	bne.n	80048ea <HAL_TIM_IRQHandler+0x1dc>
  {
    if (__HAL_TIM_GET_IT_SOURCE(htim, TIM_IT_TRIGGER) != RESET)
 80048cc:	687b      	ldr	r3, [r7, #4]
 80048ce:	681b      	ldr	r3, [r3, #0]
 80048d0:	68db      	ldr	r3, [r3, #12]
 80048d2:	f003 0340 	and.w	r3, r3, #64	; 0x40
 80048d6:	2b40      	cmp	r3, #64	; 0x40
 80048d8:	d107      	bne.n	80048ea <HAL_TIM_IRQHandler+0x1dc>
    {
      __HAL_TIM_CLEAR_IT(htim, TIM_IT_TRIGGER);
 80048da:	687b      	ldr	r3, [r7, #4]
 80048dc:	681b      	ldr	r3, [r3, #0]
 80048de:	f06f 0240 	mvn.w	r2, #64	; 0x40
 80048e2:	611a      	str	r2, [r3, #16]
#if (USE_HAL_TIM_REGISTER_CALLBACKS == 1)
      htim->TriggerCallback(htim);
#else
      HAL_TIM_TriggerCallback(htim);
 80048e4:	6878      	ldr	r0, [r7, #4]
 80048e6:	f000 f835 	bl	8004954 <HAL_TIM_TriggerCallback>
#endif /* USE_HAL_TIM_REGISTER_CALLBACKS */
    }
  }
  /* TIM commutation event */
  if (__HAL_TIM_GET_FLAG(htim, TIM_FLAG_COM) != RESET)
 80048ea:	687b      	ldr	r3, [r7, #4]
 80048ec:	681b      	ldr	r3, [r3, #0]
 80048ee:	691b      	ldr	r3, [r3, #16]
 80048f0:	f003 0320 	and.w	r3, r3, #32
 80048f4:	2b20      	cmp	r3, #32
 80048f6:	d10e      	bne.n	8004916 <HAL_TIM_IRQHandler+0x208>
  {
    if (__HAL_TIM_GET_IT_SOURCE(htim, TIM_IT_COM) != RESET)
 80048f8:	687b      	ldr	r3, [r7, #4]
 80048fa:	681b      	ldr	r3, [r3, #0]
 80048fc:	68db      	ldr	r3, [r3, #12]
 80048fe:	f003 0320 	and.w	r3, r3, #32
 8004902:	2b20      	cmp	r3, #32
 8004904:	d107      	bne.n	8004916 <HAL_TIM_IRQHandler+0x208>
    {
      __HAL_TIM_CLEAR_IT(htim, TIM_FLAG_COM);
 8004906:	687b      	ldr	r3, [r7, #4]
 8004908:	681b      	ldr	r3, [r3, #0]
 800490a:	f06f 0220 	mvn.w	r2, #32
 800490e:	611a      	str	r2, [r3, #16]
#if (USE_HAL_TIM_REGISTER_CALLBACKS == 1)
      htim->CommutationCallback(htim);
#else
      HAL_TIMEx_CommutCallback(htim);
 8004910:	6878      	ldr	r0, [r7, #4]
 8004912:	f000 f88b 	bl	8004a2c <HAL_TIMEx_CommutCallback>
#endif /* USE_HAL_TIM_REGISTER_CALLBACKS */
    }
  }
}
 8004916:	bf00      	nop
 8004918:	3708      	adds	r7, #8
 800491a:	46bd      	mov	sp, r7
 800491c:	bd80      	pop	{r7, pc}

0800491e <HAL_TIM_OC_DelayElapsedCallback>:
  * @brief  Output Compare callback in non-blocking mode
  * @param  htim TIM OC handle
  * @retval None
  */
__weak void HAL_TIM_OC_DelayElapsedCallback(TIM_HandleTypeDef *htim)
{
 800491e:	b480      	push	{r7}
 8004920:	b083      	sub	sp, #12
 8004922:	af00      	add	r7, sp, #0
 8004924:	6078      	str	r0, [r7, #4]
  UNUSED(htim);

  /* NOTE : This function should not be modified, when the callback is needed,
            the HAL_TIM_OC_DelayElapsedCallback could be implemented in the user file
   */
}
 8004926:	bf00      	nop
 8004928:	370c      	adds	r7, #12
 800492a:	46bd      	mov	sp, r7
 800492c:	bc80      	pop	{r7}
 800492e:	4770      	bx	lr

08004930 <HAL_TIM_IC_CaptureCallback>:
  * @brief  Input Capture callback in non-blocking mode
  * @param  htim TIM IC handle
  * @retval None
  */
__weak void HAL_TIM_IC_CaptureCallback(TIM_HandleTypeDef *htim)
{
 8004930:	b480      	push	{r7}
 8004932:	b083      	sub	sp, #12
 8004934:	af00      	add	r7, sp, #0
 8004936:	6078      	str	r0, [r7, #4]
  UNUSED(htim);

  /* NOTE : This function should not be modified, when the callback is needed,
            the HAL_TIM_IC_CaptureCallback could be implemented in the user file
   */
}
 8004938:	bf00      	nop
 800493a:	370c      	adds	r7, #12
 800493c:	46bd      	mov	sp, r7
 800493e:	bc80      	pop	{r7}
 8004940:	4770      	bx	lr

08004942 <HAL_TIM_PWM_PulseFinishedCallback>:
  * @brief  PWM Pulse finished callback in non-blocking mode
  * @param  htim TIM handle
  * @retval None
  */
__weak void HAL_TIM_PWM_PulseFinishedCallback(TIM_HandleTypeDef *htim)
{
 8004942:	b480      	push	{r7}
 8004944:	b083      	sub	sp, #12
 8004946:	af00      	add	r7, sp, #0
 8004948:	6078      	str	r0, [r7, #4]
  UNUSED(htim);

  /* NOTE : This function should not be modified, when the callback is needed,
            the HAL_TIM_PWM_PulseFinishedCallback could be implemented in the user file
   */
}
 800494a:	bf00      	nop
 800494c:	370c      	adds	r7, #12
 800494e:	46bd      	mov	sp, r7
 8004950:	bc80      	pop	{r7}
 8004952:	4770      	bx	lr

08004954 <HAL_TIM_TriggerCallback>:
  * @brief  Hall Trigger detection callback in non-blocking mode
  * @param  htim TIM handle
  * @retval None
  */
__weak void HAL_TIM_TriggerCallback(TIM_HandleTypeDef *htim)
{
 8004954:	b480      	push	{r7}
 8004956:	b083      	sub	sp, #12
 8004958:	af00      	add	r7, sp, #0
 800495a:	6078      	str	r0, [r7, #4]
  UNUSED(htim);

  /* NOTE : This function should not be modified, when the callback is needed,
            the HAL_TIM_TriggerCallback could be implemented in the user file
   */
}
 800495c:	bf00      	nop
 800495e:	370c      	adds	r7, #12
 8004960:	46bd      	mov	sp, r7
 8004962:	bc80      	pop	{r7}
 8004964:	4770      	bx	lr
	...

08004968 <TIM_Base_SetConfig>:
  * @param  TIMx TIM peripheral
  * @param  Structure TIM Base configuration structure
  * @retval None
  */
void TIM_Base_SetConfig(TIM_TypeDef *TIMx, TIM_Base_InitTypeDef *Structure)
{
 8004968:	b480      	push	{r7}
 800496a:	b085      	sub	sp, #20
 800496c:	af00      	add	r7, sp, #0
 800496e:	6078      	str	r0, [r7, #4]
 8004970:	6039      	str	r1, [r7, #0]
  uint32_t tmpcr1;
  tmpcr1 = TIMx->CR1;
 8004972:	687b      	ldr	r3, [r7, #4]
 8004974:	681b      	ldr	r3, [r3, #0]
 8004976:	60fb      	str	r3, [r7, #12]

  /* Set TIM Time Base Unit parameters ---------------------------------------*/
  if (IS_TIM_COUNTER_MODE_SELECT_INSTANCE(TIMx))
 8004978:	687b      	ldr	r3, [r7, #4]
 800497a:	4a29      	ldr	r2, [pc, #164]	; (8004a20 <TIM_Base_SetConfig+0xb8>)
 800497c:	4293      	cmp	r3, r2
 800497e:	d00b      	beq.n	8004998 <TIM_Base_SetConfig+0x30>
 8004980:	687b      	ldr	r3, [r7, #4]
 8004982:	f1b3 4f80 	cmp.w	r3, #1073741824	; 0x40000000
 8004986:	d007      	beq.n	8004998 <TIM_Base_SetConfig+0x30>
 8004988:	687b      	ldr	r3, [r7, #4]
 800498a:	4a26      	ldr	r2, [pc, #152]	; (8004a24 <TIM_Base_SetConfig+0xbc>)
 800498c:	4293      	cmp	r3, r2
 800498e:	d003      	beq.n	8004998 <TIM_Base_SetConfig+0x30>
 8004990:	687b      	ldr	r3, [r7, #4]
 8004992:	4a25      	ldr	r2, [pc, #148]	; (8004a28 <TIM_Base_SetConfig+0xc0>)
 8004994:	4293      	cmp	r3, r2
 8004996:	d108      	bne.n	80049aa <TIM_Base_SetConfig+0x42>
  {
    /* Select the Counter Mode */
    tmpcr1 &= ~(TIM_CR1_DIR | TIM_CR1_CMS);
 8004998:	68fb      	ldr	r3, [r7, #12]
 800499a:	f023 0370 	bic.w	r3, r3, #112	; 0x70
 800499e:	60fb      	str	r3, [r7, #12]
    tmpcr1 |= Structure->CounterMode;
 80049a0:	683b      	ldr	r3, [r7, #0]
 80049a2:	685b      	ldr	r3, [r3, #4]
 80049a4:	68fa      	ldr	r2, [r7, #12]
 80049a6:	4313      	orrs	r3, r2
 80049a8:	60fb      	str	r3, [r7, #12]
  }

  if (IS_TIM_CLOCK_DIVISION_INSTANCE(TIMx))
 80049aa:	687b      	ldr	r3, [r7, #4]
 80049ac:	4a1c      	ldr	r2, [pc, #112]	; (8004a20 <TIM_Base_SetConfig+0xb8>)
 80049ae:	4293      	cmp	r3, r2
 80049b0:	d00b      	beq.n	80049ca <TIM_Base_SetConfig+0x62>
 80049b2:	687b      	ldr	r3, [r7, #4]
 80049b4:	f1b3 4f80 	cmp.w	r3, #1073741824	; 0x40000000
 80049b8:	d007      	beq.n	80049ca <TIM_Base_SetConfig+0x62>
 80049ba:	687b      	ldr	r3, [r7, #4]
 80049bc:	4a19      	ldr	r2, [pc, #100]	; (8004a24 <TIM_Base_SetConfig+0xbc>)
 80049be:	4293      	cmp	r3, r2
 80049c0:	d003      	beq.n	80049ca <TIM_Base_SetConfig+0x62>
 80049c2:	687b      	ldr	r3, [r7, #4]
 80049c4:	4a18      	ldr	r2, [pc, #96]	; (8004a28 <TIM_Base_SetConfig+0xc0>)
 80049c6:	4293      	cmp	r3, r2
 80049c8:	d108      	bne.n	80049dc <TIM_Base_SetConfig+0x74>
  {
    /* Set the clock division */
    tmpcr1 &= ~TIM_CR1_CKD;
 80049ca:	68fb      	ldr	r3, [r7, #12]
 80049cc:	f423 7340 	bic.w	r3, r3, #768	; 0x300
 80049d0:	60fb      	str	r3, [r7, #12]
    tmpcr1 |= (uint32_t)Structure->ClockDivision;
 80049d2:	683b      	ldr	r3, [r7, #0]
 80049d4:	68db      	ldr	r3, [r3, #12]
 80049d6:	68fa      	ldr	r2, [r7, #12]
 80049d8:	4313      	orrs	r3, r2
 80049da:	60fb      	str	r3, [r7, #12]
  }

  /* Set the auto-reload preload */
  MODIFY_REG(tmpcr1, TIM_CR1_ARPE, Structure->AutoReloadPreload);
 80049dc:	68fb      	ldr	r3, [r7, #12]
 80049de:	f023 0280 	bic.w	r2, r3, #128	; 0x80
 80049e2:	683b      	ldr	r3, [r7, #0]
 80049e4:	695b      	ldr	r3, [r3, #20]
 80049e6:	4313      	orrs	r3, r2
 80049e8:	60fb      	str	r3, [r7, #12]

  TIMx->CR1 = tmpcr1;
 80049ea:	687b      	ldr	r3, [r7, #4]
 80049ec:	68fa      	ldr	r2, [r7, #12]
 80049ee:	601a      	str	r2, [r3, #0]

  /* Set the Autoreload value */
  TIMx->ARR = (uint32_t)Structure->Period ;
 80049f0:	683b      	ldr	r3, [r7, #0]
 80049f2:	689a      	ldr	r2, [r3, #8]
 80049f4:	687b      	ldr	r3, [r7, #4]
 80049f6:	62da      	str	r2, [r3, #44]	; 0x2c

  /* Set the Prescaler value */
  TIMx->PSC = Structure->Prescaler;
 80049f8:	683b      	ldr	r3, [r7, #0]
 80049fa:	681a      	ldr	r2, [r3, #0]
 80049fc:	687b      	ldr	r3, [r7, #4]
 80049fe:	629a      	str	r2, [r3, #40]	; 0x28

  if (IS_TIM_REPETITION_COUNTER_INSTANCE(TIMx))
 8004a00:	687b      	ldr	r3, [r7, #4]
 8004a02:	4a07      	ldr	r2, [pc, #28]	; (8004a20 <TIM_Base_SetConfig+0xb8>)
 8004a04:	4293      	cmp	r3, r2
 8004a06:	d103      	bne.n	8004a10 <TIM_Base_SetConfig+0xa8>
  {
    /* Set the Repetition Counter value */
    TIMx->RCR = Structure->RepetitionCounter;
 8004a08:	683b      	ldr	r3, [r7, #0]
 8004a0a:	691a      	ldr	r2, [r3, #16]
 8004a0c:	687b      	ldr	r3, [r7, #4]
 8004a0e:	631a      	str	r2, [r3, #48]	; 0x30
  }

  /* Generate an update event to reload the Prescaler
     and the repetition counter (only for advanced timer) value immediately */
  TIMx->EGR = TIM_EGR_UG;
 8004a10:	687b      	ldr	r3, [r7, #4]
 8004a12:	2201      	movs	r2, #1
 8004a14:	615a      	str	r2, [r3, #20]
}
 8004a16:	bf00      	nop
 8004a18:	3714      	adds	r7, #20
 8004a1a:	46bd      	mov	sp, r7
 8004a1c:	bc80      	pop	{r7}
 8004a1e:	4770      	bx	lr
 8004a20:	40012c00 	.word	0x40012c00
 8004a24:	40000400 	.word	0x40000400
 8004a28:	40000800 	.word	0x40000800

08004a2c <HAL_TIMEx_CommutCallback>:
  * @brief  Hall commutation changed callback in non-blocking mode
  * @param  htim TIM handle
  * @retval None
  */
__weak void HAL_TIMEx_CommutCallback(TIM_HandleTypeDef *htim)
{
 8004a2c:	b480      	push	{r7}
 8004a2e:	b083      	sub	sp, #12
 8004a30:	af00      	add	r7, sp, #0
 8004a32:	6078      	str	r0, [r7, #4]
  UNUSED(htim);

  /* NOTE : This function should not be modified, when the callback is needed,
            the HAL_TIMEx_CommutCallback could be implemented in the user file
   */
}
 8004a34:	bf00      	nop
 8004a36:	370c      	adds	r7, #12
 8004a38:	46bd      	mov	sp, r7
 8004a3a:	bc80      	pop	{r7}
 8004a3c:	4770      	bx	lr

08004a3e <HAL_TIMEx_BreakCallback>:
  * @brief  Hall Break detection callback in non-blocking mode
  * @param  htim TIM handle
  * @retval None
  */
__weak void HAL_TIMEx_BreakCallback(TIM_HandleTypeDef *htim)
{
 8004a3e:	b480      	push	{r7}
 8004a40:	b083      	sub	sp, #12
 8004a42:	af00      	add	r7, sp, #0
 8004a44:	6078      	str	r0, [r7, #4]
  UNUSED(htim);

  /* NOTE : This function should not be modified, when the callback is needed,
            the HAL_TIMEx_BreakCallback could be implemented in the user file
   */
}
 8004a46:	bf00      	nop
 8004a48:	370c      	adds	r7, #12
 8004a4a:	46bd      	mov	sp, r7
 8004a4c:	bc80      	pop	{r7}
 8004a4e:	4770      	bx	lr

08004a50 <Reset_Handler>:
  .weak Reset_Handler
  .type Reset_Handler, %function
Reset_Handler:

/* Copy the data segment initializers from flash to SRAM */
  movs r1, #0
 8004a50:	2100      	movs	r1, #0
  b LoopCopyDataInit
 8004a52:	e003      	b.n	8004a5c <LoopCopyDataInit>

08004a54 <CopyDataInit>:

CopyDataInit:
  ldr r3, =_sidata
 8004a54:	4b0b      	ldr	r3, [pc, #44]	; (8004a84 <LoopFillZerobss+0x14>)
  ldr r3, [r3, r1]
 8004a56:	585b      	ldr	r3, [r3, r1]
  str r3, [r0, r1]
 8004a58:	5043      	str	r3, [r0, r1]
  adds r1, r1, #4
 8004a5a:	3104      	adds	r1, #4

08004a5c <LoopCopyDataInit>:

LoopCopyDataInit:
  ldr r0, =_sdata
 8004a5c:	480a      	ldr	r0, [pc, #40]	; (8004a88 <LoopFillZerobss+0x18>)
  ldr r3, =_edata
 8004a5e:	4b0b      	ldr	r3, [pc, #44]	; (8004a8c <LoopFillZerobss+0x1c>)
  adds r2, r0, r1
 8004a60:	1842      	adds	r2, r0, r1
  cmp r2, r3
 8004a62:	429a      	cmp	r2, r3
  bcc CopyDataInit
 8004a64:	d3f6      	bcc.n	8004a54 <CopyDataInit>
  ldr r2, =_sbss
 8004a66:	4a0a      	ldr	r2, [pc, #40]	; (8004a90 <LoopFillZerobss+0x20>)
  b LoopFillZerobss
 8004a68:	e002      	b.n	8004a70 <LoopFillZerobss>

08004a6a <FillZerobss>:
/* Zero fill the bss segment. */
FillZerobss:
  movs r3, #0
 8004a6a:	2300      	movs	r3, #0
  str r3, [r2], #4
 8004a6c:	f842 3b04 	str.w	r3, [r2], #4

08004a70 <LoopFillZerobss>:

LoopFillZerobss:
  ldr r3, = _ebss
 8004a70:	4b08      	ldr	r3, [pc, #32]	; (8004a94 <LoopFillZerobss+0x24>)
  cmp r2, r3
 8004a72:	429a      	cmp	r2, r3
  bcc FillZerobss
 8004a74:	d3f9      	bcc.n	8004a6a <FillZerobss>

/* Call the clock system intitialization function.*/
    bl  SystemInit
 8004a76:	f7fc fbab 	bl	80011d0 <SystemInit>
/* Call static constructors */
    bl __libc_init_array
 8004a7a:	f001 fb17 	bl	80060ac <__libc_init_array>
/* Call the application's entry point.*/
  bl main
 8004a7e:	f7fb fc89 	bl	8000394 <main>
  bx lr
 8004a82:	4770      	bx	lr
  ldr r3, =_sidata
 8004a84:	08006194 	.word	0x08006194
  ldr r0, =_sdata
 8004a88:	20000000 	.word	0x20000000
  ldr r3, =_edata
 8004a8c:	20000010 	.word	0x20000010
  ldr r2, =_sbss
 8004a90:	20000010 	.word	0x20000010
  ldr r3, = _ebss
 8004a94:	20001d60 	.word	0x20001d60

08004a98 <ADC1_2_IRQHandler>:
 * @retval : None
*/
    .section .text.Default_Handler,"ax",%progbits
Default_Handler:
Infinite_Loop:
  b Infinite_Loop
 8004a98:	e7fe      	b.n	8004a98 <ADC1_2_IRQHandler>

08004a9a <vListInitialise>:
/*-----------------------------------------------------------
 * PUBLIC LIST API documented in list.h
 *----------------------------------------------------------*/

void vListInitialise( List_t * const pxList )
{
 8004a9a:	b480      	push	{r7}
 8004a9c:	b083      	sub	sp, #12
 8004a9e:	af00      	add	r7, sp, #0
 8004aa0:	6078      	str	r0, [r7, #4]
	/* The list structure contains a list item which is used to mark the
	end of the list.  To initialise the list the list end is inserted
	as the only list entry. */
	pxList->pxIndex = ( ListItem_t * ) &( pxList->xListEnd );			/*lint !e826 !e740 The mini list structure is used as the list end to save RAM.  This is checked and valid. */
 8004aa2:	687b      	ldr	r3, [r7, #4]
 8004aa4:	f103 0208 	add.w	r2, r3, #8
 8004aa8:	687b      	ldr	r3, [r7, #4]
 8004aaa:	605a      	str	r2, [r3, #4]

	/* The list end value is the highest possible value in the list to
	ensure it remains at the end of the list. */
	pxList->xListEnd.xItemValue = portMAX_DELAY;
 8004aac:	687b      	ldr	r3, [r7, #4]
 8004aae:	f04f 32ff 	mov.w	r2, #4294967295
 8004ab2:	609a      	str	r2, [r3, #8]

	/* The list end next and previous pointers point to itself so we know
	when the list is empty. */
	pxList->xListEnd.pxNext = ( ListItem_t * ) &( pxList->xListEnd );	/*lint !e826 !e740 The mini list structure is used as the list end to save RAM.  This is checked and valid. */
 8004ab4:	687b      	ldr	r3, [r7, #4]
 8004ab6:	f103 0208 	add.w	r2, r3, #8
 8004aba:	687b      	ldr	r3, [r7, #4]
 8004abc:	60da      	str	r2, [r3, #12]
	pxList->xListEnd.pxPrevious = ( ListItem_t * ) &( pxList->xListEnd );/*lint !e826 !e740 The mini list structure is used as the list end to save RAM.  This is checked and valid. */
 8004abe:	687b      	ldr	r3, [r7, #4]
 8004ac0:	f103 0208 	add.w	r2, r3, #8
 8004ac4:	687b      	ldr	r3, [r7, #4]
 8004ac6:	611a      	str	r2, [r3, #16]

	pxList->uxNumberOfItems = ( UBaseType_t ) 0U;
 8004ac8:	687b      	ldr	r3, [r7, #4]
 8004aca:	2200      	movs	r2, #0
 8004acc:	601a      	str	r2, [r3, #0]

	/* Write known values into the list if
	configUSE_LIST_DATA_INTEGRITY_CHECK_BYTES is set to 1. */
	listSET_LIST_INTEGRITY_CHECK_1_VALUE( pxList );
	listSET_LIST_INTEGRITY_CHECK_2_VALUE( pxList );
}
 8004ace:	bf00      	nop
 8004ad0:	370c      	adds	r7, #12
 8004ad2:	46bd      	mov	sp, r7
 8004ad4:	bc80      	pop	{r7}
 8004ad6:	4770      	bx	lr

08004ad8 <vListInitialiseItem>:
/*-----------------------------------------------------------*/

void vListInitialiseItem( ListItem_t * const pxItem )
{
 8004ad8:	b480      	push	{r7}
 8004ada:	b083      	sub	sp, #12
 8004adc:	af00      	add	r7, sp, #0
 8004ade:	6078      	str	r0, [r7, #4]
	/* Make sure the list item is not recorded as being on a list. */
	pxItem->pvContainer = NULL;
 8004ae0:	687b      	ldr	r3, [r7, #4]
 8004ae2:	2200      	movs	r2, #0
 8004ae4:	611a      	str	r2, [r3, #16]

	/* Write known values into the list item if
	configUSE_LIST_DATA_INTEGRITY_CHECK_BYTES is set to 1. */
	listSET_FIRST_LIST_ITEM_INTEGRITY_CHECK_VALUE( pxItem );
	listSET_SECOND_LIST_ITEM_INTEGRITY_CHECK_VALUE( pxItem );
}
 8004ae6:	bf00      	nop
 8004ae8:	370c      	adds	r7, #12
 8004aea:	46bd      	mov	sp, r7
 8004aec:	bc80      	pop	{r7}
 8004aee:	4770      	bx	lr

08004af0 <vListInsertEnd>:
/*-----------------------------------------------------------*/

void vListInsertEnd( List_t * const pxList, ListItem_t * const pxNewListItem )
{
 8004af0:	b480      	push	{r7}
 8004af2:	b085      	sub	sp, #20
 8004af4:	af00      	add	r7, sp, #0
 8004af6:	6078      	str	r0, [r7, #4]
 8004af8:	6039      	str	r1, [r7, #0]
ListItem_t * const pxIndex = pxList->pxIndex;
 8004afa:	687b      	ldr	r3, [r7, #4]
 8004afc:	685b      	ldr	r3, [r3, #4]
 8004afe:	60fb      	str	r3, [r7, #12]
	listTEST_LIST_ITEM_INTEGRITY( pxNewListItem );

	/* Insert a new list item into pxList, but rather than sort the list,
	makes the new list item the last item to be removed by a call to
	listGET_OWNER_OF_NEXT_ENTRY(). */
	pxNewListItem->pxNext = pxIndex;
 8004b00:	683b      	ldr	r3, [r7, #0]
 8004b02:	68fa      	ldr	r2, [r7, #12]
 8004b04:	605a      	str	r2, [r3, #4]
	pxNewListItem->pxPrevious = pxIndex->pxPrevious;
 8004b06:	68fb      	ldr	r3, [r7, #12]
 8004b08:	689a      	ldr	r2, [r3, #8]
 8004b0a:	683b      	ldr	r3, [r7, #0]
 8004b0c:	609a      	str	r2, [r3, #8]

	/* Only used during decision coverage testing. */
	mtCOVERAGE_TEST_DELAY();

	pxIndex->pxPrevious->pxNext = pxNewListItem;
 8004b0e:	68fb      	ldr	r3, [r7, #12]
 8004b10:	689b      	ldr	r3, [r3, #8]
 8004b12:	683a      	ldr	r2, [r7, #0]
 8004b14:	605a      	str	r2, [r3, #4]
	pxIndex->pxPrevious = pxNewListItem;
 8004b16:	68fb      	ldr	r3, [r7, #12]
 8004b18:	683a      	ldr	r2, [r7, #0]
 8004b1a:	609a      	str	r2, [r3, #8]

	/* Remember which list the item is in. */
	pxNewListItem->pvContainer = ( void * ) pxList;
 8004b1c:	683b      	ldr	r3, [r7, #0]
 8004b1e:	687a      	ldr	r2, [r7, #4]
 8004b20:	611a      	str	r2, [r3, #16]

	( pxList->uxNumberOfItems )++;
 8004b22:	687b      	ldr	r3, [r7, #4]
 8004b24:	681b      	ldr	r3, [r3, #0]
 8004b26:	1c5a      	adds	r2, r3, #1
 8004b28:	687b      	ldr	r3, [r7, #4]
 8004b2a:	601a      	str	r2, [r3, #0]
}
 8004b2c:	bf00      	nop
 8004b2e:	3714      	adds	r7, #20
 8004b30:	46bd      	mov	sp, r7
 8004b32:	bc80      	pop	{r7}
 8004b34:	4770      	bx	lr

08004b36 <vListInsert>:
/*-----------------------------------------------------------*/

void vListInsert( List_t * const pxList, ListItem_t * const pxNewListItem )
{
 8004b36:	b480      	push	{r7}
 8004b38:	b085      	sub	sp, #20
 8004b3a:	af00      	add	r7, sp, #0
 8004b3c:	6078      	str	r0, [r7, #4]
 8004b3e:	6039      	str	r1, [r7, #0]
ListItem_t *pxIterator;
const TickType_t xValueOfInsertion = pxNewListItem->xItemValue;
 8004b40:	683b      	ldr	r3, [r7, #0]
 8004b42:	681b      	ldr	r3, [r3, #0]
 8004b44:	60bb      	str	r3, [r7, #8]
	new list item should be placed after it.  This ensures that TCB's which are
	stored in ready lists (all of which have the same xItemValue value) get a
	share of the CPU.  However, if the xItemValue is the same as the back marker
	the iteration loop below will not end.  Therefore the value is checked
	first, and the algorithm slightly modified if necessary. */
	if( xValueOfInsertion == portMAX_DELAY )
 8004b46:	68bb      	ldr	r3, [r7, #8]
 8004b48:	f1b3 3fff 	cmp.w	r3, #4294967295
 8004b4c:	d103      	bne.n	8004b56 <vListInsert+0x20>
	{
		pxIterator = pxList->xListEnd.pxPrevious;
 8004b4e:	687b      	ldr	r3, [r7, #4]
 8004b50:	691b      	ldr	r3, [r3, #16]
 8004b52:	60fb      	str	r3, [r7, #12]
 8004b54:	e00c      	b.n	8004b70 <vListInsert+0x3a>
			4) Using a queue or semaphore before it has been initialised or
			   before the scheduler has been started (are interrupts firing
			   before vTaskStartScheduler() has been called?).
		**********************************************************************/

		for( pxIterator = ( ListItem_t * ) &( pxList->xListEnd ); pxIterator->pxNext->xItemValue <= xValueOfInsertion; pxIterator = pxIterator->pxNext ) /*lint !e826 !e740 The mini list structure is used as the list end to save RAM.  This is checked and valid. */
 8004b56:	687b      	ldr	r3, [r7, #4]
 8004b58:	3308      	adds	r3, #8
 8004b5a:	60fb      	str	r3, [r7, #12]
 8004b5c:	e002      	b.n	8004b64 <vListInsert+0x2e>
 8004b5e:	68fb      	ldr	r3, [r7, #12]
 8004b60:	685b      	ldr	r3, [r3, #4]
 8004b62:	60fb      	str	r3, [r7, #12]
 8004b64:	68fb      	ldr	r3, [r7, #12]
 8004b66:	685b      	ldr	r3, [r3, #4]
 8004b68:	681b      	ldr	r3, [r3, #0]
 8004b6a:	68ba      	ldr	r2, [r7, #8]
 8004b6c:	429a      	cmp	r2, r3
 8004b6e:	d2f6      	bcs.n	8004b5e <vListInsert+0x28>
			/* There is nothing to do here, just iterating to the wanted
			insertion position. */
		}
	}

	pxNewListItem->pxNext = pxIterator->pxNext;
 8004b70:	68fb      	ldr	r3, [r7, #12]
 8004b72:	685a      	ldr	r2, [r3, #4]
 8004b74:	683b      	ldr	r3, [r7, #0]
 8004b76:	605a      	str	r2, [r3, #4]
	pxNewListItem->pxNext->pxPrevious = pxNewListItem;
 8004b78:	683b      	ldr	r3, [r7, #0]
 8004b7a:	685b      	ldr	r3, [r3, #4]
 8004b7c:	683a      	ldr	r2, [r7, #0]
 8004b7e:	609a      	str	r2, [r3, #8]
	pxNewListItem->pxPrevious = pxIterator;
 8004b80:	683b      	ldr	r3, [r7, #0]
 8004b82:	68fa      	ldr	r2, [r7, #12]
 8004b84:	609a      	str	r2, [r3, #8]
	pxIterator->pxNext = pxNewListItem;
 8004b86:	68fb      	ldr	r3, [r7, #12]
 8004b88:	683a      	ldr	r2, [r7, #0]
 8004b8a:	605a      	str	r2, [r3, #4]

	/* Remember which list the item is in.  This allows fast removal of the
	item later. */
	pxNewListItem->pvContainer = ( void * ) pxList;
 8004b8c:	683b      	ldr	r3, [r7, #0]
 8004b8e:	687a      	ldr	r2, [r7, #4]
 8004b90:	611a      	str	r2, [r3, #16]

	( pxList->uxNumberOfItems )++;
 8004b92:	687b      	ldr	r3, [r7, #4]
 8004b94:	681b      	ldr	r3, [r3, #0]
 8004b96:	1c5a      	adds	r2, r3, #1
 8004b98:	687b      	ldr	r3, [r7, #4]
 8004b9a:	601a      	str	r2, [r3, #0]
}
 8004b9c:	bf00      	nop
 8004b9e:	3714      	adds	r7, #20
 8004ba0:	46bd      	mov	sp, r7
 8004ba2:	bc80      	pop	{r7}
 8004ba4:	4770      	bx	lr

08004ba6 <uxListRemove>:
/*-----------------------------------------------------------*/

UBaseType_t uxListRemove( ListItem_t * const pxItemToRemove )
{
 8004ba6:	b480      	push	{r7}
 8004ba8:	b085      	sub	sp, #20
 8004baa:	af00      	add	r7, sp, #0
 8004bac:	6078      	str	r0, [r7, #4]
/* The list item knows which list it is in.  Obtain the list from the list
item. */
List_t * const pxList = ( List_t * ) pxItemToRemove->pvContainer;
 8004bae:	687b      	ldr	r3, [r7, #4]
 8004bb0:	691b      	ldr	r3, [r3, #16]
 8004bb2:	60fb      	str	r3, [r7, #12]

	pxItemToRemove->pxNext->pxPrevious = pxItemToRemove->pxPrevious;
 8004bb4:	687b      	ldr	r3, [r7, #4]
 8004bb6:	685b      	ldr	r3, [r3, #4]
 8004bb8:	687a      	ldr	r2, [r7, #4]
 8004bba:	6892      	ldr	r2, [r2, #8]
 8004bbc:	609a      	str	r2, [r3, #8]
	pxItemToRemove->pxPrevious->pxNext = pxItemToRemove->pxNext;
 8004bbe:	687b      	ldr	r3, [r7, #4]
 8004bc0:	689b      	ldr	r3, [r3, #8]
 8004bc2:	687a      	ldr	r2, [r7, #4]
 8004bc4:	6852      	ldr	r2, [r2, #4]
 8004bc6:	605a      	str	r2, [r3, #4]

	/* Only used during decision coverage testing. */
	mtCOVERAGE_TEST_DELAY();

	/* Make sure the index is left pointing to a valid item. */
	if( pxList->pxIndex == pxItemToRemove )
 8004bc8:	68fb      	ldr	r3, [r7, #12]
 8004bca:	685b      	ldr	r3, [r3, #4]
 8004bcc:	687a      	ldr	r2, [r7, #4]
 8004bce:	429a      	cmp	r2, r3
 8004bd0:	d103      	bne.n	8004bda <uxListRemove+0x34>
	{
		pxList->pxIndex = pxItemToRemove->pxPrevious;
 8004bd2:	687b      	ldr	r3, [r7, #4]
 8004bd4:	689a      	ldr	r2, [r3, #8]
 8004bd6:	68fb      	ldr	r3, [r7, #12]
 8004bd8:	605a      	str	r2, [r3, #4]
	else
	{
		mtCOVERAGE_TEST_MARKER();
	}

	pxItemToRemove->pvContainer = NULL;
 8004bda:	687b      	ldr	r3, [r7, #4]
 8004bdc:	2200      	movs	r2, #0
 8004bde:	611a      	str	r2, [r3, #16]
	( pxList->uxNumberOfItems )--;
 8004be0:	68fb      	ldr	r3, [r7, #12]
 8004be2:	681b      	ldr	r3, [r3, #0]
 8004be4:	1e5a      	subs	r2, r3, #1
 8004be6:	68fb      	ldr	r3, [r7, #12]
 8004be8:	601a      	str	r2, [r3, #0]

	return pxList->uxNumberOfItems;
 8004bea:	68fb      	ldr	r3, [r7, #12]
 8004bec:	681b      	ldr	r3, [r3, #0]
}
 8004bee:	4618      	mov	r0, r3
 8004bf0:	3714      	adds	r7, #20
 8004bf2:	46bd      	mov	sp, r7
 8004bf4:	bc80      	pop	{r7}
 8004bf6:	4770      	bx	lr

08004bf8 <xTaskCreateStatic>:
									const uint32_t ulStackDepth,
									void * const pvParameters,
									UBaseType_t uxPriority,
									StackType_t * const puxStackBuffer,
									StaticTask_t * const pxTaskBuffer )
	{
 8004bf8:	b580      	push	{r7, lr}
 8004bfa:	b08e      	sub	sp, #56	; 0x38
 8004bfc:	af04      	add	r7, sp, #16
 8004bfe:	60f8      	str	r0, [r7, #12]
 8004c00:	60b9      	str	r1, [r7, #8]
 8004c02:	607a      	str	r2, [r7, #4]
 8004c04:	603b      	str	r3, [r7, #0]
	TCB_t *pxNewTCB;
	TaskHandle_t xReturn;

		configASSERT( puxStackBuffer != NULL );
 8004c06:	6b7b      	ldr	r3, [r7, #52]	; 0x34
 8004c08:	2b00      	cmp	r3, #0
 8004c0a:	d109      	bne.n	8004c20 <xTaskCreateStatic+0x28>

portFORCE_INLINE static void vPortRaiseBASEPRI( void )
{
uint32_t ulNewBASEPRI;

	__asm volatile
 8004c0c:	f04f 0350 	mov.w	r3, #80	; 0x50
 8004c10:	f383 8811 	msr	BASEPRI, r3
 8004c14:	f3bf 8f6f 	isb	sy
 8004c18:	f3bf 8f4f 	dsb	sy
 8004c1c:	623b      	str	r3, [r7, #32]
 8004c1e:	e7fe      	b.n	8004c1e <xTaskCreateStatic+0x26>
		configASSERT( pxTaskBuffer != NULL );
 8004c20:	6bbb      	ldr	r3, [r7, #56]	; 0x38
 8004c22:	2b00      	cmp	r3, #0
 8004c24:	d109      	bne.n	8004c3a <xTaskCreateStatic+0x42>
 8004c26:	f04f 0350 	mov.w	r3, #80	; 0x50
 8004c2a:	f383 8811 	msr	BASEPRI, r3
 8004c2e:	f3bf 8f6f 	isb	sy
 8004c32:	f3bf 8f4f 	dsb	sy
 8004c36:	61fb      	str	r3, [r7, #28]
 8004c38:	e7fe      	b.n	8004c38 <xTaskCreateStatic+0x40>
		#if( configASSERT_DEFINED == 1 )
		{
			/* Sanity check that the size of the structure used to declare a
			variable of type StaticTask_t equals the size of the real task
			structure. */
			volatile size_t xSize = sizeof( StaticTask_t );
 8004c3a:	2354      	movs	r3, #84	; 0x54
 8004c3c:	613b      	str	r3, [r7, #16]
			configASSERT( xSize == sizeof( TCB_t ) );
 8004c3e:	693b      	ldr	r3, [r7, #16]
 8004c40:	2b54      	cmp	r3, #84	; 0x54
 8004c42:	d009      	beq.n	8004c58 <xTaskCreateStatic+0x60>
 8004c44:	f04f 0350 	mov.w	r3, #80	; 0x50
 8004c48:	f383 8811 	msr	BASEPRI, r3
 8004c4c:	f3bf 8f6f 	isb	sy
 8004c50:	f3bf 8f4f 	dsb	sy
 8004c54:	61bb      	str	r3, [r7, #24]
 8004c56:	e7fe      	b.n	8004c56 <xTaskCreateStatic+0x5e>
		}
		#endif /* configASSERT_DEFINED */


		if( ( pxTaskBuffer != NULL ) && ( puxStackBuffer != NULL ) )
 8004c58:	6bbb      	ldr	r3, [r7, #56]	; 0x38
 8004c5a:	2b00      	cmp	r3, #0
 8004c5c:	d01e      	beq.n	8004c9c <xTaskCreateStatic+0xa4>
 8004c5e:	6b7b      	ldr	r3, [r7, #52]	; 0x34
 8004c60:	2b00      	cmp	r3, #0
 8004c62:	d01b      	beq.n	8004c9c <xTaskCreateStatic+0xa4>
		{
			/* The memory used for the task's TCB and stack are passed into this
			function - use them. */
			pxNewTCB = ( TCB_t * ) pxTaskBuffer; /*lint !e740 Unusual cast is ok as the structures are designed to have the same alignment, and the size is checked by an assert. */
 8004c64:	6bbb      	ldr	r3, [r7, #56]	; 0x38
 8004c66:	627b      	str	r3, [r7, #36]	; 0x24
			pxNewTCB->pxStack = ( StackType_t * ) puxStackBuffer;
 8004c68:	6a7b      	ldr	r3, [r7, #36]	; 0x24
 8004c6a:	6b7a      	ldr	r2, [r7, #52]	; 0x34
 8004c6c:	631a      	str	r2, [r3, #48]	; 0x30

			#if( tskSTATIC_AND_DYNAMIC_ALLOCATION_POSSIBLE != 0 ) /*lint !e731 Macro has been consolidated for readability reasons. */
			{
				/* Tasks can be created statically or dynamically, so note this
				task was created statically in case the task is later deleted. */
				pxNewTCB->ucStaticallyAllocated = tskSTATICALLY_ALLOCATED_STACK_AND_TCB;
 8004c6e:	6a7b      	ldr	r3, [r7, #36]	; 0x24
 8004c70:	2202      	movs	r2, #2
 8004c72:	f883 2051 	strb.w	r2, [r3, #81]	; 0x51
			}
			#endif /* configSUPPORT_DYNAMIC_ALLOCATION */

			prvInitialiseNewTask( pxTaskCode, pcName, ulStackDepth, pvParameters, uxPriority, &xReturn, pxNewTCB, NULL );
 8004c76:	2300      	movs	r3, #0
 8004c78:	9303      	str	r3, [sp, #12]
 8004c7a:	6a7b      	ldr	r3, [r7, #36]	; 0x24
 8004c7c:	9302      	str	r3, [sp, #8]
 8004c7e:	f107 0314 	add.w	r3, r7, #20
 8004c82:	9301      	str	r3, [sp, #4]
 8004c84:	6b3b      	ldr	r3, [r7, #48]	; 0x30
 8004c86:	9300      	str	r3, [sp, #0]
 8004c88:	683b      	ldr	r3, [r7, #0]
 8004c8a:	687a      	ldr	r2, [r7, #4]
 8004c8c:	68b9      	ldr	r1, [r7, #8]
 8004c8e:	68f8      	ldr	r0, [r7, #12]
 8004c90:	f000 f850 	bl	8004d34 <prvInitialiseNewTask>
			prvAddNewTaskToReadyList( pxNewTCB );
 8004c94:	6a78      	ldr	r0, [r7, #36]	; 0x24
 8004c96:	f000 f8cb 	bl	8004e30 <prvAddNewTaskToReadyList>
 8004c9a:	e001      	b.n	8004ca0 <xTaskCreateStatic+0xa8>
		}
		else
		{
			xReturn = NULL;
 8004c9c:	2300      	movs	r3, #0
 8004c9e:	617b      	str	r3, [r7, #20]
		}

		return xReturn;
 8004ca0:	697b      	ldr	r3, [r7, #20]
	}
 8004ca2:	4618      	mov	r0, r3
 8004ca4:	3728      	adds	r7, #40	; 0x28
 8004ca6:	46bd      	mov	sp, r7
 8004ca8:	bd80      	pop	{r7, pc}

08004caa <xTaskCreate>:
							const char * const pcName,		/*lint !e971 Unqualified char types are allowed for strings and single characters only. */
							const configSTACK_DEPTH_TYPE usStackDepth,
							void * const pvParameters,
							UBaseType_t uxPriority,
							TaskHandle_t * const pxCreatedTask )
	{
 8004caa:	b580      	push	{r7, lr}
 8004cac:	b08c      	sub	sp, #48	; 0x30
 8004cae:	af04      	add	r7, sp, #16
 8004cb0:	60f8      	str	r0, [r7, #12]
 8004cb2:	60b9      	str	r1, [r7, #8]
 8004cb4:	603b      	str	r3, [r7, #0]
 8004cb6:	4613      	mov	r3, r2
 8004cb8:	80fb      	strh	r3, [r7, #6]
		#else /* portSTACK_GROWTH */
		{
		StackType_t *pxStack;

			/* Allocate space for the stack used by the task being created. */
			pxStack = ( StackType_t * ) pvPortMalloc( ( ( ( size_t ) usStackDepth ) * sizeof( StackType_t ) ) ); /*lint !e961 MISRA exception as the casts are only redundant for some ports. */
 8004cba:	88fb      	ldrh	r3, [r7, #6]
 8004cbc:	009b      	lsls	r3, r3, #2
 8004cbe:	4618      	mov	r0, r3
 8004cc0:	f001 f820 	bl	8005d04 <pvPortMalloc>
 8004cc4:	6178      	str	r0, [r7, #20]

			if( pxStack != NULL )
 8004cc6:	697b      	ldr	r3, [r7, #20]
 8004cc8:	2b00      	cmp	r3, #0
 8004cca:	d00e      	beq.n	8004cea <xTaskCreate+0x40>
			{
				/* Allocate space for the TCB. */
				pxNewTCB = ( TCB_t * ) pvPortMalloc( sizeof( TCB_t ) ); /*lint !e961 MISRA exception as the casts are only redundant for some paths. */
 8004ccc:	2054      	movs	r0, #84	; 0x54
 8004cce:	f001 f819 	bl	8005d04 <pvPortMalloc>
 8004cd2:	61f8      	str	r0, [r7, #28]

				if( pxNewTCB != NULL )
 8004cd4:	69fb      	ldr	r3, [r7, #28]
 8004cd6:	2b00      	cmp	r3, #0
 8004cd8:	d003      	beq.n	8004ce2 <xTaskCreate+0x38>
				{
					/* Store the stack location in the TCB. */
					pxNewTCB->pxStack = pxStack;
 8004cda:	69fb      	ldr	r3, [r7, #28]
 8004cdc:	697a      	ldr	r2, [r7, #20]
 8004cde:	631a      	str	r2, [r3, #48]	; 0x30
 8004ce0:	e005      	b.n	8004cee <xTaskCreate+0x44>
				}
				else
				{
					/* The stack cannot be used as the TCB was not created.  Free
					it again. */
					vPortFree( pxStack );
 8004ce2:	6978      	ldr	r0, [r7, #20]
 8004ce4:	f001 f8d0 	bl	8005e88 <vPortFree>
 8004ce8:	e001      	b.n	8004cee <xTaskCreate+0x44>
				}
			}
			else
			{
				pxNewTCB = NULL;
 8004cea:	2300      	movs	r3, #0
 8004cec:	61fb      	str	r3, [r7, #28]
			}
		}
		#endif /* portSTACK_GROWTH */

		if( pxNewTCB != NULL )
 8004cee:	69fb      	ldr	r3, [r7, #28]
 8004cf0:	2b00      	cmp	r3, #0
 8004cf2:	d017      	beq.n	8004d24 <xTaskCreate+0x7a>
		{
			#if( tskSTATIC_AND_DYNAMIC_ALLOCATION_POSSIBLE != 0 ) /*lint !e731 Macro has been consolidated for readability reasons. */
			{
				/* Tasks can be created statically or dynamically, so note this
				task was created dynamically in case it is later deleted. */
				pxNewTCB->ucStaticallyAllocated = tskDYNAMICALLY_ALLOCATED_STACK_AND_TCB;
 8004cf4:	69fb      	ldr	r3, [r7, #28]
 8004cf6:	2200      	movs	r2, #0
 8004cf8:	f883 2051 	strb.w	r2, [r3, #81]	; 0x51
			}
			#endif /* configSUPPORT_STATIC_ALLOCATION */

			prvInitialiseNewTask( pxTaskCode, pcName, ( uint32_t ) usStackDepth, pvParameters, uxPriority, pxCreatedTask, pxNewTCB, NULL );
 8004cfc:	88fa      	ldrh	r2, [r7, #6]
 8004cfe:	2300      	movs	r3, #0
 8004d00:	9303      	str	r3, [sp, #12]
 8004d02:	69fb      	ldr	r3, [r7, #28]
 8004d04:	9302      	str	r3, [sp, #8]
 8004d06:	6afb      	ldr	r3, [r7, #44]	; 0x2c
 8004d08:	9301      	str	r3, [sp, #4]
 8004d0a:	6abb      	ldr	r3, [r7, #40]	; 0x28
 8004d0c:	9300      	str	r3, [sp, #0]
 8004d0e:	683b      	ldr	r3, [r7, #0]
 8004d10:	68b9      	ldr	r1, [r7, #8]
 8004d12:	68f8      	ldr	r0, [r7, #12]
 8004d14:	f000 f80e 	bl	8004d34 <prvInitialiseNewTask>
			prvAddNewTaskToReadyList( pxNewTCB );
 8004d18:	69f8      	ldr	r0, [r7, #28]
 8004d1a:	f000 f889 	bl	8004e30 <prvAddNewTaskToReadyList>
			xReturn = pdPASS;
 8004d1e:	2301      	movs	r3, #1
 8004d20:	61bb      	str	r3, [r7, #24]
 8004d22:	e002      	b.n	8004d2a <xTaskCreate+0x80>
		}
		else
		{
			xReturn = errCOULD_NOT_ALLOCATE_REQUIRED_MEMORY;
 8004d24:	f04f 33ff 	mov.w	r3, #4294967295
 8004d28:	61bb      	str	r3, [r7, #24]
		}

		return xReturn;
 8004d2a:	69bb      	ldr	r3, [r7, #24]
	}
 8004d2c:	4618      	mov	r0, r3
 8004d2e:	3720      	adds	r7, #32
 8004d30:	46bd      	mov	sp, r7
 8004d32:	bd80      	pop	{r7, pc}

08004d34 <prvInitialiseNewTask>:
									void * const pvParameters,
									UBaseType_t uxPriority,
									TaskHandle_t * const pxCreatedTask,
									TCB_t *pxNewTCB,
									const MemoryRegion_t * const xRegions )
{
 8004d34:	b580      	push	{r7, lr}
 8004d36:	b088      	sub	sp, #32
 8004d38:	af00      	add	r7, sp, #0
 8004d3a:	60f8      	str	r0, [r7, #12]
 8004d3c:	60b9      	str	r1, [r7, #8]
 8004d3e:	607a      	str	r2, [r7, #4]
 8004d40:	603b      	str	r3, [r7, #0]
	grows from high memory to low (as per the 80x86) or vice versa.
	portSTACK_GROWTH is used to make the result positive or negative as required
	by the port. */
	#if( portSTACK_GROWTH < 0 )
	{
		pxTopOfStack = pxNewTCB->pxStack + ( ulStackDepth - ( uint32_t ) 1 );
 8004d42:	6b3b      	ldr	r3, [r7, #48]	; 0x30
 8004d44:	6b1a      	ldr	r2, [r3, #48]	; 0x30
 8004d46:	687b      	ldr	r3, [r7, #4]
 8004d48:	f103 4380 	add.w	r3, r3, #1073741824	; 0x40000000
 8004d4c:	3b01      	subs	r3, #1
 8004d4e:	009b      	lsls	r3, r3, #2
 8004d50:	4413      	add	r3, r2
 8004d52:	61bb      	str	r3, [r7, #24]
		pxTopOfStack = ( StackType_t * ) ( ( ( portPOINTER_SIZE_TYPE ) pxTopOfStack ) & ( ~( ( portPOINTER_SIZE_TYPE ) portBYTE_ALIGNMENT_MASK ) ) ); /*lint !e923 MISRA exception.  Avoiding casts between pointers and integers is not practical.  Size differences accounted for using portPOINTER_SIZE_TYPE type. */
 8004d54:	69bb      	ldr	r3, [r7, #24]
 8004d56:	f023 0307 	bic.w	r3, r3, #7
 8004d5a:	61bb      	str	r3, [r7, #24]

		/* Check the alignment of the calculated top of stack is correct. */
		configASSERT( ( ( ( portPOINTER_SIZE_TYPE ) pxTopOfStack & ( portPOINTER_SIZE_TYPE ) portBYTE_ALIGNMENT_MASK ) == 0UL ) );
 8004d5c:	69bb      	ldr	r3, [r7, #24]
 8004d5e:	f003 0307 	and.w	r3, r3, #7
 8004d62:	2b00      	cmp	r3, #0
 8004d64:	d009      	beq.n	8004d7a <prvInitialiseNewTask+0x46>
 8004d66:	f04f 0350 	mov.w	r3, #80	; 0x50
 8004d6a:	f383 8811 	msr	BASEPRI, r3
 8004d6e:	f3bf 8f6f 	isb	sy
 8004d72:	f3bf 8f4f 	dsb	sy
 8004d76:	617b      	str	r3, [r7, #20]
 8004d78:	e7fe      	b.n	8004d78 <prvInitialiseNewTask+0x44>
		pxNewTCB->pxEndOfStack = pxNewTCB->pxStack + ( ulStackDepth - ( uint32_t ) 1 );
	}
	#endif /* portSTACK_GROWTH */

	/* Store the task name in the TCB. */
	for( x = ( UBaseType_t ) 0; x < ( UBaseType_t ) configMAX_TASK_NAME_LEN; x++ )
 8004d7a:	2300      	movs	r3, #0
 8004d7c:	61fb      	str	r3, [r7, #28]
 8004d7e:	e012      	b.n	8004da6 <prvInitialiseNewTask+0x72>
	{
		pxNewTCB->pcTaskName[ x ] = pcName[ x ];
 8004d80:	68ba      	ldr	r2, [r7, #8]
 8004d82:	69fb      	ldr	r3, [r7, #28]
 8004d84:	4413      	add	r3, r2
 8004d86:	7819      	ldrb	r1, [r3, #0]
 8004d88:	6b3a      	ldr	r2, [r7, #48]	; 0x30
 8004d8a:	69fb      	ldr	r3, [r7, #28]
 8004d8c:	4413      	add	r3, r2
 8004d8e:	3334      	adds	r3, #52	; 0x34
 8004d90:	460a      	mov	r2, r1
 8004d92:	701a      	strb	r2, [r3, #0]

		/* Don't copy all configMAX_TASK_NAME_LEN if the string is shorter than
		configMAX_TASK_NAME_LEN characters just in case the memory after the
		string is not accessible (extremely unlikely). */
		if( pcName[ x ] == 0x00 )
 8004d94:	68ba      	ldr	r2, [r7, #8]
 8004d96:	69fb      	ldr	r3, [r7, #28]
 8004d98:	4413      	add	r3, r2
 8004d9a:	781b      	ldrb	r3, [r3, #0]
 8004d9c:	2b00      	cmp	r3, #0
 8004d9e:	d006      	beq.n	8004dae <prvInitialiseNewTask+0x7a>
	for( x = ( UBaseType_t ) 0; x < ( UBaseType_t ) configMAX_TASK_NAME_LEN; x++ )
 8004da0:	69fb      	ldr	r3, [r7, #28]
 8004da2:	3301      	adds	r3, #1
 8004da4:	61fb      	str	r3, [r7, #28]
 8004da6:	69fb      	ldr	r3, [r7, #28]
 8004da8:	2b0f      	cmp	r3, #15
 8004daa:	d9e9      	bls.n	8004d80 <prvInitialiseNewTask+0x4c>
 8004dac:	e000      	b.n	8004db0 <prvInitialiseNewTask+0x7c>
		{
			break;
 8004dae:	bf00      	nop
		}
	}

	/* Ensure the name string is terminated in the case that the string length
	was greater or equal to configMAX_TASK_NAME_LEN. */
	pxNewTCB->pcTaskName[ configMAX_TASK_NAME_LEN - 1 ] = '\0';
 8004db0:	6b3b      	ldr	r3, [r7, #48]	; 0x30
 8004db2:	2200      	movs	r2, #0
 8004db4:	f883 2043 	strb.w	r2, [r3, #67]	; 0x43

	/* This is used as an array index so must ensure it's not too large.  First
	remove the privilege bit if one is present. */
	if( uxPriority >= ( UBaseType_t ) configMAX_PRIORITIES )
 8004db8:	6abb      	ldr	r3, [r7, #40]	; 0x28
 8004dba:	2b06      	cmp	r3, #6
 8004dbc:	d901      	bls.n	8004dc2 <prvInitialiseNewTask+0x8e>
	{
		uxPriority = ( UBaseType_t ) configMAX_PRIORITIES - ( UBaseType_t ) 1U;
 8004dbe:	2306      	movs	r3, #6
 8004dc0:	62bb      	str	r3, [r7, #40]	; 0x28
	else
	{
		mtCOVERAGE_TEST_MARKER();
	}

	pxNewTCB->uxPriority = uxPriority;
 8004dc2:	6b3b      	ldr	r3, [r7, #48]	; 0x30
 8004dc4:	6aba      	ldr	r2, [r7, #40]	; 0x28
 8004dc6:	62da      	str	r2, [r3, #44]	; 0x2c
	#if ( configUSE_MUTEXES == 1 )
	{
		pxNewTCB->uxBasePriority = uxPriority;
 8004dc8:	6b3b      	ldr	r3, [r7, #48]	; 0x30
 8004dca:	6aba      	ldr	r2, [r7, #40]	; 0x28
 8004dcc:	645a      	str	r2, [r3, #68]	; 0x44
		pxNewTCB->uxMutexesHeld = 0;
 8004dce:	6b3b      	ldr	r3, [r7, #48]	; 0x30
 8004dd0:	2200      	movs	r2, #0
 8004dd2:	649a      	str	r2, [r3, #72]	; 0x48
	}
	#endif /* configUSE_MUTEXES */

	vListInitialiseItem( &( pxNewTCB->xStateListItem ) );
 8004dd4:	6b3b      	ldr	r3, [r7, #48]	; 0x30
 8004dd6:	3304      	adds	r3, #4
 8004dd8:	4618      	mov	r0, r3
 8004dda:	f7ff fe7d 	bl	8004ad8 <vListInitialiseItem>
	vListInitialiseItem( &( pxNewTCB->xEventListItem ) );
 8004dde:	6b3b      	ldr	r3, [r7, #48]	; 0x30
 8004de0:	3318      	adds	r3, #24
 8004de2:	4618      	mov	r0, r3
 8004de4:	f7ff fe78 	bl	8004ad8 <vListInitialiseItem>

	/* Set the pxNewTCB as a link back from the ListItem_t.  This is so we can get
	back to	the containing TCB from a generic item in a list. */
	listSET_LIST_ITEM_OWNER( &( pxNewTCB->xStateListItem ), pxNewTCB );
 8004de8:	6b3b      	ldr	r3, [r7, #48]	; 0x30
 8004dea:	6b3a      	ldr	r2, [r7, #48]	; 0x30
 8004dec:	611a      	str	r2, [r3, #16]

	/* Event lists are always in priority order. */
	listSET_LIST_ITEM_VALUE( &( pxNewTCB->xEventListItem ), ( TickType_t ) configMAX_PRIORITIES - ( TickType_t ) uxPriority ); /*lint !e961 MISRA exception as the casts are only redundant for some ports. */
 8004dee:	6abb      	ldr	r3, [r7, #40]	; 0x28
 8004df0:	f1c3 0207 	rsb	r2, r3, #7
 8004df4:	6b3b      	ldr	r3, [r7, #48]	; 0x30
 8004df6:	619a      	str	r2, [r3, #24]
	listSET_LIST_ITEM_OWNER( &( pxNewTCB->xEventListItem ), pxNewTCB );
 8004df8:	6b3b      	ldr	r3, [r7, #48]	; 0x30
 8004dfa:	6b3a      	ldr	r2, [r7, #48]	; 0x30
 8004dfc:	625a      	str	r2, [r3, #36]	; 0x24
	}
	#endif

	#if ( configUSE_TASK_NOTIFICATIONS == 1 )
	{
		pxNewTCB->ulNotifiedValue = 0;
 8004dfe:	6b3b      	ldr	r3, [r7, #48]	; 0x30
 8004e00:	2200      	movs	r2, #0
 8004e02:	64da      	str	r2, [r3, #76]	; 0x4c
		pxNewTCB->ucNotifyState = taskNOT_WAITING_NOTIFICATION;
 8004e04:	6b3b      	ldr	r3, [r7, #48]	; 0x30
 8004e06:	2200      	movs	r2, #0
 8004e08:	f883 2050 	strb.w	r2, [r3, #80]	; 0x50
	{
		pxNewTCB->pxTopOfStack = pxPortInitialiseStack( pxTopOfStack, pxTaskCode, pvParameters, xRunPrivileged );
	}
	#else /* portUSING_MPU_WRAPPERS */
	{
		pxNewTCB->pxTopOfStack = pxPortInitialiseStack( pxTopOfStack, pxTaskCode, pvParameters );
 8004e0c:	683a      	ldr	r2, [r7, #0]
 8004e0e:	68f9      	ldr	r1, [r7, #12]
 8004e10:	69b8      	ldr	r0, [r7, #24]
 8004e12:	f000 fd95 	bl	8005940 <pxPortInitialiseStack>
 8004e16:	4602      	mov	r2, r0
 8004e18:	6b3b      	ldr	r3, [r7, #48]	; 0x30
 8004e1a:	601a      	str	r2, [r3, #0]
	}
	#endif /* portUSING_MPU_WRAPPERS */

	if( ( void * ) pxCreatedTask != NULL )
 8004e1c:	6afb      	ldr	r3, [r7, #44]	; 0x2c
 8004e1e:	2b00      	cmp	r3, #0
 8004e20:	d002      	beq.n	8004e28 <prvInitialiseNewTask+0xf4>
	{
		/* Pass the handle out in an anonymous way.  The handle can be used to
		change the created task's priority, delete the created task, etc.*/
		*pxCreatedTask = ( TaskHandle_t ) pxNewTCB;
 8004e22:	6afb      	ldr	r3, [r7, #44]	; 0x2c
 8004e24:	6b3a      	ldr	r2, [r7, #48]	; 0x30
 8004e26:	601a      	str	r2, [r3, #0]
	}
	else
	{
		mtCOVERAGE_TEST_MARKER();
	}
}
 8004e28:	bf00      	nop
 8004e2a:	3720      	adds	r7, #32
 8004e2c:	46bd      	mov	sp, r7
 8004e2e:	bd80      	pop	{r7, pc}

08004e30 <prvAddNewTaskToReadyList>:
/*-----------------------------------------------------------*/

static void prvAddNewTaskToReadyList( TCB_t *pxNewTCB )
{
 8004e30:	b580      	push	{r7, lr}
 8004e32:	b082      	sub	sp, #8
 8004e34:	af00      	add	r7, sp, #0
 8004e36:	6078      	str	r0, [r7, #4]
	/* Ensure interrupts don't access the task lists while the lists are being
	updated. */
	taskENTER_CRITICAL();
 8004e38:	f000 fe6e 	bl	8005b18 <vPortEnterCritical>
	{
		uxCurrentNumberOfTasks++;
 8004e3c:	4b2a      	ldr	r3, [pc, #168]	; (8004ee8 <prvAddNewTaskToReadyList+0xb8>)
 8004e3e:	681b      	ldr	r3, [r3, #0]
 8004e40:	3301      	adds	r3, #1
 8004e42:	4a29      	ldr	r2, [pc, #164]	; (8004ee8 <prvAddNewTaskToReadyList+0xb8>)
 8004e44:	6013      	str	r3, [r2, #0]
		if( pxCurrentTCB == NULL )
 8004e46:	4b29      	ldr	r3, [pc, #164]	; (8004eec <prvAddNewTaskToReadyList+0xbc>)
 8004e48:	681b      	ldr	r3, [r3, #0]
 8004e4a:	2b00      	cmp	r3, #0
 8004e4c:	d109      	bne.n	8004e62 <prvAddNewTaskToReadyList+0x32>
		{
			/* There are no other tasks, or all the other tasks are in
			the suspended state - make this the current task. */
			pxCurrentTCB = pxNewTCB;
 8004e4e:	4a27      	ldr	r2, [pc, #156]	; (8004eec <prvAddNewTaskToReadyList+0xbc>)
 8004e50:	687b      	ldr	r3, [r7, #4]
 8004e52:	6013      	str	r3, [r2, #0]

			if( uxCurrentNumberOfTasks == ( UBaseType_t ) 1 )
 8004e54:	4b24      	ldr	r3, [pc, #144]	; (8004ee8 <prvAddNewTaskToReadyList+0xb8>)
 8004e56:	681b      	ldr	r3, [r3, #0]
 8004e58:	2b01      	cmp	r3, #1
 8004e5a:	d110      	bne.n	8004e7e <prvAddNewTaskToReadyList+0x4e>
			{
				/* This is the first task to be created so do the preliminary
				initialisation required.  We will not recover if this call
				fails, but we will report the failure. */
				prvInitialiseTaskLists();
 8004e5c:	f000 fc4c 	bl	80056f8 <prvInitialiseTaskLists>
 8004e60:	e00d      	b.n	8004e7e <prvAddNewTaskToReadyList+0x4e>
		else
		{
			/* If the scheduler is not already running, make this task the
			current task if it is the highest priority task to be created
			so far. */
			if( xSchedulerRunning == pdFALSE )
 8004e62:	4b23      	ldr	r3, [pc, #140]	; (8004ef0 <prvAddNewTaskToReadyList+0xc0>)
 8004e64:	681b      	ldr	r3, [r3, #0]
 8004e66:	2b00      	cmp	r3, #0
 8004e68:	d109      	bne.n	8004e7e <prvAddNewTaskToReadyList+0x4e>
			{
				if( pxCurrentTCB->uxPriority <= pxNewTCB->uxPriority )
 8004e6a:	4b20      	ldr	r3, [pc, #128]	; (8004eec <prvAddNewTaskToReadyList+0xbc>)
 8004e6c:	681b      	ldr	r3, [r3, #0]
 8004e6e:	6ada      	ldr	r2, [r3, #44]	; 0x2c
 8004e70:	687b      	ldr	r3, [r7, #4]
 8004e72:	6adb      	ldr	r3, [r3, #44]	; 0x2c
 8004e74:	429a      	cmp	r2, r3
 8004e76:	d802      	bhi.n	8004e7e <prvAddNewTaskToReadyList+0x4e>
				{
					pxCurrentTCB = pxNewTCB;
 8004e78:	4a1c      	ldr	r2, [pc, #112]	; (8004eec <prvAddNewTaskToReadyList+0xbc>)
 8004e7a:	687b      	ldr	r3, [r7, #4]
 8004e7c:	6013      	str	r3, [r2, #0]
			{
				mtCOVERAGE_TEST_MARKER();
			}
		}

		uxTaskNumber++;
 8004e7e:	4b1d      	ldr	r3, [pc, #116]	; (8004ef4 <prvAddNewTaskToReadyList+0xc4>)
 8004e80:	681b      	ldr	r3, [r3, #0]
 8004e82:	3301      	adds	r3, #1
 8004e84:	4a1b      	ldr	r2, [pc, #108]	; (8004ef4 <prvAddNewTaskToReadyList+0xc4>)
 8004e86:	6013      	str	r3, [r2, #0]
			pxNewTCB->uxTCBNumber = uxTaskNumber;
		}
		#endif /* configUSE_TRACE_FACILITY */
		traceTASK_CREATE( pxNewTCB );

		prvAddTaskToReadyList( pxNewTCB );
 8004e88:	687b      	ldr	r3, [r7, #4]
 8004e8a:	6adb      	ldr	r3, [r3, #44]	; 0x2c
 8004e8c:	2201      	movs	r2, #1
 8004e8e:	409a      	lsls	r2, r3
 8004e90:	4b19      	ldr	r3, [pc, #100]	; (8004ef8 <prvAddNewTaskToReadyList+0xc8>)
 8004e92:	681b      	ldr	r3, [r3, #0]
 8004e94:	4313      	orrs	r3, r2
 8004e96:	4a18      	ldr	r2, [pc, #96]	; (8004ef8 <prvAddNewTaskToReadyList+0xc8>)
 8004e98:	6013      	str	r3, [r2, #0]
 8004e9a:	687b      	ldr	r3, [r7, #4]
 8004e9c:	6ada      	ldr	r2, [r3, #44]	; 0x2c
 8004e9e:	4613      	mov	r3, r2
 8004ea0:	009b      	lsls	r3, r3, #2
 8004ea2:	4413      	add	r3, r2
 8004ea4:	009b      	lsls	r3, r3, #2
 8004ea6:	4a15      	ldr	r2, [pc, #84]	; (8004efc <prvAddNewTaskToReadyList+0xcc>)
 8004ea8:	441a      	add	r2, r3
 8004eaa:	687b      	ldr	r3, [r7, #4]
 8004eac:	3304      	adds	r3, #4
 8004eae:	4619      	mov	r1, r3
 8004eb0:	4610      	mov	r0, r2
 8004eb2:	f7ff fe1d 	bl	8004af0 <vListInsertEnd>

		portSETUP_TCB( pxNewTCB );
	}
	taskEXIT_CRITICAL();
 8004eb6:	f000 fe5d 	bl	8005b74 <vPortExitCritical>

	if( xSchedulerRunning != pdFALSE )
 8004eba:	4b0d      	ldr	r3, [pc, #52]	; (8004ef0 <prvAddNewTaskToReadyList+0xc0>)
 8004ebc:	681b      	ldr	r3, [r3, #0]
 8004ebe:	2b00      	cmp	r3, #0
 8004ec0:	d00e      	beq.n	8004ee0 <prvAddNewTaskToReadyList+0xb0>
	{
		/* If the created task is of a higher priority than the current task
		then it should run now. */
		if( pxCurrentTCB->uxPriority < pxNewTCB->uxPriority )
 8004ec2:	4b0a      	ldr	r3, [pc, #40]	; (8004eec <prvAddNewTaskToReadyList+0xbc>)
 8004ec4:	681b      	ldr	r3, [r3, #0]
 8004ec6:	6ada      	ldr	r2, [r3, #44]	; 0x2c
 8004ec8:	687b      	ldr	r3, [r7, #4]
 8004eca:	6adb      	ldr	r3, [r3, #44]	; 0x2c
 8004ecc:	429a      	cmp	r2, r3
 8004ece:	d207      	bcs.n	8004ee0 <prvAddNewTaskToReadyList+0xb0>
		{
			taskYIELD_IF_USING_PREEMPTION();
 8004ed0:	4b0b      	ldr	r3, [pc, #44]	; (8004f00 <prvAddNewTaskToReadyList+0xd0>)
 8004ed2:	f04f 5280 	mov.w	r2, #268435456	; 0x10000000
 8004ed6:	601a      	str	r2, [r3, #0]
 8004ed8:	f3bf 8f4f 	dsb	sy
 8004edc:	f3bf 8f6f 	isb	sy
	}
	else
	{
		mtCOVERAGE_TEST_MARKER();
	}
}
 8004ee0:	bf00      	nop
 8004ee2:	3708      	adds	r7, #8
 8004ee4:	46bd      	mov	sp, r7
 8004ee6:	bd80      	pop	{r7, pc}
 8004ee8:	20000398 	.word	0x20000398
 8004eec:	20000298 	.word	0x20000298
 8004ef0:	200003a4 	.word	0x200003a4
 8004ef4:	200003b4 	.word	0x200003b4
 8004ef8:	200003a0 	.word	0x200003a0
 8004efc:	2000029c 	.word	0x2000029c
 8004f00:	e000ed04 	.word	0xe000ed04

08004f04 <vTaskDelayUntil>:
/*-----------------------------------------------------------*/

#if ( INCLUDE_vTaskDelayUntil == 1 )

	void vTaskDelayUntil( TickType_t * const pxPreviousWakeTime, const TickType_t xTimeIncrement )
	{
 8004f04:	b580      	push	{r7, lr}
 8004f06:	b08a      	sub	sp, #40	; 0x28
 8004f08:	af00      	add	r7, sp, #0
 8004f0a:	6078      	str	r0, [r7, #4]
 8004f0c:	6039      	str	r1, [r7, #0]
	TickType_t xTimeToWake;
	BaseType_t xAlreadyYielded, xShouldDelay = pdFALSE;
 8004f0e:	2300      	movs	r3, #0
 8004f10:	627b      	str	r3, [r7, #36]	; 0x24

		configASSERT( pxPreviousWakeTime );
 8004f12:	687b      	ldr	r3, [r7, #4]
 8004f14:	2b00      	cmp	r3, #0
 8004f16:	d109      	bne.n	8004f2c <vTaskDelayUntil+0x28>
 8004f18:	f04f 0350 	mov.w	r3, #80	; 0x50
 8004f1c:	f383 8811 	msr	BASEPRI, r3
 8004f20:	f3bf 8f6f 	isb	sy
 8004f24:	f3bf 8f4f 	dsb	sy
 8004f28:	617b      	str	r3, [r7, #20]
 8004f2a:	e7fe      	b.n	8004f2a <vTaskDelayUntil+0x26>
		configASSERT( ( xTimeIncrement > 0U ) );
 8004f2c:	683b      	ldr	r3, [r7, #0]
 8004f2e:	2b00      	cmp	r3, #0
 8004f30:	d109      	bne.n	8004f46 <vTaskDelayUntil+0x42>
 8004f32:	f04f 0350 	mov.w	r3, #80	; 0x50
 8004f36:	f383 8811 	msr	BASEPRI, r3
 8004f3a:	f3bf 8f6f 	isb	sy
 8004f3e:	f3bf 8f4f 	dsb	sy
 8004f42:	613b      	str	r3, [r7, #16]
 8004f44:	e7fe      	b.n	8004f44 <vTaskDelayUntil+0x40>
		configASSERT( uxSchedulerSuspended == 0 );
 8004f46:	4b29      	ldr	r3, [pc, #164]	; (8004fec <vTaskDelayUntil+0xe8>)
 8004f48:	681b      	ldr	r3, [r3, #0]
 8004f4a:	2b00      	cmp	r3, #0
 8004f4c:	d009      	beq.n	8004f62 <vTaskDelayUntil+0x5e>
 8004f4e:	f04f 0350 	mov.w	r3, #80	; 0x50
 8004f52:	f383 8811 	msr	BASEPRI, r3
 8004f56:	f3bf 8f6f 	isb	sy
 8004f5a:	f3bf 8f4f 	dsb	sy
 8004f5e:	60fb      	str	r3, [r7, #12]
 8004f60:	e7fe      	b.n	8004f60 <vTaskDelayUntil+0x5c>

		vTaskSuspendAll();
 8004f62:	f000 f9e3 	bl	800532c <vTaskSuspendAll>
		{
			/* Minor optimisation.  The tick count cannot change in this
			block. */
			const TickType_t xConstTickCount = xTickCount;
 8004f66:	4b22      	ldr	r3, [pc, #136]	; (8004ff0 <vTaskDelayUntil+0xec>)
 8004f68:	681b      	ldr	r3, [r3, #0]
 8004f6a:	623b      	str	r3, [r7, #32]

			/* Generate the tick time at which the task wants to wake. */
			xTimeToWake = *pxPreviousWakeTime + xTimeIncrement;
 8004f6c:	687b      	ldr	r3, [r7, #4]
 8004f6e:	681b      	ldr	r3, [r3, #0]
 8004f70:	683a      	ldr	r2, [r7, #0]
 8004f72:	4413      	add	r3, r2
 8004f74:	61fb      	str	r3, [r7, #28]

			if( xConstTickCount < *pxPreviousWakeTime )
 8004f76:	687b      	ldr	r3, [r7, #4]
 8004f78:	681b      	ldr	r3, [r3, #0]
 8004f7a:	6a3a      	ldr	r2, [r7, #32]
 8004f7c:	429a      	cmp	r2, r3
 8004f7e:	d20b      	bcs.n	8004f98 <vTaskDelayUntil+0x94>
				/* The tick count has overflowed since this function was
				lasted called.  In this case the only time we should ever
				actually delay is if the wake time has also	overflowed,
				and the wake time is greater than the tick time.  When this
				is the case it is as if neither time had overflowed. */
				if( ( xTimeToWake < *pxPreviousWakeTime ) && ( xTimeToWake > xConstTickCount ) )
 8004f80:	687b      	ldr	r3, [r7, #4]
 8004f82:	681b      	ldr	r3, [r3, #0]
 8004f84:	69fa      	ldr	r2, [r7, #28]
 8004f86:	429a      	cmp	r2, r3
 8004f88:	d211      	bcs.n	8004fae <vTaskDelayUntil+0xaa>
 8004f8a:	69fa      	ldr	r2, [r7, #28]
 8004f8c:	6a3b      	ldr	r3, [r7, #32]
 8004f8e:	429a      	cmp	r2, r3
 8004f90:	d90d      	bls.n	8004fae <vTaskDelayUntil+0xaa>
				{
					xShouldDelay = pdTRUE;
 8004f92:	2301      	movs	r3, #1
 8004f94:	627b      	str	r3, [r7, #36]	; 0x24
 8004f96:	e00a      	b.n	8004fae <vTaskDelayUntil+0xaa>
			else
			{
				/* The tick time has not overflowed.  In this case we will
				delay if either the wake time has overflowed, and/or the
				tick time is less than the wake time. */
				if( ( xTimeToWake < *pxPreviousWakeTime ) || ( xTimeToWake > xConstTickCount ) )
 8004f98:	687b      	ldr	r3, [r7, #4]
 8004f9a:	681b      	ldr	r3, [r3, #0]
 8004f9c:	69fa      	ldr	r2, [r7, #28]
 8004f9e:	429a      	cmp	r2, r3
 8004fa0:	d303      	bcc.n	8004faa <vTaskDelayUntil+0xa6>
 8004fa2:	69fa      	ldr	r2, [r7, #28]
 8004fa4:	6a3b      	ldr	r3, [r7, #32]
 8004fa6:	429a      	cmp	r2, r3
 8004fa8:	d901      	bls.n	8004fae <vTaskDelayUntil+0xaa>
				{
					xShouldDelay = pdTRUE;
 8004faa:	2301      	movs	r3, #1
 8004fac:	627b      	str	r3, [r7, #36]	; 0x24
					mtCOVERAGE_TEST_MARKER();
				}
			}

			/* Update the wake time ready for the next call. */
			*pxPreviousWakeTime = xTimeToWake;
 8004fae:	687b      	ldr	r3, [r7, #4]
 8004fb0:	69fa      	ldr	r2, [r7, #28]
 8004fb2:	601a      	str	r2, [r3, #0]

			if( xShouldDelay != pdFALSE )
 8004fb4:	6a7b      	ldr	r3, [r7, #36]	; 0x24
 8004fb6:	2b00      	cmp	r3, #0
 8004fb8:	d006      	beq.n	8004fc8 <vTaskDelayUntil+0xc4>
			{
				traceTASK_DELAY_UNTIL( xTimeToWake );

				/* prvAddCurrentTaskToDelayedList() needs the block time, not
				the time to wake, so subtract the current tick count. */
				prvAddCurrentTaskToDelayedList( xTimeToWake - xConstTickCount, pdFALSE );
 8004fba:	69fa      	ldr	r2, [r7, #28]
 8004fbc:	6a3b      	ldr	r3, [r7, #32]
 8004fbe:	1ad3      	subs	r3, r2, r3
 8004fc0:	2100      	movs	r1, #0
 8004fc2:	4618      	mov	r0, r3
 8004fc4:	f000 fc56 	bl	8005874 <prvAddCurrentTaskToDelayedList>
			else
			{
				mtCOVERAGE_TEST_MARKER();
			}
		}
		xAlreadyYielded = xTaskResumeAll();
 8004fc8:	f000 f9be 	bl	8005348 <xTaskResumeAll>
 8004fcc:	61b8      	str	r0, [r7, #24]

		/* Force a reschedule if xTaskResumeAll has not already done so, we may
		have put ourselves to sleep. */
		if( xAlreadyYielded == pdFALSE )
 8004fce:	69bb      	ldr	r3, [r7, #24]
 8004fd0:	2b00      	cmp	r3, #0
 8004fd2:	d107      	bne.n	8004fe4 <vTaskDelayUntil+0xe0>
		{
			portYIELD_WITHIN_API();
 8004fd4:	4b07      	ldr	r3, [pc, #28]	; (8004ff4 <vTaskDelayUntil+0xf0>)
 8004fd6:	f04f 5280 	mov.w	r2, #268435456	; 0x10000000
 8004fda:	601a      	str	r2, [r3, #0]
 8004fdc:	f3bf 8f4f 	dsb	sy
 8004fe0:	f3bf 8f6f 	isb	sy
		}
		else
		{
			mtCOVERAGE_TEST_MARKER();
		}
	}
 8004fe4:	bf00      	nop
 8004fe6:	3728      	adds	r7, #40	; 0x28
 8004fe8:	46bd      	mov	sp, r7
 8004fea:	bd80      	pop	{r7, pc}
 8004fec:	200003c0 	.word	0x200003c0
 8004ff0:	2000039c 	.word	0x2000039c
 8004ff4:	e000ed04 	.word	0xe000ed04

08004ff8 <vTaskSuspend>:
/*-----------------------------------------------------------*/

#if ( INCLUDE_vTaskSuspend == 1 )

	void vTaskSuspend( TaskHandle_t xTaskToSuspend )
	{
 8004ff8:	b580      	push	{r7, lr}
 8004ffa:	b084      	sub	sp, #16
 8004ffc:	af00      	add	r7, sp, #0
 8004ffe:	6078      	str	r0, [r7, #4]
	TCB_t *pxTCB;

		taskENTER_CRITICAL();
 8005000:	f000 fd8a 	bl	8005b18 <vPortEnterCritical>
		{
			/* If null is passed in here then it is the running task that is
			being suspended. */
			pxTCB = prvGetTCBFromHandle( xTaskToSuspend );
 8005004:	687b      	ldr	r3, [r7, #4]
 8005006:	2b00      	cmp	r3, #0
 8005008:	d102      	bne.n	8005010 <vTaskSuspend+0x18>
 800500a:	4b3c      	ldr	r3, [pc, #240]	; (80050fc <vTaskSuspend+0x104>)
 800500c:	681b      	ldr	r3, [r3, #0]
 800500e:	e000      	b.n	8005012 <vTaskSuspend+0x1a>
 8005010:	687b      	ldr	r3, [r7, #4]
 8005012:	60fb      	str	r3, [r7, #12]

			traceTASK_SUSPEND( pxTCB );

			/* Remove task from the ready/delayed list and place in the
			suspended list. */
			if( uxListRemove( &( pxTCB->xStateListItem ) ) == ( UBaseType_t ) 0 )
 8005014:	68fb      	ldr	r3, [r7, #12]
 8005016:	3304      	adds	r3, #4
 8005018:	4618      	mov	r0, r3
 800501a:	f7ff fdc4 	bl	8004ba6 <uxListRemove>
 800501e:	4603      	mov	r3, r0
 8005020:	2b00      	cmp	r3, #0
 8005022:	d115      	bne.n	8005050 <vTaskSuspend+0x58>
			{
				taskRESET_READY_PRIORITY( pxTCB->uxPriority );
 8005024:	68fb      	ldr	r3, [r7, #12]
 8005026:	6ada      	ldr	r2, [r3, #44]	; 0x2c
 8005028:	4935      	ldr	r1, [pc, #212]	; (8005100 <vTaskSuspend+0x108>)
 800502a:	4613      	mov	r3, r2
 800502c:	009b      	lsls	r3, r3, #2
 800502e:	4413      	add	r3, r2
 8005030:	009b      	lsls	r3, r3, #2
 8005032:	440b      	add	r3, r1
 8005034:	681b      	ldr	r3, [r3, #0]
 8005036:	2b00      	cmp	r3, #0
 8005038:	d10a      	bne.n	8005050 <vTaskSuspend+0x58>
 800503a:	68fb      	ldr	r3, [r7, #12]
 800503c:	6adb      	ldr	r3, [r3, #44]	; 0x2c
 800503e:	2201      	movs	r2, #1
 8005040:	fa02 f303 	lsl.w	r3, r2, r3
 8005044:	43da      	mvns	r2, r3
 8005046:	4b2f      	ldr	r3, [pc, #188]	; (8005104 <vTaskSuspend+0x10c>)
 8005048:	681b      	ldr	r3, [r3, #0]
 800504a:	4013      	ands	r3, r2
 800504c:	4a2d      	ldr	r2, [pc, #180]	; (8005104 <vTaskSuspend+0x10c>)
 800504e:	6013      	str	r3, [r2, #0]
			{
				mtCOVERAGE_TEST_MARKER();
			}

			/* Is the task waiting on an event also? */
			if( listLIST_ITEM_CONTAINER( &( pxTCB->xEventListItem ) ) != NULL )
 8005050:	68fb      	ldr	r3, [r7, #12]
 8005052:	6a9b      	ldr	r3, [r3, #40]	; 0x28
 8005054:	2b00      	cmp	r3, #0
 8005056:	d004      	beq.n	8005062 <vTaskSuspend+0x6a>
			{
				( void ) uxListRemove( &( pxTCB->xEventListItem ) );
 8005058:	68fb      	ldr	r3, [r7, #12]
 800505a:	3318      	adds	r3, #24
 800505c:	4618      	mov	r0, r3
 800505e:	f7ff fda2 	bl	8004ba6 <uxListRemove>
			else
			{
				mtCOVERAGE_TEST_MARKER();
			}

			vListInsertEnd( &xSuspendedTaskList, &( pxTCB->xStateListItem ) );
 8005062:	68fb      	ldr	r3, [r7, #12]
 8005064:	3304      	adds	r3, #4
 8005066:	4619      	mov	r1, r3
 8005068:	4827      	ldr	r0, [pc, #156]	; (8005108 <vTaskSuspend+0x110>)
 800506a:	f7ff fd41 	bl	8004af0 <vListInsertEnd>

			#if( configUSE_TASK_NOTIFICATIONS == 1 )
			{
				if( pxTCB->ucNotifyState == taskWAITING_NOTIFICATION )
 800506e:	68fb      	ldr	r3, [r7, #12]
 8005070:	f893 3050 	ldrb.w	r3, [r3, #80]	; 0x50
 8005074:	b2db      	uxtb	r3, r3
 8005076:	2b01      	cmp	r3, #1
 8005078:	d103      	bne.n	8005082 <vTaskSuspend+0x8a>
				{
					/* The task was blocked to wait for a notification, but is
					now suspended, so no notification was received. */
					pxTCB->ucNotifyState = taskNOT_WAITING_NOTIFICATION;
 800507a:	68fb      	ldr	r3, [r7, #12]
 800507c:	2200      	movs	r2, #0
 800507e:	f883 2050 	strb.w	r2, [r3, #80]	; 0x50
				}
			}
			#endif
		}
		taskEXIT_CRITICAL();
 8005082:	f000 fd77 	bl	8005b74 <vPortExitCritical>

		if( xSchedulerRunning != pdFALSE )
 8005086:	4b21      	ldr	r3, [pc, #132]	; (800510c <vTaskSuspend+0x114>)
 8005088:	681b      	ldr	r3, [r3, #0]
 800508a:	2b00      	cmp	r3, #0
 800508c:	d005      	beq.n	800509a <vTaskSuspend+0xa2>
		{
			/* Reset the next expected unblock time in case it referred to the
			task that is now in the Suspended state. */
			taskENTER_CRITICAL();
 800508e:	f000 fd43 	bl	8005b18 <vPortEnterCritical>
			{
				prvResetNextTaskUnblockTime();
 8005092:	f000 fbcb 	bl	800582c <prvResetNextTaskUnblockTime>
			}
			taskEXIT_CRITICAL();
 8005096:	f000 fd6d 	bl	8005b74 <vPortExitCritical>
		else
		{
			mtCOVERAGE_TEST_MARKER();
		}

		if( pxTCB == pxCurrentTCB )
 800509a:	4b18      	ldr	r3, [pc, #96]	; (80050fc <vTaskSuspend+0x104>)
 800509c:	681b      	ldr	r3, [r3, #0]
 800509e:	68fa      	ldr	r2, [r7, #12]
 80050a0:	429a      	cmp	r2, r3
 80050a2:	d126      	bne.n	80050f2 <vTaskSuspend+0xfa>
		{
			if( xSchedulerRunning != pdFALSE )
 80050a4:	4b19      	ldr	r3, [pc, #100]	; (800510c <vTaskSuspend+0x114>)
 80050a6:	681b      	ldr	r3, [r3, #0]
 80050a8:	2b00      	cmp	r3, #0
 80050aa:	d016      	beq.n	80050da <vTaskSuspend+0xe2>
			{
				/* The current task has just been suspended. */
				configASSERT( uxSchedulerSuspended == 0 );
 80050ac:	4b18      	ldr	r3, [pc, #96]	; (8005110 <vTaskSuspend+0x118>)
 80050ae:	681b      	ldr	r3, [r3, #0]
 80050b0:	2b00      	cmp	r3, #0
 80050b2:	d009      	beq.n	80050c8 <vTaskSuspend+0xd0>
 80050b4:	f04f 0350 	mov.w	r3, #80	; 0x50
 80050b8:	f383 8811 	msr	BASEPRI, r3
 80050bc:	f3bf 8f6f 	isb	sy
 80050c0:	f3bf 8f4f 	dsb	sy
 80050c4:	60bb      	str	r3, [r7, #8]
 80050c6:	e7fe      	b.n	80050c6 <vTaskSuspend+0xce>
				portYIELD_WITHIN_API();
 80050c8:	4b12      	ldr	r3, [pc, #72]	; (8005114 <vTaskSuspend+0x11c>)
 80050ca:	f04f 5280 	mov.w	r2, #268435456	; 0x10000000
 80050ce:	601a      	str	r2, [r3, #0]
 80050d0:	f3bf 8f4f 	dsb	sy
 80050d4:	f3bf 8f6f 	isb	sy
		}
		else
		{
			mtCOVERAGE_TEST_MARKER();
		}
	}
 80050d8:	e00b      	b.n	80050f2 <vTaskSuspend+0xfa>
				if( listCURRENT_LIST_LENGTH( &xSuspendedTaskList ) == uxCurrentNumberOfTasks )
 80050da:	4b0b      	ldr	r3, [pc, #44]	; (8005108 <vTaskSuspend+0x110>)
 80050dc:	681a      	ldr	r2, [r3, #0]
 80050de:	4b0e      	ldr	r3, [pc, #56]	; (8005118 <vTaskSuspend+0x120>)
 80050e0:	681b      	ldr	r3, [r3, #0]
 80050e2:	429a      	cmp	r2, r3
 80050e4:	d103      	bne.n	80050ee <vTaskSuspend+0xf6>
					pxCurrentTCB = NULL;
 80050e6:	4b05      	ldr	r3, [pc, #20]	; (80050fc <vTaskSuspend+0x104>)
 80050e8:	2200      	movs	r2, #0
 80050ea:	601a      	str	r2, [r3, #0]
	}
 80050ec:	e001      	b.n	80050f2 <vTaskSuspend+0xfa>
					vTaskSwitchContext();
 80050ee:	f000 fa91 	bl	8005614 <vTaskSwitchContext>
	}
 80050f2:	bf00      	nop
 80050f4:	3710      	adds	r7, #16
 80050f6:	46bd      	mov	sp, r7
 80050f8:	bd80      	pop	{r7, pc}
 80050fa:	bf00      	nop
 80050fc:	20000298 	.word	0x20000298
 8005100:	2000029c 	.word	0x2000029c
 8005104:	200003a0 	.word	0x200003a0
 8005108:	20000384 	.word	0x20000384
 800510c:	200003a4 	.word	0x200003a4
 8005110:	200003c0 	.word	0x200003c0
 8005114:	e000ed04 	.word	0xe000ed04
 8005118:	20000398 	.word	0x20000398

0800511c <prvTaskIsTaskSuspended>:
/*-----------------------------------------------------------*/

#if ( INCLUDE_vTaskSuspend == 1 )

	static BaseType_t prvTaskIsTaskSuspended( const TaskHandle_t xTask )
	{
 800511c:	b480      	push	{r7}
 800511e:	b087      	sub	sp, #28
 8005120:	af00      	add	r7, sp, #0
 8005122:	6078      	str	r0, [r7, #4]
	BaseType_t xReturn = pdFALSE;
 8005124:	2300      	movs	r3, #0
 8005126:	617b      	str	r3, [r7, #20]
	const TCB_t * const pxTCB = ( TCB_t * ) xTask;
 8005128:	687b      	ldr	r3, [r7, #4]
 800512a:	613b      	str	r3, [r7, #16]

		/* Accesses xPendingReadyList so must be called from a critical
		section. */

		/* It does not make sense to check if the calling task is suspended. */
		configASSERT( xTask );
 800512c:	687b      	ldr	r3, [r7, #4]
 800512e:	2b00      	cmp	r3, #0
 8005130:	d109      	bne.n	8005146 <prvTaskIsTaskSuspended+0x2a>
 8005132:	f04f 0350 	mov.w	r3, #80	; 0x50
 8005136:	f383 8811 	msr	BASEPRI, r3
 800513a:	f3bf 8f6f 	isb	sy
 800513e:	f3bf 8f4f 	dsb	sy
 8005142:	60fb      	str	r3, [r7, #12]
 8005144:	e7fe      	b.n	8005144 <prvTaskIsTaskSuspended+0x28>

		/* Is the task being resumed actually in the suspended list? */
		if( listIS_CONTAINED_WITHIN( &xSuspendedTaskList, &( pxTCB->xStateListItem ) ) != pdFALSE )
 8005146:	693b      	ldr	r3, [r7, #16]
 8005148:	695b      	ldr	r3, [r3, #20]
 800514a:	4a0f      	ldr	r2, [pc, #60]	; (8005188 <prvTaskIsTaskSuspended+0x6c>)
 800514c:	4293      	cmp	r3, r2
 800514e:	d101      	bne.n	8005154 <prvTaskIsTaskSuspended+0x38>
 8005150:	2301      	movs	r3, #1
 8005152:	e000      	b.n	8005156 <prvTaskIsTaskSuspended+0x3a>
 8005154:	2300      	movs	r3, #0
 8005156:	2b00      	cmp	r3, #0
 8005158:	d00f      	beq.n	800517a <prvTaskIsTaskSuspended+0x5e>
		{
			/* Has the task already been resumed from within an ISR? */
			if( listIS_CONTAINED_WITHIN( &xPendingReadyList, &( pxTCB->xEventListItem ) ) == pdFALSE )
 800515a:	693b      	ldr	r3, [r7, #16]
 800515c:	6a9b      	ldr	r3, [r3, #40]	; 0x28
 800515e:	4a0b      	ldr	r2, [pc, #44]	; (800518c <prvTaskIsTaskSuspended+0x70>)
 8005160:	4293      	cmp	r3, r2
 8005162:	d00a      	beq.n	800517a <prvTaskIsTaskSuspended+0x5e>
			{
				/* Is it in the suspended list because it is in the	Suspended
				state, or because is is blocked with no timeout? */
				if( listIS_CONTAINED_WITHIN( NULL, &( pxTCB->xEventListItem ) ) != pdFALSE ) /*lint !e961.  The cast is only redundant when NULL is used. */
 8005164:	693b      	ldr	r3, [r7, #16]
 8005166:	6a9b      	ldr	r3, [r3, #40]	; 0x28
 8005168:	2b00      	cmp	r3, #0
 800516a:	d101      	bne.n	8005170 <prvTaskIsTaskSuspended+0x54>
 800516c:	2301      	movs	r3, #1
 800516e:	e000      	b.n	8005172 <prvTaskIsTaskSuspended+0x56>
 8005170:	2300      	movs	r3, #0
 8005172:	2b00      	cmp	r3, #0
 8005174:	d001      	beq.n	800517a <prvTaskIsTaskSuspended+0x5e>
				{
					xReturn = pdTRUE;
 8005176:	2301      	movs	r3, #1
 8005178:	617b      	str	r3, [r7, #20]
		else
		{
			mtCOVERAGE_TEST_MARKER();
		}

		return xReturn;
 800517a:	697b      	ldr	r3, [r7, #20]
	} /*lint !e818 xTask cannot be a pointer to const because it is a typedef. */
 800517c:	4618      	mov	r0, r3
 800517e:	371c      	adds	r7, #28
 8005180:	46bd      	mov	sp, r7
 8005182:	bc80      	pop	{r7}
 8005184:	4770      	bx	lr
 8005186:	bf00      	nop
 8005188:	20000384 	.word	0x20000384
 800518c:	20000358 	.word	0x20000358

08005190 <xTaskResumeFromISR>:
/*-----------------------------------------------------------*/

#if ( ( INCLUDE_xTaskResumeFromISR == 1 ) && ( INCLUDE_vTaskSuspend == 1 ) )

	BaseType_t xTaskResumeFromISR( TaskHandle_t xTaskToResume )
	{
 8005190:	b580      	push	{r7, lr}
 8005192:	b08a      	sub	sp, #40	; 0x28
 8005194:	af00      	add	r7, sp, #0
 8005196:	6078      	str	r0, [r7, #4]
	BaseType_t xYieldRequired = pdFALSE;
 8005198:	2300      	movs	r3, #0
 800519a:	627b      	str	r3, [r7, #36]	; 0x24
	TCB_t * const pxTCB = ( TCB_t * ) xTaskToResume;
 800519c:	687b      	ldr	r3, [r7, #4]
 800519e:	623b      	str	r3, [r7, #32]
	UBaseType_t uxSavedInterruptStatus;

		configASSERT( xTaskToResume );
 80051a0:	687b      	ldr	r3, [r7, #4]
 80051a2:	2b00      	cmp	r3, #0
 80051a4:	d109      	bne.n	80051ba <xTaskResumeFromISR+0x2a>
 80051a6:	f04f 0350 	mov.w	r3, #80	; 0x50
 80051aa:	f383 8811 	msr	BASEPRI, r3
 80051ae:	f3bf 8f6f 	isb	sy
 80051b2:	f3bf 8f4f 	dsb	sy
 80051b6:	61bb      	str	r3, [r7, #24]
 80051b8:	e7fe      	b.n	80051b8 <xTaskResumeFromISR+0x28>
		below the maximum system call interrupt priority.  FreeRTOS maintains a
		separate interrupt safe API to ensure interrupt entry is as fast and as
		simple as possible.  More information (albeit Cortex-M specific) is
		provided on the following link:
		http://www.freertos.org/RTOS-Cortex-M3-M4.html */
		portASSERT_IF_INTERRUPT_PRIORITY_INVALID();
 80051ba:	f000 fd67 	bl	8005c8c <vPortValidateInterruptPriority>

portFORCE_INLINE static uint32_t ulPortRaiseBASEPRI( void )
{
uint32_t ulOriginalBASEPRI, ulNewBASEPRI;

	__asm volatile
 80051be:	f3ef 8211 	mrs	r2, BASEPRI
 80051c2:	f04f 0350 	mov.w	r3, #80	; 0x50
 80051c6:	f383 8811 	msr	BASEPRI, r3
 80051ca:	f3bf 8f6f 	isb	sy
 80051ce:	f3bf 8f4f 	dsb	sy
 80051d2:	617a      	str	r2, [r7, #20]
 80051d4:	613b      	str	r3, [r7, #16]
		:"=r" (ulOriginalBASEPRI), "=r" (ulNewBASEPRI) : "i" ( configMAX_SYSCALL_INTERRUPT_PRIORITY ) : "memory"
	);

	/* This return will not be reached but is necessary to prevent compiler
	warnings. */
	return ulOriginalBASEPRI;
 80051d6:	697b      	ldr	r3, [r7, #20]

		uxSavedInterruptStatus = portSET_INTERRUPT_MASK_FROM_ISR();
 80051d8:	61fb      	str	r3, [r7, #28]
		{
			if( prvTaskIsTaskSuspended( pxTCB ) != pdFALSE )
 80051da:	6a38      	ldr	r0, [r7, #32]
 80051dc:	f7ff ff9e 	bl	800511c <prvTaskIsTaskSuspended>
 80051e0:	4603      	mov	r3, r0
 80051e2:	2b00      	cmp	r3, #0
 80051e4:	d02f      	beq.n	8005246 <xTaskResumeFromISR+0xb6>
			{
				traceTASK_RESUME_FROM_ISR( pxTCB );

				/* Check the ready lists can be accessed. */
				if( uxSchedulerSuspended == ( UBaseType_t ) pdFALSE )
 80051e6:	4b1d      	ldr	r3, [pc, #116]	; (800525c <xTaskResumeFromISR+0xcc>)
 80051e8:	681b      	ldr	r3, [r3, #0]
 80051ea:	2b00      	cmp	r3, #0
 80051ec:	d125      	bne.n	800523a <xTaskResumeFromISR+0xaa>
				{
					/* Ready lists can be accessed so move the task from the
					suspended list to the ready list directly. */
					if( pxTCB->uxPriority >= pxCurrentTCB->uxPriority )
 80051ee:	6a3b      	ldr	r3, [r7, #32]
 80051f0:	6ada      	ldr	r2, [r3, #44]	; 0x2c
 80051f2:	4b1b      	ldr	r3, [pc, #108]	; (8005260 <xTaskResumeFromISR+0xd0>)
 80051f4:	681b      	ldr	r3, [r3, #0]
 80051f6:	6adb      	ldr	r3, [r3, #44]	; 0x2c
 80051f8:	429a      	cmp	r2, r3
 80051fa:	d301      	bcc.n	8005200 <xTaskResumeFromISR+0x70>
					{
						xYieldRequired = pdTRUE;
 80051fc:	2301      	movs	r3, #1
 80051fe:	627b      	str	r3, [r7, #36]	; 0x24
					else
					{
						mtCOVERAGE_TEST_MARKER();
					}

					( void ) uxListRemove( &( pxTCB->xStateListItem ) );
 8005200:	6a3b      	ldr	r3, [r7, #32]
 8005202:	3304      	adds	r3, #4
 8005204:	4618      	mov	r0, r3
 8005206:	f7ff fcce 	bl	8004ba6 <uxListRemove>
					prvAddTaskToReadyList( pxTCB );
 800520a:	6a3b      	ldr	r3, [r7, #32]
 800520c:	6adb      	ldr	r3, [r3, #44]	; 0x2c
 800520e:	2201      	movs	r2, #1
 8005210:	409a      	lsls	r2, r3
 8005212:	4b14      	ldr	r3, [pc, #80]	; (8005264 <xTaskResumeFromISR+0xd4>)
 8005214:	681b      	ldr	r3, [r3, #0]
 8005216:	4313      	orrs	r3, r2
 8005218:	4a12      	ldr	r2, [pc, #72]	; (8005264 <xTaskResumeFromISR+0xd4>)
 800521a:	6013      	str	r3, [r2, #0]
 800521c:	6a3b      	ldr	r3, [r7, #32]
 800521e:	6ada      	ldr	r2, [r3, #44]	; 0x2c
 8005220:	4613      	mov	r3, r2
 8005222:	009b      	lsls	r3, r3, #2
 8005224:	4413      	add	r3, r2
 8005226:	009b      	lsls	r3, r3, #2
 8005228:	4a0f      	ldr	r2, [pc, #60]	; (8005268 <xTaskResumeFromISR+0xd8>)
 800522a:	441a      	add	r2, r3
 800522c:	6a3b      	ldr	r3, [r7, #32]
 800522e:	3304      	adds	r3, #4
 8005230:	4619      	mov	r1, r3
 8005232:	4610      	mov	r0, r2
 8005234:	f7ff fc5c 	bl	8004af0 <vListInsertEnd>
 8005238:	e005      	b.n	8005246 <xTaskResumeFromISR+0xb6>
				else
				{
					/* The delayed or ready lists cannot be accessed so the task
					is held in the pending ready list until the scheduler is
					unsuspended. */
					vListInsertEnd( &( xPendingReadyList ), &( pxTCB->xEventListItem ) );
 800523a:	6a3b      	ldr	r3, [r7, #32]
 800523c:	3318      	adds	r3, #24
 800523e:	4619      	mov	r1, r3
 8005240:	480a      	ldr	r0, [pc, #40]	; (800526c <xTaskResumeFromISR+0xdc>)
 8005242:	f7ff fc55 	bl	8004af0 <vListInsertEnd>
 8005246:	69fb      	ldr	r3, [r7, #28]
 8005248:	60fb      	str	r3, [r7, #12]
}
/*-----------------------------------------------------------*/

portFORCE_INLINE static void vPortSetBASEPRI( uint32_t ulNewMaskValue )
{
	__asm volatile
 800524a:	68fb      	ldr	r3, [r7, #12]
 800524c:	f383 8811 	msr	BASEPRI, r3
				mtCOVERAGE_TEST_MARKER();
			}
		}
		portCLEAR_INTERRUPT_MASK_FROM_ISR( uxSavedInterruptStatus );

		return xYieldRequired;
 8005250:	6a7b      	ldr	r3, [r7, #36]	; 0x24
	}
 8005252:	4618      	mov	r0, r3
 8005254:	3728      	adds	r7, #40	; 0x28
 8005256:	46bd      	mov	sp, r7
 8005258:	bd80      	pop	{r7, pc}
 800525a:	bf00      	nop
 800525c:	200003c0 	.word	0x200003c0
 8005260:	20000298 	.word	0x20000298
 8005264:	200003a0 	.word	0x200003a0
 8005268:	2000029c 	.word	0x2000029c
 800526c:	20000358 	.word	0x20000358

08005270 <vTaskStartScheduler>:

#endif /* ( ( INCLUDE_xTaskResumeFromISR == 1 ) && ( INCLUDE_vTaskSuspend == 1 ) ) */
/*-----------------------------------------------------------*/

void vTaskStartScheduler( void )
{
 8005270:	b580      	push	{r7, lr}
 8005272:	b08a      	sub	sp, #40	; 0x28
 8005274:	af04      	add	r7, sp, #16
BaseType_t xReturn;

	/* Add the idle task at the lowest priority. */
	#if( configSUPPORT_STATIC_ALLOCATION == 1 )
	{
		StaticTask_t *pxIdleTaskTCBBuffer = NULL;
 8005276:	2300      	movs	r3, #0
 8005278:	60bb      	str	r3, [r7, #8]
		StackType_t *pxIdleTaskStackBuffer = NULL;
 800527a:	2300      	movs	r3, #0
 800527c:	607b      	str	r3, [r7, #4]
		uint32_t ulIdleTaskStackSize;

		/* The Idle task is created using user provided RAM - obtain the
		address of the RAM then create the idle task. */
		vApplicationGetIdleTaskMemory( &pxIdleTaskTCBBuffer, &pxIdleTaskStackBuffer, &ulIdleTaskStackSize );
 800527e:	463a      	mov	r2, r7
 8005280:	1d39      	adds	r1, r7, #4
 8005282:	f107 0308 	add.w	r3, r7, #8
 8005286:	4618      	mov	r0, r3
 8005288:	f7fb f86c 	bl	8000364 <vApplicationGetIdleTaskMemory>
		xIdleTaskHandle = xTaskCreateStatic(	prvIdleTask,
 800528c:	6839      	ldr	r1, [r7, #0]
 800528e:	687b      	ldr	r3, [r7, #4]
 8005290:	68ba      	ldr	r2, [r7, #8]
 8005292:	9202      	str	r2, [sp, #8]
 8005294:	9301      	str	r3, [sp, #4]
 8005296:	2300      	movs	r3, #0
 8005298:	9300      	str	r3, [sp, #0]
 800529a:	2300      	movs	r3, #0
 800529c:	460a      	mov	r2, r1
 800529e:	491d      	ldr	r1, [pc, #116]	; (8005314 <vTaskStartScheduler+0xa4>)
 80052a0:	481d      	ldr	r0, [pc, #116]	; (8005318 <vTaskStartScheduler+0xa8>)
 80052a2:	f7ff fca9 	bl	8004bf8 <xTaskCreateStatic>
 80052a6:	4602      	mov	r2, r0
 80052a8:	4b1c      	ldr	r3, [pc, #112]	; (800531c <vTaskStartScheduler+0xac>)
 80052aa:	601a      	str	r2, [r3, #0]
												( void * ) NULL, /*lint !e961.  The cast is not redundant for all compilers. */
												( tskIDLE_PRIORITY | portPRIVILEGE_BIT ),
												pxIdleTaskStackBuffer,
												pxIdleTaskTCBBuffer ); /*lint !e961 MISRA exception, justified as it is not a redundant explicit cast to all supported compilers. */

		if( xIdleTaskHandle != NULL )
 80052ac:	4b1b      	ldr	r3, [pc, #108]	; (800531c <vTaskStartScheduler+0xac>)
 80052ae:	681b      	ldr	r3, [r3, #0]
 80052b0:	2b00      	cmp	r3, #0
 80052b2:	d002      	beq.n	80052ba <vTaskStartScheduler+0x4a>
		{
			xReturn = pdPASS;
 80052b4:	2301      	movs	r3, #1
 80052b6:	617b      	str	r3, [r7, #20]
 80052b8:	e001      	b.n	80052be <vTaskStartScheduler+0x4e>
		}
		else
		{
			xReturn = pdFAIL;
 80052ba:	2300      	movs	r3, #0
 80052bc:	617b      	str	r3, [r7, #20]
			mtCOVERAGE_TEST_MARKER();
		}
	}
	#endif /* configUSE_TIMERS */

	if( xReturn == pdPASS )
 80052be:	697b      	ldr	r3, [r7, #20]
 80052c0:	2b01      	cmp	r3, #1
 80052c2:	d115      	bne.n	80052f0 <vTaskStartScheduler+0x80>
	__asm volatile
 80052c4:	f04f 0350 	mov.w	r3, #80	; 0x50
 80052c8:	f383 8811 	msr	BASEPRI, r3
 80052cc:	f3bf 8f6f 	isb	sy
 80052d0:	f3bf 8f4f 	dsb	sy
 80052d4:	613b      	str	r3, [r7, #16]
			structure specific to the task that will run first. */
			_impure_ptr = &( pxCurrentTCB->xNewLib_reent );
		}
		#endif /* configUSE_NEWLIB_REENTRANT */

		xNextTaskUnblockTime = portMAX_DELAY;
 80052d6:	4b12      	ldr	r3, [pc, #72]	; (8005320 <vTaskStartScheduler+0xb0>)
 80052d8:	f04f 32ff 	mov.w	r2, #4294967295
 80052dc:	601a      	str	r2, [r3, #0]
		xSchedulerRunning = pdTRUE;
 80052de:	4b11      	ldr	r3, [pc, #68]	; (8005324 <vTaskStartScheduler+0xb4>)
 80052e0:	2201      	movs	r2, #1
 80052e2:	601a      	str	r2, [r3, #0]
		xTickCount = ( TickType_t ) 0U;
 80052e4:	4b10      	ldr	r3, [pc, #64]	; (8005328 <vTaskStartScheduler+0xb8>)
 80052e6:	2200      	movs	r2, #0
 80052e8:	601a      	str	r2, [r3, #0]
		FreeRTOSConfig.h file. */
		portCONFIGURE_TIMER_FOR_RUN_TIME_STATS();

		/* Setting up the timer tick is hardware specific and thus in the
		portable interface. */
		if( xPortStartScheduler() != pdFALSE )
 80052ea:	f000 fba5 	bl	8005a38 <xPortStartScheduler>
	}

	/* Prevent compiler warnings if INCLUDE_xTaskGetIdleTaskHandle is set to 0,
	meaning xIdleTaskHandle is not used anywhere else. */
	( void ) xIdleTaskHandle;
}
 80052ee:	e00d      	b.n	800530c <vTaskStartScheduler+0x9c>
		configASSERT( xReturn != errCOULD_NOT_ALLOCATE_REQUIRED_MEMORY );
 80052f0:	697b      	ldr	r3, [r7, #20]
 80052f2:	f1b3 3fff 	cmp.w	r3, #4294967295
 80052f6:	d109      	bne.n	800530c <vTaskStartScheduler+0x9c>
 80052f8:	f04f 0350 	mov.w	r3, #80	; 0x50
 80052fc:	f383 8811 	msr	BASEPRI, r3
 8005300:	f3bf 8f6f 	isb	sy
 8005304:	f3bf 8f4f 	dsb	sy
 8005308:	60fb      	str	r3, [r7, #12]
 800530a:	e7fe      	b.n	800530a <vTaskStartScheduler+0x9a>
}
 800530c:	bf00      	nop
 800530e:	3718      	adds	r7, #24
 8005310:	46bd      	mov	sp, r7
 8005312:	bd80      	pop	{r7, pc}
 8005314:	0800616c 	.word	0x0800616c
 8005318:	080056c9 	.word	0x080056c9
 800531c:	200003bc 	.word	0x200003bc
 8005320:	200003b8 	.word	0x200003b8
 8005324:	200003a4 	.word	0x200003a4
 8005328:	2000039c 	.word	0x2000039c

0800532c <vTaskSuspendAll>:
	vPortEndScheduler();
}
/*----------------------------------------------------------*/

void vTaskSuspendAll( void )
{
 800532c:	b480      	push	{r7}
 800532e:	af00      	add	r7, sp, #0
	/* A critical section is not required as the variable is of type
	BaseType_t.  Please read Richard Barry's reply in the following link to a
	post in the FreeRTOS support forum before reporting this as a bug! -
	http://goo.gl/wu4acr */
	++uxSchedulerSuspended;
 8005330:	4b04      	ldr	r3, [pc, #16]	; (8005344 <vTaskSuspendAll+0x18>)
 8005332:	681b      	ldr	r3, [r3, #0]
 8005334:	3301      	adds	r3, #1
 8005336:	4a03      	ldr	r2, [pc, #12]	; (8005344 <vTaskSuspendAll+0x18>)
 8005338:	6013      	str	r3, [r2, #0]
}
 800533a:	bf00      	nop
 800533c:	46bd      	mov	sp, r7
 800533e:	bc80      	pop	{r7}
 8005340:	4770      	bx	lr
 8005342:	bf00      	nop
 8005344:	200003c0 	.word	0x200003c0

08005348 <xTaskResumeAll>:

#endif /* configUSE_TICKLESS_IDLE */
/*----------------------------------------------------------*/

BaseType_t xTaskResumeAll( void )
{
 8005348:	b580      	push	{r7, lr}
 800534a:	b084      	sub	sp, #16
 800534c:	af00      	add	r7, sp, #0
TCB_t *pxTCB = NULL;
 800534e:	2300      	movs	r3, #0
 8005350:	60fb      	str	r3, [r7, #12]
BaseType_t xAlreadyYielded = pdFALSE;
 8005352:	2300      	movs	r3, #0
 8005354:	60bb      	str	r3, [r7, #8]

	/* If uxSchedulerSuspended is zero then this function does not match a
	previous call to vTaskSuspendAll(). */
	configASSERT( uxSchedulerSuspended );
 8005356:	4b41      	ldr	r3, [pc, #260]	; (800545c <xTaskResumeAll+0x114>)
 8005358:	681b      	ldr	r3, [r3, #0]
 800535a:	2b00      	cmp	r3, #0
 800535c:	d109      	bne.n	8005372 <xTaskResumeAll+0x2a>
 800535e:	f04f 0350 	mov.w	r3, #80	; 0x50
 8005362:	f383 8811 	msr	BASEPRI, r3
 8005366:	f3bf 8f6f 	isb	sy
 800536a:	f3bf 8f4f 	dsb	sy
 800536e:	603b      	str	r3, [r7, #0]
 8005370:	e7fe      	b.n	8005370 <xTaskResumeAll+0x28>
	/* It is possible that an ISR caused a task to be removed from an event
	list while the scheduler was suspended.  If this was the case then the
	removed task will have been added to the xPendingReadyList.  Once the
	scheduler has been resumed it is safe to move all the pending ready
	tasks from this list into their appropriate ready list. */
	taskENTER_CRITICAL();
 8005372:	f000 fbd1 	bl	8005b18 <vPortEnterCritical>
	{
		--uxSchedulerSuspended;
 8005376:	4b39      	ldr	r3, [pc, #228]	; (800545c <xTaskResumeAll+0x114>)
 8005378:	681b      	ldr	r3, [r3, #0]
 800537a:	3b01      	subs	r3, #1
 800537c:	4a37      	ldr	r2, [pc, #220]	; (800545c <xTaskResumeAll+0x114>)
 800537e:	6013      	str	r3, [r2, #0]

		if( uxSchedulerSuspended == ( UBaseType_t ) pdFALSE )
 8005380:	4b36      	ldr	r3, [pc, #216]	; (800545c <xTaskResumeAll+0x114>)
 8005382:	681b      	ldr	r3, [r3, #0]
 8005384:	2b00      	cmp	r3, #0
 8005386:	d161      	bne.n	800544c <xTaskResumeAll+0x104>
		{
			if( uxCurrentNumberOfTasks > ( UBaseType_t ) 0U )
 8005388:	4b35      	ldr	r3, [pc, #212]	; (8005460 <xTaskResumeAll+0x118>)
 800538a:	681b      	ldr	r3, [r3, #0]
 800538c:	2b00      	cmp	r3, #0
 800538e:	d05d      	beq.n	800544c <xTaskResumeAll+0x104>
			{
				/* Move any readied tasks from the pending list into the
				appropriate ready list. */
				while( listLIST_IS_EMPTY( &xPendingReadyList ) == pdFALSE )
 8005390:	e02e      	b.n	80053f0 <xTaskResumeAll+0xa8>
				{
					pxTCB = ( TCB_t * ) listGET_OWNER_OF_HEAD_ENTRY( ( &xPendingReadyList ) );
 8005392:	4b34      	ldr	r3, [pc, #208]	; (8005464 <xTaskResumeAll+0x11c>)
 8005394:	68db      	ldr	r3, [r3, #12]
 8005396:	68db      	ldr	r3, [r3, #12]
 8005398:	60fb      	str	r3, [r7, #12]
					( void ) uxListRemove( &( pxTCB->xEventListItem ) );
 800539a:	68fb      	ldr	r3, [r7, #12]
 800539c:	3318      	adds	r3, #24
 800539e:	4618      	mov	r0, r3
 80053a0:	f7ff fc01 	bl	8004ba6 <uxListRemove>
					( void ) uxListRemove( &( pxTCB->xStateListItem ) );
 80053a4:	68fb      	ldr	r3, [r7, #12]
 80053a6:	3304      	adds	r3, #4
 80053a8:	4618      	mov	r0, r3
 80053aa:	f7ff fbfc 	bl	8004ba6 <uxListRemove>
					prvAddTaskToReadyList( pxTCB );
 80053ae:	68fb      	ldr	r3, [r7, #12]
 80053b0:	6adb      	ldr	r3, [r3, #44]	; 0x2c
 80053b2:	2201      	movs	r2, #1
 80053b4:	409a      	lsls	r2, r3
 80053b6:	4b2c      	ldr	r3, [pc, #176]	; (8005468 <xTaskResumeAll+0x120>)
 80053b8:	681b      	ldr	r3, [r3, #0]
 80053ba:	4313      	orrs	r3, r2
 80053bc:	4a2a      	ldr	r2, [pc, #168]	; (8005468 <xTaskResumeAll+0x120>)
 80053be:	6013      	str	r3, [r2, #0]
 80053c0:	68fb      	ldr	r3, [r7, #12]
 80053c2:	6ada      	ldr	r2, [r3, #44]	; 0x2c
 80053c4:	4613      	mov	r3, r2
 80053c6:	009b      	lsls	r3, r3, #2
 80053c8:	4413      	add	r3, r2
 80053ca:	009b      	lsls	r3, r3, #2
 80053cc:	4a27      	ldr	r2, [pc, #156]	; (800546c <xTaskResumeAll+0x124>)
 80053ce:	441a      	add	r2, r3
 80053d0:	68fb      	ldr	r3, [r7, #12]
 80053d2:	3304      	adds	r3, #4
 80053d4:	4619      	mov	r1, r3
 80053d6:	4610      	mov	r0, r2
 80053d8:	f7ff fb8a 	bl	8004af0 <vListInsertEnd>

					/* If the moved task has a priority higher than the current
					task then a yield must be performed. */
					if( pxTCB->uxPriority >= pxCurrentTCB->uxPriority )
 80053dc:	68fb      	ldr	r3, [r7, #12]
 80053de:	6ada      	ldr	r2, [r3, #44]	; 0x2c
 80053e0:	4b23      	ldr	r3, [pc, #140]	; (8005470 <xTaskResumeAll+0x128>)
 80053e2:	681b      	ldr	r3, [r3, #0]
 80053e4:	6adb      	ldr	r3, [r3, #44]	; 0x2c
 80053e6:	429a      	cmp	r2, r3
 80053e8:	d302      	bcc.n	80053f0 <xTaskResumeAll+0xa8>
					{
						xYieldPending = pdTRUE;
 80053ea:	4b22      	ldr	r3, [pc, #136]	; (8005474 <xTaskResumeAll+0x12c>)
 80053ec:	2201      	movs	r2, #1
 80053ee:	601a      	str	r2, [r3, #0]
				while( listLIST_IS_EMPTY( &xPendingReadyList ) == pdFALSE )
 80053f0:	4b1c      	ldr	r3, [pc, #112]	; (8005464 <xTaskResumeAll+0x11c>)
 80053f2:	681b      	ldr	r3, [r3, #0]
 80053f4:	2b00      	cmp	r3, #0
 80053f6:	d1cc      	bne.n	8005392 <xTaskResumeAll+0x4a>
					{
						mtCOVERAGE_TEST_MARKER();
					}
				}

				if( pxTCB != NULL )
 80053f8:	68fb      	ldr	r3, [r7, #12]
 80053fa:	2b00      	cmp	r3, #0
 80053fc:	d001      	beq.n	8005402 <xTaskResumeAll+0xba>
					which may have prevented the next unblock time from being
					re-calculated, in which case re-calculate it now.  Mainly
					important for low power tickless implementations, where
					this can prevent an unnecessary exit from low power
					state. */
					prvResetNextTaskUnblockTime();
 80053fe:	f000 fa15 	bl	800582c <prvResetNextTaskUnblockTime>
				/* If any ticks occurred while the scheduler was suspended then
				they should be processed now.  This ensures the tick count does
				not	slip, and that any delayed tasks are resumed at the correct
				time. */
				{
					UBaseType_t uxPendedCounts = uxPendedTicks; /* Non-volatile copy. */
 8005402:	4b1d      	ldr	r3, [pc, #116]	; (8005478 <xTaskResumeAll+0x130>)
 8005404:	681b      	ldr	r3, [r3, #0]
 8005406:	607b      	str	r3, [r7, #4]

					if( uxPendedCounts > ( UBaseType_t ) 0U )
 8005408:	687b      	ldr	r3, [r7, #4]
 800540a:	2b00      	cmp	r3, #0
 800540c:	d010      	beq.n	8005430 <xTaskResumeAll+0xe8>
					{
						do
						{
							if( xTaskIncrementTick() != pdFALSE )
 800540e:	f000 f845 	bl	800549c <xTaskIncrementTick>
 8005412:	4603      	mov	r3, r0
 8005414:	2b00      	cmp	r3, #0
 8005416:	d002      	beq.n	800541e <xTaskResumeAll+0xd6>
							{
								xYieldPending = pdTRUE;
 8005418:	4b16      	ldr	r3, [pc, #88]	; (8005474 <xTaskResumeAll+0x12c>)
 800541a:	2201      	movs	r2, #1
 800541c:	601a      	str	r2, [r3, #0]
							}
							else
							{
								mtCOVERAGE_TEST_MARKER();
							}
							--uxPendedCounts;
 800541e:	687b      	ldr	r3, [r7, #4]
 8005420:	3b01      	subs	r3, #1
 8005422:	607b      	str	r3, [r7, #4]
						} while( uxPendedCounts > ( UBaseType_t ) 0U );
 8005424:	687b      	ldr	r3, [r7, #4]
 8005426:	2b00      	cmp	r3, #0
 8005428:	d1f1      	bne.n	800540e <xTaskResumeAll+0xc6>

						uxPendedTicks = 0;
 800542a:	4b13      	ldr	r3, [pc, #76]	; (8005478 <xTaskResumeAll+0x130>)
 800542c:	2200      	movs	r2, #0
 800542e:	601a      	str	r2, [r3, #0]
					{
						mtCOVERAGE_TEST_MARKER();
					}
				}

				if( xYieldPending != pdFALSE )
 8005430:	4b10      	ldr	r3, [pc, #64]	; (8005474 <xTaskResumeAll+0x12c>)
 8005432:	681b      	ldr	r3, [r3, #0]
 8005434:	2b00      	cmp	r3, #0
 8005436:	d009      	beq.n	800544c <xTaskResumeAll+0x104>
				{
					#if( configUSE_PREEMPTION != 0 )
					{
						xAlreadyYielded = pdTRUE;
 8005438:	2301      	movs	r3, #1
 800543a:	60bb      	str	r3, [r7, #8]
					}
					#endif
					taskYIELD_IF_USING_PREEMPTION();
 800543c:	4b0f      	ldr	r3, [pc, #60]	; (800547c <xTaskResumeAll+0x134>)
 800543e:	f04f 5280 	mov.w	r2, #268435456	; 0x10000000
 8005442:	601a      	str	r2, [r3, #0]
 8005444:	f3bf 8f4f 	dsb	sy
 8005448:	f3bf 8f6f 	isb	sy
		else
		{
			mtCOVERAGE_TEST_MARKER();
		}
	}
	taskEXIT_CRITICAL();
 800544c:	f000 fb92 	bl	8005b74 <vPortExitCritical>

	return xAlreadyYielded;
 8005450:	68bb      	ldr	r3, [r7, #8]
}
 8005452:	4618      	mov	r0, r3
 8005454:	3710      	adds	r7, #16
 8005456:	46bd      	mov	sp, r7
 8005458:	bd80      	pop	{r7, pc}
 800545a:	bf00      	nop
 800545c:	200003c0 	.word	0x200003c0
 8005460:	20000398 	.word	0x20000398
 8005464:	20000358 	.word	0x20000358
 8005468:	200003a0 	.word	0x200003a0
 800546c:	2000029c 	.word	0x2000029c
 8005470:	20000298 	.word	0x20000298
 8005474:	200003ac 	.word	0x200003ac
 8005478:	200003a8 	.word	0x200003a8
 800547c:	e000ed04 	.word	0xe000ed04

08005480 <xTaskGetTickCount>:
/*-----------------------------------------------------------*/

TickType_t xTaskGetTickCount( void )
{
 8005480:	b480      	push	{r7}
 8005482:	b083      	sub	sp, #12
 8005484:	af00      	add	r7, sp, #0
TickType_t xTicks;

	/* Critical section required if running on a 16 bit processor. */
	portTICK_TYPE_ENTER_CRITICAL();
	{
		xTicks = xTickCount;
 8005486:	4b04      	ldr	r3, [pc, #16]	; (8005498 <xTaskGetTickCount+0x18>)
 8005488:	681b      	ldr	r3, [r3, #0]
 800548a:	607b      	str	r3, [r7, #4]
	}
	portTICK_TYPE_EXIT_CRITICAL();

	return xTicks;
 800548c:	687b      	ldr	r3, [r7, #4]
}
 800548e:	4618      	mov	r0, r3
 8005490:	370c      	adds	r7, #12
 8005492:	46bd      	mov	sp, r7
 8005494:	bc80      	pop	{r7}
 8005496:	4770      	bx	lr
 8005498:	2000039c 	.word	0x2000039c

0800549c <xTaskIncrementTick>:

#endif /* INCLUDE_xTaskAbortDelay */
/*----------------------------------------------------------*/

BaseType_t xTaskIncrementTick( void )
{
 800549c:	b580      	push	{r7, lr}
 800549e:	b086      	sub	sp, #24
 80054a0:	af00      	add	r7, sp, #0
TCB_t * pxTCB;
TickType_t xItemValue;
BaseType_t xSwitchRequired = pdFALSE;
 80054a2:	2300      	movs	r3, #0
 80054a4:	617b      	str	r3, [r7, #20]

	/* Called by the portable layer each time a tick interrupt occurs.
	Increments the tick then checks to see if the new tick value will cause any
	tasks to be unblocked. */
	traceTASK_INCREMENT_TICK( xTickCount );
	if( uxSchedulerSuspended == ( UBaseType_t ) pdFALSE )
 80054a6:	4b50      	ldr	r3, [pc, #320]	; (80055e8 <xTaskIncrementTick+0x14c>)
 80054a8:	681b      	ldr	r3, [r3, #0]
 80054aa:	2b00      	cmp	r3, #0
 80054ac:	f040 808c 	bne.w	80055c8 <xTaskIncrementTick+0x12c>
	{
		/* Minor optimisation.  The tick count cannot change in this
		block. */
		const TickType_t xConstTickCount = xTickCount + ( TickType_t ) 1;
 80054b0:	4b4e      	ldr	r3, [pc, #312]	; (80055ec <xTaskIncrementTick+0x150>)
 80054b2:	681b      	ldr	r3, [r3, #0]
 80054b4:	3301      	adds	r3, #1
 80054b6:	613b      	str	r3, [r7, #16]

		/* Increment the RTOS tick, switching the delayed and overflowed
		delayed lists if it wraps to 0. */
		xTickCount = xConstTickCount;
 80054b8:	4a4c      	ldr	r2, [pc, #304]	; (80055ec <xTaskIncrementTick+0x150>)
 80054ba:	693b      	ldr	r3, [r7, #16]
 80054bc:	6013      	str	r3, [r2, #0]

		if( xConstTickCount == ( TickType_t ) 0U ) /*lint !e774 'if' does not always evaluate to false as it is looking for an overflow. */
 80054be:	693b      	ldr	r3, [r7, #16]
 80054c0:	2b00      	cmp	r3, #0
 80054c2:	d11f      	bne.n	8005504 <xTaskIncrementTick+0x68>
		{
			taskSWITCH_DELAYED_LISTS();
 80054c4:	4b4a      	ldr	r3, [pc, #296]	; (80055f0 <xTaskIncrementTick+0x154>)
 80054c6:	681b      	ldr	r3, [r3, #0]
 80054c8:	681b      	ldr	r3, [r3, #0]
 80054ca:	2b00      	cmp	r3, #0
 80054cc:	d009      	beq.n	80054e2 <xTaskIncrementTick+0x46>
 80054ce:	f04f 0350 	mov.w	r3, #80	; 0x50
 80054d2:	f383 8811 	msr	BASEPRI, r3
 80054d6:	f3bf 8f6f 	isb	sy
 80054da:	f3bf 8f4f 	dsb	sy
 80054de:	603b      	str	r3, [r7, #0]
 80054e0:	e7fe      	b.n	80054e0 <xTaskIncrementTick+0x44>
 80054e2:	4b43      	ldr	r3, [pc, #268]	; (80055f0 <xTaskIncrementTick+0x154>)
 80054e4:	681b      	ldr	r3, [r3, #0]
 80054e6:	60fb      	str	r3, [r7, #12]
 80054e8:	4b42      	ldr	r3, [pc, #264]	; (80055f4 <xTaskIncrementTick+0x158>)
 80054ea:	681b      	ldr	r3, [r3, #0]
 80054ec:	4a40      	ldr	r2, [pc, #256]	; (80055f0 <xTaskIncrementTick+0x154>)
 80054ee:	6013      	str	r3, [r2, #0]
 80054f0:	4a40      	ldr	r2, [pc, #256]	; (80055f4 <xTaskIncrementTick+0x158>)
 80054f2:	68fb      	ldr	r3, [r7, #12]
 80054f4:	6013      	str	r3, [r2, #0]
 80054f6:	4b40      	ldr	r3, [pc, #256]	; (80055f8 <xTaskIncrementTick+0x15c>)
 80054f8:	681b      	ldr	r3, [r3, #0]
 80054fa:	3301      	adds	r3, #1
 80054fc:	4a3e      	ldr	r2, [pc, #248]	; (80055f8 <xTaskIncrementTick+0x15c>)
 80054fe:	6013      	str	r3, [r2, #0]
 8005500:	f000 f994 	bl	800582c <prvResetNextTaskUnblockTime>

		/* See if this tick has made a timeout expire.  Tasks are stored in
		the	queue in the order of their wake time - meaning once one task
		has been found whose block time has not expired there is no need to
		look any further down the list. */
		if( xConstTickCount >= xNextTaskUnblockTime )
 8005504:	4b3d      	ldr	r3, [pc, #244]	; (80055fc <xTaskIncrementTick+0x160>)
 8005506:	681b      	ldr	r3, [r3, #0]
 8005508:	693a      	ldr	r2, [r7, #16]
 800550a:	429a      	cmp	r2, r3
 800550c:	d34d      	bcc.n	80055aa <xTaskIncrementTick+0x10e>
		{
			for( ;; )
			{
				if( listLIST_IS_EMPTY( pxDelayedTaskList ) != pdFALSE )
 800550e:	4b38      	ldr	r3, [pc, #224]	; (80055f0 <xTaskIncrementTick+0x154>)
 8005510:	681b      	ldr	r3, [r3, #0]
 8005512:	681b      	ldr	r3, [r3, #0]
 8005514:	2b00      	cmp	r3, #0
 8005516:	d101      	bne.n	800551c <xTaskIncrementTick+0x80>
 8005518:	2301      	movs	r3, #1
 800551a:	e000      	b.n	800551e <xTaskIncrementTick+0x82>
 800551c:	2300      	movs	r3, #0
 800551e:	2b00      	cmp	r3, #0
 8005520:	d004      	beq.n	800552c <xTaskIncrementTick+0x90>
					/* The delayed list is empty.  Set xNextTaskUnblockTime
					to the maximum possible value so it is extremely
					unlikely that the
					if( xTickCount >= xNextTaskUnblockTime ) test will pass
					next time through. */
					xNextTaskUnblockTime = portMAX_DELAY; /*lint !e961 MISRA exception as the casts are only redundant for some ports. */
 8005522:	4b36      	ldr	r3, [pc, #216]	; (80055fc <xTaskIncrementTick+0x160>)
 8005524:	f04f 32ff 	mov.w	r2, #4294967295
 8005528:	601a      	str	r2, [r3, #0]
					break;
 800552a:	e03e      	b.n	80055aa <xTaskIncrementTick+0x10e>
				{
					/* The delayed list is not empty, get the value of the
					item at the head of the delayed list.  This is the time
					at which the task at the head of the delayed list must
					be removed from the Blocked state. */
					pxTCB = ( TCB_t * ) listGET_OWNER_OF_HEAD_ENTRY( pxDelayedTaskList );
 800552c:	4b30      	ldr	r3, [pc, #192]	; (80055f0 <xTaskIncrementTick+0x154>)
 800552e:	681b      	ldr	r3, [r3, #0]
 8005530:	68db      	ldr	r3, [r3, #12]
 8005532:	68db      	ldr	r3, [r3, #12]
 8005534:	60bb      	str	r3, [r7, #8]
					xItemValue = listGET_LIST_ITEM_VALUE( &( pxTCB->xStateListItem ) );
 8005536:	68bb      	ldr	r3, [r7, #8]
 8005538:	685b      	ldr	r3, [r3, #4]
 800553a:	607b      	str	r3, [r7, #4]

					if( xConstTickCount < xItemValue )
 800553c:	693a      	ldr	r2, [r7, #16]
 800553e:	687b      	ldr	r3, [r7, #4]
 8005540:	429a      	cmp	r2, r3
 8005542:	d203      	bcs.n	800554c <xTaskIncrementTick+0xb0>
						/* It is not time to unblock this item yet, but the
						item value is the time at which the task at the head
						of the blocked list must be removed from the Blocked
						state -	so record the item value in
						xNextTaskUnblockTime. */
						xNextTaskUnblockTime = xItemValue;
 8005544:	4a2d      	ldr	r2, [pc, #180]	; (80055fc <xTaskIncrementTick+0x160>)
 8005546:	687b      	ldr	r3, [r7, #4]
 8005548:	6013      	str	r3, [r2, #0]
						break;
 800554a:	e02e      	b.n	80055aa <xTaskIncrementTick+0x10e>
					{
						mtCOVERAGE_TEST_MARKER();
					}

					/* It is time to remove the item from the Blocked state. */
					( void ) uxListRemove( &( pxTCB->xStateListItem ) );
 800554c:	68bb      	ldr	r3, [r7, #8]
 800554e:	3304      	adds	r3, #4
 8005550:	4618      	mov	r0, r3
 8005552:	f7ff fb28 	bl	8004ba6 <uxListRemove>

					/* Is the task waiting on an event also?  If so remove
					it from the event list. */
					if( listLIST_ITEM_CONTAINER( &( pxTCB->xEventListItem ) ) != NULL )
 8005556:	68bb      	ldr	r3, [r7, #8]
 8005558:	6a9b      	ldr	r3, [r3, #40]	; 0x28
 800555a:	2b00      	cmp	r3, #0
 800555c:	d004      	beq.n	8005568 <xTaskIncrementTick+0xcc>
					{
						( void ) uxListRemove( &( pxTCB->xEventListItem ) );
 800555e:	68bb      	ldr	r3, [r7, #8]
 8005560:	3318      	adds	r3, #24
 8005562:	4618      	mov	r0, r3
 8005564:	f7ff fb1f 	bl	8004ba6 <uxListRemove>
						mtCOVERAGE_TEST_MARKER();
					}

					/* Place the unblocked task into the appropriate ready
					list. */
					prvAddTaskToReadyList( pxTCB );
 8005568:	68bb      	ldr	r3, [r7, #8]
 800556a:	6adb      	ldr	r3, [r3, #44]	; 0x2c
 800556c:	2201      	movs	r2, #1
 800556e:	409a      	lsls	r2, r3
 8005570:	4b23      	ldr	r3, [pc, #140]	; (8005600 <xTaskIncrementTick+0x164>)
 8005572:	681b      	ldr	r3, [r3, #0]
 8005574:	4313      	orrs	r3, r2
 8005576:	4a22      	ldr	r2, [pc, #136]	; (8005600 <xTaskIncrementTick+0x164>)
 8005578:	6013      	str	r3, [r2, #0]
 800557a:	68bb      	ldr	r3, [r7, #8]
 800557c:	6ada      	ldr	r2, [r3, #44]	; 0x2c
 800557e:	4613      	mov	r3, r2
 8005580:	009b      	lsls	r3, r3, #2
 8005582:	4413      	add	r3, r2
 8005584:	009b      	lsls	r3, r3, #2
 8005586:	4a1f      	ldr	r2, [pc, #124]	; (8005604 <xTaskIncrementTick+0x168>)
 8005588:	441a      	add	r2, r3
 800558a:	68bb      	ldr	r3, [r7, #8]
 800558c:	3304      	adds	r3, #4
 800558e:	4619      	mov	r1, r3
 8005590:	4610      	mov	r0, r2
 8005592:	f7ff faad 	bl	8004af0 <vListInsertEnd>
					{
						/* Preemption is on, but a context switch should
						only be performed if the unblocked task has a
						priority that is equal to or higher than the
						currently executing task. */
						if( pxTCB->uxPriority >= pxCurrentTCB->uxPriority )
 8005596:	68bb      	ldr	r3, [r7, #8]
 8005598:	6ada      	ldr	r2, [r3, #44]	; 0x2c
 800559a:	4b1b      	ldr	r3, [pc, #108]	; (8005608 <xTaskIncrementTick+0x16c>)
 800559c:	681b      	ldr	r3, [r3, #0]
 800559e:	6adb      	ldr	r3, [r3, #44]	; 0x2c
 80055a0:	429a      	cmp	r2, r3
 80055a2:	d3b4      	bcc.n	800550e <xTaskIncrementTick+0x72>
						{
							xSwitchRequired = pdTRUE;
 80055a4:	2301      	movs	r3, #1
 80055a6:	617b      	str	r3, [r7, #20]
				if( listLIST_IS_EMPTY( pxDelayedTaskList ) != pdFALSE )
 80055a8:	e7b1      	b.n	800550e <xTaskIncrementTick+0x72>
		/* Tasks of equal priority to the currently running task will share
		processing time (time slice) if preemption is on, and the application
		writer has not explicitly turned time slicing off. */
		#if ( ( configUSE_PREEMPTION == 1 ) && ( configUSE_TIME_SLICING == 1 ) )
		{
			if( listCURRENT_LIST_LENGTH( &( pxReadyTasksLists[ pxCurrentTCB->uxPriority ] ) ) > ( UBaseType_t ) 1 )
 80055aa:	4b17      	ldr	r3, [pc, #92]	; (8005608 <xTaskIncrementTick+0x16c>)
 80055ac:	681b      	ldr	r3, [r3, #0]
 80055ae:	6ada      	ldr	r2, [r3, #44]	; 0x2c
 80055b0:	4914      	ldr	r1, [pc, #80]	; (8005604 <xTaskIncrementTick+0x168>)
 80055b2:	4613      	mov	r3, r2
 80055b4:	009b      	lsls	r3, r3, #2
 80055b6:	4413      	add	r3, r2
 80055b8:	009b      	lsls	r3, r3, #2
 80055ba:	440b      	add	r3, r1
 80055bc:	681b      	ldr	r3, [r3, #0]
 80055be:	2b01      	cmp	r3, #1
 80055c0:	d907      	bls.n	80055d2 <xTaskIncrementTick+0x136>
			{
				xSwitchRequired = pdTRUE;
 80055c2:	2301      	movs	r3, #1
 80055c4:	617b      	str	r3, [r7, #20]
 80055c6:	e004      	b.n	80055d2 <xTaskIncrementTick+0x136>
		}
		#endif /* configUSE_TICK_HOOK */
	}
	else
	{
		++uxPendedTicks;
 80055c8:	4b10      	ldr	r3, [pc, #64]	; (800560c <xTaskIncrementTick+0x170>)
 80055ca:	681b      	ldr	r3, [r3, #0]
 80055cc:	3301      	adds	r3, #1
 80055ce:	4a0f      	ldr	r2, [pc, #60]	; (800560c <xTaskIncrementTick+0x170>)
 80055d0:	6013      	str	r3, [r2, #0]
		#endif
	}

	#if ( configUSE_PREEMPTION == 1 )
	{
		if( xYieldPending != pdFALSE )
 80055d2:	4b0f      	ldr	r3, [pc, #60]	; (8005610 <xTaskIncrementTick+0x174>)
 80055d4:	681b      	ldr	r3, [r3, #0]
 80055d6:	2b00      	cmp	r3, #0
 80055d8:	d001      	beq.n	80055de <xTaskIncrementTick+0x142>
		{
			xSwitchRequired = pdTRUE;
 80055da:	2301      	movs	r3, #1
 80055dc:	617b      	str	r3, [r7, #20]
			mtCOVERAGE_TEST_MARKER();
		}
	}
	#endif /* configUSE_PREEMPTION */

	return xSwitchRequired;
 80055de:	697b      	ldr	r3, [r7, #20]
}
 80055e0:	4618      	mov	r0, r3
 80055e2:	3718      	adds	r7, #24
 80055e4:	46bd      	mov	sp, r7
 80055e6:	bd80      	pop	{r7, pc}
 80055e8:	200003c0 	.word	0x200003c0
 80055ec:	2000039c 	.word	0x2000039c
 80055f0:	20000350 	.word	0x20000350
 80055f4:	20000354 	.word	0x20000354
 80055f8:	200003b0 	.word	0x200003b0
 80055fc:	200003b8 	.word	0x200003b8
 8005600:	200003a0 	.word	0x200003a0
 8005604:	2000029c 	.word	0x2000029c
 8005608:	20000298 	.word	0x20000298
 800560c:	200003a8 	.word	0x200003a8
 8005610:	200003ac 	.word	0x200003ac

08005614 <vTaskSwitchContext>:

#endif /* configUSE_APPLICATION_TASK_TAG */
/*-----------------------------------------------------------*/

void vTaskSwitchContext( void )
{
 8005614:	b480      	push	{r7}
 8005616:	b087      	sub	sp, #28
 8005618:	af00      	add	r7, sp, #0
	if( uxSchedulerSuspended != ( UBaseType_t ) pdFALSE )
 800561a:	4b26      	ldr	r3, [pc, #152]	; (80056b4 <vTaskSwitchContext+0xa0>)
 800561c:	681b      	ldr	r3, [r3, #0]
 800561e:	2b00      	cmp	r3, #0
 8005620:	d003      	beq.n	800562a <vTaskSwitchContext+0x16>
	{
		/* The scheduler is currently suspended - do not allow a context
		switch. */
		xYieldPending = pdTRUE;
 8005622:	4b25      	ldr	r3, [pc, #148]	; (80056b8 <vTaskSwitchContext+0xa4>)
 8005624:	2201      	movs	r2, #1
 8005626:	601a      	str	r2, [r3, #0]
			structure specific to this task. */
			_impure_ptr = &( pxCurrentTCB->xNewLib_reent );
		}
		#endif /* configUSE_NEWLIB_REENTRANT */
	}
}
 8005628:	e03e      	b.n	80056a8 <vTaskSwitchContext+0x94>
		xYieldPending = pdFALSE;
 800562a:	4b23      	ldr	r3, [pc, #140]	; (80056b8 <vTaskSwitchContext+0xa4>)
 800562c:	2200      	movs	r2, #0
 800562e:	601a      	str	r2, [r3, #0]
		taskSELECT_HIGHEST_PRIORITY_TASK();
 8005630:	4b22      	ldr	r3, [pc, #136]	; (80056bc <vTaskSwitchContext+0xa8>)
 8005632:	681b      	ldr	r3, [r3, #0]
 8005634:	60fb      	str	r3, [r7, #12]
		__asm volatile ( "clz %0, %1" : "=r" ( ucReturn ) : "r" ( ulBitmap ) : "memory" );
 8005636:	68fb      	ldr	r3, [r7, #12]
 8005638:	fab3 f383 	clz	r3, r3
 800563c:	72fb      	strb	r3, [r7, #11]
		return ucReturn;
 800563e:	7afb      	ldrb	r3, [r7, #11]
 8005640:	f1c3 031f 	rsb	r3, r3, #31
 8005644:	617b      	str	r3, [r7, #20]
 8005646:	491e      	ldr	r1, [pc, #120]	; (80056c0 <vTaskSwitchContext+0xac>)
 8005648:	697a      	ldr	r2, [r7, #20]
 800564a:	4613      	mov	r3, r2
 800564c:	009b      	lsls	r3, r3, #2
 800564e:	4413      	add	r3, r2
 8005650:	009b      	lsls	r3, r3, #2
 8005652:	440b      	add	r3, r1
 8005654:	681b      	ldr	r3, [r3, #0]
 8005656:	2b00      	cmp	r3, #0
 8005658:	d109      	bne.n	800566e <vTaskSwitchContext+0x5a>
	__asm volatile
 800565a:	f04f 0350 	mov.w	r3, #80	; 0x50
 800565e:	f383 8811 	msr	BASEPRI, r3
 8005662:	f3bf 8f6f 	isb	sy
 8005666:	f3bf 8f4f 	dsb	sy
 800566a:	607b      	str	r3, [r7, #4]
 800566c:	e7fe      	b.n	800566c <vTaskSwitchContext+0x58>
 800566e:	697a      	ldr	r2, [r7, #20]
 8005670:	4613      	mov	r3, r2
 8005672:	009b      	lsls	r3, r3, #2
 8005674:	4413      	add	r3, r2
 8005676:	009b      	lsls	r3, r3, #2
 8005678:	4a11      	ldr	r2, [pc, #68]	; (80056c0 <vTaskSwitchContext+0xac>)
 800567a:	4413      	add	r3, r2
 800567c:	613b      	str	r3, [r7, #16]
 800567e:	693b      	ldr	r3, [r7, #16]
 8005680:	685b      	ldr	r3, [r3, #4]
 8005682:	685a      	ldr	r2, [r3, #4]
 8005684:	693b      	ldr	r3, [r7, #16]
 8005686:	605a      	str	r2, [r3, #4]
 8005688:	693b      	ldr	r3, [r7, #16]
 800568a:	685a      	ldr	r2, [r3, #4]
 800568c:	693b      	ldr	r3, [r7, #16]
 800568e:	3308      	adds	r3, #8
 8005690:	429a      	cmp	r2, r3
 8005692:	d104      	bne.n	800569e <vTaskSwitchContext+0x8a>
 8005694:	693b      	ldr	r3, [r7, #16]
 8005696:	685b      	ldr	r3, [r3, #4]
 8005698:	685a      	ldr	r2, [r3, #4]
 800569a:	693b      	ldr	r3, [r7, #16]
 800569c:	605a      	str	r2, [r3, #4]
 800569e:	693b      	ldr	r3, [r7, #16]
 80056a0:	685b      	ldr	r3, [r3, #4]
 80056a2:	68db      	ldr	r3, [r3, #12]
 80056a4:	4a07      	ldr	r2, [pc, #28]	; (80056c4 <vTaskSwitchContext+0xb0>)
 80056a6:	6013      	str	r3, [r2, #0]
}
 80056a8:	bf00      	nop
 80056aa:	371c      	adds	r7, #28
 80056ac:	46bd      	mov	sp, r7
 80056ae:	bc80      	pop	{r7}
 80056b0:	4770      	bx	lr
 80056b2:	bf00      	nop
 80056b4:	200003c0 	.word	0x200003c0
 80056b8:	200003ac 	.word	0x200003ac
 80056bc:	200003a0 	.word	0x200003a0
 80056c0:	2000029c 	.word	0x2000029c
 80056c4:	20000298 	.word	0x20000298

080056c8 <prvIdleTask>:
 *
 * void prvIdleTask( void *pvParameters );
 *
 */
static portTASK_FUNCTION( prvIdleTask, pvParameters )
{
 80056c8:	b580      	push	{r7, lr}
 80056ca:	b082      	sub	sp, #8
 80056cc:	af00      	add	r7, sp, #0
 80056ce:	6078      	str	r0, [r7, #4]

	for( ;; )
	{
		/* See if any tasks have deleted themselves - if so then the idle task
		is responsible for freeing the deleted task's TCB and stack. */
		prvCheckTasksWaitingTermination();
 80056d0:	f000 f852 	bl	8005778 <prvCheckTasksWaitingTermination>

			A critical region is not required here as we are just reading from
			the list, and an occasional incorrect value will not matter.  If
			the ready list at the idle priority contains more than one task
			then a task other than the idle task is ready to execute. */
			if( listCURRENT_LIST_LENGTH( &( pxReadyTasksLists[ tskIDLE_PRIORITY ] ) ) > ( UBaseType_t ) 1 )
 80056d4:	4b06      	ldr	r3, [pc, #24]	; (80056f0 <prvIdleTask+0x28>)
 80056d6:	681b      	ldr	r3, [r3, #0]
 80056d8:	2b01      	cmp	r3, #1
 80056da:	d9f9      	bls.n	80056d0 <prvIdleTask+0x8>
			{
				taskYIELD();
 80056dc:	4b05      	ldr	r3, [pc, #20]	; (80056f4 <prvIdleTask+0x2c>)
 80056de:	f04f 5280 	mov.w	r2, #268435456	; 0x10000000
 80056e2:	601a      	str	r2, [r3, #0]
 80056e4:	f3bf 8f4f 	dsb	sy
 80056e8:	f3bf 8f6f 	isb	sy
		prvCheckTasksWaitingTermination();
 80056ec:	e7f0      	b.n	80056d0 <prvIdleTask+0x8>
 80056ee:	bf00      	nop
 80056f0:	2000029c 	.word	0x2000029c
 80056f4:	e000ed04 	.word	0xe000ed04

080056f8 <prvInitialiseTaskLists>:

#endif /* portUSING_MPU_WRAPPERS */
/*-----------------------------------------------------------*/

static void prvInitialiseTaskLists( void )
{
 80056f8:	b580      	push	{r7, lr}
 80056fa:	b082      	sub	sp, #8
 80056fc:	af00      	add	r7, sp, #0
UBaseType_t uxPriority;

	for( uxPriority = ( UBaseType_t ) 0U; uxPriority < ( UBaseType_t ) configMAX_PRIORITIES; uxPriority++ )
 80056fe:	2300      	movs	r3, #0
 8005700:	607b      	str	r3, [r7, #4]
 8005702:	e00c      	b.n	800571e <prvInitialiseTaskLists+0x26>
	{
		vListInitialise( &( pxReadyTasksLists[ uxPriority ] ) );
 8005704:	687a      	ldr	r2, [r7, #4]
 8005706:	4613      	mov	r3, r2
 8005708:	009b      	lsls	r3, r3, #2
 800570a:	4413      	add	r3, r2
 800570c:	009b      	lsls	r3, r3, #2
 800570e:	4a12      	ldr	r2, [pc, #72]	; (8005758 <prvInitialiseTaskLists+0x60>)
 8005710:	4413      	add	r3, r2
 8005712:	4618      	mov	r0, r3
 8005714:	f7ff f9c1 	bl	8004a9a <vListInitialise>
	for( uxPriority = ( UBaseType_t ) 0U; uxPriority < ( UBaseType_t ) configMAX_PRIORITIES; uxPriority++ )
 8005718:	687b      	ldr	r3, [r7, #4]
 800571a:	3301      	adds	r3, #1
 800571c:	607b      	str	r3, [r7, #4]
 800571e:	687b      	ldr	r3, [r7, #4]
 8005720:	2b06      	cmp	r3, #6
 8005722:	d9ef      	bls.n	8005704 <prvInitialiseTaskLists+0xc>
	}

	vListInitialise( &xDelayedTaskList1 );
 8005724:	480d      	ldr	r0, [pc, #52]	; (800575c <prvInitialiseTaskLists+0x64>)
 8005726:	f7ff f9b8 	bl	8004a9a <vListInitialise>
	vListInitialise( &xDelayedTaskList2 );
 800572a:	480d      	ldr	r0, [pc, #52]	; (8005760 <prvInitialiseTaskLists+0x68>)
 800572c:	f7ff f9b5 	bl	8004a9a <vListInitialise>
	vListInitialise( &xPendingReadyList );
 8005730:	480c      	ldr	r0, [pc, #48]	; (8005764 <prvInitialiseTaskLists+0x6c>)
 8005732:	f7ff f9b2 	bl	8004a9a <vListInitialise>

	#if ( INCLUDE_vTaskDelete == 1 )
	{
		vListInitialise( &xTasksWaitingTermination );
 8005736:	480c      	ldr	r0, [pc, #48]	; (8005768 <prvInitialiseTaskLists+0x70>)
 8005738:	f7ff f9af 	bl	8004a9a <vListInitialise>
	}
	#endif /* INCLUDE_vTaskDelete */

	#if ( INCLUDE_vTaskSuspend == 1 )
	{
		vListInitialise( &xSuspendedTaskList );
 800573c:	480b      	ldr	r0, [pc, #44]	; (800576c <prvInitialiseTaskLists+0x74>)
 800573e:	f7ff f9ac 	bl	8004a9a <vListInitialise>
	}
	#endif /* INCLUDE_vTaskSuspend */

	/* Start with pxDelayedTaskList using list1 and the pxOverflowDelayedTaskList
	using list2. */
	pxDelayedTaskList = &xDelayedTaskList1;
 8005742:	4b0b      	ldr	r3, [pc, #44]	; (8005770 <prvInitialiseTaskLists+0x78>)
 8005744:	4a05      	ldr	r2, [pc, #20]	; (800575c <prvInitialiseTaskLists+0x64>)
 8005746:	601a      	str	r2, [r3, #0]
	pxOverflowDelayedTaskList = &xDelayedTaskList2;
 8005748:	4b0a      	ldr	r3, [pc, #40]	; (8005774 <prvInitialiseTaskLists+0x7c>)
 800574a:	4a05      	ldr	r2, [pc, #20]	; (8005760 <prvInitialiseTaskLists+0x68>)
 800574c:	601a      	str	r2, [r3, #0]
}
 800574e:	bf00      	nop
 8005750:	3708      	adds	r7, #8
 8005752:	46bd      	mov	sp, r7
 8005754:	bd80      	pop	{r7, pc}
 8005756:	bf00      	nop
 8005758:	2000029c 	.word	0x2000029c
 800575c:	20000328 	.word	0x20000328
 8005760:	2000033c 	.word	0x2000033c
 8005764:	20000358 	.word	0x20000358
 8005768:	2000036c 	.word	0x2000036c
 800576c:	20000384 	.word	0x20000384
 8005770:	20000350 	.word	0x20000350
 8005774:	20000354 	.word	0x20000354

08005778 <prvCheckTasksWaitingTermination>:
/*-----------------------------------------------------------*/

static void prvCheckTasksWaitingTermination( void )
{
 8005778:	b580      	push	{r7, lr}
 800577a:	b082      	sub	sp, #8
 800577c:	af00      	add	r7, sp, #0
	{
		TCB_t *pxTCB;

		/* uxDeletedTasksWaitingCleanUp is used to prevent vTaskSuspendAll()
		being called too often in the idle task. */
		while( uxDeletedTasksWaitingCleanUp > ( UBaseType_t ) 0U )
 800577e:	e019      	b.n	80057b4 <prvCheckTasksWaitingTermination+0x3c>
		{
			taskENTER_CRITICAL();
 8005780:	f000 f9ca 	bl	8005b18 <vPortEnterCritical>
			{
				pxTCB = ( TCB_t * ) listGET_OWNER_OF_HEAD_ENTRY( ( &xTasksWaitingTermination ) );
 8005784:	4b0f      	ldr	r3, [pc, #60]	; (80057c4 <prvCheckTasksWaitingTermination+0x4c>)
 8005786:	68db      	ldr	r3, [r3, #12]
 8005788:	68db      	ldr	r3, [r3, #12]
 800578a:	607b      	str	r3, [r7, #4]
				( void ) uxListRemove( &( pxTCB->xStateListItem ) );
 800578c:	687b      	ldr	r3, [r7, #4]
 800578e:	3304      	adds	r3, #4
 8005790:	4618      	mov	r0, r3
 8005792:	f7ff fa08 	bl	8004ba6 <uxListRemove>
				--uxCurrentNumberOfTasks;
 8005796:	4b0c      	ldr	r3, [pc, #48]	; (80057c8 <prvCheckTasksWaitingTermination+0x50>)
 8005798:	681b      	ldr	r3, [r3, #0]
 800579a:	3b01      	subs	r3, #1
 800579c:	4a0a      	ldr	r2, [pc, #40]	; (80057c8 <prvCheckTasksWaitingTermination+0x50>)
 800579e:	6013      	str	r3, [r2, #0]
				--uxDeletedTasksWaitingCleanUp;
 80057a0:	4b0a      	ldr	r3, [pc, #40]	; (80057cc <prvCheckTasksWaitingTermination+0x54>)
 80057a2:	681b      	ldr	r3, [r3, #0]
 80057a4:	3b01      	subs	r3, #1
 80057a6:	4a09      	ldr	r2, [pc, #36]	; (80057cc <prvCheckTasksWaitingTermination+0x54>)
 80057a8:	6013      	str	r3, [r2, #0]
			}
			taskEXIT_CRITICAL();
 80057aa:	f000 f9e3 	bl	8005b74 <vPortExitCritical>

			prvDeleteTCB( pxTCB );
 80057ae:	6878      	ldr	r0, [r7, #4]
 80057b0:	f000 f80e 	bl	80057d0 <prvDeleteTCB>
		while( uxDeletedTasksWaitingCleanUp > ( UBaseType_t ) 0U )
 80057b4:	4b05      	ldr	r3, [pc, #20]	; (80057cc <prvCheckTasksWaitingTermination+0x54>)
 80057b6:	681b      	ldr	r3, [r3, #0]
 80057b8:	2b00      	cmp	r3, #0
 80057ba:	d1e1      	bne.n	8005780 <prvCheckTasksWaitingTermination+0x8>
		}
	}
	#endif /* INCLUDE_vTaskDelete */
}
 80057bc:	bf00      	nop
 80057be:	3708      	adds	r7, #8
 80057c0:	46bd      	mov	sp, r7
 80057c2:	bd80      	pop	{r7, pc}
 80057c4:	2000036c 	.word	0x2000036c
 80057c8:	20000398 	.word	0x20000398
 80057cc:	20000380 	.word	0x20000380

080057d0 <prvDeleteTCB>:
/*-----------------------------------------------------------*/

#if ( INCLUDE_vTaskDelete == 1 )

	static void prvDeleteTCB( TCB_t *pxTCB )
	{
 80057d0:	b580      	push	{r7, lr}
 80057d2:	b084      	sub	sp, #16
 80057d4:	af00      	add	r7, sp, #0
 80057d6:	6078      	str	r0, [r7, #4]
		#elif( tskSTATIC_AND_DYNAMIC_ALLOCATION_POSSIBLE != 0 ) /*lint !e731 Macro has been consolidated for readability reasons. */
		{
			/* The task could have been allocated statically or dynamically, so
			check what was statically allocated before trying to free the
			memory. */
			if( pxTCB->ucStaticallyAllocated == tskDYNAMICALLY_ALLOCATED_STACK_AND_TCB )
 80057d8:	687b      	ldr	r3, [r7, #4]
 80057da:	f893 3051 	ldrb.w	r3, [r3, #81]	; 0x51
 80057de:	2b00      	cmp	r3, #0
 80057e0:	d108      	bne.n	80057f4 <prvDeleteTCB+0x24>
			{
				/* Both the stack and TCB were allocated dynamically, so both
				must be freed. */
				vPortFree( pxTCB->pxStack );
 80057e2:	687b      	ldr	r3, [r7, #4]
 80057e4:	6b1b      	ldr	r3, [r3, #48]	; 0x30
 80057e6:	4618      	mov	r0, r3
 80057e8:	f000 fb4e 	bl	8005e88 <vPortFree>
				vPortFree( pxTCB );
 80057ec:	6878      	ldr	r0, [r7, #4]
 80057ee:	f000 fb4b 	bl	8005e88 <vPortFree>
				configASSERT( pxTCB->ucStaticallyAllocated == tskSTATICALLY_ALLOCATED_STACK_AND_TCB	);
				mtCOVERAGE_TEST_MARKER();
			}
		}
		#endif /* configSUPPORT_DYNAMIC_ALLOCATION */
	}
 80057f2:	e017      	b.n	8005824 <prvDeleteTCB+0x54>
			else if( pxTCB->ucStaticallyAllocated == tskSTATICALLY_ALLOCATED_STACK_ONLY )
 80057f4:	687b      	ldr	r3, [r7, #4]
 80057f6:	f893 3051 	ldrb.w	r3, [r3, #81]	; 0x51
 80057fa:	2b01      	cmp	r3, #1
 80057fc:	d103      	bne.n	8005806 <prvDeleteTCB+0x36>
				vPortFree( pxTCB );
 80057fe:	6878      	ldr	r0, [r7, #4]
 8005800:	f000 fb42 	bl	8005e88 <vPortFree>
	}
 8005804:	e00e      	b.n	8005824 <prvDeleteTCB+0x54>
				configASSERT( pxTCB->ucStaticallyAllocated == tskSTATICALLY_ALLOCATED_STACK_AND_TCB	);
 8005806:	687b      	ldr	r3, [r7, #4]
 8005808:	f893 3051 	ldrb.w	r3, [r3, #81]	; 0x51
 800580c:	2b02      	cmp	r3, #2
 800580e:	d009      	beq.n	8005824 <prvDeleteTCB+0x54>
 8005810:	f04f 0350 	mov.w	r3, #80	; 0x50
 8005814:	f383 8811 	msr	BASEPRI, r3
 8005818:	f3bf 8f6f 	isb	sy
 800581c:	f3bf 8f4f 	dsb	sy
 8005820:	60fb      	str	r3, [r7, #12]
 8005822:	e7fe      	b.n	8005822 <prvDeleteTCB+0x52>
	}
 8005824:	bf00      	nop
 8005826:	3710      	adds	r7, #16
 8005828:	46bd      	mov	sp, r7
 800582a:	bd80      	pop	{r7, pc}

0800582c <prvResetNextTaskUnblockTime>:

#endif /* INCLUDE_vTaskDelete */
/*-----------------------------------------------------------*/

static void prvResetNextTaskUnblockTime( void )
{
 800582c:	b480      	push	{r7}
 800582e:	b083      	sub	sp, #12
 8005830:	af00      	add	r7, sp, #0
TCB_t *pxTCB;

	if( listLIST_IS_EMPTY( pxDelayedTaskList ) != pdFALSE )
 8005832:	4b0e      	ldr	r3, [pc, #56]	; (800586c <prvResetNextTaskUnblockTime+0x40>)
 8005834:	681b      	ldr	r3, [r3, #0]
 8005836:	681b      	ldr	r3, [r3, #0]
 8005838:	2b00      	cmp	r3, #0
 800583a:	d101      	bne.n	8005840 <prvResetNextTaskUnblockTime+0x14>
 800583c:	2301      	movs	r3, #1
 800583e:	e000      	b.n	8005842 <prvResetNextTaskUnblockTime+0x16>
 8005840:	2300      	movs	r3, #0
 8005842:	2b00      	cmp	r3, #0
 8005844:	d004      	beq.n	8005850 <prvResetNextTaskUnblockTime+0x24>
	{
		/* The new current delayed list is empty.  Set xNextTaskUnblockTime to
		the maximum possible value so it is	extremely unlikely that the
		if( xTickCount >= xNextTaskUnblockTime ) test will pass until
		there is an item in the delayed list. */
		xNextTaskUnblockTime = portMAX_DELAY;
 8005846:	4b0a      	ldr	r3, [pc, #40]	; (8005870 <prvResetNextTaskUnblockTime+0x44>)
 8005848:	f04f 32ff 	mov.w	r2, #4294967295
 800584c:	601a      	str	r2, [r3, #0]
		which the task at the head of the delayed list should be removed
		from the Blocked state. */
		( pxTCB ) = ( TCB_t * ) listGET_OWNER_OF_HEAD_ENTRY( pxDelayedTaskList );
		xNextTaskUnblockTime = listGET_LIST_ITEM_VALUE( &( ( pxTCB )->xStateListItem ) );
	}
}
 800584e:	e008      	b.n	8005862 <prvResetNextTaskUnblockTime+0x36>
		( pxTCB ) = ( TCB_t * ) listGET_OWNER_OF_HEAD_ENTRY( pxDelayedTaskList );
 8005850:	4b06      	ldr	r3, [pc, #24]	; (800586c <prvResetNextTaskUnblockTime+0x40>)
 8005852:	681b      	ldr	r3, [r3, #0]
 8005854:	68db      	ldr	r3, [r3, #12]
 8005856:	68db      	ldr	r3, [r3, #12]
 8005858:	607b      	str	r3, [r7, #4]
		xNextTaskUnblockTime = listGET_LIST_ITEM_VALUE( &( ( pxTCB )->xStateListItem ) );
 800585a:	687b      	ldr	r3, [r7, #4]
 800585c:	685b      	ldr	r3, [r3, #4]
 800585e:	4a04      	ldr	r2, [pc, #16]	; (8005870 <prvResetNextTaskUnblockTime+0x44>)
 8005860:	6013      	str	r3, [r2, #0]
}
 8005862:	bf00      	nop
 8005864:	370c      	adds	r7, #12
 8005866:	46bd      	mov	sp, r7
 8005868:	bc80      	pop	{r7}
 800586a:	4770      	bx	lr
 800586c:	20000350 	.word	0x20000350
 8005870:	200003b8 	.word	0x200003b8

08005874 <prvAddCurrentTaskToDelayedList>:
#endif /* configUSE_TASK_NOTIFICATIONS */
/*-----------------------------------------------------------*/


static void prvAddCurrentTaskToDelayedList( TickType_t xTicksToWait, const BaseType_t xCanBlockIndefinitely )
{
 8005874:	b580      	push	{r7, lr}
 8005876:	b084      	sub	sp, #16
 8005878:	af00      	add	r7, sp, #0
 800587a:	6078      	str	r0, [r7, #4]
 800587c:	6039      	str	r1, [r7, #0]
TickType_t xTimeToWake;
const TickType_t xConstTickCount = xTickCount;
 800587e:	4b29      	ldr	r3, [pc, #164]	; (8005924 <prvAddCurrentTaskToDelayedList+0xb0>)
 8005880:	681b      	ldr	r3, [r3, #0]
 8005882:	60fb      	str	r3, [r7, #12]
	}
	#endif

	/* Remove the task from the ready list before adding it to the blocked list
	as the same list item is used for both lists. */
	if( uxListRemove( &( pxCurrentTCB->xStateListItem ) ) == ( UBaseType_t ) 0 )
 8005884:	4b28      	ldr	r3, [pc, #160]	; (8005928 <prvAddCurrentTaskToDelayedList+0xb4>)
 8005886:	681b      	ldr	r3, [r3, #0]
 8005888:	3304      	adds	r3, #4
 800588a:	4618      	mov	r0, r3
 800588c:	f7ff f98b 	bl	8004ba6 <uxListRemove>
 8005890:	4603      	mov	r3, r0
 8005892:	2b00      	cmp	r3, #0
 8005894:	d10b      	bne.n	80058ae <prvAddCurrentTaskToDelayedList+0x3a>
	{
		/* The current task must be in a ready list, so there is no need to
		check, and the port reset macro can be called directly. */
		portRESET_READY_PRIORITY( pxCurrentTCB->uxPriority, uxTopReadyPriority );
 8005896:	4b24      	ldr	r3, [pc, #144]	; (8005928 <prvAddCurrentTaskToDelayedList+0xb4>)
 8005898:	681b      	ldr	r3, [r3, #0]
 800589a:	6adb      	ldr	r3, [r3, #44]	; 0x2c
 800589c:	2201      	movs	r2, #1
 800589e:	fa02 f303 	lsl.w	r3, r2, r3
 80058a2:	43da      	mvns	r2, r3
 80058a4:	4b21      	ldr	r3, [pc, #132]	; (800592c <prvAddCurrentTaskToDelayedList+0xb8>)
 80058a6:	681b      	ldr	r3, [r3, #0]
 80058a8:	4013      	ands	r3, r2
 80058aa:	4a20      	ldr	r2, [pc, #128]	; (800592c <prvAddCurrentTaskToDelayedList+0xb8>)
 80058ac:	6013      	str	r3, [r2, #0]
		mtCOVERAGE_TEST_MARKER();
	}

	#if ( INCLUDE_vTaskSuspend == 1 )
	{
		if( ( xTicksToWait == portMAX_DELAY ) && ( xCanBlockIndefinitely != pdFALSE ) )
 80058ae:	687b      	ldr	r3, [r7, #4]
 80058b0:	f1b3 3fff 	cmp.w	r3, #4294967295
 80058b4:	d10a      	bne.n	80058cc <prvAddCurrentTaskToDelayedList+0x58>
 80058b6:	683b      	ldr	r3, [r7, #0]
 80058b8:	2b00      	cmp	r3, #0
 80058ba:	d007      	beq.n	80058cc <prvAddCurrentTaskToDelayedList+0x58>
		{
			/* Add the task to the suspended task list instead of a delayed task
			list to ensure it is not woken by a timing event.  It will block
			indefinitely. */
			vListInsertEnd( &xSuspendedTaskList, &( pxCurrentTCB->xStateListItem ) );
 80058bc:	4b1a      	ldr	r3, [pc, #104]	; (8005928 <prvAddCurrentTaskToDelayedList+0xb4>)
 80058be:	681b      	ldr	r3, [r3, #0]
 80058c0:	3304      	adds	r3, #4
 80058c2:	4619      	mov	r1, r3
 80058c4:	481a      	ldr	r0, [pc, #104]	; (8005930 <prvAddCurrentTaskToDelayedList+0xbc>)
 80058c6:	f7ff f913 	bl	8004af0 <vListInsertEnd>

		/* Avoid compiler warning when INCLUDE_vTaskSuspend is not 1. */
		( void ) xCanBlockIndefinitely;
	}
	#endif /* INCLUDE_vTaskSuspend */
}
 80058ca:	e026      	b.n	800591a <prvAddCurrentTaskToDelayedList+0xa6>
			xTimeToWake = xConstTickCount + xTicksToWait;
 80058cc:	68fa      	ldr	r2, [r7, #12]
 80058ce:	687b      	ldr	r3, [r7, #4]
 80058d0:	4413      	add	r3, r2
 80058d2:	60bb      	str	r3, [r7, #8]
			listSET_LIST_ITEM_VALUE( &( pxCurrentTCB->xStateListItem ), xTimeToWake );
 80058d4:	4b14      	ldr	r3, [pc, #80]	; (8005928 <prvAddCurrentTaskToDelayedList+0xb4>)
 80058d6:	681b      	ldr	r3, [r3, #0]
 80058d8:	68ba      	ldr	r2, [r7, #8]
 80058da:	605a      	str	r2, [r3, #4]
			if( xTimeToWake < xConstTickCount )
 80058dc:	68ba      	ldr	r2, [r7, #8]
 80058de:	68fb      	ldr	r3, [r7, #12]
 80058e0:	429a      	cmp	r2, r3
 80058e2:	d209      	bcs.n	80058f8 <prvAddCurrentTaskToDelayedList+0x84>
				vListInsert( pxOverflowDelayedTaskList, &( pxCurrentTCB->xStateListItem ) );
 80058e4:	4b13      	ldr	r3, [pc, #76]	; (8005934 <prvAddCurrentTaskToDelayedList+0xc0>)
 80058e6:	681a      	ldr	r2, [r3, #0]
 80058e8:	4b0f      	ldr	r3, [pc, #60]	; (8005928 <prvAddCurrentTaskToDelayedList+0xb4>)
 80058ea:	681b      	ldr	r3, [r3, #0]
 80058ec:	3304      	adds	r3, #4
 80058ee:	4619      	mov	r1, r3
 80058f0:	4610      	mov	r0, r2
 80058f2:	f7ff f920 	bl	8004b36 <vListInsert>
}
 80058f6:	e010      	b.n	800591a <prvAddCurrentTaskToDelayedList+0xa6>
				vListInsert( pxDelayedTaskList, &( pxCurrentTCB->xStateListItem ) );
 80058f8:	4b0f      	ldr	r3, [pc, #60]	; (8005938 <prvAddCurrentTaskToDelayedList+0xc4>)
 80058fa:	681a      	ldr	r2, [r3, #0]
 80058fc:	4b0a      	ldr	r3, [pc, #40]	; (8005928 <prvAddCurrentTaskToDelayedList+0xb4>)
 80058fe:	681b      	ldr	r3, [r3, #0]
 8005900:	3304      	adds	r3, #4
 8005902:	4619      	mov	r1, r3
 8005904:	4610      	mov	r0, r2
 8005906:	f7ff f916 	bl	8004b36 <vListInsert>
				if( xTimeToWake < xNextTaskUnblockTime )
 800590a:	4b0c      	ldr	r3, [pc, #48]	; (800593c <prvAddCurrentTaskToDelayedList+0xc8>)
 800590c:	681b      	ldr	r3, [r3, #0]
 800590e:	68ba      	ldr	r2, [r7, #8]
 8005910:	429a      	cmp	r2, r3
 8005912:	d202      	bcs.n	800591a <prvAddCurrentTaskToDelayedList+0xa6>
					xNextTaskUnblockTime = xTimeToWake;
 8005914:	4a09      	ldr	r2, [pc, #36]	; (800593c <prvAddCurrentTaskToDelayedList+0xc8>)
 8005916:	68bb      	ldr	r3, [r7, #8]
 8005918:	6013      	str	r3, [r2, #0]
}
 800591a:	bf00      	nop
 800591c:	3710      	adds	r7, #16
 800591e:	46bd      	mov	sp, r7
 8005920:	bd80      	pop	{r7, pc}
 8005922:	bf00      	nop
 8005924:	2000039c 	.word	0x2000039c
 8005928:	20000298 	.word	0x20000298
 800592c:	200003a0 	.word	0x200003a0
 8005930:	20000384 	.word	0x20000384
 8005934:	20000354 	.word	0x20000354
 8005938:	20000350 	.word	0x20000350
 800593c:	200003b8 	.word	0x200003b8

08005940 <pxPortInitialiseStack>:

/*
 * See header file for description.
 */
StackType_t *pxPortInitialiseStack( StackType_t *pxTopOfStack, TaskFunction_t pxCode, void *pvParameters )
{
 8005940:	b480      	push	{r7}
 8005942:	b085      	sub	sp, #20
 8005944:	af00      	add	r7, sp, #0
 8005946:	60f8      	str	r0, [r7, #12]
 8005948:	60b9      	str	r1, [r7, #8]
 800594a:	607a      	str	r2, [r7, #4]
	/* Simulate the stack frame as it would be created by a context switch
	interrupt. */
	pxTopOfStack--; /* Offset added to account for the way the MCU uses the stack on entry/exit of interrupts. */
 800594c:	68fb      	ldr	r3, [r7, #12]
 800594e:	3b04      	subs	r3, #4
 8005950:	60fb      	str	r3, [r7, #12]
	*pxTopOfStack = portINITIAL_XPSR;	/* xPSR */
 8005952:	68fb      	ldr	r3, [r7, #12]
 8005954:	f04f 7280 	mov.w	r2, #16777216	; 0x1000000
 8005958:	601a      	str	r2, [r3, #0]
	pxTopOfStack--;
 800595a:	68fb      	ldr	r3, [r7, #12]
 800595c:	3b04      	subs	r3, #4
 800595e:	60fb      	str	r3, [r7, #12]
	*pxTopOfStack = ( ( StackType_t ) pxCode ) & portSTART_ADDRESS_MASK;	/* PC */
 8005960:	68bb      	ldr	r3, [r7, #8]
 8005962:	f023 0201 	bic.w	r2, r3, #1
 8005966:	68fb      	ldr	r3, [r7, #12]
 8005968:	601a      	str	r2, [r3, #0]
	pxTopOfStack--;
 800596a:	68fb      	ldr	r3, [r7, #12]
 800596c:	3b04      	subs	r3, #4
 800596e:	60fb      	str	r3, [r7, #12]
	*pxTopOfStack = ( StackType_t ) portTASK_RETURN_ADDRESS;	/* LR */
 8005970:	4a08      	ldr	r2, [pc, #32]	; (8005994 <pxPortInitialiseStack+0x54>)
 8005972:	68fb      	ldr	r3, [r7, #12]
 8005974:	601a      	str	r2, [r3, #0]
	pxTopOfStack -= 5;	/* R12, R3, R2 and R1. */
 8005976:	68fb      	ldr	r3, [r7, #12]
 8005978:	3b14      	subs	r3, #20
 800597a:	60fb      	str	r3, [r7, #12]
	*pxTopOfStack = ( StackType_t ) pvParameters;	/* R0 */
 800597c:	687a      	ldr	r2, [r7, #4]
 800597e:	68fb      	ldr	r3, [r7, #12]
 8005980:	601a      	str	r2, [r3, #0]
	pxTopOfStack -= 8;	/* R11, R10, R9, R8, R7, R6, R5 and R4. */
 8005982:	68fb      	ldr	r3, [r7, #12]
 8005984:	3b20      	subs	r3, #32
 8005986:	60fb      	str	r3, [r7, #12]

	return pxTopOfStack;
 8005988:	68fb      	ldr	r3, [r7, #12]
}
 800598a:	4618      	mov	r0, r3
 800598c:	3714      	adds	r7, #20
 800598e:	46bd      	mov	sp, r7
 8005990:	bc80      	pop	{r7}
 8005992:	4770      	bx	lr
 8005994:	08005999 	.word	0x08005999

08005998 <prvTaskExitError>:
/*-----------------------------------------------------------*/

static void prvTaskExitError( void )
{
 8005998:	b480      	push	{r7}
 800599a:	b085      	sub	sp, #20
 800599c:	af00      	add	r7, sp, #0
volatile uint32_t ulDummy = 0UL;
 800599e:	2300      	movs	r3, #0
 80059a0:	607b      	str	r3, [r7, #4]
	its caller as there is nothing to return to.  If a task wants to exit it
	should instead call vTaskDelete( NULL ).

	Artificially force an assert() to be triggered if configASSERT() is
	defined, then stop here so application writers can catch the error. */
	configASSERT( uxCriticalNesting == ~0UL );
 80059a2:	4b10      	ldr	r3, [pc, #64]	; (80059e4 <prvTaskExitError+0x4c>)
 80059a4:	681b      	ldr	r3, [r3, #0]
 80059a6:	f1b3 3fff 	cmp.w	r3, #4294967295
 80059aa:	d009      	beq.n	80059c0 <prvTaskExitError+0x28>
 80059ac:	f04f 0350 	mov.w	r3, #80	; 0x50
 80059b0:	f383 8811 	msr	BASEPRI, r3
 80059b4:	f3bf 8f6f 	isb	sy
 80059b8:	f3bf 8f4f 	dsb	sy
 80059bc:	60fb      	str	r3, [r7, #12]
 80059be:	e7fe      	b.n	80059be <prvTaskExitError+0x26>
 80059c0:	f04f 0350 	mov.w	r3, #80	; 0x50
 80059c4:	f383 8811 	msr	BASEPRI, r3
 80059c8:	f3bf 8f6f 	isb	sy
 80059cc:	f3bf 8f4f 	dsb	sy
 80059d0:	60bb      	str	r3, [r7, #8]
	portDISABLE_INTERRUPTS();
	while( ulDummy == 0 )
 80059d2:	bf00      	nop
 80059d4:	687b      	ldr	r3, [r7, #4]
 80059d6:	2b00      	cmp	r3, #0
 80059d8:	d0fc      	beq.n	80059d4 <prvTaskExitError+0x3c>
		about code appearing after this function is called - making ulDummy
		volatile makes the compiler think the function could return and
		therefore not output an 'unreachable code' warning for code that appears
		after it. */
	}
}
 80059da:	bf00      	nop
 80059dc:	3714      	adds	r7, #20
 80059de:	46bd      	mov	sp, r7
 80059e0:	bc80      	pop	{r7}
 80059e2:	4770      	bx	lr
 80059e4:	2000000c 	.word	0x2000000c
	...

080059f0 <SVC_Handler>:
/*-----------------------------------------------------------*/

void vPortSVCHandler( void )
{
	__asm volatile (
 80059f0:	4b07      	ldr	r3, [pc, #28]	; (8005a10 <pxCurrentTCBConst2>)
 80059f2:	6819      	ldr	r1, [r3, #0]
 80059f4:	6808      	ldr	r0, [r1, #0]
 80059f6:	e8b0 0ff0 	ldmia.w	r0!, {r4, r5, r6, r7, r8, r9, sl, fp}
 80059fa:	f380 8809 	msr	PSP, r0
 80059fe:	f3bf 8f6f 	isb	sy
 8005a02:	f04f 0000 	mov.w	r0, #0
 8005a06:	f380 8811 	msr	BASEPRI, r0
 8005a0a:	f04e 0e0d 	orr.w	lr, lr, #13
 8005a0e:	4770      	bx	lr

08005a10 <pxCurrentTCBConst2>:
 8005a10:	20000298 	.word	0x20000298
					"	bx r14							\n"
					"									\n"
					"	.align 4						\n"
					"pxCurrentTCBConst2: .word pxCurrentTCB				\n"
				);
}
 8005a14:	bf00      	nop
 8005a16:	bf00      	nop

08005a18 <prvPortStartFirstTask>:
/*-----------------------------------------------------------*/

static void prvPortStartFirstTask( void )
{
	__asm volatile(
 8005a18:	4806      	ldr	r0, [pc, #24]	; (8005a34 <prvPortStartFirstTask+0x1c>)
 8005a1a:	6800      	ldr	r0, [r0, #0]
 8005a1c:	6800      	ldr	r0, [r0, #0]
 8005a1e:	f380 8808 	msr	MSP, r0
 8005a22:	b662      	cpsie	i
 8005a24:	b661      	cpsie	f
 8005a26:	f3bf 8f4f 	dsb	sy
 8005a2a:	f3bf 8f6f 	isb	sy
 8005a2e:	df00      	svc	0
 8005a30:	bf00      	nop
					" dsb					\n"
					" isb					\n"
					" svc 0					\n" /* System call to start first task. */
					" nop					\n"
				);
}
 8005a32:	bf00      	nop
 8005a34:	e000ed08 	.word	0xe000ed08

08005a38 <xPortStartScheduler>:

/*
 * See header file for description.
 */
BaseType_t xPortStartScheduler( void )
{
 8005a38:	b580      	push	{r7, lr}
 8005a3a:	b084      	sub	sp, #16
 8005a3c:	af00      	add	r7, sp, #0
	configASSERT( configMAX_SYSCALL_INTERRUPT_PRIORITY );

	#if( configASSERT_DEFINED == 1 )
	{
		volatile uint32_t ulOriginalPriority;
		volatile uint8_t * const pucFirstUserPriorityRegister = ( volatile uint8_t * const ) ( portNVIC_IP_REGISTERS_OFFSET_16 + portFIRST_USER_INTERRUPT_NUMBER );
 8005a3e:	4b31      	ldr	r3, [pc, #196]	; (8005b04 <xPortStartScheduler+0xcc>)
 8005a40:	60fb      	str	r3, [r7, #12]
		functions can be called.  ISR safe functions are those that end in
		"FromISR".  FreeRTOS maintains separate thread and ISR API functions to
		ensure interrupt entry is as fast and simple as possible.

		Save the interrupt priority value that is about to be clobbered. */
		ulOriginalPriority = *pucFirstUserPriorityRegister;
 8005a42:	68fb      	ldr	r3, [r7, #12]
 8005a44:	781b      	ldrb	r3, [r3, #0]
 8005a46:	b2db      	uxtb	r3, r3
 8005a48:	607b      	str	r3, [r7, #4]

		/* Determine the number of priority bits available.  First write to all
		possible bits. */
		*pucFirstUserPriorityRegister = portMAX_8_BIT_VALUE;
 8005a4a:	68fb      	ldr	r3, [r7, #12]
 8005a4c:	22ff      	movs	r2, #255	; 0xff
 8005a4e:	701a      	strb	r2, [r3, #0]

		/* Read the value back to see how many bits stuck. */
		ucMaxPriorityValue = *pucFirstUserPriorityRegister;
 8005a50:	68fb      	ldr	r3, [r7, #12]
 8005a52:	781b      	ldrb	r3, [r3, #0]
 8005a54:	b2db      	uxtb	r3, r3
 8005a56:	70fb      	strb	r3, [r7, #3]

		/* Use the same mask on the maximum system call priority. */
		ucMaxSysCallPriority = configMAX_SYSCALL_INTERRUPT_PRIORITY & ucMaxPriorityValue;
 8005a58:	78fb      	ldrb	r3, [r7, #3]
 8005a5a:	b2db      	uxtb	r3, r3
 8005a5c:	f003 0350 	and.w	r3, r3, #80	; 0x50
 8005a60:	b2da      	uxtb	r2, r3
 8005a62:	4b29      	ldr	r3, [pc, #164]	; (8005b08 <xPortStartScheduler+0xd0>)
 8005a64:	701a      	strb	r2, [r3, #0]

		/* Calculate the maximum acceptable priority group value for the number
		of bits read back. */
		ulMaxPRIGROUPValue = portMAX_PRIGROUP_BITS;
 8005a66:	4b29      	ldr	r3, [pc, #164]	; (8005b0c <xPortStartScheduler+0xd4>)
 8005a68:	2207      	movs	r2, #7
 8005a6a:	601a      	str	r2, [r3, #0]
		while( ( ucMaxPriorityValue & portTOP_BIT_OF_BYTE ) == portTOP_BIT_OF_BYTE )
 8005a6c:	e009      	b.n	8005a82 <xPortStartScheduler+0x4a>
		{
			ulMaxPRIGROUPValue--;
 8005a6e:	4b27      	ldr	r3, [pc, #156]	; (8005b0c <xPortStartScheduler+0xd4>)
 8005a70:	681b      	ldr	r3, [r3, #0]
 8005a72:	3b01      	subs	r3, #1
 8005a74:	4a25      	ldr	r2, [pc, #148]	; (8005b0c <xPortStartScheduler+0xd4>)
 8005a76:	6013      	str	r3, [r2, #0]
			ucMaxPriorityValue <<= ( uint8_t ) 0x01;
 8005a78:	78fb      	ldrb	r3, [r7, #3]
 8005a7a:	b2db      	uxtb	r3, r3
 8005a7c:	005b      	lsls	r3, r3, #1
 8005a7e:	b2db      	uxtb	r3, r3
 8005a80:	70fb      	strb	r3, [r7, #3]
		while( ( ucMaxPriorityValue & portTOP_BIT_OF_BYTE ) == portTOP_BIT_OF_BYTE )
 8005a82:	78fb      	ldrb	r3, [r7, #3]
 8005a84:	b2db      	uxtb	r3, r3
 8005a86:	f003 0380 	and.w	r3, r3, #128	; 0x80
 8005a8a:	2b80      	cmp	r3, #128	; 0x80
 8005a8c:	d0ef      	beq.n	8005a6e <xPortStartScheduler+0x36>
		#ifdef configPRIO_BITS
		{
			/* Check the FreeRTOS configuration that defines the number of
			priority bits matches the number of priority bits actually queried
			from the hardware. */
			configASSERT( ( portMAX_PRIGROUP_BITS - ulMaxPRIGROUPValue ) == configPRIO_BITS );
 8005a8e:	4b1f      	ldr	r3, [pc, #124]	; (8005b0c <xPortStartScheduler+0xd4>)
 8005a90:	681b      	ldr	r3, [r3, #0]
 8005a92:	f1c3 0307 	rsb	r3, r3, #7
 8005a96:	2b04      	cmp	r3, #4
 8005a98:	d009      	beq.n	8005aae <xPortStartScheduler+0x76>
 8005a9a:	f04f 0350 	mov.w	r3, #80	; 0x50
 8005a9e:	f383 8811 	msr	BASEPRI, r3
 8005aa2:	f3bf 8f6f 	isb	sy
 8005aa6:	f3bf 8f4f 	dsb	sy
 8005aaa:	60bb      	str	r3, [r7, #8]
 8005aac:	e7fe      	b.n	8005aac <xPortStartScheduler+0x74>
		}
		#endif

		/* Shift the priority group value back to its position within the AIRCR
		register. */
		ulMaxPRIGROUPValue <<= portPRIGROUP_SHIFT;
 8005aae:	4b17      	ldr	r3, [pc, #92]	; (8005b0c <xPortStartScheduler+0xd4>)
 8005ab0:	681b      	ldr	r3, [r3, #0]
 8005ab2:	021b      	lsls	r3, r3, #8
 8005ab4:	4a15      	ldr	r2, [pc, #84]	; (8005b0c <xPortStartScheduler+0xd4>)
 8005ab6:	6013      	str	r3, [r2, #0]
		ulMaxPRIGROUPValue &= portPRIORITY_GROUP_MASK;
 8005ab8:	4b14      	ldr	r3, [pc, #80]	; (8005b0c <xPortStartScheduler+0xd4>)
 8005aba:	681b      	ldr	r3, [r3, #0]
 8005abc:	f403 63e0 	and.w	r3, r3, #1792	; 0x700
 8005ac0:	4a12      	ldr	r2, [pc, #72]	; (8005b0c <xPortStartScheduler+0xd4>)
 8005ac2:	6013      	str	r3, [r2, #0]

		/* Restore the clobbered interrupt priority register to its original
		value. */
		*pucFirstUserPriorityRegister = ulOriginalPriority;
 8005ac4:	687b      	ldr	r3, [r7, #4]
 8005ac6:	b2da      	uxtb	r2, r3
 8005ac8:	68fb      	ldr	r3, [r7, #12]
 8005aca:	701a      	strb	r2, [r3, #0]
	}
	#endif /* conifgASSERT_DEFINED */

	/* Make PendSV and SysTick the lowest priority interrupts. */
	portNVIC_SYSPRI2_REG |= portNVIC_PENDSV_PRI;
 8005acc:	4b10      	ldr	r3, [pc, #64]	; (8005b10 <xPortStartScheduler+0xd8>)
 8005ace:	681b      	ldr	r3, [r3, #0]
 8005ad0:	4a0f      	ldr	r2, [pc, #60]	; (8005b10 <xPortStartScheduler+0xd8>)
 8005ad2:	f443 0370 	orr.w	r3, r3, #15728640	; 0xf00000
 8005ad6:	6013      	str	r3, [r2, #0]
	portNVIC_SYSPRI2_REG |= portNVIC_SYSTICK_PRI;
 8005ad8:	4b0d      	ldr	r3, [pc, #52]	; (8005b10 <xPortStartScheduler+0xd8>)
 8005ada:	681b      	ldr	r3, [r3, #0]
 8005adc:	4a0c      	ldr	r2, [pc, #48]	; (8005b10 <xPortStartScheduler+0xd8>)
 8005ade:	f043 4370 	orr.w	r3, r3, #4026531840	; 0xf0000000
 8005ae2:	6013      	str	r3, [r2, #0]

	/* Start the timer that generates the tick ISR.  Interrupts are disabled
	here already. */
	vPortSetupTimerInterrupt();
 8005ae4:	f000 f8b0 	bl	8005c48 <vPortSetupTimerInterrupt>

	/* Initialise the critical nesting count ready for the first task. */
	uxCriticalNesting = 0;
 8005ae8:	4b0a      	ldr	r3, [pc, #40]	; (8005b14 <xPortStartScheduler+0xdc>)
 8005aea:	2200      	movs	r2, #0
 8005aec:	601a      	str	r2, [r3, #0]

	/* Start the first task. */
	prvPortStartFirstTask();
 8005aee:	f7ff ff93 	bl	8005a18 <prvPortStartFirstTask>
	exit error function to prevent compiler warnings about a static function
	not being called in the case that the application writer overrides this
	functionality by defining configTASK_RETURN_ADDRESS.  Call
	vTaskSwitchContext() so link time optimisation does not remove the
	symbol. */
	vTaskSwitchContext();
 8005af2:	f7ff fd8f 	bl	8005614 <vTaskSwitchContext>
	prvTaskExitError();
 8005af6:	f7ff ff4f 	bl	8005998 <prvTaskExitError>

	/* Should not get here! */
	return 0;
 8005afa:	2300      	movs	r3, #0
}
 8005afc:	4618      	mov	r0, r3
 8005afe:	3710      	adds	r7, #16
 8005b00:	46bd      	mov	sp, r7
 8005b02:	bd80      	pop	{r7, pc}
 8005b04:	e000e400 	.word	0xe000e400
 8005b08:	200003c4 	.word	0x200003c4
 8005b0c:	200003c8 	.word	0x200003c8
 8005b10:	e000ed20 	.word	0xe000ed20
 8005b14:	2000000c 	.word	0x2000000c

08005b18 <vPortEnterCritical>:
	configASSERT( uxCriticalNesting == 1000UL );
}
/*-----------------------------------------------------------*/

void vPortEnterCritical( void )
{
 8005b18:	b480      	push	{r7}
 8005b1a:	b083      	sub	sp, #12
 8005b1c:	af00      	add	r7, sp, #0
 8005b1e:	f04f 0350 	mov.w	r3, #80	; 0x50
 8005b22:	f383 8811 	msr	BASEPRI, r3
 8005b26:	f3bf 8f6f 	isb	sy
 8005b2a:	f3bf 8f4f 	dsb	sy
 8005b2e:	607b      	str	r3, [r7, #4]
	portDISABLE_INTERRUPTS();
	uxCriticalNesting++;
 8005b30:	4b0e      	ldr	r3, [pc, #56]	; (8005b6c <vPortEnterCritical+0x54>)
 8005b32:	681b      	ldr	r3, [r3, #0]
 8005b34:	3301      	adds	r3, #1
 8005b36:	4a0d      	ldr	r2, [pc, #52]	; (8005b6c <vPortEnterCritical+0x54>)
 8005b38:	6013      	str	r3, [r2, #0]
	/* This is not the interrupt safe version of the enter critical function so
	assert() if it is being called from an interrupt context.  Only API
	functions that end in "FromISR" can be used in an interrupt.  Only assert if
	the critical nesting count is 1 to protect against recursive calls if the
	assert function also uses a critical section. */
	if( uxCriticalNesting == 1 )
 8005b3a:	4b0c      	ldr	r3, [pc, #48]	; (8005b6c <vPortEnterCritical+0x54>)
 8005b3c:	681b      	ldr	r3, [r3, #0]
 8005b3e:	2b01      	cmp	r3, #1
 8005b40:	d10e      	bne.n	8005b60 <vPortEnterCritical+0x48>
	{
		configASSERT( ( portNVIC_INT_CTRL_REG & portVECTACTIVE_MASK ) == 0 );
 8005b42:	4b0b      	ldr	r3, [pc, #44]	; (8005b70 <vPortEnterCritical+0x58>)
 8005b44:	681b      	ldr	r3, [r3, #0]
 8005b46:	b2db      	uxtb	r3, r3
 8005b48:	2b00      	cmp	r3, #0
 8005b4a:	d009      	beq.n	8005b60 <vPortEnterCritical+0x48>
 8005b4c:	f04f 0350 	mov.w	r3, #80	; 0x50
 8005b50:	f383 8811 	msr	BASEPRI, r3
 8005b54:	f3bf 8f6f 	isb	sy
 8005b58:	f3bf 8f4f 	dsb	sy
 8005b5c:	603b      	str	r3, [r7, #0]
 8005b5e:	e7fe      	b.n	8005b5e <vPortEnterCritical+0x46>
	}
}
 8005b60:	bf00      	nop
 8005b62:	370c      	adds	r7, #12
 8005b64:	46bd      	mov	sp, r7
 8005b66:	bc80      	pop	{r7}
 8005b68:	4770      	bx	lr
 8005b6a:	bf00      	nop
 8005b6c:	2000000c 	.word	0x2000000c
 8005b70:	e000ed04 	.word	0xe000ed04

08005b74 <vPortExitCritical>:
/*-----------------------------------------------------------*/

void vPortExitCritical( void )
{
 8005b74:	b480      	push	{r7}
 8005b76:	b083      	sub	sp, #12
 8005b78:	af00      	add	r7, sp, #0
	configASSERT( uxCriticalNesting );
 8005b7a:	4b10      	ldr	r3, [pc, #64]	; (8005bbc <vPortExitCritical+0x48>)
 8005b7c:	681b      	ldr	r3, [r3, #0]
 8005b7e:	2b00      	cmp	r3, #0
 8005b80:	d109      	bne.n	8005b96 <vPortExitCritical+0x22>
 8005b82:	f04f 0350 	mov.w	r3, #80	; 0x50
 8005b86:	f383 8811 	msr	BASEPRI, r3
 8005b8a:	f3bf 8f6f 	isb	sy
 8005b8e:	f3bf 8f4f 	dsb	sy
 8005b92:	607b      	str	r3, [r7, #4]
 8005b94:	e7fe      	b.n	8005b94 <vPortExitCritical+0x20>
	uxCriticalNesting--;
 8005b96:	4b09      	ldr	r3, [pc, #36]	; (8005bbc <vPortExitCritical+0x48>)
 8005b98:	681b      	ldr	r3, [r3, #0]
 8005b9a:	3b01      	subs	r3, #1
 8005b9c:	4a07      	ldr	r2, [pc, #28]	; (8005bbc <vPortExitCritical+0x48>)
 8005b9e:	6013      	str	r3, [r2, #0]
	if( uxCriticalNesting == 0 )
 8005ba0:	4b06      	ldr	r3, [pc, #24]	; (8005bbc <vPortExitCritical+0x48>)
 8005ba2:	681b      	ldr	r3, [r3, #0]
 8005ba4:	2b00      	cmp	r3, #0
 8005ba6:	d104      	bne.n	8005bb2 <vPortExitCritical+0x3e>
 8005ba8:	2300      	movs	r3, #0
 8005baa:	603b      	str	r3, [r7, #0]
	__asm volatile
 8005bac:	683b      	ldr	r3, [r7, #0]
 8005bae:	f383 8811 	msr	BASEPRI, r3
	{
		portENABLE_INTERRUPTS();
	}
}
 8005bb2:	bf00      	nop
 8005bb4:	370c      	adds	r7, #12
 8005bb6:	46bd      	mov	sp, r7
 8005bb8:	bc80      	pop	{r7}
 8005bba:	4770      	bx	lr
 8005bbc:	2000000c 	.word	0x2000000c

08005bc0 <PendSV_Handler>:

void xPortPendSVHandler( void )
{
	/* This is a naked function. */

	__asm volatile
 8005bc0:	f3ef 8009 	mrs	r0, PSP
 8005bc4:	f3bf 8f6f 	isb	sy
 8005bc8:	4b0d      	ldr	r3, [pc, #52]	; (8005c00 <pxCurrentTCBConst>)
 8005bca:	681a      	ldr	r2, [r3, #0]
 8005bcc:	e920 0ff0 	stmdb	r0!, {r4, r5, r6, r7, r8, r9, sl, fp}
 8005bd0:	6010      	str	r0, [r2, #0]
 8005bd2:	e92d 4008 	stmdb	sp!, {r3, lr}
 8005bd6:	f04f 0050 	mov.w	r0, #80	; 0x50
 8005bda:	f380 8811 	msr	BASEPRI, r0
 8005bde:	f7ff fd19 	bl	8005614 <vTaskSwitchContext>
 8005be2:	f04f 0000 	mov.w	r0, #0
 8005be6:	f380 8811 	msr	BASEPRI, r0
 8005bea:	e8bd 4008 	ldmia.w	sp!, {r3, lr}
 8005bee:	6819      	ldr	r1, [r3, #0]
 8005bf0:	6808      	ldr	r0, [r1, #0]
 8005bf2:	e8b0 0ff0 	ldmia.w	r0!, {r4, r5, r6, r7, r8, r9, sl, fp}
 8005bf6:	f380 8809 	msr	PSP, r0
 8005bfa:	f3bf 8f6f 	isb	sy
 8005bfe:	4770      	bx	lr

08005c00 <pxCurrentTCBConst>:
 8005c00:	20000298 	.word	0x20000298
	"										\n"
	"	.align 4							\n"
	"pxCurrentTCBConst: .word pxCurrentTCB	\n"
	::"i"(configMAX_SYSCALL_INTERRUPT_PRIORITY)
	);
}
 8005c04:	bf00      	nop
 8005c06:	bf00      	nop

08005c08 <SysTick_Handler>:
/*-----------------------------------------------------------*/

void xPortSysTickHandler( void )
{
 8005c08:	b580      	push	{r7, lr}
 8005c0a:	b082      	sub	sp, #8
 8005c0c:	af00      	add	r7, sp, #0
	__asm volatile
 8005c0e:	f04f 0350 	mov.w	r3, #80	; 0x50
 8005c12:	f383 8811 	msr	BASEPRI, r3
 8005c16:	f3bf 8f6f 	isb	sy
 8005c1a:	f3bf 8f4f 	dsb	sy
 8005c1e:	607b      	str	r3, [r7, #4]
	save and then restore the interrupt mask value as its value is already
	known. */
	portDISABLE_INTERRUPTS();
	{
		/* Increment the RTOS tick. */
		if( xTaskIncrementTick() != pdFALSE )
 8005c20:	f7ff fc3c 	bl	800549c <xTaskIncrementTick>
 8005c24:	4603      	mov	r3, r0
 8005c26:	2b00      	cmp	r3, #0
 8005c28:	d003      	beq.n	8005c32 <SysTick_Handler+0x2a>
		{
			/* A context switch is required.  Context switching is performed in
			the PendSV interrupt.  Pend the PendSV interrupt. */
			portNVIC_INT_CTRL_REG = portNVIC_PENDSVSET_BIT;
 8005c2a:	4b06      	ldr	r3, [pc, #24]	; (8005c44 <SysTick_Handler+0x3c>)
 8005c2c:	f04f 5280 	mov.w	r2, #268435456	; 0x10000000
 8005c30:	601a      	str	r2, [r3, #0]
 8005c32:	2300      	movs	r3, #0
 8005c34:	603b      	str	r3, [r7, #0]
	__asm volatile
 8005c36:	683b      	ldr	r3, [r7, #0]
 8005c38:	f383 8811 	msr	BASEPRI, r3
		}
	}
	portENABLE_INTERRUPTS();
}
 8005c3c:	bf00      	nop
 8005c3e:	3708      	adds	r7, #8
 8005c40:	46bd      	mov	sp, r7
 8005c42:	bd80      	pop	{r7, pc}
 8005c44:	e000ed04 	.word	0xe000ed04

08005c48 <vPortSetupTimerInterrupt>:
/*
 * Setup the systick timer to generate the tick interrupts at the required
 * frequency.
 */
__attribute__(( weak )) void vPortSetupTimerInterrupt( void )
{
 8005c48:	b480      	push	{r7}
 8005c4a:	af00      	add	r7, sp, #0
		ulStoppedTimerCompensation = portMISSED_COUNTS_FACTOR / ( configCPU_CLOCK_HZ / configSYSTICK_CLOCK_HZ );
	}
	#endif /* configUSE_TICKLESS_IDLE */

	/* Stop and clear the SysTick. */
	portNVIC_SYSTICK_CTRL_REG = 0UL;
 8005c4c:	4b0a      	ldr	r3, [pc, #40]	; (8005c78 <vPortSetupTimerInterrupt+0x30>)
 8005c4e:	2200      	movs	r2, #0
 8005c50:	601a      	str	r2, [r3, #0]
	portNVIC_SYSTICK_CURRENT_VALUE_REG = 0UL;
 8005c52:	4b0a      	ldr	r3, [pc, #40]	; (8005c7c <vPortSetupTimerInterrupt+0x34>)
 8005c54:	2200      	movs	r2, #0
 8005c56:	601a      	str	r2, [r3, #0]

	/* Configure SysTick to interrupt at the requested rate. */
	portNVIC_SYSTICK_LOAD_REG = ( configSYSTICK_CLOCK_HZ / configTICK_RATE_HZ ) - 1UL;
 8005c58:	4b09      	ldr	r3, [pc, #36]	; (8005c80 <vPortSetupTimerInterrupt+0x38>)
 8005c5a:	681b      	ldr	r3, [r3, #0]
 8005c5c:	4a09      	ldr	r2, [pc, #36]	; (8005c84 <vPortSetupTimerInterrupt+0x3c>)
 8005c5e:	fba2 2303 	umull	r2, r3, r2, r3
 8005c62:	099b      	lsrs	r3, r3, #6
 8005c64:	4a08      	ldr	r2, [pc, #32]	; (8005c88 <vPortSetupTimerInterrupt+0x40>)
 8005c66:	3b01      	subs	r3, #1
 8005c68:	6013      	str	r3, [r2, #0]
	portNVIC_SYSTICK_CTRL_REG = ( portNVIC_SYSTICK_CLK_BIT | portNVIC_SYSTICK_INT_BIT | portNVIC_SYSTICK_ENABLE_BIT );
 8005c6a:	4b03      	ldr	r3, [pc, #12]	; (8005c78 <vPortSetupTimerInterrupt+0x30>)
 8005c6c:	2207      	movs	r2, #7
 8005c6e:	601a      	str	r2, [r3, #0]
}
 8005c70:	bf00      	nop
 8005c72:	46bd      	mov	sp, r7
 8005c74:	bc80      	pop	{r7}
 8005c76:	4770      	bx	lr
 8005c78:	e000e010 	.word	0xe000e010
 8005c7c:	e000e018 	.word	0xe000e018
 8005c80:	20000000 	.word	0x20000000
 8005c84:	10624dd3 	.word	0x10624dd3
 8005c88:	e000e014 	.word	0xe000e014

08005c8c <vPortValidateInterruptPriority>:
/*-----------------------------------------------------------*/

#if( configASSERT_DEFINED == 1 )

	void vPortValidateInterruptPriority( void )
	{
 8005c8c:	b480      	push	{r7}
 8005c8e:	b085      	sub	sp, #20
 8005c90:	af00      	add	r7, sp, #0
	uint32_t ulCurrentInterrupt;
	uint8_t ucCurrentPriority;

		/* Obtain the number of the currently executing interrupt. */
		__asm volatile( "mrs %0, ipsr" : "=r"( ulCurrentInterrupt ) :: "memory" );
 8005c92:	f3ef 8305 	mrs	r3, IPSR
 8005c96:	60fb      	str	r3, [r7, #12]

		/* Is the interrupt number a user defined interrupt? */
		if( ulCurrentInterrupt >= portFIRST_USER_INTERRUPT_NUMBER )
 8005c98:	68fb      	ldr	r3, [r7, #12]
 8005c9a:	2b0f      	cmp	r3, #15
 8005c9c:	d913      	bls.n	8005cc6 <vPortValidateInterruptPriority+0x3a>
		{
			/* Look up the interrupt's priority. */
			ucCurrentPriority = pcInterruptPriorityRegisters[ ulCurrentInterrupt ];
 8005c9e:	4a15      	ldr	r2, [pc, #84]	; (8005cf4 <vPortValidateInterruptPriority+0x68>)
 8005ca0:	68fb      	ldr	r3, [r7, #12]
 8005ca2:	4413      	add	r3, r2
 8005ca4:	781b      	ldrb	r3, [r3, #0]
 8005ca6:	72fb      	strb	r3, [r7, #11]
			interrupt entry is as fast and simple as possible.

			The following links provide detailed information:
			http://www.freertos.org/RTOS-Cortex-M3-M4.html
			http://www.freertos.org/FAQHelp.html */
			configASSERT( ucCurrentPriority >= ucMaxSysCallPriority );
 8005ca8:	4b13      	ldr	r3, [pc, #76]	; (8005cf8 <vPortValidateInterruptPriority+0x6c>)
 8005caa:	781b      	ldrb	r3, [r3, #0]
 8005cac:	7afa      	ldrb	r2, [r7, #11]
 8005cae:	429a      	cmp	r2, r3
 8005cb0:	d209      	bcs.n	8005cc6 <vPortValidateInterruptPriority+0x3a>
	__asm volatile
 8005cb2:	f04f 0350 	mov.w	r3, #80	; 0x50
 8005cb6:	f383 8811 	msr	BASEPRI, r3
 8005cba:	f3bf 8f6f 	isb	sy
 8005cbe:	f3bf 8f4f 	dsb	sy
 8005cc2:	607b      	str	r3, [r7, #4]
 8005cc4:	e7fe      	b.n	8005cc4 <vPortValidateInterruptPriority+0x38>
		configuration then the correct setting can be achieved on all Cortex-M
		devices by calling NVIC_SetPriorityGrouping( 0 ); before starting the
		scheduler.  Note however that some vendor specific peripheral libraries
		assume a non-zero priority group setting, in which cases using a value
		of zero will result in unpredictable behaviour. */
		configASSERT( ( portAIRCR_REG & portPRIORITY_GROUP_MASK ) <= ulMaxPRIGROUPValue );
 8005cc6:	4b0d      	ldr	r3, [pc, #52]	; (8005cfc <vPortValidateInterruptPriority+0x70>)
 8005cc8:	681b      	ldr	r3, [r3, #0]
 8005cca:	f403 62e0 	and.w	r2, r3, #1792	; 0x700
 8005cce:	4b0c      	ldr	r3, [pc, #48]	; (8005d00 <vPortValidateInterruptPriority+0x74>)
 8005cd0:	681b      	ldr	r3, [r3, #0]
 8005cd2:	429a      	cmp	r2, r3
 8005cd4:	d909      	bls.n	8005cea <vPortValidateInterruptPriority+0x5e>
 8005cd6:	f04f 0350 	mov.w	r3, #80	; 0x50
 8005cda:	f383 8811 	msr	BASEPRI, r3
 8005cde:	f3bf 8f6f 	isb	sy
 8005ce2:	f3bf 8f4f 	dsb	sy
 8005ce6:	603b      	str	r3, [r7, #0]
 8005ce8:	e7fe      	b.n	8005ce8 <vPortValidateInterruptPriority+0x5c>
	}
 8005cea:	bf00      	nop
 8005cec:	3714      	adds	r7, #20
 8005cee:	46bd      	mov	sp, r7
 8005cf0:	bc80      	pop	{r7}
 8005cf2:	4770      	bx	lr
 8005cf4:	e000e3f0 	.word	0xe000e3f0
 8005cf8:	200003c4 	.word	0x200003c4
 8005cfc:	e000ed0c 	.word	0xe000ed0c
 8005d00:	200003c8 	.word	0x200003c8

08005d04 <pvPortMalloc>:
static size_t xBlockAllocatedBit = 0;

/*-----------------------------------------------------------*/

void *pvPortMalloc( size_t xWantedSize )
{
 8005d04:	b580      	push	{r7, lr}
 8005d06:	b08a      	sub	sp, #40	; 0x28
 8005d08:	af00      	add	r7, sp, #0
 8005d0a:	6078      	str	r0, [r7, #4]
BlockLink_t *pxBlock, *pxPreviousBlock, *pxNewBlockLink;
void *pvReturn = NULL;
 8005d0c:	2300      	movs	r3, #0
 8005d0e:	61fb      	str	r3, [r7, #28]

	vTaskSuspendAll();
 8005d10:	f7ff fb0c 	bl	800532c <vTaskSuspendAll>
	{
		/* If this is the first call to malloc then the heap will require
		initialisation to setup the list of free blocks. */
		if( pxEnd == NULL )
 8005d14:	4b57      	ldr	r3, [pc, #348]	; (8005e74 <pvPortMalloc+0x170>)
 8005d16:	681b      	ldr	r3, [r3, #0]
 8005d18:	2b00      	cmp	r3, #0
 8005d1a:	d101      	bne.n	8005d20 <pvPortMalloc+0x1c>
		{
			prvHeapInit();
 8005d1c:	f000 f90c 	bl	8005f38 <prvHeapInit>

		/* Check the requested block size is not so large that the top bit is
		set.  The top bit of the block size member of the BlockLink_t structure
		is used to determine who owns the block - the application or the
		kernel, so it must be free. */
		if( ( xWantedSize & xBlockAllocatedBit ) == 0 )
 8005d20:	4b55      	ldr	r3, [pc, #340]	; (8005e78 <pvPortMalloc+0x174>)
 8005d22:	681a      	ldr	r2, [r3, #0]
 8005d24:	687b      	ldr	r3, [r7, #4]
 8005d26:	4013      	ands	r3, r2
 8005d28:	2b00      	cmp	r3, #0
 8005d2a:	f040 808c 	bne.w	8005e46 <pvPortMalloc+0x142>
		{
			/* The wanted size is increased so it can contain a BlockLink_t
			structure in addition to the requested amount of bytes. */
			if( xWantedSize > 0 )
 8005d2e:	687b      	ldr	r3, [r7, #4]
 8005d30:	2b00      	cmp	r3, #0
 8005d32:	d01c      	beq.n	8005d6e <pvPortMalloc+0x6a>
			{
				xWantedSize += xHeapStructSize;
 8005d34:	2208      	movs	r2, #8
 8005d36:	687b      	ldr	r3, [r7, #4]
 8005d38:	4413      	add	r3, r2
 8005d3a:	607b      	str	r3, [r7, #4]

				/* Ensure that blocks are always aligned to the required number
				of bytes. */
				if( ( xWantedSize & portBYTE_ALIGNMENT_MASK ) != 0x00 )
 8005d3c:	687b      	ldr	r3, [r7, #4]
 8005d3e:	f003 0307 	and.w	r3, r3, #7
 8005d42:	2b00      	cmp	r3, #0
 8005d44:	d013      	beq.n	8005d6e <pvPortMalloc+0x6a>
				{
					/* Byte alignment required. */
					xWantedSize += ( portBYTE_ALIGNMENT - ( xWantedSize & portBYTE_ALIGNMENT_MASK ) );
 8005d46:	687b      	ldr	r3, [r7, #4]
 8005d48:	f023 0307 	bic.w	r3, r3, #7
 8005d4c:	3308      	adds	r3, #8
 8005d4e:	607b      	str	r3, [r7, #4]
					configASSERT( ( xWantedSize & portBYTE_ALIGNMENT_MASK ) == 0 );
 8005d50:	687b      	ldr	r3, [r7, #4]
 8005d52:	f003 0307 	and.w	r3, r3, #7
 8005d56:	2b00      	cmp	r3, #0
 8005d58:	d009      	beq.n	8005d6e <pvPortMalloc+0x6a>
 8005d5a:	f04f 0350 	mov.w	r3, #80	; 0x50
 8005d5e:	f383 8811 	msr	BASEPRI, r3
 8005d62:	f3bf 8f6f 	isb	sy
 8005d66:	f3bf 8f4f 	dsb	sy
 8005d6a:	617b      	str	r3, [r7, #20]
 8005d6c:	e7fe      	b.n	8005d6c <pvPortMalloc+0x68>
			else
			{
				mtCOVERAGE_TEST_MARKER();
			}

			if( ( xWantedSize > 0 ) && ( xWantedSize <= xFreeBytesRemaining ) )
 8005d6e:	687b      	ldr	r3, [r7, #4]
 8005d70:	2b00      	cmp	r3, #0
 8005d72:	d068      	beq.n	8005e46 <pvPortMalloc+0x142>
 8005d74:	4b41      	ldr	r3, [pc, #260]	; (8005e7c <pvPortMalloc+0x178>)
 8005d76:	681b      	ldr	r3, [r3, #0]
 8005d78:	687a      	ldr	r2, [r7, #4]
 8005d7a:	429a      	cmp	r2, r3
 8005d7c:	d863      	bhi.n	8005e46 <pvPortMalloc+0x142>
			{
				/* Traverse the list from the start	(lowest address) block until
				one	of adequate size is found. */
				pxPreviousBlock = &xStart;
 8005d7e:	4b40      	ldr	r3, [pc, #256]	; (8005e80 <pvPortMalloc+0x17c>)
 8005d80:	623b      	str	r3, [r7, #32]
				pxBlock = xStart.pxNextFreeBlock;
 8005d82:	4b3f      	ldr	r3, [pc, #252]	; (8005e80 <pvPortMalloc+0x17c>)
 8005d84:	681b      	ldr	r3, [r3, #0]
 8005d86:	627b      	str	r3, [r7, #36]	; 0x24
				while( ( pxBlock->xBlockSize < xWantedSize ) && ( pxBlock->pxNextFreeBlock != NULL ) )
 8005d88:	e004      	b.n	8005d94 <pvPortMalloc+0x90>
				{
					pxPreviousBlock = pxBlock;
 8005d8a:	6a7b      	ldr	r3, [r7, #36]	; 0x24
 8005d8c:	623b      	str	r3, [r7, #32]
					pxBlock = pxBlock->pxNextFreeBlock;
 8005d8e:	6a7b      	ldr	r3, [r7, #36]	; 0x24
 8005d90:	681b      	ldr	r3, [r3, #0]
 8005d92:	627b      	str	r3, [r7, #36]	; 0x24
				while( ( pxBlock->xBlockSize < xWantedSize ) && ( pxBlock->pxNextFreeBlock != NULL ) )
 8005d94:	6a7b      	ldr	r3, [r7, #36]	; 0x24
 8005d96:	685b      	ldr	r3, [r3, #4]
 8005d98:	687a      	ldr	r2, [r7, #4]
 8005d9a:	429a      	cmp	r2, r3
 8005d9c:	d903      	bls.n	8005da6 <pvPortMalloc+0xa2>
 8005d9e:	6a7b      	ldr	r3, [r7, #36]	; 0x24
 8005da0:	681b      	ldr	r3, [r3, #0]
 8005da2:	2b00      	cmp	r3, #0
 8005da4:	d1f1      	bne.n	8005d8a <pvPortMalloc+0x86>
				}

				/* If the end marker was reached then a block of adequate size
				was	not found. */
				if( pxBlock != pxEnd )
 8005da6:	4b33      	ldr	r3, [pc, #204]	; (8005e74 <pvPortMalloc+0x170>)
 8005da8:	681b      	ldr	r3, [r3, #0]
 8005daa:	6a7a      	ldr	r2, [r7, #36]	; 0x24
 8005dac:	429a      	cmp	r2, r3
 8005dae:	d04a      	beq.n	8005e46 <pvPortMalloc+0x142>
				{
					/* Return the memory space pointed to - jumping over the
					BlockLink_t structure at its start. */
					pvReturn = ( void * ) ( ( ( uint8_t * ) pxPreviousBlock->pxNextFreeBlock ) + xHeapStructSize );
 8005db0:	6a3b      	ldr	r3, [r7, #32]
 8005db2:	681b      	ldr	r3, [r3, #0]
 8005db4:	2208      	movs	r2, #8
 8005db6:	4413      	add	r3, r2
 8005db8:	61fb      	str	r3, [r7, #28]

					/* This block is being returned for use so must be taken out
					of the list of free blocks. */
					pxPreviousBlock->pxNextFreeBlock = pxBlock->pxNextFreeBlock;
 8005dba:	6a7b      	ldr	r3, [r7, #36]	; 0x24
 8005dbc:	681a      	ldr	r2, [r3, #0]
 8005dbe:	6a3b      	ldr	r3, [r7, #32]
 8005dc0:	601a      	str	r2, [r3, #0]

					/* If the block is larger than required it can be split into
					two. */
					if( ( pxBlock->xBlockSize - xWantedSize ) > heapMINIMUM_BLOCK_SIZE )
 8005dc2:	6a7b      	ldr	r3, [r7, #36]	; 0x24
 8005dc4:	685a      	ldr	r2, [r3, #4]
 8005dc6:	687b      	ldr	r3, [r7, #4]
 8005dc8:	1ad2      	subs	r2, r2, r3
 8005dca:	2308      	movs	r3, #8
 8005dcc:	005b      	lsls	r3, r3, #1
 8005dce:	429a      	cmp	r2, r3
 8005dd0:	d91e      	bls.n	8005e10 <pvPortMalloc+0x10c>
					{
						/* This block is to be split into two.  Create a new
						block following the number of bytes requested. The void
						cast is used to prevent byte alignment warnings from the
						compiler. */
						pxNewBlockLink = ( void * ) ( ( ( uint8_t * ) pxBlock ) + xWantedSize );
 8005dd2:	6a7a      	ldr	r2, [r7, #36]	; 0x24
 8005dd4:	687b      	ldr	r3, [r7, #4]
 8005dd6:	4413      	add	r3, r2
 8005dd8:	61bb      	str	r3, [r7, #24]
						configASSERT( ( ( ( size_t ) pxNewBlockLink ) & portBYTE_ALIGNMENT_MASK ) == 0 );
 8005dda:	69bb      	ldr	r3, [r7, #24]
 8005ddc:	f003 0307 	and.w	r3, r3, #7
 8005de0:	2b00      	cmp	r3, #0
 8005de2:	d009      	beq.n	8005df8 <pvPortMalloc+0xf4>
 8005de4:	f04f 0350 	mov.w	r3, #80	; 0x50
 8005de8:	f383 8811 	msr	BASEPRI, r3
 8005dec:	f3bf 8f6f 	isb	sy
 8005df0:	f3bf 8f4f 	dsb	sy
 8005df4:	613b      	str	r3, [r7, #16]
 8005df6:	e7fe      	b.n	8005df6 <pvPortMalloc+0xf2>

						/* Calculate the sizes of two blocks split from the
						single block. */
						pxNewBlockLink->xBlockSize = pxBlock->xBlockSize - xWantedSize;
 8005df8:	6a7b      	ldr	r3, [r7, #36]	; 0x24
 8005dfa:	685a      	ldr	r2, [r3, #4]
 8005dfc:	687b      	ldr	r3, [r7, #4]
 8005dfe:	1ad2      	subs	r2, r2, r3
 8005e00:	69bb      	ldr	r3, [r7, #24]
 8005e02:	605a      	str	r2, [r3, #4]
						pxBlock->xBlockSize = xWantedSize;
 8005e04:	6a7b      	ldr	r3, [r7, #36]	; 0x24
 8005e06:	687a      	ldr	r2, [r7, #4]
 8005e08:	605a      	str	r2, [r3, #4]

						/* Insert the new block into the list of free blocks. */
						prvInsertBlockIntoFreeList( pxNewBlockLink );
 8005e0a:	69b8      	ldr	r0, [r7, #24]
 8005e0c:	f000 f8f6 	bl	8005ffc <prvInsertBlockIntoFreeList>
					else
					{
						mtCOVERAGE_TEST_MARKER();
					}

					xFreeBytesRemaining -= pxBlock->xBlockSize;
 8005e10:	4b1a      	ldr	r3, [pc, #104]	; (8005e7c <pvPortMalloc+0x178>)
 8005e12:	681a      	ldr	r2, [r3, #0]
 8005e14:	6a7b      	ldr	r3, [r7, #36]	; 0x24
 8005e16:	685b      	ldr	r3, [r3, #4]
 8005e18:	1ad3      	subs	r3, r2, r3
 8005e1a:	4a18      	ldr	r2, [pc, #96]	; (8005e7c <pvPortMalloc+0x178>)
 8005e1c:	6013      	str	r3, [r2, #0]

					if( xFreeBytesRemaining < xMinimumEverFreeBytesRemaining )
 8005e1e:	4b17      	ldr	r3, [pc, #92]	; (8005e7c <pvPortMalloc+0x178>)
 8005e20:	681a      	ldr	r2, [r3, #0]
 8005e22:	4b18      	ldr	r3, [pc, #96]	; (8005e84 <pvPortMalloc+0x180>)
 8005e24:	681b      	ldr	r3, [r3, #0]
 8005e26:	429a      	cmp	r2, r3
 8005e28:	d203      	bcs.n	8005e32 <pvPortMalloc+0x12e>
					{
						xMinimumEverFreeBytesRemaining = xFreeBytesRemaining;
 8005e2a:	4b14      	ldr	r3, [pc, #80]	; (8005e7c <pvPortMalloc+0x178>)
 8005e2c:	681b      	ldr	r3, [r3, #0]
 8005e2e:	4a15      	ldr	r2, [pc, #84]	; (8005e84 <pvPortMalloc+0x180>)
 8005e30:	6013      	str	r3, [r2, #0]
						mtCOVERAGE_TEST_MARKER();
					}

					/* The block is being returned - it is allocated and owned
					by the application and has no "next" block. */
					pxBlock->xBlockSize |= xBlockAllocatedBit;
 8005e32:	6a7b      	ldr	r3, [r7, #36]	; 0x24
 8005e34:	685a      	ldr	r2, [r3, #4]
 8005e36:	4b10      	ldr	r3, [pc, #64]	; (8005e78 <pvPortMalloc+0x174>)
 8005e38:	681b      	ldr	r3, [r3, #0]
 8005e3a:	431a      	orrs	r2, r3
 8005e3c:	6a7b      	ldr	r3, [r7, #36]	; 0x24
 8005e3e:	605a      	str	r2, [r3, #4]
					pxBlock->pxNextFreeBlock = NULL;
 8005e40:	6a7b      	ldr	r3, [r7, #36]	; 0x24
 8005e42:	2200      	movs	r2, #0
 8005e44:	601a      	str	r2, [r3, #0]
			mtCOVERAGE_TEST_MARKER();
		}

		traceMALLOC( pvReturn, xWantedSize );
	}
	( void ) xTaskResumeAll();
 8005e46:	f7ff fa7f 	bl	8005348 <xTaskResumeAll>
			mtCOVERAGE_TEST_MARKER();
		}
	}
	#endif

	configASSERT( ( ( ( size_t ) pvReturn ) & ( size_t ) portBYTE_ALIGNMENT_MASK ) == 0 );
 8005e4a:	69fb      	ldr	r3, [r7, #28]
 8005e4c:	f003 0307 	and.w	r3, r3, #7
 8005e50:	2b00      	cmp	r3, #0
 8005e52:	d009      	beq.n	8005e68 <pvPortMalloc+0x164>
 8005e54:	f04f 0350 	mov.w	r3, #80	; 0x50
 8005e58:	f383 8811 	msr	BASEPRI, r3
 8005e5c:	f3bf 8f6f 	isb	sy
 8005e60:	f3bf 8f4f 	dsb	sy
 8005e64:	60fb      	str	r3, [r7, #12]
 8005e66:	e7fe      	b.n	8005e66 <pvPortMalloc+0x162>
	return pvReturn;
 8005e68:	69fb      	ldr	r3, [r7, #28]
}
 8005e6a:	4618      	mov	r0, r3
 8005e6c:	3728      	adds	r7, #40	; 0x28
 8005e6e:	46bd      	mov	sp, r7
 8005e70:	bd80      	pop	{r7, pc}
 8005e72:	bf00      	nop
 8005e74:	20001bd4 	.word	0x20001bd4
 8005e78:	20001be0 	.word	0x20001be0
 8005e7c:	20001bd8 	.word	0x20001bd8
 8005e80:	20001bcc 	.word	0x20001bcc
 8005e84:	20001bdc 	.word	0x20001bdc

08005e88 <vPortFree>:
/*-----------------------------------------------------------*/

void vPortFree( void *pv )
{
 8005e88:	b580      	push	{r7, lr}
 8005e8a:	b086      	sub	sp, #24
 8005e8c:	af00      	add	r7, sp, #0
 8005e8e:	6078      	str	r0, [r7, #4]
uint8_t *puc = ( uint8_t * ) pv;
 8005e90:	687b      	ldr	r3, [r7, #4]
 8005e92:	617b      	str	r3, [r7, #20]
BlockLink_t *pxLink;

	if( pv != NULL )
 8005e94:	687b      	ldr	r3, [r7, #4]
 8005e96:	2b00      	cmp	r3, #0
 8005e98:	d046      	beq.n	8005f28 <vPortFree+0xa0>
	{
		/* The memory being freed will have an BlockLink_t structure immediately
		before it. */
		puc -= xHeapStructSize;
 8005e9a:	2308      	movs	r3, #8
 8005e9c:	425b      	negs	r3, r3
 8005e9e:	697a      	ldr	r2, [r7, #20]
 8005ea0:	4413      	add	r3, r2
 8005ea2:	617b      	str	r3, [r7, #20]

		/* This casting is to keep the compiler from issuing warnings. */
		pxLink = ( void * ) puc;
 8005ea4:	697b      	ldr	r3, [r7, #20]
 8005ea6:	613b      	str	r3, [r7, #16]

		/* Check the block is actually allocated. */
		configASSERT( ( pxLink->xBlockSize & xBlockAllocatedBit ) != 0 );
 8005ea8:	693b      	ldr	r3, [r7, #16]
 8005eaa:	685a      	ldr	r2, [r3, #4]
 8005eac:	4b20      	ldr	r3, [pc, #128]	; (8005f30 <vPortFree+0xa8>)
 8005eae:	681b      	ldr	r3, [r3, #0]
 8005eb0:	4013      	ands	r3, r2
 8005eb2:	2b00      	cmp	r3, #0
 8005eb4:	d109      	bne.n	8005eca <vPortFree+0x42>
 8005eb6:	f04f 0350 	mov.w	r3, #80	; 0x50
 8005eba:	f383 8811 	msr	BASEPRI, r3
 8005ebe:	f3bf 8f6f 	isb	sy
 8005ec2:	f3bf 8f4f 	dsb	sy
 8005ec6:	60fb      	str	r3, [r7, #12]
 8005ec8:	e7fe      	b.n	8005ec8 <vPortFree+0x40>
		configASSERT( pxLink->pxNextFreeBlock == NULL );
 8005eca:	693b      	ldr	r3, [r7, #16]
 8005ecc:	681b      	ldr	r3, [r3, #0]
 8005ece:	2b00      	cmp	r3, #0
 8005ed0:	d009      	beq.n	8005ee6 <vPortFree+0x5e>
 8005ed2:	f04f 0350 	mov.w	r3, #80	; 0x50
 8005ed6:	f383 8811 	msr	BASEPRI, r3
 8005eda:	f3bf 8f6f 	isb	sy
 8005ede:	f3bf 8f4f 	dsb	sy
 8005ee2:	60bb      	str	r3, [r7, #8]
 8005ee4:	e7fe      	b.n	8005ee4 <vPortFree+0x5c>

		if( ( pxLink->xBlockSize & xBlockAllocatedBit ) != 0 )
 8005ee6:	693b      	ldr	r3, [r7, #16]
 8005ee8:	685a      	ldr	r2, [r3, #4]
 8005eea:	4b11      	ldr	r3, [pc, #68]	; (8005f30 <vPortFree+0xa8>)
 8005eec:	681b      	ldr	r3, [r3, #0]
 8005eee:	4013      	ands	r3, r2
 8005ef0:	2b00      	cmp	r3, #0
 8005ef2:	d019      	beq.n	8005f28 <vPortFree+0xa0>
		{
			if( pxLink->pxNextFreeBlock == NULL )
 8005ef4:	693b      	ldr	r3, [r7, #16]
 8005ef6:	681b      	ldr	r3, [r3, #0]
 8005ef8:	2b00      	cmp	r3, #0
 8005efa:	d115      	bne.n	8005f28 <vPortFree+0xa0>
			{
				/* The block is being returned to the heap - it is no longer
				allocated. */
				pxLink->xBlockSize &= ~xBlockAllocatedBit;
 8005efc:	693b      	ldr	r3, [r7, #16]
 8005efe:	685a      	ldr	r2, [r3, #4]
 8005f00:	4b0b      	ldr	r3, [pc, #44]	; (8005f30 <vPortFree+0xa8>)
 8005f02:	681b      	ldr	r3, [r3, #0]
 8005f04:	43db      	mvns	r3, r3
 8005f06:	401a      	ands	r2, r3
 8005f08:	693b      	ldr	r3, [r7, #16]
 8005f0a:	605a      	str	r2, [r3, #4]

				vTaskSuspendAll();
 8005f0c:	f7ff fa0e 	bl	800532c <vTaskSuspendAll>
				{
					/* Add this block to the list of free blocks. */
					xFreeBytesRemaining += pxLink->xBlockSize;
 8005f10:	693b      	ldr	r3, [r7, #16]
 8005f12:	685a      	ldr	r2, [r3, #4]
 8005f14:	4b07      	ldr	r3, [pc, #28]	; (8005f34 <vPortFree+0xac>)
 8005f16:	681b      	ldr	r3, [r3, #0]
 8005f18:	4413      	add	r3, r2
 8005f1a:	4a06      	ldr	r2, [pc, #24]	; (8005f34 <vPortFree+0xac>)
 8005f1c:	6013      	str	r3, [r2, #0]
					traceFREE( pv, pxLink->xBlockSize );
					prvInsertBlockIntoFreeList( ( ( BlockLink_t * ) pxLink ) );
 8005f1e:	6938      	ldr	r0, [r7, #16]
 8005f20:	f000 f86c 	bl	8005ffc <prvInsertBlockIntoFreeList>
				}
				( void ) xTaskResumeAll();
 8005f24:	f7ff fa10 	bl	8005348 <xTaskResumeAll>
		else
		{
			mtCOVERAGE_TEST_MARKER();
		}
	}
}
 8005f28:	bf00      	nop
 8005f2a:	3718      	adds	r7, #24
 8005f2c:	46bd      	mov	sp, r7
 8005f2e:	bd80      	pop	{r7, pc}
 8005f30:	20001be0 	.word	0x20001be0
 8005f34:	20001bd8 	.word	0x20001bd8

08005f38 <prvHeapInit>:
	/* This just exists to keep the linker quiet. */
}
/*-----------------------------------------------------------*/

static void prvHeapInit( void )
{
 8005f38:	b480      	push	{r7}
 8005f3a:	b085      	sub	sp, #20
 8005f3c:	af00      	add	r7, sp, #0
BlockLink_t *pxFirstFreeBlock;
uint8_t *pucAlignedHeap;
size_t uxAddress;
size_t xTotalHeapSize = configTOTAL_HEAP_SIZE;
 8005f3e:	f44f 53c0 	mov.w	r3, #6144	; 0x1800
 8005f42:	60bb      	str	r3, [r7, #8]

	/* Ensure the heap starts on a correctly aligned boundary. */
	uxAddress = ( size_t ) ucHeap;
 8005f44:	4b27      	ldr	r3, [pc, #156]	; (8005fe4 <prvHeapInit+0xac>)
 8005f46:	60fb      	str	r3, [r7, #12]

	if( ( uxAddress & portBYTE_ALIGNMENT_MASK ) != 0 )
 8005f48:	68fb      	ldr	r3, [r7, #12]
 8005f4a:	f003 0307 	and.w	r3, r3, #7
 8005f4e:	2b00      	cmp	r3, #0
 8005f50:	d00c      	beq.n	8005f6c <prvHeapInit+0x34>
	{
		uxAddress += ( portBYTE_ALIGNMENT - 1 );
 8005f52:	68fb      	ldr	r3, [r7, #12]
 8005f54:	3307      	adds	r3, #7
 8005f56:	60fb      	str	r3, [r7, #12]
		uxAddress &= ~( ( size_t ) portBYTE_ALIGNMENT_MASK );
 8005f58:	68fb      	ldr	r3, [r7, #12]
 8005f5a:	f023 0307 	bic.w	r3, r3, #7
 8005f5e:	60fb      	str	r3, [r7, #12]
		xTotalHeapSize -= uxAddress - ( size_t ) ucHeap;
 8005f60:	68ba      	ldr	r2, [r7, #8]
 8005f62:	68fb      	ldr	r3, [r7, #12]
 8005f64:	1ad3      	subs	r3, r2, r3
 8005f66:	4a1f      	ldr	r2, [pc, #124]	; (8005fe4 <prvHeapInit+0xac>)
 8005f68:	4413      	add	r3, r2
 8005f6a:	60bb      	str	r3, [r7, #8]
	}

	pucAlignedHeap = ( uint8_t * ) uxAddress;
 8005f6c:	68fb      	ldr	r3, [r7, #12]
 8005f6e:	607b      	str	r3, [r7, #4]

	/* xStart is used to hold a pointer to the first item in the list of free
	blocks.  The void cast is used to prevent compiler warnings. */
	xStart.pxNextFreeBlock = ( void * ) pucAlignedHeap;
 8005f70:	4a1d      	ldr	r2, [pc, #116]	; (8005fe8 <prvHeapInit+0xb0>)
 8005f72:	687b      	ldr	r3, [r7, #4]
 8005f74:	6013      	str	r3, [r2, #0]
	xStart.xBlockSize = ( size_t ) 0;
 8005f76:	4b1c      	ldr	r3, [pc, #112]	; (8005fe8 <prvHeapInit+0xb0>)
 8005f78:	2200      	movs	r2, #0
 8005f7a:	605a      	str	r2, [r3, #4]

	/* pxEnd is used to mark the end of the list of free blocks and is inserted
	at the end of the heap space. */
	uxAddress = ( ( size_t ) pucAlignedHeap ) + xTotalHeapSize;
 8005f7c:	687b      	ldr	r3, [r7, #4]
 8005f7e:	68ba      	ldr	r2, [r7, #8]
 8005f80:	4413      	add	r3, r2
 8005f82:	60fb      	str	r3, [r7, #12]
	uxAddress -= xHeapStructSize;
 8005f84:	2208      	movs	r2, #8
 8005f86:	68fb      	ldr	r3, [r7, #12]
 8005f88:	1a9b      	subs	r3, r3, r2
 8005f8a:	60fb      	str	r3, [r7, #12]
	uxAddress &= ~( ( size_t ) portBYTE_ALIGNMENT_MASK );
 8005f8c:	68fb      	ldr	r3, [r7, #12]
 8005f8e:	f023 0307 	bic.w	r3, r3, #7
 8005f92:	60fb      	str	r3, [r7, #12]
	pxEnd = ( void * ) uxAddress;
 8005f94:	68fb      	ldr	r3, [r7, #12]
 8005f96:	4a15      	ldr	r2, [pc, #84]	; (8005fec <prvHeapInit+0xb4>)
 8005f98:	6013      	str	r3, [r2, #0]
	pxEnd->xBlockSize = 0;
 8005f9a:	4b14      	ldr	r3, [pc, #80]	; (8005fec <prvHeapInit+0xb4>)
 8005f9c:	681b      	ldr	r3, [r3, #0]
 8005f9e:	2200      	movs	r2, #0
 8005fa0:	605a      	str	r2, [r3, #4]
	pxEnd->pxNextFreeBlock = NULL;
 8005fa2:	4b12      	ldr	r3, [pc, #72]	; (8005fec <prvHeapInit+0xb4>)
 8005fa4:	681b      	ldr	r3, [r3, #0]
 8005fa6:	2200      	movs	r2, #0
 8005fa8:	601a      	str	r2, [r3, #0]

	/* To start with there is a single free block that is sized to take up the
	entire heap space, minus the space taken by pxEnd. */
	pxFirstFreeBlock = ( void * ) pucAlignedHeap;
 8005faa:	687b      	ldr	r3, [r7, #4]
 8005fac:	603b      	str	r3, [r7, #0]
	pxFirstFreeBlock->xBlockSize = uxAddress - ( size_t ) pxFirstFreeBlock;
 8005fae:	683b      	ldr	r3, [r7, #0]
 8005fb0:	68fa      	ldr	r2, [r7, #12]
 8005fb2:	1ad2      	subs	r2, r2, r3
 8005fb4:	683b      	ldr	r3, [r7, #0]
 8005fb6:	605a      	str	r2, [r3, #4]
	pxFirstFreeBlock->pxNextFreeBlock = pxEnd;
 8005fb8:	4b0c      	ldr	r3, [pc, #48]	; (8005fec <prvHeapInit+0xb4>)
 8005fba:	681a      	ldr	r2, [r3, #0]
 8005fbc:	683b      	ldr	r3, [r7, #0]
 8005fbe:	601a      	str	r2, [r3, #0]

	/* Only one block exists - and it covers the entire usable heap space. */
	xMinimumEverFreeBytesRemaining = pxFirstFreeBlock->xBlockSize;
 8005fc0:	683b      	ldr	r3, [r7, #0]
 8005fc2:	685b      	ldr	r3, [r3, #4]
 8005fc4:	4a0a      	ldr	r2, [pc, #40]	; (8005ff0 <prvHeapInit+0xb8>)
 8005fc6:	6013      	str	r3, [r2, #0]
	xFreeBytesRemaining = pxFirstFreeBlock->xBlockSize;
 8005fc8:	683b      	ldr	r3, [r7, #0]
 8005fca:	685b      	ldr	r3, [r3, #4]
 8005fcc:	4a09      	ldr	r2, [pc, #36]	; (8005ff4 <prvHeapInit+0xbc>)
 8005fce:	6013      	str	r3, [r2, #0]

	/* Work out the position of the top bit in a size_t variable. */
	xBlockAllocatedBit = ( ( size_t ) 1 ) << ( ( sizeof( size_t ) * heapBITS_PER_BYTE ) - 1 );
 8005fd0:	4b09      	ldr	r3, [pc, #36]	; (8005ff8 <prvHeapInit+0xc0>)
 8005fd2:	f04f 4200 	mov.w	r2, #2147483648	; 0x80000000
 8005fd6:	601a      	str	r2, [r3, #0]
}
 8005fd8:	bf00      	nop
 8005fda:	3714      	adds	r7, #20
 8005fdc:	46bd      	mov	sp, r7
 8005fde:	bc80      	pop	{r7}
 8005fe0:	4770      	bx	lr
 8005fe2:	bf00      	nop
 8005fe4:	200003cc 	.word	0x200003cc
 8005fe8:	20001bcc 	.word	0x20001bcc
 8005fec:	20001bd4 	.word	0x20001bd4
 8005ff0:	20001bdc 	.word	0x20001bdc
 8005ff4:	20001bd8 	.word	0x20001bd8
 8005ff8:	20001be0 	.word	0x20001be0

08005ffc <prvInsertBlockIntoFreeList>:
/*-----------------------------------------------------------*/

static void prvInsertBlockIntoFreeList( BlockLink_t *pxBlockToInsert )
{
 8005ffc:	b480      	push	{r7}
 8005ffe:	b085      	sub	sp, #20
 8006000:	af00      	add	r7, sp, #0
 8006002:	6078      	str	r0, [r7, #4]
BlockLink_t *pxIterator;
uint8_t *puc;

	/* Iterate through the list until a block is found that has a higher address
	than the block being inserted. */
	for( pxIterator = &xStart; pxIterator->pxNextFreeBlock < pxBlockToInsert; pxIterator = pxIterator->pxNextFreeBlock )
 8006004:	4b27      	ldr	r3, [pc, #156]	; (80060a4 <prvInsertBlockIntoFreeList+0xa8>)
 8006006:	60fb      	str	r3, [r7, #12]
 8006008:	e002      	b.n	8006010 <prvInsertBlockIntoFreeList+0x14>
 800600a:	68fb      	ldr	r3, [r7, #12]
 800600c:	681b      	ldr	r3, [r3, #0]
 800600e:	60fb      	str	r3, [r7, #12]
 8006010:	68fb      	ldr	r3, [r7, #12]
 8006012:	681b      	ldr	r3, [r3, #0]
 8006014:	687a      	ldr	r2, [r7, #4]
 8006016:	429a      	cmp	r2, r3
 8006018:	d8f7      	bhi.n	800600a <prvInsertBlockIntoFreeList+0xe>
		/* Nothing to do here, just iterate to the right position. */
	}

	/* Do the block being inserted, and the block it is being inserted after
	make a contiguous block of memory? */
	puc = ( uint8_t * ) pxIterator;
 800601a:	68fb      	ldr	r3, [r7, #12]
 800601c:	60bb      	str	r3, [r7, #8]
	if( ( puc + pxIterator->xBlockSize ) == ( uint8_t * ) pxBlockToInsert )
 800601e:	68fb      	ldr	r3, [r7, #12]
 8006020:	685b      	ldr	r3, [r3, #4]
 8006022:	68ba      	ldr	r2, [r7, #8]
 8006024:	4413      	add	r3, r2
 8006026:	687a      	ldr	r2, [r7, #4]
 8006028:	429a      	cmp	r2, r3
 800602a:	d108      	bne.n	800603e <prvInsertBlockIntoFreeList+0x42>
	{
		pxIterator->xBlockSize += pxBlockToInsert->xBlockSize;
 800602c:	68fb      	ldr	r3, [r7, #12]
 800602e:	685a      	ldr	r2, [r3, #4]
 8006030:	687b      	ldr	r3, [r7, #4]
 8006032:	685b      	ldr	r3, [r3, #4]
 8006034:	441a      	add	r2, r3
 8006036:	68fb      	ldr	r3, [r7, #12]
 8006038:	605a      	str	r2, [r3, #4]
		pxBlockToInsert = pxIterator;
 800603a:	68fb      	ldr	r3, [r7, #12]
 800603c:	607b      	str	r3, [r7, #4]
		mtCOVERAGE_TEST_MARKER();
	}

	/* Do the block being inserted, and the block it is being inserted before
	make a contiguous block of memory? */
	puc = ( uint8_t * ) pxBlockToInsert;
 800603e:	687b      	ldr	r3, [r7, #4]
 8006040:	60bb      	str	r3, [r7, #8]
	if( ( puc + pxBlockToInsert->xBlockSize ) == ( uint8_t * ) pxIterator->pxNextFreeBlock )
 8006042:	687b      	ldr	r3, [r7, #4]
 8006044:	685b      	ldr	r3, [r3, #4]
 8006046:	68ba      	ldr	r2, [r7, #8]
 8006048:	441a      	add	r2, r3
 800604a:	68fb      	ldr	r3, [r7, #12]
 800604c:	681b      	ldr	r3, [r3, #0]
 800604e:	429a      	cmp	r2, r3
 8006050:	d118      	bne.n	8006084 <prvInsertBlockIntoFreeList+0x88>
	{
		if( pxIterator->pxNextFreeBlock != pxEnd )
 8006052:	68fb      	ldr	r3, [r7, #12]
 8006054:	681a      	ldr	r2, [r3, #0]
 8006056:	4b14      	ldr	r3, [pc, #80]	; (80060a8 <prvInsertBlockIntoFreeList+0xac>)
 8006058:	681b      	ldr	r3, [r3, #0]
 800605a:	429a      	cmp	r2, r3
 800605c:	d00d      	beq.n	800607a <prvInsertBlockIntoFreeList+0x7e>
		{
			/* Form one big block from the two blocks. */
			pxBlockToInsert->xBlockSize += pxIterator->pxNextFreeBlock->xBlockSize;
 800605e:	687b      	ldr	r3, [r7, #4]
 8006060:	685a      	ldr	r2, [r3, #4]
 8006062:	68fb      	ldr	r3, [r7, #12]
 8006064:	681b      	ldr	r3, [r3, #0]
 8006066:	685b      	ldr	r3, [r3, #4]
 8006068:	441a      	add	r2, r3
 800606a:	687b      	ldr	r3, [r7, #4]
 800606c:	605a      	str	r2, [r3, #4]
			pxBlockToInsert->pxNextFreeBlock = pxIterator->pxNextFreeBlock->pxNextFreeBlock;
 800606e:	68fb      	ldr	r3, [r7, #12]
 8006070:	681b      	ldr	r3, [r3, #0]
 8006072:	681a      	ldr	r2, [r3, #0]
 8006074:	687b      	ldr	r3, [r7, #4]
 8006076:	601a      	str	r2, [r3, #0]
 8006078:	e008      	b.n	800608c <prvInsertBlockIntoFreeList+0x90>
		}
		else
		{
			pxBlockToInsert->pxNextFreeBlock = pxEnd;
 800607a:	4b0b      	ldr	r3, [pc, #44]	; (80060a8 <prvInsertBlockIntoFreeList+0xac>)
 800607c:	681a      	ldr	r2, [r3, #0]
 800607e:	687b      	ldr	r3, [r7, #4]
 8006080:	601a      	str	r2, [r3, #0]
 8006082:	e003      	b.n	800608c <prvInsertBlockIntoFreeList+0x90>
		}
	}
	else
	{
		pxBlockToInsert->pxNextFreeBlock = pxIterator->pxNextFreeBlock;
 8006084:	68fb      	ldr	r3, [r7, #12]
 8006086:	681a      	ldr	r2, [r3, #0]
 8006088:	687b      	ldr	r3, [r7, #4]
 800608a:	601a      	str	r2, [r3, #0]

	/* If the block being inserted plugged a gab, so was merged with the block
	before and the block after, then it's pxNextFreeBlock pointer will have
	already been set, and should not be set here as that would make it point
	to itself. */
	if( pxIterator != pxBlockToInsert )
 800608c:	68fa      	ldr	r2, [r7, #12]
 800608e:	687b      	ldr	r3, [r7, #4]
 8006090:	429a      	cmp	r2, r3
 8006092:	d002      	beq.n	800609a <prvInsertBlockIntoFreeList+0x9e>
	{
		pxIterator->pxNextFreeBlock = pxBlockToInsert;
 8006094:	68fb      	ldr	r3, [r7, #12]
 8006096:	687a      	ldr	r2, [r7, #4]
 8006098:	601a      	str	r2, [r3, #0]
	}
	else
	{
		mtCOVERAGE_TEST_MARKER();
	}
}
 800609a:	bf00      	nop
 800609c:	3714      	adds	r7, #20
 800609e:	46bd      	mov	sp, r7
 80060a0:	bc80      	pop	{r7}
 80060a2:	4770      	bx	lr
 80060a4:	20001bcc 	.word	0x20001bcc
 80060a8:	20001bd4 	.word	0x20001bd4

080060ac <__libc_init_array>:
 80060ac:	b570      	push	{r4, r5, r6, lr}
 80060ae:	2500      	movs	r5, #0
 80060b0:	4e0c      	ldr	r6, [pc, #48]	; (80060e4 <__libc_init_array+0x38>)
 80060b2:	4c0d      	ldr	r4, [pc, #52]	; (80060e8 <__libc_init_array+0x3c>)
 80060b4:	1ba4      	subs	r4, r4, r6
 80060b6:	10a4      	asrs	r4, r4, #2
 80060b8:	42a5      	cmp	r5, r4
 80060ba:	d109      	bne.n	80060d0 <__libc_init_array+0x24>
 80060bc:	f000 f822 	bl	8006104 <_init>
 80060c0:	2500      	movs	r5, #0
 80060c2:	4e0a      	ldr	r6, [pc, #40]	; (80060ec <__libc_init_array+0x40>)
 80060c4:	4c0a      	ldr	r4, [pc, #40]	; (80060f0 <__libc_init_array+0x44>)
 80060c6:	1ba4      	subs	r4, r4, r6
 80060c8:	10a4      	asrs	r4, r4, #2
 80060ca:	42a5      	cmp	r5, r4
 80060cc:	d105      	bne.n	80060da <__libc_init_array+0x2e>
 80060ce:	bd70      	pop	{r4, r5, r6, pc}
 80060d0:	f856 3025 	ldr.w	r3, [r6, r5, lsl #2]
 80060d4:	4798      	blx	r3
 80060d6:	3501      	adds	r5, #1
 80060d8:	e7ee      	b.n	80060b8 <__libc_init_array+0xc>
 80060da:	f856 3025 	ldr.w	r3, [r6, r5, lsl #2]
 80060de:	4798      	blx	r3
 80060e0:	3501      	adds	r5, #1
 80060e2:	e7f2      	b.n	80060ca <__libc_init_array+0x1e>
 80060e4:	0800618c 	.word	0x0800618c
 80060e8:	0800618c 	.word	0x0800618c
 80060ec:	0800618c 	.word	0x0800618c
 80060f0:	08006190 	.word	0x08006190

080060f4 <memset>:
 80060f4:	4603      	mov	r3, r0
 80060f6:	4402      	add	r2, r0
 80060f8:	4293      	cmp	r3, r2
 80060fa:	d100      	bne.n	80060fe <memset+0xa>
 80060fc:	4770      	bx	lr
 80060fe:	f803 1b01 	strb.w	r1, [r3], #1
 8006102:	e7f9      	b.n	80060f8 <memset+0x4>

08006104 <_init>:
 8006104:	b5f8      	push	{r3, r4, r5, r6, r7, lr}
 8006106:	bf00      	nop
 8006108:	bcf8      	pop	{r3, r4, r5, r6, r7}
 800610a:	bc08      	pop	{r3}
 800610c:	469e      	mov	lr, r3
 800610e:	4770      	bx	lr

08006110 <_fini>:
 8006110:	b5f8      	push	{r3, r4, r5, r6, r7, lr}
 8006112:	bf00      	nop
 8006114:	bcf8      	pop	{r3, r4, r5, r6, r7}
 8006116:	bc08      	pop	{r3}
 8006118:	469e      	mov	lr, r3
 800611a:	4770      	bx	lr
