
Rear_ECU.elf:     file format elf32-littlearm

Sections:
Idx Name          Size      VMA       LMA       File off  Algn
  0 .isr_vector   0000010c  08000000  08000000  00010000  2**0
                  CONTENTS, ALLOC, LOAD, READONLY, DATA
  1 .text         0000835c  08000110  08000110  00010110  2**4
                  CONTENTS, ALLOC, LOAD, READONLY, CODE
  2 .rodata       000000f8  0800846c  0800846c  0001846c  2**2
                  CONTENTS, ALLOC, LOAD, READONLY, DATA
  3 .ARM.extab    00000000  08008564  08008564  00020010  2**0
                  CONTENTS
  4 .ARM          00000000  08008564  08008564  00020010  2**0
                  CONTENTS
  5 .preinit_array 00000000  08008564  08008564  00020010  2**0
                  CONTENTS, ALLOC, LOAD, DATA
  6 .init_array   00000004  08008564  08008564  00018564  2**2
                  CONTENTS, ALLOC, LOAD, DATA
  7 .fini_array   00000004  08008568  08008568  00018568  2**2
                  CONTENTS, ALLOC, LOAD, DATA
  8 .data         00000010  20000000  0800856c  00020000  2**2
                  CONTENTS, ALLOC, LOAD, DATA
  9 .bss          000023a0  20000010  0800857c  00020010  2**2
                  ALLOC
 10 ._user_heap_stack 00000600  200023b0  0800857c  000223b0  2**0
                  ALLOC
 11 .ARM.attributes 00000029  00000000  00000000  00020010  2**0
                  CONTENTS, READONLY
 12 .debug_info   0001aef6  00000000  00000000  00020039  2**0
                  CONTENTS, READONLY, DEBUGGING
 13 .debug_abbrev 000035ec  00000000  00000000  0003af2f  2**0
                  CONTENTS, READONLY, DEBUGGING
 14 .debug_aranges 00001728  00000000  00000000  0003e520  2**3
                  CONTENTS, READONLY, DEBUGGING
 15 .debug_ranges 00001590  00000000  00000000  0003fc48  2**3
                  CONTENTS, READONLY, DEBUGGING
 16 .debug_macro  000049d5  00000000  00000000  000411d8  2**0
                  CONTENTS, READONLY, DEBUGGING
 17 .debug_line   00012880  00000000  00000000  00045bad  2**0
                  CONTENTS, READONLY, DEBUGGING
 18 .debug_str    00086498  00000000  00000000  0005842d  2**0
                  CONTENTS, READONLY, DEBUGGING
 19 .comment      0000007b  00000000  00000000  000de8c5  2**0
                  CONTENTS, READONLY
 20 .debug_frame  00006394  00000000  00000000  000de940  2**2
                  CONTENTS, READONLY, DEBUGGING

Disassembly of section .text:

08000110 <__do_global_dtors_aux>:
 8000110:	b510      	push	{r4, lr}
 8000112:	4c05      	ldr	r4, [pc, #20]	; (8000128 <__do_global_dtors_aux+0x18>)
 8000114:	7823      	ldrb	r3, [r4, #0]
 8000116:	b933      	cbnz	r3, 8000126 <__do_global_dtors_aux+0x16>
 8000118:	4b04      	ldr	r3, [pc, #16]	; (800012c <__do_global_dtors_aux+0x1c>)
 800011a:	b113      	cbz	r3, 8000122 <__do_global_dtors_aux+0x12>
 800011c:	4804      	ldr	r0, [pc, #16]	; (8000130 <__do_global_dtors_aux+0x20>)
 800011e:	f3af 8000 	nop.w
 8000122:	2301      	movs	r3, #1
 8000124:	7023      	strb	r3, [r4, #0]
 8000126:	bd10      	pop	{r4, pc}
 8000128:	20000010 	.word	0x20000010
 800012c:	00000000 	.word	0x00000000
 8000130:	08008454 	.word	0x08008454

08000134 <frame_dummy>:
 8000134:	b508      	push	{r3, lr}
 8000136:	4b03      	ldr	r3, [pc, #12]	; (8000144 <frame_dummy+0x10>)
 8000138:	b11b      	cbz	r3, 8000142 <frame_dummy+0xe>
 800013a:	4903      	ldr	r1, [pc, #12]	; (8000148 <frame_dummy+0x14>)
 800013c:	4803      	ldr	r0, [pc, #12]	; (800014c <frame_dummy+0x18>)
 800013e:	f3af 8000 	nop.w
 8000142:	bd08      	pop	{r3, pc}
 8000144:	00000000 	.word	0x00000000
 8000148:	20000014 	.word	0x20000014
 800014c:	08008454 	.word	0x08008454

08000150 <SEGGER_RTT_ASM_WriteSkipNoLock>:
        //   R4 <Rem>
        //   R5 pRing->pBuffer
        //   R6 pRing (Points to active struct SEGGER_RTT_BUFFER_DOWN)
        //   R7 WrOff
        //
        PUSH     {R4-R7}
 8000150:	b4f0      	push	{r4, r5, r6, r7}
        ADD      R3,R0,R0, LSL #+1
 8000152:	eb00 0340 	add.w	r3, r0, r0, lsl #1
        LDR.W    R0,=_SEGGER_RTT                 // pRing = &_SEGGER_RTT.aUp[BufferIndex];
 8000156:	f8df 0080 	ldr.w	r0, [pc, #128]	; 80001d8 <_Case3+0x6>
        ADD      R0,R0,R3, LSL #+3
 800015a:	eb00 00c3 	add.w	r0, r0, r3, lsl #3
        ADD      R6,R0,#+24
 800015e:	f100 0618 	add.w	r6, r0, #24
        LDR      R0,[R6, #+16]                   // RdOff = pRing->RdOff;
 8000162:	6930      	ldr	r0, [r6, #16]
        LDR      R7,[R6, #+12]                   // WrOff = pRing->WrOff;
 8000164:	68f7      	ldr	r7, [r6, #12]
        LDR      R5,[R6, #+4]                    // pRing->pBuffer
 8000166:	6875      	ldr	r5, [r6, #4]
        CMP      R7,R0
 8000168:	4287      	cmp	r7, r0
        BCC.N    _CheckCase4                     // if (RdOff <= WrOff) {                           => Case 1), 2) or 3)
 800016a:	d32e      	bcc.n	80001ca <_CheckCase4>
        //
        // Handling for case 1, later on identical to case 4
        //
        LDR      R3,[R6, #+8]                    //  Avail = pRing->SizeOfBuffer - WrOff - 1u;      => Space until wrap-around (assume 1 byte not usable for case that RdOff == 0)
 800016c:	68b3      	ldr	r3, [r6, #8]
        SUBS     R4,R3,R7                        // <Rem> (Used in case we jump into case 2 afterwards)
 800016e:	1bdc      	subs	r4, r3, r7
        SUBS     R3,R4,#+1                       // <Avail>
 8000170:	1e63      	subs	r3, r4, #1
        CMP      R3,R2
 8000172:	4293      	cmp	r3, r2
        BCC.N    _CheckCase2                     // if (Avail >= NumBytes) {  => Case 1)?
 8000174:	d312      	bcc.n	800019c <_CheckCase2>

08000176 <_Case4>:
_Case4:
        ADDS     R5,R7,R5                        // pBuffer += WrOff
 8000176:	197d      	adds	r5, r7, r5
        ADDS     R0,R2,R7                        // v = WrOff + NumBytes
 8000178:	19d0      	adds	r0, r2, r7
 800017a:	bf00      	nop

0800017c <_LoopCopyStraight>:
        // 2x unrolling for the copy loop that is used most of the time
        // This is a special optimization for small SystemView packets and makes them even faster
        //
        _ALIGN(2)
_LoopCopyStraight:                               // memcpy(pRing->pBuffer + WrOff, pData, NumBytes);
        LDRB     R3,[R1], #+1
 800017c:	f811 3b01 	ldrb.w	r3, [r1], #1
        STRB     R3,[R5], #+1                    // *pDest++ = *pSrc++
 8000180:	f805 3b01 	strb.w	r3, [r5], #1
        SUBS     R2,R2,#+1
 8000184:	3a01      	subs	r2, #1
        BEQ      _CSDone
 8000186:	d005      	beq.n	8000194 <_CSDone>
        LDRB     R3,[R1], #+1
 8000188:	f811 3b01 	ldrb.w	r3, [r1], #1
        STRB     R3,[R5], #+1                    // *pDest++ = *pSrc++
 800018c:	f805 3b01 	strb.w	r3, [r5], #1
        SUBS     R2,R2,#+1
 8000190:	3a01      	subs	r2, #1
        BNE      _LoopCopyStraight
 8000192:	d1f3      	bne.n	800017c <_LoopCopyStraight>

08000194 <_CSDone>:
_CSDone:
#if _CORE_NEEDS_DMB                              // Do not slow down cores that do not need a DMB instruction here
        DMB                                      // Cortex-M7 may delay memory writes and also change the order in which the writes happen. Therefore, make sure that all buffer writes are finished, before updating the <WrOff> in the struct
#endif
        STR      R0,[R6, #+12]                   // pRing->WrOff = WrOff + NumBytes;
 8000194:	60f0      	str	r0, [r6, #12]
        MOVS     R0,#+1
 8000196:	2001      	movs	r0, #1
        POP      {R4-R7}
 8000198:	bcf0      	pop	{r4, r5, r6, r7}
        BX       LR                              // Return 1
 800019a:	4770      	bx	lr

0800019c <_CheckCase2>:
_CheckCase2:
        ADDS     R0,R0,R3                        // Avail += RdOff; => Space incl. wrap-around
 800019c:	18c0      	adds	r0, r0, r3
        CMP      R0,R2
 800019e:	4290      	cmp	r0, r2
        BCC.N    _Case3                          // if (Avail >= NumBytes) {           => Case 2? => If not, we have case 3) (does not fit)
 80001a0:	d317      	bcc.n	80001d2 <_Case3>
        //
        // Handling for case 2
        //
        ADDS     R0,R7,R5                        // v = pRing->pBuffer + WrOff => Do not change pRing->pBuffer here because 2nd chunk needs org. value
 80001a2:	1978      	adds	r0, r7, r5
        SUBS     R2,R2,R4                        // NumBytes -= Rem;  (Rem = pRing->SizeOfBuffer - WrOff; => Space until end of buffer)
 80001a4:	1b12      	subs	r2, r2, r4

080001a6 <_LoopCopyBeforeWrapAround>:
_LoopCopyBeforeWrapAround:                       // memcpy(pRing->pBuffer + WrOff, pData, Rem); => Copy 1st chunk
        LDRB     R3,[R1], #+1
 80001a6:	f811 3b01 	ldrb.w	r3, [r1], #1
        STRB     R3,[R0], #+1                    // *pDest++ = *pSrc++
 80001aa:	f800 3b01 	strb.w	r3, [r0], #1
        SUBS     R4,R4,#+1
 80001ae:	3c01      	subs	r4, #1
        BNE      _LoopCopyBeforeWrapAround
 80001b0:	d1f9      	bne.n	80001a6 <_LoopCopyBeforeWrapAround>
        // Special case: First check that assumed RdOff == 0 calculated that last element before wrap-around could not be used
        // But 2nd check (considering space until wrap-around and until RdOff) revealed that RdOff is not 0, so we can use the last element
        // In this case, we may use a copy straight until buffer end anyway without needing to copy 2 chunks
        // Therefore, check if 2nd memcpy is necessary at all
        //
        ADDS     R4,R2,#+0                       // Save <NumBytes> (needed as counter in loop but must be written to <WrOff> after the loop). Also use this inst to update the flags to skip 2nd loop if possible
 80001b2:	1c14      	adds	r4, r2, #0
        BEQ.N    _No2ChunkNeeded                 // if (NumBytes) {
 80001b4:	d005      	beq.n	80001c2 <_No2ChunkNeeded>

080001b6 <_LoopCopyAfterWrapAround>:
_LoopCopyAfterWrapAround:                        // memcpy(pRing->pBuffer, pData + Rem, NumBytes);
        LDRB     R3,[R1], #+1                    // pData already points to the next src byte due to copy loop increment before this loop
 80001b6:	f811 3b01 	ldrb.w	r3, [r1], #1
        STRB     R3,[R5], #+1                    // *pDest++ = *pSrc++
 80001ba:	f805 3b01 	strb.w	r3, [r5], #1
        SUBS     R2,R2,#+1
 80001be:	3a01      	subs	r2, #1
        BNE      _LoopCopyAfterWrapAround
 80001c0:	d1f9      	bne.n	80001b6 <_LoopCopyAfterWrapAround>

080001c2 <_No2ChunkNeeded>:
_No2ChunkNeeded:
#if _CORE_NEEDS_DMB                              // Do not slow down cores that do not need a DMB instruction here
        DMB                                      // Cortex-M7 may delay memory writes and also change the order in which the writes happen. Therefore, make sure that all buffer writes are finished, before updating the <WrOff> in the struct
#endif
        STR      R4,[R6, #+12]                   // pRing->WrOff = NumBytes; => Must be written after copying data because J-Link may read control block asynchronously while writing into buffer
 80001c2:	60f4      	str	r4, [r6, #12]
        MOVS     R0,#+1
 80001c4:	2001      	movs	r0, #1
        POP      {R4-R7}
 80001c6:	bcf0      	pop	{r4, r5, r6, r7}
        BX       LR                              // Return 1
 80001c8:	4770      	bx	lr

080001ca <_CheckCase4>:
_CheckCase4:
        SUBS     R0,R0,R7
 80001ca:	1bc0      	subs	r0, r0, r7
        SUBS     R0,R0,#+1                       // Avail = RdOff - WrOff - 1u;
 80001cc:	3801      	subs	r0, #1
        CMP      R0,R2
 80001ce:	4290      	cmp	r0, r2
        BCS.N    _Case4                          // if (Avail >= NumBytes) {      => Case 4) == 1) ? => If not, we have case 5) == 3) (does not fit)
 80001d0:	d2d1      	bcs.n	8000176 <_Case4>

080001d2 <_Case3>:
_Case3:
        MOVS     R0,#+0
 80001d2:	2000      	movs	r0, #0
        POP      {R4-R7}
 80001d4:	bcf0      	pop	{r4, r5, r6, r7}
        BX       LR                              // Return 0
 80001d6:	4770      	bx	lr
        LDR.W    R0,=_SEGGER_RTT                 // pRing = &_SEGGER_RTT.aUp[BufferIndex];
 80001d8:	20002308 	.word	0x20002308

080001dc <__aeabi_drsub>:
 80001dc:	f081 4100 	eor.w	r1, r1, #2147483648	; 0x80000000
 80001e0:	e002      	b.n	80001e8 <__adddf3>
 80001e2:	bf00      	nop

080001e4 <__aeabi_dsub>:
 80001e4:	f083 4300 	eor.w	r3, r3, #2147483648	; 0x80000000

080001e8 <__adddf3>:
 80001e8:	b530      	push	{r4, r5, lr}
 80001ea:	ea4f 0441 	mov.w	r4, r1, lsl #1
 80001ee:	ea4f 0543 	mov.w	r5, r3, lsl #1
 80001f2:	ea94 0f05 	teq	r4, r5
 80001f6:	bf08      	it	eq
 80001f8:	ea90 0f02 	teqeq	r0, r2
 80001fc:	bf1f      	itttt	ne
 80001fe:	ea54 0c00 	orrsne.w	ip, r4, r0
 8000202:	ea55 0c02 	orrsne.w	ip, r5, r2
 8000206:	ea7f 5c64 	mvnsne.w	ip, r4, asr #21
 800020a:	ea7f 5c65 	mvnsne.w	ip, r5, asr #21
 800020e:	f000 80e2 	beq.w	80003d6 <__adddf3+0x1ee>
 8000212:	ea4f 5454 	mov.w	r4, r4, lsr #21
 8000216:	ebd4 5555 	rsbs	r5, r4, r5, lsr #21
 800021a:	bfb8      	it	lt
 800021c:	426d      	neglt	r5, r5
 800021e:	dd0c      	ble.n	800023a <__adddf3+0x52>
 8000220:	442c      	add	r4, r5
 8000222:	ea80 0202 	eor.w	r2, r0, r2
 8000226:	ea81 0303 	eor.w	r3, r1, r3
 800022a:	ea82 0000 	eor.w	r0, r2, r0
 800022e:	ea83 0101 	eor.w	r1, r3, r1
 8000232:	ea80 0202 	eor.w	r2, r0, r2
 8000236:	ea81 0303 	eor.w	r3, r1, r3
 800023a:	2d36      	cmp	r5, #54	; 0x36
 800023c:	bf88      	it	hi
 800023e:	bd30      	pophi	{r4, r5, pc}
 8000240:	f011 4f00 	tst.w	r1, #2147483648	; 0x80000000
 8000244:	ea4f 3101 	mov.w	r1, r1, lsl #12
 8000248:	f44f 1c80 	mov.w	ip, #1048576	; 0x100000
 800024c:	ea4c 3111 	orr.w	r1, ip, r1, lsr #12
 8000250:	d002      	beq.n	8000258 <__adddf3+0x70>
 8000252:	4240      	negs	r0, r0
 8000254:	eb61 0141 	sbc.w	r1, r1, r1, lsl #1
 8000258:	f013 4f00 	tst.w	r3, #2147483648	; 0x80000000
 800025c:	ea4f 3303 	mov.w	r3, r3, lsl #12
 8000260:	ea4c 3313 	orr.w	r3, ip, r3, lsr #12
 8000264:	d002      	beq.n	800026c <__adddf3+0x84>
 8000266:	4252      	negs	r2, r2
 8000268:	eb63 0343 	sbc.w	r3, r3, r3, lsl #1
 800026c:	ea94 0f05 	teq	r4, r5
 8000270:	f000 80a7 	beq.w	80003c2 <__adddf3+0x1da>
 8000274:	f1a4 0401 	sub.w	r4, r4, #1
 8000278:	f1d5 0e20 	rsbs	lr, r5, #32
 800027c:	db0d      	blt.n	800029a <__adddf3+0xb2>
 800027e:	fa02 fc0e 	lsl.w	ip, r2, lr
 8000282:	fa22 f205 	lsr.w	r2, r2, r5
 8000286:	1880      	adds	r0, r0, r2
 8000288:	f141 0100 	adc.w	r1, r1, #0
 800028c:	fa03 f20e 	lsl.w	r2, r3, lr
 8000290:	1880      	adds	r0, r0, r2
 8000292:	fa43 f305 	asr.w	r3, r3, r5
 8000296:	4159      	adcs	r1, r3
 8000298:	e00e      	b.n	80002b8 <__adddf3+0xd0>
 800029a:	f1a5 0520 	sub.w	r5, r5, #32
 800029e:	f10e 0e20 	add.w	lr, lr, #32
 80002a2:	2a01      	cmp	r2, #1
 80002a4:	fa03 fc0e 	lsl.w	ip, r3, lr
 80002a8:	bf28      	it	cs
 80002aa:	f04c 0c02 	orrcs.w	ip, ip, #2
 80002ae:	fa43 f305 	asr.w	r3, r3, r5
 80002b2:	18c0      	adds	r0, r0, r3
 80002b4:	eb51 71e3 	adcs.w	r1, r1, r3, asr #31
 80002b8:	f001 4500 	and.w	r5, r1, #2147483648	; 0x80000000
 80002bc:	d507      	bpl.n	80002ce <__adddf3+0xe6>
 80002be:	f04f 0e00 	mov.w	lr, #0
 80002c2:	f1dc 0c00 	rsbs	ip, ip, #0
 80002c6:	eb7e 0000 	sbcs.w	r0, lr, r0
 80002ca:	eb6e 0101 	sbc.w	r1, lr, r1
 80002ce:	f5b1 1f80 	cmp.w	r1, #1048576	; 0x100000
 80002d2:	d31b      	bcc.n	800030c <__adddf3+0x124>
 80002d4:	f5b1 1f00 	cmp.w	r1, #2097152	; 0x200000
 80002d8:	d30c      	bcc.n	80002f4 <__adddf3+0x10c>
 80002da:	0849      	lsrs	r1, r1, #1
 80002dc:	ea5f 0030 	movs.w	r0, r0, rrx
 80002e0:	ea4f 0c3c 	mov.w	ip, ip, rrx
 80002e4:	f104 0401 	add.w	r4, r4, #1
 80002e8:	ea4f 5244 	mov.w	r2, r4, lsl #21
 80002ec:	f512 0f80 	cmn.w	r2, #4194304	; 0x400000
 80002f0:	f080 809a 	bcs.w	8000428 <__adddf3+0x240>
 80002f4:	f1bc 4f00 	cmp.w	ip, #2147483648	; 0x80000000
 80002f8:	bf08      	it	eq
 80002fa:	ea5f 0c50 	movseq.w	ip, r0, lsr #1
 80002fe:	f150 0000 	adcs.w	r0, r0, #0
 8000302:	eb41 5104 	adc.w	r1, r1, r4, lsl #20
 8000306:	ea41 0105 	orr.w	r1, r1, r5
 800030a:	bd30      	pop	{r4, r5, pc}
 800030c:	ea5f 0c4c 	movs.w	ip, ip, lsl #1
 8000310:	4140      	adcs	r0, r0
 8000312:	eb41 0101 	adc.w	r1, r1, r1
 8000316:	f411 1f80 	tst.w	r1, #1048576	; 0x100000
 800031a:	f1a4 0401 	sub.w	r4, r4, #1
 800031e:	d1e9      	bne.n	80002f4 <__adddf3+0x10c>
 8000320:	f091 0f00 	teq	r1, #0
 8000324:	bf04      	itt	eq
 8000326:	4601      	moveq	r1, r0
 8000328:	2000      	moveq	r0, #0
 800032a:	fab1 f381 	clz	r3, r1
 800032e:	bf08      	it	eq
 8000330:	3320      	addeq	r3, #32
 8000332:	f1a3 030b 	sub.w	r3, r3, #11
 8000336:	f1b3 0220 	subs.w	r2, r3, #32
 800033a:	da0c      	bge.n	8000356 <__adddf3+0x16e>
 800033c:	320c      	adds	r2, #12
 800033e:	dd08      	ble.n	8000352 <__adddf3+0x16a>
 8000340:	f102 0c14 	add.w	ip, r2, #20
 8000344:	f1c2 020c 	rsb	r2, r2, #12
 8000348:	fa01 f00c 	lsl.w	r0, r1, ip
 800034c:	fa21 f102 	lsr.w	r1, r1, r2
 8000350:	e00c      	b.n	800036c <__adddf3+0x184>
 8000352:	f102 0214 	add.w	r2, r2, #20
 8000356:	bfd8      	it	le
 8000358:	f1c2 0c20 	rsble	ip, r2, #32
 800035c:	fa01 f102 	lsl.w	r1, r1, r2
 8000360:	fa20 fc0c 	lsr.w	ip, r0, ip
 8000364:	bfdc      	itt	le
 8000366:	ea41 010c 	orrle.w	r1, r1, ip
 800036a:	4090      	lslle	r0, r2
 800036c:	1ae4      	subs	r4, r4, r3
 800036e:	bfa2      	ittt	ge
 8000370:	eb01 5104 	addge.w	r1, r1, r4, lsl #20
 8000374:	4329      	orrge	r1, r5
 8000376:	bd30      	popge	{r4, r5, pc}
 8000378:	ea6f 0404 	mvn.w	r4, r4
 800037c:	3c1f      	subs	r4, #31
 800037e:	da1c      	bge.n	80003ba <__adddf3+0x1d2>
 8000380:	340c      	adds	r4, #12
 8000382:	dc0e      	bgt.n	80003a2 <__adddf3+0x1ba>
 8000384:	f104 0414 	add.w	r4, r4, #20
 8000388:	f1c4 0220 	rsb	r2, r4, #32
 800038c:	fa20 f004 	lsr.w	r0, r0, r4
 8000390:	fa01 f302 	lsl.w	r3, r1, r2
 8000394:	ea40 0003 	orr.w	r0, r0, r3
 8000398:	fa21 f304 	lsr.w	r3, r1, r4
 800039c:	ea45 0103 	orr.w	r1, r5, r3
 80003a0:	bd30      	pop	{r4, r5, pc}
 80003a2:	f1c4 040c 	rsb	r4, r4, #12
 80003a6:	f1c4 0220 	rsb	r2, r4, #32
 80003aa:	fa20 f002 	lsr.w	r0, r0, r2
 80003ae:	fa01 f304 	lsl.w	r3, r1, r4
 80003b2:	ea40 0003 	orr.w	r0, r0, r3
 80003b6:	4629      	mov	r1, r5
 80003b8:	bd30      	pop	{r4, r5, pc}
 80003ba:	fa21 f004 	lsr.w	r0, r1, r4
 80003be:	4629      	mov	r1, r5
 80003c0:	bd30      	pop	{r4, r5, pc}
 80003c2:	f094 0f00 	teq	r4, #0
 80003c6:	f483 1380 	eor.w	r3, r3, #1048576	; 0x100000
 80003ca:	bf06      	itte	eq
 80003cc:	f481 1180 	eoreq.w	r1, r1, #1048576	; 0x100000
 80003d0:	3401      	addeq	r4, #1
 80003d2:	3d01      	subne	r5, #1
 80003d4:	e74e      	b.n	8000274 <__adddf3+0x8c>
 80003d6:	ea7f 5c64 	mvns.w	ip, r4, asr #21
 80003da:	bf18      	it	ne
 80003dc:	ea7f 5c65 	mvnsne.w	ip, r5, asr #21
 80003e0:	d029      	beq.n	8000436 <__adddf3+0x24e>
 80003e2:	ea94 0f05 	teq	r4, r5
 80003e6:	bf08      	it	eq
 80003e8:	ea90 0f02 	teqeq	r0, r2
 80003ec:	d005      	beq.n	80003fa <__adddf3+0x212>
 80003ee:	ea54 0c00 	orrs.w	ip, r4, r0
 80003f2:	bf04      	itt	eq
 80003f4:	4619      	moveq	r1, r3
 80003f6:	4610      	moveq	r0, r2
 80003f8:	bd30      	pop	{r4, r5, pc}
 80003fa:	ea91 0f03 	teq	r1, r3
 80003fe:	bf1e      	ittt	ne
 8000400:	2100      	movne	r1, #0
 8000402:	2000      	movne	r0, #0
 8000404:	bd30      	popne	{r4, r5, pc}
 8000406:	ea5f 5c54 	movs.w	ip, r4, lsr #21
 800040a:	d105      	bne.n	8000418 <__adddf3+0x230>
 800040c:	0040      	lsls	r0, r0, #1
 800040e:	4149      	adcs	r1, r1
 8000410:	bf28      	it	cs
 8000412:	f041 4100 	orrcs.w	r1, r1, #2147483648	; 0x80000000
 8000416:	bd30      	pop	{r4, r5, pc}
 8000418:	f514 0480 	adds.w	r4, r4, #4194304	; 0x400000
 800041c:	bf3c      	itt	cc
 800041e:	f501 1180 	addcc.w	r1, r1, #1048576	; 0x100000
 8000422:	bd30      	popcc	{r4, r5, pc}
 8000424:	f001 4500 	and.w	r5, r1, #2147483648	; 0x80000000
 8000428:	f045 41fe 	orr.w	r1, r5, #2130706432	; 0x7f000000
 800042c:	f441 0170 	orr.w	r1, r1, #15728640	; 0xf00000
 8000430:	f04f 0000 	mov.w	r0, #0
 8000434:	bd30      	pop	{r4, r5, pc}
 8000436:	ea7f 5c64 	mvns.w	ip, r4, asr #21
 800043a:	bf1a      	itte	ne
 800043c:	4619      	movne	r1, r3
 800043e:	4610      	movne	r0, r2
 8000440:	ea7f 5c65 	mvnseq.w	ip, r5, asr #21
 8000444:	bf1c      	itt	ne
 8000446:	460b      	movne	r3, r1
 8000448:	4602      	movne	r2, r0
 800044a:	ea50 3401 	orrs.w	r4, r0, r1, lsl #12
 800044e:	bf06      	itte	eq
 8000450:	ea52 3503 	orrseq.w	r5, r2, r3, lsl #12
 8000454:	ea91 0f03 	teqeq	r1, r3
 8000458:	f441 2100 	orrne.w	r1, r1, #524288	; 0x80000
 800045c:	bd30      	pop	{r4, r5, pc}
 800045e:	bf00      	nop

08000460 <__aeabi_ui2d>:
 8000460:	f090 0f00 	teq	r0, #0
 8000464:	bf04      	itt	eq
 8000466:	2100      	moveq	r1, #0
 8000468:	4770      	bxeq	lr
 800046a:	b530      	push	{r4, r5, lr}
 800046c:	f44f 6480 	mov.w	r4, #1024	; 0x400
 8000470:	f104 0432 	add.w	r4, r4, #50	; 0x32
 8000474:	f04f 0500 	mov.w	r5, #0
 8000478:	f04f 0100 	mov.w	r1, #0
 800047c:	e750      	b.n	8000320 <__adddf3+0x138>
 800047e:	bf00      	nop

08000480 <__aeabi_i2d>:
 8000480:	f090 0f00 	teq	r0, #0
 8000484:	bf04      	itt	eq
 8000486:	2100      	moveq	r1, #0
 8000488:	4770      	bxeq	lr
 800048a:	b530      	push	{r4, r5, lr}
 800048c:	f44f 6480 	mov.w	r4, #1024	; 0x400
 8000490:	f104 0432 	add.w	r4, r4, #50	; 0x32
 8000494:	f010 4500 	ands.w	r5, r0, #2147483648	; 0x80000000
 8000498:	bf48      	it	mi
 800049a:	4240      	negmi	r0, r0
 800049c:	f04f 0100 	mov.w	r1, #0
 80004a0:	e73e      	b.n	8000320 <__adddf3+0x138>
 80004a2:	bf00      	nop

080004a4 <__aeabi_f2d>:
 80004a4:	0042      	lsls	r2, r0, #1
 80004a6:	ea4f 01e2 	mov.w	r1, r2, asr #3
 80004aa:	ea4f 0131 	mov.w	r1, r1, rrx
 80004ae:	ea4f 7002 	mov.w	r0, r2, lsl #28
 80004b2:	bf1f      	itttt	ne
 80004b4:	f012 437f 	andsne.w	r3, r2, #4278190080	; 0xff000000
 80004b8:	f093 4f7f 	teqne	r3, #4278190080	; 0xff000000
 80004bc:	f081 5160 	eorne.w	r1, r1, #939524096	; 0x38000000
 80004c0:	4770      	bxne	lr
 80004c2:	f032 427f 	bics.w	r2, r2, #4278190080	; 0xff000000
 80004c6:	bf08      	it	eq
 80004c8:	4770      	bxeq	lr
 80004ca:	f093 4f7f 	teq	r3, #4278190080	; 0xff000000
 80004ce:	bf04      	itt	eq
 80004d0:	f441 2100 	orreq.w	r1, r1, #524288	; 0x80000
 80004d4:	4770      	bxeq	lr
 80004d6:	b530      	push	{r4, r5, lr}
 80004d8:	f44f 7460 	mov.w	r4, #896	; 0x380
 80004dc:	f001 4500 	and.w	r5, r1, #2147483648	; 0x80000000
 80004e0:	f021 4100 	bic.w	r1, r1, #2147483648	; 0x80000000
 80004e4:	e71c      	b.n	8000320 <__adddf3+0x138>
 80004e6:	bf00      	nop

080004e8 <__aeabi_ul2d>:
 80004e8:	ea50 0201 	orrs.w	r2, r0, r1
 80004ec:	bf08      	it	eq
 80004ee:	4770      	bxeq	lr
 80004f0:	b530      	push	{r4, r5, lr}
 80004f2:	f04f 0500 	mov.w	r5, #0
 80004f6:	e00a      	b.n	800050e <__aeabi_l2d+0x16>

080004f8 <__aeabi_l2d>:
 80004f8:	ea50 0201 	orrs.w	r2, r0, r1
 80004fc:	bf08      	it	eq
 80004fe:	4770      	bxeq	lr
 8000500:	b530      	push	{r4, r5, lr}
 8000502:	f011 4500 	ands.w	r5, r1, #2147483648	; 0x80000000
 8000506:	d502      	bpl.n	800050e <__aeabi_l2d+0x16>
 8000508:	4240      	negs	r0, r0
 800050a:	eb61 0141 	sbc.w	r1, r1, r1, lsl #1
 800050e:	f44f 6480 	mov.w	r4, #1024	; 0x400
 8000512:	f104 0432 	add.w	r4, r4, #50	; 0x32
 8000516:	ea5f 5c91 	movs.w	ip, r1, lsr #22
 800051a:	f43f aed8 	beq.w	80002ce <__adddf3+0xe6>
 800051e:	f04f 0203 	mov.w	r2, #3
 8000522:	ea5f 0cdc 	movs.w	ip, ip, lsr #3
 8000526:	bf18      	it	ne
 8000528:	3203      	addne	r2, #3
 800052a:	ea5f 0cdc 	movs.w	ip, ip, lsr #3
 800052e:	bf18      	it	ne
 8000530:	3203      	addne	r2, #3
 8000532:	eb02 02dc 	add.w	r2, r2, ip, lsr #3
 8000536:	f1c2 0320 	rsb	r3, r2, #32
 800053a:	fa00 fc03 	lsl.w	ip, r0, r3
 800053e:	fa20 f002 	lsr.w	r0, r0, r2
 8000542:	fa01 fe03 	lsl.w	lr, r1, r3
 8000546:	ea40 000e 	orr.w	r0, r0, lr
 800054a:	fa21 f102 	lsr.w	r1, r1, r2
 800054e:	4414      	add	r4, r2
 8000550:	e6bd      	b.n	80002ce <__adddf3+0xe6>
 8000552:	bf00      	nop

08000554 <__aeabi_dmul>:
 8000554:	b570      	push	{r4, r5, r6, lr}
 8000556:	f04f 0cff 	mov.w	ip, #255	; 0xff
 800055a:	f44c 6ce0 	orr.w	ip, ip, #1792	; 0x700
 800055e:	ea1c 5411 	ands.w	r4, ip, r1, lsr #20
 8000562:	bf1d      	ittte	ne
 8000564:	ea1c 5513 	andsne.w	r5, ip, r3, lsr #20
 8000568:	ea94 0f0c 	teqne	r4, ip
 800056c:	ea95 0f0c 	teqne	r5, ip
 8000570:	f000 f8de 	bleq	8000730 <__aeabi_dmul+0x1dc>
 8000574:	442c      	add	r4, r5
 8000576:	ea81 0603 	eor.w	r6, r1, r3
 800057a:	ea21 514c 	bic.w	r1, r1, ip, lsl #21
 800057e:	ea23 534c 	bic.w	r3, r3, ip, lsl #21
 8000582:	ea50 3501 	orrs.w	r5, r0, r1, lsl #12
 8000586:	bf18      	it	ne
 8000588:	ea52 3503 	orrsne.w	r5, r2, r3, lsl #12
 800058c:	f441 1180 	orr.w	r1, r1, #1048576	; 0x100000
 8000590:	f443 1380 	orr.w	r3, r3, #1048576	; 0x100000
 8000594:	d038      	beq.n	8000608 <__aeabi_dmul+0xb4>
 8000596:	fba0 ce02 	umull	ip, lr, r0, r2
 800059a:	f04f 0500 	mov.w	r5, #0
 800059e:	fbe1 e502 	umlal	lr, r5, r1, r2
 80005a2:	f006 4200 	and.w	r2, r6, #2147483648	; 0x80000000
 80005a6:	fbe0 e503 	umlal	lr, r5, r0, r3
 80005aa:	f04f 0600 	mov.w	r6, #0
 80005ae:	fbe1 5603 	umlal	r5, r6, r1, r3
 80005b2:	f09c 0f00 	teq	ip, #0
 80005b6:	bf18      	it	ne
 80005b8:	f04e 0e01 	orrne.w	lr, lr, #1
 80005bc:	f1a4 04ff 	sub.w	r4, r4, #255	; 0xff
 80005c0:	f5b6 7f00 	cmp.w	r6, #512	; 0x200
 80005c4:	f564 7440 	sbc.w	r4, r4, #768	; 0x300
 80005c8:	d204      	bcs.n	80005d4 <__aeabi_dmul+0x80>
 80005ca:	ea5f 0e4e 	movs.w	lr, lr, lsl #1
 80005ce:	416d      	adcs	r5, r5
 80005d0:	eb46 0606 	adc.w	r6, r6, r6
 80005d4:	ea42 21c6 	orr.w	r1, r2, r6, lsl #11
 80005d8:	ea41 5155 	orr.w	r1, r1, r5, lsr #21
 80005dc:	ea4f 20c5 	mov.w	r0, r5, lsl #11
 80005e0:	ea40 505e 	orr.w	r0, r0, lr, lsr #21
 80005e4:	ea4f 2ece 	mov.w	lr, lr, lsl #11
 80005e8:	f1b4 0cfd 	subs.w	ip, r4, #253	; 0xfd
 80005ec:	bf88      	it	hi
 80005ee:	f5bc 6fe0 	cmphi.w	ip, #1792	; 0x700
 80005f2:	d81e      	bhi.n	8000632 <__aeabi_dmul+0xde>
 80005f4:	f1be 4f00 	cmp.w	lr, #2147483648	; 0x80000000
 80005f8:	bf08      	it	eq
 80005fa:	ea5f 0e50 	movseq.w	lr, r0, lsr #1
 80005fe:	f150 0000 	adcs.w	r0, r0, #0
 8000602:	eb41 5104 	adc.w	r1, r1, r4, lsl #20
 8000606:	bd70      	pop	{r4, r5, r6, pc}
 8000608:	f006 4600 	and.w	r6, r6, #2147483648	; 0x80000000
 800060c:	ea46 0101 	orr.w	r1, r6, r1
 8000610:	ea40 0002 	orr.w	r0, r0, r2
 8000614:	ea81 0103 	eor.w	r1, r1, r3
 8000618:	ebb4 045c 	subs.w	r4, r4, ip, lsr #1
 800061c:	bfc2      	ittt	gt
 800061e:	ebd4 050c 	rsbsgt	r5, r4, ip
 8000622:	ea41 5104 	orrgt.w	r1, r1, r4, lsl #20
 8000626:	bd70      	popgt	{r4, r5, r6, pc}
 8000628:	f441 1180 	orr.w	r1, r1, #1048576	; 0x100000
 800062c:	f04f 0e00 	mov.w	lr, #0
 8000630:	3c01      	subs	r4, #1
 8000632:	f300 80ab 	bgt.w	800078c <__aeabi_dmul+0x238>
 8000636:	f114 0f36 	cmn.w	r4, #54	; 0x36
 800063a:	bfde      	ittt	le
 800063c:	2000      	movle	r0, #0
 800063e:	f001 4100 	andle.w	r1, r1, #2147483648	; 0x80000000
 8000642:	bd70      	pople	{r4, r5, r6, pc}
 8000644:	f1c4 0400 	rsb	r4, r4, #0
 8000648:	3c20      	subs	r4, #32
 800064a:	da35      	bge.n	80006b8 <__aeabi_dmul+0x164>
 800064c:	340c      	adds	r4, #12
 800064e:	dc1b      	bgt.n	8000688 <__aeabi_dmul+0x134>
 8000650:	f104 0414 	add.w	r4, r4, #20
 8000654:	f1c4 0520 	rsb	r5, r4, #32
 8000658:	fa00 f305 	lsl.w	r3, r0, r5
 800065c:	fa20 f004 	lsr.w	r0, r0, r4
 8000660:	fa01 f205 	lsl.w	r2, r1, r5
 8000664:	ea40 0002 	orr.w	r0, r0, r2
 8000668:	f001 4200 	and.w	r2, r1, #2147483648	; 0x80000000
 800066c:	f021 4100 	bic.w	r1, r1, #2147483648	; 0x80000000
 8000670:	eb10 70d3 	adds.w	r0, r0, r3, lsr #31
 8000674:	fa21 f604 	lsr.w	r6, r1, r4
 8000678:	eb42 0106 	adc.w	r1, r2, r6
 800067c:	ea5e 0e43 	orrs.w	lr, lr, r3, lsl #1
 8000680:	bf08      	it	eq
 8000682:	ea20 70d3 	biceq.w	r0, r0, r3, lsr #31
 8000686:	bd70      	pop	{r4, r5, r6, pc}
 8000688:	f1c4 040c 	rsb	r4, r4, #12
 800068c:	f1c4 0520 	rsb	r5, r4, #32
 8000690:	fa00 f304 	lsl.w	r3, r0, r4
 8000694:	fa20 f005 	lsr.w	r0, r0, r5
 8000698:	fa01 f204 	lsl.w	r2, r1, r4
 800069c:	ea40 0002 	orr.w	r0, r0, r2
 80006a0:	f001 4100 	and.w	r1, r1, #2147483648	; 0x80000000
 80006a4:	eb10 70d3 	adds.w	r0, r0, r3, lsr #31
 80006a8:	f141 0100 	adc.w	r1, r1, #0
 80006ac:	ea5e 0e43 	orrs.w	lr, lr, r3, lsl #1
 80006b0:	bf08      	it	eq
 80006b2:	ea20 70d3 	biceq.w	r0, r0, r3, lsr #31
 80006b6:	bd70      	pop	{r4, r5, r6, pc}
 80006b8:	f1c4 0520 	rsb	r5, r4, #32
 80006bc:	fa00 f205 	lsl.w	r2, r0, r5
 80006c0:	ea4e 0e02 	orr.w	lr, lr, r2
 80006c4:	fa20 f304 	lsr.w	r3, r0, r4
 80006c8:	fa01 f205 	lsl.w	r2, r1, r5
 80006cc:	ea43 0302 	orr.w	r3, r3, r2
 80006d0:	fa21 f004 	lsr.w	r0, r1, r4
 80006d4:	f001 4100 	and.w	r1, r1, #2147483648	; 0x80000000
 80006d8:	fa21 f204 	lsr.w	r2, r1, r4
 80006dc:	ea20 0002 	bic.w	r0, r0, r2
 80006e0:	eb00 70d3 	add.w	r0, r0, r3, lsr #31
 80006e4:	ea5e 0e43 	orrs.w	lr, lr, r3, lsl #1
 80006e8:	bf08      	it	eq
 80006ea:	ea20 70d3 	biceq.w	r0, r0, r3, lsr #31
 80006ee:	bd70      	pop	{r4, r5, r6, pc}
 80006f0:	f094 0f00 	teq	r4, #0
 80006f4:	d10f      	bne.n	8000716 <__aeabi_dmul+0x1c2>
 80006f6:	f001 4600 	and.w	r6, r1, #2147483648	; 0x80000000
 80006fa:	0040      	lsls	r0, r0, #1
 80006fc:	eb41 0101 	adc.w	r1, r1, r1
 8000700:	f411 1f80 	tst.w	r1, #1048576	; 0x100000
 8000704:	bf08      	it	eq
 8000706:	3c01      	subeq	r4, #1
 8000708:	d0f7      	beq.n	80006fa <__aeabi_dmul+0x1a6>
 800070a:	ea41 0106 	orr.w	r1, r1, r6
 800070e:	f095 0f00 	teq	r5, #0
 8000712:	bf18      	it	ne
 8000714:	4770      	bxne	lr
 8000716:	f003 4600 	and.w	r6, r3, #2147483648	; 0x80000000
 800071a:	0052      	lsls	r2, r2, #1
 800071c:	eb43 0303 	adc.w	r3, r3, r3
 8000720:	f413 1f80 	tst.w	r3, #1048576	; 0x100000
 8000724:	bf08      	it	eq
 8000726:	3d01      	subeq	r5, #1
 8000728:	d0f7      	beq.n	800071a <__aeabi_dmul+0x1c6>
 800072a:	ea43 0306 	orr.w	r3, r3, r6
 800072e:	4770      	bx	lr
 8000730:	ea94 0f0c 	teq	r4, ip
 8000734:	ea0c 5513 	and.w	r5, ip, r3, lsr #20
 8000738:	bf18      	it	ne
 800073a:	ea95 0f0c 	teqne	r5, ip
 800073e:	d00c      	beq.n	800075a <__aeabi_dmul+0x206>
 8000740:	ea50 0641 	orrs.w	r6, r0, r1, lsl #1
 8000744:	bf18      	it	ne
 8000746:	ea52 0643 	orrsne.w	r6, r2, r3, lsl #1
 800074a:	d1d1      	bne.n	80006f0 <__aeabi_dmul+0x19c>
 800074c:	ea81 0103 	eor.w	r1, r1, r3
 8000750:	f001 4100 	and.w	r1, r1, #2147483648	; 0x80000000
 8000754:	f04f 0000 	mov.w	r0, #0
 8000758:	bd70      	pop	{r4, r5, r6, pc}
 800075a:	ea50 0641 	orrs.w	r6, r0, r1, lsl #1
 800075e:	bf06      	itte	eq
 8000760:	4610      	moveq	r0, r2
 8000762:	4619      	moveq	r1, r3
 8000764:	ea52 0643 	orrsne.w	r6, r2, r3, lsl #1
 8000768:	d019      	beq.n	800079e <__aeabi_dmul+0x24a>
 800076a:	ea94 0f0c 	teq	r4, ip
 800076e:	d102      	bne.n	8000776 <__aeabi_dmul+0x222>
 8000770:	ea50 3601 	orrs.w	r6, r0, r1, lsl #12
 8000774:	d113      	bne.n	800079e <__aeabi_dmul+0x24a>
 8000776:	ea95 0f0c 	teq	r5, ip
 800077a:	d105      	bne.n	8000788 <__aeabi_dmul+0x234>
 800077c:	ea52 3603 	orrs.w	r6, r2, r3, lsl #12
 8000780:	bf1c      	itt	ne
 8000782:	4610      	movne	r0, r2
 8000784:	4619      	movne	r1, r3
 8000786:	d10a      	bne.n	800079e <__aeabi_dmul+0x24a>
 8000788:	ea81 0103 	eor.w	r1, r1, r3
 800078c:	f001 4100 	and.w	r1, r1, #2147483648	; 0x80000000
 8000790:	f041 41fe 	orr.w	r1, r1, #2130706432	; 0x7f000000
 8000794:	f441 0170 	orr.w	r1, r1, #15728640	; 0xf00000
 8000798:	f04f 0000 	mov.w	r0, #0
 800079c:	bd70      	pop	{r4, r5, r6, pc}
 800079e:	f041 41fe 	orr.w	r1, r1, #2130706432	; 0x7f000000
 80007a2:	f441 0178 	orr.w	r1, r1, #16252928	; 0xf80000
 80007a6:	bd70      	pop	{r4, r5, r6, pc}

080007a8 <__aeabi_ddiv>:
 80007a8:	b570      	push	{r4, r5, r6, lr}
 80007aa:	f04f 0cff 	mov.w	ip, #255	; 0xff
 80007ae:	f44c 6ce0 	orr.w	ip, ip, #1792	; 0x700
 80007b2:	ea1c 5411 	ands.w	r4, ip, r1, lsr #20
 80007b6:	bf1d      	ittte	ne
 80007b8:	ea1c 5513 	andsne.w	r5, ip, r3, lsr #20
 80007bc:	ea94 0f0c 	teqne	r4, ip
 80007c0:	ea95 0f0c 	teqne	r5, ip
 80007c4:	f000 f8a7 	bleq	8000916 <__aeabi_ddiv+0x16e>
 80007c8:	eba4 0405 	sub.w	r4, r4, r5
 80007cc:	ea81 0e03 	eor.w	lr, r1, r3
 80007d0:	ea52 3503 	orrs.w	r5, r2, r3, lsl #12
 80007d4:	ea4f 3101 	mov.w	r1, r1, lsl #12
 80007d8:	f000 8088 	beq.w	80008ec <__aeabi_ddiv+0x144>
 80007dc:	ea4f 3303 	mov.w	r3, r3, lsl #12
 80007e0:	f04f 5580 	mov.w	r5, #268435456	; 0x10000000
 80007e4:	ea45 1313 	orr.w	r3, r5, r3, lsr #4
 80007e8:	ea43 6312 	orr.w	r3, r3, r2, lsr #24
 80007ec:	ea4f 2202 	mov.w	r2, r2, lsl #8
 80007f0:	ea45 1511 	orr.w	r5, r5, r1, lsr #4
 80007f4:	ea45 6510 	orr.w	r5, r5, r0, lsr #24
 80007f8:	ea4f 2600 	mov.w	r6, r0, lsl #8
 80007fc:	f00e 4100 	and.w	r1, lr, #2147483648	; 0x80000000
 8000800:	429d      	cmp	r5, r3
 8000802:	bf08      	it	eq
 8000804:	4296      	cmpeq	r6, r2
 8000806:	f144 04fd 	adc.w	r4, r4, #253	; 0xfd
 800080a:	f504 7440 	add.w	r4, r4, #768	; 0x300
 800080e:	d202      	bcs.n	8000816 <__aeabi_ddiv+0x6e>
 8000810:	085b      	lsrs	r3, r3, #1
 8000812:	ea4f 0232 	mov.w	r2, r2, rrx
 8000816:	1ab6      	subs	r6, r6, r2
 8000818:	eb65 0503 	sbc.w	r5, r5, r3
 800081c:	085b      	lsrs	r3, r3, #1
 800081e:	ea4f 0232 	mov.w	r2, r2, rrx
 8000822:	f44f 1080 	mov.w	r0, #1048576	; 0x100000
 8000826:	f44f 2c00 	mov.w	ip, #524288	; 0x80000
 800082a:	ebb6 0e02 	subs.w	lr, r6, r2
 800082e:	eb75 0e03 	sbcs.w	lr, r5, r3
 8000832:	bf22      	ittt	cs
 8000834:	1ab6      	subcs	r6, r6, r2
 8000836:	4675      	movcs	r5, lr
 8000838:	ea40 000c 	orrcs.w	r0, r0, ip
 800083c:	085b      	lsrs	r3, r3, #1
 800083e:	ea4f 0232 	mov.w	r2, r2, rrx
 8000842:	ebb6 0e02 	subs.w	lr, r6, r2
 8000846:	eb75 0e03 	sbcs.w	lr, r5, r3
 800084a:	bf22      	ittt	cs
 800084c:	1ab6      	subcs	r6, r6, r2
 800084e:	4675      	movcs	r5, lr
 8000850:	ea40 005c 	orrcs.w	r0, r0, ip, lsr #1
 8000854:	085b      	lsrs	r3, r3, #1
 8000856:	ea4f 0232 	mov.w	r2, r2, rrx
 800085a:	ebb6 0e02 	subs.w	lr, r6, r2
 800085e:	eb75 0e03 	sbcs.w	lr, r5, r3
 8000862:	bf22      	ittt	cs
 8000864:	1ab6      	subcs	r6, r6, r2
 8000866:	4675      	movcs	r5, lr
 8000868:	ea40 009c 	orrcs.w	r0, r0, ip, lsr #2
 800086c:	085b      	lsrs	r3, r3, #1
 800086e:	ea4f 0232 	mov.w	r2, r2, rrx
 8000872:	ebb6 0e02 	subs.w	lr, r6, r2
 8000876:	eb75 0e03 	sbcs.w	lr, r5, r3
 800087a:	bf22      	ittt	cs
 800087c:	1ab6      	subcs	r6, r6, r2
 800087e:	4675      	movcs	r5, lr
 8000880:	ea40 00dc 	orrcs.w	r0, r0, ip, lsr #3
 8000884:	ea55 0e06 	orrs.w	lr, r5, r6
 8000888:	d018      	beq.n	80008bc <__aeabi_ddiv+0x114>
 800088a:	ea4f 1505 	mov.w	r5, r5, lsl #4
 800088e:	ea45 7516 	orr.w	r5, r5, r6, lsr #28
 8000892:	ea4f 1606 	mov.w	r6, r6, lsl #4
 8000896:	ea4f 03c3 	mov.w	r3, r3, lsl #3
 800089a:	ea43 7352 	orr.w	r3, r3, r2, lsr #29
 800089e:	ea4f 02c2 	mov.w	r2, r2, lsl #3
 80008a2:	ea5f 1c1c 	movs.w	ip, ip, lsr #4
 80008a6:	d1c0      	bne.n	800082a <__aeabi_ddiv+0x82>
 80008a8:	f411 1f80 	tst.w	r1, #1048576	; 0x100000
 80008ac:	d10b      	bne.n	80008c6 <__aeabi_ddiv+0x11e>
 80008ae:	ea41 0100 	orr.w	r1, r1, r0
 80008b2:	f04f 0000 	mov.w	r0, #0
 80008b6:	f04f 4c00 	mov.w	ip, #2147483648	; 0x80000000
 80008ba:	e7b6      	b.n	800082a <__aeabi_ddiv+0x82>
 80008bc:	f411 1f80 	tst.w	r1, #1048576	; 0x100000
 80008c0:	bf04      	itt	eq
 80008c2:	4301      	orreq	r1, r0
 80008c4:	2000      	moveq	r0, #0
 80008c6:	f1b4 0cfd 	subs.w	ip, r4, #253	; 0xfd
 80008ca:	bf88      	it	hi
 80008cc:	f5bc 6fe0 	cmphi.w	ip, #1792	; 0x700
 80008d0:	f63f aeaf 	bhi.w	8000632 <__aeabi_dmul+0xde>
 80008d4:	ebb5 0c03 	subs.w	ip, r5, r3
 80008d8:	bf04      	itt	eq
 80008da:	ebb6 0c02 	subseq.w	ip, r6, r2
 80008de:	ea5f 0c50 	movseq.w	ip, r0, lsr #1
 80008e2:	f150 0000 	adcs.w	r0, r0, #0
 80008e6:	eb41 5104 	adc.w	r1, r1, r4, lsl #20
 80008ea:	bd70      	pop	{r4, r5, r6, pc}
 80008ec:	f00e 4e00 	and.w	lr, lr, #2147483648	; 0x80000000
 80008f0:	ea4e 3111 	orr.w	r1, lr, r1, lsr #12
 80008f4:	eb14 045c 	adds.w	r4, r4, ip, lsr #1
 80008f8:	bfc2      	ittt	gt
 80008fa:	ebd4 050c 	rsbsgt	r5, r4, ip
 80008fe:	ea41 5104 	orrgt.w	r1, r1, r4, lsl #20
 8000902:	bd70      	popgt	{r4, r5, r6, pc}
 8000904:	f441 1180 	orr.w	r1, r1, #1048576	; 0x100000
 8000908:	f04f 0e00 	mov.w	lr, #0
 800090c:	3c01      	subs	r4, #1
 800090e:	e690      	b.n	8000632 <__aeabi_dmul+0xde>
 8000910:	ea45 0e06 	orr.w	lr, r5, r6
 8000914:	e68d      	b.n	8000632 <__aeabi_dmul+0xde>
 8000916:	ea0c 5513 	and.w	r5, ip, r3, lsr #20
 800091a:	ea94 0f0c 	teq	r4, ip
 800091e:	bf08      	it	eq
 8000920:	ea95 0f0c 	teqeq	r5, ip
 8000924:	f43f af3b 	beq.w	800079e <__aeabi_dmul+0x24a>
 8000928:	ea94 0f0c 	teq	r4, ip
 800092c:	d10a      	bne.n	8000944 <__aeabi_ddiv+0x19c>
 800092e:	ea50 3401 	orrs.w	r4, r0, r1, lsl #12
 8000932:	f47f af34 	bne.w	800079e <__aeabi_dmul+0x24a>
 8000936:	ea95 0f0c 	teq	r5, ip
 800093a:	f47f af25 	bne.w	8000788 <__aeabi_dmul+0x234>
 800093e:	4610      	mov	r0, r2
 8000940:	4619      	mov	r1, r3
 8000942:	e72c      	b.n	800079e <__aeabi_dmul+0x24a>
 8000944:	ea95 0f0c 	teq	r5, ip
 8000948:	d106      	bne.n	8000958 <__aeabi_ddiv+0x1b0>
 800094a:	ea52 3503 	orrs.w	r5, r2, r3, lsl #12
 800094e:	f43f aefd 	beq.w	800074c <__aeabi_dmul+0x1f8>
 8000952:	4610      	mov	r0, r2
 8000954:	4619      	mov	r1, r3
 8000956:	e722      	b.n	800079e <__aeabi_dmul+0x24a>
 8000958:	ea50 0641 	orrs.w	r6, r0, r1, lsl #1
 800095c:	bf18      	it	ne
 800095e:	ea52 0643 	orrsne.w	r6, r2, r3, lsl #1
 8000962:	f47f aec5 	bne.w	80006f0 <__aeabi_dmul+0x19c>
 8000966:	ea50 0441 	orrs.w	r4, r0, r1, lsl #1
 800096a:	f47f af0d 	bne.w	8000788 <__aeabi_dmul+0x234>
 800096e:	ea52 0543 	orrs.w	r5, r2, r3, lsl #1
 8000972:	f47f aeeb 	bne.w	800074c <__aeabi_dmul+0x1f8>
 8000976:	e712      	b.n	800079e <__aeabi_dmul+0x24a>

08000978 <__aeabi_d2f>:
 8000978:	ea4f 0241 	mov.w	r2, r1, lsl #1
 800097c:	f1b2 43e0 	subs.w	r3, r2, #1879048192	; 0x70000000
 8000980:	bf24      	itt	cs
 8000982:	f5b3 1c00 	subscs.w	ip, r3, #2097152	; 0x200000
 8000986:	f1dc 5cfe 	rsbscs	ip, ip, #532676608	; 0x1fc00000
 800098a:	d90d      	bls.n	80009a8 <__aeabi_d2f+0x30>
 800098c:	f001 4c00 	and.w	ip, r1, #2147483648	; 0x80000000
 8000990:	ea4f 02c0 	mov.w	r2, r0, lsl #3
 8000994:	ea4c 7050 	orr.w	r0, ip, r0, lsr #29
 8000998:	f1b2 4f00 	cmp.w	r2, #2147483648	; 0x80000000
 800099c:	eb40 0083 	adc.w	r0, r0, r3, lsl #2
 80009a0:	bf08      	it	eq
 80009a2:	f020 0001 	biceq.w	r0, r0, #1
 80009a6:	4770      	bx	lr
 80009a8:	f011 4f80 	tst.w	r1, #1073741824	; 0x40000000
 80009ac:	d121      	bne.n	80009f2 <__aeabi_d2f+0x7a>
 80009ae:	f113 7238 	adds.w	r2, r3, #48234496	; 0x2e00000
 80009b2:	bfbc      	itt	lt
 80009b4:	f001 4000 	andlt.w	r0, r1, #2147483648	; 0x80000000
 80009b8:	4770      	bxlt	lr
 80009ba:	f441 1180 	orr.w	r1, r1, #1048576	; 0x100000
 80009be:	ea4f 5252 	mov.w	r2, r2, lsr #21
 80009c2:	f1c2 0218 	rsb	r2, r2, #24
 80009c6:	f1c2 0c20 	rsb	ip, r2, #32
 80009ca:	fa10 f30c 	lsls.w	r3, r0, ip
 80009ce:	fa20 f002 	lsr.w	r0, r0, r2
 80009d2:	bf18      	it	ne
 80009d4:	f040 0001 	orrne.w	r0, r0, #1
 80009d8:	ea4f 23c1 	mov.w	r3, r1, lsl #11
 80009dc:	ea4f 23d3 	mov.w	r3, r3, lsr #11
 80009e0:	fa03 fc0c 	lsl.w	ip, r3, ip
 80009e4:	ea40 000c 	orr.w	r0, r0, ip
 80009e8:	fa23 f302 	lsr.w	r3, r3, r2
 80009ec:	ea4f 0343 	mov.w	r3, r3, lsl #1
 80009f0:	e7cc      	b.n	800098c <__aeabi_d2f+0x14>
 80009f2:	ea7f 5362 	mvns.w	r3, r2, asr #21
 80009f6:	d107      	bne.n	8000a08 <__aeabi_d2f+0x90>
 80009f8:	ea50 3301 	orrs.w	r3, r0, r1, lsl #12
 80009fc:	bf1e      	ittt	ne
 80009fe:	f04f 40fe 	movne.w	r0, #2130706432	; 0x7f000000
 8000a02:	f440 0040 	orrne.w	r0, r0, #12582912	; 0xc00000
 8000a06:	4770      	bxne	lr
 8000a08:	f001 4000 	and.w	r0, r1, #2147483648	; 0x80000000
 8000a0c:	f040 40fe 	orr.w	r0, r0, #2130706432	; 0x7f000000
 8000a10:	f440 0000 	orr.w	r0, r0, #8388608	; 0x800000
 8000a14:	4770      	bx	lr
 8000a16:	bf00      	nop

08000a18 <__aeabi_frsub>:
 8000a18:	f080 4000 	eor.w	r0, r0, #2147483648	; 0x80000000
 8000a1c:	e002      	b.n	8000a24 <__addsf3>
 8000a1e:	bf00      	nop

08000a20 <__aeabi_fsub>:
 8000a20:	f081 4100 	eor.w	r1, r1, #2147483648	; 0x80000000

08000a24 <__addsf3>:
 8000a24:	0042      	lsls	r2, r0, #1
 8000a26:	bf1f      	itttt	ne
 8000a28:	ea5f 0341 	movsne.w	r3, r1, lsl #1
 8000a2c:	ea92 0f03 	teqne	r2, r3
 8000a30:	ea7f 6c22 	mvnsne.w	ip, r2, asr #24
 8000a34:	ea7f 6c23 	mvnsne.w	ip, r3, asr #24
 8000a38:	d06a      	beq.n	8000b10 <__addsf3+0xec>
 8000a3a:	ea4f 6212 	mov.w	r2, r2, lsr #24
 8000a3e:	ebd2 6313 	rsbs	r3, r2, r3, lsr #24
 8000a42:	bfc1      	itttt	gt
 8000a44:	18d2      	addgt	r2, r2, r3
 8000a46:	4041      	eorgt	r1, r0
 8000a48:	4048      	eorgt	r0, r1
 8000a4a:	4041      	eorgt	r1, r0
 8000a4c:	bfb8      	it	lt
 8000a4e:	425b      	neglt	r3, r3
 8000a50:	2b19      	cmp	r3, #25
 8000a52:	bf88      	it	hi
 8000a54:	4770      	bxhi	lr
 8000a56:	f010 4f00 	tst.w	r0, #2147483648	; 0x80000000
 8000a5a:	f440 0000 	orr.w	r0, r0, #8388608	; 0x800000
 8000a5e:	f020 407f 	bic.w	r0, r0, #4278190080	; 0xff000000
 8000a62:	bf18      	it	ne
 8000a64:	4240      	negne	r0, r0
 8000a66:	f011 4f00 	tst.w	r1, #2147483648	; 0x80000000
 8000a6a:	f441 0100 	orr.w	r1, r1, #8388608	; 0x800000
 8000a6e:	f021 417f 	bic.w	r1, r1, #4278190080	; 0xff000000
 8000a72:	bf18      	it	ne
 8000a74:	4249      	negne	r1, r1
 8000a76:	ea92 0f03 	teq	r2, r3
 8000a7a:	d03f      	beq.n	8000afc <__addsf3+0xd8>
 8000a7c:	f1a2 0201 	sub.w	r2, r2, #1
 8000a80:	fa41 fc03 	asr.w	ip, r1, r3
 8000a84:	eb10 000c 	adds.w	r0, r0, ip
 8000a88:	f1c3 0320 	rsb	r3, r3, #32
 8000a8c:	fa01 f103 	lsl.w	r1, r1, r3
 8000a90:	f000 4300 	and.w	r3, r0, #2147483648	; 0x80000000
 8000a94:	d502      	bpl.n	8000a9c <__addsf3+0x78>
 8000a96:	4249      	negs	r1, r1
 8000a98:	eb60 0040 	sbc.w	r0, r0, r0, lsl #1
 8000a9c:	f5b0 0f00 	cmp.w	r0, #8388608	; 0x800000
 8000aa0:	d313      	bcc.n	8000aca <__addsf3+0xa6>
 8000aa2:	f1b0 7f80 	cmp.w	r0, #16777216	; 0x1000000
 8000aa6:	d306      	bcc.n	8000ab6 <__addsf3+0x92>
 8000aa8:	0840      	lsrs	r0, r0, #1
 8000aaa:	ea4f 0131 	mov.w	r1, r1, rrx
 8000aae:	f102 0201 	add.w	r2, r2, #1
 8000ab2:	2afe      	cmp	r2, #254	; 0xfe
 8000ab4:	d251      	bcs.n	8000b5a <__addsf3+0x136>
 8000ab6:	f1b1 4f00 	cmp.w	r1, #2147483648	; 0x80000000
 8000aba:	eb40 50c2 	adc.w	r0, r0, r2, lsl #23
 8000abe:	bf08      	it	eq
 8000ac0:	f020 0001 	biceq.w	r0, r0, #1
 8000ac4:	ea40 0003 	orr.w	r0, r0, r3
 8000ac8:	4770      	bx	lr
 8000aca:	0049      	lsls	r1, r1, #1
 8000acc:	eb40 0000 	adc.w	r0, r0, r0
 8000ad0:	f410 0f00 	tst.w	r0, #8388608	; 0x800000
 8000ad4:	f1a2 0201 	sub.w	r2, r2, #1
 8000ad8:	d1ed      	bne.n	8000ab6 <__addsf3+0x92>
 8000ada:	fab0 fc80 	clz	ip, r0
 8000ade:	f1ac 0c08 	sub.w	ip, ip, #8
 8000ae2:	ebb2 020c 	subs.w	r2, r2, ip
 8000ae6:	fa00 f00c 	lsl.w	r0, r0, ip
 8000aea:	bfaa      	itet	ge
 8000aec:	eb00 50c2 	addge.w	r0, r0, r2, lsl #23
 8000af0:	4252      	neglt	r2, r2
 8000af2:	4318      	orrge	r0, r3
 8000af4:	bfbc      	itt	lt
 8000af6:	40d0      	lsrlt	r0, r2
 8000af8:	4318      	orrlt	r0, r3
 8000afa:	4770      	bx	lr
 8000afc:	f092 0f00 	teq	r2, #0
 8000b00:	f481 0100 	eor.w	r1, r1, #8388608	; 0x800000
 8000b04:	bf06      	itte	eq
 8000b06:	f480 0000 	eoreq.w	r0, r0, #8388608	; 0x800000
 8000b0a:	3201      	addeq	r2, #1
 8000b0c:	3b01      	subne	r3, #1
 8000b0e:	e7b5      	b.n	8000a7c <__addsf3+0x58>
 8000b10:	ea4f 0341 	mov.w	r3, r1, lsl #1
 8000b14:	ea7f 6c22 	mvns.w	ip, r2, asr #24
 8000b18:	bf18      	it	ne
 8000b1a:	ea7f 6c23 	mvnsne.w	ip, r3, asr #24
 8000b1e:	d021      	beq.n	8000b64 <__addsf3+0x140>
 8000b20:	ea92 0f03 	teq	r2, r3
 8000b24:	d004      	beq.n	8000b30 <__addsf3+0x10c>
 8000b26:	f092 0f00 	teq	r2, #0
 8000b2a:	bf08      	it	eq
 8000b2c:	4608      	moveq	r0, r1
 8000b2e:	4770      	bx	lr
 8000b30:	ea90 0f01 	teq	r0, r1
 8000b34:	bf1c      	itt	ne
 8000b36:	2000      	movne	r0, #0
 8000b38:	4770      	bxne	lr
 8000b3a:	f012 4f7f 	tst.w	r2, #4278190080	; 0xff000000
 8000b3e:	d104      	bne.n	8000b4a <__addsf3+0x126>
 8000b40:	0040      	lsls	r0, r0, #1
 8000b42:	bf28      	it	cs
 8000b44:	f040 4000 	orrcs.w	r0, r0, #2147483648	; 0x80000000
 8000b48:	4770      	bx	lr
 8000b4a:	f112 7200 	adds.w	r2, r2, #33554432	; 0x2000000
 8000b4e:	bf3c      	itt	cc
 8000b50:	f500 0000 	addcc.w	r0, r0, #8388608	; 0x800000
 8000b54:	4770      	bxcc	lr
 8000b56:	f000 4300 	and.w	r3, r0, #2147483648	; 0x80000000
 8000b5a:	f043 40fe 	orr.w	r0, r3, #2130706432	; 0x7f000000
 8000b5e:	f440 0000 	orr.w	r0, r0, #8388608	; 0x800000
 8000b62:	4770      	bx	lr
 8000b64:	ea7f 6222 	mvns.w	r2, r2, asr #24
 8000b68:	bf16      	itet	ne
 8000b6a:	4608      	movne	r0, r1
 8000b6c:	ea7f 6323 	mvnseq.w	r3, r3, asr #24
 8000b70:	4601      	movne	r1, r0
 8000b72:	0242      	lsls	r2, r0, #9
 8000b74:	bf06      	itte	eq
 8000b76:	ea5f 2341 	movseq.w	r3, r1, lsl #9
 8000b7a:	ea90 0f01 	teqeq	r0, r1
 8000b7e:	f440 0080 	orrne.w	r0, r0, #4194304	; 0x400000
 8000b82:	4770      	bx	lr

08000b84 <__aeabi_ui2f>:
 8000b84:	f04f 0300 	mov.w	r3, #0
 8000b88:	e004      	b.n	8000b94 <__aeabi_i2f+0x8>
 8000b8a:	bf00      	nop

08000b8c <__aeabi_i2f>:
 8000b8c:	f010 4300 	ands.w	r3, r0, #2147483648	; 0x80000000
 8000b90:	bf48      	it	mi
 8000b92:	4240      	negmi	r0, r0
 8000b94:	ea5f 0c00 	movs.w	ip, r0
 8000b98:	bf08      	it	eq
 8000b9a:	4770      	bxeq	lr
 8000b9c:	f043 4396 	orr.w	r3, r3, #1258291200	; 0x4b000000
 8000ba0:	4601      	mov	r1, r0
 8000ba2:	f04f 0000 	mov.w	r0, #0
 8000ba6:	e01c      	b.n	8000be2 <__aeabi_l2f+0x2a>

08000ba8 <__aeabi_ul2f>:
 8000ba8:	ea50 0201 	orrs.w	r2, r0, r1
 8000bac:	bf08      	it	eq
 8000bae:	4770      	bxeq	lr
 8000bb0:	f04f 0300 	mov.w	r3, #0
 8000bb4:	e00a      	b.n	8000bcc <__aeabi_l2f+0x14>
 8000bb6:	bf00      	nop

08000bb8 <__aeabi_l2f>:
 8000bb8:	ea50 0201 	orrs.w	r2, r0, r1
 8000bbc:	bf08      	it	eq
 8000bbe:	4770      	bxeq	lr
 8000bc0:	f011 4300 	ands.w	r3, r1, #2147483648	; 0x80000000
 8000bc4:	d502      	bpl.n	8000bcc <__aeabi_l2f+0x14>
 8000bc6:	4240      	negs	r0, r0
 8000bc8:	eb61 0141 	sbc.w	r1, r1, r1, lsl #1
 8000bcc:	ea5f 0c01 	movs.w	ip, r1
 8000bd0:	bf02      	ittt	eq
 8000bd2:	4684      	moveq	ip, r0
 8000bd4:	4601      	moveq	r1, r0
 8000bd6:	2000      	moveq	r0, #0
 8000bd8:	f043 43b6 	orr.w	r3, r3, #1526726656	; 0x5b000000
 8000bdc:	bf08      	it	eq
 8000bde:	f1a3 5380 	subeq.w	r3, r3, #268435456	; 0x10000000
 8000be2:	f5a3 0300 	sub.w	r3, r3, #8388608	; 0x800000
 8000be6:	fabc f28c 	clz	r2, ip
 8000bea:	3a08      	subs	r2, #8
 8000bec:	eba3 53c2 	sub.w	r3, r3, r2, lsl #23
 8000bf0:	db10      	blt.n	8000c14 <__aeabi_l2f+0x5c>
 8000bf2:	fa01 fc02 	lsl.w	ip, r1, r2
 8000bf6:	4463      	add	r3, ip
 8000bf8:	fa00 fc02 	lsl.w	ip, r0, r2
 8000bfc:	f1c2 0220 	rsb	r2, r2, #32
 8000c00:	f1bc 4f00 	cmp.w	ip, #2147483648	; 0x80000000
 8000c04:	fa20 f202 	lsr.w	r2, r0, r2
 8000c08:	eb43 0002 	adc.w	r0, r3, r2
 8000c0c:	bf08      	it	eq
 8000c0e:	f020 0001 	biceq.w	r0, r0, #1
 8000c12:	4770      	bx	lr
 8000c14:	f102 0220 	add.w	r2, r2, #32
 8000c18:	fa01 fc02 	lsl.w	ip, r1, r2
 8000c1c:	f1c2 0220 	rsb	r2, r2, #32
 8000c20:	ea50 004c 	orrs.w	r0, r0, ip, lsl #1
 8000c24:	fa21 f202 	lsr.w	r2, r1, r2
 8000c28:	eb43 0002 	adc.w	r0, r3, r2
 8000c2c:	bf08      	it	eq
 8000c2e:	ea20 70dc 	biceq.w	r0, r0, ip, lsr #31
 8000c32:	4770      	bx	lr

08000c34 <__aeabi_fmul>:
 8000c34:	f04f 0cff 	mov.w	ip, #255	; 0xff
 8000c38:	ea1c 52d0 	ands.w	r2, ip, r0, lsr #23
 8000c3c:	bf1e      	ittt	ne
 8000c3e:	ea1c 53d1 	andsne.w	r3, ip, r1, lsr #23
 8000c42:	ea92 0f0c 	teqne	r2, ip
 8000c46:	ea93 0f0c 	teqne	r3, ip
 8000c4a:	d06f      	beq.n	8000d2c <__aeabi_fmul+0xf8>
 8000c4c:	441a      	add	r2, r3
 8000c4e:	ea80 0c01 	eor.w	ip, r0, r1
 8000c52:	0240      	lsls	r0, r0, #9
 8000c54:	bf18      	it	ne
 8000c56:	ea5f 2141 	movsne.w	r1, r1, lsl #9
 8000c5a:	d01e      	beq.n	8000c9a <__aeabi_fmul+0x66>
 8000c5c:	f04f 6300 	mov.w	r3, #134217728	; 0x8000000
 8000c60:	ea43 1050 	orr.w	r0, r3, r0, lsr #5
 8000c64:	ea43 1151 	orr.w	r1, r3, r1, lsr #5
 8000c68:	fba0 3101 	umull	r3, r1, r0, r1
 8000c6c:	f00c 4000 	and.w	r0, ip, #2147483648	; 0x80000000
 8000c70:	f5b1 0f00 	cmp.w	r1, #8388608	; 0x800000
 8000c74:	bf3e      	ittt	cc
 8000c76:	0049      	lslcc	r1, r1, #1
 8000c78:	ea41 71d3 	orrcc.w	r1, r1, r3, lsr #31
 8000c7c:	005b      	lslcc	r3, r3, #1
 8000c7e:	ea40 0001 	orr.w	r0, r0, r1
 8000c82:	f162 027f 	sbc.w	r2, r2, #127	; 0x7f
 8000c86:	2afd      	cmp	r2, #253	; 0xfd
 8000c88:	d81d      	bhi.n	8000cc6 <__aeabi_fmul+0x92>
 8000c8a:	f1b3 4f00 	cmp.w	r3, #2147483648	; 0x80000000
 8000c8e:	eb40 50c2 	adc.w	r0, r0, r2, lsl #23
 8000c92:	bf08      	it	eq
 8000c94:	f020 0001 	biceq.w	r0, r0, #1
 8000c98:	4770      	bx	lr
 8000c9a:	f090 0f00 	teq	r0, #0
 8000c9e:	f00c 4c00 	and.w	ip, ip, #2147483648	; 0x80000000
 8000ca2:	bf08      	it	eq
 8000ca4:	0249      	lsleq	r1, r1, #9
 8000ca6:	ea4c 2050 	orr.w	r0, ip, r0, lsr #9
 8000caa:	ea40 2051 	orr.w	r0, r0, r1, lsr #9
 8000cae:	3a7f      	subs	r2, #127	; 0x7f
 8000cb0:	bfc2      	ittt	gt
 8000cb2:	f1d2 03ff 	rsbsgt	r3, r2, #255	; 0xff
 8000cb6:	ea40 50c2 	orrgt.w	r0, r0, r2, lsl #23
 8000cba:	4770      	bxgt	lr
 8000cbc:	f440 0000 	orr.w	r0, r0, #8388608	; 0x800000
 8000cc0:	f04f 0300 	mov.w	r3, #0
 8000cc4:	3a01      	subs	r2, #1
 8000cc6:	dc5d      	bgt.n	8000d84 <__aeabi_fmul+0x150>
 8000cc8:	f112 0f19 	cmn.w	r2, #25
 8000ccc:	bfdc      	itt	le
 8000cce:	f000 4000 	andle.w	r0, r0, #2147483648	; 0x80000000
 8000cd2:	4770      	bxle	lr
 8000cd4:	f1c2 0200 	rsb	r2, r2, #0
 8000cd8:	0041      	lsls	r1, r0, #1
 8000cda:	fa21 f102 	lsr.w	r1, r1, r2
 8000cde:	f1c2 0220 	rsb	r2, r2, #32
 8000ce2:	fa00 fc02 	lsl.w	ip, r0, r2
 8000ce6:	ea5f 0031 	movs.w	r0, r1, rrx
 8000cea:	f140 0000 	adc.w	r0, r0, #0
 8000cee:	ea53 034c 	orrs.w	r3, r3, ip, lsl #1
 8000cf2:	bf08      	it	eq
 8000cf4:	ea20 70dc 	biceq.w	r0, r0, ip, lsr #31
 8000cf8:	4770      	bx	lr
 8000cfa:	f092 0f00 	teq	r2, #0
 8000cfe:	f000 4c00 	and.w	ip, r0, #2147483648	; 0x80000000
 8000d02:	bf02      	ittt	eq
 8000d04:	0040      	lsleq	r0, r0, #1
 8000d06:	f410 0f00 	tsteq.w	r0, #8388608	; 0x800000
 8000d0a:	3a01      	subeq	r2, #1
 8000d0c:	d0f9      	beq.n	8000d02 <__aeabi_fmul+0xce>
 8000d0e:	ea40 000c 	orr.w	r0, r0, ip
 8000d12:	f093 0f00 	teq	r3, #0
 8000d16:	f001 4c00 	and.w	ip, r1, #2147483648	; 0x80000000
 8000d1a:	bf02      	ittt	eq
 8000d1c:	0049      	lsleq	r1, r1, #1
 8000d1e:	f411 0f00 	tsteq.w	r1, #8388608	; 0x800000
 8000d22:	3b01      	subeq	r3, #1
 8000d24:	d0f9      	beq.n	8000d1a <__aeabi_fmul+0xe6>
 8000d26:	ea41 010c 	orr.w	r1, r1, ip
 8000d2a:	e78f      	b.n	8000c4c <__aeabi_fmul+0x18>
 8000d2c:	ea0c 53d1 	and.w	r3, ip, r1, lsr #23
 8000d30:	ea92 0f0c 	teq	r2, ip
 8000d34:	bf18      	it	ne
 8000d36:	ea93 0f0c 	teqne	r3, ip
 8000d3a:	d00a      	beq.n	8000d52 <__aeabi_fmul+0x11e>
 8000d3c:	f030 4c00 	bics.w	ip, r0, #2147483648	; 0x80000000
 8000d40:	bf18      	it	ne
 8000d42:	f031 4c00 	bicsne.w	ip, r1, #2147483648	; 0x80000000
 8000d46:	d1d8      	bne.n	8000cfa <__aeabi_fmul+0xc6>
 8000d48:	ea80 0001 	eor.w	r0, r0, r1
 8000d4c:	f000 4000 	and.w	r0, r0, #2147483648	; 0x80000000
 8000d50:	4770      	bx	lr
 8000d52:	f090 0f00 	teq	r0, #0
 8000d56:	bf17      	itett	ne
 8000d58:	f090 4f00 	teqne	r0, #2147483648	; 0x80000000
 8000d5c:	4608      	moveq	r0, r1
 8000d5e:	f091 0f00 	teqne	r1, #0
 8000d62:	f091 4f00 	teqne	r1, #2147483648	; 0x80000000
 8000d66:	d014      	beq.n	8000d92 <__aeabi_fmul+0x15e>
 8000d68:	ea92 0f0c 	teq	r2, ip
 8000d6c:	d101      	bne.n	8000d72 <__aeabi_fmul+0x13e>
 8000d6e:	0242      	lsls	r2, r0, #9
 8000d70:	d10f      	bne.n	8000d92 <__aeabi_fmul+0x15e>
 8000d72:	ea93 0f0c 	teq	r3, ip
 8000d76:	d103      	bne.n	8000d80 <__aeabi_fmul+0x14c>
 8000d78:	024b      	lsls	r3, r1, #9
 8000d7a:	bf18      	it	ne
 8000d7c:	4608      	movne	r0, r1
 8000d7e:	d108      	bne.n	8000d92 <__aeabi_fmul+0x15e>
 8000d80:	ea80 0001 	eor.w	r0, r0, r1
 8000d84:	f000 4000 	and.w	r0, r0, #2147483648	; 0x80000000
 8000d88:	f040 40fe 	orr.w	r0, r0, #2130706432	; 0x7f000000
 8000d8c:	f440 0000 	orr.w	r0, r0, #8388608	; 0x800000
 8000d90:	4770      	bx	lr
 8000d92:	f040 40fe 	orr.w	r0, r0, #2130706432	; 0x7f000000
 8000d96:	f440 0040 	orr.w	r0, r0, #12582912	; 0xc00000
 8000d9a:	4770      	bx	lr

08000d9c <__aeabi_fdiv>:
 8000d9c:	f04f 0cff 	mov.w	ip, #255	; 0xff
 8000da0:	ea1c 52d0 	ands.w	r2, ip, r0, lsr #23
 8000da4:	bf1e      	ittt	ne
 8000da6:	ea1c 53d1 	andsne.w	r3, ip, r1, lsr #23
 8000daa:	ea92 0f0c 	teqne	r2, ip
 8000dae:	ea93 0f0c 	teqne	r3, ip
 8000db2:	d069      	beq.n	8000e88 <__aeabi_fdiv+0xec>
 8000db4:	eba2 0203 	sub.w	r2, r2, r3
 8000db8:	ea80 0c01 	eor.w	ip, r0, r1
 8000dbc:	0249      	lsls	r1, r1, #9
 8000dbe:	ea4f 2040 	mov.w	r0, r0, lsl #9
 8000dc2:	d037      	beq.n	8000e34 <__aeabi_fdiv+0x98>
 8000dc4:	f04f 5380 	mov.w	r3, #268435456	; 0x10000000
 8000dc8:	ea43 1111 	orr.w	r1, r3, r1, lsr #4
 8000dcc:	ea43 1310 	orr.w	r3, r3, r0, lsr #4
 8000dd0:	f00c 4000 	and.w	r0, ip, #2147483648	; 0x80000000
 8000dd4:	428b      	cmp	r3, r1
 8000dd6:	bf38      	it	cc
 8000dd8:	005b      	lslcc	r3, r3, #1
 8000dda:	f142 027d 	adc.w	r2, r2, #125	; 0x7d
 8000dde:	f44f 0c00 	mov.w	ip, #8388608	; 0x800000
 8000de2:	428b      	cmp	r3, r1
 8000de4:	bf24      	itt	cs
 8000de6:	1a5b      	subcs	r3, r3, r1
 8000de8:	ea40 000c 	orrcs.w	r0, r0, ip
 8000dec:	ebb3 0f51 	cmp.w	r3, r1, lsr #1
 8000df0:	bf24      	itt	cs
 8000df2:	eba3 0351 	subcs.w	r3, r3, r1, lsr #1
 8000df6:	ea40 005c 	orrcs.w	r0, r0, ip, lsr #1
 8000dfa:	ebb3 0f91 	cmp.w	r3, r1, lsr #2
 8000dfe:	bf24      	itt	cs
 8000e00:	eba3 0391 	subcs.w	r3, r3, r1, lsr #2
 8000e04:	ea40 009c 	orrcs.w	r0, r0, ip, lsr #2
 8000e08:	ebb3 0fd1 	cmp.w	r3, r1, lsr #3
 8000e0c:	bf24      	itt	cs
 8000e0e:	eba3 03d1 	subcs.w	r3, r3, r1, lsr #3
 8000e12:	ea40 00dc 	orrcs.w	r0, r0, ip, lsr #3
 8000e16:	011b      	lsls	r3, r3, #4
 8000e18:	bf18      	it	ne
 8000e1a:	ea5f 1c1c 	movsne.w	ip, ip, lsr #4
 8000e1e:	d1e0      	bne.n	8000de2 <__aeabi_fdiv+0x46>
 8000e20:	2afd      	cmp	r2, #253	; 0xfd
 8000e22:	f63f af50 	bhi.w	8000cc6 <__aeabi_fmul+0x92>
 8000e26:	428b      	cmp	r3, r1
 8000e28:	eb40 50c2 	adc.w	r0, r0, r2, lsl #23
 8000e2c:	bf08      	it	eq
 8000e2e:	f020 0001 	biceq.w	r0, r0, #1
 8000e32:	4770      	bx	lr
 8000e34:	f00c 4c00 	and.w	ip, ip, #2147483648	; 0x80000000
 8000e38:	ea4c 2050 	orr.w	r0, ip, r0, lsr #9
 8000e3c:	327f      	adds	r2, #127	; 0x7f
 8000e3e:	bfc2      	ittt	gt
 8000e40:	f1d2 03ff 	rsbsgt	r3, r2, #255	; 0xff
 8000e44:	ea40 50c2 	orrgt.w	r0, r0, r2, lsl #23
 8000e48:	4770      	bxgt	lr
 8000e4a:	f440 0000 	orr.w	r0, r0, #8388608	; 0x800000
 8000e4e:	f04f 0300 	mov.w	r3, #0
 8000e52:	3a01      	subs	r2, #1
 8000e54:	e737      	b.n	8000cc6 <__aeabi_fmul+0x92>
 8000e56:	f092 0f00 	teq	r2, #0
 8000e5a:	f000 4c00 	and.w	ip, r0, #2147483648	; 0x80000000
 8000e5e:	bf02      	ittt	eq
 8000e60:	0040      	lsleq	r0, r0, #1
 8000e62:	f410 0f00 	tsteq.w	r0, #8388608	; 0x800000
 8000e66:	3a01      	subeq	r2, #1
 8000e68:	d0f9      	beq.n	8000e5e <__aeabi_fdiv+0xc2>
 8000e6a:	ea40 000c 	orr.w	r0, r0, ip
 8000e6e:	f093 0f00 	teq	r3, #0
 8000e72:	f001 4c00 	and.w	ip, r1, #2147483648	; 0x80000000
 8000e76:	bf02      	ittt	eq
 8000e78:	0049      	lsleq	r1, r1, #1
 8000e7a:	f411 0f00 	tsteq.w	r1, #8388608	; 0x800000
 8000e7e:	3b01      	subeq	r3, #1
 8000e80:	d0f9      	beq.n	8000e76 <__aeabi_fdiv+0xda>
 8000e82:	ea41 010c 	orr.w	r1, r1, ip
 8000e86:	e795      	b.n	8000db4 <__aeabi_fdiv+0x18>
 8000e88:	ea0c 53d1 	and.w	r3, ip, r1, lsr #23
 8000e8c:	ea92 0f0c 	teq	r2, ip
 8000e90:	d108      	bne.n	8000ea4 <__aeabi_fdiv+0x108>
 8000e92:	0242      	lsls	r2, r0, #9
 8000e94:	f47f af7d 	bne.w	8000d92 <__aeabi_fmul+0x15e>
 8000e98:	ea93 0f0c 	teq	r3, ip
 8000e9c:	f47f af70 	bne.w	8000d80 <__aeabi_fmul+0x14c>
 8000ea0:	4608      	mov	r0, r1
 8000ea2:	e776      	b.n	8000d92 <__aeabi_fmul+0x15e>
 8000ea4:	ea93 0f0c 	teq	r3, ip
 8000ea8:	d104      	bne.n	8000eb4 <__aeabi_fdiv+0x118>
 8000eaa:	024b      	lsls	r3, r1, #9
 8000eac:	f43f af4c 	beq.w	8000d48 <__aeabi_fmul+0x114>
 8000eb0:	4608      	mov	r0, r1
 8000eb2:	e76e      	b.n	8000d92 <__aeabi_fmul+0x15e>
 8000eb4:	f030 4c00 	bics.w	ip, r0, #2147483648	; 0x80000000
 8000eb8:	bf18      	it	ne
 8000eba:	f031 4c00 	bicsne.w	ip, r1, #2147483648	; 0x80000000
 8000ebe:	d1ca      	bne.n	8000e56 <__aeabi_fdiv+0xba>
 8000ec0:	f030 4200 	bics.w	r2, r0, #2147483648	; 0x80000000
 8000ec4:	f47f af5c 	bne.w	8000d80 <__aeabi_fmul+0x14c>
 8000ec8:	f031 4300 	bics.w	r3, r1, #2147483648	; 0x80000000
 8000ecc:	f47f af3c 	bne.w	8000d48 <__aeabi_fmul+0x114>
 8000ed0:	e75f      	b.n	8000d92 <__aeabi_fmul+0x15e>
 8000ed2:	bf00      	nop

08000ed4 <__aeabi_f2uiz>:
 8000ed4:	0042      	lsls	r2, r0, #1
 8000ed6:	d20e      	bcs.n	8000ef6 <__aeabi_f2uiz+0x22>
 8000ed8:	f1b2 4ffe 	cmp.w	r2, #2130706432	; 0x7f000000
 8000edc:	d30b      	bcc.n	8000ef6 <__aeabi_f2uiz+0x22>
 8000ede:	f04f 039e 	mov.w	r3, #158	; 0x9e
 8000ee2:	ebb3 6212 	subs.w	r2, r3, r2, lsr #24
 8000ee6:	d409      	bmi.n	8000efc <__aeabi_f2uiz+0x28>
 8000ee8:	ea4f 2300 	mov.w	r3, r0, lsl #8
 8000eec:	f043 4300 	orr.w	r3, r3, #2147483648	; 0x80000000
 8000ef0:	fa23 f002 	lsr.w	r0, r3, r2
 8000ef4:	4770      	bx	lr
 8000ef6:	f04f 0000 	mov.w	r0, #0
 8000efa:	4770      	bx	lr
 8000efc:	f112 0f61 	cmn.w	r2, #97	; 0x61
 8000f00:	d101      	bne.n	8000f06 <__aeabi_f2uiz+0x32>
 8000f02:	0242      	lsls	r2, r0, #9
 8000f04:	d102      	bne.n	8000f0c <__aeabi_f2uiz+0x38>
 8000f06:	f04f 30ff 	mov.w	r0, #4294967295
 8000f0a:	4770      	bx	lr
 8000f0c:	f04f 0000 	mov.w	r0, #0
 8000f10:	4770      	bx	lr
 8000f12:	bf00      	nop

08000f14 <vApplicationGetIdleTaskMemory>:
/* USER CODE BEGIN GET_IDLE_TASK_MEMORY */
static StaticTask_t xIdleTaskTCBBuffer;
static StackType_t xIdleStack[configMINIMAL_STACK_SIZE];
  
void vApplicationGetIdleTaskMemory( StaticTask_t **ppxIdleTaskTCBBuffer, StackType_t **ppxIdleTaskStackBuffer, uint32_t *pulIdleTaskStackSize )
{
 8000f14:	b480      	push	{r7}
 8000f16:	b085      	sub	sp, #20
 8000f18:	af00      	add	r7, sp, #0
 8000f1a:	60f8      	str	r0, [r7, #12]
 8000f1c:	60b9      	str	r1, [r7, #8]
 8000f1e:	607a      	str	r2, [r7, #4]
  *ppxIdleTaskTCBBuffer = &xIdleTaskTCBBuffer;
 8000f20:	68fb      	ldr	r3, [r7, #12]
 8000f22:	4a06      	ldr	r2, [pc, #24]	; (8000f3c <vApplicationGetIdleTaskMemory+0x28>)
 8000f24:	601a      	str	r2, [r3, #0]
  *ppxIdleTaskStackBuffer = &xIdleStack[0];
 8000f26:	68bb      	ldr	r3, [r7, #8]
 8000f28:	4a05      	ldr	r2, [pc, #20]	; (8000f40 <vApplicationGetIdleTaskMemory+0x2c>)
 8000f2a:	601a      	str	r2, [r3, #0]
  *pulIdleTaskStackSize = configMINIMAL_STACK_SIZE;
 8000f2c:	687b      	ldr	r3, [r7, #4]
 8000f2e:	2280      	movs	r2, #128	; 0x80
 8000f30:	601a      	str	r2, [r3, #0]
  /* place for user code */
}                   
 8000f32:	bf00      	nop
 8000f34:	3714      	adds	r7, #20
 8000f36:	46bd      	mov	sp, r7
 8000f38:	bc80      	pop	{r7}
 8000f3a:	4770      	bx	lr
 8000f3c:	2000002c 	.word	0x2000002c
 8000f40:	20000080 	.word	0x20000080

08000f44 <main>:

/**
 * @brief  The application entry point.
 * @retval int
 */
int main(void) {
 8000f44:	b580      	push	{r7, lr}
 8000f46:	b082      	sub	sp, #8
 8000f48:	af02      	add	r7, sp, #8
  \details Enables IRQ interrupts by clearing the I-bit in the CPSR.
           Can only be executed in Privileged modes.
 */
__STATIC_FORCEINLINE void __enable_irq(void)
{
  __ASM volatile ("cpsie i" : : : "memory");
 8000f4a:	b662      	cpsie	i
	/* MCU Configuration--------------------------------------------------------*/
	__enable_irq();
	/* Reset of all peripherals, Initializes the Flash interface and the Systick. */
	HAL_Init();
 8000f4c:	f001 f8ec 	bl	8002128 <HAL_Init>

	HAL_Delay(2000);
 8000f50:	f44f 60fa 	mov.w	r0, #2000	; 0x7d0
 8000f54:	f001 f91a 	bl	800218c <HAL_Delay>
	/* Configure the system clock */
	SystemClock_Config();
 8000f58:	f000 f848 	bl	8000fec <SystemClock_Config>

	/* Initialize all configured peripherals */
	MX_GPIO_Init();
 8000f5c:	f000 f98e 	bl	800127c <MX_GPIO_Init>
	MX_DMA_Init();
 8000f60:	f000 f96e 	bl	8001240 <MX_DMA_Init>
	MX_ADC1_Init();
 8000f64:	f000 f89e 	bl	80010a4 <MX_ADC1_Init>
	MX_CAN_Init();
 8000f68:	f000 f906 	bl	8001178 <MX_CAN_Init>

	/* USER CODE BEGIN 0 */
	MX_I2C2_Init();
 8000f6c:	f000 f93a 	bl	80011e4 <MX_I2C2_Init>

	DWT_CTRL |= (1 << 0);
 8000f70:	4b17      	ldr	r3, [pc, #92]	; (8000fd0 <main+0x8c>)
 8000f72:	681b      	ldr	r3, [r3, #0]
 8000f74:	4a16      	ldr	r2, [pc, #88]	; (8000fd0 <main+0x8c>)
 8000f76:	f043 0301 	orr.w	r3, r3, #1
 8000f7a:	6013      	str	r3, [r2, #0]

	//OD = Flash_Read_NUM(0x0801FC00);

	CAN_Filter_Config();
 8000f7c:	f000 fa62 	bl	8001444 <CAN_Filter_Config>

	if (HAL_CAN_ActivateNotification(&hcan,
 8000f80:	f240 4101 	movw	r1, #1025	; 0x401
 8000f84:	4813      	ldr	r0, [pc, #76]	; (8000fd4 <main+0x90>)
 8000f86:	f001 ffc1 	bl	8002f0c <HAL_CAN_ActivateNotification>
 8000f8a:	4603      	mov	r3, r0
 8000f8c:	2b00      	cmp	r3, #0
 8000f8e:	d001      	beq.n	8000f94 <main+0x50>
	CAN_IT_TX_MAILBOX_EMPTY /*| CAN_IT_RX_FIFO0_MSG_PENDING*/| CAN_IT_BUSOFF)
			!= HAL_OK) {
		Error_Handler();
 8000f90:	f000 fe6c 	bl	8001c6c <Error_Handler>
	}

	if (HAL_CAN_Start(&hcan)) {
 8000f94:	480f      	ldr	r0, [pc, #60]	; (8000fd4 <main+0x90>)
 8000f96:	f001 fe9b 	bl	8002cd0 <HAL_CAN_Start>
 8000f9a:	4603      	mov	r3, r0
 8000f9c:	2b00      	cmp	r3, #0
 8000f9e:	d001      	beq.n	8000fa4 <main+0x60>
		Error_Handler();
 8000fa0:	f000 fe64 	bl	8001c6c <Error_Handler>
	}

	HAL_ADC_Start_DMA(&hadc1, (uint32_t*) analog, 4);
 8000fa4:	2204      	movs	r2, #4
 8000fa6:	490c      	ldr	r1, [pc, #48]	; (8000fd8 <main+0x94>)
 8000fa8:	480c      	ldr	r0, [pc, #48]	; (8000fdc <main+0x98>)
 8000faa:	f001 f9e9 	bl	8002380 <HAL_ADC_Start_DMA>

	//SEGGER_SYSVIEW_Conf();
	//SEGGER_SYSVIEW_Start();

	xTaskCreate(Start_taskF, "StartTask", 128, NULL, 7, &Start_Task);
 8000fae:	4b0c      	ldr	r3, [pc, #48]	; (8000fe0 <main+0x9c>)
 8000fb0:	9301      	str	r3, [sp, #4]
 8000fb2:	2307      	movs	r3, #7
 8000fb4:	9300      	str	r3, [sp, #0]
 8000fb6:	2300      	movs	r3, #0
 8000fb8:	2280      	movs	r2, #128	; 0x80
 8000fba:	490a      	ldr	r1, [pc, #40]	; (8000fe4 <main+0xa0>)
 8000fbc:	480a      	ldr	r0, [pc, #40]	; (8000fe8 <main+0xa4>)
 8000fbe:	f004 fc8a 	bl	80058d6 <xTaskCreate>

	vTaskStartScheduler();
 8000fc2:	f004 ff25 	bl	8005e10 <vTaskStartScheduler>
	/* USER CODE END 0 */

	/* We should never get here as control is now taken by the scheduler */
	/* Infinite loop */
	while (1) {
		HAL_Delay(1); /*JUST IN CASE*/
 8000fc6:	2001      	movs	r0, #1
 8000fc8:	f001 f8e0 	bl	800218c <HAL_Delay>
 8000fcc:	e7fb      	b.n	8000fc6 <main+0x82>
 8000fce:	bf00      	nop
 8000fd0:	e0001000 	.word	0xe0001000
 8000fd4:	20002210 	.word	0x20002210
 8000fd8:	200021a4 	.word	0x200021a4
 8000fdc:	20002240 	.word	0x20002240
 8000fe0:	200022c0 	.word	0x200022c0
 8000fe4:	0800846c 	.word	0x0800846c
 8000fe8:	08001491 	.word	0x08001491

08000fec <SystemClock_Config>:

/**
 * @brief System Clock Configuration
 * @retval None
 */
void SystemClock_Config(void) {
 8000fec:	b580      	push	{r7, lr}
 8000fee:	b094      	sub	sp, #80	; 0x50
 8000ff0:	af00      	add	r7, sp, #0
	RCC_OscInitTypeDef RCC_OscInitStruct = { 0 };
 8000ff2:	f107 0328 	add.w	r3, r7, #40	; 0x28
 8000ff6:	2228      	movs	r2, #40	; 0x28
 8000ff8:	2100      	movs	r1, #0
 8000ffa:	4618      	mov	r0, r3
 8000ffc:	f007 fa22 	bl	8008444 <memset>
	RCC_ClkInitTypeDef RCC_ClkInitStruct = { 0 };
 8001000:	f107 0314 	add.w	r3, r7, #20
 8001004:	2200      	movs	r2, #0
 8001006:	601a      	str	r2, [r3, #0]
 8001008:	605a      	str	r2, [r3, #4]
 800100a:	609a      	str	r2, [r3, #8]
 800100c:	60da      	str	r2, [r3, #12]
 800100e:	611a      	str	r2, [r3, #16]
	RCC_PeriphCLKInitTypeDef PeriphClkInit = { 0 };
 8001010:	1d3b      	adds	r3, r7, #4
 8001012:	2200      	movs	r2, #0
 8001014:	601a      	str	r2, [r3, #0]
 8001016:	605a      	str	r2, [r3, #4]
 8001018:	609a      	str	r2, [r3, #8]
 800101a:	60da      	str	r2, [r3, #12]

	/** Initializes the CPU, AHB and APB busses clocks
	 */
	RCC_OscInitStruct.OscillatorType = RCC_OSCILLATORTYPE_HSE;
 800101c:	2301      	movs	r3, #1
 800101e:	62bb      	str	r3, [r7, #40]	; 0x28
	RCC_OscInitStruct.HSEState = RCC_HSE_ON;
 8001020:	f44f 3380 	mov.w	r3, #65536	; 0x10000
 8001024:	62fb      	str	r3, [r7, #44]	; 0x2c
	RCC_OscInitStruct.HSEPredivValue = RCC_HSE_PREDIV_DIV1;
 8001026:	2300      	movs	r3, #0
 8001028:	633b      	str	r3, [r7, #48]	; 0x30
	RCC_OscInitStruct.HSIState = RCC_HSI_ON;
 800102a:	2301      	movs	r3, #1
 800102c:	63bb      	str	r3, [r7, #56]	; 0x38
	RCC_OscInitStruct.PLL.PLLState = RCC_PLL_ON;
 800102e:	2302      	movs	r3, #2
 8001030:	647b      	str	r3, [r7, #68]	; 0x44
	RCC_OscInitStruct.PLL.PLLSource = RCC_PLLSOURCE_HSE;
 8001032:	f44f 3380 	mov.w	r3, #65536	; 0x10000
 8001036:	64bb      	str	r3, [r7, #72]	; 0x48
	RCC_OscInitStruct.PLL.PLLMUL = RCC_PLL_MUL9;
 8001038:	f44f 13e0 	mov.w	r3, #1835008	; 0x1c0000
 800103c:	64fb      	str	r3, [r7, #76]	; 0x4c
	if (HAL_RCC_OscConfig(&RCC_OscInitStruct) != HAL_OK) {
 800103e:	f107 0328 	add.w	r3, r7, #40	; 0x28
 8001042:	4618      	mov	r0, r3
 8001044:	f003 fb56 	bl	80046f4 <HAL_RCC_OscConfig>
 8001048:	4603      	mov	r3, r0
 800104a:	2b00      	cmp	r3, #0
 800104c:	d001      	beq.n	8001052 <SystemClock_Config+0x66>
		Error_Handler();
 800104e:	f000 fe0d 	bl	8001c6c <Error_Handler>
	}
	/** Initializes the CPU, AHB and APB busses clocks
	 */
	RCC_ClkInitStruct.ClockType = RCC_CLOCKTYPE_HCLK | RCC_CLOCKTYPE_SYSCLK
 8001052:	230f      	movs	r3, #15
 8001054:	617b      	str	r3, [r7, #20]
			| RCC_CLOCKTYPE_PCLK1 | RCC_CLOCKTYPE_PCLK2;
	RCC_ClkInitStruct.SYSCLKSource = RCC_SYSCLKSOURCE_PLLCLK;
 8001056:	2302      	movs	r3, #2
 8001058:	61bb      	str	r3, [r7, #24]
	RCC_ClkInitStruct.AHBCLKDivider = RCC_SYSCLK_DIV1;
 800105a:	2300      	movs	r3, #0
 800105c:	61fb      	str	r3, [r7, #28]
	RCC_ClkInitStruct.APB1CLKDivider = RCC_HCLK_DIV2;
 800105e:	f44f 6380 	mov.w	r3, #1024	; 0x400
 8001062:	623b      	str	r3, [r7, #32]
	RCC_ClkInitStruct.APB2CLKDivider = RCC_HCLK_DIV1;
 8001064:	2300      	movs	r3, #0
 8001066:	627b      	str	r3, [r7, #36]	; 0x24

	if (HAL_RCC_ClockConfig(&RCC_ClkInitStruct, FLASH_LATENCY_2) != HAL_OK) {
 8001068:	f107 0314 	add.w	r3, r7, #20
 800106c:	2102      	movs	r1, #2
 800106e:	4618      	mov	r0, r3
 8001070:	f003 fdc0 	bl	8004bf4 <HAL_RCC_ClockConfig>
 8001074:	4603      	mov	r3, r0
 8001076:	2b00      	cmp	r3, #0
 8001078:	d001      	beq.n	800107e <SystemClock_Config+0x92>
		Error_Handler();
 800107a:	f000 fdf7 	bl	8001c6c <Error_Handler>
	}
	PeriphClkInit.PeriphClockSelection = RCC_PERIPHCLK_ADC;
 800107e:	2302      	movs	r3, #2
 8001080:	607b      	str	r3, [r7, #4]
	PeriphClkInit.AdcClockSelection = RCC_ADCPCLK2_DIV6;
 8001082:	f44f 4300 	mov.w	r3, #32768	; 0x8000
 8001086:	60fb      	str	r3, [r7, #12]
	if (HAL_RCCEx_PeriphCLKConfig(&PeriphClkInit) != HAL_OK) {
 8001088:	1d3b      	adds	r3, r7, #4
 800108a:	4618      	mov	r0, r3
 800108c:	f003 ff7e 	bl	8004f8c <HAL_RCCEx_PeriphCLKConfig>
 8001090:	4603      	mov	r3, r0
 8001092:	2b00      	cmp	r3, #0
 8001094:	d001      	beq.n	800109a <SystemClock_Config+0xae>
		Error_Handler();
 8001096:	f000 fde9 	bl	8001c6c <Error_Handler>
	}
}
 800109a:	bf00      	nop
 800109c:	3750      	adds	r7, #80	; 0x50
 800109e:	46bd      	mov	sp, r7
 80010a0:	bd80      	pop	{r7, pc}
	...

080010a4 <MX_ADC1_Init>:
/**
 * @brief ADC1 Initialization Function
 * @param None
 * @retval None
 */
static void MX_ADC1_Init(void) {
 80010a4:	b580      	push	{r7, lr}
 80010a6:	b084      	sub	sp, #16
 80010a8:	af00      	add	r7, sp, #0
	ADC_ChannelConfTypeDef sConfig = { 0 };
 80010aa:	1d3b      	adds	r3, r7, #4
 80010ac:	2200      	movs	r2, #0
 80010ae:	601a      	str	r2, [r3, #0]
 80010b0:	605a      	str	r2, [r3, #4]
 80010b2:	609a      	str	r2, [r3, #8]

	/** Common config
	 */
	hadc1.Instance = ADC1;
 80010b4:	4b2e      	ldr	r3, [pc, #184]	; (8001170 <MX_ADC1_Init+0xcc>)
 80010b6:	4a2f      	ldr	r2, [pc, #188]	; (8001174 <MX_ADC1_Init+0xd0>)
 80010b8:	601a      	str	r2, [r3, #0]
	hadc1.Init.ScanConvMode = ADC_SCAN_ENABLE;
 80010ba:	4b2d      	ldr	r3, [pc, #180]	; (8001170 <MX_ADC1_Init+0xcc>)
 80010bc:	f44f 7280 	mov.w	r2, #256	; 0x100
 80010c0:	609a      	str	r2, [r3, #8]
	hadc1.Init.ContinuousConvMode = ENABLE;
 80010c2:	4b2b      	ldr	r3, [pc, #172]	; (8001170 <MX_ADC1_Init+0xcc>)
 80010c4:	2201      	movs	r2, #1
 80010c6:	731a      	strb	r2, [r3, #12]
	hadc1.Init.DiscontinuousConvMode = DISABLE;
 80010c8:	4b29      	ldr	r3, [pc, #164]	; (8001170 <MX_ADC1_Init+0xcc>)
 80010ca:	2200      	movs	r2, #0
 80010cc:	751a      	strb	r2, [r3, #20]
	hadc1.Init.ExternalTrigConv = ADC_SOFTWARE_START;
 80010ce:	4b28      	ldr	r3, [pc, #160]	; (8001170 <MX_ADC1_Init+0xcc>)
 80010d0:	f44f 2260 	mov.w	r2, #917504	; 0xe0000
 80010d4:	61da      	str	r2, [r3, #28]
	hadc1.Init.DataAlign = ADC_DATAALIGN_RIGHT;
 80010d6:	4b26      	ldr	r3, [pc, #152]	; (8001170 <MX_ADC1_Init+0xcc>)
 80010d8:	2200      	movs	r2, #0
 80010da:	605a      	str	r2, [r3, #4]
	hadc1.Init.NbrOfConversion = 4;
 80010dc:	4b24      	ldr	r3, [pc, #144]	; (8001170 <MX_ADC1_Init+0xcc>)
 80010de:	2204      	movs	r2, #4
 80010e0:	611a      	str	r2, [r3, #16]
	if (HAL_ADC_Init(&hadc1) != HAL_OK) {
 80010e2:	4823      	ldr	r0, [pc, #140]	; (8001170 <MX_ADC1_Init+0xcc>)
 80010e4:	f001 f874 	bl	80021d0 <HAL_ADC_Init>
 80010e8:	4603      	mov	r3, r0
 80010ea:	2b00      	cmp	r3, #0
 80010ec:	d001      	beq.n	80010f2 <MX_ADC1_Init+0x4e>
		Error_Handler();
 80010ee:	f000 fdbd 	bl	8001c6c <Error_Handler>
	}
	/** Configure Regular Channel
	 */
	sConfig.Channel = ADC_CHANNEL_0;
 80010f2:	2300      	movs	r3, #0
 80010f4:	607b      	str	r3, [r7, #4]
	sConfig.Rank = ADC_REGULAR_RANK_1;
 80010f6:	2301      	movs	r3, #1
 80010f8:	60bb      	str	r3, [r7, #8]
	sConfig.SamplingTime = ADC_SAMPLETIME_71CYCLES_5;
 80010fa:	2306      	movs	r3, #6
 80010fc:	60fb      	str	r3, [r7, #12]
	if (HAL_ADC_ConfigChannel(&hadc1, &sConfig) != HAL_OK) {
 80010fe:	1d3b      	adds	r3, r7, #4
 8001100:	4619      	mov	r1, r3
 8001102:	481b      	ldr	r0, [pc, #108]	; (8001170 <MX_ADC1_Init+0xcc>)
 8001104:	f001 fa36 	bl	8002574 <HAL_ADC_ConfigChannel>
 8001108:	4603      	mov	r3, r0
 800110a:	2b00      	cmp	r3, #0
 800110c:	d001      	beq.n	8001112 <MX_ADC1_Init+0x6e>
		Error_Handler();
 800110e:	f000 fdad 	bl	8001c6c <Error_Handler>
	}
	/** Configure Regular Channel
	 */
	sConfig.Channel = ADC_CHANNEL_1;
 8001112:	2301      	movs	r3, #1
 8001114:	607b      	str	r3, [r7, #4]
	sConfig.Rank = ADC_REGULAR_RANK_2;
 8001116:	2302      	movs	r3, #2
 8001118:	60bb      	str	r3, [r7, #8]
	if (HAL_ADC_ConfigChannel(&hadc1, &sConfig) != HAL_OK) {
 800111a:	1d3b      	adds	r3, r7, #4
 800111c:	4619      	mov	r1, r3
 800111e:	4814      	ldr	r0, [pc, #80]	; (8001170 <MX_ADC1_Init+0xcc>)
 8001120:	f001 fa28 	bl	8002574 <HAL_ADC_ConfigChannel>
 8001124:	4603      	mov	r3, r0
 8001126:	2b00      	cmp	r3, #0
 8001128:	d001      	beq.n	800112e <MX_ADC1_Init+0x8a>
		Error_Handler();
 800112a:	f000 fd9f 	bl	8001c6c <Error_Handler>
	}
	/** Configure Regular Channel
	 */
	sConfig.Channel = ADC_CHANNEL_8;
 800112e:	2308      	movs	r3, #8
 8001130:	607b      	str	r3, [r7, #4]
	sConfig.Rank = ADC_REGULAR_RANK_3;
 8001132:	2303      	movs	r3, #3
 8001134:	60bb      	str	r3, [r7, #8]
	if (HAL_ADC_ConfigChannel(&hadc1, &sConfig) != HAL_OK) {
 8001136:	1d3b      	adds	r3, r7, #4
 8001138:	4619      	mov	r1, r3
 800113a:	480d      	ldr	r0, [pc, #52]	; (8001170 <MX_ADC1_Init+0xcc>)
 800113c:	f001 fa1a 	bl	8002574 <HAL_ADC_ConfigChannel>
 8001140:	4603      	mov	r3, r0
 8001142:	2b00      	cmp	r3, #0
 8001144:	d001      	beq.n	800114a <MX_ADC1_Init+0xa6>
		Error_Handler();
 8001146:	f000 fd91 	bl	8001c6c <Error_Handler>
	}
	/** Configure Regular Channel
	 */
	sConfig.Channel = ADC_CHANNEL_9;
 800114a:	2309      	movs	r3, #9
 800114c:	607b      	str	r3, [r7, #4]
	sConfig.Rank = ADC_REGULAR_RANK_4;
 800114e:	2304      	movs	r3, #4
 8001150:	60bb      	str	r3, [r7, #8]
	if (HAL_ADC_ConfigChannel(&hadc1, &sConfig) != HAL_OK) {
 8001152:	1d3b      	adds	r3, r7, #4
 8001154:	4619      	mov	r1, r3
 8001156:	4806      	ldr	r0, [pc, #24]	; (8001170 <MX_ADC1_Init+0xcc>)
 8001158:	f001 fa0c 	bl	8002574 <HAL_ADC_ConfigChannel>
 800115c:	4603      	mov	r3, r0
 800115e:	2b00      	cmp	r3, #0
 8001160:	d001      	beq.n	8001166 <MX_ADC1_Init+0xc2>
		Error_Handler();
 8001162:	f000 fd83 	bl	8001c6c <Error_Handler>
	}
}
 8001166:	bf00      	nop
 8001168:	3710      	adds	r7, #16
 800116a:	46bd      	mov	sp, r7
 800116c:	bd80      	pop	{r7, pc}
 800116e:	bf00      	nop
 8001170:	20002240 	.word	0x20002240
 8001174:	40012400 	.word	0x40012400

08001178 <MX_CAN_Init>:
/**
 * @brief CAN Initialization Function
 * @param None
 * @retval None
 */
static void MX_CAN_Init(void) {
 8001178:	b580      	push	{r7, lr}
 800117a:	af00      	add	r7, sp, #0
	hcan.Instance = CAN1;
 800117c:	4b17      	ldr	r3, [pc, #92]	; (80011dc <MX_CAN_Init+0x64>)
 800117e:	4a18      	ldr	r2, [pc, #96]	; (80011e0 <MX_CAN_Init+0x68>)
 8001180:	601a      	str	r2, [r3, #0]
	hcan.Init.Prescaler = 9;
 8001182:	4b16      	ldr	r3, [pc, #88]	; (80011dc <MX_CAN_Init+0x64>)
 8001184:	2209      	movs	r2, #9
 8001186:	605a      	str	r2, [r3, #4]
	hcan.Init.Mode = CAN_MODE_NORMAL;
 8001188:	4b14      	ldr	r3, [pc, #80]	; (80011dc <MX_CAN_Init+0x64>)
 800118a:	2200      	movs	r2, #0
 800118c:	609a      	str	r2, [r3, #8]
	hcan.Init.SyncJumpWidth = CAN_SJW_1TQ;
 800118e:	4b13      	ldr	r3, [pc, #76]	; (80011dc <MX_CAN_Init+0x64>)
 8001190:	2200      	movs	r2, #0
 8001192:	60da      	str	r2, [r3, #12]
	hcan.Init.TimeSeg1 = CAN_BS1_12TQ;
 8001194:	4b11      	ldr	r3, [pc, #68]	; (80011dc <MX_CAN_Init+0x64>)
 8001196:	f44f 2230 	mov.w	r2, #720896	; 0xb0000
 800119a:	611a      	str	r2, [r3, #16]
	hcan.Init.TimeSeg2 = CAN_BS2_3TQ;
 800119c:	4b0f      	ldr	r3, [pc, #60]	; (80011dc <MX_CAN_Init+0x64>)
 800119e:	f44f 1200 	mov.w	r2, #2097152	; 0x200000
 80011a2:	615a      	str	r2, [r3, #20]
	hcan.Init.TimeTriggeredMode = DISABLE;
 80011a4:	4b0d      	ldr	r3, [pc, #52]	; (80011dc <MX_CAN_Init+0x64>)
 80011a6:	2200      	movs	r2, #0
 80011a8:	761a      	strb	r2, [r3, #24]
	hcan.Init.AutoBusOff = ENABLE;
 80011aa:	4b0c      	ldr	r3, [pc, #48]	; (80011dc <MX_CAN_Init+0x64>)
 80011ac:	2201      	movs	r2, #1
 80011ae:	765a      	strb	r2, [r3, #25]
	hcan.Init.AutoWakeUp = DISABLE;
 80011b0:	4b0a      	ldr	r3, [pc, #40]	; (80011dc <MX_CAN_Init+0x64>)
 80011b2:	2200      	movs	r2, #0
 80011b4:	769a      	strb	r2, [r3, #26]
	hcan.Init.AutoRetransmission = ENABLE;
 80011b6:	4b09      	ldr	r3, [pc, #36]	; (80011dc <MX_CAN_Init+0x64>)
 80011b8:	2201      	movs	r2, #1
 80011ba:	76da      	strb	r2, [r3, #27]
	hcan.Init.ReceiveFifoLocked = DISABLE;
 80011bc:	4b07      	ldr	r3, [pc, #28]	; (80011dc <MX_CAN_Init+0x64>)
 80011be:	2200      	movs	r2, #0
 80011c0:	771a      	strb	r2, [r3, #28]
	hcan.Init.TransmitFifoPriority = DISABLE;
 80011c2:	4b06      	ldr	r3, [pc, #24]	; (80011dc <MX_CAN_Init+0x64>)
 80011c4:	2200      	movs	r2, #0
 80011c6:	775a      	strb	r2, [r3, #29]
	if (HAL_CAN_Init(&hcan) != HAL_OK) {
 80011c8:	4804      	ldr	r0, [pc, #16]	; (80011dc <MX_CAN_Init+0x64>)
 80011ca:	f001 fbbd 	bl	8002948 <HAL_CAN_Init>
 80011ce:	4603      	mov	r3, r0
 80011d0:	2b00      	cmp	r3, #0
 80011d2:	d001      	beq.n	80011d8 <MX_CAN_Init+0x60>
		Error_Handler();
 80011d4:	f000 fd4a 	bl	8001c6c <Error_Handler>
	}
}
 80011d8:	bf00      	nop
 80011da:	bd80      	pop	{r7, pc}
 80011dc:	20002210 	.word	0x20002210
 80011e0:	40006400 	.word	0x40006400

080011e4 <MX_I2C2_Init>:
/**
 * @brief I2C1 Initialization Function
 * @param None
 * @retval None
 */
static void MX_I2C2_Init(void) {
 80011e4:	b580      	push	{r7, lr}
 80011e6:	af00      	add	r7, sp, #0
	/* USER CODE END I2C1_Init 0 */

	/* USER CODE BEGIN I2C1_Init 1 */

	/* USER CODE END I2C1_Init 1 */
	hi2c2.Instance = I2C2;
 80011e8:	4b12      	ldr	r3, [pc, #72]	; (8001234 <MX_I2C2_Init+0x50>)
 80011ea:	4a13      	ldr	r2, [pc, #76]	; (8001238 <MX_I2C2_Init+0x54>)
 80011ec:	601a      	str	r2, [r3, #0]
	hi2c2.Init.ClockSpeed = 100000;
 80011ee:	4b11      	ldr	r3, [pc, #68]	; (8001234 <MX_I2C2_Init+0x50>)
 80011f0:	4a12      	ldr	r2, [pc, #72]	; (800123c <MX_I2C2_Init+0x58>)
 80011f2:	605a      	str	r2, [r3, #4]
	hi2c2.Init.DutyCycle = I2C_DUTYCYCLE_2;
 80011f4:	4b0f      	ldr	r3, [pc, #60]	; (8001234 <MX_I2C2_Init+0x50>)
 80011f6:	2200      	movs	r2, #0
 80011f8:	609a      	str	r2, [r3, #8]
	hi2c2.Init.OwnAddress1 = 0;
 80011fa:	4b0e      	ldr	r3, [pc, #56]	; (8001234 <MX_I2C2_Init+0x50>)
 80011fc:	2200      	movs	r2, #0
 80011fe:	60da      	str	r2, [r3, #12]
	hi2c2.Init.AddressingMode = I2C_ADDRESSINGMODE_7BIT;
 8001200:	4b0c      	ldr	r3, [pc, #48]	; (8001234 <MX_I2C2_Init+0x50>)
 8001202:	f44f 4280 	mov.w	r2, #16384	; 0x4000
 8001206:	611a      	str	r2, [r3, #16]
	hi2c2.Init.DualAddressMode = I2C_DUALADDRESS_DISABLE;
 8001208:	4b0a      	ldr	r3, [pc, #40]	; (8001234 <MX_I2C2_Init+0x50>)
 800120a:	2200      	movs	r2, #0
 800120c:	615a      	str	r2, [r3, #20]
	hi2c2.Init.OwnAddress2 = 0;
 800120e:	4b09      	ldr	r3, [pc, #36]	; (8001234 <MX_I2C2_Init+0x50>)
 8001210:	2200      	movs	r2, #0
 8001212:	619a      	str	r2, [r3, #24]
	hi2c2.Init.GeneralCallMode = I2C_GENERALCALL_DISABLE;
 8001214:	4b07      	ldr	r3, [pc, #28]	; (8001234 <MX_I2C2_Init+0x50>)
 8001216:	2200      	movs	r2, #0
 8001218:	61da      	str	r2, [r3, #28]
	hi2c2.Init.NoStretchMode = I2C_NOSTRETCH_ENABLE;
 800121a:	4b06      	ldr	r3, [pc, #24]	; (8001234 <MX_I2C2_Init+0x50>)
 800121c:	2280      	movs	r2, #128	; 0x80
 800121e:	621a      	str	r2, [r3, #32]
	if (HAL_I2C_Init(&hi2c2) != HAL_OK) {
 8001220:	4804      	ldr	r0, [pc, #16]	; (8001234 <MX_I2C2_Init+0x50>)
 8001222:	f002 fd2f 	bl	8003c84 <HAL_I2C_Init>
 8001226:	4603      	mov	r3, r0
 8001228:	2b00      	cmp	r3, #0
 800122a:	d001      	beq.n	8001230 <MX_I2C2_Init+0x4c>
		Error_Handler();
 800122c:	f000 fd1e 	bl	8001c6c <Error_Handler>
	}
	/* USER CODE BEGIN I2C1_Init 2 */

	/* USER CODE END I2C1_Init 2 */

}
 8001230:	bf00      	nop
 8001232:	bd80      	pop	{r7, pc}
 8001234:	200021b0 	.word	0x200021b0
 8001238:	40005800 	.word	0x40005800
 800123c:	000186a0 	.word	0x000186a0

08001240 <MX_DMA_Init>:

/**
 * Enable DMA controller clock
 */
static void MX_DMA_Init(void) {
 8001240:	b580      	push	{r7, lr}
 8001242:	b082      	sub	sp, #8
 8001244:	af00      	add	r7, sp, #0
	__HAL_RCC_DMA1_CLK_ENABLE();
 8001246:	4b0c      	ldr	r3, [pc, #48]	; (8001278 <MX_DMA_Init+0x38>)
 8001248:	695b      	ldr	r3, [r3, #20]
 800124a:	4a0b      	ldr	r2, [pc, #44]	; (8001278 <MX_DMA_Init+0x38>)
 800124c:	f043 0301 	orr.w	r3, r3, #1
 8001250:	6153      	str	r3, [r2, #20]
 8001252:	4b09      	ldr	r3, [pc, #36]	; (8001278 <MX_DMA_Init+0x38>)
 8001254:	695b      	ldr	r3, [r3, #20]
 8001256:	f003 0301 	and.w	r3, r3, #1
 800125a:	607b      	str	r3, [r7, #4]
 800125c:	687b      	ldr	r3, [r7, #4]

	/* DMA interrupt init */
	/* DMA1_Channel1_IRQn interrupt configuration */
	HAL_NVIC_SetPriority(DMA1_Channel1_IRQn, 5, 0);
 800125e:	2200      	movs	r2, #0
 8001260:	2105      	movs	r1, #5
 8001262:	200b      	movs	r0, #11
 8001264:	f002 f953 	bl	800350e <HAL_NVIC_SetPriority>
	HAL_NVIC_EnableIRQ(DMA1_Channel1_IRQn);
 8001268:	200b      	movs	r0, #11
 800126a:	f002 f96c 	bl	8003546 <HAL_NVIC_EnableIRQ>

}
 800126e:	bf00      	nop
 8001270:	3708      	adds	r7, #8
 8001272:	46bd      	mov	sp, r7
 8001274:	bd80      	pop	{r7, pc}
 8001276:	bf00      	nop
 8001278:	40021000 	.word	0x40021000

0800127c <MX_GPIO_Init>:
/**
 * @brief GPIO Initialization Function
 * @param None
 * @retval None
 */
static void MX_GPIO_Init(void) {
 800127c:	b580      	push	{r7, lr}
 800127e:	b088      	sub	sp, #32
 8001280:	af00      	add	r7, sp, #0
	GPIO_InitTypeDef GPIO_InitStruct = { 0 };
 8001282:	f107 0310 	add.w	r3, r7, #16
 8001286:	2200      	movs	r2, #0
 8001288:	601a      	str	r2, [r3, #0]
 800128a:	605a      	str	r2, [r3, #4]
 800128c:	609a      	str	r2, [r3, #8]
 800128e:	60da      	str	r2, [r3, #12]

	/* GPIO Ports Clock Enable */
	__HAL_RCC_GPIOC_CLK_ENABLE();
 8001290:	4b67      	ldr	r3, [pc, #412]	; (8001430 <MX_GPIO_Init+0x1b4>)
 8001292:	699b      	ldr	r3, [r3, #24]
 8001294:	4a66      	ldr	r2, [pc, #408]	; (8001430 <MX_GPIO_Init+0x1b4>)
 8001296:	f043 0310 	orr.w	r3, r3, #16
 800129a:	6193      	str	r3, [r2, #24]
 800129c:	4b64      	ldr	r3, [pc, #400]	; (8001430 <MX_GPIO_Init+0x1b4>)
 800129e:	699b      	ldr	r3, [r3, #24]
 80012a0:	f003 0310 	and.w	r3, r3, #16
 80012a4:	60fb      	str	r3, [r7, #12]
 80012a6:	68fb      	ldr	r3, [r7, #12]
	__HAL_RCC_GPIOD_CLK_ENABLE();
 80012a8:	4b61      	ldr	r3, [pc, #388]	; (8001430 <MX_GPIO_Init+0x1b4>)
 80012aa:	699b      	ldr	r3, [r3, #24]
 80012ac:	4a60      	ldr	r2, [pc, #384]	; (8001430 <MX_GPIO_Init+0x1b4>)
 80012ae:	f043 0320 	orr.w	r3, r3, #32
 80012b2:	6193      	str	r3, [r2, #24]
 80012b4:	4b5e      	ldr	r3, [pc, #376]	; (8001430 <MX_GPIO_Init+0x1b4>)
 80012b6:	699b      	ldr	r3, [r3, #24]
 80012b8:	f003 0320 	and.w	r3, r3, #32
 80012bc:	60bb      	str	r3, [r7, #8]
 80012be:	68bb      	ldr	r3, [r7, #8]
	__HAL_RCC_GPIOA_CLK_ENABLE();
 80012c0:	4b5b      	ldr	r3, [pc, #364]	; (8001430 <MX_GPIO_Init+0x1b4>)
 80012c2:	699b      	ldr	r3, [r3, #24]
 80012c4:	4a5a      	ldr	r2, [pc, #360]	; (8001430 <MX_GPIO_Init+0x1b4>)
 80012c6:	f043 0304 	orr.w	r3, r3, #4
 80012ca:	6193      	str	r3, [r2, #24]
 80012cc:	4b58      	ldr	r3, [pc, #352]	; (8001430 <MX_GPIO_Init+0x1b4>)
 80012ce:	699b      	ldr	r3, [r3, #24]
 80012d0:	f003 0304 	and.w	r3, r3, #4
 80012d4:	607b      	str	r3, [r7, #4]
 80012d6:	687b      	ldr	r3, [r7, #4]
	__HAL_RCC_GPIOB_CLK_ENABLE();
 80012d8:	4b55      	ldr	r3, [pc, #340]	; (8001430 <MX_GPIO_Init+0x1b4>)
 80012da:	699b      	ldr	r3, [r3, #24]
 80012dc:	4a54      	ldr	r2, [pc, #336]	; (8001430 <MX_GPIO_Init+0x1b4>)
 80012de:	f043 0308 	orr.w	r3, r3, #8
 80012e2:	6193      	str	r3, [r2, #24]
 80012e4:	4b52      	ldr	r3, [pc, #328]	; (8001430 <MX_GPIO_Init+0x1b4>)
 80012e6:	699b      	ldr	r3, [r3, #24]
 80012e8:	f003 0308 	and.w	r3, r3, #8
 80012ec:	603b      	str	r3, [r7, #0]
 80012ee:	683b      	ldr	r3, [r7, #0]

	/*Configure GPIO pin Output Level */
	HAL_GPIO_WritePin(GPIOC, GPIO_PIN_13, GPIO_PIN_RESET);
 80012f0:	2200      	movs	r2, #0
 80012f2:	f44f 5100 	mov.w	r1, #8192	; 0x2000
 80012f6:	484f      	ldr	r0, [pc, #316]	; (8001434 <MX_GPIO_Init+0x1b8>)
 80012f8:	f002 fc93 	bl	8003c22 <HAL_GPIO_WritePin>
	HAL_GPIO_WritePin(GPIOC, GPIO_PIN_14, GPIO_PIN_RESET);
 80012fc:	2200      	movs	r2, #0
 80012fe:	f44f 4180 	mov.w	r1, #16384	; 0x4000
 8001302:	484c      	ldr	r0, [pc, #304]	; (8001434 <MX_GPIO_Init+0x1b8>)
 8001304:	f002 fc8d 	bl	8003c22 <HAL_GPIO_WritePin>
	/*Configure GPIO pin Output Level */
	HAL_GPIO_WritePin(GPIOA, GPIO_PIN_15, GPIO_PIN_RESET);
 8001308:	2200      	movs	r2, #0
 800130a:	f44f 4100 	mov.w	r1, #32768	; 0x8000
 800130e:	484a      	ldr	r0, [pc, #296]	; (8001438 <MX_GPIO_Init+0x1bc>)
 8001310:	f002 fc87 	bl	8003c22 <HAL_GPIO_WritePin>

	/*Configure GPIO pin Output Level */
	HAL_GPIO_WritePin(GPIOB, GPIO_PIN_3, GPIO_PIN_RESET);
 8001314:	2200      	movs	r2, #0
 8001316:	2108      	movs	r1, #8
 8001318:	4848      	ldr	r0, [pc, #288]	; (800143c <MX_GPIO_Init+0x1c0>)
 800131a:	f002 fc82 	bl	8003c22 <HAL_GPIO_WritePin>
	HAL_GPIO_WritePin(GPIOB, GPIO_PIN_6, GPIO_PIN_RESET);
 800131e:	2200      	movs	r2, #0
 8001320:	2140      	movs	r1, #64	; 0x40
 8001322:	4846      	ldr	r0, [pc, #280]	; (800143c <MX_GPIO_Init+0x1c0>)
 8001324:	f002 fc7d 	bl	8003c22 <HAL_GPIO_WritePin>
	/*Configure GPIO pin : PC13 */
	GPIO_InitStruct.Pin = GPIO_PIN_13;
 8001328:	f44f 5300 	mov.w	r3, #8192	; 0x2000
 800132c:	613b      	str	r3, [r7, #16]
	GPIO_InitStruct.Mode = GPIO_MODE_OUTPUT_PP;
 800132e:	2301      	movs	r3, #1
 8001330:	617b      	str	r3, [r7, #20]
	GPIO_InitStruct.Pull = GPIO_NOPULL;
 8001332:	2300      	movs	r3, #0
 8001334:	61bb      	str	r3, [r7, #24]
	GPIO_InitStruct.Speed = GPIO_SPEED_FREQ_LOW;
 8001336:	2302      	movs	r3, #2
 8001338:	61fb      	str	r3, [r7, #28]
	HAL_GPIO_Init(GPIOC, &GPIO_InitStruct);
 800133a:	f107 0310 	add.w	r3, r7, #16
 800133e:	4619      	mov	r1, r3
 8001340:	483c      	ldr	r0, [pc, #240]	; (8001434 <MX_GPIO_Init+0x1b8>)
 8001342:	f002 fafd 	bl	8003940 <HAL_GPIO_Init>

	GPIO_InitStruct.Pin = GPIO_PIN_14;
 8001346:	f44f 4380 	mov.w	r3, #16384	; 0x4000
 800134a:	613b      	str	r3, [r7, #16]
	GPIO_InitStruct.Mode = GPIO_MODE_OUTPUT_PP;
 800134c:	2301      	movs	r3, #1
 800134e:	617b      	str	r3, [r7, #20]
	GPIO_InitStruct.Pull = GPIO_NOPULL;
 8001350:	2300      	movs	r3, #0
 8001352:	61bb      	str	r3, [r7, #24]
	GPIO_InitStruct.Speed = GPIO_SPEED_FREQ_LOW;
 8001354:	2302      	movs	r3, #2
 8001356:	61fb      	str	r3, [r7, #28]
	HAL_GPIO_Init(GPIOC, &GPIO_InitStruct);
 8001358:	f107 0310 	add.w	r3, r7, #16
 800135c:	4619      	mov	r1, r3
 800135e:	4835      	ldr	r0, [pc, #212]	; (8001434 <MX_GPIO_Init+0x1b8>)
 8001360:	f002 faee 	bl	8003940 <HAL_GPIO_Init>

	/*Configure GPIO pin : PA15 */
	GPIO_InitStruct.Pin = GPIO_PIN_15;
 8001364:	f44f 4300 	mov.w	r3, #32768	; 0x8000
 8001368:	613b      	str	r3, [r7, #16]
	GPIO_InitStruct.Mode = GPIO_MODE_OUTPUT_PP;
 800136a:	2301      	movs	r3, #1
 800136c:	617b      	str	r3, [r7, #20]
	GPIO_InitStruct.Pull = GPIO_NOPULL;
 800136e:	2300      	movs	r3, #0
 8001370:	61bb      	str	r3, [r7, #24]
	GPIO_InitStruct.Speed = GPIO_SPEED_FREQ_LOW;
 8001372:	2302      	movs	r3, #2
 8001374:	61fb      	str	r3, [r7, #28]
	HAL_GPIO_Init(GPIOA, &GPIO_InitStruct);
 8001376:	f107 0310 	add.w	r3, r7, #16
 800137a:	4619      	mov	r1, r3
 800137c:	482e      	ldr	r0, [pc, #184]	; (8001438 <MX_GPIO_Init+0x1bc>)
 800137e:	f002 fadf 	bl	8003940 <HAL_GPIO_Init>

	/*Configure GPIO pin : PA12 */
	GPIO_InitStruct.Pin = GPIO_PIN_12;
 8001382:	f44f 5380 	mov.w	r3, #4096	; 0x1000
 8001386:	613b      	str	r3, [r7, #16]
	GPIO_InitStruct.Mode = GPIO_MODE_IT_FALLING;
 8001388:	4b2d      	ldr	r3, [pc, #180]	; (8001440 <MX_GPIO_Init+0x1c4>)
 800138a:	617b      	str	r3, [r7, #20]
	GPIO_InitStruct.Pull = GPIO_PULLUP;
 800138c:	2301      	movs	r3, #1
 800138e:	61bb      	str	r3, [r7, #24]
	HAL_GPIO_Init(GPIOA, &GPIO_InitStruct);
 8001390:	f107 0310 	add.w	r3, r7, #16
 8001394:	4619      	mov	r1, r3
 8001396:	4828      	ldr	r0, [pc, #160]	; (8001438 <MX_GPIO_Init+0x1bc>)
 8001398:	f002 fad2 	bl	8003940 <HAL_GPIO_Init>
	/*Configure GPIO pin INTERRUPT : PA12 */
	HAL_NVIC_SetPriority(EXTI15_10_IRQn, 15, 0);
 800139c:	2200      	movs	r2, #0
 800139e:	210f      	movs	r1, #15
 80013a0:	2028      	movs	r0, #40	; 0x28
 80013a2:	f002 f8b4 	bl	800350e <HAL_NVIC_SetPriority>
	HAL_NVIC_EnableIRQ(EXTI15_10_IRQn);
 80013a6:	2028      	movs	r0, #40	; 0x28
 80013a8:	f002 f8cd 	bl	8003546 <HAL_NVIC_EnableIRQ>

	GPIO_InitStruct.Pin = GPIO_PIN_8;
 80013ac:	f44f 7380 	mov.w	r3, #256	; 0x100
 80013b0:	613b      	str	r3, [r7, #16]
	GPIO_InitStruct.Mode = GPIO_MODE_IT_FALLING;
 80013b2:	4b23      	ldr	r3, [pc, #140]	; (8001440 <MX_GPIO_Init+0x1c4>)
 80013b4:	617b      	str	r3, [r7, #20]
	GPIO_InitStruct.Pull = GPIO_PULLUP;
 80013b6:	2301      	movs	r3, #1
 80013b8:	61bb      	str	r3, [r7, #24]
	HAL_GPIO_Init(GPIOA, &GPIO_InitStruct);
 80013ba:	f107 0310 	add.w	r3, r7, #16
 80013be:	4619      	mov	r1, r3
 80013c0:	481d      	ldr	r0, [pc, #116]	; (8001438 <MX_GPIO_Init+0x1bc>)
 80013c2:	f002 fabd 	bl	8003940 <HAL_GPIO_Init>
	/*Configure GPIO pin INTERRUPT : PA12 */
	HAL_NVIC_SetPriority(EXTI9_5_IRQn, 15, 0);
 80013c6:	2200      	movs	r2, #0
 80013c8:	210f      	movs	r1, #15
 80013ca:	2017      	movs	r0, #23
 80013cc:	f002 f89f 	bl	800350e <HAL_NVIC_SetPriority>
	HAL_NVIC_EnableIRQ(EXTI9_5_IRQn);
 80013d0:	2017      	movs	r0, #23
 80013d2:	f002 f8b8 	bl	8003546 <HAL_NVIC_EnableIRQ>

	/*Configure GPIO pin : PB3 */
	GPIO_InitStruct.Pin = GPIO_PIN_3;
 80013d6:	2308      	movs	r3, #8
 80013d8:	613b      	str	r3, [r7, #16]
	GPIO_InitStruct.Mode = GPIO_MODE_OUTPUT_PP;
 80013da:	2301      	movs	r3, #1
 80013dc:	617b      	str	r3, [r7, #20]
	GPIO_InitStruct.Pull = GPIO_NOPULL;
 80013de:	2300      	movs	r3, #0
 80013e0:	61bb      	str	r3, [r7, #24]
	GPIO_InitStruct.Speed = GPIO_SPEED_FREQ_LOW;
 80013e2:	2302      	movs	r3, #2
 80013e4:	61fb      	str	r3, [r7, #28]
	HAL_GPIO_Init(GPIOB, &GPIO_InitStruct);
 80013e6:	f107 0310 	add.w	r3, r7, #16
 80013ea:	4619      	mov	r1, r3
 80013ec:	4813      	ldr	r0, [pc, #76]	; (800143c <MX_GPIO_Init+0x1c0>)
 80013ee:	f002 faa7 	bl	8003940 <HAL_GPIO_Init>

	GPIO_InitStruct.Pin = GPIO_PIN_6;
 80013f2:	2340      	movs	r3, #64	; 0x40
 80013f4:	613b      	str	r3, [r7, #16]
	GPIO_InitStruct.Mode = GPIO_MODE_OUTPUT_PP;
 80013f6:	2301      	movs	r3, #1
 80013f8:	617b      	str	r3, [r7, #20]
	GPIO_InitStruct.Pull = GPIO_NOPULL;
 80013fa:	2300      	movs	r3, #0
 80013fc:	61bb      	str	r3, [r7, #24]
	GPIO_InitStruct.Speed = GPIO_SPEED_FREQ_LOW;
 80013fe:	2302      	movs	r3, #2
 8001400:	61fb      	str	r3, [r7, #28]
	HAL_GPIO_Init(GPIOB, &GPIO_InitStruct);
 8001402:	f107 0310 	add.w	r3, r7, #16
 8001406:	4619      	mov	r1, r3
 8001408:	480c      	ldr	r0, [pc, #48]	; (800143c <MX_GPIO_Init+0x1c0>)
 800140a:	f002 fa99 	bl	8003940 <HAL_GPIO_Init>

	/*Configure GPIO pin : PB4 */
	GPIO_InitStruct.Pin = GPIO_PIN_4;
 800140e:	2310      	movs	r3, #16
 8001410:	613b      	str	r3, [r7, #16]
	GPIO_InitStruct.Mode = GPIO_MODE_INPUT;
 8001412:	2300      	movs	r3, #0
 8001414:	617b      	str	r3, [r7, #20]
	GPIO_InitStruct.Pull = GPIO_NOPULL;
 8001416:	2300      	movs	r3, #0
 8001418:	61bb      	str	r3, [r7, #24]
	HAL_GPIO_Init(GPIOB, &GPIO_InitStruct);
 800141a:	f107 0310 	add.w	r3, r7, #16
 800141e:	4619      	mov	r1, r3
 8001420:	4806      	ldr	r0, [pc, #24]	; (800143c <MX_GPIO_Init+0x1c0>)
 8001422:	f002 fa8d 	bl	8003940 <HAL_GPIO_Init>

}
 8001426:	bf00      	nop
 8001428:	3720      	adds	r7, #32
 800142a:	46bd      	mov	sp, r7
 800142c:	bd80      	pop	{r7, pc}
 800142e:	bf00      	nop
 8001430:	40021000 	.word	0x40021000
 8001434:	40011000 	.word	0x40011000
 8001438:	40010800 	.word	0x40010800
 800143c:	40010c00 	.word	0x40010c00
 8001440:	10210000 	.word	0x10210000

08001444 <CAN_Filter_Config>:
//	HAL_GPIO_EXTI_IRQHandler(GPIO_PIN_8);
//	p_rpm += 1;
//}

/*Configure can filters */
void CAN_Filter_Config(void) {
 8001444:	b580      	push	{r7, lr}
 8001446:	b08a      	sub	sp, #40	; 0x28
 8001448:	af00      	add	r7, sp, #0
	CAN_FilterTypeDef can_filt;
	can_filt.FilterActivation = ENABLE;
 800144a:	2301      	movs	r3, #1
 800144c:	623b      	str	r3, [r7, #32]
	can_filt.FilterBank = 0;
 800144e:	2300      	movs	r3, #0
 8001450:	617b      	str	r3, [r7, #20]
	can_filt.FilterFIFOAssignment = CAN_RX_FIFO0;
 8001452:	2300      	movs	r3, #0
 8001454:	613b      	str	r3, [r7, #16]
	can_filt.FilterIdHigh = 0x0000;
 8001456:	2300      	movs	r3, #0
 8001458:	603b      	str	r3, [r7, #0]
	can_filt.FilterIdLow = 0x0000;
 800145a:	2300      	movs	r3, #0
 800145c:	607b      	str	r3, [r7, #4]
	can_filt.FilterMaskIdHigh = 0x0000;
 800145e:	2300      	movs	r3, #0
 8001460:	60bb      	str	r3, [r7, #8]
	can_filt.FilterMaskIdLow = 0x0000;
 8001462:	2300      	movs	r3, #0
 8001464:	60fb      	str	r3, [r7, #12]
	can_filt.FilterMode = CAN_FILTERMODE_IDMASK;
 8001466:	2300      	movs	r3, #0
 8001468:	61bb      	str	r3, [r7, #24]
	can_filt.FilterScale = CAN_FILTERSCALE_32BIT;
 800146a:	2301      	movs	r3, #1
 800146c:	61fb      	str	r3, [r7, #28]

	if (HAL_CAN_ConfigFilter(&hcan, &can_filt) != HAL_OK) {
 800146e:	463b      	mov	r3, r7
 8001470:	4619      	mov	r1, r3
 8001472:	4806      	ldr	r0, [pc, #24]	; (800148c <CAN_Filter_Config+0x48>)
 8001474:	f001 fb63 	bl	8002b3e <HAL_CAN_ConfigFilter>
 8001478:	4603      	mov	r3, r0
 800147a:	2b00      	cmp	r3, #0
 800147c:	d001      	beq.n	8001482 <CAN_Filter_Config+0x3e>
		Error_Handler();
 800147e:	f000 fbf5 	bl	8001c6c <Error_Handler>
	}
}
 8001482:	bf00      	nop
 8001484:	3728      	adds	r7, #40	; 0x28
 8001486:	46bd      	mov	sp, r7
 8001488:	bd80      	pop	{r7, pc}
 800148a:	bf00      	nop
 800148c:	20002210 	.word	0x20002210

08001490 <Start_taskF>:

void Start_taskF(void *pvParameters) {
 8001490:	b580      	push	{r7, lr}
 8001492:	b084      	sub	sp, #16
 8001494:	af02      	add	r7, sp, #8
 8001496:	6078      	str	r0, [r7, #4]

	xSemaphore = xSemaphoreCreateBinary();
 8001498:	2203      	movs	r2, #3
 800149a:	2100      	movs	r1, #0
 800149c:	2001      	movs	r0, #1
 800149e:	f004 f95f 	bl	8005760 <xQueueGenericCreate>
 80014a2:	4602      	mov	r2, r0
 80014a4:	4b2e      	ldr	r3, [pc, #184]	; (8001560 <Start_taskF+0xd0>)
 80014a6:	601a      	str	r2, [r3, #0]
	vTaskDelay(1);
 80014a8:	2001      	movs	r0, #1
 80014aa:	f004 fc79 	bl	8005da0 <vTaskDelay>
	xTaskCreate(Bat_taskF, "BatTask", 128, NULL, 4, &Bat_Task);
 80014ae:	4b2d      	ldr	r3, [pc, #180]	; (8001564 <Start_taskF+0xd4>)
 80014b0:	9301      	str	r3, [sp, #4]
 80014b2:	2304      	movs	r3, #4
 80014b4:	9300      	str	r3, [sp, #0]
 80014b6:	2300      	movs	r3, #0
 80014b8:	2280      	movs	r2, #128	; 0x80
 80014ba:	492b      	ldr	r1, [pc, #172]	; (8001568 <Start_taskF+0xd8>)
 80014bc:	482b      	ldr	r0, [pc, #172]	; (800156c <Start_taskF+0xdc>)
 80014be:	f004 fa0a 	bl	80058d6 <xTaskCreate>
	vTaskDelay(1);
 80014c2:	2001      	movs	r0, #1
 80014c4:	f004 fc6c 	bl	8005da0 <vTaskDelay>
	xTaskCreate(Fuel_taskF, "FuelTask", 128, NULL, 4, &Fuel_Task);
 80014c8:	4b29      	ldr	r3, [pc, #164]	; (8001570 <Start_taskF+0xe0>)
 80014ca:	9301      	str	r3, [sp, #4]
 80014cc:	2304      	movs	r3, #4
 80014ce:	9300      	str	r3, [sp, #0]
 80014d0:	2300      	movs	r3, #0
 80014d2:	2280      	movs	r2, #128	; 0x80
 80014d4:	4927      	ldr	r1, [pc, #156]	; (8001574 <Start_taskF+0xe4>)
 80014d6:	4828      	ldr	r0, [pc, #160]	; (8001578 <Start_taskF+0xe8>)
 80014d8:	f004 f9fd 	bl	80058d6 <xTaskCreate>
	vTaskDelay(1);
 80014dc:	2001      	movs	r0, #1
 80014de:	f004 fc5f 	bl	8005da0 <vTaskDelay>
	xTaskCreate(Speed_taskF, "SpeedTask", 128, NULL, 4, &Speed_Task);
 80014e2:	4b26      	ldr	r3, [pc, #152]	; (800157c <Start_taskF+0xec>)
 80014e4:	9301      	str	r3, [sp, #4]
 80014e6:	2304      	movs	r3, #4
 80014e8:	9300      	str	r3, [sp, #0]
 80014ea:	2300      	movs	r3, #0
 80014ec:	2280      	movs	r2, #128	; 0x80
 80014ee:	4924      	ldr	r1, [pc, #144]	; (8001580 <Start_taskF+0xf0>)
 80014f0:	4824      	ldr	r0, [pc, #144]	; (8001584 <Start_taskF+0xf4>)
 80014f2:	f004 f9f0 	bl	80058d6 <xTaskCreate>
	vTaskDelay(1);
 80014f6:	2001      	movs	r0, #1
 80014f8:	f004 fc52 	bl	8005da0 <vTaskDelay>
	xTaskCreate(Temp_taskF, "TempTask", 128, NULL, 5, &Temp_Task);
 80014fc:	4b22      	ldr	r3, [pc, #136]	; (8001588 <Start_taskF+0xf8>)
 80014fe:	9301      	str	r3, [sp, #4]
 8001500:	2305      	movs	r3, #5
 8001502:	9300      	str	r3, [sp, #0]
 8001504:	2300      	movs	r3, #0
 8001506:	2280      	movs	r2, #128	; 0x80
 8001508:	4920      	ldr	r1, [pc, #128]	; (800158c <Start_taskF+0xfc>)
 800150a:	4821      	ldr	r0, [pc, #132]	; (8001590 <Start_taskF+0x100>)
 800150c:	f004 f9e3 	bl	80058d6 <xTaskCreate>
	vTaskDelay(1);
 8001510:	2001      	movs	r0, #1
 8001512:	f004 fc45 	bl	8005da0 <vTaskDelay>
	xTaskCreate(RPM_taskF, "RPMTask", 128, NULL, 4, &RPM_Task);
 8001516:	4b1f      	ldr	r3, [pc, #124]	; (8001594 <Start_taskF+0x104>)
 8001518:	9301      	str	r3, [sp, #4]
 800151a:	2304      	movs	r3, #4
 800151c:	9300      	str	r3, [sp, #0]
 800151e:	2300      	movs	r3, #0
 8001520:	2280      	movs	r2, #128	; 0x80
 8001522:	491d      	ldr	r1, [pc, #116]	; (8001598 <Start_taskF+0x108>)
 8001524:	481d      	ldr	r0, [pc, #116]	; (800159c <Start_taskF+0x10c>)
 8001526:	f004 f9d6 	bl	80058d6 <xTaskCreate>
	vTaskDelay(1);
 800152a:	2001      	movs	r0, #1
 800152c:	f004 fc38 	bl	8005da0 <vTaskDelay>
	xTaskCreate(OD_taskF, "ODTask", 128, NULL, 2, &OD_Task);
 8001530:	4b1b      	ldr	r3, [pc, #108]	; (80015a0 <Start_taskF+0x110>)
 8001532:	9301      	str	r3, [sp, #4]
 8001534:	2302      	movs	r3, #2
 8001536:	9300      	str	r3, [sp, #0]
 8001538:	2300      	movs	r3, #0
 800153a:	2280      	movs	r2, #128	; 0x80
 800153c:	4919      	ldr	r1, [pc, #100]	; (80015a4 <Start_taskF+0x114>)
 800153e:	481a      	ldr	r0, [pc, #104]	; (80015a8 <Start_taskF+0x118>)
 8001540:	f004 f9c9 	bl	80058d6 <xTaskCreate>

	if (Start_Task != NULL) {
 8001544:	4b19      	ldr	r3, [pc, #100]	; (80015ac <Start_taskF+0x11c>)
 8001546:	681b      	ldr	r3, [r3, #0]
 8001548:	2b00      	cmp	r3, #0
 800154a:	d004      	beq.n	8001556 <Start_taskF+0xc6>
		vTaskDelete(Start_Task);
 800154c:	4b17      	ldr	r3, [pc, #92]	; (80015ac <Start_taskF+0x11c>)
 800154e:	681b      	ldr	r3, [r3, #0]
 8001550:	4618      	mov	r0, r3
 8001552:	f004 fb0b 	bl	8005b6c <vTaskDelete>
	}

}
 8001556:	bf00      	nop
 8001558:	3708      	adds	r7, #8
 800155a:	46bd      	mov	sp, r7
 800155c:	bd80      	pop	{r7, pc}
 800155e:	bf00      	nop
 8001560:	2000220c 	.word	0x2000220c
 8001564:	20002238 	.word	0x20002238
 8001568:	08008478 	.word	0x08008478
 800156c:	080015b1 	.word	0x080015b1
 8001570:	20002208 	.word	0x20002208
 8001574:	08008480 	.word	0x08008480
 8001578:	08001681 	.word	0x08001681
 800157c:	2000223c 	.word	0x2000223c
 8001580:	0800848c 	.word	0x0800848c
 8001584:	08001915 	.word	0x08001915
 8001588:	200022bc 	.word	0x200022bc
 800158c:	08008498 	.word	0x08008498
 8001590:	08001a81 	.word	0x08001a81
 8001594:	20002204 	.word	0x20002204
 8001598:	080084a4 	.word	0x080084a4
 800159c:	080019d5 	.word	0x080019d5
 80015a0:	200021ac 	.word	0x200021ac
 80015a4:	080084ac 	.word	0x080084ac
 80015a8:	08001be5 	.word	0x08001be5
 80015ac:	200022c0 	.word	0x200022c0

080015b0 <Bat_taskF>:

/*Battery level read task */
void Bat_taskF(void *pvParameters) {
 80015b0:	b580      	push	{r7, lr}
 80015b2:	b092      	sub	sp, #72	; 0x48
 80015b4:	af00      	add	r7, sp, #0
 80015b6:	6078      	str	r0, [r7, #4]
	TickType_t xLastWakeTime;
	const TickType_t xFrequency = 1000;  //Ticks to wait since routine starts
 80015b8:	f44f 737a 	mov.w	r3, #1000	; 0x3e8
 80015bc:	647b      	str	r3, [r7, #68]	; 0x44
	xLastWakeTime = xTaskGetTickCount();
 80015be:	f004 fd33 	bl	8006028 <xTaskGetTickCount>
 80015c2:	4603      	mov	r3, r0
 80015c4:	62fb      	str	r3, [r7, #44]	; 0x2c
	while (1) {
		uint8_t batbuff[2];
		uint16_t batAD = analog[0];
 80015c6:	4b28      	ldr	r3, [pc, #160]	; (8001668 <Bat_taskF+0xb8>)
 80015c8:	881b      	ldrh	r3, [r3, #0]
 80015ca:	f8a7 3042 	strh.w	r3, [r7, #66]	; 0x42
		float bat_a = 0.0004502626;
 80015ce:	4b27      	ldr	r3, [pc, #156]	; (800166c <Bat_taskF+0xbc>)
 80015d0:	63fb      	str	r3, [r7, #60]	; 0x3c
		float bat_b = 2.4948762146;
 80015d2:	4b27      	ldr	r3, [pc, #156]	; (8001670 <Bat_taskF+0xc0>)
 80015d4:	63bb      	str	r3, [r7, #56]	; 0x38
		float bat_v =  30*(((float)batAD * bat_a) + bat_b);
 80015d6:	f8b7 3042 	ldrh.w	r3, [r7, #66]	; 0x42
 80015da:	4618      	mov	r0, r3
 80015dc:	f7ff fad2 	bl	8000b84 <__aeabi_ui2f>
 80015e0:	4603      	mov	r3, r0
 80015e2:	6bf9      	ldr	r1, [r7, #60]	; 0x3c
 80015e4:	4618      	mov	r0, r3
 80015e6:	f7ff fb25 	bl	8000c34 <__aeabi_fmul>
 80015ea:	4603      	mov	r3, r0
 80015ec:	6bb9      	ldr	r1, [r7, #56]	; 0x38
 80015ee:	4618      	mov	r0, r3
 80015f0:	f7ff fa18 	bl	8000a24 <__addsf3>
 80015f4:	4603      	mov	r3, r0
 80015f6:	491f      	ldr	r1, [pc, #124]	; (8001674 <Bat_taskF+0xc4>)
 80015f8:	4618      	mov	r0, r3
 80015fa:	f7ff fb1b 	bl	8000c34 <__aeabi_fmul>
 80015fe:	4603      	mov	r3, r0
 8001600:	637b      	str	r3, [r7, #52]	; 0x34
		uint16_t batCAN = (uint16_t) bat_v;
 8001602:	6b78      	ldr	r0, [r7, #52]	; 0x34
 8001604:	f7ff fc66 	bl	8000ed4 <__aeabi_f2uiz>
 8001608:	4603      	mov	r3, r0
 800160a:	867b      	strh	r3, [r7, #50]	; 0x32

		batbuff[0] = (uint8_t) (batCAN >> 8) & 0xFF;
 800160c:	8e7b      	ldrh	r3, [r7, #50]	; 0x32
 800160e:	0a1b      	lsrs	r3, r3, #8
 8001610:	b29b      	uxth	r3, r3
 8001612:	b2db      	uxtb	r3, r3
 8001614:	f887 3028 	strb.w	r3, [r7, #40]	; 0x28
		batbuff[1] = (uint8_t) batCAN & 0xFF;
 8001618:	8e7b      	ldrh	r3, [r7, #50]	; 0x32
 800161a:	b2db      	uxtb	r3, r3
 800161c:	f887 3029 	strb.w	r3, [r7, #41]	; 0x29

		uint32_t TxMailbox;
		CAN_TxHeaderTypeDef BatHeader;

		BatHeader.DLC = 2;
 8001620:	2302      	movs	r3, #2
 8001622:	61fb      	str	r3, [r7, #28]
		BatHeader.StdId = 0x650;
 8001624:	f44f 63ca 	mov.w	r3, #1616	; 0x650
 8001628:	60fb      	str	r3, [r7, #12]
		BatHeader.IDE = CAN_ID_STD;
 800162a:	2300      	movs	r3, #0
 800162c:	617b      	str	r3, [r7, #20]
		BatHeader.RTR = CAN_RTR_DATA;
 800162e:	2300      	movs	r3, #0
 8001630:	61bb      	str	r3, [r7, #24]

		if (HAL_CAN_AddTxMessage(&hcan, &BatHeader, batbuff, &TxMailbox)
 8001632:	f107 0324 	add.w	r3, r7, #36	; 0x24
 8001636:	f107 0228 	add.w	r2, r7, #40	; 0x28
 800163a:	f107 010c 	add.w	r1, r7, #12
 800163e:	480e      	ldr	r0, [pc, #56]	; (8001678 <Bat_taskF+0xc8>)
 8001640:	f001 fb8a 	bl	8002d58 <HAL_CAN_AddTxMessage>
 8001644:	4603      	mov	r3, r0
 8001646:	2b00      	cmp	r3, #0
 8001648:	d001      	beq.n	800164e <Bat_taskF+0x9e>
				!= HAL_OK) {
			Error_Handler();
 800164a:	f000 fb0f 	bl	8001c6c <Error_Handler>
		}
		HAL_GPIO_TogglePin(GPIOC, GPIO_PIN_13);
 800164e:	f44f 5100 	mov.w	r1, #8192	; 0x2000
 8001652:	480a      	ldr	r0, [pc, #40]	; (800167c <Bat_taskF+0xcc>)
 8001654:	f002 fafd 	bl	8003c52 <HAL_GPIO_TogglePin>
		vTaskDelayUntil(&xLastWakeTime, xFrequency); /*1Hz frequency*/
 8001658:	f107 032c 	add.w	r3, r7, #44	; 0x2c
 800165c:	6c79      	ldr	r1, [r7, #68]	; 0x44
 800165e:	4618      	mov	r0, r3
 8001660:	f004 fb20 	bl	8005ca4 <vTaskDelayUntil>
	while (1) {
 8001664:	e7af      	b.n	80015c6 <Bat_taskF+0x16>
 8001666:	bf00      	nop
 8001668:	200021a4 	.word	0x200021a4
 800166c:	39ec1139 	.word	0x39ec1139
 8001670:	401fac0d 	.word	0x401fac0d
 8001674:	41f00000 	.word	0x41f00000
 8001678:	20002210 	.word	0x20002210
 800167c:	40011000 	.word	0x40011000

08001680 <Fuel_taskF>:
	}
}

/*Fuel level read task */
void Fuel_taskF(void *pvParameters) {
 8001680:	b5b0      	push	{r4, r5, r7, lr}
 8001682:	b0a0      	sub	sp, #128	; 0x80
 8001684:	af00      	add	r7, sp, #0
 8001686:	6078      	str	r0, [r7, #4]
	TickType_t xLastWakeTime;
	const TickType_t xFrequency = 20;  //Ticks to wait since routine starts
 8001688:	2314      	movs	r3, #20
 800168a:	67fb      	str	r3, [r7, #124]	; 0x7c
	xLastWakeTime = xTaskGetTickCount();
 800168c:	f004 fccc 	bl	8006028 <xTaskGetTickCount>
 8001690:	4603      	mov	r3, r0
 8001692:	66fb      	str	r3, [r7, #108]	; 0x6c
	while (1) {
		uint8_t fuelbuff[2];
		uint8_t fuelbuff1[2];
		uint8_t fuelbuff2[2];

		uint16_t fuel_a = analog[1];
 8001694:	4b9a      	ldr	r3, [pc, #616]	; (8001900 <Fuel_taskF+0x280>)
 8001696:	885b      	ldrh	r3, [r3, #2]
 8001698:	f8a7 307a 	strh.w	r3, [r7, #122]	; 0x7a
		fuel_f =  0.998744152176286*fuel_f  + (1-0.998744152176286) * (float)fuel_a;
 800169c:	4b99      	ldr	r3, [pc, #612]	; (8001904 <Fuel_taskF+0x284>)
 800169e:	681b      	ldr	r3, [r3, #0]
 80016a0:	4618      	mov	r0, r3
 80016a2:	f7fe feff 	bl	80004a4 <__aeabi_f2d>
 80016a6:	a38a      	add	r3, pc, #552	; (adr r3, 80018d0 <Fuel_taskF+0x250>)
 80016a8:	e9d3 2300 	ldrd	r2, r3, [r3]
 80016ac:	f7fe ff52 	bl	8000554 <__aeabi_dmul>
 80016b0:	4603      	mov	r3, r0
 80016b2:	460c      	mov	r4, r1
 80016b4:	4625      	mov	r5, r4
 80016b6:	461c      	mov	r4, r3
 80016b8:	f8b7 307a 	ldrh.w	r3, [r7, #122]	; 0x7a
 80016bc:	4618      	mov	r0, r3
 80016be:	f7ff fa61 	bl	8000b84 <__aeabi_ui2f>
 80016c2:	4603      	mov	r3, r0
 80016c4:	4618      	mov	r0, r3
 80016c6:	f7fe feed 	bl	80004a4 <__aeabi_f2d>
 80016ca:	a383      	add	r3, pc, #524	; (adr r3, 80018d8 <Fuel_taskF+0x258>)
 80016cc:	e9d3 2300 	ldrd	r2, r3, [r3]
 80016d0:	f7fe ff40 	bl	8000554 <__aeabi_dmul>
 80016d4:	4602      	mov	r2, r0
 80016d6:	460b      	mov	r3, r1
 80016d8:	4620      	mov	r0, r4
 80016da:	4629      	mov	r1, r5
 80016dc:	f7fe fd84 	bl	80001e8 <__adddf3>
 80016e0:	4603      	mov	r3, r0
 80016e2:	460c      	mov	r4, r1
 80016e4:	4618      	mov	r0, r3
 80016e6:	4621      	mov	r1, r4
 80016e8:	f7ff f946 	bl	8000978 <__aeabi_d2f>
 80016ec:	4602      	mov	r2, r0
 80016ee:	4b85      	ldr	r3, [pc, #532]	; (8001904 <Fuel_taskF+0x284>)
 80016f0:	601a      	str	r2, [r3, #0]
		fuel_f1 = 0.999874344189209*fuel_f1 + (1-0.999874344189209) * (float)fuel_a;
 80016f2:	4b85      	ldr	r3, [pc, #532]	; (8001908 <Fuel_taskF+0x288>)
 80016f4:	681b      	ldr	r3, [r3, #0]
 80016f6:	4618      	mov	r0, r3
 80016f8:	f7fe fed4 	bl	80004a4 <__aeabi_f2d>
 80016fc:	a378      	add	r3, pc, #480	; (adr r3, 80018e0 <Fuel_taskF+0x260>)
 80016fe:	e9d3 2300 	ldrd	r2, r3, [r3]
 8001702:	f7fe ff27 	bl	8000554 <__aeabi_dmul>
 8001706:	4603      	mov	r3, r0
 8001708:	460c      	mov	r4, r1
 800170a:	4625      	mov	r5, r4
 800170c:	461c      	mov	r4, r3
 800170e:	f8b7 307a 	ldrh.w	r3, [r7, #122]	; 0x7a
 8001712:	4618      	mov	r0, r3
 8001714:	f7ff fa36 	bl	8000b84 <__aeabi_ui2f>
 8001718:	4603      	mov	r3, r0
 800171a:	4618      	mov	r0, r3
 800171c:	f7fe fec2 	bl	80004a4 <__aeabi_f2d>
 8001720:	a371      	add	r3, pc, #452	; (adr r3, 80018e8 <Fuel_taskF+0x268>)
 8001722:	e9d3 2300 	ldrd	r2, r3, [r3]
 8001726:	f7fe ff15 	bl	8000554 <__aeabi_dmul>
 800172a:	4602      	mov	r2, r0
 800172c:	460b      	mov	r3, r1
 800172e:	4620      	mov	r0, r4
 8001730:	4629      	mov	r1, r5
 8001732:	f7fe fd59 	bl	80001e8 <__adddf3>
 8001736:	4603      	mov	r3, r0
 8001738:	460c      	mov	r4, r1
 800173a:	4618      	mov	r0, r3
 800173c:	4621      	mov	r1, r4
 800173e:	f7ff f91b 	bl	8000978 <__aeabi_d2f>
 8001742:	4602      	mov	r2, r0
 8001744:	4b70      	ldr	r3, [pc, #448]	; (8001908 <Fuel_taskF+0x288>)
 8001746:	601a      	str	r2, [r3, #0]
		fuel_f2 = 0.999987433708342*fuel_f2 + (1-0.999987433708342) * (float)fuel_a;
 8001748:	4b70      	ldr	r3, [pc, #448]	; (800190c <Fuel_taskF+0x28c>)
 800174a:	681b      	ldr	r3, [r3, #0]
 800174c:	4618      	mov	r0, r3
 800174e:	f7fe fea9 	bl	80004a4 <__aeabi_f2d>
 8001752:	a367      	add	r3, pc, #412	; (adr r3, 80018f0 <Fuel_taskF+0x270>)
 8001754:	e9d3 2300 	ldrd	r2, r3, [r3]
 8001758:	f7fe fefc 	bl	8000554 <__aeabi_dmul>
 800175c:	4603      	mov	r3, r0
 800175e:	460c      	mov	r4, r1
 8001760:	4625      	mov	r5, r4
 8001762:	461c      	mov	r4, r3
 8001764:	f8b7 307a 	ldrh.w	r3, [r7, #122]	; 0x7a
 8001768:	4618      	mov	r0, r3
 800176a:	f7ff fa0b 	bl	8000b84 <__aeabi_ui2f>
 800176e:	4603      	mov	r3, r0
 8001770:	4618      	mov	r0, r3
 8001772:	f7fe fe97 	bl	80004a4 <__aeabi_f2d>
 8001776:	a360      	add	r3, pc, #384	; (adr r3, 80018f8 <Fuel_taskF+0x278>)
 8001778:	e9d3 2300 	ldrd	r2, r3, [r3]
 800177c:	f7fe feea 	bl	8000554 <__aeabi_dmul>
 8001780:	4602      	mov	r2, r0
 8001782:	460b      	mov	r3, r1
 8001784:	4620      	mov	r0, r4
 8001786:	4629      	mov	r1, r5
 8001788:	f7fe fd2e 	bl	80001e8 <__adddf3>
 800178c:	4603      	mov	r3, r0
 800178e:	460c      	mov	r4, r1
 8001790:	4618      	mov	r0, r3
 8001792:	4621      	mov	r1, r4
 8001794:	f7ff f8f0 	bl	8000978 <__aeabi_d2f>
 8001798:	4602      	mov	r2, r0
 800179a:	4b5c      	ldr	r3, [pc, #368]	; (800190c <Fuel_taskF+0x28c>)
 800179c:	601a      	str	r2, [r3, #0]

		uint16_t fuel_c = (uint16_t)fuel_f;
 800179e:	4b59      	ldr	r3, [pc, #356]	; (8001904 <Fuel_taskF+0x284>)
 80017a0:	681b      	ldr	r3, [r3, #0]
 80017a2:	4618      	mov	r0, r3
 80017a4:	f7ff fb96 	bl	8000ed4 <__aeabi_f2uiz>
 80017a8:	4603      	mov	r3, r0
 80017aa:	f8a7 3078 	strh.w	r3, [r7, #120]	; 0x78
		uint32_t fuel_c1 = (uint16_t)fuel_f1;
 80017ae:	4b56      	ldr	r3, [pc, #344]	; (8001908 <Fuel_taskF+0x288>)
 80017b0:	681b      	ldr	r3, [r3, #0]
 80017b2:	4618      	mov	r0, r3
 80017b4:	f7ff fb8e 	bl	8000ed4 <__aeabi_f2uiz>
 80017b8:	4603      	mov	r3, r0
 80017ba:	b29b      	uxth	r3, r3
 80017bc:	677b      	str	r3, [r7, #116]	; 0x74
		uint32_t fuel_c2 = (uint16_t)fuel_f2;
 80017be:	4b53      	ldr	r3, [pc, #332]	; (800190c <Fuel_taskF+0x28c>)
 80017c0:	681b      	ldr	r3, [r3, #0]
 80017c2:	4618      	mov	r0, r3
 80017c4:	f7ff fb86 	bl	8000ed4 <__aeabi_f2uiz>
 80017c8:	4603      	mov	r3, r0
 80017ca:	b29b      	uxth	r3, r3
 80017cc:	673b      	str	r3, [r7, #112]	; 0x70

		fuelbuff[0] = (uint8_t) (fuel_c >> 8) & 0xFF;
 80017ce:	f8b7 3078 	ldrh.w	r3, [r7, #120]	; 0x78
 80017d2:	0a1b      	lsrs	r3, r3, #8
 80017d4:	b29b      	uxth	r3, r3
 80017d6:	b2db      	uxtb	r3, r3
 80017d8:	f887 3068 	strb.w	r3, [r7, #104]	; 0x68
		fuelbuff[1] = (uint8_t) fuel_c & 0xFF;
 80017dc:	f8b7 3078 	ldrh.w	r3, [r7, #120]	; 0x78
 80017e0:	b2db      	uxtb	r3, r3
 80017e2:	f887 3069 	strb.w	r3, [r7, #105]	; 0x69

		fuelbuff1[0] = (uint8_t) (fuel_c1 >> 24);
 80017e6:	6f7b      	ldr	r3, [r7, #116]	; 0x74
 80017e8:	0e1b      	lsrs	r3, r3, #24
 80017ea:	b2db      	uxtb	r3, r3
 80017ec:	f887 3064 	strb.w	r3, [r7, #100]	; 0x64
		fuelbuff1[1] = (uint8_t) (fuel_c1 >> 16);
 80017f0:	6f7b      	ldr	r3, [r7, #116]	; 0x74
 80017f2:	0c1b      	lsrs	r3, r3, #16
 80017f4:	b2db      	uxtb	r3, r3
 80017f6:	f887 3065 	strb.w	r3, [r7, #101]	; 0x65
		fuelbuff1[2] = (uint8_t) (fuel_c1 >> 8);
 80017fa:	6f7b      	ldr	r3, [r7, #116]	; 0x74
 80017fc:	0a1b      	lsrs	r3, r3, #8
 80017fe:	b2db      	uxtb	r3, r3
 8001800:	f887 3066 	strb.w	r3, [r7, #102]	; 0x66
		fuelbuff1[3] = (uint8_t) fuel_c1 & 0xFF;
 8001804:	6f7b      	ldr	r3, [r7, #116]	; 0x74
 8001806:	b2db      	uxtb	r3, r3
 8001808:	f887 3067 	strb.w	r3, [r7, #103]	; 0x67

		fuelbuff2[0] = (uint8_t) (fuel_c2 >> 24);
 800180c:	6f3b      	ldr	r3, [r7, #112]	; 0x70
 800180e:	0e1b      	lsrs	r3, r3, #24
 8001810:	b2db      	uxtb	r3, r3
 8001812:	f887 3060 	strb.w	r3, [r7, #96]	; 0x60
	    fuelbuff2[1] = (uint8_t) (fuel_c2 >> 16);
 8001816:	6f3b      	ldr	r3, [r7, #112]	; 0x70
 8001818:	0c1b      	lsrs	r3, r3, #16
 800181a:	b2db      	uxtb	r3, r3
 800181c:	f887 3061 	strb.w	r3, [r7, #97]	; 0x61
		fuelbuff2[2] = (uint8_t) (fuel_c2 >> 8);
 8001820:	6f3b      	ldr	r3, [r7, #112]	; 0x70
 8001822:	0a1b      	lsrs	r3, r3, #8
 8001824:	b2db      	uxtb	r3, r3
 8001826:	f887 3062 	strb.w	r3, [r7, #98]	; 0x62
		fuelbuff2[3] = (uint8_t) fuel_c2 & 0xFF;
 800182a:	6f3b      	ldr	r3, [r7, #112]	; 0x70
 800182c:	b2db      	uxtb	r3, r3
 800182e:	f887 3063 	strb.w	r3, [r7, #99]	; 0x63

		uint32_t TxMailbox;

		CAN_TxHeaderTypeDef FuelHeader;

		FuelHeader.DLC = 2;
 8001832:	2302      	movs	r3, #2
 8001834:	657b      	str	r3, [r7, #84]	; 0x54
		FuelHeader.StdId = 0x652;
 8001836:	f240 6352 	movw	r3, #1618	; 0x652
 800183a:	647b      	str	r3, [r7, #68]	; 0x44
		FuelHeader.IDE = CAN_ID_STD;
 800183c:	2300      	movs	r3, #0
 800183e:	64fb      	str	r3, [r7, #76]	; 0x4c
		FuelHeader.RTR = CAN_RTR_DATA;
 8001840:	2300      	movs	r3, #0
 8001842:	653b      	str	r3, [r7, #80]	; 0x50

		if (HAL_CAN_AddTxMessage(&hcan, &FuelHeader, fuelbuff, &TxMailbox)
 8001844:	f107 035c 	add.w	r3, r7, #92	; 0x5c
 8001848:	f107 0268 	add.w	r2, r7, #104	; 0x68
 800184c:	f107 0144 	add.w	r1, r7, #68	; 0x44
 8001850:	482f      	ldr	r0, [pc, #188]	; (8001910 <Fuel_taskF+0x290>)
 8001852:	f001 fa81 	bl	8002d58 <HAL_CAN_AddTxMessage>
 8001856:	4603      	mov	r3, r0
 8001858:	2b00      	cmp	r3, #0
 800185a:	d001      	beq.n	8001860 <Fuel_taskF+0x1e0>
				!= HAL_OK) {
			Error_Handler();
 800185c:	f000 fa06 	bl	8001c6c <Error_Handler>

		uint32_t TxMailbox1;

		CAN_TxHeaderTypeDef FuelHeader1;

		FuelHeader.DLC = 2;
 8001860:	2302      	movs	r3, #2
 8001862:	657b      	str	r3, [r7, #84]	; 0x54
		FuelHeader.StdId = 0x668;
 8001864:	f44f 63cd 	mov.w	r3, #1640	; 0x668
 8001868:	647b      	str	r3, [r7, #68]	; 0x44
		FuelHeader.IDE = CAN_ID_STD;
 800186a:	2300      	movs	r3, #0
 800186c:	64fb      	str	r3, [r7, #76]	; 0x4c
		FuelHeader.RTR = CAN_RTR_DATA;
 800186e:	2300      	movs	r3, #0
 8001870:	653b      	str	r3, [r7, #80]	; 0x50

		if (HAL_CAN_AddTxMessage(&hcan, &FuelHeader1, fuelbuff1, &TxMailbox1)
 8001872:	f107 0340 	add.w	r3, r7, #64	; 0x40
 8001876:	f107 0264 	add.w	r2, r7, #100	; 0x64
 800187a:	f107 0128 	add.w	r1, r7, #40	; 0x28
 800187e:	4824      	ldr	r0, [pc, #144]	; (8001910 <Fuel_taskF+0x290>)
 8001880:	f001 fa6a 	bl	8002d58 <HAL_CAN_AddTxMessage>
 8001884:	4603      	mov	r3, r0
 8001886:	2b00      	cmp	r3, #0
 8001888:	d001      	beq.n	800188e <Fuel_taskF+0x20e>
				!= HAL_OK) {
			Error_Handler();
 800188a:	f000 f9ef 	bl	8001c6c <Error_Handler>

		uint32_t TxMailbox2;

		CAN_TxHeaderTypeDef FuelHeader2;

		FuelHeader.DLC = 2;
 800188e:	2302      	movs	r3, #2
 8001890:	657b      	str	r3, [r7, #84]	; 0x54
		FuelHeader.StdId = 0x669;
 8001892:	f240 6369 	movw	r3, #1641	; 0x669
 8001896:	647b      	str	r3, [r7, #68]	; 0x44
		FuelHeader.IDE = CAN_ID_STD;
 8001898:	2300      	movs	r3, #0
 800189a:	64fb      	str	r3, [r7, #76]	; 0x4c
		FuelHeader.RTR = CAN_RTR_DATA;
 800189c:	2300      	movs	r3, #0
 800189e:	653b      	str	r3, [r7, #80]	; 0x50

		if (HAL_CAN_AddTxMessage(&hcan, &FuelHeader2, fuelbuff2, &TxMailbox2)
 80018a0:	f107 0324 	add.w	r3, r7, #36	; 0x24
 80018a4:	f107 0260 	add.w	r2, r7, #96	; 0x60
 80018a8:	f107 010c 	add.w	r1, r7, #12
 80018ac:	4818      	ldr	r0, [pc, #96]	; (8001910 <Fuel_taskF+0x290>)
 80018ae:	f001 fa53 	bl	8002d58 <HAL_CAN_AddTxMessage>
 80018b2:	4603      	mov	r3, r0
 80018b4:	2b00      	cmp	r3, #0
 80018b6:	d001      	beq.n	80018bc <Fuel_taskF+0x23c>
				!= HAL_OK) {
			Error_Handler();
 80018b8:	f000 f9d8 	bl	8001c6c <Error_Handler>
		}
		vTaskDelayUntil(&xLastWakeTime, xFrequency); /*50Hz frequency*/
 80018bc:	f107 036c 	add.w	r3, r7, #108	; 0x6c
 80018c0:	6ff9      	ldr	r1, [r7, #124]	; 0x7c
 80018c2:	4618      	mov	r0, r3
 80018c4:	f004 f9ee 	bl	8005ca4 <vTaskDelayUntil>
	while (1) {
 80018c8:	e6e4      	b.n	8001694 <Fuel_taskF+0x14>
 80018ca:	bf00      	nop
 80018cc:	f3af 8000 	nop.w
 80018d0:	4bd5637f 	.word	0x4bd5637f
 80018d4:	3feff5b6 	.word	0x3feff5b6
 80018d8:	55390200 	.word	0x55390200
 80018dc:	3f549368 	.word	0x3f549368
 80018e0:	7b0cde01 	.word	0x7b0cde01
 80018e4:	3feffef8 	.word	0x3feffef8
 80018e8:	321ff000 	.word	0x321ff000
 80018ec:	3f20784f 	.word	0x3f20784f
 80018f0:	a5860687 	.word	0xa5860687
 80018f4:	3fefffe5 	.word	0x3fefffe5
 80018f8:	f9790000 	.word	0xf9790000
 80018fc:	3eea5a79 	.word	0x3eea5a79
 8001900:	200021a4 	.word	0x200021a4
 8001904:	20000280 	.word	0x20000280
 8001908:	20000284 	.word	0x20000284
 800190c:	20000288 	.word	0x20000288
 8001910:	20002210 	.word	0x20002210

08001914 <Speed_taskF>:
	}
}

/*Speed read task */
void Speed_taskF(void *pvParameters) {
 8001914:	b580      	push	{r7, lr}
 8001916:	b090      	sub	sp, #64	; 0x40
 8001918:	af02      	add	r7, sp, #8
 800191a:	6078      	str	r0, [r7, #4]
	TickType_t xLastWakeTime;
	const TickType_t xFrequency = 200;  //Ticks to wait since routine starts
 800191c:	23c8      	movs	r3, #200	; 0xc8
 800191e:	637b      	str	r3, [r7, #52]	; 0x34
	xLastWakeTime = xTaskGetTickCount();
 8001920:	f004 fb82 	bl	8006028 <xTaskGetTickCount>
 8001924:	4603      	mov	r3, r0
 8001926:	633b      	str	r3, [r7, #48]	; 0x30
	while (1) {
		uint8_t speedbuff[2];
		uint8_t test[1];
		uint8_t dump[1];
		HAL_I2C_Master_Receive(&hi2c2, (0x4 << 1), &test[0], 1, 100);
 8001928:	f107 0228 	add.w	r2, r7, #40	; 0x28
 800192c:	2364      	movs	r3, #100	; 0x64
 800192e:	9300      	str	r3, [sp, #0]
 8001930:	2301      	movs	r3, #1
 8001932:	2108      	movs	r1, #8
 8001934:	4824      	ldr	r0, [pc, #144]	; (80019c8 <Speed_taskF+0xb4>)
 8001936:	f002 facd 	bl	8003ed4 <HAL_I2C_Master_Receive>
		if (test[0] != 0xAA) {
 800193a:	f897 3028 	ldrb.w	r3, [r7, #40]	; 0x28
 800193e:	2baa      	cmp	r3, #170	; 0xaa
 8001940:	d008      	beq.n	8001954 <Speed_taskF+0x40>
			HAL_I2C_Master_Receive(&hi2c2, (0x4 << 1), &dump[0], 1, 100);
 8001942:	f107 0224 	add.w	r2, r7, #36	; 0x24
 8001946:	2364      	movs	r3, #100	; 0x64
 8001948:	9300      	str	r3, [sp, #0]
 800194a:	2301      	movs	r3, #1
 800194c:	2108      	movs	r1, #8
 800194e:	481e      	ldr	r0, [pc, #120]	; (80019c8 <Speed_taskF+0xb4>)
 8001950:	f002 fac0 	bl	8003ed4 <HAL_I2C_Master_Receive>
		}
		HAL_I2C_Master_Receive(&hi2c2, (0x4 << 1), &speedbuff[0], 1, 100);
 8001954:	f107 022c 	add.w	r2, r7, #44	; 0x2c
 8001958:	2364      	movs	r3, #100	; 0x64
 800195a:	9300      	str	r3, [sp, #0]
 800195c:	2301      	movs	r3, #1
 800195e:	2108      	movs	r1, #8
 8001960:	4819      	ldr	r0, [pc, #100]	; (80019c8 <Speed_taskF+0xb4>)
 8001962:	f002 fab7 	bl	8003ed4 <HAL_I2C_Master_Receive>
		HAL_I2C_Master_Receive(&hi2c2, (0x4 << 1), &speedbuff[1], 1, 100);
 8001966:	f107 032c 	add.w	r3, r7, #44	; 0x2c
 800196a:	1c5a      	adds	r2, r3, #1
 800196c:	2364      	movs	r3, #100	; 0x64
 800196e:	9300      	str	r3, [sp, #0]
 8001970:	2301      	movs	r3, #1
 8001972:	2108      	movs	r1, #8
 8001974:	4814      	ldr	r0, [pc, #80]	; (80019c8 <Speed_taskF+0xb4>)
 8001976:	f002 faad 	bl	8003ed4 <HAL_I2C_Master_Receive>
		//HAL_I2C_Master_Receive(&hi2c2, (0x4 << 1), &rpmbuff[0], 1, 100);
		//HAL_I2C_Master_Receive(&hi2c2, (0x4 << 1), &rpmbuff[1], 1, 100);
		HAL_I2C_Master_Receive(&hi2c2, (0x4 << 1), &odbuff[0], 1, 100);
 800197a:	2364      	movs	r3, #100	; 0x64
 800197c:	9300      	str	r3, [sp, #0]
 800197e:	2301      	movs	r3, #1
 8001980:	4a12      	ldr	r2, [pc, #72]	; (80019cc <Speed_taskF+0xb8>)
 8001982:	2108      	movs	r1, #8
 8001984:	4810      	ldr	r0, [pc, #64]	; (80019c8 <Speed_taskF+0xb4>)
 8001986:	f002 faa5 	bl	8003ed4 <HAL_I2C_Master_Receive>
		uint32_t TxMailbox;

		CAN_TxHeaderTypeDef SpeedHeader;

		SpeedHeader.DLC = 2;
 800198a:	2302      	movs	r3, #2
 800198c:	61bb      	str	r3, [r7, #24]
		SpeedHeader.StdId = 0x653;
 800198e:	f240 6353 	movw	r3, #1619	; 0x653
 8001992:	60bb      	str	r3, [r7, #8]
		SpeedHeader.IDE = CAN_ID_STD;
 8001994:	2300      	movs	r3, #0
 8001996:	613b      	str	r3, [r7, #16]
		SpeedHeader.RTR = CAN_RTR_DATA;
 8001998:	2300      	movs	r3, #0
 800199a:	617b      	str	r3, [r7, #20]

		if (HAL_CAN_AddTxMessage(&hcan, &SpeedHeader, speedbuff, &TxMailbox)
 800199c:	f107 0320 	add.w	r3, r7, #32
 80019a0:	f107 022c 	add.w	r2, r7, #44	; 0x2c
 80019a4:	f107 0108 	add.w	r1, r7, #8
 80019a8:	4809      	ldr	r0, [pc, #36]	; (80019d0 <Speed_taskF+0xbc>)
 80019aa:	f001 f9d5 	bl	8002d58 <HAL_CAN_AddTxMessage>
 80019ae:	4603      	mov	r3, r0
 80019b0:	2b00      	cmp	r3, #0
 80019b2:	d001      	beq.n	80019b8 <Speed_taskF+0xa4>
				!= HAL_OK) {
			Error_Handler();
 80019b4:	f000 f95a 	bl	8001c6c <Error_Handler>
		}

		vTaskDelayUntil(&xLastWakeTime, xFrequency); /*100Hz frequency*/
 80019b8:	f107 0330 	add.w	r3, r7, #48	; 0x30
 80019bc:	6b79      	ldr	r1, [r7, #52]	; 0x34
 80019be:	4618      	mov	r0, r3
 80019c0:	f004 f970 	bl	8005ca4 <vTaskDelayUntil>
	while (1) {
 80019c4:	e7b0      	b.n	8001928 <Speed_taskF+0x14>
 80019c6:	bf00      	nop
 80019c8:	200021b0 	.word	0x200021b0
 80019cc:	200022b8 	.word	0x200022b8
 80019d0:	20002210 	.word	0x20002210

080019d4 <RPM_taskF>:
	}
}

/*RPM read task */
void RPM_taskF(void *pvParameters) {
 80019d4:	b580      	push	{r7, lr}
 80019d6:	b090      	sub	sp, #64	; 0x40
 80019d8:	af02      	add	r7, sp, #8
 80019da:	6078      	str	r0, [r7, #4]
	TickType_t xLastWakeTime;
	const TickType_t xFrequency = 200;  //Ticks to wait since routine starts
 80019dc:	23c8      	movs	r3, #200	; 0xc8
 80019de:	637b      	str	r3, [r7, #52]	; 0x34
	xLastWakeTime = xTaskGetTickCount();
 80019e0:	f004 fb22 	bl	8006028 <xTaskGetTickCount>
 80019e4:	4603      	mov	r3, r0
 80019e6:	633b      	str	r3, [r7, #48]	; 0x30
	while (1) {

		uint8_t test[1];
		uint8_t dump[1];
		HAL_I2C_Master_Receive(&hi2c2, (0x5 << 1), &test[0], 1, 10);
 80019e8:	f107 022c 	add.w	r2, r7, #44	; 0x2c
 80019ec:	230a      	movs	r3, #10
 80019ee:	9300      	str	r3, [sp, #0]
 80019f0:	2301      	movs	r3, #1
 80019f2:	210a      	movs	r1, #10
 80019f4:	481e      	ldr	r0, [pc, #120]	; (8001a70 <RPM_taskF+0x9c>)
 80019f6:	f002 fa6d 	bl	8003ed4 <HAL_I2C_Master_Receive>
		if (test[0] != 0x55){
 80019fa:	f897 302c 	ldrb.w	r3, [r7, #44]	; 0x2c
 80019fe:	2b55      	cmp	r3, #85	; 0x55
 8001a00:	d008      	beq.n	8001a14 <RPM_taskF+0x40>
			HAL_I2C_Master_Receive(&hi2c2, (0x5 << 1), &dump[0], 1, 10);
 8001a02:	f107 0228 	add.w	r2, r7, #40	; 0x28
 8001a06:	230a      	movs	r3, #10
 8001a08:	9300      	str	r3, [sp, #0]
 8001a0a:	2301      	movs	r3, #1
 8001a0c:	210a      	movs	r1, #10
 8001a0e:	4818      	ldr	r0, [pc, #96]	; (8001a70 <RPM_taskF+0x9c>)
 8001a10:	f002 fa60 	bl	8003ed4 <HAL_I2C_Master_Receive>
		}

		HAL_I2C_Master_Receive(&hi2c2, (0x5 << 1), &rpmbuff[0], 1, 10);
 8001a14:	230a      	movs	r3, #10
 8001a16:	9300      	str	r3, [sp, #0]
 8001a18:	2301      	movs	r3, #1
 8001a1a:	4a16      	ldr	r2, [pc, #88]	; (8001a74 <RPM_taskF+0xa0>)
 8001a1c:	210a      	movs	r1, #10
 8001a1e:	4814      	ldr	r0, [pc, #80]	; (8001a70 <RPM_taskF+0x9c>)
 8001a20:	f002 fa58 	bl	8003ed4 <HAL_I2C_Master_Receive>
		HAL_I2C_Master_Receive(&hi2c2, (0x5 << 1), &rpmbuff[1], 1, 10);
 8001a24:	230a      	movs	r3, #10
 8001a26:	9300      	str	r3, [sp, #0]
 8001a28:	2301      	movs	r3, #1
 8001a2a:	4a13      	ldr	r2, [pc, #76]	; (8001a78 <RPM_taskF+0xa4>)
 8001a2c:	210a      	movs	r1, #10
 8001a2e:	4810      	ldr	r0, [pc, #64]	; (8001a70 <RPM_taskF+0x9c>)
 8001a30:	f002 fa50 	bl	8003ed4 <HAL_I2C_Master_Receive>
		uint32_t TxMailbox;


		CAN_TxHeaderTypeDef RPMHeader;

		RPMHeader.DLC = 2;
 8001a34:	2302      	movs	r3, #2
 8001a36:	61fb      	str	r3, [r7, #28]
		RPMHeader.StdId = 0x654;
 8001a38:	f240 6354 	movw	r3, #1620	; 0x654
 8001a3c:	60fb      	str	r3, [r7, #12]
		RPMHeader.IDE = CAN_ID_STD;
 8001a3e:	2300      	movs	r3, #0
 8001a40:	617b      	str	r3, [r7, #20]
		RPMHeader.RTR = CAN_RTR_DATA;
 8001a42:	2300      	movs	r3, #0
 8001a44:	61bb      	str	r3, [r7, #24]

		if (HAL_CAN_AddTxMessage(&hcan, &RPMHeader, rpmbuff, &TxMailbox)
 8001a46:	f107 0324 	add.w	r3, r7, #36	; 0x24
 8001a4a:	f107 010c 	add.w	r1, r7, #12
 8001a4e:	4a09      	ldr	r2, [pc, #36]	; (8001a74 <RPM_taskF+0xa0>)
 8001a50:	480a      	ldr	r0, [pc, #40]	; (8001a7c <RPM_taskF+0xa8>)
 8001a52:	f001 f981 	bl	8002d58 <HAL_CAN_AddTxMessage>
 8001a56:	4603      	mov	r3, r0
 8001a58:	2b00      	cmp	r3, #0
 8001a5a:	d001      	beq.n	8001a60 <RPM_taskF+0x8c>
				!= HAL_OK) {
			Error_Handler();
 8001a5c:	f000 f906 	bl	8001c6c <Error_Handler>
		}

		vTaskDelayUntil(&xLastWakeTime, xFrequency); /*5Hz frequency*/
 8001a60:	f107 0330 	add.w	r3, r7, #48	; 0x30
 8001a64:	6b79      	ldr	r1, [r7, #52]	; 0x34
 8001a66:	4618      	mov	r0, r3
 8001a68:	f004 f91c 	bl	8005ca4 <vTaskDelayUntil>
	while (1) {
 8001a6c:	e7bc      	b.n	80019e8 <RPM_taskF+0x14>
 8001a6e:	bf00      	nop
 8001a70:	200021b0 	.word	0x200021b0
 8001a74:	200021a0 	.word	0x200021a0
 8001a78:	200021a1 	.word	0x200021a1
 8001a7c:	20002210 	.word	0x20002210

08001a80 <Temp_taskF>:
	}
}

/*Temperature read task */
void Temp_taskF(void *pvParameters) {
 8001a80:	b580      	push	{r7, lr}
 8001a82:	b092      	sub	sp, #72	; 0x48
 8001a84:	af00      	add	r7, sp, #0
 8001a86:	6078      	str	r0, [r7, #4]
	TickType_t xLastWakeTime;
	const TickType_t xFrequency = 200;  //Ticks to wait since routine starts
 8001a88:	23c8      	movs	r3, #200	; 0xc8
 8001a8a:	643b      	str	r3, [r7, #64]	; 0x40
	xLastWakeTime = xTaskGetTickCount();
 8001a8c:	f004 facc 	bl	8006028 <xTaskGetTickCount>
 8001a90:	4603      	mov	r3, r0
 8001a92:	63fb      	str	r3, [r7, #60]	; 0x3c
	while (1) {
		uint8_t tempdata[16];

		CSen
 8001a94:	2200      	movs	r2, #0
 8001a96:	f44f 4100 	mov.w	r1, #32768	; 0x8000
 8001a9a:	484e      	ldr	r0, [pc, #312]	; (8001bd4 <Temp_taskF+0x154>)
 8001a9c:	f002 f8c1 	bl	8003c22 <HAL_GPIO_WritePin>
		for (int i = 0; i < 16; i++) {
 8001aa0:	2300      	movs	r3, #0
 8001aa2:	647b      	str	r3, [r7, #68]	; 0x44
 8001aa4:	e018      	b.n	8001ad8 <Temp_taskF+0x58>
			SCK_H
 8001aa6:	2200      	movs	r2, #0
 8001aa8:	2108      	movs	r1, #8
 8001aaa:	484b      	ldr	r0, [pc, #300]	; (8001bd8 <Temp_taskF+0x158>)
 8001aac:	f002 f8b9 	bl	8003c22 <HAL_GPIO_WritePin>
			tempdata[i] = HAL_GPIO_ReadPin(GPIOB, GPIO_PIN_4);
 8001ab0:	2110      	movs	r1, #16
 8001ab2:	4849      	ldr	r0, [pc, #292]	; (8001bd8 <Temp_taskF+0x158>)
 8001ab4:	f002 f89e 	bl	8003bf4 <HAL_GPIO_ReadPin>
 8001ab8:	4603      	mov	r3, r0
 8001aba:	4619      	mov	r1, r3
 8001abc:	f107 022c 	add.w	r2, r7, #44	; 0x2c
 8001ac0:	6c7b      	ldr	r3, [r7, #68]	; 0x44
 8001ac2:	4413      	add	r3, r2
 8001ac4:	460a      	mov	r2, r1
 8001ac6:	701a      	strb	r2, [r3, #0]
			SCK_L
 8001ac8:	2201      	movs	r2, #1
 8001aca:	2108      	movs	r1, #8
 8001acc:	4842      	ldr	r0, [pc, #264]	; (8001bd8 <Temp_taskF+0x158>)
 8001ace:	f002 f8a8 	bl	8003c22 <HAL_GPIO_WritePin>
		for (int i = 0; i < 16; i++) {
 8001ad2:	6c7b      	ldr	r3, [r7, #68]	; 0x44
 8001ad4:	3301      	adds	r3, #1
 8001ad6:	647b      	str	r3, [r7, #68]	; 0x44
 8001ad8:	6c7b      	ldr	r3, [r7, #68]	; 0x44
 8001ada:	2b0f      	cmp	r3, #15
 8001adc:	dde3      	ble.n	8001aa6 <Temp_taskF+0x26>
		}
		CSdis
 8001ade:	2201      	movs	r2, #1
 8001ae0:	f44f 4100 	mov.w	r1, #32768	; 0x8000
 8001ae4:	483b      	ldr	r0, [pc, #236]	; (8001bd4 <Temp_taskF+0x154>)
 8001ae6:	f002 f89c 	bl	8003c22 <HAL_GPIO_WritePin>

		if (tempdata[13] == 0) {
 8001aea:	f897 3039 	ldrb.w	r3, [r7, #57]	; 0x39
 8001aee:	2b00      	cmp	r3, #0
 8001af0:	d146      	bne.n	8001b80 <Temp_taskF+0x100>
			temp16 = tempdata[1] * 2048 + tempdata[2] * 1024 + tempdata[3] * 512
 8001af2:	f897 302d 	ldrb.w	r3, [r7, #45]	; 0x2d
 8001af6:	005b      	lsls	r3, r3, #1
 8001af8:	f897 202e 	ldrb.w	r2, [r7, #46]	; 0x2e
 8001afc:	4413      	add	r3, r2
 8001afe:	005b      	lsls	r3, r3, #1
 8001b00:	f897 202f 	ldrb.w	r2, [r7, #47]	; 0x2f
 8001b04:	4413      	add	r3, r2
					+ tempdata[4] * 256 + tempdata[5] * 128 + tempdata[6] * 64;
 8001b06:	005b      	lsls	r3, r3, #1
 8001b08:	f897 2030 	ldrb.w	r2, [r7, #48]	; 0x30
 8001b0c:	4413      	add	r3, r2
 8001b0e:	005b      	lsls	r3, r3, #1
 8001b10:	f897 2031 	ldrb.w	r2, [r7, #49]	; 0x31
 8001b14:	4413      	add	r3, r2
 8001b16:	005b      	lsls	r3, r3, #1
 8001b18:	f897 2032 	ldrb.w	r2, [r7, #50]	; 0x32
 8001b1c:	4413      	add	r3, r2
			temp16 = tempdata[1] * 2048 + tempdata[2] * 1024 + tempdata[3] * 512
 8001b1e:	b29b      	uxth	r3, r3
 8001b20:	019b      	lsls	r3, r3, #6
 8001b22:	b29a      	uxth	r2, r3
 8001b24:	4b2d      	ldr	r3, [pc, #180]	; (8001bdc <Temp_taskF+0x15c>)
 8001b26:	801a      	strh	r2, [r3, #0]
			temp16 = temp16 + tempdata[7] * 32 + tempdata[8] * 16
 8001b28:	f897 3033 	ldrb.w	r3, [r7, #51]	; 0x33
 8001b2c:	b29b      	uxth	r3, r3
 8001b2e:	005b      	lsls	r3, r3, #1
 8001b30:	b29a      	uxth	r2, r3
 8001b32:	f897 3034 	ldrb.w	r3, [r7, #52]	; 0x34
 8001b36:	b29b      	uxth	r3, r3
 8001b38:	4413      	add	r3, r2
 8001b3a:	b29b      	uxth	r3, r3
					+ tempdata[9] * 8 + tempdata[10] * 4 + tempdata[11] * 2
 8001b3c:	005b      	lsls	r3, r3, #1
 8001b3e:	b29a      	uxth	r2, r3
 8001b40:	f897 3035 	ldrb.w	r3, [r7, #53]	; 0x35
 8001b44:	b29b      	uxth	r3, r3
 8001b46:	4413      	add	r3, r2
 8001b48:	b29b      	uxth	r3, r3
 8001b4a:	005b      	lsls	r3, r3, #1
 8001b4c:	b29a      	uxth	r2, r3
 8001b4e:	f897 3036 	ldrb.w	r3, [r7, #54]	; 0x36
 8001b52:	b29b      	uxth	r3, r3
 8001b54:	4413      	add	r3, r2
 8001b56:	b29b      	uxth	r3, r3
 8001b58:	005b      	lsls	r3, r3, #1
 8001b5a:	b29a      	uxth	r2, r3
 8001b5c:	f897 3037 	ldrb.w	r3, [r7, #55]	; 0x37
 8001b60:	b29b      	uxth	r3, r3
 8001b62:	4413      	add	r3, r2
 8001b64:	b29b      	uxth	r3, r3
 8001b66:	005b      	lsls	r3, r3, #1
 8001b68:	b29a      	uxth	r2, r3
 8001b6a:	4b1c      	ldr	r3, [pc, #112]	; (8001bdc <Temp_taskF+0x15c>)
 8001b6c:	881b      	ldrh	r3, [r3, #0]
 8001b6e:	4413      	add	r3, r2
 8001b70:	b29a      	uxth	r2, r3
					+ tempdata[12];
 8001b72:	f897 3038 	ldrb.w	r3, [r7, #56]	; 0x38
 8001b76:	b29b      	uxth	r3, r3
 8001b78:	4413      	add	r3, r2
 8001b7a:	b29a      	uxth	r2, r3
			temp16 = temp16 + tempdata[7] * 32 + tempdata[8] * 16
 8001b7c:	4b17      	ldr	r3, [pc, #92]	; (8001bdc <Temp_taskF+0x15c>)
 8001b7e:	801a      	strh	r2, [r3, #0]
			//	temp16 += tempdata[n] * (2048 / (1 << (n - 1)));
			//}
		}

		uint8_t tempbuff[2];
		tempbuff[0] = (uint8_t) (temp16 >> 8) & 0xFF;
 8001b80:	4b16      	ldr	r3, [pc, #88]	; (8001bdc <Temp_taskF+0x15c>)
 8001b82:	881b      	ldrh	r3, [r3, #0]
 8001b84:	0a1b      	lsrs	r3, r3, #8
 8001b86:	b29b      	uxth	r3, r3
 8001b88:	b2db      	uxtb	r3, r3
 8001b8a:	f887 3028 	strb.w	r3, [r7, #40]	; 0x28
		tempbuff[1] = (uint8_t) temp16 & 0xFF;
 8001b8e:	4b13      	ldr	r3, [pc, #76]	; (8001bdc <Temp_taskF+0x15c>)
 8001b90:	881b      	ldrh	r3, [r3, #0]
 8001b92:	b2db      	uxtb	r3, r3
 8001b94:	f887 3029 	strb.w	r3, [r7, #41]	; 0x29

		uint32_t TxMailbox;

		CAN_TxHeaderTypeDef TempHeader;

		TempHeader.DLC = 2;
 8001b98:	2302      	movs	r3, #2
 8001b9a:	61fb      	str	r3, [r7, #28]
		TempHeader.StdId = 0x651;
 8001b9c:	f240 6351 	movw	r3, #1617	; 0x651
 8001ba0:	60fb      	str	r3, [r7, #12]
		TempHeader.IDE = CAN_ID_STD;
 8001ba2:	2300      	movs	r3, #0
 8001ba4:	617b      	str	r3, [r7, #20]
		TempHeader.RTR = CAN_RTR_DATA;
 8001ba6:	2300      	movs	r3, #0
 8001ba8:	61bb      	str	r3, [r7, #24]

		if (HAL_CAN_AddTxMessage(&hcan, &TempHeader, tempbuff, &TxMailbox)
 8001baa:	f107 0324 	add.w	r3, r7, #36	; 0x24
 8001bae:	f107 0228 	add.w	r2, r7, #40	; 0x28
 8001bb2:	f107 010c 	add.w	r1, r7, #12
 8001bb6:	480a      	ldr	r0, [pc, #40]	; (8001be0 <Temp_taskF+0x160>)
 8001bb8:	f001 f8ce 	bl	8002d58 <HAL_CAN_AddTxMessage>
 8001bbc:	4603      	mov	r3, r0
 8001bbe:	2b00      	cmp	r3, #0
 8001bc0:	d001      	beq.n	8001bc6 <Temp_taskF+0x146>
				!= HAL_OK) {
			Error_Handler();
 8001bc2:	f000 f853 	bl	8001c6c <Error_Handler>
		}

		vTaskDelayUntil(&xLastWakeTime, xFrequency); /*5Hz frequency*/
 8001bc6:	f107 033c 	add.w	r3, r7, #60	; 0x3c
 8001bca:	6c39      	ldr	r1, [r7, #64]	; 0x40
 8001bcc:	4618      	mov	r0, r3
 8001bce:	f004 f869 	bl	8005ca4 <vTaskDelayUntil>
	while (1) {
 8001bd2:	e75f      	b.n	8001a94 <Temp_taskF+0x14>
 8001bd4:	40010800 	.word	0x40010800
 8001bd8:	40010c00 	.word	0x40010c00
 8001bdc:	20002270 	.word	0x20002270
 8001be0:	20002210 	.word	0x20002210

08001be4 <OD_taskF>:
	}
}

/*Odometer read write task */
void OD_taskF(void *pvParameters) {
 8001be4:	b580      	push	{r7, lr}
 8001be6:	b08c      	sub	sp, #48	; 0x30
 8001be8:	af00      	add	r7, sp, #0
 8001bea:	6078      	str	r0, [r7, #4]
	TickType_t xLastWakeTime;
		const TickType_t xFrequency = 100;  //Ticks to wait since routine starts
 8001bec:	2364      	movs	r3, #100	; 0x64
 8001bee:	62fb      	str	r3, [r7, #44]	; 0x2c
		xLastWakeTime = xTaskGetTickCount();
 8001bf0:	f004 fa1a 	bl	8006028 <xTaskGetTickCount>
 8001bf4:	4603      	mov	r3, r0
 8001bf6:	62bb      	str	r3, [r7, #40]	; 0x28
		while (1) {

			uint32_t TxMailbox;
			CAN_TxHeaderTypeDef odHeader;

			odHeader.DLC = 1;
 8001bf8:	2301      	movs	r3, #1
 8001bfa:	61fb      	str	r3, [r7, #28]
			odHeader.StdId = 0x666;
 8001bfc:	f240 6366 	movw	r3, #1638	; 0x666
 8001c00:	60fb      	str	r3, [r7, #12]
			odHeader.IDE = CAN_ID_STD;
 8001c02:	2300      	movs	r3, #0
 8001c04:	617b      	str	r3, [r7, #20]
			odHeader.RTR = CAN_RTR_DATA;
 8001c06:	2300      	movs	r3, #0
 8001c08:	61bb      	str	r3, [r7, #24]

			if (HAL_CAN_AddTxMessage(&hcan, &odHeader, odbuff, &TxMailbox)
 8001c0a:	f107 0324 	add.w	r3, r7, #36	; 0x24
 8001c0e:	f107 010c 	add.w	r1, r7, #12
 8001c12:	4a0a      	ldr	r2, [pc, #40]	; (8001c3c <OD_taskF+0x58>)
 8001c14:	480a      	ldr	r0, [pc, #40]	; (8001c40 <OD_taskF+0x5c>)
 8001c16:	f001 f89f 	bl	8002d58 <HAL_CAN_AddTxMessage>
 8001c1a:	4603      	mov	r3, r0
 8001c1c:	2b00      	cmp	r3, #0
 8001c1e:	d001      	beq.n	8001c24 <OD_taskF+0x40>
					!= HAL_OK) {
				Error_Handler();
 8001c20:	f000 f824 	bl	8001c6c <Error_Handler>
			}
			HAL_GPIO_TogglePin(GPIOB, GPIO_PIN_6);
 8001c24:	2140      	movs	r1, #64	; 0x40
 8001c26:	4807      	ldr	r0, [pc, #28]	; (8001c44 <OD_taskF+0x60>)
 8001c28:	f002 f813 	bl	8003c52 <HAL_GPIO_TogglePin>
			vTaskDelayUntil(&xLastWakeTime, xFrequency); /*10Hz frequency*/
 8001c2c:	f107 0328 	add.w	r3, r7, #40	; 0x28
 8001c30:	6af9      	ldr	r1, [r7, #44]	; 0x2c
 8001c32:	4618      	mov	r0, r3
 8001c34:	f004 f836 	bl	8005ca4 <vTaskDelayUntil>
		while (1) {
 8001c38:	e7de      	b.n	8001bf8 <OD_taskF+0x14>
 8001c3a:	bf00      	nop
 8001c3c:	200022b8 	.word	0x200022b8
 8001c40:	20002210 	.word	0x20002210
 8001c44:	40010c00 	.word	0x40010c00

08001c48 <HAL_TIM_PeriodElapsedCallback>:
 * HAL_TIM_IRQHandler(). It makes a direct call to HAL_IncTick() to increment
 * a global variable "uwTick" used as application time base.
 * @param  htim : TIM handle
 * @retval None
 */
void HAL_TIM_PeriodElapsedCallback(TIM_HandleTypeDef *htim) {
 8001c48:	b580      	push	{r7, lr}
 8001c4a:	b082      	sub	sp, #8
 8001c4c:	af00      	add	r7, sp, #0
 8001c4e:	6078      	str	r0, [r7, #4]
	/* USER CODE BEGIN Callback 0 */

	/* USER CODE END Callback 0 */
	if (htim->Instance == TIM1) {
 8001c50:	687b      	ldr	r3, [r7, #4]
 8001c52:	681b      	ldr	r3, [r3, #0]
 8001c54:	4a04      	ldr	r2, [pc, #16]	; (8001c68 <HAL_TIM_PeriodElapsedCallback+0x20>)
 8001c56:	4293      	cmp	r3, r2
 8001c58:	d101      	bne.n	8001c5e <HAL_TIM_PeriodElapsedCallback+0x16>
		HAL_IncTick();
 8001c5a:	f000 fa7b 	bl	8002154 <HAL_IncTick>
	}
	/* USER CODE BEGIN Callback 1 */

	/* USER CODE END Callback 1 */
}
 8001c5e:	bf00      	nop
 8001c60:	3708      	adds	r7, #8
 8001c62:	46bd      	mov	sp, r7
 8001c64:	bd80      	pop	{r7, pc}
 8001c66:	bf00      	nop
 8001c68:	40012c00 	.word	0x40012c00

08001c6c <Error_Handler>:

/**
 * @brief  This function is executed in case of error occurrence.
 * @retval None
 */
void Error_Handler(void) {
 8001c6c:	b480      	push	{r7}
 8001c6e:	af00      	add	r7, sp, #0
	/* USER CODE BEGIN Error_Handler_Debug */
	/* User can add his own implementation to report the HAL error return state */

	/* USER CODE END Error_Handler_Debug */
}
 8001c70:	bf00      	nop
 8001c72:	46bd      	mov	sp, r7
 8001c74:	bc80      	pop	{r7}
 8001c76:	4770      	bx	lr

08001c78 <HAL_MspInit>:
/* USER CODE END 0 */
/**
  * Initializes the Global MSP.
  */
void HAL_MspInit(void)
{
 8001c78:	b580      	push	{r7, lr}
 8001c7a:	b084      	sub	sp, #16
 8001c7c:	af00      	add	r7, sp, #0
  /* USER CODE BEGIN MspInit 0 */

  /* USER CODE END MspInit 0 */

  __HAL_RCC_AFIO_CLK_ENABLE();
 8001c7e:	4b19      	ldr	r3, [pc, #100]	; (8001ce4 <HAL_MspInit+0x6c>)
 8001c80:	699b      	ldr	r3, [r3, #24]
 8001c82:	4a18      	ldr	r2, [pc, #96]	; (8001ce4 <HAL_MspInit+0x6c>)
 8001c84:	f043 0301 	orr.w	r3, r3, #1
 8001c88:	6193      	str	r3, [r2, #24]
 8001c8a:	4b16      	ldr	r3, [pc, #88]	; (8001ce4 <HAL_MspInit+0x6c>)
 8001c8c:	699b      	ldr	r3, [r3, #24]
 8001c8e:	f003 0301 	and.w	r3, r3, #1
 8001c92:	60bb      	str	r3, [r7, #8]
 8001c94:	68bb      	ldr	r3, [r7, #8]
  __HAL_RCC_PWR_CLK_ENABLE();
 8001c96:	4b13      	ldr	r3, [pc, #76]	; (8001ce4 <HAL_MspInit+0x6c>)
 8001c98:	69db      	ldr	r3, [r3, #28]
 8001c9a:	4a12      	ldr	r2, [pc, #72]	; (8001ce4 <HAL_MspInit+0x6c>)
 8001c9c:	f043 5380 	orr.w	r3, r3, #268435456	; 0x10000000
 8001ca0:	61d3      	str	r3, [r2, #28]
 8001ca2:	4b10      	ldr	r3, [pc, #64]	; (8001ce4 <HAL_MspInit+0x6c>)
 8001ca4:	69db      	ldr	r3, [r3, #28]
 8001ca6:	f003 5380 	and.w	r3, r3, #268435456	; 0x10000000
 8001caa:	607b      	str	r3, [r7, #4]
 8001cac:	687b      	ldr	r3, [r7, #4]

  /* System interrupt init*/
  /* PendSV_IRQn interrupt configuration */
  HAL_NVIC_SetPriority(PendSV_IRQn, 15, 0);
 8001cae:	2200      	movs	r2, #0
 8001cb0:	210f      	movs	r1, #15
 8001cb2:	f06f 0001 	mvn.w	r0, #1
 8001cb6:	f001 fc2a 	bl	800350e <HAL_NVIC_SetPriority>

  /** NOJTAG: JTAG-DP Disabled and SW-DP Enabled
  */
  __HAL_AFIO_REMAP_SWJ_NOJTAG();
 8001cba:	4b0b      	ldr	r3, [pc, #44]	; (8001ce8 <HAL_MspInit+0x70>)
 8001cbc:	685b      	ldr	r3, [r3, #4]
 8001cbe:	60fb      	str	r3, [r7, #12]
 8001cc0:	68fb      	ldr	r3, [r7, #12]
 8001cc2:	f023 63e0 	bic.w	r3, r3, #117440512	; 0x7000000
 8001cc6:	60fb      	str	r3, [r7, #12]
 8001cc8:	68fb      	ldr	r3, [r7, #12]
 8001cca:	f043 7300 	orr.w	r3, r3, #33554432	; 0x2000000
 8001cce:	60fb      	str	r3, [r7, #12]
 8001cd0:	4a05      	ldr	r2, [pc, #20]	; (8001ce8 <HAL_MspInit+0x70>)
 8001cd2:	68fb      	ldr	r3, [r7, #12]
 8001cd4:	6053      	str	r3, [r2, #4]

  /* USER CODE BEGIN MspInit 1 */
  vInitPrioGroupValue();
 8001cd6:	f004 fd7f 	bl	80067d8 <vInitPrioGroupValue>
  /* USER CODE END MspInit 1 */
}
 8001cda:	bf00      	nop
 8001cdc:	3710      	adds	r7, #16
 8001cde:	46bd      	mov	sp, r7
 8001ce0:	bd80      	pop	{r7, pc}
 8001ce2:	bf00      	nop
 8001ce4:	40021000 	.word	0x40021000
 8001ce8:	40010000 	.word	0x40010000

08001cec <HAL_I2C_MspInit>:
* This function configures the hardware resources used in this example
* @param hi2c: I2C handle pointer
* @retval None
*/
void HAL_I2C_MspInit(I2C_HandleTypeDef* hi2c)
{
 8001cec:	b580      	push	{r7, lr}
 8001cee:	b088      	sub	sp, #32
 8001cf0:	af00      	add	r7, sp, #0
 8001cf2:	6078      	str	r0, [r7, #4]
  GPIO_InitTypeDef GPIO_InitStruct = {0};
 8001cf4:	f107 0310 	add.w	r3, r7, #16
 8001cf8:	2200      	movs	r2, #0
 8001cfa:	601a      	str	r2, [r3, #0]
 8001cfc:	605a      	str	r2, [r3, #4]
 8001cfe:	609a      	str	r2, [r3, #8]
 8001d00:	60da      	str	r2, [r3, #12]
  if(hi2c->Instance==I2C2)
 8001d02:	687b      	ldr	r3, [r7, #4]
 8001d04:	681b      	ldr	r3, [r3, #0]
 8001d06:	4a16      	ldr	r2, [pc, #88]	; (8001d60 <HAL_I2C_MspInit+0x74>)
 8001d08:	4293      	cmp	r3, r2
 8001d0a:	d124      	bne.n	8001d56 <HAL_I2C_MspInit+0x6a>
  {
  /* USER CODE BEGIN I2C1_MspInit 0 */
	    /* Peripheral clock enable */
	    __HAL_RCC_I2C2_CLK_ENABLE();
 8001d0c:	4b15      	ldr	r3, [pc, #84]	; (8001d64 <HAL_I2C_MspInit+0x78>)
 8001d0e:	69db      	ldr	r3, [r3, #28]
 8001d10:	4a14      	ldr	r2, [pc, #80]	; (8001d64 <HAL_I2C_MspInit+0x78>)
 8001d12:	f443 0380 	orr.w	r3, r3, #4194304	; 0x400000
 8001d16:	61d3      	str	r3, [r2, #28]
 8001d18:	4b12      	ldr	r3, [pc, #72]	; (8001d64 <HAL_I2C_MspInit+0x78>)
 8001d1a:	69db      	ldr	r3, [r3, #28]
 8001d1c:	f403 0380 	and.w	r3, r3, #4194304	; 0x400000
 8001d20:	60fb      	str	r3, [r7, #12]
 8001d22:	68fb      	ldr	r3, [r7, #12]
  /* USER CODE END I2C1_MspInit 0 */

    __HAL_RCC_GPIOB_CLK_ENABLE();
 8001d24:	4b0f      	ldr	r3, [pc, #60]	; (8001d64 <HAL_I2C_MspInit+0x78>)
 8001d26:	699b      	ldr	r3, [r3, #24]
 8001d28:	4a0e      	ldr	r2, [pc, #56]	; (8001d64 <HAL_I2C_MspInit+0x78>)
 8001d2a:	f043 0308 	orr.w	r3, r3, #8
 8001d2e:	6193      	str	r3, [r2, #24]
 8001d30:	4b0c      	ldr	r3, [pc, #48]	; (8001d64 <HAL_I2C_MspInit+0x78>)
 8001d32:	699b      	ldr	r3, [r3, #24]
 8001d34:	f003 0308 	and.w	r3, r3, #8
 8001d38:	60bb      	str	r3, [r7, #8]
 8001d3a:	68bb      	ldr	r3, [r7, #8]
    /**I2C1 GPIO Configuration
    PB6     ------> I2C1_SCL
    PB7     ------> I2C1_SDA
    */
    GPIO_InitStruct.Pin = GPIO_PIN_10|GPIO_PIN_11;
 8001d3c:	f44f 6340 	mov.w	r3, #3072	; 0xc00
 8001d40:	613b      	str	r3, [r7, #16]
    GPIO_InitStruct.Mode = GPIO_MODE_AF_OD;
 8001d42:	2312      	movs	r3, #18
 8001d44:	617b      	str	r3, [r7, #20]
    GPIO_InitStruct.Speed = GPIO_SPEED_FREQ_HIGH;
 8001d46:	2303      	movs	r3, #3
 8001d48:	61fb      	str	r3, [r7, #28]
    HAL_GPIO_Init(GPIOB, &GPIO_InitStruct);
 8001d4a:	f107 0310 	add.w	r3, r7, #16
 8001d4e:	4619      	mov	r1, r3
 8001d50:	4805      	ldr	r0, [pc, #20]	; (8001d68 <HAL_I2C_MspInit+0x7c>)
 8001d52:	f001 fdf5 	bl	8003940 <HAL_GPIO_Init>
  /* USER CODE BEGIN I2C1_MspInit 1 */

  /* USER CODE END I2C1_MspInit 1 */
  }

}
 8001d56:	bf00      	nop
 8001d58:	3720      	adds	r7, #32
 8001d5a:	46bd      	mov	sp, r7
 8001d5c:	bd80      	pop	{r7, pc}
 8001d5e:	bf00      	nop
 8001d60:	40005800 	.word	0x40005800
 8001d64:	40021000 	.word	0x40021000
 8001d68:	40010c00 	.word	0x40010c00

08001d6c <HAL_ADC_MspInit>:
* This function configures the hardware resources used in this example
* @param hadc: ADC handle pointer
* @retval None
*/
void HAL_ADC_MspInit(ADC_HandleTypeDef* hadc)
{
 8001d6c:	b580      	push	{r7, lr}
 8001d6e:	b08a      	sub	sp, #40	; 0x28
 8001d70:	af00      	add	r7, sp, #0
 8001d72:	6078      	str	r0, [r7, #4]
  GPIO_InitTypeDef GPIO_InitStruct = {0};
 8001d74:	f107 0318 	add.w	r3, r7, #24
 8001d78:	2200      	movs	r2, #0
 8001d7a:	601a      	str	r2, [r3, #0]
 8001d7c:	605a      	str	r2, [r3, #4]
 8001d7e:	609a      	str	r2, [r3, #8]
 8001d80:	60da      	str	r2, [r3, #12]
  if(hadc->Instance==ADC1)
 8001d82:	687b      	ldr	r3, [r7, #4]
 8001d84:	681b      	ldr	r3, [r3, #0]
 8001d86:	4a33      	ldr	r2, [pc, #204]	; (8001e54 <HAL_ADC_MspInit+0xe8>)
 8001d88:	4293      	cmp	r3, r2
 8001d8a:	d15f      	bne.n	8001e4c <HAL_ADC_MspInit+0xe0>
  {
  /* USER CODE BEGIN ADC1_MspInit 0 */

  /* USER CODE END ADC1_MspInit 0 */
    /* Peripheral clock enable */
    __HAL_RCC_ADC1_CLK_ENABLE();
 8001d8c:	4b32      	ldr	r3, [pc, #200]	; (8001e58 <HAL_ADC_MspInit+0xec>)
 8001d8e:	699b      	ldr	r3, [r3, #24]
 8001d90:	4a31      	ldr	r2, [pc, #196]	; (8001e58 <HAL_ADC_MspInit+0xec>)
 8001d92:	f443 7300 	orr.w	r3, r3, #512	; 0x200
 8001d96:	6193      	str	r3, [r2, #24]
 8001d98:	4b2f      	ldr	r3, [pc, #188]	; (8001e58 <HAL_ADC_MspInit+0xec>)
 8001d9a:	699b      	ldr	r3, [r3, #24]
 8001d9c:	f403 7300 	and.w	r3, r3, #512	; 0x200
 8001da0:	617b      	str	r3, [r7, #20]
 8001da2:	697b      	ldr	r3, [r7, #20]

    __HAL_RCC_GPIOA_CLK_ENABLE();
 8001da4:	4b2c      	ldr	r3, [pc, #176]	; (8001e58 <HAL_ADC_MspInit+0xec>)
 8001da6:	699b      	ldr	r3, [r3, #24]
 8001da8:	4a2b      	ldr	r2, [pc, #172]	; (8001e58 <HAL_ADC_MspInit+0xec>)
 8001daa:	f043 0304 	orr.w	r3, r3, #4
 8001dae:	6193      	str	r3, [r2, #24]
 8001db0:	4b29      	ldr	r3, [pc, #164]	; (8001e58 <HAL_ADC_MspInit+0xec>)
 8001db2:	699b      	ldr	r3, [r3, #24]
 8001db4:	f003 0304 	and.w	r3, r3, #4
 8001db8:	613b      	str	r3, [r7, #16]
 8001dba:	693b      	ldr	r3, [r7, #16]
    __HAL_RCC_GPIOB_CLK_ENABLE();
 8001dbc:	4b26      	ldr	r3, [pc, #152]	; (8001e58 <HAL_ADC_MspInit+0xec>)
 8001dbe:	699b      	ldr	r3, [r3, #24]
 8001dc0:	4a25      	ldr	r2, [pc, #148]	; (8001e58 <HAL_ADC_MspInit+0xec>)
 8001dc2:	f043 0308 	orr.w	r3, r3, #8
 8001dc6:	6193      	str	r3, [r2, #24]
 8001dc8:	4b23      	ldr	r3, [pc, #140]	; (8001e58 <HAL_ADC_MspInit+0xec>)
 8001dca:	699b      	ldr	r3, [r3, #24]
 8001dcc:	f003 0308 	and.w	r3, r3, #8
 8001dd0:	60fb      	str	r3, [r7, #12]
 8001dd2:	68fb      	ldr	r3, [r7, #12]
    PA2     ------> ADC1_IN2
    PA3     ------> ADC1_IN3
    PB0     ------> ADC1_IN8
    PB1     ------> ADC1_IN9
    */
    GPIO_InitStruct.Pin = GPIO_PIN_0|GPIO_PIN_1;
 8001dd4:	2303      	movs	r3, #3
 8001dd6:	61bb      	str	r3, [r7, #24]
    GPIO_InitStruct.Mode = GPIO_MODE_ANALOG;
 8001dd8:	2303      	movs	r3, #3
 8001dda:	61fb      	str	r3, [r7, #28]
    HAL_GPIO_Init(GPIOA, &GPIO_InitStruct);
 8001ddc:	f107 0318 	add.w	r3, r7, #24
 8001de0:	4619      	mov	r1, r3
 8001de2:	481e      	ldr	r0, [pc, #120]	; (8001e5c <HAL_ADC_MspInit+0xf0>)
 8001de4:	f001 fdac 	bl	8003940 <HAL_GPIO_Init>

    GPIO_InitStruct.Pin = GPIO_PIN_0|GPIO_PIN_1;
 8001de8:	2303      	movs	r3, #3
 8001dea:	61bb      	str	r3, [r7, #24]
    GPIO_InitStruct.Mode = GPIO_MODE_ANALOG;
 8001dec:	2303      	movs	r3, #3
 8001dee:	61fb      	str	r3, [r7, #28]
    HAL_GPIO_Init(GPIOB, &GPIO_InitStruct);
 8001df0:	f107 0318 	add.w	r3, r7, #24
 8001df4:	4619      	mov	r1, r3
 8001df6:	481a      	ldr	r0, [pc, #104]	; (8001e60 <HAL_ADC_MspInit+0xf4>)
 8001df8:	f001 fda2 	bl	8003940 <HAL_GPIO_Init>

    /* ADC1 DMA Init */
    /* ADC1 Init */
    hdma_adc1.Instance = DMA1_Channel1;
 8001dfc:	4b19      	ldr	r3, [pc, #100]	; (8001e64 <HAL_ADC_MspInit+0xf8>)
 8001dfe:	4a1a      	ldr	r2, [pc, #104]	; (8001e68 <HAL_ADC_MspInit+0xfc>)
 8001e00:	601a      	str	r2, [r3, #0]
    hdma_adc1.Init.Direction = DMA_PERIPH_TO_MEMORY;
 8001e02:	4b18      	ldr	r3, [pc, #96]	; (8001e64 <HAL_ADC_MspInit+0xf8>)
 8001e04:	2200      	movs	r2, #0
 8001e06:	605a      	str	r2, [r3, #4]
    hdma_adc1.Init.PeriphInc = DMA_PINC_DISABLE;
 8001e08:	4b16      	ldr	r3, [pc, #88]	; (8001e64 <HAL_ADC_MspInit+0xf8>)
 8001e0a:	2200      	movs	r2, #0
 8001e0c:	609a      	str	r2, [r3, #8]
    hdma_adc1.Init.MemInc = DMA_MINC_ENABLE;
 8001e0e:	4b15      	ldr	r3, [pc, #84]	; (8001e64 <HAL_ADC_MspInit+0xf8>)
 8001e10:	2280      	movs	r2, #128	; 0x80
 8001e12:	60da      	str	r2, [r3, #12]
    hdma_adc1.Init.PeriphDataAlignment = DMA_PDATAALIGN_HALFWORD;
 8001e14:	4b13      	ldr	r3, [pc, #76]	; (8001e64 <HAL_ADC_MspInit+0xf8>)
 8001e16:	f44f 7280 	mov.w	r2, #256	; 0x100
 8001e1a:	611a      	str	r2, [r3, #16]
    hdma_adc1.Init.MemDataAlignment = DMA_MDATAALIGN_HALFWORD;
 8001e1c:	4b11      	ldr	r3, [pc, #68]	; (8001e64 <HAL_ADC_MspInit+0xf8>)
 8001e1e:	f44f 6280 	mov.w	r2, #1024	; 0x400
 8001e22:	615a      	str	r2, [r3, #20]
    hdma_adc1.Init.Mode = DMA_CIRCULAR;
 8001e24:	4b0f      	ldr	r3, [pc, #60]	; (8001e64 <HAL_ADC_MspInit+0xf8>)
 8001e26:	2220      	movs	r2, #32
 8001e28:	619a      	str	r2, [r3, #24]
    hdma_adc1.Init.Priority = DMA_PRIORITY_LOW;
 8001e2a:	4b0e      	ldr	r3, [pc, #56]	; (8001e64 <HAL_ADC_MspInit+0xf8>)
 8001e2c:	2200      	movs	r2, #0
 8001e2e:	61da      	str	r2, [r3, #28]
    if (HAL_DMA_Init(&hdma_adc1) != HAL_OK)
 8001e30:	480c      	ldr	r0, [pc, #48]	; (8001e64 <HAL_ADC_MspInit+0xf8>)
 8001e32:	f001 fb97 	bl	8003564 <HAL_DMA_Init>
 8001e36:	4603      	mov	r3, r0
 8001e38:	2b00      	cmp	r3, #0
 8001e3a:	d001      	beq.n	8001e40 <HAL_ADC_MspInit+0xd4>
    {
      Error_Handler();
 8001e3c:	f7ff ff16 	bl	8001c6c <Error_Handler>
    }

    __HAL_LINKDMA(hadc,DMA_Handle,hdma_adc1);
 8001e40:	687b      	ldr	r3, [r7, #4]
 8001e42:	4a08      	ldr	r2, [pc, #32]	; (8001e64 <HAL_ADC_MspInit+0xf8>)
 8001e44:	621a      	str	r2, [r3, #32]
 8001e46:	4a07      	ldr	r2, [pc, #28]	; (8001e64 <HAL_ADC_MspInit+0xf8>)
 8001e48:	687b      	ldr	r3, [r7, #4]
 8001e4a:	6253      	str	r3, [r2, #36]	; 0x24
  /* USER CODE BEGIN ADC1_MspInit 1 */

  /* USER CODE END ADC1_MspInit 1 */
  }

}
 8001e4c:	bf00      	nop
 8001e4e:	3728      	adds	r7, #40	; 0x28
 8001e50:	46bd      	mov	sp, r7
 8001e52:	bd80      	pop	{r7, pc}
 8001e54:	40012400 	.word	0x40012400
 8001e58:	40021000 	.word	0x40021000
 8001e5c:	40010800 	.word	0x40010800
 8001e60:	40010c00 	.word	0x40010c00
 8001e64:	20002274 	.word	0x20002274
 8001e68:	40020008 	.word	0x40020008

08001e6c <HAL_CAN_MspInit>:
* This function configures the hardware resources used in this example
* @param hcan: CAN handle pointer
* @retval None
*/
void HAL_CAN_MspInit(CAN_HandleTypeDef* hcan)
{
 8001e6c:	b580      	push	{r7, lr}
 8001e6e:	b08a      	sub	sp, #40	; 0x28
 8001e70:	af00      	add	r7, sp, #0
 8001e72:	6078      	str	r0, [r7, #4]
  GPIO_InitTypeDef GPIO_InitStruct = {0};
 8001e74:	f107 0314 	add.w	r3, r7, #20
 8001e78:	2200      	movs	r2, #0
 8001e7a:	601a      	str	r2, [r3, #0]
 8001e7c:	605a      	str	r2, [r3, #4]
 8001e7e:	609a      	str	r2, [r3, #8]
 8001e80:	60da      	str	r2, [r3, #12]
  if(hcan->Instance==CAN1)
 8001e82:	687b      	ldr	r3, [r7, #4]
 8001e84:	681b      	ldr	r3, [r3, #0]
 8001e86:	4a35      	ldr	r2, [pc, #212]	; (8001f5c <HAL_CAN_MspInit+0xf0>)
 8001e88:	4293      	cmp	r3, r2
 8001e8a:	d163      	bne.n	8001f54 <HAL_CAN_MspInit+0xe8>
  {
  /* USER CODE BEGIN CAN1_MspInit 0 */

  /* USER CODE END CAN1_MspInit 0 */
    /* Peripheral clock enable */
    __HAL_RCC_CAN1_CLK_ENABLE();
 8001e8c:	4b34      	ldr	r3, [pc, #208]	; (8001f60 <HAL_CAN_MspInit+0xf4>)
 8001e8e:	69db      	ldr	r3, [r3, #28]
 8001e90:	4a33      	ldr	r2, [pc, #204]	; (8001f60 <HAL_CAN_MspInit+0xf4>)
 8001e92:	f043 7300 	orr.w	r3, r3, #33554432	; 0x2000000
 8001e96:	61d3      	str	r3, [r2, #28]
 8001e98:	4b31      	ldr	r3, [pc, #196]	; (8001f60 <HAL_CAN_MspInit+0xf4>)
 8001e9a:	69db      	ldr	r3, [r3, #28]
 8001e9c:	f003 7300 	and.w	r3, r3, #33554432	; 0x2000000
 8001ea0:	613b      	str	r3, [r7, #16]
 8001ea2:	693b      	ldr	r3, [r7, #16]

    __HAL_RCC_GPIOB_CLK_ENABLE();
 8001ea4:	4b2e      	ldr	r3, [pc, #184]	; (8001f60 <HAL_CAN_MspInit+0xf4>)
 8001ea6:	699b      	ldr	r3, [r3, #24]
 8001ea8:	4a2d      	ldr	r2, [pc, #180]	; (8001f60 <HAL_CAN_MspInit+0xf4>)
 8001eaa:	f043 0308 	orr.w	r3, r3, #8
 8001eae:	6193      	str	r3, [r2, #24]
 8001eb0:	4b2b      	ldr	r3, [pc, #172]	; (8001f60 <HAL_CAN_MspInit+0xf4>)
 8001eb2:	699b      	ldr	r3, [r3, #24]
 8001eb4:	f003 0308 	and.w	r3, r3, #8
 8001eb8:	60fb      	str	r3, [r7, #12]
 8001eba:	68fb      	ldr	r3, [r7, #12]
    /**CAN GPIO Configuration
    PB8     ------> CAN_RX
    PB9     ------> CAN_TX
    */
    GPIO_InitStruct.Pin = GPIO_PIN_8;
 8001ebc:	f44f 7380 	mov.w	r3, #256	; 0x100
 8001ec0:	617b      	str	r3, [r7, #20]
    GPIO_InitStruct.Mode = GPIO_MODE_INPUT;
 8001ec2:	2300      	movs	r3, #0
 8001ec4:	61bb      	str	r3, [r7, #24]
    GPIO_InitStruct.Pull = GPIO_NOPULL;
 8001ec6:	2300      	movs	r3, #0
 8001ec8:	61fb      	str	r3, [r7, #28]
    HAL_GPIO_Init(GPIOB, &GPIO_InitStruct);
 8001eca:	f107 0314 	add.w	r3, r7, #20
 8001ece:	4619      	mov	r1, r3
 8001ed0:	4824      	ldr	r0, [pc, #144]	; (8001f64 <HAL_CAN_MspInit+0xf8>)
 8001ed2:	f001 fd35 	bl	8003940 <HAL_GPIO_Init>

    GPIO_InitStruct.Pin = GPIO_PIN_9;
 8001ed6:	f44f 7300 	mov.w	r3, #512	; 0x200
 8001eda:	617b      	str	r3, [r7, #20]
    GPIO_InitStruct.Mode = GPIO_MODE_AF_PP;
 8001edc:	2302      	movs	r3, #2
 8001ede:	61bb      	str	r3, [r7, #24]
    GPIO_InitStruct.Speed = GPIO_SPEED_FREQ_HIGH;
 8001ee0:	2303      	movs	r3, #3
 8001ee2:	623b      	str	r3, [r7, #32]
    HAL_GPIO_Init(GPIOB, &GPIO_InitStruct);
 8001ee4:	f107 0314 	add.w	r3, r7, #20
 8001ee8:	4619      	mov	r1, r3
 8001eea:	481e      	ldr	r0, [pc, #120]	; (8001f64 <HAL_CAN_MspInit+0xf8>)
 8001eec:	f001 fd28 	bl	8003940 <HAL_GPIO_Init>

    __HAL_AFIO_REMAP_CAN1_2();
 8001ef0:	4b1d      	ldr	r3, [pc, #116]	; (8001f68 <HAL_CAN_MspInit+0xfc>)
 8001ef2:	685b      	ldr	r3, [r3, #4]
 8001ef4:	627b      	str	r3, [r7, #36]	; 0x24
 8001ef6:	6a7b      	ldr	r3, [r7, #36]	; 0x24
 8001ef8:	f423 43c0 	bic.w	r3, r3, #24576	; 0x6000
 8001efc:	627b      	str	r3, [r7, #36]	; 0x24
 8001efe:	6a7b      	ldr	r3, [r7, #36]	; 0x24
 8001f00:	f043 63e0 	orr.w	r3, r3, #117440512	; 0x7000000
 8001f04:	627b      	str	r3, [r7, #36]	; 0x24
 8001f06:	6a7b      	ldr	r3, [r7, #36]	; 0x24
 8001f08:	f443 4380 	orr.w	r3, r3, #16384	; 0x4000
 8001f0c:	627b      	str	r3, [r7, #36]	; 0x24
 8001f0e:	4a16      	ldr	r2, [pc, #88]	; (8001f68 <HAL_CAN_MspInit+0xfc>)
 8001f10:	6a7b      	ldr	r3, [r7, #36]	; 0x24
 8001f12:	6053      	str	r3, [r2, #4]

    /* CAN1 interrupt Init */
    HAL_NVIC_SetPriority(USB_HP_CAN1_TX_IRQn, 5, 0);
 8001f14:	2200      	movs	r2, #0
 8001f16:	2105      	movs	r1, #5
 8001f18:	2013      	movs	r0, #19
 8001f1a:	f001 faf8 	bl	800350e <HAL_NVIC_SetPriority>
    HAL_NVIC_EnableIRQ(USB_HP_CAN1_TX_IRQn);
 8001f1e:	2013      	movs	r0, #19
 8001f20:	f001 fb11 	bl	8003546 <HAL_NVIC_EnableIRQ>
    HAL_NVIC_SetPriority(USB_LP_CAN1_RX0_IRQn, 5, 0);
 8001f24:	2200      	movs	r2, #0
 8001f26:	2105      	movs	r1, #5
 8001f28:	2014      	movs	r0, #20
 8001f2a:	f001 faf0 	bl	800350e <HAL_NVIC_SetPriority>
    HAL_NVIC_EnableIRQ(USB_LP_CAN1_RX0_IRQn);
 8001f2e:	2014      	movs	r0, #20
 8001f30:	f001 fb09 	bl	8003546 <HAL_NVIC_EnableIRQ>
    HAL_NVIC_SetPriority(CAN1_RX1_IRQn, 5, 0);
 8001f34:	2200      	movs	r2, #0
 8001f36:	2105      	movs	r1, #5
 8001f38:	2015      	movs	r0, #21
 8001f3a:	f001 fae8 	bl	800350e <HAL_NVIC_SetPriority>
    HAL_NVIC_EnableIRQ(CAN1_RX1_IRQn);
 8001f3e:	2015      	movs	r0, #21
 8001f40:	f001 fb01 	bl	8003546 <HAL_NVIC_EnableIRQ>
    HAL_NVIC_SetPriority(CAN1_SCE_IRQn, 5, 0);
 8001f44:	2200      	movs	r2, #0
 8001f46:	2105      	movs	r1, #5
 8001f48:	2016      	movs	r0, #22
 8001f4a:	f001 fae0 	bl	800350e <HAL_NVIC_SetPriority>
    HAL_NVIC_EnableIRQ(CAN1_SCE_IRQn);
 8001f4e:	2016      	movs	r0, #22
 8001f50:	f001 faf9 	bl	8003546 <HAL_NVIC_EnableIRQ>
  /* USER CODE BEGIN CAN1_MspInit 1 */

  /* USER CODE END CAN1_MspInit 1 */
  }

}
 8001f54:	bf00      	nop
 8001f56:	3728      	adds	r7, #40	; 0x28
 8001f58:	46bd      	mov	sp, r7
 8001f5a:	bd80      	pop	{r7, pc}
 8001f5c:	40006400 	.word	0x40006400
 8001f60:	40021000 	.word	0x40021000
 8001f64:	40010c00 	.word	0x40010c00
 8001f68:	40010000 	.word	0x40010000

08001f6c <HAL_InitTick>:
  *         reset by HAL_Init() or at any time when clock is configured, by HAL_RCC_ClockConfig().
  * @param  TickPriority: Tick interrupt priority.
  * @retval HAL status
  */
HAL_StatusTypeDef HAL_InitTick(uint32_t TickPriority)
{
 8001f6c:	b580      	push	{r7, lr}
 8001f6e:	b08c      	sub	sp, #48	; 0x30
 8001f70:	af00      	add	r7, sp, #0
 8001f72:	6078      	str	r0, [r7, #4]
  RCC_ClkInitTypeDef    clkconfig;
  uint32_t              uwTimclock = 0;
 8001f74:	2300      	movs	r3, #0
 8001f76:	62fb      	str	r3, [r7, #44]	; 0x2c
  uint32_t              uwPrescalerValue = 0;
 8001f78:	2300      	movs	r3, #0
 8001f7a:	62bb      	str	r3, [r7, #40]	; 0x28
  uint32_t              pFLatency;

  /*Configure the TIM1 IRQ priority */
  HAL_NVIC_SetPriority(TIM1_UP_IRQn, TickPriority ,0);
 8001f7c:	2200      	movs	r2, #0
 8001f7e:	6879      	ldr	r1, [r7, #4]
 8001f80:	2019      	movs	r0, #25
 8001f82:	f001 fac4 	bl	800350e <HAL_NVIC_SetPriority>

  /* Enable the TIM1 global Interrupt */
  HAL_NVIC_EnableIRQ(TIM1_UP_IRQn);
 8001f86:	2019      	movs	r0, #25
 8001f88:	f001 fadd 	bl	8003546 <HAL_NVIC_EnableIRQ>

  /* Enable TIM1 clock */
  __HAL_RCC_TIM1_CLK_ENABLE();
 8001f8c:	4b1e      	ldr	r3, [pc, #120]	; (8002008 <HAL_InitTick+0x9c>)
 8001f8e:	699b      	ldr	r3, [r3, #24]
 8001f90:	4a1d      	ldr	r2, [pc, #116]	; (8002008 <HAL_InitTick+0x9c>)
 8001f92:	f443 6300 	orr.w	r3, r3, #2048	; 0x800
 8001f96:	6193      	str	r3, [r2, #24]
 8001f98:	4b1b      	ldr	r3, [pc, #108]	; (8002008 <HAL_InitTick+0x9c>)
 8001f9a:	699b      	ldr	r3, [r3, #24]
 8001f9c:	f403 6300 	and.w	r3, r3, #2048	; 0x800
 8001fa0:	60fb      	str	r3, [r7, #12]
 8001fa2:	68fb      	ldr	r3, [r7, #12]

  /* Get clock configuration */
  HAL_RCC_GetClockConfig(&clkconfig, &pFLatency);
 8001fa4:	f107 0210 	add.w	r2, r7, #16
 8001fa8:	f107 0314 	add.w	r3, r7, #20
 8001fac:	4611      	mov	r1, r2
 8001fae:	4618      	mov	r0, r3
 8001fb0:	f002 ff9e 	bl	8004ef0 <HAL_RCC_GetClockConfig>

  /* Compute TIM1 clock */
  uwTimclock = HAL_RCC_GetPCLK2Freq();
 8001fb4:	f002 ff88 	bl	8004ec8 <HAL_RCC_GetPCLK2Freq>
 8001fb8:	62f8      	str	r0, [r7, #44]	; 0x2c

  /* Compute the prescaler value to have TIM1 counter clock equal to 1MHz */
  uwPrescalerValue = (uint32_t) ((uwTimclock / 1000000) - 1);
 8001fba:	6afb      	ldr	r3, [r7, #44]	; 0x2c
 8001fbc:	4a13      	ldr	r2, [pc, #76]	; (800200c <HAL_InitTick+0xa0>)
 8001fbe:	fba2 2303 	umull	r2, r3, r2, r3
 8001fc2:	0c9b      	lsrs	r3, r3, #18
 8001fc4:	3b01      	subs	r3, #1
 8001fc6:	62bb      	str	r3, [r7, #40]	; 0x28

  /* Initialize TIM1 */
  htim1.Instance = TIM1;
 8001fc8:	4b11      	ldr	r3, [pc, #68]	; (8002010 <HAL_InitTick+0xa4>)
 8001fca:	4a12      	ldr	r2, [pc, #72]	; (8002014 <HAL_InitTick+0xa8>)
 8001fcc:	601a      	str	r2, [r3, #0]
  + Period = [(TIM1CLK/1000) - 1]. to have a (1/1000) s time base.
  + Prescaler = (uwTimclock/1000000 - 1) to have a 1MHz counter clock.
  + ClockDivision = 0
  + Counter direction = Up
  */
  htim1.Init.Period = (1000000 / 1000) - 1;
 8001fce:	4b10      	ldr	r3, [pc, #64]	; (8002010 <HAL_InitTick+0xa4>)
 8001fd0:	f240 32e7 	movw	r2, #999	; 0x3e7
 8001fd4:	60da      	str	r2, [r3, #12]
  htim1.Init.Prescaler = uwPrescalerValue;
 8001fd6:	4a0e      	ldr	r2, [pc, #56]	; (8002010 <HAL_InitTick+0xa4>)
 8001fd8:	6abb      	ldr	r3, [r7, #40]	; 0x28
 8001fda:	6053      	str	r3, [r2, #4]
  htim1.Init.ClockDivision = 0;
 8001fdc:	4b0c      	ldr	r3, [pc, #48]	; (8002010 <HAL_InitTick+0xa4>)
 8001fde:	2200      	movs	r2, #0
 8001fe0:	611a      	str	r2, [r3, #16]
  htim1.Init.CounterMode = TIM_COUNTERMODE_UP;
 8001fe2:	4b0b      	ldr	r3, [pc, #44]	; (8002010 <HAL_InitTick+0xa4>)
 8001fe4:	2200      	movs	r2, #0
 8001fe6:	609a      	str	r2, [r3, #8]
  if(HAL_TIM_Base_Init(&htim1) == HAL_OK)
 8001fe8:	4809      	ldr	r0, [pc, #36]	; (8002010 <HAL_InitTick+0xa4>)
 8001fea:	f003 f885 	bl	80050f8 <HAL_TIM_Base_Init>
 8001fee:	4603      	mov	r3, r0
 8001ff0:	2b00      	cmp	r3, #0
 8001ff2:	d104      	bne.n	8001ffe <HAL_InitTick+0x92>
  {
    /* Start the TIM time Base generation in interrupt mode */
    return HAL_TIM_Base_Start_IT(&htim1);
 8001ff4:	4806      	ldr	r0, [pc, #24]	; (8002010 <HAL_InitTick+0xa4>)
 8001ff6:	f003 f8b3 	bl	8005160 <HAL_TIM_Base_Start_IT>
 8001ffa:	4603      	mov	r3, r0
 8001ffc:	e000      	b.n	8002000 <HAL_InitTick+0x94>
  }

  /* Return function status */
  return HAL_ERROR;
 8001ffe:	2301      	movs	r3, #1
}
 8002000:	4618      	mov	r0, r3
 8002002:	3730      	adds	r7, #48	; 0x30
 8002004:	46bd      	mov	sp, r7
 8002006:	bd80      	pop	{r7, pc}
 8002008:	40021000 	.word	0x40021000
 800200c:	431bde83 	.word	0x431bde83
 8002010:	200022c4 	.word	0x200022c4
 8002014:	40012c00 	.word	0x40012c00

08002018 <NMI_Handler>:
/******************************************************************************/
/**
  * @brief This function handles Non maskable interrupt.
  */
void NMI_Handler(void)
{
 8002018:	b480      	push	{r7}
 800201a:	af00      	add	r7, sp, #0

  /* USER CODE END NonMaskableInt_IRQn 0 */
  /* USER CODE BEGIN NonMaskableInt_IRQn 1 */

  /* USER CODE END NonMaskableInt_IRQn 1 */
}
 800201c:	bf00      	nop
 800201e:	46bd      	mov	sp, r7
 8002020:	bc80      	pop	{r7}
 8002022:	4770      	bx	lr

08002024 <HardFault_Handler>:

/**
  * @brief This function handles Hard fault interrupt.
  */
void HardFault_Handler(void)
{
 8002024:	b480      	push	{r7}
 8002026:	af00      	add	r7, sp, #0
  /* USER CODE BEGIN HardFault_IRQn 0 */

  /* USER CODE END HardFault_IRQn 0 */
  while (1)
 8002028:	e7fe      	b.n	8002028 <HardFault_Handler+0x4>

0800202a <MemManage_Handler>:

/**
  * @brief This function handles Memory management fault.
  */
void MemManage_Handler(void)
{
 800202a:	b480      	push	{r7}
 800202c:	af00      	add	r7, sp, #0
  /* USER CODE BEGIN MemoryManagement_IRQn 0 */

  /* USER CODE END MemoryManagement_IRQn 0 */
  while (1)
 800202e:	e7fe      	b.n	800202e <MemManage_Handler+0x4>

08002030 <BusFault_Handler>:

/**
  * @brief This function handles Prefetch fault, memory access fault.
  */
void BusFault_Handler(void)
{
 8002030:	b480      	push	{r7}
 8002032:	af00      	add	r7, sp, #0
  /* USER CODE BEGIN BusFault_IRQn 0 */

  /* USER CODE END BusFault_IRQn 0 */
  while (1)
 8002034:	e7fe      	b.n	8002034 <BusFault_Handler+0x4>

08002036 <UsageFault_Handler>:

/**
  * @brief This function handles Undefined instruction or illegal state.
  */
void UsageFault_Handler(void)
{
 8002036:	b480      	push	{r7}
 8002038:	af00      	add	r7, sp, #0
  /* USER CODE BEGIN UsageFault_IRQn 0 */

  /* USER CODE END UsageFault_IRQn 0 */
  while (1)
 800203a:	e7fe      	b.n	800203a <UsageFault_Handler+0x4>

0800203c <DebugMon_Handler>:

/**
  * @brief This function handles Debug monitor.
  */
void DebugMon_Handler(void)
{
 800203c:	b480      	push	{r7}
 800203e:	af00      	add	r7, sp, #0

  /* USER CODE END DebugMonitor_IRQn 0 */
  /* USER CODE BEGIN DebugMonitor_IRQn 1 */

  /* USER CODE END DebugMonitor_IRQn 1 */
}
 8002040:	bf00      	nop
 8002042:	46bd      	mov	sp, r7
 8002044:	bc80      	pop	{r7}
 8002046:	4770      	bx	lr

08002048 <DMA1_Channel1_IRQHandler>:

/**
  * @brief This function handles DMA1 channel1 global interrupt.
  */
void DMA1_Channel1_IRQHandler(void)
{
 8002048:	b580      	push	{r7, lr}
 800204a:	af00      	add	r7, sp, #0
  /* USER CODE BEGIN DMA1_Channel1_IRQn 0 */

  /* USER CODE END DMA1_Channel1_IRQn 0 */
  HAL_DMA_IRQHandler(&hdma_adc1);
 800204c:	4802      	ldr	r0, [pc, #8]	; (8002058 <DMA1_Channel1_IRQHandler+0x10>)
 800204e:	f001 fb43 	bl	80036d8 <HAL_DMA_IRQHandler>
  /* USER CODE BEGIN DMA1_Channel1_IRQn 1 */

  /* USER CODE END DMA1_Channel1_IRQn 1 */
}
 8002052:	bf00      	nop
 8002054:	bd80      	pop	{r7, pc}
 8002056:	bf00      	nop
 8002058:	20002274 	.word	0x20002274

0800205c <USB_HP_CAN1_TX_IRQHandler>:

/**
  * @brief This function handles USB high priority or CAN TX interrupts.
  */
void USB_HP_CAN1_TX_IRQHandler(void)
{
 800205c:	b580      	push	{r7, lr}
 800205e:	af00      	add	r7, sp, #0
  /* USER CODE BEGIN USB_HP_CAN1_TX_IRQn 0 */

  /* USER CODE END USB_HP_CAN1_TX_IRQn 0 */
  HAL_CAN_IRQHandler(&hcan);
 8002060:	4802      	ldr	r0, [pc, #8]	; (800206c <USB_HP_CAN1_TX_IRQHandler+0x10>)
 8002062:	f000 ff78 	bl	8002f56 <HAL_CAN_IRQHandler>
  /* USER CODE BEGIN USB_HP_CAN1_TX_IRQn 1 */

  /* USER CODE END USB_HP_CAN1_TX_IRQn 1 */
}
 8002066:	bf00      	nop
 8002068:	bd80      	pop	{r7, pc}
 800206a:	bf00      	nop
 800206c:	20002210 	.word	0x20002210

08002070 <USB_LP_CAN1_RX0_IRQHandler>:

/**
  * @brief This function handles USB low priority or CAN RX0 interrupts.
  */
void USB_LP_CAN1_RX0_IRQHandler(void)
{
 8002070:	b580      	push	{r7, lr}
 8002072:	af00      	add	r7, sp, #0
  /* USER CODE BEGIN USB_LP_CAN1_RX0_IRQn 0 */

  /* USER CODE END USB_LP_CAN1_RX0_IRQn 0 */
  HAL_CAN_IRQHandler(&hcan);
 8002074:	4802      	ldr	r0, [pc, #8]	; (8002080 <USB_LP_CAN1_RX0_IRQHandler+0x10>)
 8002076:	f000 ff6e 	bl	8002f56 <HAL_CAN_IRQHandler>
  /* USER CODE BEGIN USB_LP_CAN1_RX0_IRQn 1 */

  /* USER CODE END USB_LP_CAN1_RX0_IRQn 1 */
}
 800207a:	bf00      	nop
 800207c:	bd80      	pop	{r7, pc}
 800207e:	bf00      	nop
 8002080:	20002210 	.word	0x20002210

08002084 <CAN1_RX1_IRQHandler>:

/**
  * @brief This function handles CAN RX1 interrupt.
  */
void CAN1_RX1_IRQHandler(void)
{
 8002084:	b580      	push	{r7, lr}
 8002086:	af00      	add	r7, sp, #0
  /* USER CODE BEGIN CAN1_RX1_IRQn 0 */

  /* USER CODE END CAN1_RX1_IRQn 0 */
  HAL_CAN_IRQHandler(&hcan);
 8002088:	4802      	ldr	r0, [pc, #8]	; (8002094 <CAN1_RX1_IRQHandler+0x10>)
 800208a:	f000 ff64 	bl	8002f56 <HAL_CAN_IRQHandler>
  /* USER CODE BEGIN CAN1_RX1_IRQn 1 */

  /* USER CODE END CAN1_RX1_IRQn 1 */
}
 800208e:	bf00      	nop
 8002090:	bd80      	pop	{r7, pc}
 8002092:	bf00      	nop
 8002094:	20002210 	.word	0x20002210

08002098 <CAN1_SCE_IRQHandler>:

/**
  * @brief This function handles CAN SCE interrupt.
  */
void CAN1_SCE_IRQHandler(void)
{
 8002098:	b580      	push	{r7, lr}
 800209a:	af00      	add	r7, sp, #0
  /* USER CODE BEGIN CAN1_SCE_IRQn 0 */

  /* USER CODE END CAN1_SCE_IRQn 0 */
  HAL_CAN_IRQHandler(&hcan);
 800209c:	4802      	ldr	r0, [pc, #8]	; (80020a8 <CAN1_SCE_IRQHandler+0x10>)
 800209e:	f000 ff5a 	bl	8002f56 <HAL_CAN_IRQHandler>
  /* USER CODE BEGIN CAN1_SCE_IRQn 1 */

  /* USER CODE END CAN1_SCE_IRQn 1 */
}
 80020a2:	bf00      	nop
 80020a4:	bd80      	pop	{r7, pc}
 80020a6:	bf00      	nop
 80020a8:	20002210 	.word	0x20002210

080020ac <TIM1_UP_IRQHandler>:

/**
  * @brief This function handles TIM1 update interrupt.
  */
void TIM1_UP_IRQHandler(void)
{
 80020ac:	b580      	push	{r7, lr}
 80020ae:	af00      	add	r7, sp, #0
  /* USER CODE BEGIN TIM1_UP_IRQn 0 */

  /* USER CODE END TIM1_UP_IRQn 0 */
  HAL_TIM_IRQHandler(&htim1);
 80020b0:	4802      	ldr	r0, [pc, #8]	; (80020bc <TIM1_UP_IRQHandler+0x10>)
 80020b2:	f003 f878 	bl	80051a6 <HAL_TIM_IRQHandler>
  /* USER CODE BEGIN TIM1_UP_IRQn 1 */

  /* USER CODE END TIM1_UP_IRQn 1 */
}
 80020b6:	bf00      	nop
 80020b8:	bd80      	pop	{r7, pc}
 80020ba:	bf00      	nop
 80020bc:	200022c4 	.word	0x200022c4

080020c0 <SystemInit>:
  * @note   This function should be used only after reset.
  * @param  None
  * @retval None
  */
void SystemInit (void)
{
 80020c0:	b480      	push	{r7}
 80020c2:	af00      	add	r7, sp, #0
  /* Reset the RCC clock configuration to the default reset state(for debug purpose) */
  /* Set HSION bit */
  RCC->CR |= 0x00000001U;
 80020c4:	4b15      	ldr	r3, [pc, #84]	; (800211c <SystemInit+0x5c>)
 80020c6:	681b      	ldr	r3, [r3, #0]
 80020c8:	4a14      	ldr	r2, [pc, #80]	; (800211c <SystemInit+0x5c>)
 80020ca:	f043 0301 	orr.w	r3, r3, #1
 80020ce:	6013      	str	r3, [r2, #0]

  /* Reset SW, HPRE, PPRE1, PPRE2, ADCPRE and MCO bits */
#if !defined(STM32F105xC) && !defined(STM32F107xC)
  RCC->CFGR &= 0xF8FF0000U;
 80020d0:	4b12      	ldr	r3, [pc, #72]	; (800211c <SystemInit+0x5c>)
 80020d2:	685a      	ldr	r2, [r3, #4]
 80020d4:	4911      	ldr	r1, [pc, #68]	; (800211c <SystemInit+0x5c>)
 80020d6:	4b12      	ldr	r3, [pc, #72]	; (8002120 <SystemInit+0x60>)
 80020d8:	4013      	ands	r3, r2
 80020da:	604b      	str	r3, [r1, #4]
#else
  RCC->CFGR &= 0xF0FF0000U;
#endif /* STM32F105xC */   
  
  /* Reset HSEON, CSSON and PLLON bits */
  RCC->CR &= 0xFEF6FFFFU;
 80020dc:	4b0f      	ldr	r3, [pc, #60]	; (800211c <SystemInit+0x5c>)
 80020de:	681b      	ldr	r3, [r3, #0]
 80020e0:	4a0e      	ldr	r2, [pc, #56]	; (800211c <SystemInit+0x5c>)
 80020e2:	f023 7384 	bic.w	r3, r3, #17301504	; 0x1080000
 80020e6:	f423 3380 	bic.w	r3, r3, #65536	; 0x10000
 80020ea:	6013      	str	r3, [r2, #0]

  /* Reset HSEBYP bit */
  RCC->CR &= 0xFFFBFFFFU;
 80020ec:	4b0b      	ldr	r3, [pc, #44]	; (800211c <SystemInit+0x5c>)
 80020ee:	681b      	ldr	r3, [r3, #0]
 80020f0:	4a0a      	ldr	r2, [pc, #40]	; (800211c <SystemInit+0x5c>)
 80020f2:	f423 2380 	bic.w	r3, r3, #262144	; 0x40000
 80020f6:	6013      	str	r3, [r2, #0]

  /* Reset PLLSRC, PLLXTPRE, PLLMUL and USBPRE/OTGFSPRE bits */
  RCC->CFGR &= 0xFF80FFFFU;
 80020f8:	4b08      	ldr	r3, [pc, #32]	; (800211c <SystemInit+0x5c>)
 80020fa:	685b      	ldr	r3, [r3, #4]
 80020fc:	4a07      	ldr	r2, [pc, #28]	; (800211c <SystemInit+0x5c>)
 80020fe:	f423 03fe 	bic.w	r3, r3, #8323072	; 0x7f0000
 8002102:	6053      	str	r3, [r2, #4]

  /* Reset CFGR2 register */
  RCC->CFGR2 = 0x00000000U;      
#else
  /* Disable all interrupts and clear pending bits  */
  RCC->CIR = 0x009F0000U;
 8002104:	4b05      	ldr	r3, [pc, #20]	; (800211c <SystemInit+0x5c>)
 8002106:	f44f 021f 	mov.w	r2, #10420224	; 0x9f0000
 800210a:	609a      	str	r2, [r3, #8]
#endif 

#ifdef VECT_TAB_SRAM
  SCB->VTOR = SRAM_BASE | VECT_TAB_OFFSET; /* Vector Table Relocation in Internal SRAM. */
#else
  SCB->VTOR = FLASH_BASE | VECT_TAB_OFFSET; /* Vector Table Relocation in Internal FLASH. */
 800210c:	4b05      	ldr	r3, [pc, #20]	; (8002124 <SystemInit+0x64>)
 800210e:	f04f 6200 	mov.w	r2, #134217728	; 0x8000000
 8002112:	609a      	str	r2, [r3, #8]
#endif 
}
 8002114:	bf00      	nop
 8002116:	46bd      	mov	sp, r7
 8002118:	bc80      	pop	{r7}
 800211a:	4770      	bx	lr
 800211c:	40021000 	.word	0x40021000
 8002120:	f8ff0000 	.word	0xf8ff0000
 8002124:	e000ed00 	.word	0xe000ed00

08002128 <HAL_Init>:
  *         need to ensure that the SysTick time base is always set to 1 millisecond
  *         to have correct HAL operation.
  * @retval HAL status
  */
HAL_StatusTypeDef HAL_Init(void)
{
 8002128:	b580      	push	{r7, lr}
 800212a:	af00      	add	r7, sp, #0
    defined(STM32F102x6) || defined(STM32F102xB) || \
    defined(STM32F103x6) || defined(STM32F103xB) || defined(STM32F103xE) || defined(STM32F103xG) || \
    defined(STM32F105xC) || defined(STM32F107xC)

  /* Prefetch buffer is not available on value line devices */
  __HAL_FLASH_PREFETCH_BUFFER_ENABLE();
 800212c:	4b08      	ldr	r3, [pc, #32]	; (8002150 <HAL_Init+0x28>)
 800212e:	681b      	ldr	r3, [r3, #0]
 8002130:	4a07      	ldr	r2, [pc, #28]	; (8002150 <HAL_Init+0x28>)
 8002132:	f043 0310 	orr.w	r3, r3, #16
 8002136:	6013      	str	r3, [r2, #0]
#endif
#endif /* PREFETCH_ENABLE */

  /* Set Interrupt Group Priority */
  HAL_NVIC_SetPriorityGrouping(NVIC_PRIORITYGROUP_4);
 8002138:	2003      	movs	r0, #3
 800213a:	f001 f9dd 	bl	80034f8 <HAL_NVIC_SetPriorityGrouping>

  /* Use systick as time base source and configure 1ms tick (default clock after Reset is HSI) */
  HAL_InitTick(TICK_INT_PRIORITY);
 800213e:	2000      	movs	r0, #0
 8002140:	f7ff ff14 	bl	8001f6c <HAL_InitTick>

  /* Init the low level hardware */
  HAL_MspInit();
 8002144:	f7ff fd98 	bl	8001c78 <HAL_MspInit>

  /* Return function status */
  return HAL_OK;
 8002148:	2300      	movs	r3, #0
}
 800214a:	4618      	mov	r0, r3
 800214c:	bd80      	pop	{r7, pc}
 800214e:	bf00      	nop
 8002150:	40022000 	.word	0x40022000

08002154 <HAL_IncTick>:
  * @note This function is declared as __weak to be overwritten in case of other
  *      implementations in user file.
  * @retval None
  */
__weak void HAL_IncTick(void)
{
 8002154:	b480      	push	{r7}
 8002156:	af00      	add	r7, sp, #0
  uwTick += uwTickFreq;
 8002158:	4b05      	ldr	r3, [pc, #20]	; (8002170 <HAL_IncTick+0x1c>)
 800215a:	781b      	ldrb	r3, [r3, #0]
 800215c:	461a      	mov	r2, r3
 800215e:	4b05      	ldr	r3, [pc, #20]	; (8002174 <HAL_IncTick+0x20>)
 8002160:	681b      	ldr	r3, [r3, #0]
 8002162:	4413      	add	r3, r2
 8002164:	4a03      	ldr	r2, [pc, #12]	; (8002174 <HAL_IncTick+0x20>)
 8002166:	6013      	str	r3, [r2, #0]
}
 8002168:	bf00      	nop
 800216a:	46bd      	mov	sp, r7
 800216c:	bc80      	pop	{r7}
 800216e:	4770      	bx	lr
 8002170:	20000008 	.word	0x20000008
 8002174:	20002304 	.word	0x20002304

08002178 <HAL_GetTick>:
  * @note  This function is declared as __weak to be overwritten in case of other
  *       implementations in user file.
  * @retval tick value
  */
__weak uint32_t HAL_GetTick(void)
{
 8002178:	b480      	push	{r7}
 800217a:	af00      	add	r7, sp, #0
  return uwTick;
 800217c:	4b02      	ldr	r3, [pc, #8]	; (8002188 <HAL_GetTick+0x10>)
 800217e:	681b      	ldr	r3, [r3, #0]
}
 8002180:	4618      	mov	r0, r3
 8002182:	46bd      	mov	sp, r7
 8002184:	bc80      	pop	{r7}
 8002186:	4770      	bx	lr
 8002188:	20002304 	.word	0x20002304

0800218c <HAL_Delay>:
  *       implementations in user file.
  * @param Delay specifies the delay time length, in milliseconds.
  * @retval None
  */
__weak void HAL_Delay(uint32_t Delay)
{
 800218c:	b580      	push	{r7, lr}
 800218e:	b084      	sub	sp, #16
 8002190:	af00      	add	r7, sp, #0
 8002192:	6078      	str	r0, [r7, #4]
  uint32_t tickstart = HAL_GetTick();
 8002194:	f7ff fff0 	bl	8002178 <HAL_GetTick>
 8002198:	60b8      	str	r0, [r7, #8]
  uint32_t wait = Delay;
 800219a:	687b      	ldr	r3, [r7, #4]
 800219c:	60fb      	str	r3, [r7, #12]

  /* Add a freq to guarantee minimum wait */
  if (wait < HAL_MAX_DELAY)
 800219e:	68fb      	ldr	r3, [r7, #12]
 80021a0:	f1b3 3fff 	cmp.w	r3, #4294967295
 80021a4:	d005      	beq.n	80021b2 <HAL_Delay+0x26>
  {
    wait += (uint32_t)(uwTickFreq);
 80021a6:	4b09      	ldr	r3, [pc, #36]	; (80021cc <HAL_Delay+0x40>)
 80021a8:	781b      	ldrb	r3, [r3, #0]
 80021aa:	461a      	mov	r2, r3
 80021ac:	68fb      	ldr	r3, [r7, #12]
 80021ae:	4413      	add	r3, r2
 80021b0:	60fb      	str	r3, [r7, #12]
  }

  while ((HAL_GetTick() - tickstart) < wait)
 80021b2:	bf00      	nop
 80021b4:	f7ff ffe0 	bl	8002178 <HAL_GetTick>
 80021b8:	4602      	mov	r2, r0
 80021ba:	68bb      	ldr	r3, [r7, #8]
 80021bc:	1ad3      	subs	r3, r2, r3
 80021be:	68fa      	ldr	r2, [r7, #12]
 80021c0:	429a      	cmp	r2, r3
 80021c2:	d8f7      	bhi.n	80021b4 <HAL_Delay+0x28>
  {
  }
}
 80021c4:	bf00      	nop
 80021c6:	3710      	adds	r7, #16
 80021c8:	46bd      	mov	sp, r7
 80021ca:	bd80      	pop	{r7, pc}
 80021cc:	20000008 	.word	0x20000008

080021d0 <HAL_ADC_Init>:
  *         of structure "ADC_InitTypeDef".
  * @param  hadc: ADC handle
  * @retval HAL status
  */
HAL_StatusTypeDef HAL_ADC_Init(ADC_HandleTypeDef* hadc)
{
 80021d0:	b580      	push	{r7, lr}
 80021d2:	b086      	sub	sp, #24
 80021d4:	af00      	add	r7, sp, #0
 80021d6:	6078      	str	r0, [r7, #4]
  HAL_StatusTypeDef tmp_hal_status = HAL_OK;
 80021d8:	2300      	movs	r3, #0
 80021da:	75fb      	strb	r3, [r7, #23]
  uint32_t tmp_cr1 = 0U;
 80021dc:	2300      	movs	r3, #0
 80021de:	613b      	str	r3, [r7, #16]
  uint32_t tmp_cr2 = 0U;
 80021e0:	2300      	movs	r3, #0
 80021e2:	60bb      	str	r3, [r7, #8]
  uint32_t tmp_sqr1 = 0U;
 80021e4:	2300      	movs	r3, #0
 80021e6:	60fb      	str	r3, [r7, #12]
  
  /* Check ADC handle */
  if(hadc == NULL)
 80021e8:	687b      	ldr	r3, [r7, #4]
 80021ea:	2b00      	cmp	r3, #0
 80021ec:	d101      	bne.n	80021f2 <HAL_ADC_Init+0x22>
  {
    return HAL_ERROR;
 80021ee:	2301      	movs	r3, #1
 80021f0:	e0be      	b.n	8002370 <HAL_ADC_Init+0x1a0>
  assert_param(IS_ADC_DATA_ALIGN(hadc->Init.DataAlign));
  assert_param(IS_ADC_SCAN_MODE(hadc->Init.ScanConvMode));
  assert_param(IS_FUNCTIONAL_STATE(hadc->Init.ContinuousConvMode));
  assert_param(IS_ADC_EXTTRIG(hadc->Init.ExternalTrigConv));
  
  if(hadc->Init.ScanConvMode != ADC_SCAN_DISABLE)
 80021f2:	687b      	ldr	r3, [r7, #4]
 80021f4:	689b      	ldr	r3, [r3, #8]
 80021f6:	2b00      	cmp	r3, #0
  /* Refer to header of this file for more details on clock enabling          */
  /* procedure.                                                               */

  /* Actions performed only if ADC is coming from state reset:                */
  /* - Initialization of ADC MSP                                              */
  if (hadc->State == HAL_ADC_STATE_RESET)
 80021f8:	687b      	ldr	r3, [r7, #4]
 80021fa:	6a9b      	ldr	r3, [r3, #40]	; 0x28
 80021fc:	2b00      	cmp	r3, #0
 80021fe:	d109      	bne.n	8002214 <HAL_ADC_Init+0x44>
  {
    /* Initialize ADC error code */
    ADC_CLEAR_ERRORCODE(hadc);
 8002200:	687b      	ldr	r3, [r7, #4]
 8002202:	2200      	movs	r2, #0
 8002204:	62da      	str	r2, [r3, #44]	; 0x2c
    
    /* Allocate lock resource and initialize it */
    hadc->Lock = HAL_UNLOCKED;
 8002206:	687b      	ldr	r3, [r7, #4]
 8002208:	2200      	movs	r2, #0
 800220a:	f883 2024 	strb.w	r2, [r3, #36]	; 0x24
    
    /* Init the low level hardware */
    hadc->MspInitCallback(hadc);
#else
    /* Init the low level hardware */
    HAL_ADC_MspInit(hadc);
 800220e:	6878      	ldr	r0, [r7, #4]
 8002210:	f7ff fdac 	bl	8001d6c <HAL_ADC_MspInit>
  /* Stop potential conversion on going, on regular and injected groups */
  /* Disable ADC peripheral */
  /* Note: In case of ADC already enabled, precaution to not launch an        */
  /*       unwanted conversion while modifying register CR2 by writing 1 to   */
  /*       bit ADON.                                                          */
  tmp_hal_status = ADC_ConversionStop_Disable(hadc);
 8002214:	6878      	ldr	r0, [r7, #4]
 8002216:	f000 faf7 	bl	8002808 <ADC_ConversionStop_Disable>
 800221a:	4603      	mov	r3, r0
 800221c:	75fb      	strb	r3, [r7, #23]
  
  
  /* Configuration of ADC parameters if previous preliminary actions are      */ 
  /* correctly completed.                                                     */
  if (HAL_IS_BIT_CLR(hadc->State, HAL_ADC_STATE_ERROR_INTERNAL) &&
 800221e:	687b      	ldr	r3, [r7, #4]
 8002220:	6a9b      	ldr	r3, [r3, #40]	; 0x28
 8002222:	f003 0310 	and.w	r3, r3, #16
 8002226:	2b00      	cmp	r3, #0
 8002228:	f040 8099 	bne.w	800235e <HAL_ADC_Init+0x18e>
 800222c:	7dfb      	ldrb	r3, [r7, #23]
 800222e:	2b00      	cmp	r3, #0
 8002230:	f040 8095 	bne.w	800235e <HAL_ADC_Init+0x18e>
      (tmp_hal_status == HAL_OK)                                  )
  {
    /* Set ADC state */
    ADC_STATE_CLR_SET(hadc->State,
 8002234:	687b      	ldr	r3, [r7, #4]
 8002236:	6a9b      	ldr	r3, [r3, #40]	; 0x28
 8002238:	f423 5388 	bic.w	r3, r3, #4352	; 0x1100
 800223c:	f023 0302 	bic.w	r3, r3, #2
 8002240:	f043 0202 	orr.w	r2, r3, #2
 8002244:	687b      	ldr	r3, [r7, #4]
 8002246:	629a      	str	r2, [r3, #40]	; 0x28
    /*  - continuous conversion mode                                          */
    /* Note: External trigger polarity (ADC_CR2_EXTTRIG) is set into          */
    /*       HAL_ADC_Start_xxx functions because if set in this function,     */
    /*       a conversion on injected group would start a conversion also on  */
    /*       regular group after ADC enabling.                                */
    tmp_cr2 |= (hadc->Init.DataAlign                                          |
 8002248:	687b      	ldr	r3, [r7, #4]
 800224a:	685a      	ldr	r2, [r3, #4]
                ADC_CFGR_EXTSEL(hadc, hadc->Init.ExternalTrigConv)            |
 800224c:	687b      	ldr	r3, [r7, #4]
 800224e:	69db      	ldr	r3, [r3, #28]
    tmp_cr2 |= (hadc->Init.DataAlign                                          |
 8002250:	431a      	orrs	r2, r3
                ADC_CR2_CONTINUOUS((uint32_t)hadc->Init.ContinuousConvMode)   );
 8002252:	687b      	ldr	r3, [r7, #4]
 8002254:	7b1b      	ldrb	r3, [r3, #12]
 8002256:	005b      	lsls	r3, r3, #1
                ADC_CFGR_EXTSEL(hadc, hadc->Init.ExternalTrigConv)            |
 8002258:	4313      	orrs	r3, r2
    tmp_cr2 |= (hadc->Init.DataAlign                                          |
 800225a:	68ba      	ldr	r2, [r7, #8]
 800225c:	4313      	orrs	r3, r2
 800225e:	60bb      	str	r3, [r7, #8]

    /* Configuration of ADC:                                                  */
    /*  - scan mode                                                           */
    /*  - discontinuous mode disable/enable                                   */
    /*  - discontinuous mode number of conversions                            */
    tmp_cr1 |= (ADC_CR1_SCAN_SET(hadc->Init.ScanConvMode));
 8002260:	687b      	ldr	r3, [r7, #4]
 8002262:	689b      	ldr	r3, [r3, #8]
 8002264:	f5b3 7f80 	cmp.w	r3, #256	; 0x100
 8002268:	d003      	beq.n	8002272 <HAL_ADC_Init+0xa2>
 800226a:	687b      	ldr	r3, [r7, #4]
 800226c:	689b      	ldr	r3, [r3, #8]
 800226e:	2b01      	cmp	r3, #1
 8002270:	d102      	bne.n	8002278 <HAL_ADC_Init+0xa8>
 8002272:	f44f 7380 	mov.w	r3, #256	; 0x100
 8002276:	e000      	b.n	800227a <HAL_ADC_Init+0xaa>
 8002278:	2300      	movs	r3, #0
 800227a:	693a      	ldr	r2, [r7, #16]
 800227c:	4313      	orrs	r3, r2
 800227e:	613b      	str	r3, [r7, #16]
    
    /* Enable discontinuous mode only if continuous mode is disabled */
    /* Note: If parameter "Init.ScanConvMode" is set to disable, parameter    */
    /*       discontinuous is set anyway, but will have no effect on ADC HW.  */
    if (hadc->Init.DiscontinuousConvMode == ENABLE)
 8002280:	687b      	ldr	r3, [r7, #4]
 8002282:	7d1b      	ldrb	r3, [r3, #20]
 8002284:	2b01      	cmp	r3, #1
 8002286:	d119      	bne.n	80022bc <HAL_ADC_Init+0xec>
    {
      if (hadc->Init.ContinuousConvMode == DISABLE)
 8002288:	687b      	ldr	r3, [r7, #4]
 800228a:	7b1b      	ldrb	r3, [r3, #12]
 800228c:	2b00      	cmp	r3, #0
 800228e:	d109      	bne.n	80022a4 <HAL_ADC_Init+0xd4>
      {
        /* Enable the selected ADC regular discontinuous mode */
        /* Set the number of channels to be converted in discontinuous mode */
        SET_BIT(tmp_cr1, ADC_CR1_DISCEN                                            |
 8002290:	687b      	ldr	r3, [r7, #4]
 8002292:	699b      	ldr	r3, [r3, #24]
 8002294:	3b01      	subs	r3, #1
 8002296:	035a      	lsls	r2, r3, #13
 8002298:	693b      	ldr	r3, [r7, #16]
 800229a:	4313      	orrs	r3, r2
 800229c:	f443 6300 	orr.w	r3, r3, #2048	; 0x800
 80022a0:	613b      	str	r3, [r7, #16]
 80022a2:	e00b      	b.n	80022bc <HAL_ADC_Init+0xec>
      {
        /* ADC regular group settings continuous and sequencer discontinuous*/
        /* cannot be enabled simultaneously.                                */
        
        /* Update ADC state machine to error */
        SET_BIT(hadc->State, HAL_ADC_STATE_ERROR_CONFIG);
 80022a4:	687b      	ldr	r3, [r7, #4]
 80022a6:	6a9b      	ldr	r3, [r3, #40]	; 0x28
 80022a8:	f043 0220 	orr.w	r2, r3, #32
 80022ac:	687b      	ldr	r3, [r7, #4]
 80022ae:	629a      	str	r2, [r3, #40]	; 0x28
        
        /* Set ADC error code to ADC IP internal error */
        SET_BIT(hadc->ErrorCode, HAL_ADC_ERROR_INTERNAL);
 80022b0:	687b      	ldr	r3, [r7, #4]
 80022b2:	6adb      	ldr	r3, [r3, #44]	; 0x2c
 80022b4:	f043 0201 	orr.w	r2, r3, #1
 80022b8:	687b      	ldr	r3, [r7, #4]
 80022ba:	62da      	str	r2, [r3, #44]	; 0x2c
      }
    }
    
    /* Update ADC configuration register CR1 with previous settings */
      MODIFY_REG(hadc->Instance->CR1,
 80022bc:	687b      	ldr	r3, [r7, #4]
 80022be:	681b      	ldr	r3, [r3, #0]
 80022c0:	685b      	ldr	r3, [r3, #4]
 80022c2:	f423 4169 	bic.w	r1, r3, #59648	; 0xe900
 80022c6:	687b      	ldr	r3, [r7, #4]
 80022c8:	681b      	ldr	r3, [r3, #0]
 80022ca:	693a      	ldr	r2, [r7, #16]
 80022cc:	430a      	orrs	r2, r1
 80022ce:	605a      	str	r2, [r3, #4]
                 ADC_CR1_DISCEN  |
                 ADC_CR1_DISCNUM    ,
                 tmp_cr1             );
    
    /* Update ADC configuration register CR2 with previous settings */
      MODIFY_REG(hadc->Instance->CR2,
 80022d0:	687b      	ldr	r3, [r7, #4]
 80022d2:	681b      	ldr	r3, [r3, #0]
 80022d4:	689a      	ldr	r2, [r3, #8]
 80022d6:	4b28      	ldr	r3, [pc, #160]	; (8002378 <HAL_ADC_Init+0x1a8>)
 80022d8:	4013      	ands	r3, r2
 80022da:	687a      	ldr	r2, [r7, #4]
 80022dc:	6812      	ldr	r2, [r2, #0]
 80022de:	68b9      	ldr	r1, [r7, #8]
 80022e0:	430b      	orrs	r3, r1
 80022e2:	6093      	str	r3, [r2, #8]
    /*   Note: Scan mode is present by hardware on this device and, if        */
    /*   disabled, discards automatically nb of conversions. Anyway, nb of    */
    /*   conversions is forced to 0x00 for alignment over all STM32 devices.  */
    /* - if scan mode is enabled, regular channels sequence length is set to  */
    /*   parameter "NbrOfConversion"                                          */
    if (ADC_CR1_SCAN_SET(hadc->Init.ScanConvMode) == ADC_SCAN_ENABLE)
 80022e4:	687b      	ldr	r3, [r7, #4]
 80022e6:	689b      	ldr	r3, [r3, #8]
 80022e8:	f5b3 7f80 	cmp.w	r3, #256	; 0x100
 80022ec:	d003      	beq.n	80022f6 <HAL_ADC_Init+0x126>
 80022ee:	687b      	ldr	r3, [r7, #4]
 80022f0:	689b      	ldr	r3, [r3, #8]
 80022f2:	2b01      	cmp	r3, #1
 80022f4:	d104      	bne.n	8002300 <HAL_ADC_Init+0x130>
    {
      tmp_sqr1 = ADC_SQR1_L_SHIFT(hadc->Init.NbrOfConversion);
 80022f6:	687b      	ldr	r3, [r7, #4]
 80022f8:	691b      	ldr	r3, [r3, #16]
 80022fa:	3b01      	subs	r3, #1
 80022fc:	051b      	lsls	r3, r3, #20
 80022fe:	60fb      	str	r3, [r7, #12]
    }
      
    MODIFY_REG(hadc->Instance->SQR1,
 8002300:	687b      	ldr	r3, [r7, #4]
 8002302:	681b      	ldr	r3, [r3, #0]
 8002304:	6adb      	ldr	r3, [r3, #44]	; 0x2c
 8002306:	f423 0170 	bic.w	r1, r3, #15728640	; 0xf00000
 800230a:	687b      	ldr	r3, [r7, #4]
 800230c:	681b      	ldr	r3, [r3, #0]
 800230e:	68fa      	ldr	r2, [r7, #12]
 8002310:	430a      	orrs	r2, r1
 8002312:	62da      	str	r2, [r3, #44]	; 0x2c
    /* ensure of no potential problem of ADC core IP clocking.                */
    /* Check through register CR2 (excluding bits set in other functions:     */
    /* execution control bits (ADON, JSWSTART, SWSTART), regular group bits   */
    /* (DMA), injected group bits (JEXTTRIG and JEXTSEL), channel internal    */
    /* measurement path bit (TSVREFE).                                        */
    if (READ_BIT(hadc->Instance->CR2, ~(ADC_CR2_ADON | ADC_CR2_DMA |
 8002314:	687b      	ldr	r3, [r7, #4]
 8002316:	681b      	ldr	r3, [r3, #0]
 8002318:	689a      	ldr	r2, [r3, #8]
 800231a:	4b18      	ldr	r3, [pc, #96]	; (800237c <HAL_ADC_Init+0x1ac>)
 800231c:	4013      	ands	r3, r2
 800231e:	68ba      	ldr	r2, [r7, #8]
 8002320:	429a      	cmp	r2, r3
 8002322:	d10b      	bne.n	800233c <HAL_ADC_Init+0x16c>
                                        ADC_CR2_JEXTTRIG | ADC_CR2_JEXTSEL |
                                        ADC_CR2_TSVREFE                     ))
         == tmp_cr2)
    {
      /* Set ADC error code to none */
      ADC_CLEAR_ERRORCODE(hadc);
 8002324:	687b      	ldr	r3, [r7, #4]
 8002326:	2200      	movs	r2, #0
 8002328:	62da      	str	r2, [r3, #44]	; 0x2c
      
      /* Set the ADC state */
      ADC_STATE_CLR_SET(hadc->State,
 800232a:	687b      	ldr	r3, [r7, #4]
 800232c:	6a9b      	ldr	r3, [r3, #40]	; 0x28
 800232e:	f023 0303 	bic.w	r3, r3, #3
 8002332:	f043 0201 	orr.w	r2, r3, #1
 8002336:	687b      	ldr	r3, [r7, #4]
 8002338:	629a      	str	r2, [r3, #40]	; 0x28
    if (READ_BIT(hadc->Instance->CR2, ~(ADC_CR2_ADON | ADC_CR2_DMA |
 800233a:	e018      	b.n	800236e <HAL_ADC_Init+0x19e>
                        HAL_ADC_STATE_READY);
    }
    else
    {
      /* Update ADC state machine to error */
      ADC_STATE_CLR_SET(hadc->State,
 800233c:	687b      	ldr	r3, [r7, #4]
 800233e:	6a9b      	ldr	r3, [r3, #40]	; 0x28
 8002340:	f023 0312 	bic.w	r3, r3, #18
 8002344:	f043 0210 	orr.w	r2, r3, #16
 8002348:	687b      	ldr	r3, [r7, #4]
 800234a:	629a      	str	r2, [r3, #40]	; 0x28
                        HAL_ADC_STATE_BUSY_INTERNAL,
                        HAL_ADC_STATE_ERROR_INTERNAL);
      
      /* Set ADC error code to ADC IP internal error */
      SET_BIT(hadc->ErrorCode, HAL_ADC_ERROR_INTERNAL);
 800234c:	687b      	ldr	r3, [r7, #4]
 800234e:	6adb      	ldr	r3, [r3, #44]	; 0x2c
 8002350:	f043 0201 	orr.w	r2, r3, #1
 8002354:	687b      	ldr	r3, [r7, #4]
 8002356:	62da      	str	r2, [r3, #44]	; 0x2c
      
      tmp_hal_status = HAL_ERROR;
 8002358:	2301      	movs	r3, #1
 800235a:	75fb      	strb	r3, [r7, #23]
    if (READ_BIT(hadc->Instance->CR2, ~(ADC_CR2_ADON | ADC_CR2_DMA |
 800235c:	e007      	b.n	800236e <HAL_ADC_Init+0x19e>
  
  }
  else
  {
    /* Update ADC state machine to error */
    SET_BIT(hadc->State, HAL_ADC_STATE_ERROR_INTERNAL);
 800235e:	687b      	ldr	r3, [r7, #4]
 8002360:	6a9b      	ldr	r3, [r3, #40]	; 0x28
 8002362:	f043 0210 	orr.w	r2, r3, #16
 8002366:	687b      	ldr	r3, [r7, #4]
 8002368:	629a      	str	r2, [r3, #40]	; 0x28
        
    tmp_hal_status = HAL_ERROR;
 800236a:	2301      	movs	r3, #1
 800236c:	75fb      	strb	r3, [r7, #23]
  }
  
  /* Return function status */
  return tmp_hal_status;
 800236e:	7dfb      	ldrb	r3, [r7, #23]
}
 8002370:	4618      	mov	r0, r3
 8002372:	3718      	adds	r7, #24
 8002374:	46bd      	mov	sp, r7
 8002376:	bd80      	pop	{r7, pc}
 8002378:	ffe1f7fd 	.word	0xffe1f7fd
 800237c:	ff1f0efe 	.word	0xff1f0efe

08002380 <HAL_ADC_Start_DMA>:
  * @param  pData: The destination Buffer address.
  * @param  Length: The length of data to be transferred from ADC peripheral to memory.
  * @retval None
  */
HAL_StatusTypeDef HAL_ADC_Start_DMA(ADC_HandleTypeDef* hadc, uint32_t* pData, uint32_t Length)
{
 8002380:	b580      	push	{r7, lr}
 8002382:	b086      	sub	sp, #24
 8002384:	af00      	add	r7, sp, #0
 8002386:	60f8      	str	r0, [r7, #12]
 8002388:	60b9      	str	r1, [r7, #8]
 800238a:	607a      	str	r2, [r7, #4]
  HAL_StatusTypeDef tmp_hal_status = HAL_OK;
 800238c:	2300      	movs	r3, #0
 800238e:	75fb      	strb	r3, [r7, #23]
  assert_param(IS_ADC_DMA_CAPABILITY_INSTANCE(hadc->Instance));
    
  /* Verification if multimode is disabled (for devices with several ADC)     */
  /* If multimode is enabled, dedicated function multimode conversion         */
  /* start DMA must be used.                                                  */
  if(ADC_MULTIMODE_IS_ENABLE(hadc) == RESET)
 8002390:	68fb      	ldr	r3, [r7, #12]
 8002392:	681b      	ldr	r3, [r3, #0]
 8002394:	4a64      	ldr	r2, [pc, #400]	; (8002528 <HAL_ADC_Start_DMA+0x1a8>)
 8002396:	4293      	cmp	r3, r2
 8002398:	d004      	beq.n	80023a4 <HAL_ADC_Start_DMA+0x24>
 800239a:	68fb      	ldr	r3, [r7, #12]
 800239c:	681b      	ldr	r3, [r3, #0]
 800239e:	4a63      	ldr	r2, [pc, #396]	; (800252c <HAL_ADC_Start_DMA+0x1ac>)
 80023a0:	4293      	cmp	r3, r2
 80023a2:	d106      	bne.n	80023b2 <HAL_ADC_Start_DMA+0x32>
 80023a4:	4b60      	ldr	r3, [pc, #384]	; (8002528 <HAL_ADC_Start_DMA+0x1a8>)
 80023a6:	685b      	ldr	r3, [r3, #4]
 80023a8:	f403 2370 	and.w	r3, r3, #983040	; 0xf0000
 80023ac:	2b00      	cmp	r3, #0
 80023ae:	f040 80b3 	bne.w	8002518 <HAL_ADC_Start_DMA+0x198>
  {
    /* Process locked */
    __HAL_LOCK(hadc);
 80023b2:	68fb      	ldr	r3, [r7, #12]
 80023b4:	f893 3024 	ldrb.w	r3, [r3, #36]	; 0x24
 80023b8:	2b01      	cmp	r3, #1
 80023ba:	d101      	bne.n	80023c0 <HAL_ADC_Start_DMA+0x40>
 80023bc:	2302      	movs	r3, #2
 80023be:	e0ae      	b.n	800251e <HAL_ADC_Start_DMA+0x19e>
 80023c0:	68fb      	ldr	r3, [r7, #12]
 80023c2:	2201      	movs	r2, #1
 80023c4:	f883 2024 	strb.w	r2, [r3, #36]	; 0x24
    
    /* Enable the ADC peripheral */
    tmp_hal_status = ADC_Enable(hadc);
 80023c8:	68f8      	ldr	r0, [r7, #12]
 80023ca:	f000 f9cb 	bl	8002764 <ADC_Enable>
 80023ce:	4603      	mov	r3, r0
 80023d0:	75fb      	strb	r3, [r7, #23]
    
    /* Start conversion if ADC is effectively enabled */
    if (tmp_hal_status == HAL_OK)
 80023d2:	7dfb      	ldrb	r3, [r7, #23]
 80023d4:	2b00      	cmp	r3, #0
 80023d6:	f040 809a 	bne.w	800250e <HAL_ADC_Start_DMA+0x18e>
    {
      /* Set ADC state                                                        */
      /* - Clear state bitfield related to regular group conversion results   */
      /* - Set state bitfield related to regular operation                    */
      ADC_STATE_CLR_SET(hadc->State,
 80023da:	68fb      	ldr	r3, [r7, #12]
 80023dc:	6a9b      	ldr	r3, [r3, #40]	; 0x28
 80023de:	f423 6370 	bic.w	r3, r3, #3840	; 0xf00
 80023e2:	f023 0301 	bic.w	r3, r3, #1
 80023e6:	f443 7280 	orr.w	r2, r3, #256	; 0x100
 80023ea:	68fb      	ldr	r3, [r7, #12]
 80023ec:	629a      	str	r2, [r3, #40]	; 0x28
                        HAL_ADC_STATE_REG_BUSY);
    
    /* Set group injected state (from auto-injection) and multimode state     */
    /* for all cases of multimode: independent mode, multimode ADC master     */
    /* or multimode ADC slave (for devices with several ADCs):                */
    if (ADC_NONMULTIMODE_OR_MULTIMODEMASTER(hadc))
 80023ee:	68fb      	ldr	r3, [r7, #12]
 80023f0:	681b      	ldr	r3, [r3, #0]
 80023f2:	4a4e      	ldr	r2, [pc, #312]	; (800252c <HAL_ADC_Start_DMA+0x1ac>)
 80023f4:	4293      	cmp	r3, r2
 80023f6:	d105      	bne.n	8002404 <HAL_ADC_Start_DMA+0x84>
 80023f8:	4b4b      	ldr	r3, [pc, #300]	; (8002528 <HAL_ADC_Start_DMA+0x1a8>)
 80023fa:	685b      	ldr	r3, [r3, #4]
 80023fc:	f403 2370 	and.w	r3, r3, #983040	; 0xf0000
 8002400:	2b00      	cmp	r3, #0
 8002402:	d115      	bne.n	8002430 <HAL_ADC_Start_DMA+0xb0>
    {
      /* Set ADC state (ADC independent or master) */
      CLEAR_BIT(hadc->State, HAL_ADC_STATE_MULTIMODE_SLAVE);
 8002404:	68fb      	ldr	r3, [r7, #12]
 8002406:	6a9b      	ldr	r3, [r3, #40]	; 0x28
 8002408:	f423 1280 	bic.w	r2, r3, #1048576	; 0x100000
 800240c:	68fb      	ldr	r3, [r7, #12]
 800240e:	629a      	str	r2, [r3, #40]	; 0x28
      
      /* If conversions on group regular are also triggering group injected,  */
      /* update ADC state.                                                    */
      if (READ_BIT(hadc->Instance->CR1, ADC_CR1_JAUTO) != RESET)
 8002410:	68fb      	ldr	r3, [r7, #12]
 8002412:	681b      	ldr	r3, [r3, #0]
 8002414:	685b      	ldr	r3, [r3, #4]
 8002416:	f403 6380 	and.w	r3, r3, #1024	; 0x400
 800241a:	2b00      	cmp	r3, #0
 800241c:	d026      	beq.n	800246c <HAL_ADC_Start_DMA+0xec>
      {
        ADC_STATE_CLR_SET(hadc->State, HAL_ADC_STATE_INJ_EOC, HAL_ADC_STATE_INJ_BUSY);  
 800241e:	68fb      	ldr	r3, [r7, #12]
 8002420:	6a9b      	ldr	r3, [r3, #40]	; 0x28
 8002422:	f423 5340 	bic.w	r3, r3, #12288	; 0x3000
 8002426:	f443 5280 	orr.w	r2, r3, #4096	; 0x1000
 800242a:	68fb      	ldr	r3, [r7, #12]
 800242c:	629a      	str	r2, [r3, #40]	; 0x28
      if (READ_BIT(hadc->Instance->CR1, ADC_CR1_JAUTO) != RESET)
 800242e:	e01d      	b.n	800246c <HAL_ADC_Start_DMA+0xec>
      }
    }
    else
    {
      /* Set ADC state (ADC slave) */
      SET_BIT(hadc->State, HAL_ADC_STATE_MULTIMODE_SLAVE);
 8002430:	68fb      	ldr	r3, [r7, #12]
 8002432:	6a9b      	ldr	r3, [r3, #40]	; 0x28
 8002434:	f443 1280 	orr.w	r2, r3, #1048576	; 0x100000
 8002438:	68fb      	ldr	r3, [r7, #12]
 800243a:	629a      	str	r2, [r3, #40]	; 0x28
      
      /* If conversions on group regular are also triggering group injected,  */
      /* update ADC state.                                                    */
      if (ADC_MULTIMODE_AUTO_INJECTED(hadc))
 800243c:	68fb      	ldr	r3, [r7, #12]
 800243e:	681b      	ldr	r3, [r3, #0]
 8002440:	4a39      	ldr	r2, [pc, #228]	; (8002528 <HAL_ADC_Start_DMA+0x1a8>)
 8002442:	4293      	cmp	r3, r2
 8002444:	d004      	beq.n	8002450 <HAL_ADC_Start_DMA+0xd0>
 8002446:	68fb      	ldr	r3, [r7, #12]
 8002448:	681b      	ldr	r3, [r3, #0]
 800244a:	4a38      	ldr	r2, [pc, #224]	; (800252c <HAL_ADC_Start_DMA+0x1ac>)
 800244c:	4293      	cmp	r3, r2
 800244e:	d10d      	bne.n	800246c <HAL_ADC_Start_DMA+0xec>
 8002450:	4b35      	ldr	r3, [pc, #212]	; (8002528 <HAL_ADC_Start_DMA+0x1a8>)
 8002452:	685b      	ldr	r3, [r3, #4]
 8002454:	f403 6380 	and.w	r3, r3, #1024	; 0x400
 8002458:	2b00      	cmp	r3, #0
 800245a:	d007      	beq.n	800246c <HAL_ADC_Start_DMA+0xec>
      {
        ADC_STATE_CLR_SET(hadc->State, HAL_ADC_STATE_INJ_EOC, HAL_ADC_STATE_INJ_BUSY);
 800245c:	68fb      	ldr	r3, [r7, #12]
 800245e:	6a9b      	ldr	r3, [r3, #40]	; 0x28
 8002460:	f423 5340 	bic.w	r3, r3, #12288	; 0x3000
 8002464:	f443 5280 	orr.w	r2, r3, #4096	; 0x1000
 8002468:	68fb      	ldr	r3, [r7, #12]
 800246a:	629a      	str	r2, [r3, #40]	; 0x28
      }
    }
      
      /* State machine update: Check if an injected conversion is ongoing */
      if (HAL_IS_BIT_SET(hadc->State, HAL_ADC_STATE_INJ_BUSY))
 800246c:	68fb      	ldr	r3, [r7, #12]
 800246e:	6a9b      	ldr	r3, [r3, #40]	; 0x28
 8002470:	f403 5380 	and.w	r3, r3, #4096	; 0x1000
 8002474:	2b00      	cmp	r3, #0
 8002476:	d006      	beq.n	8002486 <HAL_ADC_Start_DMA+0x106>
      {
        /* Reset ADC error code fields related to conversions on group regular */
        CLEAR_BIT(hadc->ErrorCode, (HAL_ADC_ERROR_OVR | HAL_ADC_ERROR_DMA));         
 8002478:	68fb      	ldr	r3, [r7, #12]
 800247a:	6adb      	ldr	r3, [r3, #44]	; 0x2c
 800247c:	f023 0206 	bic.w	r2, r3, #6
 8002480:	68fb      	ldr	r3, [r7, #12]
 8002482:	62da      	str	r2, [r3, #44]	; 0x2c
 8002484:	e002      	b.n	800248c <HAL_ADC_Start_DMA+0x10c>
      }
      else
      {
        /* Reset ADC all error code fields */
        ADC_CLEAR_ERRORCODE(hadc);
 8002486:	68fb      	ldr	r3, [r7, #12]
 8002488:	2200      	movs	r2, #0
 800248a:	62da      	str	r2, [r3, #44]	; 0x2c
      }
      
      /* Process unlocked */
      /* Unlock before starting ADC conversions: in case of potential         */
      /* interruption, to let the process to ADC IRQ Handler.                 */
      __HAL_UNLOCK(hadc);
 800248c:	68fb      	ldr	r3, [r7, #12]
 800248e:	2200      	movs	r2, #0
 8002490:	f883 2024 	strb.w	r2, [r3, #36]	; 0x24
      
      /* Set the DMA transfer complete callback */
      hadc->DMA_Handle->XferCpltCallback = ADC_DMAConvCplt;
 8002494:	68fb      	ldr	r3, [r7, #12]
 8002496:	6a1b      	ldr	r3, [r3, #32]
 8002498:	4a25      	ldr	r2, [pc, #148]	; (8002530 <HAL_ADC_Start_DMA+0x1b0>)
 800249a:	629a      	str	r2, [r3, #40]	; 0x28

      /* Set the DMA half transfer complete callback */
      hadc->DMA_Handle->XferHalfCpltCallback = ADC_DMAHalfConvCplt;
 800249c:	68fb      	ldr	r3, [r7, #12]
 800249e:	6a1b      	ldr	r3, [r3, #32]
 80024a0:	4a24      	ldr	r2, [pc, #144]	; (8002534 <HAL_ADC_Start_DMA+0x1b4>)
 80024a2:	62da      	str	r2, [r3, #44]	; 0x2c
      
      /* Set the DMA error callback */
      hadc->DMA_Handle->XferErrorCallback = ADC_DMAError;
 80024a4:	68fb      	ldr	r3, [r7, #12]
 80024a6:	6a1b      	ldr	r3, [r3, #32]
 80024a8:	4a23      	ldr	r2, [pc, #140]	; (8002538 <HAL_ADC_Start_DMA+0x1b8>)
 80024aa:	631a      	str	r2, [r3, #48]	; 0x30
      /* start (in case of SW start):                                         */
      
      /* Clear regular group conversion flag and overrun flag */
      /* (To ensure of no unknown state from potential previous ADC           */
      /* operations)                                                          */
      __HAL_ADC_CLEAR_FLAG(hadc, ADC_FLAG_EOC);
 80024ac:	68fb      	ldr	r3, [r7, #12]
 80024ae:	681b      	ldr	r3, [r3, #0]
 80024b0:	f06f 0202 	mvn.w	r2, #2
 80024b4:	601a      	str	r2, [r3, #0]
      
      /* Enable ADC DMA mode */
      SET_BIT(hadc->Instance->CR2, ADC_CR2_DMA);
 80024b6:	68fb      	ldr	r3, [r7, #12]
 80024b8:	681b      	ldr	r3, [r3, #0]
 80024ba:	689a      	ldr	r2, [r3, #8]
 80024bc:	68fb      	ldr	r3, [r7, #12]
 80024be:	681b      	ldr	r3, [r3, #0]
 80024c0:	f442 7280 	orr.w	r2, r2, #256	; 0x100
 80024c4:	609a      	str	r2, [r3, #8]
      
      /* Start the DMA channel */
      HAL_DMA_Start_IT(hadc->DMA_Handle, (uint32_t)&hadc->Instance->DR, (uint32_t)pData, Length);
 80024c6:	68fb      	ldr	r3, [r7, #12]
 80024c8:	6a18      	ldr	r0, [r3, #32]
 80024ca:	68fb      	ldr	r3, [r7, #12]
 80024cc:	681b      	ldr	r3, [r3, #0]
 80024ce:	334c      	adds	r3, #76	; 0x4c
 80024d0:	4619      	mov	r1, r3
 80024d2:	68ba      	ldr	r2, [r7, #8]
 80024d4:	687b      	ldr	r3, [r7, #4]
 80024d6:	f001 f89f 	bl	8003618 <HAL_DMA_Start_IT>
      
      /* Enable conversion of regular group.                                  */
      /* If software start has been selected, conversion starts immediately.  */
      /* If external trigger has been selected, conversion will start at next */
      /* trigger event.                                                       */
      if (ADC_IS_SOFTWARE_START_REGULAR(hadc))
 80024da:	68fb      	ldr	r3, [r7, #12]
 80024dc:	681b      	ldr	r3, [r3, #0]
 80024de:	689b      	ldr	r3, [r3, #8]
 80024e0:	f403 2360 	and.w	r3, r3, #917504	; 0xe0000
 80024e4:	f5b3 2f60 	cmp.w	r3, #917504	; 0xe0000
 80024e8:	d108      	bne.n	80024fc <HAL_ADC_Start_DMA+0x17c>
      {
        /* Start ADC conversion on regular group with SW start */
        SET_BIT(hadc->Instance->CR2, (ADC_CR2_SWSTART | ADC_CR2_EXTTRIG));
 80024ea:	68fb      	ldr	r3, [r7, #12]
 80024ec:	681b      	ldr	r3, [r3, #0]
 80024ee:	689a      	ldr	r2, [r3, #8]
 80024f0:	68fb      	ldr	r3, [r7, #12]
 80024f2:	681b      	ldr	r3, [r3, #0]
 80024f4:	f442 02a0 	orr.w	r2, r2, #5242880	; 0x500000
 80024f8:	609a      	str	r2, [r3, #8]
    if (tmp_hal_status == HAL_OK)
 80024fa:	e00f      	b.n	800251c <HAL_ADC_Start_DMA+0x19c>
      }
      else
      {
        /* Start ADC conversion on regular group with external trigger */
        SET_BIT(hadc->Instance->CR2, ADC_CR2_EXTTRIG);
 80024fc:	68fb      	ldr	r3, [r7, #12]
 80024fe:	681b      	ldr	r3, [r3, #0]
 8002500:	689a      	ldr	r2, [r3, #8]
 8002502:	68fb      	ldr	r3, [r7, #12]
 8002504:	681b      	ldr	r3, [r3, #0]
 8002506:	f442 1280 	orr.w	r2, r2, #1048576	; 0x100000
 800250a:	609a      	str	r2, [r3, #8]
    if (tmp_hal_status == HAL_OK)
 800250c:	e006      	b.n	800251c <HAL_ADC_Start_DMA+0x19c>
      }
    }
    else
    {
      /* Process unlocked */
      __HAL_UNLOCK(hadc);
 800250e:	68fb      	ldr	r3, [r7, #12]
 8002510:	2200      	movs	r2, #0
 8002512:	f883 2024 	strb.w	r2, [r3, #36]	; 0x24
    if (tmp_hal_status == HAL_OK)
 8002516:	e001      	b.n	800251c <HAL_ADC_Start_DMA+0x19c>
    }
  }
  else
  {
    tmp_hal_status = HAL_ERROR;
 8002518:	2301      	movs	r3, #1
 800251a:	75fb      	strb	r3, [r7, #23]
  }
  
  /* Return function status */
  return tmp_hal_status;
 800251c:	7dfb      	ldrb	r3, [r7, #23]
}
 800251e:	4618      	mov	r0, r3
 8002520:	3718      	adds	r7, #24
 8002522:	46bd      	mov	sp, r7
 8002524:	bd80      	pop	{r7, pc}
 8002526:	bf00      	nop
 8002528:	40012400 	.word	0x40012400
 800252c:	40012800 	.word	0x40012800
 8002530:	0800287d 	.word	0x0800287d
 8002534:	080028f9 	.word	0x080028f9
 8002538:	08002915 	.word	0x08002915

0800253c <HAL_ADC_ConvCpltCallback>:
  * @brief  Conversion complete callback in non blocking mode 
  * @param  hadc: ADC handle
  * @retval None
  */
__weak void HAL_ADC_ConvCpltCallback(ADC_HandleTypeDef* hadc)
{
 800253c:	b480      	push	{r7}
 800253e:	b083      	sub	sp, #12
 8002540:	af00      	add	r7, sp, #0
 8002542:	6078      	str	r0, [r7, #4]
  /* Prevent unused argument(s) compilation warning */
  UNUSED(hadc);
  /* NOTE : This function should not be modified. When the callback is needed,
            function HAL_ADC_ConvCpltCallback must be implemented in the user file.
   */
}
 8002544:	bf00      	nop
 8002546:	370c      	adds	r7, #12
 8002548:	46bd      	mov	sp, r7
 800254a:	bc80      	pop	{r7}
 800254c:	4770      	bx	lr

0800254e <HAL_ADC_ConvHalfCpltCallback>:
  * @brief  Conversion DMA half-transfer callback in non blocking mode 
  * @param  hadc: ADC handle
  * @retval None
  */
__weak void HAL_ADC_ConvHalfCpltCallback(ADC_HandleTypeDef* hadc)
{
 800254e:	b480      	push	{r7}
 8002550:	b083      	sub	sp, #12
 8002552:	af00      	add	r7, sp, #0
 8002554:	6078      	str	r0, [r7, #4]
  /* Prevent unused argument(s) compilation warning */
  UNUSED(hadc);
  /* NOTE : This function should not be modified. When the callback is needed,
            function HAL_ADC_ConvHalfCpltCallback must be implemented in the user file.
  */
}
 8002556:	bf00      	nop
 8002558:	370c      	adds	r7, #12
 800255a:	46bd      	mov	sp, r7
 800255c:	bc80      	pop	{r7}
 800255e:	4770      	bx	lr

08002560 <HAL_ADC_ErrorCallback>:
  *        (ADC conversion with interruption or transfer by DMA)
  * @param  hadc: ADC handle
  * @retval None
  */
__weak void HAL_ADC_ErrorCallback(ADC_HandleTypeDef *hadc)
{
 8002560:	b480      	push	{r7}
 8002562:	b083      	sub	sp, #12
 8002564:	af00      	add	r7, sp, #0
 8002566:	6078      	str	r0, [r7, #4]
  /* Prevent unused argument(s) compilation warning */
  UNUSED(hadc);
  /* NOTE : This function should not be modified. When the callback is needed,
            function HAL_ADC_ErrorCallback must be implemented in the user file.
  */
}
 8002568:	bf00      	nop
 800256a:	370c      	adds	r7, #12
 800256c:	46bd      	mov	sp, r7
 800256e:	bc80      	pop	{r7}
 8002570:	4770      	bx	lr
	...

08002574 <HAL_ADC_ConfigChannel>:
  * @param  hadc: ADC handle
  * @param  sConfig: Structure of ADC channel for regular group.
  * @retval HAL status
  */
HAL_StatusTypeDef HAL_ADC_ConfigChannel(ADC_HandleTypeDef* hadc, ADC_ChannelConfTypeDef* sConfig)
{ 
 8002574:	b480      	push	{r7}
 8002576:	b085      	sub	sp, #20
 8002578:	af00      	add	r7, sp, #0
 800257a:	6078      	str	r0, [r7, #4]
 800257c:	6039      	str	r1, [r7, #0]
  HAL_StatusTypeDef tmp_hal_status = HAL_OK;
 800257e:	2300      	movs	r3, #0
 8002580:	73fb      	strb	r3, [r7, #15]
  __IO uint32_t wait_loop_index = 0U;
 8002582:	2300      	movs	r3, #0
 8002584:	60bb      	str	r3, [r7, #8]
  assert_param(IS_ADC_CHANNEL(sConfig->Channel));
  assert_param(IS_ADC_REGULAR_RANK(sConfig->Rank));
  assert_param(IS_ADC_SAMPLE_TIME(sConfig->SamplingTime));
  
  /* Process locked */
  __HAL_LOCK(hadc);
 8002586:	687b      	ldr	r3, [r7, #4]
 8002588:	f893 3024 	ldrb.w	r3, [r3, #36]	; 0x24
 800258c:	2b01      	cmp	r3, #1
 800258e:	d101      	bne.n	8002594 <HAL_ADC_ConfigChannel+0x20>
 8002590:	2302      	movs	r3, #2
 8002592:	e0dc      	b.n	800274e <HAL_ADC_ConfigChannel+0x1da>
 8002594:	687b      	ldr	r3, [r7, #4]
 8002596:	2201      	movs	r2, #1
 8002598:	f883 2024 	strb.w	r2, [r3, #36]	; 0x24
  
  
  /* Regular sequence configuration */
  /* For Rank 1 to 6 */
  if (sConfig->Rank < 7U)
 800259c:	683b      	ldr	r3, [r7, #0]
 800259e:	685b      	ldr	r3, [r3, #4]
 80025a0:	2b06      	cmp	r3, #6
 80025a2:	d81c      	bhi.n	80025de <HAL_ADC_ConfigChannel+0x6a>
  {
    MODIFY_REG(hadc->Instance->SQR3                        ,
 80025a4:	687b      	ldr	r3, [r7, #4]
 80025a6:	681b      	ldr	r3, [r3, #0]
 80025a8:	6b59      	ldr	r1, [r3, #52]	; 0x34
 80025aa:	683b      	ldr	r3, [r7, #0]
 80025ac:	685a      	ldr	r2, [r3, #4]
 80025ae:	4613      	mov	r3, r2
 80025b0:	009b      	lsls	r3, r3, #2
 80025b2:	4413      	add	r3, r2
 80025b4:	3b05      	subs	r3, #5
 80025b6:	221f      	movs	r2, #31
 80025b8:	fa02 f303 	lsl.w	r3, r2, r3
 80025bc:	43db      	mvns	r3, r3
 80025be:	4019      	ands	r1, r3
 80025c0:	683b      	ldr	r3, [r7, #0]
 80025c2:	6818      	ldr	r0, [r3, #0]
 80025c4:	683b      	ldr	r3, [r7, #0]
 80025c6:	685a      	ldr	r2, [r3, #4]
 80025c8:	4613      	mov	r3, r2
 80025ca:	009b      	lsls	r3, r3, #2
 80025cc:	4413      	add	r3, r2
 80025ce:	3b05      	subs	r3, #5
 80025d0:	fa00 f203 	lsl.w	r2, r0, r3
 80025d4:	687b      	ldr	r3, [r7, #4]
 80025d6:	681b      	ldr	r3, [r3, #0]
 80025d8:	430a      	orrs	r2, r1
 80025da:	635a      	str	r2, [r3, #52]	; 0x34
 80025dc:	e03c      	b.n	8002658 <HAL_ADC_ConfigChannel+0xe4>
               ADC_SQR3_RK(ADC_SQR3_SQ1, sConfig->Rank)    ,
               ADC_SQR3_RK(sConfig->Channel, sConfig->Rank) );
  }
  /* For Rank 7 to 12 */
  else if (sConfig->Rank < 13U)
 80025de:	683b      	ldr	r3, [r7, #0]
 80025e0:	685b      	ldr	r3, [r3, #4]
 80025e2:	2b0c      	cmp	r3, #12
 80025e4:	d81c      	bhi.n	8002620 <HAL_ADC_ConfigChannel+0xac>
  {
    MODIFY_REG(hadc->Instance->SQR2                        ,
 80025e6:	687b      	ldr	r3, [r7, #4]
 80025e8:	681b      	ldr	r3, [r3, #0]
 80025ea:	6b19      	ldr	r1, [r3, #48]	; 0x30
 80025ec:	683b      	ldr	r3, [r7, #0]
 80025ee:	685a      	ldr	r2, [r3, #4]
 80025f0:	4613      	mov	r3, r2
 80025f2:	009b      	lsls	r3, r3, #2
 80025f4:	4413      	add	r3, r2
 80025f6:	3b23      	subs	r3, #35	; 0x23
 80025f8:	221f      	movs	r2, #31
 80025fa:	fa02 f303 	lsl.w	r3, r2, r3
 80025fe:	43db      	mvns	r3, r3
 8002600:	4019      	ands	r1, r3
 8002602:	683b      	ldr	r3, [r7, #0]
 8002604:	6818      	ldr	r0, [r3, #0]
 8002606:	683b      	ldr	r3, [r7, #0]
 8002608:	685a      	ldr	r2, [r3, #4]
 800260a:	4613      	mov	r3, r2
 800260c:	009b      	lsls	r3, r3, #2
 800260e:	4413      	add	r3, r2
 8002610:	3b23      	subs	r3, #35	; 0x23
 8002612:	fa00 f203 	lsl.w	r2, r0, r3
 8002616:	687b      	ldr	r3, [r7, #4]
 8002618:	681b      	ldr	r3, [r3, #0]
 800261a:	430a      	orrs	r2, r1
 800261c:	631a      	str	r2, [r3, #48]	; 0x30
 800261e:	e01b      	b.n	8002658 <HAL_ADC_ConfigChannel+0xe4>
               ADC_SQR2_RK(sConfig->Channel, sConfig->Rank) );
  }
  /* For Rank 13 to 16 */
  else
  {
    MODIFY_REG(hadc->Instance->SQR1                        ,
 8002620:	687b      	ldr	r3, [r7, #4]
 8002622:	681b      	ldr	r3, [r3, #0]
 8002624:	6ad9      	ldr	r1, [r3, #44]	; 0x2c
 8002626:	683b      	ldr	r3, [r7, #0]
 8002628:	685a      	ldr	r2, [r3, #4]
 800262a:	4613      	mov	r3, r2
 800262c:	009b      	lsls	r3, r3, #2
 800262e:	4413      	add	r3, r2
 8002630:	3b41      	subs	r3, #65	; 0x41
 8002632:	221f      	movs	r2, #31
 8002634:	fa02 f303 	lsl.w	r3, r2, r3
 8002638:	43db      	mvns	r3, r3
 800263a:	4019      	ands	r1, r3
 800263c:	683b      	ldr	r3, [r7, #0]
 800263e:	6818      	ldr	r0, [r3, #0]
 8002640:	683b      	ldr	r3, [r7, #0]
 8002642:	685a      	ldr	r2, [r3, #4]
 8002644:	4613      	mov	r3, r2
 8002646:	009b      	lsls	r3, r3, #2
 8002648:	4413      	add	r3, r2
 800264a:	3b41      	subs	r3, #65	; 0x41
 800264c:	fa00 f203 	lsl.w	r2, r0, r3
 8002650:	687b      	ldr	r3, [r7, #4]
 8002652:	681b      	ldr	r3, [r3, #0]
 8002654:	430a      	orrs	r2, r1
 8002656:	62da      	str	r2, [r3, #44]	; 0x2c
  }
  
  
  /* Channel sampling time configuration */
  /* For channels 10 to 17 */
  if (sConfig->Channel >= ADC_CHANNEL_10)
 8002658:	683b      	ldr	r3, [r7, #0]
 800265a:	681b      	ldr	r3, [r3, #0]
 800265c:	2b09      	cmp	r3, #9
 800265e:	d91c      	bls.n	800269a <HAL_ADC_ConfigChannel+0x126>
  {
    MODIFY_REG(hadc->Instance->SMPR1                             ,
 8002660:	687b      	ldr	r3, [r7, #4]
 8002662:	681b      	ldr	r3, [r3, #0]
 8002664:	68d9      	ldr	r1, [r3, #12]
 8002666:	683b      	ldr	r3, [r7, #0]
 8002668:	681a      	ldr	r2, [r3, #0]
 800266a:	4613      	mov	r3, r2
 800266c:	005b      	lsls	r3, r3, #1
 800266e:	4413      	add	r3, r2
 8002670:	3b1e      	subs	r3, #30
 8002672:	2207      	movs	r2, #7
 8002674:	fa02 f303 	lsl.w	r3, r2, r3
 8002678:	43db      	mvns	r3, r3
 800267a:	4019      	ands	r1, r3
 800267c:	683b      	ldr	r3, [r7, #0]
 800267e:	6898      	ldr	r0, [r3, #8]
 8002680:	683b      	ldr	r3, [r7, #0]
 8002682:	681a      	ldr	r2, [r3, #0]
 8002684:	4613      	mov	r3, r2
 8002686:	005b      	lsls	r3, r3, #1
 8002688:	4413      	add	r3, r2
 800268a:	3b1e      	subs	r3, #30
 800268c:	fa00 f203 	lsl.w	r2, r0, r3
 8002690:	687b      	ldr	r3, [r7, #4]
 8002692:	681b      	ldr	r3, [r3, #0]
 8002694:	430a      	orrs	r2, r1
 8002696:	60da      	str	r2, [r3, #12]
 8002698:	e019      	b.n	80026ce <HAL_ADC_ConfigChannel+0x15a>
               ADC_SMPR1(ADC_SMPR1_SMP10, sConfig->Channel)      ,
               ADC_SMPR1(sConfig->SamplingTime, sConfig->Channel) );
  }
  else /* For channels 0 to 9 */
  {
    MODIFY_REG(hadc->Instance->SMPR2                             ,
 800269a:	687b      	ldr	r3, [r7, #4]
 800269c:	681b      	ldr	r3, [r3, #0]
 800269e:	6919      	ldr	r1, [r3, #16]
 80026a0:	683b      	ldr	r3, [r7, #0]
 80026a2:	681a      	ldr	r2, [r3, #0]
 80026a4:	4613      	mov	r3, r2
 80026a6:	005b      	lsls	r3, r3, #1
 80026a8:	4413      	add	r3, r2
 80026aa:	2207      	movs	r2, #7
 80026ac:	fa02 f303 	lsl.w	r3, r2, r3
 80026b0:	43db      	mvns	r3, r3
 80026b2:	4019      	ands	r1, r3
 80026b4:	683b      	ldr	r3, [r7, #0]
 80026b6:	6898      	ldr	r0, [r3, #8]
 80026b8:	683b      	ldr	r3, [r7, #0]
 80026ba:	681a      	ldr	r2, [r3, #0]
 80026bc:	4613      	mov	r3, r2
 80026be:	005b      	lsls	r3, r3, #1
 80026c0:	4413      	add	r3, r2
 80026c2:	fa00 f203 	lsl.w	r2, r0, r3
 80026c6:	687b      	ldr	r3, [r7, #4]
 80026c8:	681b      	ldr	r3, [r3, #0]
 80026ca:	430a      	orrs	r2, r1
 80026cc:	611a      	str	r2, [r3, #16]
               ADC_SMPR2(sConfig->SamplingTime, sConfig->Channel) );
  }
  
  /* If ADC1 Channel_16 or Channel_17 is selected, enable Temperature sensor  */
  /* and VREFINT measurement path.                                            */
  if ((sConfig->Channel == ADC_CHANNEL_TEMPSENSOR) ||
 80026ce:	683b      	ldr	r3, [r7, #0]
 80026d0:	681b      	ldr	r3, [r3, #0]
 80026d2:	2b10      	cmp	r3, #16
 80026d4:	d003      	beq.n	80026de <HAL_ADC_ConfigChannel+0x16a>
      (sConfig->Channel == ADC_CHANNEL_VREFINT)      )
 80026d6:	683b      	ldr	r3, [r7, #0]
 80026d8:	681b      	ldr	r3, [r3, #0]
  if ((sConfig->Channel == ADC_CHANNEL_TEMPSENSOR) ||
 80026da:	2b11      	cmp	r3, #17
 80026dc:	d132      	bne.n	8002744 <HAL_ADC_ConfigChannel+0x1d0>
  {
    /* For STM32F1 devices with several ADC: Only ADC1 can access internal    */
    /* measurement channels (VrefInt/TempSensor). If these channels are       */
    /* intended to be set on other ADC instances, an error is reported.       */
    if (hadc->Instance == ADC1)
 80026de:	687b      	ldr	r3, [r7, #4]
 80026e0:	681b      	ldr	r3, [r3, #0]
 80026e2:	4a1d      	ldr	r2, [pc, #116]	; (8002758 <HAL_ADC_ConfigChannel+0x1e4>)
 80026e4:	4293      	cmp	r3, r2
 80026e6:	d125      	bne.n	8002734 <HAL_ADC_ConfigChannel+0x1c0>
    {
      if (READ_BIT(hadc->Instance->CR2, ADC_CR2_TSVREFE) == RESET)
 80026e8:	687b      	ldr	r3, [r7, #4]
 80026ea:	681b      	ldr	r3, [r3, #0]
 80026ec:	689b      	ldr	r3, [r3, #8]
 80026ee:	f403 0300 	and.w	r3, r3, #8388608	; 0x800000
 80026f2:	2b00      	cmp	r3, #0
 80026f4:	d126      	bne.n	8002744 <HAL_ADC_ConfigChannel+0x1d0>
      {
        SET_BIT(hadc->Instance->CR2, ADC_CR2_TSVREFE);
 80026f6:	687b      	ldr	r3, [r7, #4]
 80026f8:	681b      	ldr	r3, [r3, #0]
 80026fa:	689a      	ldr	r2, [r3, #8]
 80026fc:	687b      	ldr	r3, [r7, #4]
 80026fe:	681b      	ldr	r3, [r3, #0]
 8002700:	f442 0200 	orr.w	r2, r2, #8388608	; 0x800000
 8002704:	609a      	str	r2, [r3, #8]
        
        if ((sConfig->Channel == ADC_CHANNEL_TEMPSENSOR))
 8002706:	683b      	ldr	r3, [r7, #0]
 8002708:	681b      	ldr	r3, [r3, #0]
 800270a:	2b10      	cmp	r3, #16
 800270c:	d11a      	bne.n	8002744 <HAL_ADC_ConfigChannel+0x1d0>
        {
          /* Delay for temperature sensor stabilization time */
          /* Compute number of CPU cycles to wait for */
          wait_loop_index = (ADC_TEMPSENSOR_DELAY_US * (SystemCoreClock / 1000000U));
 800270e:	4b13      	ldr	r3, [pc, #76]	; (800275c <HAL_ADC_ConfigChannel+0x1e8>)
 8002710:	681b      	ldr	r3, [r3, #0]
 8002712:	4a13      	ldr	r2, [pc, #76]	; (8002760 <HAL_ADC_ConfigChannel+0x1ec>)
 8002714:	fba2 2303 	umull	r2, r3, r2, r3
 8002718:	0c9a      	lsrs	r2, r3, #18
 800271a:	4613      	mov	r3, r2
 800271c:	009b      	lsls	r3, r3, #2
 800271e:	4413      	add	r3, r2
 8002720:	005b      	lsls	r3, r3, #1
 8002722:	60bb      	str	r3, [r7, #8]
          while(wait_loop_index != 0U)
 8002724:	e002      	b.n	800272c <HAL_ADC_ConfigChannel+0x1b8>
          {
            wait_loop_index--;
 8002726:	68bb      	ldr	r3, [r7, #8]
 8002728:	3b01      	subs	r3, #1
 800272a:	60bb      	str	r3, [r7, #8]
          while(wait_loop_index != 0U)
 800272c:	68bb      	ldr	r3, [r7, #8]
 800272e:	2b00      	cmp	r3, #0
 8002730:	d1f9      	bne.n	8002726 <HAL_ADC_ConfigChannel+0x1b2>
 8002732:	e007      	b.n	8002744 <HAL_ADC_ConfigChannel+0x1d0>
      }
    }
    else
    {
      /* Update ADC state machine to error */
      SET_BIT(hadc->State, HAL_ADC_STATE_ERROR_CONFIG);
 8002734:	687b      	ldr	r3, [r7, #4]
 8002736:	6a9b      	ldr	r3, [r3, #40]	; 0x28
 8002738:	f043 0220 	orr.w	r2, r3, #32
 800273c:	687b      	ldr	r3, [r7, #4]
 800273e:	629a      	str	r2, [r3, #40]	; 0x28
      
      tmp_hal_status = HAL_ERROR;
 8002740:	2301      	movs	r3, #1
 8002742:	73fb      	strb	r3, [r7, #15]
    }
  }
  
  /* Process unlocked */
  __HAL_UNLOCK(hadc);
 8002744:	687b      	ldr	r3, [r7, #4]
 8002746:	2200      	movs	r2, #0
 8002748:	f883 2024 	strb.w	r2, [r3, #36]	; 0x24
  
  /* Return function status */
  return tmp_hal_status;
 800274c:	7bfb      	ldrb	r3, [r7, #15]
}
 800274e:	4618      	mov	r0, r3
 8002750:	3714      	adds	r7, #20
 8002752:	46bd      	mov	sp, r7
 8002754:	bc80      	pop	{r7}
 8002756:	4770      	bx	lr
 8002758:	40012400 	.word	0x40012400
 800275c:	20000000 	.word	0x20000000
 8002760:	431bde83 	.word	0x431bde83

08002764 <ADC_Enable>:
  *         and voltage regulator must be enabled (done into HAL_ADC_Init()).
  * @param  hadc: ADC handle
  * @retval HAL status.
  */
HAL_StatusTypeDef ADC_Enable(ADC_HandleTypeDef* hadc)
{
 8002764:	b580      	push	{r7, lr}
 8002766:	b084      	sub	sp, #16
 8002768:	af00      	add	r7, sp, #0
 800276a:	6078      	str	r0, [r7, #4]
  uint32_t tickstart = 0U;
 800276c:	2300      	movs	r3, #0
 800276e:	60fb      	str	r3, [r7, #12]
  __IO uint32_t wait_loop_index = 0U;
 8002770:	2300      	movs	r3, #0
 8002772:	60bb      	str	r3, [r7, #8]
  
  /* ADC enable and wait for ADC ready (in case of ADC is disabled or         */
  /* enabling phase not yet completed: flag ADC ready not yet set).           */
  /* Timeout implemented to not be stuck if ADC cannot be enabled (possible   */
  /* causes: ADC clock not running, ...).                                     */
  if (ADC_IS_ENABLE(hadc) == RESET)
 8002774:	687b      	ldr	r3, [r7, #4]
 8002776:	681b      	ldr	r3, [r3, #0]
 8002778:	689b      	ldr	r3, [r3, #8]
 800277a:	f003 0301 	and.w	r3, r3, #1
 800277e:	2b01      	cmp	r3, #1
 8002780:	d039      	beq.n	80027f6 <ADC_Enable+0x92>
  {
    /* Enable the Peripheral */
    __HAL_ADC_ENABLE(hadc);
 8002782:	687b      	ldr	r3, [r7, #4]
 8002784:	681b      	ldr	r3, [r3, #0]
 8002786:	689a      	ldr	r2, [r3, #8]
 8002788:	687b      	ldr	r3, [r7, #4]
 800278a:	681b      	ldr	r3, [r3, #0]
 800278c:	f042 0201 	orr.w	r2, r2, #1
 8002790:	609a      	str	r2, [r3, #8]
    
    /* Delay for ADC stabilization time */
    /* Compute number of CPU cycles to wait for */
    wait_loop_index = (ADC_STAB_DELAY_US * (SystemCoreClock / 1000000U));
 8002792:	4b1b      	ldr	r3, [pc, #108]	; (8002800 <ADC_Enable+0x9c>)
 8002794:	681b      	ldr	r3, [r3, #0]
 8002796:	4a1b      	ldr	r2, [pc, #108]	; (8002804 <ADC_Enable+0xa0>)
 8002798:	fba2 2303 	umull	r2, r3, r2, r3
 800279c:	0c9b      	lsrs	r3, r3, #18
 800279e:	60bb      	str	r3, [r7, #8]
    while(wait_loop_index != 0U)
 80027a0:	e002      	b.n	80027a8 <ADC_Enable+0x44>
    {
      wait_loop_index--;
 80027a2:	68bb      	ldr	r3, [r7, #8]
 80027a4:	3b01      	subs	r3, #1
 80027a6:	60bb      	str	r3, [r7, #8]
    while(wait_loop_index != 0U)
 80027a8:	68bb      	ldr	r3, [r7, #8]
 80027aa:	2b00      	cmp	r3, #0
 80027ac:	d1f9      	bne.n	80027a2 <ADC_Enable+0x3e>
    }
    
    /* Get tick count */
    tickstart = HAL_GetTick();
 80027ae:	f7ff fce3 	bl	8002178 <HAL_GetTick>
 80027b2:	60f8      	str	r0, [r7, #12]

    /* Wait for ADC effectively enabled */
    while(ADC_IS_ENABLE(hadc) == RESET)
 80027b4:	e018      	b.n	80027e8 <ADC_Enable+0x84>
    {
      if((HAL_GetTick() - tickstart) > ADC_ENABLE_TIMEOUT)
 80027b6:	f7ff fcdf 	bl	8002178 <HAL_GetTick>
 80027ba:	4602      	mov	r2, r0
 80027bc:	68fb      	ldr	r3, [r7, #12]
 80027be:	1ad3      	subs	r3, r2, r3
 80027c0:	2b02      	cmp	r3, #2
 80027c2:	d911      	bls.n	80027e8 <ADC_Enable+0x84>
      {
        /* Update ADC state machine to error */
        SET_BIT(hadc->State, HAL_ADC_STATE_ERROR_INTERNAL);
 80027c4:	687b      	ldr	r3, [r7, #4]
 80027c6:	6a9b      	ldr	r3, [r3, #40]	; 0x28
 80027c8:	f043 0210 	orr.w	r2, r3, #16
 80027cc:	687b      	ldr	r3, [r7, #4]
 80027ce:	629a      	str	r2, [r3, #40]	; 0x28
      
        /* Set ADC error code to ADC IP internal error */
        SET_BIT(hadc->ErrorCode, HAL_ADC_ERROR_INTERNAL);
 80027d0:	687b      	ldr	r3, [r7, #4]
 80027d2:	6adb      	ldr	r3, [r3, #44]	; 0x2c
 80027d4:	f043 0201 	orr.w	r2, r3, #1
 80027d8:	687b      	ldr	r3, [r7, #4]
 80027da:	62da      	str	r2, [r3, #44]	; 0x2c
        
        /* Process unlocked */
        __HAL_UNLOCK(hadc);
 80027dc:	687b      	ldr	r3, [r7, #4]
 80027de:	2200      	movs	r2, #0
 80027e0:	f883 2024 	strb.w	r2, [r3, #36]	; 0x24
      
        return HAL_ERROR;
 80027e4:	2301      	movs	r3, #1
 80027e6:	e007      	b.n	80027f8 <ADC_Enable+0x94>
    while(ADC_IS_ENABLE(hadc) == RESET)
 80027e8:	687b      	ldr	r3, [r7, #4]
 80027ea:	681b      	ldr	r3, [r3, #0]
 80027ec:	689b      	ldr	r3, [r3, #8]
 80027ee:	f003 0301 	and.w	r3, r3, #1
 80027f2:	2b01      	cmp	r3, #1
 80027f4:	d1df      	bne.n	80027b6 <ADC_Enable+0x52>
      }
    }
  }
   
  /* Return HAL status */
  return HAL_OK;
 80027f6:	2300      	movs	r3, #0
}
 80027f8:	4618      	mov	r0, r3
 80027fa:	3710      	adds	r7, #16
 80027fc:	46bd      	mov	sp, r7
 80027fe:	bd80      	pop	{r7, pc}
 8002800:	20000000 	.word	0x20000000
 8002804:	431bde83 	.word	0x431bde83

08002808 <ADC_ConversionStop_Disable>:
  *         stopped to disable the ADC.
  * @param  hadc: ADC handle
  * @retval HAL status.
  */
HAL_StatusTypeDef ADC_ConversionStop_Disable(ADC_HandleTypeDef* hadc)
{
 8002808:	b580      	push	{r7, lr}
 800280a:	b084      	sub	sp, #16
 800280c:	af00      	add	r7, sp, #0
 800280e:	6078      	str	r0, [r7, #4]
  uint32_t tickstart = 0U;
 8002810:	2300      	movs	r3, #0
 8002812:	60fb      	str	r3, [r7, #12]
  
  /* Verification if ADC is not already disabled */
  if (ADC_IS_ENABLE(hadc) != RESET)
 8002814:	687b      	ldr	r3, [r7, #4]
 8002816:	681b      	ldr	r3, [r3, #0]
 8002818:	689b      	ldr	r3, [r3, #8]
 800281a:	f003 0301 	and.w	r3, r3, #1
 800281e:	2b01      	cmp	r3, #1
 8002820:	d127      	bne.n	8002872 <ADC_ConversionStop_Disable+0x6a>
  {
    /* Disable the ADC peripheral */
    __HAL_ADC_DISABLE(hadc);
 8002822:	687b      	ldr	r3, [r7, #4]
 8002824:	681b      	ldr	r3, [r3, #0]
 8002826:	689a      	ldr	r2, [r3, #8]
 8002828:	687b      	ldr	r3, [r7, #4]
 800282a:	681b      	ldr	r3, [r3, #0]
 800282c:	f022 0201 	bic.w	r2, r2, #1
 8002830:	609a      	str	r2, [r3, #8]
     
    /* Get tick count */
    tickstart = HAL_GetTick();
 8002832:	f7ff fca1 	bl	8002178 <HAL_GetTick>
 8002836:	60f8      	str	r0, [r7, #12]
    
    /* Wait for ADC effectively disabled */
    while(ADC_IS_ENABLE(hadc) != RESET)
 8002838:	e014      	b.n	8002864 <ADC_ConversionStop_Disable+0x5c>
    {
      if((HAL_GetTick() - tickstart) > ADC_DISABLE_TIMEOUT)
 800283a:	f7ff fc9d 	bl	8002178 <HAL_GetTick>
 800283e:	4602      	mov	r2, r0
 8002840:	68fb      	ldr	r3, [r7, #12]
 8002842:	1ad3      	subs	r3, r2, r3
 8002844:	2b02      	cmp	r3, #2
 8002846:	d90d      	bls.n	8002864 <ADC_ConversionStop_Disable+0x5c>
      {
        /* Update ADC state machine to error */
        SET_BIT(hadc->State, HAL_ADC_STATE_ERROR_INTERNAL);
 8002848:	687b      	ldr	r3, [r7, #4]
 800284a:	6a9b      	ldr	r3, [r3, #40]	; 0x28
 800284c:	f043 0210 	orr.w	r2, r3, #16
 8002850:	687b      	ldr	r3, [r7, #4]
 8002852:	629a      	str	r2, [r3, #40]	; 0x28
        
        /* Set ADC error code to ADC IP internal error */
        SET_BIT(hadc->ErrorCode, HAL_ADC_ERROR_INTERNAL);
 8002854:	687b      	ldr	r3, [r7, #4]
 8002856:	6adb      	ldr	r3, [r3, #44]	; 0x2c
 8002858:	f043 0201 	orr.w	r2, r3, #1
 800285c:	687b      	ldr	r3, [r7, #4]
 800285e:	62da      	str	r2, [r3, #44]	; 0x2c
        
        return HAL_ERROR;
 8002860:	2301      	movs	r3, #1
 8002862:	e007      	b.n	8002874 <ADC_ConversionStop_Disable+0x6c>
    while(ADC_IS_ENABLE(hadc) != RESET)
 8002864:	687b      	ldr	r3, [r7, #4]
 8002866:	681b      	ldr	r3, [r3, #0]
 8002868:	689b      	ldr	r3, [r3, #8]
 800286a:	f003 0301 	and.w	r3, r3, #1
 800286e:	2b01      	cmp	r3, #1
 8002870:	d0e3      	beq.n	800283a <ADC_ConversionStop_Disable+0x32>
      }
    }
  }
  
  /* Return HAL status */
  return HAL_OK;
 8002872:	2300      	movs	r3, #0
}
 8002874:	4618      	mov	r0, r3
 8002876:	3710      	adds	r7, #16
 8002878:	46bd      	mov	sp, r7
 800287a:	bd80      	pop	{r7, pc}

0800287c <ADC_DMAConvCplt>:
  * @brief  DMA transfer complete callback. 
  * @param  hdma: pointer to DMA handle.
  * @retval None
  */
void ADC_DMAConvCplt(DMA_HandleTypeDef *hdma)
{
 800287c:	b580      	push	{r7, lr}
 800287e:	b084      	sub	sp, #16
 8002880:	af00      	add	r7, sp, #0
 8002882:	6078      	str	r0, [r7, #4]
  /* Retrieve ADC handle corresponding to current DMA handle */
  ADC_HandleTypeDef* hadc = ( ADC_HandleTypeDef* )((DMA_HandleTypeDef* )hdma)->Parent;
 8002884:	687b      	ldr	r3, [r7, #4]
 8002886:	6a5b      	ldr	r3, [r3, #36]	; 0x24
 8002888:	60fb      	str	r3, [r7, #12]
 
  /* Update state machine on conversion status if not in error state */
  if (HAL_IS_BIT_CLR(hadc->State, HAL_ADC_STATE_ERROR_INTERNAL | HAL_ADC_STATE_ERROR_DMA))
 800288a:	68fb      	ldr	r3, [r7, #12]
 800288c:	6a9b      	ldr	r3, [r3, #40]	; 0x28
 800288e:	f003 0350 	and.w	r3, r3, #80	; 0x50
 8002892:	2b00      	cmp	r3, #0
 8002894:	d127      	bne.n	80028e6 <ADC_DMAConvCplt+0x6a>
  {
    /* Update ADC state machine */
    SET_BIT(hadc->State, HAL_ADC_STATE_REG_EOC);
 8002896:	68fb      	ldr	r3, [r7, #12]
 8002898:	6a9b      	ldr	r3, [r3, #40]	; 0x28
 800289a:	f443 7200 	orr.w	r2, r3, #512	; 0x200
 800289e:	68fb      	ldr	r3, [r7, #12]
 80028a0:	629a      	str	r2, [r3, #40]	; 0x28
    /* Determine whether any further conversion upcoming on group regular     */
    /* by external trigger, continuous mode or scan sequence on going.        */
    /* Note: On STM32F1 devices, in case of sequencer enabled                 */
    /*       (several ranks selected), end of conversion flag is raised       */
    /*       at the end of the sequence.                                      */
    if(ADC_IS_SOFTWARE_START_REGULAR(hadc)        && 
 80028a2:	68fb      	ldr	r3, [r7, #12]
 80028a4:	681b      	ldr	r3, [r3, #0]
 80028a6:	689b      	ldr	r3, [r3, #8]
 80028a8:	f403 2360 	and.w	r3, r3, #917504	; 0xe0000
 80028ac:	f5b3 2f60 	cmp.w	r3, #917504	; 0xe0000
 80028b0:	d115      	bne.n	80028de <ADC_DMAConvCplt+0x62>
       (hadc->Init.ContinuousConvMode == DISABLE)   )
 80028b2:	68fb      	ldr	r3, [r7, #12]
 80028b4:	7b1b      	ldrb	r3, [r3, #12]
    if(ADC_IS_SOFTWARE_START_REGULAR(hadc)        && 
 80028b6:	2b00      	cmp	r3, #0
 80028b8:	d111      	bne.n	80028de <ADC_DMAConvCplt+0x62>
    {
      /* Set ADC state */
      CLEAR_BIT(hadc->State, HAL_ADC_STATE_REG_BUSY);   
 80028ba:	68fb      	ldr	r3, [r7, #12]
 80028bc:	6a9b      	ldr	r3, [r3, #40]	; 0x28
 80028be:	f423 7280 	bic.w	r2, r3, #256	; 0x100
 80028c2:	68fb      	ldr	r3, [r7, #12]
 80028c4:	629a      	str	r2, [r3, #40]	; 0x28
      
      if (HAL_IS_BIT_CLR(hadc->State, HAL_ADC_STATE_INJ_BUSY))
 80028c6:	68fb      	ldr	r3, [r7, #12]
 80028c8:	6a9b      	ldr	r3, [r3, #40]	; 0x28
 80028ca:	f403 5380 	and.w	r3, r3, #4096	; 0x1000
 80028ce:	2b00      	cmp	r3, #0
 80028d0:	d105      	bne.n	80028de <ADC_DMAConvCplt+0x62>
      {
        SET_BIT(hadc->State, HAL_ADC_STATE_READY);
 80028d2:	68fb      	ldr	r3, [r7, #12]
 80028d4:	6a9b      	ldr	r3, [r3, #40]	; 0x28
 80028d6:	f043 0201 	orr.w	r2, r3, #1
 80028da:	68fb      	ldr	r3, [r7, #12]
 80028dc:	629a      	str	r2, [r3, #40]	; 0x28
    
    /* Conversion complete callback */
#if (USE_HAL_ADC_REGISTER_CALLBACKS == 1)
    hadc->ConvCpltCallback(hadc);
#else
    HAL_ADC_ConvCpltCallback(hadc);
 80028de:	68f8      	ldr	r0, [r7, #12]
 80028e0:	f7ff fe2c 	bl	800253c <HAL_ADC_ConvCpltCallback>
  else
  {
    /* Call DMA error callback */
    hadc->DMA_Handle->XferErrorCallback(hdma);
  }
}
 80028e4:	e004      	b.n	80028f0 <ADC_DMAConvCplt+0x74>
    hadc->DMA_Handle->XferErrorCallback(hdma);
 80028e6:	68fb      	ldr	r3, [r7, #12]
 80028e8:	6a1b      	ldr	r3, [r3, #32]
 80028ea:	6b1b      	ldr	r3, [r3, #48]	; 0x30
 80028ec:	6878      	ldr	r0, [r7, #4]
 80028ee:	4798      	blx	r3
}
 80028f0:	bf00      	nop
 80028f2:	3710      	adds	r7, #16
 80028f4:	46bd      	mov	sp, r7
 80028f6:	bd80      	pop	{r7, pc}

080028f8 <ADC_DMAHalfConvCplt>:
  * @brief  DMA half transfer complete callback. 
  * @param  hdma: pointer to DMA handle.
  * @retval None
  */
void ADC_DMAHalfConvCplt(DMA_HandleTypeDef *hdma)   
{
 80028f8:	b580      	push	{r7, lr}
 80028fa:	b084      	sub	sp, #16
 80028fc:	af00      	add	r7, sp, #0
 80028fe:	6078      	str	r0, [r7, #4]
  /* Retrieve ADC handle corresponding to current DMA handle */
  ADC_HandleTypeDef* hadc = ( ADC_HandleTypeDef* )((DMA_HandleTypeDef* )hdma)->Parent;
 8002900:	687b      	ldr	r3, [r7, #4]
 8002902:	6a5b      	ldr	r3, [r3, #36]	; 0x24
 8002904:	60fb      	str	r3, [r7, #12]
  
  /* Half conversion callback */
#if (USE_HAL_ADC_REGISTER_CALLBACKS == 1)
    hadc->ConvHalfCpltCallback(hadc);
#else
  HAL_ADC_ConvHalfCpltCallback(hadc);
 8002906:	68f8      	ldr	r0, [r7, #12]
 8002908:	f7ff fe21 	bl	800254e <HAL_ADC_ConvHalfCpltCallback>
#endif /* USE_HAL_ADC_REGISTER_CALLBACKS */
}
 800290c:	bf00      	nop
 800290e:	3710      	adds	r7, #16
 8002910:	46bd      	mov	sp, r7
 8002912:	bd80      	pop	{r7, pc}

08002914 <ADC_DMAError>:
  * @brief  DMA error callback 
  * @param  hdma: pointer to DMA handle.
  * @retval None
  */
void ADC_DMAError(DMA_HandleTypeDef *hdma)   
{
 8002914:	b580      	push	{r7, lr}
 8002916:	b084      	sub	sp, #16
 8002918:	af00      	add	r7, sp, #0
 800291a:	6078      	str	r0, [r7, #4]
  /* Retrieve ADC handle corresponding to current DMA handle */
  ADC_HandleTypeDef* hadc = ( ADC_HandleTypeDef* )((DMA_HandleTypeDef* )hdma)->Parent;
 800291c:	687b      	ldr	r3, [r7, #4]
 800291e:	6a5b      	ldr	r3, [r3, #36]	; 0x24
 8002920:	60fb      	str	r3, [r7, #12]
  
  /* Set ADC state */
  SET_BIT(hadc->State, HAL_ADC_STATE_ERROR_DMA);
 8002922:	68fb      	ldr	r3, [r7, #12]
 8002924:	6a9b      	ldr	r3, [r3, #40]	; 0x28
 8002926:	f043 0240 	orr.w	r2, r3, #64	; 0x40
 800292a:	68fb      	ldr	r3, [r7, #12]
 800292c:	629a      	str	r2, [r3, #40]	; 0x28
  
  /* Set ADC error code to DMA error */
  SET_BIT(hadc->ErrorCode, HAL_ADC_ERROR_DMA);
 800292e:	68fb      	ldr	r3, [r7, #12]
 8002930:	6adb      	ldr	r3, [r3, #44]	; 0x2c
 8002932:	f043 0204 	orr.w	r2, r3, #4
 8002936:	68fb      	ldr	r3, [r7, #12]
 8002938:	62da      	str	r2, [r3, #44]	; 0x2c
  
  /* Error callback */
#if (USE_HAL_ADC_REGISTER_CALLBACKS == 1)
  hadc->ErrorCallback(hadc);
#else
  HAL_ADC_ErrorCallback(hadc);
 800293a:	68f8      	ldr	r0, [r7, #12]
 800293c:	f7ff fe10 	bl	8002560 <HAL_ADC_ErrorCallback>
#endif /* USE_HAL_ADC_REGISTER_CALLBACKS */
}
 8002940:	bf00      	nop
 8002942:	3710      	adds	r7, #16
 8002944:	46bd      	mov	sp, r7
 8002946:	bd80      	pop	{r7, pc}

08002948 <HAL_CAN_Init>:
  * @param  hcan pointer to a CAN_HandleTypeDef structure that contains
  *         the configuration information for the specified CAN.
  * @retval HAL status
  */
HAL_StatusTypeDef HAL_CAN_Init(CAN_HandleTypeDef *hcan)
{
 8002948:	b580      	push	{r7, lr}
 800294a:	b084      	sub	sp, #16
 800294c:	af00      	add	r7, sp, #0
 800294e:	6078      	str	r0, [r7, #4]
  uint32_t tickstart;

  /* Check CAN handle */
  if (hcan == NULL)
 8002950:	687b      	ldr	r3, [r7, #4]
 8002952:	2b00      	cmp	r3, #0
 8002954:	d101      	bne.n	800295a <HAL_CAN_Init+0x12>
  {
    return HAL_ERROR;
 8002956:	2301      	movs	r3, #1
 8002958:	e0ed      	b.n	8002b36 <HAL_CAN_Init+0x1ee>
    /* Init the low level hardware: CLOCK, NVIC */
    hcan->MspInitCallback(hcan);
  }

#else
  if (hcan->State == HAL_CAN_STATE_RESET)
 800295a:	687b      	ldr	r3, [r7, #4]
 800295c:	f893 3020 	ldrb.w	r3, [r3, #32]
 8002960:	b2db      	uxtb	r3, r3
 8002962:	2b00      	cmp	r3, #0
 8002964:	d102      	bne.n	800296c <HAL_CAN_Init+0x24>
  {
    /* Init the low level hardware: CLOCK, NVIC */
    HAL_CAN_MspInit(hcan);
 8002966:	6878      	ldr	r0, [r7, #4]
 8002968:	f7ff fa80 	bl	8001e6c <HAL_CAN_MspInit>
  }
#endif /* (USE_HAL_CAN_REGISTER_CALLBACKS) */

  /* Exit from sleep mode */
  CLEAR_BIT(hcan->Instance->MCR, CAN_MCR_SLEEP);
 800296c:	687b      	ldr	r3, [r7, #4]
 800296e:	681b      	ldr	r3, [r3, #0]
 8002970:	681a      	ldr	r2, [r3, #0]
 8002972:	687b      	ldr	r3, [r7, #4]
 8002974:	681b      	ldr	r3, [r3, #0]
 8002976:	f022 0202 	bic.w	r2, r2, #2
 800297a:	601a      	str	r2, [r3, #0]

  /* Get tick */
  tickstart = HAL_GetTick();
 800297c:	f7ff fbfc 	bl	8002178 <HAL_GetTick>
 8002980:	60f8      	str	r0, [r7, #12]

  /* Check Sleep mode leave acknowledge */
  while ((hcan->Instance->MSR & CAN_MSR_SLAK) != 0U)
 8002982:	e012      	b.n	80029aa <HAL_CAN_Init+0x62>
  {
    if ((HAL_GetTick() - tickstart) > CAN_TIMEOUT_VALUE)
 8002984:	f7ff fbf8 	bl	8002178 <HAL_GetTick>
 8002988:	4602      	mov	r2, r0
 800298a:	68fb      	ldr	r3, [r7, #12]
 800298c:	1ad3      	subs	r3, r2, r3
 800298e:	2b0a      	cmp	r3, #10
 8002990:	d90b      	bls.n	80029aa <HAL_CAN_Init+0x62>
    {
      /* Update error code */
      hcan->ErrorCode |= HAL_CAN_ERROR_TIMEOUT;
 8002992:	687b      	ldr	r3, [r7, #4]
 8002994:	6a5b      	ldr	r3, [r3, #36]	; 0x24
 8002996:	f443 3200 	orr.w	r2, r3, #131072	; 0x20000
 800299a:	687b      	ldr	r3, [r7, #4]
 800299c:	625a      	str	r2, [r3, #36]	; 0x24

      /* Change CAN state */
      hcan->State = HAL_CAN_STATE_ERROR;
 800299e:	687b      	ldr	r3, [r7, #4]
 80029a0:	2205      	movs	r2, #5
 80029a2:	f883 2020 	strb.w	r2, [r3, #32]

      return HAL_ERROR;
 80029a6:	2301      	movs	r3, #1
 80029a8:	e0c5      	b.n	8002b36 <HAL_CAN_Init+0x1ee>
  while ((hcan->Instance->MSR & CAN_MSR_SLAK) != 0U)
 80029aa:	687b      	ldr	r3, [r7, #4]
 80029ac:	681b      	ldr	r3, [r3, #0]
 80029ae:	685b      	ldr	r3, [r3, #4]
 80029b0:	f003 0302 	and.w	r3, r3, #2
 80029b4:	2b00      	cmp	r3, #0
 80029b6:	d1e5      	bne.n	8002984 <HAL_CAN_Init+0x3c>
    }
  }

  /* Request initialisation */
  SET_BIT(hcan->Instance->MCR, CAN_MCR_INRQ);
 80029b8:	687b      	ldr	r3, [r7, #4]
 80029ba:	681b      	ldr	r3, [r3, #0]
 80029bc:	681a      	ldr	r2, [r3, #0]
 80029be:	687b      	ldr	r3, [r7, #4]
 80029c0:	681b      	ldr	r3, [r3, #0]
 80029c2:	f042 0201 	orr.w	r2, r2, #1
 80029c6:	601a      	str	r2, [r3, #0]

  /* Get tick */
  tickstart = HAL_GetTick();
 80029c8:	f7ff fbd6 	bl	8002178 <HAL_GetTick>
 80029cc:	60f8      	str	r0, [r7, #12]

  /* Wait initialisation acknowledge */
  while ((hcan->Instance->MSR & CAN_MSR_INAK) == 0U)
 80029ce:	e012      	b.n	80029f6 <HAL_CAN_Init+0xae>
  {
    if ((HAL_GetTick() - tickstart) > CAN_TIMEOUT_VALUE)
 80029d0:	f7ff fbd2 	bl	8002178 <HAL_GetTick>
 80029d4:	4602      	mov	r2, r0
 80029d6:	68fb      	ldr	r3, [r7, #12]
 80029d8:	1ad3      	subs	r3, r2, r3
 80029da:	2b0a      	cmp	r3, #10
 80029dc:	d90b      	bls.n	80029f6 <HAL_CAN_Init+0xae>
    {
      /* Update error code */
      hcan->ErrorCode |= HAL_CAN_ERROR_TIMEOUT;
 80029de:	687b      	ldr	r3, [r7, #4]
 80029e0:	6a5b      	ldr	r3, [r3, #36]	; 0x24
 80029e2:	f443 3200 	orr.w	r2, r3, #131072	; 0x20000
 80029e6:	687b      	ldr	r3, [r7, #4]
 80029e8:	625a      	str	r2, [r3, #36]	; 0x24

      /* Change CAN state */
      hcan->State = HAL_CAN_STATE_ERROR;
 80029ea:	687b      	ldr	r3, [r7, #4]
 80029ec:	2205      	movs	r2, #5
 80029ee:	f883 2020 	strb.w	r2, [r3, #32]

      return HAL_ERROR;
 80029f2:	2301      	movs	r3, #1
 80029f4:	e09f      	b.n	8002b36 <HAL_CAN_Init+0x1ee>
  while ((hcan->Instance->MSR & CAN_MSR_INAK) == 0U)
 80029f6:	687b      	ldr	r3, [r7, #4]
 80029f8:	681b      	ldr	r3, [r3, #0]
 80029fa:	685b      	ldr	r3, [r3, #4]
 80029fc:	f003 0301 	and.w	r3, r3, #1
 8002a00:	2b00      	cmp	r3, #0
 8002a02:	d0e5      	beq.n	80029d0 <HAL_CAN_Init+0x88>
    }
  }

  /* Set the time triggered communication mode */
  if (hcan->Init.TimeTriggeredMode == ENABLE)
 8002a04:	687b      	ldr	r3, [r7, #4]
 8002a06:	7e1b      	ldrb	r3, [r3, #24]
 8002a08:	2b01      	cmp	r3, #1
 8002a0a:	d108      	bne.n	8002a1e <HAL_CAN_Init+0xd6>
  {
    SET_BIT(hcan->Instance->MCR, CAN_MCR_TTCM);
 8002a0c:	687b      	ldr	r3, [r7, #4]
 8002a0e:	681b      	ldr	r3, [r3, #0]
 8002a10:	681a      	ldr	r2, [r3, #0]
 8002a12:	687b      	ldr	r3, [r7, #4]
 8002a14:	681b      	ldr	r3, [r3, #0]
 8002a16:	f042 0280 	orr.w	r2, r2, #128	; 0x80
 8002a1a:	601a      	str	r2, [r3, #0]
 8002a1c:	e007      	b.n	8002a2e <HAL_CAN_Init+0xe6>
  }
  else
  {
    CLEAR_BIT(hcan->Instance->MCR, CAN_MCR_TTCM);
 8002a1e:	687b      	ldr	r3, [r7, #4]
 8002a20:	681b      	ldr	r3, [r3, #0]
 8002a22:	681a      	ldr	r2, [r3, #0]
 8002a24:	687b      	ldr	r3, [r7, #4]
 8002a26:	681b      	ldr	r3, [r3, #0]
 8002a28:	f022 0280 	bic.w	r2, r2, #128	; 0x80
 8002a2c:	601a      	str	r2, [r3, #0]
  }

  /* Set the automatic bus-off management */
  if (hcan->Init.AutoBusOff == ENABLE)
 8002a2e:	687b      	ldr	r3, [r7, #4]
 8002a30:	7e5b      	ldrb	r3, [r3, #25]
 8002a32:	2b01      	cmp	r3, #1
 8002a34:	d108      	bne.n	8002a48 <HAL_CAN_Init+0x100>
  {
    SET_BIT(hcan->Instance->MCR, CAN_MCR_ABOM);
 8002a36:	687b      	ldr	r3, [r7, #4]
 8002a38:	681b      	ldr	r3, [r3, #0]
 8002a3a:	681a      	ldr	r2, [r3, #0]
 8002a3c:	687b      	ldr	r3, [r7, #4]
 8002a3e:	681b      	ldr	r3, [r3, #0]
 8002a40:	f042 0240 	orr.w	r2, r2, #64	; 0x40
 8002a44:	601a      	str	r2, [r3, #0]
 8002a46:	e007      	b.n	8002a58 <HAL_CAN_Init+0x110>
  }
  else
  {
    CLEAR_BIT(hcan->Instance->MCR, CAN_MCR_ABOM);
 8002a48:	687b      	ldr	r3, [r7, #4]
 8002a4a:	681b      	ldr	r3, [r3, #0]
 8002a4c:	681a      	ldr	r2, [r3, #0]
 8002a4e:	687b      	ldr	r3, [r7, #4]
 8002a50:	681b      	ldr	r3, [r3, #0]
 8002a52:	f022 0240 	bic.w	r2, r2, #64	; 0x40
 8002a56:	601a      	str	r2, [r3, #0]
  }

  /* Set the automatic wake-up mode */
  if (hcan->Init.AutoWakeUp == ENABLE)
 8002a58:	687b      	ldr	r3, [r7, #4]
 8002a5a:	7e9b      	ldrb	r3, [r3, #26]
 8002a5c:	2b01      	cmp	r3, #1
 8002a5e:	d108      	bne.n	8002a72 <HAL_CAN_Init+0x12a>
  {
    SET_BIT(hcan->Instance->MCR, CAN_MCR_AWUM);
 8002a60:	687b      	ldr	r3, [r7, #4]
 8002a62:	681b      	ldr	r3, [r3, #0]
 8002a64:	681a      	ldr	r2, [r3, #0]
 8002a66:	687b      	ldr	r3, [r7, #4]
 8002a68:	681b      	ldr	r3, [r3, #0]
 8002a6a:	f042 0220 	orr.w	r2, r2, #32
 8002a6e:	601a      	str	r2, [r3, #0]
 8002a70:	e007      	b.n	8002a82 <HAL_CAN_Init+0x13a>
  }
  else
  {
    CLEAR_BIT(hcan->Instance->MCR, CAN_MCR_AWUM);
 8002a72:	687b      	ldr	r3, [r7, #4]
 8002a74:	681b      	ldr	r3, [r3, #0]
 8002a76:	681a      	ldr	r2, [r3, #0]
 8002a78:	687b      	ldr	r3, [r7, #4]
 8002a7a:	681b      	ldr	r3, [r3, #0]
 8002a7c:	f022 0220 	bic.w	r2, r2, #32
 8002a80:	601a      	str	r2, [r3, #0]
  }

  /* Set the automatic retransmission */
  if (hcan->Init.AutoRetransmission == ENABLE)
 8002a82:	687b      	ldr	r3, [r7, #4]
 8002a84:	7edb      	ldrb	r3, [r3, #27]
 8002a86:	2b01      	cmp	r3, #1
 8002a88:	d108      	bne.n	8002a9c <HAL_CAN_Init+0x154>
  {
    CLEAR_BIT(hcan->Instance->MCR, CAN_MCR_NART);
 8002a8a:	687b      	ldr	r3, [r7, #4]
 8002a8c:	681b      	ldr	r3, [r3, #0]
 8002a8e:	681a      	ldr	r2, [r3, #0]
 8002a90:	687b      	ldr	r3, [r7, #4]
 8002a92:	681b      	ldr	r3, [r3, #0]
 8002a94:	f022 0210 	bic.w	r2, r2, #16
 8002a98:	601a      	str	r2, [r3, #0]
 8002a9a:	e007      	b.n	8002aac <HAL_CAN_Init+0x164>
  }
  else
  {
    SET_BIT(hcan->Instance->MCR, CAN_MCR_NART);
 8002a9c:	687b      	ldr	r3, [r7, #4]
 8002a9e:	681b      	ldr	r3, [r3, #0]
 8002aa0:	681a      	ldr	r2, [r3, #0]
 8002aa2:	687b      	ldr	r3, [r7, #4]
 8002aa4:	681b      	ldr	r3, [r3, #0]
 8002aa6:	f042 0210 	orr.w	r2, r2, #16
 8002aaa:	601a      	str	r2, [r3, #0]
  }

  /* Set the receive FIFO locked mode */
  if (hcan->Init.ReceiveFifoLocked == ENABLE)
 8002aac:	687b      	ldr	r3, [r7, #4]
 8002aae:	7f1b      	ldrb	r3, [r3, #28]
 8002ab0:	2b01      	cmp	r3, #1
 8002ab2:	d108      	bne.n	8002ac6 <HAL_CAN_Init+0x17e>
  {
    SET_BIT(hcan->Instance->MCR, CAN_MCR_RFLM);
 8002ab4:	687b      	ldr	r3, [r7, #4]
 8002ab6:	681b      	ldr	r3, [r3, #0]
 8002ab8:	681a      	ldr	r2, [r3, #0]
 8002aba:	687b      	ldr	r3, [r7, #4]
 8002abc:	681b      	ldr	r3, [r3, #0]
 8002abe:	f042 0208 	orr.w	r2, r2, #8
 8002ac2:	601a      	str	r2, [r3, #0]
 8002ac4:	e007      	b.n	8002ad6 <HAL_CAN_Init+0x18e>
  }
  else
  {
    CLEAR_BIT(hcan->Instance->MCR, CAN_MCR_RFLM);
 8002ac6:	687b      	ldr	r3, [r7, #4]
 8002ac8:	681b      	ldr	r3, [r3, #0]
 8002aca:	681a      	ldr	r2, [r3, #0]
 8002acc:	687b      	ldr	r3, [r7, #4]
 8002ace:	681b      	ldr	r3, [r3, #0]
 8002ad0:	f022 0208 	bic.w	r2, r2, #8
 8002ad4:	601a      	str	r2, [r3, #0]
  }

  /* Set the transmit FIFO priority */
  if (hcan->Init.TransmitFifoPriority == ENABLE)
 8002ad6:	687b      	ldr	r3, [r7, #4]
 8002ad8:	7f5b      	ldrb	r3, [r3, #29]
 8002ada:	2b01      	cmp	r3, #1
 8002adc:	d108      	bne.n	8002af0 <HAL_CAN_Init+0x1a8>
  {
    SET_BIT(hcan->Instance->MCR, CAN_MCR_TXFP);
 8002ade:	687b      	ldr	r3, [r7, #4]
 8002ae0:	681b      	ldr	r3, [r3, #0]
 8002ae2:	681a      	ldr	r2, [r3, #0]
 8002ae4:	687b      	ldr	r3, [r7, #4]
 8002ae6:	681b      	ldr	r3, [r3, #0]
 8002ae8:	f042 0204 	orr.w	r2, r2, #4
 8002aec:	601a      	str	r2, [r3, #0]
 8002aee:	e007      	b.n	8002b00 <HAL_CAN_Init+0x1b8>
  }
  else
  {
    CLEAR_BIT(hcan->Instance->MCR, CAN_MCR_TXFP);
 8002af0:	687b      	ldr	r3, [r7, #4]
 8002af2:	681b      	ldr	r3, [r3, #0]
 8002af4:	681a      	ldr	r2, [r3, #0]
 8002af6:	687b      	ldr	r3, [r7, #4]
 8002af8:	681b      	ldr	r3, [r3, #0]
 8002afa:	f022 0204 	bic.w	r2, r2, #4
 8002afe:	601a      	str	r2, [r3, #0]
  }

  /* Set the bit timing register */
  WRITE_REG(hcan->Instance->BTR, (uint32_t)(hcan->Init.Mode           |
 8002b00:	687b      	ldr	r3, [r7, #4]
 8002b02:	689a      	ldr	r2, [r3, #8]
 8002b04:	687b      	ldr	r3, [r7, #4]
 8002b06:	68db      	ldr	r3, [r3, #12]
 8002b08:	431a      	orrs	r2, r3
 8002b0a:	687b      	ldr	r3, [r7, #4]
 8002b0c:	691b      	ldr	r3, [r3, #16]
 8002b0e:	431a      	orrs	r2, r3
 8002b10:	687b      	ldr	r3, [r7, #4]
 8002b12:	695b      	ldr	r3, [r3, #20]
 8002b14:	ea42 0103 	orr.w	r1, r2, r3
 8002b18:	687b      	ldr	r3, [r7, #4]
 8002b1a:	685b      	ldr	r3, [r3, #4]
 8002b1c:	1e5a      	subs	r2, r3, #1
 8002b1e:	687b      	ldr	r3, [r7, #4]
 8002b20:	681b      	ldr	r3, [r3, #0]
 8002b22:	430a      	orrs	r2, r1
 8002b24:	61da      	str	r2, [r3, #28]
                                            hcan->Init.TimeSeg1       |
                                            hcan->Init.TimeSeg2       |
                                            (hcan->Init.Prescaler - 1U)));

  /* Initialize the error code */
  hcan->ErrorCode = HAL_CAN_ERROR_NONE;
 8002b26:	687b      	ldr	r3, [r7, #4]
 8002b28:	2200      	movs	r2, #0
 8002b2a:	625a      	str	r2, [r3, #36]	; 0x24

  /* Initialize the CAN state */
  hcan->State = HAL_CAN_STATE_READY;
 8002b2c:	687b      	ldr	r3, [r7, #4]
 8002b2e:	2201      	movs	r2, #1
 8002b30:	f883 2020 	strb.w	r2, [r3, #32]

  /* Return function status */
  return HAL_OK;
 8002b34:	2300      	movs	r3, #0
}
 8002b36:	4618      	mov	r0, r3
 8002b38:	3710      	adds	r7, #16
 8002b3a:	46bd      	mov	sp, r7
 8002b3c:	bd80      	pop	{r7, pc}

08002b3e <HAL_CAN_ConfigFilter>:
  * @param  sFilterConfig pointer to a CAN_FilterTypeDef structure that
  *         contains the filter configuration information.
  * @retval None
  */
HAL_StatusTypeDef HAL_CAN_ConfigFilter(CAN_HandleTypeDef *hcan, CAN_FilterTypeDef *sFilterConfig)
{
 8002b3e:	b480      	push	{r7}
 8002b40:	b087      	sub	sp, #28
 8002b42:	af00      	add	r7, sp, #0
 8002b44:	6078      	str	r0, [r7, #4]
 8002b46:	6039      	str	r1, [r7, #0]
  uint32_t filternbrbitpos;
  CAN_TypeDef *can_ip = hcan->Instance;
 8002b48:	687b      	ldr	r3, [r7, #4]
 8002b4a:	681b      	ldr	r3, [r3, #0]
 8002b4c:	617b      	str	r3, [r7, #20]
  HAL_CAN_StateTypeDef state = hcan->State;
 8002b4e:	687b      	ldr	r3, [r7, #4]
 8002b50:	f893 3020 	ldrb.w	r3, [r3, #32]
 8002b54:	74fb      	strb	r3, [r7, #19]

  if ((state == HAL_CAN_STATE_READY) ||
 8002b56:	7cfb      	ldrb	r3, [r7, #19]
 8002b58:	2b01      	cmp	r3, #1
 8002b5a:	d003      	beq.n	8002b64 <HAL_CAN_ConfigFilter+0x26>
 8002b5c:	7cfb      	ldrb	r3, [r7, #19]
 8002b5e:	2b02      	cmp	r3, #2
 8002b60:	f040 80aa 	bne.w	8002cb8 <HAL_CAN_ConfigFilter+0x17a>
    /* Check the parameters */
    assert_param(IS_CAN_FILTER_BANK_SINGLE(sFilterConfig->FilterBank));
#endif

    /* Initialisation mode for the filter */
    SET_BIT(can_ip->FMR, CAN_FMR_FINIT);
 8002b64:	697b      	ldr	r3, [r7, #20]
 8002b66:	f8d3 3200 	ldr.w	r3, [r3, #512]	; 0x200
 8002b6a:	f043 0201 	orr.w	r2, r3, #1
 8002b6e:	697b      	ldr	r3, [r7, #20]
 8002b70:	f8c3 2200 	str.w	r2, [r3, #512]	; 0x200
    CLEAR_BIT(can_ip->FMR, CAN_FMR_CAN2SB);
    SET_BIT(can_ip->FMR, sFilterConfig->SlaveStartFilterBank << CAN_FMR_CAN2SB_Pos);

#endif
    /* Convert filter number into bit position */
    filternbrbitpos = (uint32_t)1 << (sFilterConfig->FilterBank & 0x1FU);
 8002b74:	683b      	ldr	r3, [r7, #0]
 8002b76:	695b      	ldr	r3, [r3, #20]
 8002b78:	f003 031f 	and.w	r3, r3, #31
 8002b7c:	2201      	movs	r2, #1
 8002b7e:	fa02 f303 	lsl.w	r3, r2, r3
 8002b82:	60fb      	str	r3, [r7, #12]

    /* Filter Deactivation */
    CLEAR_BIT(can_ip->FA1R, filternbrbitpos);
 8002b84:	697b      	ldr	r3, [r7, #20]
 8002b86:	f8d3 221c 	ldr.w	r2, [r3, #540]	; 0x21c
 8002b8a:	68fb      	ldr	r3, [r7, #12]
 8002b8c:	43db      	mvns	r3, r3
 8002b8e:	401a      	ands	r2, r3
 8002b90:	697b      	ldr	r3, [r7, #20]
 8002b92:	f8c3 221c 	str.w	r2, [r3, #540]	; 0x21c

    /* Filter Scale */
    if (sFilterConfig->FilterScale == CAN_FILTERSCALE_16BIT)
 8002b96:	683b      	ldr	r3, [r7, #0]
 8002b98:	69db      	ldr	r3, [r3, #28]
 8002b9a:	2b00      	cmp	r3, #0
 8002b9c:	d123      	bne.n	8002be6 <HAL_CAN_ConfigFilter+0xa8>
    {
      /* 16-bit scale for the filter */
      CLEAR_BIT(can_ip->FS1R, filternbrbitpos);
 8002b9e:	697b      	ldr	r3, [r7, #20]
 8002ba0:	f8d3 220c 	ldr.w	r2, [r3, #524]	; 0x20c
 8002ba4:	68fb      	ldr	r3, [r7, #12]
 8002ba6:	43db      	mvns	r3, r3
 8002ba8:	401a      	ands	r2, r3
 8002baa:	697b      	ldr	r3, [r7, #20]
 8002bac:	f8c3 220c 	str.w	r2, [r3, #524]	; 0x20c

      /* First 16-bit identifier and First 16-bit mask */
      /* Or First 16-bit identifier and Second 16-bit identifier */
      can_ip->sFilterRegister[sFilterConfig->FilterBank].FR1 =
        ((0x0000FFFFU & (uint32_t)sFilterConfig->FilterMaskIdLow) << 16U) |
 8002bb0:	683b      	ldr	r3, [r7, #0]
 8002bb2:	68db      	ldr	r3, [r3, #12]
 8002bb4:	0419      	lsls	r1, r3, #16
        (0x0000FFFFU & (uint32_t)sFilterConfig->FilterIdLow);
 8002bb6:	683b      	ldr	r3, [r7, #0]
 8002bb8:	685b      	ldr	r3, [r3, #4]
 8002bba:	b29b      	uxth	r3, r3
      can_ip->sFilterRegister[sFilterConfig->FilterBank].FR1 =
 8002bbc:	683a      	ldr	r2, [r7, #0]
 8002bbe:	6952      	ldr	r2, [r2, #20]
        ((0x0000FFFFU & (uint32_t)sFilterConfig->FilterMaskIdLow) << 16U) |
 8002bc0:	4319      	orrs	r1, r3
      can_ip->sFilterRegister[sFilterConfig->FilterBank].FR1 =
 8002bc2:	697b      	ldr	r3, [r7, #20]
 8002bc4:	3248      	adds	r2, #72	; 0x48
 8002bc6:	f843 1032 	str.w	r1, [r3, r2, lsl #3]

      /* Second 16-bit identifier and Second 16-bit mask */
      /* Or Third 16-bit identifier and Fourth 16-bit identifier */
      can_ip->sFilterRegister[sFilterConfig->FilterBank].FR2 =
        ((0x0000FFFFU & (uint32_t)sFilterConfig->FilterMaskIdHigh) << 16U) |
 8002bca:	683b      	ldr	r3, [r7, #0]
 8002bcc:	689b      	ldr	r3, [r3, #8]
 8002bce:	0419      	lsls	r1, r3, #16
        (0x0000FFFFU & (uint32_t)sFilterConfig->FilterIdHigh);
 8002bd0:	683b      	ldr	r3, [r7, #0]
 8002bd2:	681b      	ldr	r3, [r3, #0]
 8002bd4:	b29a      	uxth	r2, r3
      can_ip->sFilterRegister[sFilterConfig->FilterBank].FR2 =
 8002bd6:	683b      	ldr	r3, [r7, #0]
 8002bd8:	695b      	ldr	r3, [r3, #20]
        ((0x0000FFFFU & (uint32_t)sFilterConfig->FilterMaskIdHigh) << 16U) |
 8002bda:	430a      	orrs	r2, r1
      can_ip->sFilterRegister[sFilterConfig->FilterBank].FR2 =
 8002bdc:	6979      	ldr	r1, [r7, #20]
 8002bde:	3348      	adds	r3, #72	; 0x48
 8002be0:	00db      	lsls	r3, r3, #3
 8002be2:	440b      	add	r3, r1
 8002be4:	605a      	str	r2, [r3, #4]
    }

    if (sFilterConfig->FilterScale == CAN_FILTERSCALE_32BIT)
 8002be6:	683b      	ldr	r3, [r7, #0]
 8002be8:	69db      	ldr	r3, [r3, #28]
 8002bea:	2b01      	cmp	r3, #1
 8002bec:	d122      	bne.n	8002c34 <HAL_CAN_ConfigFilter+0xf6>
    {
      /* 32-bit scale for the filter */
      SET_BIT(can_ip->FS1R, filternbrbitpos);
 8002bee:	697b      	ldr	r3, [r7, #20]
 8002bf0:	f8d3 220c 	ldr.w	r2, [r3, #524]	; 0x20c
 8002bf4:	68fb      	ldr	r3, [r7, #12]
 8002bf6:	431a      	orrs	r2, r3
 8002bf8:	697b      	ldr	r3, [r7, #20]
 8002bfa:	f8c3 220c 	str.w	r2, [r3, #524]	; 0x20c

      /* 32-bit identifier or First 32-bit identifier */
      can_ip->sFilterRegister[sFilterConfig->FilterBank].FR1 =
        ((0x0000FFFFU & (uint32_t)sFilterConfig->FilterIdHigh) << 16U) |
 8002bfe:	683b      	ldr	r3, [r7, #0]
 8002c00:	681b      	ldr	r3, [r3, #0]
 8002c02:	0419      	lsls	r1, r3, #16
        (0x0000FFFFU & (uint32_t)sFilterConfig->FilterIdLow);
 8002c04:	683b      	ldr	r3, [r7, #0]
 8002c06:	685b      	ldr	r3, [r3, #4]
 8002c08:	b29b      	uxth	r3, r3
      can_ip->sFilterRegister[sFilterConfig->FilterBank].FR1 =
 8002c0a:	683a      	ldr	r2, [r7, #0]
 8002c0c:	6952      	ldr	r2, [r2, #20]
        ((0x0000FFFFU & (uint32_t)sFilterConfig->FilterIdHigh) << 16U) |
 8002c0e:	4319      	orrs	r1, r3
      can_ip->sFilterRegister[sFilterConfig->FilterBank].FR1 =
 8002c10:	697b      	ldr	r3, [r7, #20]
 8002c12:	3248      	adds	r2, #72	; 0x48
 8002c14:	f843 1032 	str.w	r1, [r3, r2, lsl #3]

      /* 32-bit mask or Second 32-bit identifier */
      can_ip->sFilterRegister[sFilterConfig->FilterBank].FR2 =
        ((0x0000FFFFU & (uint32_t)sFilterConfig->FilterMaskIdHigh) << 16U) |
 8002c18:	683b      	ldr	r3, [r7, #0]
 8002c1a:	689b      	ldr	r3, [r3, #8]
 8002c1c:	0419      	lsls	r1, r3, #16
        (0x0000FFFFU & (uint32_t)sFilterConfig->FilterMaskIdLow);
 8002c1e:	683b      	ldr	r3, [r7, #0]
 8002c20:	68db      	ldr	r3, [r3, #12]
 8002c22:	b29a      	uxth	r2, r3
      can_ip->sFilterRegister[sFilterConfig->FilterBank].FR2 =
 8002c24:	683b      	ldr	r3, [r7, #0]
 8002c26:	695b      	ldr	r3, [r3, #20]
        ((0x0000FFFFU & (uint32_t)sFilterConfig->FilterMaskIdHigh) << 16U) |
 8002c28:	430a      	orrs	r2, r1
      can_ip->sFilterRegister[sFilterConfig->FilterBank].FR2 =
 8002c2a:	6979      	ldr	r1, [r7, #20]
 8002c2c:	3348      	adds	r3, #72	; 0x48
 8002c2e:	00db      	lsls	r3, r3, #3
 8002c30:	440b      	add	r3, r1
 8002c32:	605a      	str	r2, [r3, #4]
    }

    /* Filter Mode */
    if (sFilterConfig->FilterMode == CAN_FILTERMODE_IDMASK)
 8002c34:	683b      	ldr	r3, [r7, #0]
 8002c36:	699b      	ldr	r3, [r3, #24]
 8002c38:	2b00      	cmp	r3, #0
 8002c3a:	d109      	bne.n	8002c50 <HAL_CAN_ConfigFilter+0x112>
    {
      /* Id/Mask mode for the filter*/
      CLEAR_BIT(can_ip->FM1R, filternbrbitpos);
 8002c3c:	697b      	ldr	r3, [r7, #20]
 8002c3e:	f8d3 2204 	ldr.w	r2, [r3, #516]	; 0x204
 8002c42:	68fb      	ldr	r3, [r7, #12]
 8002c44:	43db      	mvns	r3, r3
 8002c46:	401a      	ands	r2, r3
 8002c48:	697b      	ldr	r3, [r7, #20]
 8002c4a:	f8c3 2204 	str.w	r2, [r3, #516]	; 0x204
 8002c4e:	e007      	b.n	8002c60 <HAL_CAN_ConfigFilter+0x122>
    }
    else /* CAN_FilterInitStruct->CAN_FilterMode == CAN_FilterMode_IdList */
    {
      /* Identifier list mode for the filter*/
      SET_BIT(can_ip->FM1R, filternbrbitpos);
 8002c50:	697b      	ldr	r3, [r7, #20]
 8002c52:	f8d3 2204 	ldr.w	r2, [r3, #516]	; 0x204
 8002c56:	68fb      	ldr	r3, [r7, #12]
 8002c58:	431a      	orrs	r2, r3
 8002c5a:	697b      	ldr	r3, [r7, #20]
 8002c5c:	f8c3 2204 	str.w	r2, [r3, #516]	; 0x204
    }

    /* Filter FIFO assignment */
    if (sFilterConfig->FilterFIFOAssignment == CAN_FILTER_FIFO0)
 8002c60:	683b      	ldr	r3, [r7, #0]
 8002c62:	691b      	ldr	r3, [r3, #16]
 8002c64:	2b00      	cmp	r3, #0
 8002c66:	d109      	bne.n	8002c7c <HAL_CAN_ConfigFilter+0x13e>
    {
      /* FIFO 0 assignation for the filter */
      CLEAR_BIT(can_ip->FFA1R, filternbrbitpos);
 8002c68:	697b      	ldr	r3, [r7, #20]
 8002c6a:	f8d3 2214 	ldr.w	r2, [r3, #532]	; 0x214
 8002c6e:	68fb      	ldr	r3, [r7, #12]
 8002c70:	43db      	mvns	r3, r3
 8002c72:	401a      	ands	r2, r3
 8002c74:	697b      	ldr	r3, [r7, #20]
 8002c76:	f8c3 2214 	str.w	r2, [r3, #532]	; 0x214
 8002c7a:	e007      	b.n	8002c8c <HAL_CAN_ConfigFilter+0x14e>
    }
    else
    {
      /* FIFO 1 assignation for the filter */
      SET_BIT(can_ip->FFA1R, filternbrbitpos);
 8002c7c:	697b      	ldr	r3, [r7, #20]
 8002c7e:	f8d3 2214 	ldr.w	r2, [r3, #532]	; 0x214
 8002c82:	68fb      	ldr	r3, [r7, #12]
 8002c84:	431a      	orrs	r2, r3
 8002c86:	697b      	ldr	r3, [r7, #20]
 8002c88:	f8c3 2214 	str.w	r2, [r3, #532]	; 0x214
    }

    /* Filter activation */
    if (sFilterConfig->FilterActivation == CAN_FILTER_ENABLE)
 8002c8c:	683b      	ldr	r3, [r7, #0]
 8002c8e:	6a1b      	ldr	r3, [r3, #32]
 8002c90:	2b01      	cmp	r3, #1
 8002c92:	d107      	bne.n	8002ca4 <HAL_CAN_ConfigFilter+0x166>
    {
      SET_BIT(can_ip->FA1R, filternbrbitpos);
 8002c94:	697b      	ldr	r3, [r7, #20]
 8002c96:	f8d3 221c 	ldr.w	r2, [r3, #540]	; 0x21c
 8002c9a:	68fb      	ldr	r3, [r7, #12]
 8002c9c:	431a      	orrs	r2, r3
 8002c9e:	697b      	ldr	r3, [r7, #20]
 8002ca0:	f8c3 221c 	str.w	r2, [r3, #540]	; 0x21c
    }

    /* Leave the initialisation mode for the filter */
    CLEAR_BIT(can_ip->FMR, CAN_FMR_FINIT);
 8002ca4:	697b      	ldr	r3, [r7, #20]
 8002ca6:	f8d3 3200 	ldr.w	r3, [r3, #512]	; 0x200
 8002caa:	f023 0201 	bic.w	r2, r3, #1
 8002cae:	697b      	ldr	r3, [r7, #20]
 8002cb0:	f8c3 2200 	str.w	r2, [r3, #512]	; 0x200

    /* Return function status */
    return HAL_OK;
 8002cb4:	2300      	movs	r3, #0
 8002cb6:	e006      	b.n	8002cc6 <HAL_CAN_ConfigFilter+0x188>
  }
  else
  {
    /* Update error code */
    hcan->ErrorCode |= HAL_CAN_ERROR_NOT_INITIALIZED;
 8002cb8:	687b      	ldr	r3, [r7, #4]
 8002cba:	6a5b      	ldr	r3, [r3, #36]	; 0x24
 8002cbc:	f443 2280 	orr.w	r2, r3, #262144	; 0x40000
 8002cc0:	687b      	ldr	r3, [r7, #4]
 8002cc2:	625a      	str	r2, [r3, #36]	; 0x24

    return HAL_ERROR;
 8002cc4:	2301      	movs	r3, #1
  }
}
 8002cc6:	4618      	mov	r0, r3
 8002cc8:	371c      	adds	r7, #28
 8002cca:	46bd      	mov	sp, r7
 8002ccc:	bc80      	pop	{r7}
 8002cce:	4770      	bx	lr

08002cd0 <HAL_CAN_Start>:
  * @param  hcan pointer to an CAN_HandleTypeDef structure that contains
  *         the configuration information for the specified CAN.
  * @retval HAL status
  */
HAL_StatusTypeDef HAL_CAN_Start(CAN_HandleTypeDef *hcan)
{
 8002cd0:	b580      	push	{r7, lr}
 8002cd2:	b084      	sub	sp, #16
 8002cd4:	af00      	add	r7, sp, #0
 8002cd6:	6078      	str	r0, [r7, #4]
  uint32_t tickstart;

  if (hcan->State == HAL_CAN_STATE_READY)
 8002cd8:	687b      	ldr	r3, [r7, #4]
 8002cda:	f893 3020 	ldrb.w	r3, [r3, #32]
 8002cde:	b2db      	uxtb	r3, r3
 8002ce0:	2b01      	cmp	r3, #1
 8002ce2:	d12e      	bne.n	8002d42 <HAL_CAN_Start+0x72>
  {
    /* Change CAN peripheral state */
    hcan->State = HAL_CAN_STATE_LISTENING;
 8002ce4:	687b      	ldr	r3, [r7, #4]
 8002ce6:	2202      	movs	r2, #2
 8002ce8:	f883 2020 	strb.w	r2, [r3, #32]

    /* Request leave initialisation */
    CLEAR_BIT(hcan->Instance->MCR, CAN_MCR_INRQ);
 8002cec:	687b      	ldr	r3, [r7, #4]
 8002cee:	681b      	ldr	r3, [r3, #0]
 8002cf0:	681a      	ldr	r2, [r3, #0]
 8002cf2:	687b      	ldr	r3, [r7, #4]
 8002cf4:	681b      	ldr	r3, [r3, #0]
 8002cf6:	f022 0201 	bic.w	r2, r2, #1
 8002cfa:	601a      	str	r2, [r3, #0]

    /* Get tick */
    tickstart = HAL_GetTick();
 8002cfc:	f7ff fa3c 	bl	8002178 <HAL_GetTick>
 8002d00:	60f8      	str	r0, [r7, #12]

    /* Wait the acknowledge */
    while ((hcan->Instance->MSR & CAN_MSR_INAK) != 0U)
 8002d02:	e012      	b.n	8002d2a <HAL_CAN_Start+0x5a>
    {
      /* Check for the Timeout */
      if ((HAL_GetTick() - tickstart) > CAN_TIMEOUT_VALUE)
 8002d04:	f7ff fa38 	bl	8002178 <HAL_GetTick>
 8002d08:	4602      	mov	r2, r0
 8002d0a:	68fb      	ldr	r3, [r7, #12]
 8002d0c:	1ad3      	subs	r3, r2, r3
 8002d0e:	2b0a      	cmp	r3, #10
 8002d10:	d90b      	bls.n	8002d2a <HAL_CAN_Start+0x5a>
      {
        /* Update error code */
        hcan->ErrorCode |= HAL_CAN_ERROR_TIMEOUT;
 8002d12:	687b      	ldr	r3, [r7, #4]
 8002d14:	6a5b      	ldr	r3, [r3, #36]	; 0x24
 8002d16:	f443 3200 	orr.w	r2, r3, #131072	; 0x20000
 8002d1a:	687b      	ldr	r3, [r7, #4]
 8002d1c:	625a      	str	r2, [r3, #36]	; 0x24

        /* Change CAN state */
        hcan->State = HAL_CAN_STATE_ERROR;
 8002d1e:	687b      	ldr	r3, [r7, #4]
 8002d20:	2205      	movs	r2, #5
 8002d22:	f883 2020 	strb.w	r2, [r3, #32]

        return HAL_ERROR;
 8002d26:	2301      	movs	r3, #1
 8002d28:	e012      	b.n	8002d50 <HAL_CAN_Start+0x80>
    while ((hcan->Instance->MSR & CAN_MSR_INAK) != 0U)
 8002d2a:	687b      	ldr	r3, [r7, #4]
 8002d2c:	681b      	ldr	r3, [r3, #0]
 8002d2e:	685b      	ldr	r3, [r3, #4]
 8002d30:	f003 0301 	and.w	r3, r3, #1
 8002d34:	2b00      	cmp	r3, #0
 8002d36:	d1e5      	bne.n	8002d04 <HAL_CAN_Start+0x34>
      }
    }

    /* Reset the CAN ErrorCode */
    hcan->ErrorCode = HAL_CAN_ERROR_NONE;
 8002d38:	687b      	ldr	r3, [r7, #4]
 8002d3a:	2200      	movs	r2, #0
 8002d3c:	625a      	str	r2, [r3, #36]	; 0x24

    /* Return function status */
    return HAL_OK;
 8002d3e:	2300      	movs	r3, #0
 8002d40:	e006      	b.n	8002d50 <HAL_CAN_Start+0x80>
  }
  else
  {
    /* Update error code */
    hcan->ErrorCode |= HAL_CAN_ERROR_NOT_READY;
 8002d42:	687b      	ldr	r3, [r7, #4]
 8002d44:	6a5b      	ldr	r3, [r3, #36]	; 0x24
 8002d46:	f443 2200 	orr.w	r2, r3, #524288	; 0x80000
 8002d4a:	687b      	ldr	r3, [r7, #4]
 8002d4c:	625a      	str	r2, [r3, #36]	; 0x24

    return HAL_ERROR;
 8002d4e:	2301      	movs	r3, #1
  }
}
 8002d50:	4618      	mov	r0, r3
 8002d52:	3710      	adds	r7, #16
 8002d54:	46bd      	mov	sp, r7
 8002d56:	bd80      	pop	{r7, pc}

08002d58 <HAL_CAN_AddTxMessage>:
  *         the TxMailbox used to store the Tx message.
  *         This parameter can be a value of @arg CAN_Tx_Mailboxes.
  * @retval HAL status
  */
HAL_StatusTypeDef HAL_CAN_AddTxMessage(CAN_HandleTypeDef *hcan, CAN_TxHeaderTypeDef *pHeader, uint8_t aData[], uint32_t *pTxMailbox)
{
 8002d58:	b480      	push	{r7}
 8002d5a:	b089      	sub	sp, #36	; 0x24
 8002d5c:	af00      	add	r7, sp, #0
 8002d5e:	60f8      	str	r0, [r7, #12]
 8002d60:	60b9      	str	r1, [r7, #8]
 8002d62:	607a      	str	r2, [r7, #4]
 8002d64:	603b      	str	r3, [r7, #0]
  uint32_t transmitmailbox;
  HAL_CAN_StateTypeDef state = hcan->State;
 8002d66:	68fb      	ldr	r3, [r7, #12]
 8002d68:	f893 3020 	ldrb.w	r3, [r3, #32]
 8002d6c:	77fb      	strb	r3, [r7, #31]
  uint32_t tsr = READ_REG(hcan->Instance->TSR);
 8002d6e:	68fb      	ldr	r3, [r7, #12]
 8002d70:	681b      	ldr	r3, [r3, #0]
 8002d72:	689b      	ldr	r3, [r3, #8]
 8002d74:	61bb      	str	r3, [r7, #24]
  {
    assert_param(IS_CAN_EXTID(pHeader->ExtId));
  }
  assert_param(IS_FUNCTIONAL_STATE(pHeader->TransmitGlobalTime));

  if ((state == HAL_CAN_STATE_READY) ||
 8002d76:	7ffb      	ldrb	r3, [r7, #31]
 8002d78:	2b01      	cmp	r3, #1
 8002d7a:	d003      	beq.n	8002d84 <HAL_CAN_AddTxMessage+0x2c>
 8002d7c:	7ffb      	ldrb	r3, [r7, #31]
 8002d7e:	2b02      	cmp	r3, #2
 8002d80:	f040 80b8 	bne.w	8002ef4 <HAL_CAN_AddTxMessage+0x19c>
      (state == HAL_CAN_STATE_LISTENING))
  {
    /* Check that all the Tx mailboxes are not full */
    if (((tsr & CAN_TSR_TME0) != 0U) ||
 8002d84:	69bb      	ldr	r3, [r7, #24]
 8002d86:	f003 6380 	and.w	r3, r3, #67108864	; 0x4000000
 8002d8a:	2b00      	cmp	r3, #0
 8002d8c:	d10a      	bne.n	8002da4 <HAL_CAN_AddTxMessage+0x4c>
        ((tsr & CAN_TSR_TME1) != 0U) ||
 8002d8e:	69bb      	ldr	r3, [r7, #24]
 8002d90:	f003 6300 	and.w	r3, r3, #134217728	; 0x8000000
    if (((tsr & CAN_TSR_TME0) != 0U) ||
 8002d94:	2b00      	cmp	r3, #0
 8002d96:	d105      	bne.n	8002da4 <HAL_CAN_AddTxMessage+0x4c>
        ((tsr & CAN_TSR_TME2) != 0U))
 8002d98:	69bb      	ldr	r3, [r7, #24]
 8002d9a:	f003 5380 	and.w	r3, r3, #268435456	; 0x10000000
        ((tsr & CAN_TSR_TME1) != 0U) ||
 8002d9e:	2b00      	cmp	r3, #0
 8002da0:	f000 80a0 	beq.w	8002ee4 <HAL_CAN_AddTxMessage+0x18c>
    {
      /* Select an empty transmit mailbox */
      transmitmailbox = (tsr & CAN_TSR_CODE) >> CAN_TSR_CODE_Pos;
 8002da4:	69bb      	ldr	r3, [r7, #24]
 8002da6:	0e1b      	lsrs	r3, r3, #24
 8002da8:	f003 0303 	and.w	r3, r3, #3
 8002dac:	617b      	str	r3, [r7, #20]

      /* Check transmit mailbox value */
      if (transmitmailbox > 2U)
 8002dae:	697b      	ldr	r3, [r7, #20]
 8002db0:	2b02      	cmp	r3, #2
 8002db2:	d907      	bls.n	8002dc4 <HAL_CAN_AddTxMessage+0x6c>
      {
        /* Update error code */
        hcan->ErrorCode |= HAL_CAN_ERROR_INTERNAL;
 8002db4:	68fb      	ldr	r3, [r7, #12]
 8002db6:	6a5b      	ldr	r3, [r3, #36]	; 0x24
 8002db8:	f443 0200 	orr.w	r2, r3, #8388608	; 0x800000
 8002dbc:	68fb      	ldr	r3, [r7, #12]
 8002dbe:	625a      	str	r2, [r3, #36]	; 0x24

        return HAL_ERROR;
 8002dc0:	2301      	movs	r3, #1
 8002dc2:	e09e      	b.n	8002f02 <HAL_CAN_AddTxMessage+0x1aa>
      }

      /* Store the Tx mailbox */
      *pTxMailbox = (uint32_t)1 << transmitmailbox;
 8002dc4:	2201      	movs	r2, #1
 8002dc6:	697b      	ldr	r3, [r7, #20]
 8002dc8:	409a      	lsls	r2, r3
 8002dca:	683b      	ldr	r3, [r7, #0]
 8002dcc:	601a      	str	r2, [r3, #0]

      /* Set up the Id */
      if (pHeader->IDE == CAN_ID_STD)
 8002dce:	68bb      	ldr	r3, [r7, #8]
 8002dd0:	689b      	ldr	r3, [r3, #8]
 8002dd2:	2b00      	cmp	r3, #0
 8002dd4:	d10d      	bne.n	8002df2 <HAL_CAN_AddTxMessage+0x9a>
      {
        hcan->Instance->sTxMailBox[transmitmailbox].TIR = ((pHeader->StdId << CAN_TI0R_STID_Pos) |
 8002dd6:	68bb      	ldr	r3, [r7, #8]
 8002dd8:	681b      	ldr	r3, [r3, #0]
 8002dda:	055a      	lsls	r2, r3, #21
                                                           pHeader->RTR);
 8002ddc:	68bb      	ldr	r3, [r7, #8]
 8002dde:	68db      	ldr	r3, [r3, #12]
        hcan->Instance->sTxMailBox[transmitmailbox].TIR = ((pHeader->StdId << CAN_TI0R_STID_Pos) |
 8002de0:	68f9      	ldr	r1, [r7, #12]
 8002de2:	6809      	ldr	r1, [r1, #0]
 8002de4:	431a      	orrs	r2, r3
 8002de6:	697b      	ldr	r3, [r7, #20]
 8002de8:	3318      	adds	r3, #24
 8002dea:	011b      	lsls	r3, r3, #4
 8002dec:	440b      	add	r3, r1
 8002dee:	601a      	str	r2, [r3, #0]
 8002df0:	e00f      	b.n	8002e12 <HAL_CAN_AddTxMessage+0xba>
      }
      else
      {
        hcan->Instance->sTxMailBox[transmitmailbox].TIR = ((pHeader->ExtId << CAN_TI0R_EXID_Pos) |
 8002df2:	68bb      	ldr	r3, [r7, #8]
 8002df4:	685b      	ldr	r3, [r3, #4]
 8002df6:	00da      	lsls	r2, r3, #3
                                                           pHeader->IDE |
 8002df8:	68bb      	ldr	r3, [r7, #8]
 8002dfa:	689b      	ldr	r3, [r3, #8]
        hcan->Instance->sTxMailBox[transmitmailbox].TIR = ((pHeader->ExtId << CAN_TI0R_EXID_Pos) |
 8002dfc:	431a      	orrs	r2, r3
                                                           pHeader->RTR);
 8002dfe:	68bb      	ldr	r3, [r7, #8]
 8002e00:	68db      	ldr	r3, [r3, #12]
        hcan->Instance->sTxMailBox[transmitmailbox].TIR = ((pHeader->ExtId << CAN_TI0R_EXID_Pos) |
 8002e02:	68f9      	ldr	r1, [r7, #12]
 8002e04:	6809      	ldr	r1, [r1, #0]
                                                           pHeader->IDE |
 8002e06:	431a      	orrs	r2, r3
        hcan->Instance->sTxMailBox[transmitmailbox].TIR = ((pHeader->ExtId << CAN_TI0R_EXID_Pos) |
 8002e08:	697b      	ldr	r3, [r7, #20]
 8002e0a:	3318      	adds	r3, #24
 8002e0c:	011b      	lsls	r3, r3, #4
 8002e0e:	440b      	add	r3, r1
 8002e10:	601a      	str	r2, [r3, #0]
      }

      /* Set up the DLC */
      hcan->Instance->sTxMailBox[transmitmailbox].TDTR = (pHeader->DLC);
 8002e12:	68fb      	ldr	r3, [r7, #12]
 8002e14:	6819      	ldr	r1, [r3, #0]
 8002e16:	68bb      	ldr	r3, [r7, #8]
 8002e18:	691a      	ldr	r2, [r3, #16]
 8002e1a:	697b      	ldr	r3, [r7, #20]
 8002e1c:	3318      	adds	r3, #24
 8002e1e:	011b      	lsls	r3, r3, #4
 8002e20:	440b      	add	r3, r1
 8002e22:	3304      	adds	r3, #4
 8002e24:	601a      	str	r2, [r3, #0]

      /* Set up the Transmit Global Time mode */
      if (pHeader->TransmitGlobalTime == ENABLE)
 8002e26:	68bb      	ldr	r3, [r7, #8]
 8002e28:	7d1b      	ldrb	r3, [r3, #20]
 8002e2a:	2b01      	cmp	r3, #1
 8002e2c:	d111      	bne.n	8002e52 <HAL_CAN_AddTxMessage+0xfa>
      {
        SET_BIT(hcan->Instance->sTxMailBox[transmitmailbox].TDTR, CAN_TDT0R_TGT);
 8002e2e:	68fb      	ldr	r3, [r7, #12]
 8002e30:	681a      	ldr	r2, [r3, #0]
 8002e32:	697b      	ldr	r3, [r7, #20]
 8002e34:	3318      	adds	r3, #24
 8002e36:	011b      	lsls	r3, r3, #4
 8002e38:	4413      	add	r3, r2
 8002e3a:	3304      	adds	r3, #4
 8002e3c:	681b      	ldr	r3, [r3, #0]
 8002e3e:	68fa      	ldr	r2, [r7, #12]
 8002e40:	6811      	ldr	r1, [r2, #0]
 8002e42:	f443 7280 	orr.w	r2, r3, #256	; 0x100
 8002e46:	697b      	ldr	r3, [r7, #20]
 8002e48:	3318      	adds	r3, #24
 8002e4a:	011b      	lsls	r3, r3, #4
 8002e4c:	440b      	add	r3, r1
 8002e4e:	3304      	adds	r3, #4
 8002e50:	601a      	str	r2, [r3, #0]
      }

      /* Set up the data field */
      WRITE_REG(hcan->Instance->sTxMailBox[transmitmailbox].TDHR,
 8002e52:	687b      	ldr	r3, [r7, #4]
 8002e54:	3307      	adds	r3, #7
 8002e56:	781b      	ldrb	r3, [r3, #0]
 8002e58:	061a      	lsls	r2, r3, #24
 8002e5a:	687b      	ldr	r3, [r7, #4]
 8002e5c:	3306      	adds	r3, #6
 8002e5e:	781b      	ldrb	r3, [r3, #0]
 8002e60:	041b      	lsls	r3, r3, #16
 8002e62:	431a      	orrs	r2, r3
 8002e64:	687b      	ldr	r3, [r7, #4]
 8002e66:	3305      	adds	r3, #5
 8002e68:	781b      	ldrb	r3, [r3, #0]
 8002e6a:	021b      	lsls	r3, r3, #8
 8002e6c:	4313      	orrs	r3, r2
 8002e6e:	687a      	ldr	r2, [r7, #4]
 8002e70:	3204      	adds	r2, #4
 8002e72:	7812      	ldrb	r2, [r2, #0]
 8002e74:	4610      	mov	r0, r2
 8002e76:	68fa      	ldr	r2, [r7, #12]
 8002e78:	6811      	ldr	r1, [r2, #0]
 8002e7a:	ea43 0200 	orr.w	r2, r3, r0
 8002e7e:	697b      	ldr	r3, [r7, #20]
 8002e80:	011b      	lsls	r3, r3, #4
 8002e82:	440b      	add	r3, r1
 8002e84:	f503 73c6 	add.w	r3, r3, #396	; 0x18c
 8002e88:	601a      	str	r2, [r3, #0]
                ((uint32_t)aData[7] << CAN_TDH0R_DATA7_Pos) |
                ((uint32_t)aData[6] << CAN_TDH0R_DATA6_Pos) |
                ((uint32_t)aData[5] << CAN_TDH0R_DATA5_Pos) |
                ((uint32_t)aData[4] << CAN_TDH0R_DATA4_Pos));
      WRITE_REG(hcan->Instance->sTxMailBox[transmitmailbox].TDLR,
 8002e8a:	687b      	ldr	r3, [r7, #4]
 8002e8c:	3303      	adds	r3, #3
 8002e8e:	781b      	ldrb	r3, [r3, #0]
 8002e90:	061a      	lsls	r2, r3, #24
 8002e92:	687b      	ldr	r3, [r7, #4]
 8002e94:	3302      	adds	r3, #2
 8002e96:	781b      	ldrb	r3, [r3, #0]
 8002e98:	041b      	lsls	r3, r3, #16
 8002e9a:	431a      	orrs	r2, r3
 8002e9c:	687b      	ldr	r3, [r7, #4]
 8002e9e:	3301      	adds	r3, #1
 8002ea0:	781b      	ldrb	r3, [r3, #0]
 8002ea2:	021b      	lsls	r3, r3, #8
 8002ea4:	4313      	orrs	r3, r2
 8002ea6:	687a      	ldr	r2, [r7, #4]
 8002ea8:	7812      	ldrb	r2, [r2, #0]
 8002eaa:	4610      	mov	r0, r2
 8002eac:	68fa      	ldr	r2, [r7, #12]
 8002eae:	6811      	ldr	r1, [r2, #0]
 8002eb0:	ea43 0200 	orr.w	r2, r3, r0
 8002eb4:	697b      	ldr	r3, [r7, #20]
 8002eb6:	011b      	lsls	r3, r3, #4
 8002eb8:	440b      	add	r3, r1
 8002eba:	f503 73c4 	add.w	r3, r3, #392	; 0x188
 8002ebe:	601a      	str	r2, [r3, #0]
                ((uint32_t)aData[2] << CAN_TDL0R_DATA2_Pos) |
                ((uint32_t)aData[1] << CAN_TDL0R_DATA1_Pos) |
                ((uint32_t)aData[0] << CAN_TDL0R_DATA0_Pos));

      /* Request transmission */
      SET_BIT(hcan->Instance->sTxMailBox[transmitmailbox].TIR, CAN_TI0R_TXRQ);
 8002ec0:	68fb      	ldr	r3, [r7, #12]
 8002ec2:	681a      	ldr	r2, [r3, #0]
 8002ec4:	697b      	ldr	r3, [r7, #20]
 8002ec6:	3318      	adds	r3, #24
 8002ec8:	011b      	lsls	r3, r3, #4
 8002eca:	4413      	add	r3, r2
 8002ecc:	681b      	ldr	r3, [r3, #0]
 8002ece:	68fa      	ldr	r2, [r7, #12]
 8002ed0:	6811      	ldr	r1, [r2, #0]
 8002ed2:	f043 0201 	orr.w	r2, r3, #1
 8002ed6:	697b      	ldr	r3, [r7, #20]
 8002ed8:	3318      	adds	r3, #24
 8002eda:	011b      	lsls	r3, r3, #4
 8002edc:	440b      	add	r3, r1
 8002ede:	601a      	str	r2, [r3, #0]

      /* Return function status */
      return HAL_OK;
 8002ee0:	2300      	movs	r3, #0
 8002ee2:	e00e      	b.n	8002f02 <HAL_CAN_AddTxMessage+0x1aa>
    }
    else
    {
      /* Update error code */
      hcan->ErrorCode |= HAL_CAN_ERROR_PARAM;
 8002ee4:	68fb      	ldr	r3, [r7, #12]
 8002ee6:	6a5b      	ldr	r3, [r3, #36]	; 0x24
 8002ee8:	f443 1200 	orr.w	r2, r3, #2097152	; 0x200000
 8002eec:	68fb      	ldr	r3, [r7, #12]
 8002eee:	625a      	str	r2, [r3, #36]	; 0x24

      return HAL_ERROR;
 8002ef0:	2301      	movs	r3, #1
 8002ef2:	e006      	b.n	8002f02 <HAL_CAN_AddTxMessage+0x1aa>
    }
  }
  else
  {
    /* Update error code */
    hcan->ErrorCode |= HAL_CAN_ERROR_NOT_INITIALIZED;
 8002ef4:	68fb      	ldr	r3, [r7, #12]
 8002ef6:	6a5b      	ldr	r3, [r3, #36]	; 0x24
 8002ef8:	f443 2280 	orr.w	r2, r3, #262144	; 0x40000
 8002efc:	68fb      	ldr	r3, [r7, #12]
 8002efe:	625a      	str	r2, [r3, #36]	; 0x24

    return HAL_ERROR;
 8002f00:	2301      	movs	r3, #1
  }
}
 8002f02:	4618      	mov	r0, r3
 8002f04:	3724      	adds	r7, #36	; 0x24
 8002f06:	46bd      	mov	sp, r7
 8002f08:	bc80      	pop	{r7}
 8002f0a:	4770      	bx	lr

08002f0c <HAL_CAN_ActivateNotification>:
  * @param  ActiveITs indicates which interrupts will be enabled.
  *         This parameter can be any combination of @arg CAN_Interrupts.
  * @retval HAL status
  */
HAL_StatusTypeDef HAL_CAN_ActivateNotification(CAN_HandleTypeDef *hcan, uint32_t ActiveITs)
{
 8002f0c:	b480      	push	{r7}
 8002f0e:	b085      	sub	sp, #20
 8002f10:	af00      	add	r7, sp, #0
 8002f12:	6078      	str	r0, [r7, #4]
 8002f14:	6039      	str	r1, [r7, #0]
  HAL_CAN_StateTypeDef state = hcan->State;
 8002f16:	687b      	ldr	r3, [r7, #4]
 8002f18:	f893 3020 	ldrb.w	r3, [r3, #32]
 8002f1c:	73fb      	strb	r3, [r7, #15]

  /* Check function parameters */
  assert_param(IS_CAN_IT(ActiveITs));

  if ((state == HAL_CAN_STATE_READY) ||
 8002f1e:	7bfb      	ldrb	r3, [r7, #15]
 8002f20:	2b01      	cmp	r3, #1
 8002f22:	d002      	beq.n	8002f2a <HAL_CAN_ActivateNotification+0x1e>
 8002f24:	7bfb      	ldrb	r3, [r7, #15]
 8002f26:	2b02      	cmp	r3, #2
 8002f28:	d109      	bne.n	8002f3e <HAL_CAN_ActivateNotification+0x32>
      (state == HAL_CAN_STATE_LISTENING))
  {
    /* Enable the selected interrupts */
    __HAL_CAN_ENABLE_IT(hcan, ActiveITs);
 8002f2a:	687b      	ldr	r3, [r7, #4]
 8002f2c:	681b      	ldr	r3, [r3, #0]
 8002f2e:	6959      	ldr	r1, [r3, #20]
 8002f30:	687b      	ldr	r3, [r7, #4]
 8002f32:	681b      	ldr	r3, [r3, #0]
 8002f34:	683a      	ldr	r2, [r7, #0]
 8002f36:	430a      	orrs	r2, r1
 8002f38:	615a      	str	r2, [r3, #20]

    /* Return function status */
    return HAL_OK;
 8002f3a:	2300      	movs	r3, #0
 8002f3c:	e006      	b.n	8002f4c <HAL_CAN_ActivateNotification+0x40>
  }
  else
  {
    /* Update error code */
    hcan->ErrorCode |= HAL_CAN_ERROR_NOT_INITIALIZED;
 8002f3e:	687b      	ldr	r3, [r7, #4]
 8002f40:	6a5b      	ldr	r3, [r3, #36]	; 0x24
 8002f42:	f443 2280 	orr.w	r2, r3, #262144	; 0x40000
 8002f46:	687b      	ldr	r3, [r7, #4]
 8002f48:	625a      	str	r2, [r3, #36]	; 0x24

    return HAL_ERROR;
 8002f4a:	2301      	movs	r3, #1
  }
}
 8002f4c:	4618      	mov	r0, r3
 8002f4e:	3714      	adds	r7, #20
 8002f50:	46bd      	mov	sp, r7
 8002f52:	bc80      	pop	{r7}
 8002f54:	4770      	bx	lr

08002f56 <HAL_CAN_IRQHandler>:
  * @param  hcan pointer to a CAN_HandleTypeDef structure that contains
  *         the configuration information for the specified CAN.
  * @retval None
  */
void HAL_CAN_IRQHandler(CAN_HandleTypeDef *hcan)
{
 8002f56:	b580      	push	{r7, lr}
 8002f58:	b08a      	sub	sp, #40	; 0x28
 8002f5a:	af00      	add	r7, sp, #0
 8002f5c:	6078      	str	r0, [r7, #4]
  uint32_t errorcode = HAL_CAN_ERROR_NONE;
 8002f5e:	2300      	movs	r3, #0
 8002f60:	627b      	str	r3, [r7, #36]	; 0x24
  uint32_t interrupts = READ_REG(hcan->Instance->IER);
 8002f62:	687b      	ldr	r3, [r7, #4]
 8002f64:	681b      	ldr	r3, [r3, #0]
 8002f66:	695b      	ldr	r3, [r3, #20]
 8002f68:	623b      	str	r3, [r7, #32]
  uint32_t msrflags = READ_REG(hcan->Instance->MSR);
 8002f6a:	687b      	ldr	r3, [r7, #4]
 8002f6c:	681b      	ldr	r3, [r3, #0]
 8002f6e:	685b      	ldr	r3, [r3, #4]
 8002f70:	61fb      	str	r3, [r7, #28]
  uint32_t tsrflags = READ_REG(hcan->Instance->TSR);
 8002f72:	687b      	ldr	r3, [r7, #4]
 8002f74:	681b      	ldr	r3, [r3, #0]
 8002f76:	689b      	ldr	r3, [r3, #8]
 8002f78:	61bb      	str	r3, [r7, #24]
  uint32_t rf0rflags = READ_REG(hcan->Instance->RF0R);
 8002f7a:	687b      	ldr	r3, [r7, #4]
 8002f7c:	681b      	ldr	r3, [r3, #0]
 8002f7e:	68db      	ldr	r3, [r3, #12]
 8002f80:	617b      	str	r3, [r7, #20]
  uint32_t rf1rflags = READ_REG(hcan->Instance->RF1R);
 8002f82:	687b      	ldr	r3, [r7, #4]
 8002f84:	681b      	ldr	r3, [r3, #0]
 8002f86:	691b      	ldr	r3, [r3, #16]
 8002f88:	613b      	str	r3, [r7, #16]
  uint32_t esrflags = READ_REG(hcan->Instance->ESR);
 8002f8a:	687b      	ldr	r3, [r7, #4]
 8002f8c:	681b      	ldr	r3, [r3, #0]
 8002f8e:	699b      	ldr	r3, [r3, #24]
 8002f90:	60fb      	str	r3, [r7, #12]

  /* Transmit Mailbox empty interrupt management *****************************/
  if ((interrupts & CAN_IT_TX_MAILBOX_EMPTY) != 0U)
 8002f92:	6a3b      	ldr	r3, [r7, #32]
 8002f94:	f003 0301 	and.w	r3, r3, #1
 8002f98:	2b00      	cmp	r3, #0
 8002f9a:	d07c      	beq.n	8003096 <HAL_CAN_IRQHandler+0x140>
  {
    /* Transmit Mailbox 0 management *****************************************/
    if ((tsrflags & CAN_TSR_RQCP0) != 0U)
 8002f9c:	69bb      	ldr	r3, [r7, #24]
 8002f9e:	f003 0301 	and.w	r3, r3, #1
 8002fa2:	2b00      	cmp	r3, #0
 8002fa4:	d023      	beq.n	8002fee <HAL_CAN_IRQHandler+0x98>
    {
      /* Clear the Transmission Complete flag (and TXOK0,ALST0,TERR0 bits) */
      __HAL_CAN_CLEAR_FLAG(hcan, CAN_FLAG_RQCP0);
 8002fa6:	687b      	ldr	r3, [r7, #4]
 8002fa8:	681b      	ldr	r3, [r3, #0]
 8002faa:	2201      	movs	r2, #1
 8002fac:	609a      	str	r2, [r3, #8]

      if ((tsrflags & CAN_TSR_TXOK0) != 0U)
 8002fae:	69bb      	ldr	r3, [r7, #24]
 8002fb0:	f003 0302 	and.w	r3, r3, #2
 8002fb4:	2b00      	cmp	r3, #0
 8002fb6:	d003      	beq.n	8002fc0 <HAL_CAN_IRQHandler+0x6a>
#if USE_HAL_CAN_REGISTER_CALLBACKS == 1
        /* Call registered callback*/
        hcan->TxMailbox0CompleteCallback(hcan);
#else
        /* Call weak (surcharged) callback */
        HAL_CAN_TxMailbox0CompleteCallback(hcan);
 8002fb8:	6878      	ldr	r0, [r7, #4]
 8002fba:	f000 f97d 	bl	80032b8 <HAL_CAN_TxMailbox0CompleteCallback>
 8002fbe:	e016      	b.n	8002fee <HAL_CAN_IRQHandler+0x98>
#endif /* USE_HAL_CAN_REGISTER_CALLBACKS */
      }
      else
      {
        if ((tsrflags & CAN_TSR_ALST0) != 0U)
 8002fc0:	69bb      	ldr	r3, [r7, #24]
 8002fc2:	f003 0304 	and.w	r3, r3, #4
 8002fc6:	2b00      	cmp	r3, #0
 8002fc8:	d004      	beq.n	8002fd4 <HAL_CAN_IRQHandler+0x7e>
        {
          /* Update error code */
          errorcode |= HAL_CAN_ERROR_TX_ALST0;
 8002fca:	6a7b      	ldr	r3, [r7, #36]	; 0x24
 8002fcc:	f443 6300 	orr.w	r3, r3, #2048	; 0x800
 8002fd0:	627b      	str	r3, [r7, #36]	; 0x24
 8002fd2:	e00c      	b.n	8002fee <HAL_CAN_IRQHandler+0x98>
        }
        else if ((tsrflags & CAN_TSR_TERR0) != 0U)
 8002fd4:	69bb      	ldr	r3, [r7, #24]
 8002fd6:	f003 0308 	and.w	r3, r3, #8
 8002fda:	2b00      	cmp	r3, #0
 8002fdc:	d004      	beq.n	8002fe8 <HAL_CAN_IRQHandler+0x92>
        {
          /* Update error code */
          errorcode |= HAL_CAN_ERROR_TX_TERR0;
 8002fde:	6a7b      	ldr	r3, [r7, #36]	; 0x24
 8002fe0:	f443 5380 	orr.w	r3, r3, #4096	; 0x1000
 8002fe4:	627b      	str	r3, [r7, #36]	; 0x24
 8002fe6:	e002      	b.n	8002fee <HAL_CAN_IRQHandler+0x98>
#if USE_HAL_CAN_REGISTER_CALLBACKS == 1
          /* Call registered callback*/
          hcan->TxMailbox0AbortCallback(hcan);
#else
          /* Call weak (surcharged) callback */
          HAL_CAN_TxMailbox0AbortCallback(hcan);
 8002fe8:	6878      	ldr	r0, [r7, #4]
 8002fea:	f000 f980 	bl	80032ee <HAL_CAN_TxMailbox0AbortCallback>
        }
      }
    }

    /* Transmit Mailbox 1 management *****************************************/
    if ((tsrflags & CAN_TSR_RQCP1) != 0U)
 8002fee:	69bb      	ldr	r3, [r7, #24]
 8002ff0:	f403 7380 	and.w	r3, r3, #256	; 0x100
 8002ff4:	2b00      	cmp	r3, #0
 8002ff6:	d024      	beq.n	8003042 <HAL_CAN_IRQHandler+0xec>
    {
      /* Clear the Transmission Complete flag (and TXOK1,ALST1,TERR1 bits) */
      __HAL_CAN_CLEAR_FLAG(hcan, CAN_FLAG_RQCP1);
 8002ff8:	687b      	ldr	r3, [r7, #4]
 8002ffa:	681b      	ldr	r3, [r3, #0]
 8002ffc:	f44f 7280 	mov.w	r2, #256	; 0x100
 8003000:	609a      	str	r2, [r3, #8]

      if ((tsrflags & CAN_TSR_TXOK1) != 0U)
 8003002:	69bb      	ldr	r3, [r7, #24]
 8003004:	f403 7300 	and.w	r3, r3, #512	; 0x200
 8003008:	2b00      	cmp	r3, #0
 800300a:	d003      	beq.n	8003014 <HAL_CAN_IRQHandler+0xbe>
#if USE_HAL_CAN_REGISTER_CALLBACKS == 1
        /* Call registered callback*/
        hcan->TxMailbox1CompleteCallback(hcan);
#else
        /* Call weak (surcharged) callback */
        HAL_CAN_TxMailbox1CompleteCallback(hcan);
 800300c:	6878      	ldr	r0, [r7, #4]
 800300e:	f000 f95c 	bl	80032ca <HAL_CAN_TxMailbox1CompleteCallback>
 8003012:	e016      	b.n	8003042 <HAL_CAN_IRQHandler+0xec>
#endif /* USE_HAL_CAN_REGISTER_CALLBACKS */
      }
      else
      {
        if ((tsrflags & CAN_TSR_ALST1) != 0U)
 8003014:	69bb      	ldr	r3, [r7, #24]
 8003016:	f403 6380 	and.w	r3, r3, #1024	; 0x400
 800301a:	2b00      	cmp	r3, #0
 800301c:	d004      	beq.n	8003028 <HAL_CAN_IRQHandler+0xd2>
        {
          /* Update error code */
          errorcode |= HAL_CAN_ERROR_TX_ALST1;
 800301e:	6a7b      	ldr	r3, [r7, #36]	; 0x24
 8003020:	f443 5300 	orr.w	r3, r3, #8192	; 0x2000
 8003024:	627b      	str	r3, [r7, #36]	; 0x24
 8003026:	e00c      	b.n	8003042 <HAL_CAN_IRQHandler+0xec>
        }
        else if ((tsrflags & CAN_TSR_TERR1) != 0U)
 8003028:	69bb      	ldr	r3, [r7, #24]
 800302a:	f403 6300 	and.w	r3, r3, #2048	; 0x800
 800302e:	2b00      	cmp	r3, #0
 8003030:	d004      	beq.n	800303c <HAL_CAN_IRQHandler+0xe6>
        {
          /* Update error code */
          errorcode |= HAL_CAN_ERROR_TX_TERR1;
 8003032:	6a7b      	ldr	r3, [r7, #36]	; 0x24
 8003034:	f443 4380 	orr.w	r3, r3, #16384	; 0x4000
 8003038:	627b      	str	r3, [r7, #36]	; 0x24
 800303a:	e002      	b.n	8003042 <HAL_CAN_IRQHandler+0xec>
#if USE_HAL_CAN_REGISTER_CALLBACKS == 1
          /* Call registered callback*/
          hcan->TxMailbox1AbortCallback(hcan);
#else
          /* Call weak (surcharged) callback */
          HAL_CAN_TxMailbox1AbortCallback(hcan);
 800303c:	6878      	ldr	r0, [r7, #4]
 800303e:	f000 f95f 	bl	8003300 <HAL_CAN_TxMailbox1AbortCallback>
        }
      }
    }

    /* Transmit Mailbox 2 management *****************************************/
    if ((tsrflags & CAN_TSR_RQCP2) != 0U)
 8003042:	69bb      	ldr	r3, [r7, #24]
 8003044:	f403 3380 	and.w	r3, r3, #65536	; 0x10000
 8003048:	2b00      	cmp	r3, #0
 800304a:	d024      	beq.n	8003096 <HAL_CAN_IRQHandler+0x140>
    {
      /* Clear the Transmission Complete flag (and TXOK2,ALST2,TERR2 bits) */
      __HAL_CAN_CLEAR_FLAG(hcan, CAN_FLAG_RQCP2);
 800304c:	687b      	ldr	r3, [r7, #4]
 800304e:	681b      	ldr	r3, [r3, #0]
 8003050:	f44f 3280 	mov.w	r2, #65536	; 0x10000
 8003054:	609a      	str	r2, [r3, #8]

      if ((tsrflags & CAN_TSR_TXOK2) != 0U)
 8003056:	69bb      	ldr	r3, [r7, #24]
 8003058:	f403 3300 	and.w	r3, r3, #131072	; 0x20000
 800305c:	2b00      	cmp	r3, #0
 800305e:	d003      	beq.n	8003068 <HAL_CAN_IRQHandler+0x112>
#if USE_HAL_CAN_REGISTER_CALLBACKS == 1
        /* Call registered callback*/
        hcan->TxMailbox2CompleteCallback(hcan);
#else
        /* Call weak (surcharged) callback */
        HAL_CAN_TxMailbox2CompleteCallback(hcan);
 8003060:	6878      	ldr	r0, [r7, #4]
 8003062:	f000 f93b 	bl	80032dc <HAL_CAN_TxMailbox2CompleteCallback>
 8003066:	e016      	b.n	8003096 <HAL_CAN_IRQHandler+0x140>
#endif /* USE_HAL_CAN_REGISTER_CALLBACKS */
      }
      else
      {
        if ((tsrflags & CAN_TSR_ALST2) != 0U)
 8003068:	69bb      	ldr	r3, [r7, #24]
 800306a:	f403 2380 	and.w	r3, r3, #262144	; 0x40000
 800306e:	2b00      	cmp	r3, #0
 8003070:	d004      	beq.n	800307c <HAL_CAN_IRQHandler+0x126>
        {
          /* Update error code */
          errorcode |= HAL_CAN_ERROR_TX_ALST2;
 8003072:	6a7b      	ldr	r3, [r7, #36]	; 0x24
 8003074:	f443 4300 	orr.w	r3, r3, #32768	; 0x8000
 8003078:	627b      	str	r3, [r7, #36]	; 0x24
 800307a:	e00c      	b.n	8003096 <HAL_CAN_IRQHandler+0x140>
        }
        else if ((tsrflags & CAN_TSR_TERR2) != 0U)
 800307c:	69bb      	ldr	r3, [r7, #24]
 800307e:	f403 2300 	and.w	r3, r3, #524288	; 0x80000
 8003082:	2b00      	cmp	r3, #0
 8003084:	d004      	beq.n	8003090 <HAL_CAN_IRQHandler+0x13a>
        {
          /* Update error code */
          errorcode |= HAL_CAN_ERROR_TX_TERR2;
 8003086:	6a7b      	ldr	r3, [r7, #36]	; 0x24
 8003088:	f443 3380 	orr.w	r3, r3, #65536	; 0x10000
 800308c:	627b      	str	r3, [r7, #36]	; 0x24
 800308e:	e002      	b.n	8003096 <HAL_CAN_IRQHandler+0x140>
#if USE_HAL_CAN_REGISTER_CALLBACKS == 1
          /* Call registered callback*/
          hcan->TxMailbox2AbortCallback(hcan);
#else
          /* Call weak (surcharged) callback */
          HAL_CAN_TxMailbox2AbortCallback(hcan);
 8003090:	6878      	ldr	r0, [r7, #4]
 8003092:	f000 f93e 	bl	8003312 <HAL_CAN_TxMailbox2AbortCallback>
      }
    }
  }

  /* Receive FIFO 0 overrun interrupt management *****************************/
  if ((interrupts & CAN_IT_RX_FIFO0_OVERRUN) != 0U)
 8003096:	6a3b      	ldr	r3, [r7, #32]
 8003098:	f003 0308 	and.w	r3, r3, #8
 800309c:	2b00      	cmp	r3, #0
 800309e:	d00c      	beq.n	80030ba <HAL_CAN_IRQHandler+0x164>
  {
    if ((rf0rflags & CAN_RF0R_FOVR0) != 0U)
 80030a0:	697b      	ldr	r3, [r7, #20]
 80030a2:	f003 0310 	and.w	r3, r3, #16
 80030a6:	2b00      	cmp	r3, #0
 80030a8:	d007      	beq.n	80030ba <HAL_CAN_IRQHandler+0x164>
    {
      /* Set CAN error code to Rx Fifo 0 overrun error */
      errorcode |= HAL_CAN_ERROR_RX_FOV0;
 80030aa:	6a7b      	ldr	r3, [r7, #36]	; 0x24
 80030ac:	f443 7300 	orr.w	r3, r3, #512	; 0x200
 80030b0:	627b      	str	r3, [r7, #36]	; 0x24

      /* Clear FIFO0 Overrun Flag */
      __HAL_CAN_CLEAR_FLAG(hcan, CAN_FLAG_FOV0);
 80030b2:	687b      	ldr	r3, [r7, #4]
 80030b4:	681b      	ldr	r3, [r3, #0]
 80030b6:	2210      	movs	r2, #16
 80030b8:	60da      	str	r2, [r3, #12]
    }
  }

  /* Receive FIFO 0 full interrupt management ********************************/
  if ((interrupts & CAN_IT_RX_FIFO0_FULL) != 0U)
 80030ba:	6a3b      	ldr	r3, [r7, #32]
 80030bc:	f003 0304 	and.w	r3, r3, #4
 80030c0:	2b00      	cmp	r3, #0
 80030c2:	d00b      	beq.n	80030dc <HAL_CAN_IRQHandler+0x186>
  {
    if ((rf0rflags & CAN_RF0R_FULL0) != 0U)
 80030c4:	697b      	ldr	r3, [r7, #20]
 80030c6:	f003 0308 	and.w	r3, r3, #8
 80030ca:	2b00      	cmp	r3, #0
 80030cc:	d006      	beq.n	80030dc <HAL_CAN_IRQHandler+0x186>
    {
      /* Clear FIFO 0 full Flag */
      __HAL_CAN_CLEAR_FLAG(hcan, CAN_FLAG_FF0);
 80030ce:	687b      	ldr	r3, [r7, #4]
 80030d0:	681b      	ldr	r3, [r3, #0]
 80030d2:	2208      	movs	r2, #8
 80030d4:	60da      	str	r2, [r3, #12]
#if USE_HAL_CAN_REGISTER_CALLBACKS == 1
      /* Call registered callback*/
      hcan->RxFifo0FullCallback(hcan);
#else
      /* Call weak (surcharged) callback */
      HAL_CAN_RxFifo0FullCallback(hcan);
 80030d6:	6878      	ldr	r0, [r7, #4]
 80030d8:	f000 f92d 	bl	8003336 <HAL_CAN_RxFifo0FullCallback>
#endif /* USE_HAL_CAN_REGISTER_CALLBACKS */
    }
  }

  /* Receive FIFO 0 message pending interrupt management *********************/
  if ((interrupts & CAN_IT_RX_FIFO0_MSG_PENDING) != 0U)
 80030dc:	6a3b      	ldr	r3, [r7, #32]
 80030de:	f003 0302 	and.w	r3, r3, #2
 80030e2:	2b00      	cmp	r3, #0
 80030e4:	d009      	beq.n	80030fa <HAL_CAN_IRQHandler+0x1a4>
  {
    /* Check if message is still pending */
    if ((hcan->Instance->RF0R & CAN_RF0R_FMP0) != 0U)
 80030e6:	687b      	ldr	r3, [r7, #4]
 80030e8:	681b      	ldr	r3, [r3, #0]
 80030ea:	68db      	ldr	r3, [r3, #12]
 80030ec:	f003 0303 	and.w	r3, r3, #3
 80030f0:	2b00      	cmp	r3, #0
 80030f2:	d002      	beq.n	80030fa <HAL_CAN_IRQHandler+0x1a4>
#if USE_HAL_CAN_REGISTER_CALLBACKS == 1
      /* Call registered callback*/
      hcan->RxFifo0MsgPendingCallback(hcan);
#else
      /* Call weak (surcharged) callback */
      HAL_CAN_RxFifo0MsgPendingCallback(hcan);
 80030f4:	6878      	ldr	r0, [r7, #4]
 80030f6:	f000 f915 	bl	8003324 <HAL_CAN_RxFifo0MsgPendingCallback>
#endif /* USE_HAL_CAN_REGISTER_CALLBACKS */
    }
  }

  /* Receive FIFO 1 overrun interrupt management *****************************/
  if ((interrupts & CAN_IT_RX_FIFO1_OVERRUN) != 0U)
 80030fa:	6a3b      	ldr	r3, [r7, #32]
 80030fc:	f003 0340 	and.w	r3, r3, #64	; 0x40
 8003100:	2b00      	cmp	r3, #0
 8003102:	d00c      	beq.n	800311e <HAL_CAN_IRQHandler+0x1c8>
  {
    if ((rf1rflags & CAN_RF1R_FOVR1) != 0U)
 8003104:	693b      	ldr	r3, [r7, #16]
 8003106:	f003 0310 	and.w	r3, r3, #16
 800310a:	2b00      	cmp	r3, #0
 800310c:	d007      	beq.n	800311e <HAL_CAN_IRQHandler+0x1c8>
    {
      /* Set CAN error code to Rx Fifo 1 overrun error */
      errorcode |= HAL_CAN_ERROR_RX_FOV1;
 800310e:	6a7b      	ldr	r3, [r7, #36]	; 0x24
 8003110:	f443 6380 	orr.w	r3, r3, #1024	; 0x400
 8003114:	627b      	str	r3, [r7, #36]	; 0x24

      /* Clear FIFO1 Overrun Flag */
      __HAL_CAN_CLEAR_FLAG(hcan, CAN_FLAG_FOV1);
 8003116:	687b      	ldr	r3, [r7, #4]
 8003118:	681b      	ldr	r3, [r3, #0]
 800311a:	2210      	movs	r2, #16
 800311c:	611a      	str	r2, [r3, #16]
    }
  }

  /* Receive FIFO 1 full interrupt management ********************************/
  if ((interrupts & CAN_IT_RX_FIFO1_FULL) != 0U)
 800311e:	6a3b      	ldr	r3, [r7, #32]
 8003120:	f003 0320 	and.w	r3, r3, #32
 8003124:	2b00      	cmp	r3, #0
 8003126:	d00b      	beq.n	8003140 <HAL_CAN_IRQHandler+0x1ea>
  {
    if ((rf1rflags & CAN_RF1R_FULL1) != 0U)
 8003128:	693b      	ldr	r3, [r7, #16]
 800312a:	f003 0308 	and.w	r3, r3, #8
 800312e:	2b00      	cmp	r3, #0
 8003130:	d006      	beq.n	8003140 <HAL_CAN_IRQHandler+0x1ea>
    {
      /* Clear FIFO 1 full Flag */
      __HAL_CAN_CLEAR_FLAG(hcan, CAN_FLAG_FF1);
 8003132:	687b      	ldr	r3, [r7, #4]
 8003134:	681b      	ldr	r3, [r3, #0]
 8003136:	2208      	movs	r2, #8
 8003138:	611a      	str	r2, [r3, #16]
#if USE_HAL_CAN_REGISTER_CALLBACKS == 1
      /* Call registered callback*/
      hcan->RxFifo1FullCallback(hcan);
#else
      /* Call weak (surcharged) callback */
      HAL_CAN_RxFifo1FullCallback(hcan);
 800313a:	6878      	ldr	r0, [r7, #4]
 800313c:	f000 f90d 	bl	800335a <HAL_CAN_RxFifo1FullCallback>
#endif /* USE_HAL_CAN_REGISTER_CALLBACKS */
    }
  }

  /* Receive FIFO 1 message pending interrupt management *********************/
  if ((interrupts & CAN_IT_RX_FIFO1_MSG_PENDING) != 0U)
 8003140:	6a3b      	ldr	r3, [r7, #32]
 8003142:	f003 0310 	and.w	r3, r3, #16
 8003146:	2b00      	cmp	r3, #0
 8003148:	d009      	beq.n	800315e <HAL_CAN_IRQHandler+0x208>
  {
    /* Check if message is still pending */
    if ((hcan->Instance->RF1R & CAN_RF1R_FMP1) != 0U)
 800314a:	687b      	ldr	r3, [r7, #4]
 800314c:	681b      	ldr	r3, [r3, #0]
 800314e:	691b      	ldr	r3, [r3, #16]
 8003150:	f003 0303 	and.w	r3, r3, #3
 8003154:	2b00      	cmp	r3, #0
 8003156:	d002      	beq.n	800315e <HAL_CAN_IRQHandler+0x208>
#if USE_HAL_CAN_REGISTER_CALLBACKS == 1
      /* Call registered callback*/
      hcan->RxFifo1MsgPendingCallback(hcan);
#else
      /* Call weak (surcharged) callback */
      HAL_CAN_RxFifo1MsgPendingCallback(hcan);
 8003158:	6878      	ldr	r0, [r7, #4]
 800315a:	f000 f8f5 	bl	8003348 <HAL_CAN_RxFifo1MsgPendingCallback>
#endif /* USE_HAL_CAN_REGISTER_CALLBACKS */
    }
  }

  /* Sleep interrupt management *********************************************/
  if ((interrupts & CAN_IT_SLEEP_ACK) != 0U)
 800315e:	6a3b      	ldr	r3, [r7, #32]
 8003160:	f403 3300 	and.w	r3, r3, #131072	; 0x20000
 8003164:	2b00      	cmp	r3, #0
 8003166:	d00b      	beq.n	8003180 <HAL_CAN_IRQHandler+0x22a>
  {
    if ((msrflags & CAN_MSR_SLAKI) != 0U)
 8003168:	69fb      	ldr	r3, [r7, #28]
 800316a:	f003 0310 	and.w	r3, r3, #16
 800316e:	2b00      	cmp	r3, #0
 8003170:	d006      	beq.n	8003180 <HAL_CAN_IRQHandler+0x22a>
    {
      /* Clear Sleep interrupt Flag */
      __HAL_CAN_CLEAR_FLAG(hcan, CAN_FLAG_SLAKI);
 8003172:	687b      	ldr	r3, [r7, #4]
 8003174:	681b      	ldr	r3, [r3, #0]
 8003176:	2210      	movs	r2, #16
 8003178:	605a      	str	r2, [r3, #4]
#if USE_HAL_CAN_REGISTER_CALLBACKS == 1
      /* Call registered callback*/
      hcan->SleepCallback(hcan);
#else
      /* Call weak (surcharged) callback */
      HAL_CAN_SleepCallback(hcan);
 800317a:	6878      	ldr	r0, [r7, #4]
 800317c:	f000 f8f6 	bl	800336c <HAL_CAN_SleepCallback>
#endif /* USE_HAL_CAN_REGISTER_CALLBACKS */
    }
  }

  /* WakeUp interrupt management *********************************************/
  if ((interrupts & CAN_IT_WAKEUP) != 0U)
 8003180:	6a3b      	ldr	r3, [r7, #32]
 8003182:	f403 3380 	and.w	r3, r3, #65536	; 0x10000
 8003186:	2b00      	cmp	r3, #0
 8003188:	d00b      	beq.n	80031a2 <HAL_CAN_IRQHandler+0x24c>
  {
    if ((msrflags & CAN_MSR_WKUI) != 0U)
 800318a:	69fb      	ldr	r3, [r7, #28]
 800318c:	f003 0308 	and.w	r3, r3, #8
 8003190:	2b00      	cmp	r3, #0
 8003192:	d006      	beq.n	80031a2 <HAL_CAN_IRQHandler+0x24c>
    {
      /* Clear WakeUp Flag */
      __HAL_CAN_CLEAR_FLAG(hcan, CAN_FLAG_WKU);
 8003194:	687b      	ldr	r3, [r7, #4]
 8003196:	681b      	ldr	r3, [r3, #0]
 8003198:	2208      	movs	r2, #8
 800319a:	605a      	str	r2, [r3, #4]
#if USE_HAL_CAN_REGISTER_CALLBACKS == 1
      /* Call registered callback*/
      hcan->WakeUpFromRxMsgCallback(hcan);
#else
      /* Call weak (surcharged) callback */
      HAL_CAN_WakeUpFromRxMsgCallback(hcan);
 800319c:	6878      	ldr	r0, [r7, #4]
 800319e:	f000 f8ee 	bl	800337e <HAL_CAN_WakeUpFromRxMsgCallback>
#endif /* USE_HAL_CAN_REGISTER_CALLBACKS */
    }
  }

  /* Error interrupts management *********************************************/
  if ((interrupts & CAN_IT_ERROR) != 0U)
 80031a2:	6a3b      	ldr	r3, [r7, #32]
 80031a4:	f403 4300 	and.w	r3, r3, #32768	; 0x8000
 80031a8:	2b00      	cmp	r3, #0
 80031aa:	d075      	beq.n	8003298 <HAL_CAN_IRQHandler+0x342>
  {
    if ((msrflags & CAN_MSR_ERRI) != 0U)
 80031ac:	69fb      	ldr	r3, [r7, #28]
 80031ae:	f003 0304 	and.w	r3, r3, #4
 80031b2:	2b00      	cmp	r3, #0
 80031b4:	d06c      	beq.n	8003290 <HAL_CAN_IRQHandler+0x33a>
    {
      /* Check Error Warning Flag */
      if (((interrupts & CAN_IT_ERROR_WARNING) != 0U) &&
 80031b6:	6a3b      	ldr	r3, [r7, #32]
 80031b8:	f403 7380 	and.w	r3, r3, #256	; 0x100
 80031bc:	2b00      	cmp	r3, #0
 80031be:	d008      	beq.n	80031d2 <HAL_CAN_IRQHandler+0x27c>
          ((esrflags & CAN_ESR_EWGF) != 0U))
 80031c0:	68fb      	ldr	r3, [r7, #12]
 80031c2:	f003 0301 	and.w	r3, r3, #1
      if (((interrupts & CAN_IT_ERROR_WARNING) != 0U) &&
 80031c6:	2b00      	cmp	r3, #0
 80031c8:	d003      	beq.n	80031d2 <HAL_CAN_IRQHandler+0x27c>
      {
        /* Set CAN error code to Error Warning */
        errorcode |= HAL_CAN_ERROR_EWG;
 80031ca:	6a7b      	ldr	r3, [r7, #36]	; 0x24
 80031cc:	f043 0301 	orr.w	r3, r3, #1
 80031d0:	627b      	str	r3, [r7, #36]	; 0x24

        /* No need for clear of Error Warning Flag as read-only */
      }

      /* Check Error Passive Flag */
      if (((interrupts & CAN_IT_ERROR_PASSIVE) != 0U) &&
 80031d2:	6a3b      	ldr	r3, [r7, #32]
 80031d4:	f403 7300 	and.w	r3, r3, #512	; 0x200
 80031d8:	2b00      	cmp	r3, #0
 80031da:	d008      	beq.n	80031ee <HAL_CAN_IRQHandler+0x298>
          ((esrflags & CAN_ESR_EPVF) != 0U))
 80031dc:	68fb      	ldr	r3, [r7, #12]
 80031de:	f003 0302 	and.w	r3, r3, #2
      if (((interrupts & CAN_IT_ERROR_PASSIVE) != 0U) &&
 80031e2:	2b00      	cmp	r3, #0
 80031e4:	d003      	beq.n	80031ee <HAL_CAN_IRQHandler+0x298>
      {
        /* Set CAN error code to Error Passive */
        errorcode |= HAL_CAN_ERROR_EPV;
 80031e6:	6a7b      	ldr	r3, [r7, #36]	; 0x24
 80031e8:	f043 0302 	orr.w	r3, r3, #2
 80031ec:	627b      	str	r3, [r7, #36]	; 0x24

        /* No need for clear of Error Passive Flag as read-only */
      }

      /* Check Bus-off Flag */
      if (((interrupts & CAN_IT_BUSOFF) != 0U) &&
 80031ee:	6a3b      	ldr	r3, [r7, #32]
 80031f0:	f403 6380 	and.w	r3, r3, #1024	; 0x400
 80031f4:	2b00      	cmp	r3, #0
 80031f6:	d008      	beq.n	800320a <HAL_CAN_IRQHandler+0x2b4>
          ((esrflags & CAN_ESR_BOFF) != 0U))
 80031f8:	68fb      	ldr	r3, [r7, #12]
 80031fa:	f003 0304 	and.w	r3, r3, #4
      if (((interrupts & CAN_IT_BUSOFF) != 0U) &&
 80031fe:	2b00      	cmp	r3, #0
 8003200:	d003      	beq.n	800320a <HAL_CAN_IRQHandler+0x2b4>
      {
        /* Set CAN error code to Bus-Off */
        errorcode |= HAL_CAN_ERROR_BOF;
 8003202:	6a7b      	ldr	r3, [r7, #36]	; 0x24
 8003204:	f043 0304 	orr.w	r3, r3, #4
 8003208:	627b      	str	r3, [r7, #36]	; 0x24

        /* No need for clear of Error Bus-Off as read-only */
      }

      /* Check Last Error Code Flag */
      if (((interrupts & CAN_IT_LAST_ERROR_CODE) != 0U) &&
 800320a:	6a3b      	ldr	r3, [r7, #32]
 800320c:	f403 6300 	and.w	r3, r3, #2048	; 0x800
 8003210:	2b00      	cmp	r3, #0
 8003212:	d03d      	beq.n	8003290 <HAL_CAN_IRQHandler+0x33a>
          ((esrflags & CAN_ESR_LEC) != 0U))
 8003214:	68fb      	ldr	r3, [r7, #12]
 8003216:	f003 0370 	and.w	r3, r3, #112	; 0x70
      if (((interrupts & CAN_IT_LAST_ERROR_CODE) != 0U) &&
 800321a:	2b00      	cmp	r3, #0
 800321c:	d038      	beq.n	8003290 <HAL_CAN_IRQHandler+0x33a>
      {
        switch (esrflags & CAN_ESR_LEC)
 800321e:	68fb      	ldr	r3, [r7, #12]
 8003220:	f003 0370 	and.w	r3, r3, #112	; 0x70
 8003224:	2b30      	cmp	r3, #48	; 0x30
 8003226:	d017      	beq.n	8003258 <HAL_CAN_IRQHandler+0x302>
 8003228:	2b30      	cmp	r3, #48	; 0x30
 800322a:	d804      	bhi.n	8003236 <HAL_CAN_IRQHandler+0x2e0>
 800322c:	2b10      	cmp	r3, #16
 800322e:	d009      	beq.n	8003244 <HAL_CAN_IRQHandler+0x2ee>
 8003230:	2b20      	cmp	r3, #32
 8003232:	d00c      	beq.n	800324e <HAL_CAN_IRQHandler+0x2f8>
          case (CAN_ESR_LEC_2 | CAN_ESR_LEC_1):
            /* Set CAN error code to CRC error */
            errorcode |= HAL_CAN_ERROR_CRC;
            break;
          default:
            break;
 8003234:	e024      	b.n	8003280 <HAL_CAN_IRQHandler+0x32a>
        switch (esrflags & CAN_ESR_LEC)
 8003236:	2b50      	cmp	r3, #80	; 0x50
 8003238:	d018      	beq.n	800326c <HAL_CAN_IRQHandler+0x316>
 800323a:	2b60      	cmp	r3, #96	; 0x60
 800323c:	d01b      	beq.n	8003276 <HAL_CAN_IRQHandler+0x320>
 800323e:	2b40      	cmp	r3, #64	; 0x40
 8003240:	d00f      	beq.n	8003262 <HAL_CAN_IRQHandler+0x30c>
            break;
 8003242:	e01d      	b.n	8003280 <HAL_CAN_IRQHandler+0x32a>
            errorcode |= HAL_CAN_ERROR_STF;
 8003244:	6a7b      	ldr	r3, [r7, #36]	; 0x24
 8003246:	f043 0308 	orr.w	r3, r3, #8
 800324a:	627b      	str	r3, [r7, #36]	; 0x24
            break;
 800324c:	e018      	b.n	8003280 <HAL_CAN_IRQHandler+0x32a>
            errorcode |= HAL_CAN_ERROR_FOR;
 800324e:	6a7b      	ldr	r3, [r7, #36]	; 0x24
 8003250:	f043 0310 	orr.w	r3, r3, #16
 8003254:	627b      	str	r3, [r7, #36]	; 0x24
            break;
 8003256:	e013      	b.n	8003280 <HAL_CAN_IRQHandler+0x32a>
            errorcode |= HAL_CAN_ERROR_ACK;
 8003258:	6a7b      	ldr	r3, [r7, #36]	; 0x24
 800325a:	f043 0320 	orr.w	r3, r3, #32
 800325e:	627b      	str	r3, [r7, #36]	; 0x24
            break;
 8003260:	e00e      	b.n	8003280 <HAL_CAN_IRQHandler+0x32a>
            errorcode |= HAL_CAN_ERROR_BR;
 8003262:	6a7b      	ldr	r3, [r7, #36]	; 0x24
 8003264:	f043 0340 	orr.w	r3, r3, #64	; 0x40
 8003268:	627b      	str	r3, [r7, #36]	; 0x24
            break;
 800326a:	e009      	b.n	8003280 <HAL_CAN_IRQHandler+0x32a>
            errorcode |= HAL_CAN_ERROR_BD;
 800326c:	6a7b      	ldr	r3, [r7, #36]	; 0x24
 800326e:	f043 0380 	orr.w	r3, r3, #128	; 0x80
 8003272:	627b      	str	r3, [r7, #36]	; 0x24
            break;
 8003274:	e004      	b.n	8003280 <HAL_CAN_IRQHandler+0x32a>
            errorcode |= HAL_CAN_ERROR_CRC;
 8003276:	6a7b      	ldr	r3, [r7, #36]	; 0x24
 8003278:	f443 7380 	orr.w	r3, r3, #256	; 0x100
 800327c:	627b      	str	r3, [r7, #36]	; 0x24
            break;
 800327e:	bf00      	nop
        }

        /* Clear Last error code Flag */
        CLEAR_BIT(hcan->Instance->ESR, CAN_ESR_LEC);
 8003280:	687b      	ldr	r3, [r7, #4]
 8003282:	681b      	ldr	r3, [r3, #0]
 8003284:	699a      	ldr	r2, [r3, #24]
 8003286:	687b      	ldr	r3, [r7, #4]
 8003288:	681b      	ldr	r3, [r3, #0]
 800328a:	f022 0270 	bic.w	r2, r2, #112	; 0x70
 800328e:	619a      	str	r2, [r3, #24]
      }
    }

    /* Clear ERRI Flag */
    __HAL_CAN_CLEAR_FLAG(hcan, CAN_FLAG_ERRI);
 8003290:	687b      	ldr	r3, [r7, #4]
 8003292:	681b      	ldr	r3, [r3, #0]
 8003294:	2204      	movs	r2, #4
 8003296:	605a      	str	r2, [r3, #4]
  }

  /* Call the Error call Back in case of Errors */
  if (errorcode != HAL_CAN_ERROR_NONE)
 8003298:	6a7b      	ldr	r3, [r7, #36]	; 0x24
 800329a:	2b00      	cmp	r3, #0
 800329c:	d008      	beq.n	80032b0 <HAL_CAN_IRQHandler+0x35a>
  {
    /* Update error code in handle */
    hcan->ErrorCode |= errorcode;
 800329e:	687b      	ldr	r3, [r7, #4]
 80032a0:	6a5a      	ldr	r2, [r3, #36]	; 0x24
 80032a2:	6a7b      	ldr	r3, [r7, #36]	; 0x24
 80032a4:	431a      	orrs	r2, r3
 80032a6:	687b      	ldr	r3, [r7, #4]
 80032a8:	625a      	str	r2, [r3, #36]	; 0x24
#if USE_HAL_CAN_REGISTER_CALLBACKS == 1
    /* Call registered callback*/
    hcan->ErrorCallback(hcan);
#else
    /* Call weak (surcharged) callback */
    HAL_CAN_ErrorCallback(hcan);
 80032aa:	6878      	ldr	r0, [r7, #4]
 80032ac:	f000 f870 	bl	8003390 <HAL_CAN_ErrorCallback>
#endif /* USE_HAL_CAN_REGISTER_CALLBACKS */
  }
}
 80032b0:	bf00      	nop
 80032b2:	3728      	adds	r7, #40	; 0x28
 80032b4:	46bd      	mov	sp, r7
 80032b6:	bd80      	pop	{r7, pc}

080032b8 <HAL_CAN_TxMailbox0CompleteCallback>:
  * @param  hcan pointer to a CAN_HandleTypeDef structure that contains
  *         the configuration information for the specified CAN.
  * @retval None
  */
__weak void HAL_CAN_TxMailbox0CompleteCallback(CAN_HandleTypeDef *hcan)
{
 80032b8:	b480      	push	{r7}
 80032ba:	b083      	sub	sp, #12
 80032bc:	af00      	add	r7, sp, #0
 80032be:	6078      	str	r0, [r7, #4]

  /* NOTE : This function Should not be modified, when the callback is needed,
            the HAL_CAN_TxMailbox0CompleteCallback could be implemented in the
            user file
   */
}
 80032c0:	bf00      	nop
 80032c2:	370c      	adds	r7, #12
 80032c4:	46bd      	mov	sp, r7
 80032c6:	bc80      	pop	{r7}
 80032c8:	4770      	bx	lr

080032ca <HAL_CAN_TxMailbox1CompleteCallback>:
  * @param  hcan pointer to a CAN_HandleTypeDef structure that contains
  *         the configuration information for the specified CAN.
  * @retval None
  */
__weak void HAL_CAN_TxMailbox1CompleteCallback(CAN_HandleTypeDef *hcan)
{
 80032ca:	b480      	push	{r7}
 80032cc:	b083      	sub	sp, #12
 80032ce:	af00      	add	r7, sp, #0
 80032d0:	6078      	str	r0, [r7, #4]

  /* NOTE : This function Should not be modified, when the callback is needed,
            the HAL_CAN_TxMailbox1CompleteCallback could be implemented in the
            user file
   */
}
 80032d2:	bf00      	nop
 80032d4:	370c      	adds	r7, #12
 80032d6:	46bd      	mov	sp, r7
 80032d8:	bc80      	pop	{r7}
 80032da:	4770      	bx	lr

080032dc <HAL_CAN_TxMailbox2CompleteCallback>:
  * @param  hcan pointer to a CAN_HandleTypeDef structure that contains
  *         the configuration information for the specified CAN.
  * @retval None
  */
__weak void HAL_CAN_TxMailbox2CompleteCallback(CAN_HandleTypeDef *hcan)
{
 80032dc:	b480      	push	{r7}
 80032de:	b083      	sub	sp, #12
 80032e0:	af00      	add	r7, sp, #0
 80032e2:	6078      	str	r0, [r7, #4]

  /* NOTE : This function Should not be modified, when the callback is needed,
            the HAL_CAN_TxMailbox2CompleteCallback could be implemented in the
            user file
   */
}
 80032e4:	bf00      	nop
 80032e6:	370c      	adds	r7, #12
 80032e8:	46bd      	mov	sp, r7
 80032ea:	bc80      	pop	{r7}
 80032ec:	4770      	bx	lr

080032ee <HAL_CAN_TxMailbox0AbortCallback>:
  * @param  hcan pointer to an CAN_HandleTypeDef structure that contains
  *         the configuration information for the specified CAN.
  * @retval None
  */
__weak void HAL_CAN_TxMailbox0AbortCallback(CAN_HandleTypeDef *hcan)
{
 80032ee:	b480      	push	{r7}
 80032f0:	b083      	sub	sp, #12
 80032f2:	af00      	add	r7, sp, #0
 80032f4:	6078      	str	r0, [r7, #4]

  /* NOTE : This function Should not be modified, when the callback is needed,
            the HAL_CAN_TxMailbox0AbortCallback could be implemented in the
            user file
   */
}
 80032f6:	bf00      	nop
 80032f8:	370c      	adds	r7, #12
 80032fa:	46bd      	mov	sp, r7
 80032fc:	bc80      	pop	{r7}
 80032fe:	4770      	bx	lr

08003300 <HAL_CAN_TxMailbox1AbortCallback>:
  * @param  hcan pointer to an CAN_HandleTypeDef structure that contains
  *         the configuration information for the specified CAN.
  * @retval None
  */
__weak void HAL_CAN_TxMailbox1AbortCallback(CAN_HandleTypeDef *hcan)
{
 8003300:	b480      	push	{r7}
 8003302:	b083      	sub	sp, #12
 8003304:	af00      	add	r7, sp, #0
 8003306:	6078      	str	r0, [r7, #4]

  /* NOTE : This function Should not be modified, when the callback is needed,
            the HAL_CAN_TxMailbox1AbortCallback could be implemented in the
            user file
   */
}
 8003308:	bf00      	nop
 800330a:	370c      	adds	r7, #12
 800330c:	46bd      	mov	sp, r7
 800330e:	bc80      	pop	{r7}
 8003310:	4770      	bx	lr

08003312 <HAL_CAN_TxMailbox2AbortCallback>:
  * @param  hcan pointer to an CAN_HandleTypeDef structure that contains
  *         the configuration information for the specified CAN.
  * @retval None
  */
__weak void HAL_CAN_TxMailbox2AbortCallback(CAN_HandleTypeDef *hcan)
{
 8003312:	b480      	push	{r7}
 8003314:	b083      	sub	sp, #12
 8003316:	af00      	add	r7, sp, #0
 8003318:	6078      	str	r0, [r7, #4]

  /* NOTE : This function Should not be modified, when the callback is needed,
            the HAL_CAN_TxMailbox2AbortCallback could be implemented in the
            user file
   */
}
 800331a:	bf00      	nop
 800331c:	370c      	adds	r7, #12
 800331e:	46bd      	mov	sp, r7
 8003320:	bc80      	pop	{r7}
 8003322:	4770      	bx	lr

08003324 <HAL_CAN_RxFifo0MsgPendingCallback>:
  * @param  hcan pointer to a CAN_HandleTypeDef structure that contains
  *         the configuration information for the specified CAN.
  * @retval None
  */
__weak void HAL_CAN_RxFifo0MsgPendingCallback(CAN_HandleTypeDef *hcan)
{
 8003324:	b480      	push	{r7}
 8003326:	b083      	sub	sp, #12
 8003328:	af00      	add	r7, sp, #0
 800332a:	6078      	str	r0, [r7, #4]

  /* NOTE : This function Should not be modified, when the callback is needed,
            the HAL_CAN_RxFifo0MsgPendingCallback could be implemented in the
            user file
   */
}
 800332c:	bf00      	nop
 800332e:	370c      	adds	r7, #12
 8003330:	46bd      	mov	sp, r7
 8003332:	bc80      	pop	{r7}
 8003334:	4770      	bx	lr

08003336 <HAL_CAN_RxFifo0FullCallback>:
  * @param  hcan pointer to a CAN_HandleTypeDef structure that contains
  *         the configuration information for the specified CAN.
  * @retval None
  */
__weak void HAL_CAN_RxFifo0FullCallback(CAN_HandleTypeDef *hcan)
{
 8003336:	b480      	push	{r7}
 8003338:	b083      	sub	sp, #12
 800333a:	af00      	add	r7, sp, #0
 800333c:	6078      	str	r0, [r7, #4]

  /* NOTE : This function Should not be modified, when the callback is needed,
            the HAL_CAN_RxFifo0FullCallback could be implemented in the user
            file
   */
}
 800333e:	bf00      	nop
 8003340:	370c      	adds	r7, #12
 8003342:	46bd      	mov	sp, r7
 8003344:	bc80      	pop	{r7}
 8003346:	4770      	bx	lr

08003348 <HAL_CAN_RxFifo1MsgPendingCallback>:
  * @param  hcan pointer to a CAN_HandleTypeDef structure that contains
  *         the configuration information for the specified CAN.
  * @retval None
  */
__weak void HAL_CAN_RxFifo1MsgPendingCallback(CAN_HandleTypeDef *hcan)
{
 8003348:	b480      	push	{r7}
 800334a:	b083      	sub	sp, #12
 800334c:	af00      	add	r7, sp, #0
 800334e:	6078      	str	r0, [r7, #4]

  /* NOTE : This function Should not be modified, when the callback is needed,
            the HAL_CAN_RxFifo1MsgPendingCallback could be implemented in the
            user file
   */
}
 8003350:	bf00      	nop
 8003352:	370c      	adds	r7, #12
 8003354:	46bd      	mov	sp, r7
 8003356:	bc80      	pop	{r7}
 8003358:	4770      	bx	lr

0800335a <HAL_CAN_RxFifo1FullCallback>:
  * @param  hcan pointer to a CAN_HandleTypeDef structure that contains
  *         the configuration information for the specified CAN.
  * @retval None
  */
__weak void HAL_CAN_RxFifo1FullCallback(CAN_HandleTypeDef *hcan)
{
 800335a:	b480      	push	{r7}
 800335c:	b083      	sub	sp, #12
 800335e:	af00      	add	r7, sp, #0
 8003360:	6078      	str	r0, [r7, #4]

  /* NOTE : This function Should not be modified, when the callback is needed,
            the HAL_CAN_RxFifo1FullCallback could be implemented in the user
            file
   */
}
 8003362:	bf00      	nop
 8003364:	370c      	adds	r7, #12
 8003366:	46bd      	mov	sp, r7
 8003368:	bc80      	pop	{r7}
 800336a:	4770      	bx	lr

0800336c <HAL_CAN_SleepCallback>:
  * @param  hcan pointer to a CAN_HandleTypeDef structure that contains
  *         the configuration information for the specified CAN.
  * @retval None
  */
__weak void HAL_CAN_SleepCallback(CAN_HandleTypeDef *hcan)
{
 800336c:	b480      	push	{r7}
 800336e:	b083      	sub	sp, #12
 8003370:	af00      	add	r7, sp, #0
 8003372:	6078      	str	r0, [r7, #4]
  UNUSED(hcan);

  /* NOTE : This function Should not be modified, when the callback is needed,
            the HAL_CAN_SleepCallback could be implemented in the user file
   */
}
 8003374:	bf00      	nop
 8003376:	370c      	adds	r7, #12
 8003378:	46bd      	mov	sp, r7
 800337a:	bc80      	pop	{r7}
 800337c:	4770      	bx	lr

0800337e <HAL_CAN_WakeUpFromRxMsgCallback>:
  * @param  hcan pointer to a CAN_HandleTypeDef structure that contains
  *         the configuration information for the specified CAN.
  * @retval None
  */
__weak void HAL_CAN_WakeUpFromRxMsgCallback(CAN_HandleTypeDef *hcan)
{
 800337e:	b480      	push	{r7}
 8003380:	b083      	sub	sp, #12
 8003382:	af00      	add	r7, sp, #0
 8003384:	6078      	str	r0, [r7, #4]

  /* NOTE : This function Should not be modified, when the callback is needed,
            the HAL_CAN_WakeUpFromRxMsgCallback could be implemented in the
            user file
   */
}
 8003386:	bf00      	nop
 8003388:	370c      	adds	r7, #12
 800338a:	46bd      	mov	sp, r7
 800338c:	bc80      	pop	{r7}
 800338e:	4770      	bx	lr

08003390 <HAL_CAN_ErrorCallback>:
  * @param  hcan pointer to a CAN_HandleTypeDef structure that contains
  *         the configuration information for the specified CAN.
  * @retval None
  */
__weak void HAL_CAN_ErrorCallback(CAN_HandleTypeDef *hcan)
{
 8003390:	b480      	push	{r7}
 8003392:	b083      	sub	sp, #12
 8003394:	af00      	add	r7, sp, #0
 8003396:	6078      	str	r0, [r7, #4]
  UNUSED(hcan);

  /* NOTE : This function Should not be modified, when the callback is needed,
            the HAL_CAN_ErrorCallback could be implemented in the user file
   */
}
 8003398:	bf00      	nop
 800339a:	370c      	adds	r7, #12
 800339c:	46bd      	mov	sp, r7
 800339e:	bc80      	pop	{r7}
 80033a0:	4770      	bx	lr
	...

080033a4 <__NVIC_SetPriorityGrouping>:
           In case of a conflict between priority grouping and available
           priority bits (__NVIC_PRIO_BITS), the smallest possible priority group is set.
  \param [in]      PriorityGroup  Priority grouping field.
 */
__STATIC_INLINE void __NVIC_SetPriorityGrouping(uint32_t PriorityGroup)
{
 80033a4:	b480      	push	{r7}
 80033a6:	b085      	sub	sp, #20
 80033a8:	af00      	add	r7, sp, #0
 80033aa:	6078      	str	r0, [r7, #4]
  uint32_t reg_value;
  uint32_t PriorityGroupTmp = (PriorityGroup & (uint32_t)0x07UL);             /* only values 0..7 are used          */
 80033ac:	687b      	ldr	r3, [r7, #4]
 80033ae:	f003 0307 	and.w	r3, r3, #7
 80033b2:	60fb      	str	r3, [r7, #12]

  reg_value  =  SCB->AIRCR;                                                   /* read old register configuration    */
 80033b4:	4b0c      	ldr	r3, [pc, #48]	; (80033e8 <__NVIC_SetPriorityGrouping+0x44>)
 80033b6:	68db      	ldr	r3, [r3, #12]
 80033b8:	60bb      	str	r3, [r7, #8]
  reg_value &= ~((uint32_t)(SCB_AIRCR_VECTKEY_Msk | SCB_AIRCR_PRIGROUP_Msk)); /* clear bits to change               */
 80033ba:	68ba      	ldr	r2, [r7, #8]
 80033bc:	f64f 03ff 	movw	r3, #63743	; 0xf8ff
 80033c0:	4013      	ands	r3, r2
 80033c2:	60bb      	str	r3, [r7, #8]
  reg_value  =  (reg_value                                   |
                ((uint32_t)0x5FAUL << SCB_AIRCR_VECTKEY_Pos) |
                (PriorityGroupTmp << SCB_AIRCR_PRIGROUP_Pos) );               /* Insert write key and priority group */
 80033c4:	68fb      	ldr	r3, [r7, #12]
 80033c6:	021a      	lsls	r2, r3, #8
                ((uint32_t)0x5FAUL << SCB_AIRCR_VECTKEY_Pos) |
 80033c8:	68bb      	ldr	r3, [r7, #8]
 80033ca:	4313      	orrs	r3, r2
  reg_value  =  (reg_value                                   |
 80033cc:	f043 63bf 	orr.w	r3, r3, #100139008	; 0x5f80000
 80033d0:	f443 3300 	orr.w	r3, r3, #131072	; 0x20000
 80033d4:	60bb      	str	r3, [r7, #8]
  SCB->AIRCR =  reg_value;
 80033d6:	4a04      	ldr	r2, [pc, #16]	; (80033e8 <__NVIC_SetPriorityGrouping+0x44>)
 80033d8:	68bb      	ldr	r3, [r7, #8]
 80033da:	60d3      	str	r3, [r2, #12]
}
 80033dc:	bf00      	nop
 80033de:	3714      	adds	r7, #20
 80033e0:	46bd      	mov	sp, r7
 80033e2:	bc80      	pop	{r7}
 80033e4:	4770      	bx	lr
 80033e6:	bf00      	nop
 80033e8:	e000ed00 	.word	0xe000ed00

080033ec <__NVIC_GetPriorityGrouping>:
  \brief   Get Priority Grouping
  \details Reads the priority grouping field from the NVIC Interrupt Controller.
  \return                Priority grouping field (SCB->AIRCR [10:8] PRIGROUP field).
 */
__STATIC_INLINE uint32_t __NVIC_GetPriorityGrouping(void)
{
 80033ec:	b480      	push	{r7}
 80033ee:	af00      	add	r7, sp, #0
  return ((uint32_t)((SCB->AIRCR & SCB_AIRCR_PRIGROUP_Msk) >> SCB_AIRCR_PRIGROUP_Pos));
 80033f0:	4b04      	ldr	r3, [pc, #16]	; (8003404 <__NVIC_GetPriorityGrouping+0x18>)
 80033f2:	68db      	ldr	r3, [r3, #12]
 80033f4:	0a1b      	lsrs	r3, r3, #8
 80033f6:	f003 0307 	and.w	r3, r3, #7
}
 80033fa:	4618      	mov	r0, r3
 80033fc:	46bd      	mov	sp, r7
 80033fe:	bc80      	pop	{r7}
 8003400:	4770      	bx	lr
 8003402:	bf00      	nop
 8003404:	e000ed00 	.word	0xe000ed00

08003408 <__NVIC_EnableIRQ>:
  \details Enables a device specific interrupt in the NVIC interrupt controller.
  \param [in]      IRQn  Device specific interrupt number.
  \note    IRQn must not be negative.
 */
__STATIC_INLINE void __NVIC_EnableIRQ(IRQn_Type IRQn)
{
 8003408:	b480      	push	{r7}
 800340a:	b083      	sub	sp, #12
 800340c:	af00      	add	r7, sp, #0
 800340e:	4603      	mov	r3, r0
 8003410:	71fb      	strb	r3, [r7, #7]
  if ((int32_t)(IRQn) >= 0)
 8003412:	f997 3007 	ldrsb.w	r3, [r7, #7]
 8003416:	2b00      	cmp	r3, #0
 8003418:	db0b      	blt.n	8003432 <__NVIC_EnableIRQ+0x2a>
  {
    NVIC->ISER[(((uint32_t)IRQn) >> 5UL)] = (uint32_t)(1UL << (((uint32_t)IRQn) & 0x1FUL));
 800341a:	79fb      	ldrb	r3, [r7, #7]
 800341c:	f003 021f 	and.w	r2, r3, #31
 8003420:	4906      	ldr	r1, [pc, #24]	; (800343c <__NVIC_EnableIRQ+0x34>)
 8003422:	f997 3007 	ldrsb.w	r3, [r7, #7]
 8003426:	095b      	lsrs	r3, r3, #5
 8003428:	2001      	movs	r0, #1
 800342a:	fa00 f202 	lsl.w	r2, r0, r2
 800342e:	f841 2023 	str.w	r2, [r1, r3, lsl #2]
  }
}
 8003432:	bf00      	nop
 8003434:	370c      	adds	r7, #12
 8003436:	46bd      	mov	sp, r7
 8003438:	bc80      	pop	{r7}
 800343a:	4770      	bx	lr
 800343c:	e000e100 	.word	0xe000e100

08003440 <__NVIC_SetPriority>:
  \param [in]      IRQn  Interrupt number.
  \param [in]  priority  Priority to set.
  \note    The priority cannot be set for every processor exception.
 */
__STATIC_INLINE void __NVIC_SetPriority(IRQn_Type IRQn, uint32_t priority)
{
 8003440:	b480      	push	{r7}
 8003442:	b083      	sub	sp, #12
 8003444:	af00      	add	r7, sp, #0
 8003446:	4603      	mov	r3, r0
 8003448:	6039      	str	r1, [r7, #0]
 800344a:	71fb      	strb	r3, [r7, #7]
  if ((int32_t)(IRQn) >= 0)
 800344c:	f997 3007 	ldrsb.w	r3, [r7, #7]
 8003450:	2b00      	cmp	r3, #0
 8003452:	db0a      	blt.n	800346a <__NVIC_SetPriority+0x2a>
  {
    NVIC->IP[((uint32_t)IRQn)]               = (uint8_t)((priority << (8U - __NVIC_PRIO_BITS)) & (uint32_t)0xFFUL);
 8003454:	683b      	ldr	r3, [r7, #0]
 8003456:	b2da      	uxtb	r2, r3
 8003458:	490c      	ldr	r1, [pc, #48]	; (800348c <__NVIC_SetPriority+0x4c>)
 800345a:	f997 3007 	ldrsb.w	r3, [r7, #7]
 800345e:	0112      	lsls	r2, r2, #4
 8003460:	b2d2      	uxtb	r2, r2
 8003462:	440b      	add	r3, r1
 8003464:	f883 2300 	strb.w	r2, [r3, #768]	; 0x300
  }
  else
  {
    SCB->SHP[(((uint32_t)IRQn) & 0xFUL)-4UL] = (uint8_t)((priority << (8U - __NVIC_PRIO_BITS)) & (uint32_t)0xFFUL);
  }
}
 8003468:	e00a      	b.n	8003480 <__NVIC_SetPriority+0x40>
    SCB->SHP[(((uint32_t)IRQn) & 0xFUL)-4UL] = (uint8_t)((priority << (8U - __NVIC_PRIO_BITS)) & (uint32_t)0xFFUL);
 800346a:	683b      	ldr	r3, [r7, #0]
 800346c:	b2da      	uxtb	r2, r3
 800346e:	4908      	ldr	r1, [pc, #32]	; (8003490 <__NVIC_SetPriority+0x50>)
 8003470:	79fb      	ldrb	r3, [r7, #7]
 8003472:	f003 030f 	and.w	r3, r3, #15
 8003476:	3b04      	subs	r3, #4
 8003478:	0112      	lsls	r2, r2, #4
 800347a:	b2d2      	uxtb	r2, r2
 800347c:	440b      	add	r3, r1
 800347e:	761a      	strb	r2, [r3, #24]
}
 8003480:	bf00      	nop
 8003482:	370c      	adds	r7, #12
 8003484:	46bd      	mov	sp, r7
 8003486:	bc80      	pop	{r7}
 8003488:	4770      	bx	lr
 800348a:	bf00      	nop
 800348c:	e000e100 	.word	0xe000e100
 8003490:	e000ed00 	.word	0xe000ed00

08003494 <NVIC_EncodePriority>:
  \param [in]   PreemptPriority  Preemptive priority value (starting from 0).
  \param [in]       SubPriority  Subpriority value (starting from 0).
  \return                        Encoded priority. Value can be used in the function \ref NVIC_SetPriority().
 */
__STATIC_INLINE uint32_t NVIC_EncodePriority (uint32_t PriorityGroup, uint32_t PreemptPriority, uint32_t SubPriority)
{
 8003494:	b480      	push	{r7}
 8003496:	b089      	sub	sp, #36	; 0x24
 8003498:	af00      	add	r7, sp, #0
 800349a:	60f8      	str	r0, [r7, #12]
 800349c:	60b9      	str	r1, [r7, #8]
 800349e:	607a      	str	r2, [r7, #4]
  uint32_t PriorityGroupTmp = (PriorityGroup & (uint32_t)0x07UL);   /* only values 0..7 are used          */
 80034a0:	68fb      	ldr	r3, [r7, #12]
 80034a2:	f003 0307 	and.w	r3, r3, #7
 80034a6:	61fb      	str	r3, [r7, #28]
  uint32_t PreemptPriorityBits;
  uint32_t SubPriorityBits;

  PreemptPriorityBits = ((7UL - PriorityGroupTmp) > (uint32_t)(__NVIC_PRIO_BITS)) ? (uint32_t)(__NVIC_PRIO_BITS) : (uint32_t)(7UL - PriorityGroupTmp);
 80034a8:	69fb      	ldr	r3, [r7, #28]
 80034aa:	f1c3 0307 	rsb	r3, r3, #7
 80034ae:	2b04      	cmp	r3, #4
 80034b0:	bf28      	it	cs
 80034b2:	2304      	movcs	r3, #4
 80034b4:	61bb      	str	r3, [r7, #24]
  SubPriorityBits     = ((PriorityGroupTmp + (uint32_t)(__NVIC_PRIO_BITS)) < (uint32_t)7UL) ? (uint32_t)0UL : (uint32_t)((PriorityGroupTmp - 7UL) + (uint32_t)(__NVIC_PRIO_BITS));
 80034b6:	69fb      	ldr	r3, [r7, #28]
 80034b8:	3304      	adds	r3, #4
 80034ba:	2b06      	cmp	r3, #6
 80034bc:	d902      	bls.n	80034c4 <NVIC_EncodePriority+0x30>
 80034be:	69fb      	ldr	r3, [r7, #28]
 80034c0:	3b03      	subs	r3, #3
 80034c2:	e000      	b.n	80034c6 <NVIC_EncodePriority+0x32>
 80034c4:	2300      	movs	r3, #0
 80034c6:	617b      	str	r3, [r7, #20]

  return (
           ((PreemptPriority & (uint32_t)((1UL << (PreemptPriorityBits)) - 1UL)) << SubPriorityBits) |
 80034c8:	f04f 32ff 	mov.w	r2, #4294967295
 80034cc:	69bb      	ldr	r3, [r7, #24]
 80034ce:	fa02 f303 	lsl.w	r3, r2, r3
 80034d2:	43da      	mvns	r2, r3
 80034d4:	68bb      	ldr	r3, [r7, #8]
 80034d6:	401a      	ands	r2, r3
 80034d8:	697b      	ldr	r3, [r7, #20]
 80034da:	409a      	lsls	r2, r3
           ((SubPriority     & (uint32_t)((1UL << (SubPriorityBits    )) - 1UL)))
 80034dc:	f04f 31ff 	mov.w	r1, #4294967295
 80034e0:	697b      	ldr	r3, [r7, #20]
 80034e2:	fa01 f303 	lsl.w	r3, r1, r3
 80034e6:	43d9      	mvns	r1, r3
 80034e8:	687b      	ldr	r3, [r7, #4]
 80034ea:	400b      	ands	r3, r1
           ((PreemptPriority & (uint32_t)((1UL << (PreemptPriorityBits)) - 1UL)) << SubPriorityBits) |
 80034ec:	4313      	orrs	r3, r2
         );
}
 80034ee:	4618      	mov	r0, r3
 80034f0:	3724      	adds	r7, #36	; 0x24
 80034f2:	46bd      	mov	sp, r7
 80034f4:	bc80      	pop	{r7}
 80034f6:	4770      	bx	lr

080034f8 <HAL_NVIC_SetPriorityGrouping>:
  * @note   When the NVIC_PriorityGroup_0 is selected, IRQ preemption is no more possible. 
  *         The pending IRQ priority will be managed only by the subpriority. 
  * @retval None
  */
void HAL_NVIC_SetPriorityGrouping(uint32_t PriorityGroup)
{
 80034f8:	b580      	push	{r7, lr}
 80034fa:	b082      	sub	sp, #8
 80034fc:	af00      	add	r7, sp, #0
 80034fe:	6078      	str	r0, [r7, #4]
  /* Check the parameters */
  assert_param(IS_NVIC_PRIORITY_GROUP(PriorityGroup));
  
  /* Set the PRIGROUP[10:8] bits according to the PriorityGroup parameter value */
  NVIC_SetPriorityGrouping(PriorityGroup);
 8003500:	6878      	ldr	r0, [r7, #4]
 8003502:	f7ff ff4f 	bl	80033a4 <__NVIC_SetPriorityGrouping>
}
 8003506:	bf00      	nop
 8003508:	3708      	adds	r7, #8
 800350a:	46bd      	mov	sp, r7
 800350c:	bd80      	pop	{r7, pc}

0800350e <HAL_NVIC_SetPriority>:
  *         This parameter can be a value between 0 and 15
  *         A lower priority value indicates a higher priority.          
  * @retval None
  */
void HAL_NVIC_SetPriority(IRQn_Type IRQn, uint32_t PreemptPriority, uint32_t SubPriority)
{ 
 800350e:	b580      	push	{r7, lr}
 8003510:	b086      	sub	sp, #24
 8003512:	af00      	add	r7, sp, #0
 8003514:	4603      	mov	r3, r0
 8003516:	60b9      	str	r1, [r7, #8]
 8003518:	607a      	str	r2, [r7, #4]
 800351a:	73fb      	strb	r3, [r7, #15]
  uint32_t prioritygroup = 0x00U;
 800351c:	2300      	movs	r3, #0
 800351e:	617b      	str	r3, [r7, #20]
  
  /* Check the parameters */
  assert_param(IS_NVIC_SUB_PRIORITY(SubPriority));
  assert_param(IS_NVIC_PREEMPTION_PRIORITY(PreemptPriority));
  
  prioritygroup = NVIC_GetPriorityGrouping();
 8003520:	f7ff ff64 	bl	80033ec <__NVIC_GetPriorityGrouping>
 8003524:	6178      	str	r0, [r7, #20]
  
  NVIC_SetPriority(IRQn, NVIC_EncodePriority(prioritygroup, PreemptPriority, SubPriority));
 8003526:	687a      	ldr	r2, [r7, #4]
 8003528:	68b9      	ldr	r1, [r7, #8]
 800352a:	6978      	ldr	r0, [r7, #20]
 800352c:	f7ff ffb2 	bl	8003494 <NVIC_EncodePriority>
 8003530:	4602      	mov	r2, r0
 8003532:	f997 300f 	ldrsb.w	r3, [r7, #15]
 8003536:	4611      	mov	r1, r2
 8003538:	4618      	mov	r0, r3
 800353a:	f7ff ff81 	bl	8003440 <__NVIC_SetPriority>
}
 800353e:	bf00      	nop
 8003540:	3718      	adds	r7, #24
 8003542:	46bd      	mov	sp, r7
 8003544:	bd80      	pop	{r7, pc}

08003546 <HAL_NVIC_EnableIRQ>:
  *         This parameter can be an enumerator of IRQn_Type enumeration
  *         (For the complete STM32 Devices IRQ Channels list, please refer to the appropriate CMSIS device file (stm32f10xxx.h))
  * @retval None
  */
void HAL_NVIC_EnableIRQ(IRQn_Type IRQn)
{
 8003546:	b580      	push	{r7, lr}
 8003548:	b082      	sub	sp, #8
 800354a:	af00      	add	r7, sp, #0
 800354c:	4603      	mov	r3, r0
 800354e:	71fb      	strb	r3, [r7, #7]
  /* Check the parameters */
  assert_param(IS_NVIC_DEVICE_IRQ(IRQn));

  /* Enable interrupt */
  NVIC_EnableIRQ(IRQn);
 8003550:	f997 3007 	ldrsb.w	r3, [r7, #7]
 8003554:	4618      	mov	r0, r3
 8003556:	f7ff ff57 	bl	8003408 <__NVIC_EnableIRQ>
}
 800355a:	bf00      	nop
 800355c:	3708      	adds	r7, #8
 800355e:	46bd      	mov	sp, r7
 8003560:	bd80      	pop	{r7, pc}
	...

08003564 <HAL_DMA_Init>:
  * @param  hdma: Pointer to a DMA_HandleTypeDef structure that contains
  *               the configuration information for the specified DMA Channel.
  * @retval HAL status
  */
HAL_StatusTypeDef HAL_DMA_Init(DMA_HandleTypeDef *hdma)
{
 8003564:	b480      	push	{r7}
 8003566:	b085      	sub	sp, #20
 8003568:	af00      	add	r7, sp, #0
 800356a:	6078      	str	r0, [r7, #4]
  uint32_t tmp = 0U;
 800356c:	2300      	movs	r3, #0
 800356e:	60fb      	str	r3, [r7, #12]

  /* Check the DMA handle allocation */
  if(hdma == NULL)
 8003570:	687b      	ldr	r3, [r7, #4]
 8003572:	2b00      	cmp	r3, #0
 8003574:	d101      	bne.n	800357a <HAL_DMA_Init+0x16>
  {
    return HAL_ERROR;
 8003576:	2301      	movs	r3, #1
 8003578:	e043      	b.n	8003602 <HAL_DMA_Init+0x9e>
    hdma->ChannelIndex = (((uint32_t)hdma->Instance - (uint32_t)DMA2_Channel1) / ((uint32_t)DMA2_Channel2 - (uint32_t)DMA2_Channel1)) << 2;
    hdma->DmaBaseAddress = DMA2;
  }
#else
  /* DMA1 */
  hdma->ChannelIndex = (((uint32_t)hdma->Instance - (uint32_t)DMA1_Channel1) / ((uint32_t)DMA1_Channel2 - (uint32_t)DMA1_Channel1)) << 2;
 800357a:	687b      	ldr	r3, [r7, #4]
 800357c:	681b      	ldr	r3, [r3, #0]
 800357e:	461a      	mov	r2, r3
 8003580:	4b22      	ldr	r3, [pc, #136]	; (800360c <HAL_DMA_Init+0xa8>)
 8003582:	4413      	add	r3, r2
 8003584:	4a22      	ldr	r2, [pc, #136]	; (8003610 <HAL_DMA_Init+0xac>)
 8003586:	fba2 2303 	umull	r2, r3, r2, r3
 800358a:	091b      	lsrs	r3, r3, #4
 800358c:	009a      	lsls	r2, r3, #2
 800358e:	687b      	ldr	r3, [r7, #4]
 8003590:	641a      	str	r2, [r3, #64]	; 0x40
  hdma->DmaBaseAddress = DMA1;
 8003592:	687b      	ldr	r3, [r7, #4]
 8003594:	4a1f      	ldr	r2, [pc, #124]	; (8003614 <HAL_DMA_Init+0xb0>)
 8003596:	63da      	str	r2, [r3, #60]	; 0x3c
#endif /* DMA2 */

  /* Change DMA peripheral state */
  hdma->State = HAL_DMA_STATE_BUSY;
 8003598:	687b      	ldr	r3, [r7, #4]
 800359a:	2202      	movs	r2, #2
 800359c:	f883 2021 	strb.w	r2, [r3, #33]	; 0x21

  /* Get the CR register value */
  tmp = hdma->Instance->CCR;
 80035a0:	687b      	ldr	r3, [r7, #4]
 80035a2:	681b      	ldr	r3, [r3, #0]
 80035a4:	681b      	ldr	r3, [r3, #0]
 80035a6:	60fb      	str	r3, [r7, #12]

  /* Clear PL, MSIZE, PSIZE, MINC, PINC, CIRC and DIR bits */
  tmp &= ((uint32_t)~(DMA_CCR_PL    | DMA_CCR_MSIZE  | DMA_CCR_PSIZE  | \
 80035a8:	68fb      	ldr	r3, [r7, #12]
 80035aa:	f423 537f 	bic.w	r3, r3, #16320	; 0x3fc0
 80035ae:	f023 0330 	bic.w	r3, r3, #48	; 0x30
 80035b2:	60fb      	str	r3, [r7, #12]
                      DMA_CCR_MINC  | DMA_CCR_PINC   | DMA_CCR_CIRC   | \
                      DMA_CCR_DIR));

  /* Prepare the DMA Channel configuration */
  tmp |=  hdma->Init.Direction        |
 80035b4:	687b      	ldr	r3, [r7, #4]
 80035b6:	685a      	ldr	r2, [r3, #4]
          hdma->Init.PeriphInc           | hdma->Init.MemInc           |
 80035b8:	687b      	ldr	r3, [r7, #4]
 80035ba:	689b      	ldr	r3, [r3, #8]
  tmp |=  hdma->Init.Direction        |
 80035bc:	431a      	orrs	r2, r3
          hdma->Init.PeriphInc           | hdma->Init.MemInc           |
 80035be:	687b      	ldr	r3, [r7, #4]
 80035c0:	68db      	ldr	r3, [r3, #12]
 80035c2:	431a      	orrs	r2, r3
          hdma->Init.PeriphDataAlignment | hdma->Init.MemDataAlignment |
 80035c4:	687b      	ldr	r3, [r7, #4]
 80035c6:	691b      	ldr	r3, [r3, #16]
          hdma->Init.PeriphInc           | hdma->Init.MemInc           |
 80035c8:	431a      	orrs	r2, r3
          hdma->Init.PeriphDataAlignment | hdma->Init.MemDataAlignment |
 80035ca:	687b      	ldr	r3, [r7, #4]
 80035cc:	695b      	ldr	r3, [r3, #20]
 80035ce:	431a      	orrs	r2, r3
          hdma->Init.Mode                | hdma->Init.Priority;
 80035d0:	687b      	ldr	r3, [r7, #4]
 80035d2:	699b      	ldr	r3, [r3, #24]
          hdma->Init.PeriphDataAlignment | hdma->Init.MemDataAlignment |
 80035d4:	431a      	orrs	r2, r3
          hdma->Init.Mode                | hdma->Init.Priority;
 80035d6:	687b      	ldr	r3, [r7, #4]
 80035d8:	69db      	ldr	r3, [r3, #28]
 80035da:	4313      	orrs	r3, r2
  tmp |=  hdma->Init.Direction        |
 80035dc:	68fa      	ldr	r2, [r7, #12]
 80035de:	4313      	orrs	r3, r2
 80035e0:	60fb      	str	r3, [r7, #12]

  /* Write to DMA Channel CR register */
  hdma->Instance->CCR = tmp;
 80035e2:	687b      	ldr	r3, [r7, #4]
 80035e4:	681b      	ldr	r3, [r3, #0]
 80035e6:	68fa      	ldr	r2, [r7, #12]
 80035e8:	601a      	str	r2, [r3, #0]

  /* Initialise the error code */
  hdma->ErrorCode = HAL_DMA_ERROR_NONE;
 80035ea:	687b      	ldr	r3, [r7, #4]
 80035ec:	2200      	movs	r2, #0
 80035ee:	639a      	str	r2, [r3, #56]	; 0x38

  /* Initialize the DMA state*/
  hdma->State = HAL_DMA_STATE_READY;
 80035f0:	687b      	ldr	r3, [r7, #4]
 80035f2:	2201      	movs	r2, #1
 80035f4:	f883 2021 	strb.w	r2, [r3, #33]	; 0x21
  /* Allocate lock resource and initialize it */
  hdma->Lock = HAL_UNLOCKED;
 80035f8:	687b      	ldr	r3, [r7, #4]
 80035fa:	2200      	movs	r2, #0
 80035fc:	f883 2020 	strb.w	r2, [r3, #32]

  return HAL_OK;
 8003600:	2300      	movs	r3, #0
}
 8003602:	4618      	mov	r0, r3
 8003604:	3714      	adds	r7, #20
 8003606:	46bd      	mov	sp, r7
 8003608:	bc80      	pop	{r7}
 800360a:	4770      	bx	lr
 800360c:	bffdfff8 	.word	0xbffdfff8
 8003610:	cccccccd 	.word	0xcccccccd
 8003614:	40020000 	.word	0x40020000

08003618 <HAL_DMA_Start_IT>:
  * @param  DstAddress: The destination memory Buffer address
  * @param  DataLength: The length of data to be transferred from source to destination
  * @retval HAL status
  */
HAL_StatusTypeDef HAL_DMA_Start_IT(DMA_HandleTypeDef *hdma, uint32_t SrcAddress, uint32_t DstAddress, uint32_t DataLength)
{
 8003618:	b580      	push	{r7, lr}
 800361a:	b086      	sub	sp, #24
 800361c:	af00      	add	r7, sp, #0
 800361e:	60f8      	str	r0, [r7, #12]
 8003620:	60b9      	str	r1, [r7, #8]
 8003622:	607a      	str	r2, [r7, #4]
 8003624:	603b      	str	r3, [r7, #0]
  HAL_StatusTypeDef status = HAL_OK;
 8003626:	2300      	movs	r3, #0
 8003628:	75fb      	strb	r3, [r7, #23]

  /* Check the parameters */
  assert_param(IS_DMA_BUFFER_SIZE(DataLength));

  /* Process locked */
  __HAL_LOCK(hdma);
 800362a:	68fb      	ldr	r3, [r7, #12]
 800362c:	f893 3020 	ldrb.w	r3, [r3, #32]
 8003630:	2b01      	cmp	r3, #1
 8003632:	d101      	bne.n	8003638 <HAL_DMA_Start_IT+0x20>
 8003634:	2302      	movs	r3, #2
 8003636:	e04a      	b.n	80036ce <HAL_DMA_Start_IT+0xb6>
 8003638:	68fb      	ldr	r3, [r7, #12]
 800363a:	2201      	movs	r2, #1
 800363c:	f883 2020 	strb.w	r2, [r3, #32]
  
  if(HAL_DMA_STATE_READY == hdma->State)
 8003640:	68fb      	ldr	r3, [r7, #12]
 8003642:	f893 3021 	ldrb.w	r3, [r3, #33]	; 0x21
 8003646:	2b01      	cmp	r3, #1
 8003648:	d13a      	bne.n	80036c0 <HAL_DMA_Start_IT+0xa8>
  {
    /* Change DMA peripheral state */
    hdma->State = HAL_DMA_STATE_BUSY;
 800364a:	68fb      	ldr	r3, [r7, #12]
 800364c:	2202      	movs	r2, #2
 800364e:	f883 2021 	strb.w	r2, [r3, #33]	; 0x21
    hdma->ErrorCode = HAL_DMA_ERROR_NONE;
 8003652:	68fb      	ldr	r3, [r7, #12]
 8003654:	2200      	movs	r2, #0
 8003656:	639a      	str	r2, [r3, #56]	; 0x38
    
    /* Disable the peripheral */
    __HAL_DMA_DISABLE(hdma);
 8003658:	68fb      	ldr	r3, [r7, #12]
 800365a:	681b      	ldr	r3, [r3, #0]
 800365c:	681a      	ldr	r2, [r3, #0]
 800365e:	68fb      	ldr	r3, [r7, #12]
 8003660:	681b      	ldr	r3, [r3, #0]
 8003662:	f022 0201 	bic.w	r2, r2, #1
 8003666:	601a      	str	r2, [r3, #0]
    
    /* Configure the source, destination address and the data length & clear flags*/
    DMA_SetConfig(hdma, SrcAddress, DstAddress, DataLength);
 8003668:	683b      	ldr	r3, [r7, #0]
 800366a:	687a      	ldr	r2, [r7, #4]
 800366c:	68b9      	ldr	r1, [r7, #8]
 800366e:	68f8      	ldr	r0, [r7, #12]
 8003670:	f000 f938 	bl	80038e4 <DMA_SetConfig>
    
    /* Enable the transfer complete interrupt */
    /* Enable the transfer Error interrupt */
    if(NULL != hdma->XferHalfCpltCallback)
 8003674:	68fb      	ldr	r3, [r7, #12]
 8003676:	6adb      	ldr	r3, [r3, #44]	; 0x2c
 8003678:	2b00      	cmp	r3, #0
 800367a:	d008      	beq.n	800368e <HAL_DMA_Start_IT+0x76>
    {
      /* Enable the Half transfer complete interrupt as well */
      __HAL_DMA_ENABLE_IT(hdma, (DMA_IT_TC | DMA_IT_HT | DMA_IT_TE));
 800367c:	68fb      	ldr	r3, [r7, #12]
 800367e:	681b      	ldr	r3, [r3, #0]
 8003680:	681a      	ldr	r2, [r3, #0]
 8003682:	68fb      	ldr	r3, [r7, #12]
 8003684:	681b      	ldr	r3, [r3, #0]
 8003686:	f042 020e 	orr.w	r2, r2, #14
 800368a:	601a      	str	r2, [r3, #0]
 800368c:	e00f      	b.n	80036ae <HAL_DMA_Start_IT+0x96>
    }
    else
    {
      __HAL_DMA_DISABLE_IT(hdma, DMA_IT_HT);
 800368e:	68fb      	ldr	r3, [r7, #12]
 8003690:	681b      	ldr	r3, [r3, #0]
 8003692:	681a      	ldr	r2, [r3, #0]
 8003694:	68fb      	ldr	r3, [r7, #12]
 8003696:	681b      	ldr	r3, [r3, #0]
 8003698:	f022 0204 	bic.w	r2, r2, #4
 800369c:	601a      	str	r2, [r3, #0]
      __HAL_DMA_ENABLE_IT(hdma, (DMA_IT_TC | DMA_IT_TE));
 800369e:	68fb      	ldr	r3, [r7, #12]
 80036a0:	681b      	ldr	r3, [r3, #0]
 80036a2:	681a      	ldr	r2, [r3, #0]
 80036a4:	68fb      	ldr	r3, [r7, #12]
 80036a6:	681b      	ldr	r3, [r3, #0]
 80036a8:	f042 020a 	orr.w	r2, r2, #10
 80036ac:	601a      	str	r2, [r3, #0]
    }
    /* Enable the Peripheral */
    __HAL_DMA_ENABLE(hdma);
 80036ae:	68fb      	ldr	r3, [r7, #12]
 80036b0:	681b      	ldr	r3, [r3, #0]
 80036b2:	681a      	ldr	r2, [r3, #0]
 80036b4:	68fb      	ldr	r3, [r7, #12]
 80036b6:	681b      	ldr	r3, [r3, #0]
 80036b8:	f042 0201 	orr.w	r2, r2, #1
 80036bc:	601a      	str	r2, [r3, #0]
 80036be:	e005      	b.n	80036cc <HAL_DMA_Start_IT+0xb4>
  }
  else
  {      
    /* Process Unlocked */
    __HAL_UNLOCK(hdma); 
 80036c0:	68fb      	ldr	r3, [r7, #12]
 80036c2:	2200      	movs	r2, #0
 80036c4:	f883 2020 	strb.w	r2, [r3, #32]

    /* Remain BUSY */
    status = HAL_BUSY;
 80036c8:	2302      	movs	r3, #2
 80036ca:	75fb      	strb	r3, [r7, #23]
  }    
  return status;
 80036cc:	7dfb      	ldrb	r3, [r7, #23]
}
 80036ce:	4618      	mov	r0, r3
 80036d0:	3718      	adds	r7, #24
 80036d2:	46bd      	mov	sp, r7
 80036d4:	bd80      	pop	{r7, pc}
	...

080036d8 <HAL_DMA_IRQHandler>:
  * @param  hdma: pointer to a DMA_HandleTypeDef structure that contains
  *               the configuration information for the specified DMA Channel.  
  * @retval None
  */
void HAL_DMA_IRQHandler(DMA_HandleTypeDef *hdma)
{
 80036d8:	b580      	push	{r7, lr}
 80036da:	b084      	sub	sp, #16
 80036dc:	af00      	add	r7, sp, #0
 80036de:	6078      	str	r0, [r7, #4]
  uint32_t flag_it = hdma->DmaBaseAddress->ISR;
 80036e0:	687b      	ldr	r3, [r7, #4]
 80036e2:	6bdb      	ldr	r3, [r3, #60]	; 0x3c
 80036e4:	681b      	ldr	r3, [r3, #0]
 80036e6:	60fb      	str	r3, [r7, #12]
  uint32_t source_it = hdma->Instance->CCR;
 80036e8:	687b      	ldr	r3, [r7, #4]
 80036ea:	681b      	ldr	r3, [r3, #0]
 80036ec:	681b      	ldr	r3, [r3, #0]
 80036ee:	60bb      	str	r3, [r7, #8]
  
  /* Half Transfer Complete Interrupt management ******************************/
  if (((flag_it & (DMA_FLAG_HT1 << hdma->ChannelIndex)) != RESET) && ((source_it & DMA_IT_HT) != RESET))
 80036f0:	687b      	ldr	r3, [r7, #4]
 80036f2:	6c1b      	ldr	r3, [r3, #64]	; 0x40
 80036f4:	2204      	movs	r2, #4
 80036f6:	409a      	lsls	r2, r3
 80036f8:	68fb      	ldr	r3, [r7, #12]
 80036fa:	4013      	ands	r3, r2
 80036fc:	2b00      	cmp	r3, #0
 80036fe:	d04f      	beq.n	80037a0 <HAL_DMA_IRQHandler+0xc8>
 8003700:	68bb      	ldr	r3, [r7, #8]
 8003702:	f003 0304 	and.w	r3, r3, #4
 8003706:	2b00      	cmp	r3, #0
 8003708:	d04a      	beq.n	80037a0 <HAL_DMA_IRQHandler+0xc8>
  {
    /* Disable the half transfer interrupt if the DMA mode is not CIRCULAR */
    if((hdma->Instance->CCR & DMA_CCR_CIRC) == 0U)
 800370a:	687b      	ldr	r3, [r7, #4]
 800370c:	681b      	ldr	r3, [r3, #0]
 800370e:	681b      	ldr	r3, [r3, #0]
 8003710:	f003 0320 	and.w	r3, r3, #32
 8003714:	2b00      	cmp	r3, #0
 8003716:	d107      	bne.n	8003728 <HAL_DMA_IRQHandler+0x50>
    {
      /* Disable the half transfer interrupt */
      __HAL_DMA_DISABLE_IT(hdma, DMA_IT_HT);
 8003718:	687b      	ldr	r3, [r7, #4]
 800371a:	681b      	ldr	r3, [r3, #0]
 800371c:	681a      	ldr	r2, [r3, #0]
 800371e:	687b      	ldr	r3, [r7, #4]
 8003720:	681b      	ldr	r3, [r3, #0]
 8003722:	f022 0204 	bic.w	r2, r2, #4
 8003726:	601a      	str	r2, [r3, #0]
    }
    /* Clear the half transfer complete flag */
    __HAL_DMA_CLEAR_FLAG(hdma, __HAL_DMA_GET_HT_FLAG_INDEX(hdma));
 8003728:	687b      	ldr	r3, [r7, #4]
 800372a:	681b      	ldr	r3, [r3, #0]
 800372c:	4a66      	ldr	r2, [pc, #408]	; (80038c8 <HAL_DMA_IRQHandler+0x1f0>)
 800372e:	4293      	cmp	r3, r2
 8003730:	d029      	beq.n	8003786 <HAL_DMA_IRQHandler+0xae>
 8003732:	687b      	ldr	r3, [r7, #4]
 8003734:	681b      	ldr	r3, [r3, #0]
 8003736:	4a65      	ldr	r2, [pc, #404]	; (80038cc <HAL_DMA_IRQHandler+0x1f4>)
 8003738:	4293      	cmp	r3, r2
 800373a:	d022      	beq.n	8003782 <HAL_DMA_IRQHandler+0xaa>
 800373c:	687b      	ldr	r3, [r7, #4]
 800373e:	681b      	ldr	r3, [r3, #0]
 8003740:	4a63      	ldr	r2, [pc, #396]	; (80038d0 <HAL_DMA_IRQHandler+0x1f8>)
 8003742:	4293      	cmp	r3, r2
 8003744:	d01a      	beq.n	800377c <HAL_DMA_IRQHandler+0xa4>
 8003746:	687b      	ldr	r3, [r7, #4]
 8003748:	681b      	ldr	r3, [r3, #0]
 800374a:	4a62      	ldr	r2, [pc, #392]	; (80038d4 <HAL_DMA_IRQHandler+0x1fc>)
 800374c:	4293      	cmp	r3, r2
 800374e:	d012      	beq.n	8003776 <HAL_DMA_IRQHandler+0x9e>
 8003750:	687b      	ldr	r3, [r7, #4]
 8003752:	681b      	ldr	r3, [r3, #0]
 8003754:	4a60      	ldr	r2, [pc, #384]	; (80038d8 <HAL_DMA_IRQHandler+0x200>)
 8003756:	4293      	cmp	r3, r2
 8003758:	d00a      	beq.n	8003770 <HAL_DMA_IRQHandler+0x98>
 800375a:	687b      	ldr	r3, [r7, #4]
 800375c:	681b      	ldr	r3, [r3, #0]
 800375e:	4a5f      	ldr	r2, [pc, #380]	; (80038dc <HAL_DMA_IRQHandler+0x204>)
 8003760:	4293      	cmp	r3, r2
 8003762:	d102      	bne.n	800376a <HAL_DMA_IRQHandler+0x92>
 8003764:	f44f 0380 	mov.w	r3, #4194304	; 0x400000
 8003768:	e00e      	b.n	8003788 <HAL_DMA_IRQHandler+0xb0>
 800376a:	f04f 6380 	mov.w	r3, #67108864	; 0x4000000
 800376e:	e00b      	b.n	8003788 <HAL_DMA_IRQHandler+0xb0>
 8003770:	f44f 2380 	mov.w	r3, #262144	; 0x40000
 8003774:	e008      	b.n	8003788 <HAL_DMA_IRQHandler+0xb0>
 8003776:	f44f 4380 	mov.w	r3, #16384	; 0x4000
 800377a:	e005      	b.n	8003788 <HAL_DMA_IRQHandler+0xb0>
 800377c:	f44f 6380 	mov.w	r3, #1024	; 0x400
 8003780:	e002      	b.n	8003788 <HAL_DMA_IRQHandler+0xb0>
 8003782:	2340      	movs	r3, #64	; 0x40
 8003784:	e000      	b.n	8003788 <HAL_DMA_IRQHandler+0xb0>
 8003786:	2304      	movs	r3, #4
 8003788:	4a55      	ldr	r2, [pc, #340]	; (80038e0 <HAL_DMA_IRQHandler+0x208>)
 800378a:	6053      	str	r3, [r2, #4]

    /* DMA peripheral state is not updated in Half Transfer */
    /* but in Transfer Complete case */

    if(hdma->XferHalfCpltCallback != NULL)
 800378c:	687b      	ldr	r3, [r7, #4]
 800378e:	6adb      	ldr	r3, [r3, #44]	; 0x2c
 8003790:	2b00      	cmp	r3, #0
 8003792:	f000 8094 	beq.w	80038be <HAL_DMA_IRQHandler+0x1e6>
    {
      /* Half transfer callback */
      hdma->XferHalfCpltCallback(hdma);
 8003796:	687b      	ldr	r3, [r7, #4]
 8003798:	6adb      	ldr	r3, [r3, #44]	; 0x2c
 800379a:	6878      	ldr	r0, [r7, #4]
 800379c:	4798      	blx	r3
    if(hdma->XferHalfCpltCallback != NULL)
 800379e:	e08e      	b.n	80038be <HAL_DMA_IRQHandler+0x1e6>
    }
  }

  /* Transfer Complete Interrupt management ***********************************/
  else if (((flag_it & (DMA_FLAG_TC1 << hdma->ChannelIndex)) != RESET) && ((source_it & DMA_IT_TC) != RESET))
 80037a0:	687b      	ldr	r3, [r7, #4]
 80037a2:	6c1b      	ldr	r3, [r3, #64]	; 0x40
 80037a4:	2202      	movs	r2, #2
 80037a6:	409a      	lsls	r2, r3
 80037a8:	68fb      	ldr	r3, [r7, #12]
 80037aa:	4013      	ands	r3, r2
 80037ac:	2b00      	cmp	r3, #0
 80037ae:	d056      	beq.n	800385e <HAL_DMA_IRQHandler+0x186>
 80037b0:	68bb      	ldr	r3, [r7, #8]
 80037b2:	f003 0302 	and.w	r3, r3, #2
 80037b6:	2b00      	cmp	r3, #0
 80037b8:	d051      	beq.n	800385e <HAL_DMA_IRQHandler+0x186>
  {
    if((hdma->Instance->CCR & DMA_CCR_CIRC) == 0U)
 80037ba:	687b      	ldr	r3, [r7, #4]
 80037bc:	681b      	ldr	r3, [r3, #0]
 80037be:	681b      	ldr	r3, [r3, #0]
 80037c0:	f003 0320 	and.w	r3, r3, #32
 80037c4:	2b00      	cmp	r3, #0
 80037c6:	d10b      	bne.n	80037e0 <HAL_DMA_IRQHandler+0x108>
    {
      /* Disable the transfer complete and error interrupt */
      __HAL_DMA_DISABLE_IT(hdma, DMA_IT_TE | DMA_IT_TC);  
 80037c8:	687b      	ldr	r3, [r7, #4]
 80037ca:	681b      	ldr	r3, [r3, #0]
 80037cc:	681a      	ldr	r2, [r3, #0]
 80037ce:	687b      	ldr	r3, [r7, #4]
 80037d0:	681b      	ldr	r3, [r3, #0]
 80037d2:	f022 020a 	bic.w	r2, r2, #10
 80037d6:	601a      	str	r2, [r3, #0]

      /* Change the DMA state */
      hdma->State = HAL_DMA_STATE_READY;
 80037d8:	687b      	ldr	r3, [r7, #4]
 80037da:	2201      	movs	r2, #1
 80037dc:	f883 2021 	strb.w	r2, [r3, #33]	; 0x21
    }
    /* Clear the transfer complete flag */
      __HAL_DMA_CLEAR_FLAG(hdma, __HAL_DMA_GET_TC_FLAG_INDEX(hdma));
 80037e0:	687b      	ldr	r3, [r7, #4]
 80037e2:	681b      	ldr	r3, [r3, #0]
 80037e4:	4a38      	ldr	r2, [pc, #224]	; (80038c8 <HAL_DMA_IRQHandler+0x1f0>)
 80037e6:	4293      	cmp	r3, r2
 80037e8:	d029      	beq.n	800383e <HAL_DMA_IRQHandler+0x166>
 80037ea:	687b      	ldr	r3, [r7, #4]
 80037ec:	681b      	ldr	r3, [r3, #0]
 80037ee:	4a37      	ldr	r2, [pc, #220]	; (80038cc <HAL_DMA_IRQHandler+0x1f4>)
 80037f0:	4293      	cmp	r3, r2
 80037f2:	d022      	beq.n	800383a <HAL_DMA_IRQHandler+0x162>
 80037f4:	687b      	ldr	r3, [r7, #4]
 80037f6:	681b      	ldr	r3, [r3, #0]
 80037f8:	4a35      	ldr	r2, [pc, #212]	; (80038d0 <HAL_DMA_IRQHandler+0x1f8>)
 80037fa:	4293      	cmp	r3, r2
 80037fc:	d01a      	beq.n	8003834 <HAL_DMA_IRQHandler+0x15c>
 80037fe:	687b      	ldr	r3, [r7, #4]
 8003800:	681b      	ldr	r3, [r3, #0]
 8003802:	4a34      	ldr	r2, [pc, #208]	; (80038d4 <HAL_DMA_IRQHandler+0x1fc>)
 8003804:	4293      	cmp	r3, r2
 8003806:	d012      	beq.n	800382e <HAL_DMA_IRQHandler+0x156>
 8003808:	687b      	ldr	r3, [r7, #4]
 800380a:	681b      	ldr	r3, [r3, #0]
 800380c:	4a32      	ldr	r2, [pc, #200]	; (80038d8 <HAL_DMA_IRQHandler+0x200>)
 800380e:	4293      	cmp	r3, r2
 8003810:	d00a      	beq.n	8003828 <HAL_DMA_IRQHandler+0x150>
 8003812:	687b      	ldr	r3, [r7, #4]
 8003814:	681b      	ldr	r3, [r3, #0]
 8003816:	4a31      	ldr	r2, [pc, #196]	; (80038dc <HAL_DMA_IRQHandler+0x204>)
 8003818:	4293      	cmp	r3, r2
 800381a:	d102      	bne.n	8003822 <HAL_DMA_IRQHandler+0x14a>
 800381c:	f44f 1300 	mov.w	r3, #2097152	; 0x200000
 8003820:	e00e      	b.n	8003840 <HAL_DMA_IRQHandler+0x168>
 8003822:	f04f 7300 	mov.w	r3, #33554432	; 0x2000000
 8003826:	e00b      	b.n	8003840 <HAL_DMA_IRQHandler+0x168>
 8003828:	f44f 3300 	mov.w	r3, #131072	; 0x20000
 800382c:	e008      	b.n	8003840 <HAL_DMA_IRQHandler+0x168>
 800382e:	f44f 5300 	mov.w	r3, #8192	; 0x2000
 8003832:	e005      	b.n	8003840 <HAL_DMA_IRQHandler+0x168>
 8003834:	f44f 7300 	mov.w	r3, #512	; 0x200
 8003838:	e002      	b.n	8003840 <HAL_DMA_IRQHandler+0x168>
 800383a:	2320      	movs	r3, #32
 800383c:	e000      	b.n	8003840 <HAL_DMA_IRQHandler+0x168>
 800383e:	2302      	movs	r3, #2
 8003840:	4a27      	ldr	r2, [pc, #156]	; (80038e0 <HAL_DMA_IRQHandler+0x208>)
 8003842:	6053      	str	r3, [r2, #4]

    /* Process Unlocked */
    __HAL_UNLOCK(hdma);
 8003844:	687b      	ldr	r3, [r7, #4]
 8003846:	2200      	movs	r2, #0
 8003848:	f883 2020 	strb.w	r2, [r3, #32]

    if(hdma->XferCpltCallback != NULL)
 800384c:	687b      	ldr	r3, [r7, #4]
 800384e:	6a9b      	ldr	r3, [r3, #40]	; 0x28
 8003850:	2b00      	cmp	r3, #0
 8003852:	d034      	beq.n	80038be <HAL_DMA_IRQHandler+0x1e6>
    {
      /* Transfer complete callback */
      hdma->XferCpltCallback(hdma);
 8003854:	687b      	ldr	r3, [r7, #4]
 8003856:	6a9b      	ldr	r3, [r3, #40]	; 0x28
 8003858:	6878      	ldr	r0, [r7, #4]
 800385a:	4798      	blx	r3
    if(hdma->XferCpltCallback != NULL)
 800385c:	e02f      	b.n	80038be <HAL_DMA_IRQHandler+0x1e6>
    }
  }

  /* Transfer Error Interrupt management **************************************/
  else if (( RESET != (flag_it & (DMA_FLAG_TE1 << hdma->ChannelIndex))) && (RESET != (source_it & DMA_IT_TE)))
 800385e:	687b      	ldr	r3, [r7, #4]
 8003860:	6c1b      	ldr	r3, [r3, #64]	; 0x40
 8003862:	2208      	movs	r2, #8
 8003864:	409a      	lsls	r2, r3
 8003866:	68fb      	ldr	r3, [r7, #12]
 8003868:	4013      	ands	r3, r2
 800386a:	2b00      	cmp	r3, #0
 800386c:	d028      	beq.n	80038c0 <HAL_DMA_IRQHandler+0x1e8>
 800386e:	68bb      	ldr	r3, [r7, #8]
 8003870:	f003 0308 	and.w	r3, r3, #8
 8003874:	2b00      	cmp	r3, #0
 8003876:	d023      	beq.n	80038c0 <HAL_DMA_IRQHandler+0x1e8>
  {
    /* When a DMA transfer error occurs */
    /* A hardware clear of its EN bits is performed */
    /* Disable ALL DMA IT */
    __HAL_DMA_DISABLE_IT(hdma, (DMA_IT_TC | DMA_IT_HT | DMA_IT_TE));
 8003878:	687b      	ldr	r3, [r7, #4]
 800387a:	681b      	ldr	r3, [r3, #0]
 800387c:	681a      	ldr	r2, [r3, #0]
 800387e:	687b      	ldr	r3, [r7, #4]
 8003880:	681b      	ldr	r3, [r3, #0]
 8003882:	f022 020e 	bic.w	r2, r2, #14
 8003886:	601a      	str	r2, [r3, #0]

    /* Clear all flags */
    hdma->DmaBaseAddress->IFCR = (DMA_ISR_GIF1 << hdma->ChannelIndex);
 8003888:	687b      	ldr	r3, [r7, #4]
 800388a:	6c1a      	ldr	r2, [r3, #64]	; 0x40
 800388c:	687b      	ldr	r3, [r7, #4]
 800388e:	6bdb      	ldr	r3, [r3, #60]	; 0x3c
 8003890:	2101      	movs	r1, #1
 8003892:	fa01 f202 	lsl.w	r2, r1, r2
 8003896:	605a      	str	r2, [r3, #4]

    /* Update error code */
    hdma->ErrorCode = HAL_DMA_ERROR_TE;
 8003898:	687b      	ldr	r3, [r7, #4]
 800389a:	2201      	movs	r2, #1
 800389c:	639a      	str	r2, [r3, #56]	; 0x38

    /* Change the DMA state */
    hdma->State = HAL_DMA_STATE_READY;
 800389e:	687b      	ldr	r3, [r7, #4]
 80038a0:	2201      	movs	r2, #1
 80038a2:	f883 2021 	strb.w	r2, [r3, #33]	; 0x21

    /* Process Unlocked */
    __HAL_UNLOCK(hdma);
 80038a6:	687b      	ldr	r3, [r7, #4]
 80038a8:	2200      	movs	r2, #0
 80038aa:	f883 2020 	strb.w	r2, [r3, #32]

    if (hdma->XferErrorCallback != NULL)
 80038ae:	687b      	ldr	r3, [r7, #4]
 80038b0:	6b1b      	ldr	r3, [r3, #48]	; 0x30
 80038b2:	2b00      	cmp	r3, #0
 80038b4:	d004      	beq.n	80038c0 <HAL_DMA_IRQHandler+0x1e8>
    {
      /* Transfer error callback */
      hdma->XferErrorCallback(hdma);
 80038b6:	687b      	ldr	r3, [r7, #4]
 80038b8:	6b1b      	ldr	r3, [r3, #48]	; 0x30
 80038ba:	6878      	ldr	r0, [r7, #4]
 80038bc:	4798      	blx	r3
    }
  }
  return;
 80038be:	bf00      	nop
 80038c0:	bf00      	nop
}
 80038c2:	3710      	adds	r7, #16
 80038c4:	46bd      	mov	sp, r7
 80038c6:	bd80      	pop	{r7, pc}
 80038c8:	40020008 	.word	0x40020008
 80038cc:	4002001c 	.word	0x4002001c
 80038d0:	40020030 	.word	0x40020030
 80038d4:	40020044 	.word	0x40020044
 80038d8:	40020058 	.word	0x40020058
 80038dc:	4002006c 	.word	0x4002006c
 80038e0:	40020000 	.word	0x40020000

080038e4 <DMA_SetConfig>:
  * @param  DstAddress: The destination memory Buffer address
  * @param  DataLength: The length of data to be transferred from source to destination
  * @retval HAL status
  */
static void DMA_SetConfig(DMA_HandleTypeDef *hdma, uint32_t SrcAddress, uint32_t DstAddress, uint32_t DataLength)
{
 80038e4:	b480      	push	{r7}
 80038e6:	b085      	sub	sp, #20
 80038e8:	af00      	add	r7, sp, #0
 80038ea:	60f8      	str	r0, [r7, #12]
 80038ec:	60b9      	str	r1, [r7, #8]
 80038ee:	607a      	str	r2, [r7, #4]
 80038f0:	603b      	str	r3, [r7, #0]
  /* Clear all flags */
  hdma->DmaBaseAddress->IFCR = (DMA_ISR_GIF1 << hdma->ChannelIndex);
 80038f2:	68fb      	ldr	r3, [r7, #12]
 80038f4:	6c1a      	ldr	r2, [r3, #64]	; 0x40
 80038f6:	68fb      	ldr	r3, [r7, #12]
 80038f8:	6bdb      	ldr	r3, [r3, #60]	; 0x3c
 80038fa:	2101      	movs	r1, #1
 80038fc:	fa01 f202 	lsl.w	r2, r1, r2
 8003900:	605a      	str	r2, [r3, #4]

  /* Configure DMA Channel data length */
  hdma->Instance->CNDTR = DataLength;
 8003902:	68fb      	ldr	r3, [r7, #12]
 8003904:	681b      	ldr	r3, [r3, #0]
 8003906:	683a      	ldr	r2, [r7, #0]
 8003908:	605a      	str	r2, [r3, #4]

  /* Memory to Peripheral */
  if((hdma->Init.Direction) == DMA_MEMORY_TO_PERIPH)
 800390a:	68fb      	ldr	r3, [r7, #12]
 800390c:	685b      	ldr	r3, [r3, #4]
 800390e:	2b10      	cmp	r3, #16
 8003910:	d108      	bne.n	8003924 <DMA_SetConfig+0x40>
  {
    /* Configure DMA Channel destination address */
    hdma->Instance->CPAR = DstAddress;
 8003912:	68fb      	ldr	r3, [r7, #12]
 8003914:	681b      	ldr	r3, [r3, #0]
 8003916:	687a      	ldr	r2, [r7, #4]
 8003918:	609a      	str	r2, [r3, #8]

    /* Configure DMA Channel source address */
    hdma->Instance->CMAR = SrcAddress;
 800391a:	68fb      	ldr	r3, [r7, #12]
 800391c:	681b      	ldr	r3, [r3, #0]
 800391e:	68ba      	ldr	r2, [r7, #8]
 8003920:	60da      	str	r2, [r3, #12]
    hdma->Instance->CPAR = SrcAddress;

    /* Configure DMA Channel destination address */
    hdma->Instance->CMAR = DstAddress;
  }
}
 8003922:	e007      	b.n	8003934 <DMA_SetConfig+0x50>
    hdma->Instance->CPAR = SrcAddress;
 8003924:	68fb      	ldr	r3, [r7, #12]
 8003926:	681b      	ldr	r3, [r3, #0]
 8003928:	68ba      	ldr	r2, [r7, #8]
 800392a:	609a      	str	r2, [r3, #8]
    hdma->Instance->CMAR = DstAddress;
 800392c:	68fb      	ldr	r3, [r7, #12]
 800392e:	681b      	ldr	r3, [r3, #0]
 8003930:	687a      	ldr	r2, [r7, #4]
 8003932:	60da      	str	r2, [r3, #12]
}
 8003934:	bf00      	nop
 8003936:	3714      	adds	r7, #20
 8003938:	46bd      	mov	sp, r7
 800393a:	bc80      	pop	{r7}
 800393c:	4770      	bx	lr
	...

08003940 <HAL_GPIO_Init>:
  * @param  GPIO_Init: pointer to a GPIO_InitTypeDef structure that contains
  *         the configuration information for the specified GPIO peripheral.
  * @retval None
  */
void HAL_GPIO_Init(GPIO_TypeDef  *GPIOx, GPIO_InitTypeDef *GPIO_Init)
{
 8003940:	b480      	push	{r7}
 8003942:	b08b      	sub	sp, #44	; 0x2c
 8003944:	af00      	add	r7, sp, #0
 8003946:	6078      	str	r0, [r7, #4]
 8003948:	6039      	str	r1, [r7, #0]
  uint32_t position = 0x00u;
 800394a:	2300      	movs	r3, #0
 800394c:	627b      	str	r3, [r7, #36]	; 0x24
  uint32_t ioposition;
  uint32_t iocurrent;
  uint32_t temp;
  uint32_t config = 0x00u;
 800394e:	2300      	movs	r3, #0
 8003950:	623b      	str	r3, [r7, #32]
  assert_param(IS_GPIO_ALL_INSTANCE(GPIOx));
  assert_param(IS_GPIO_PIN(GPIO_Init->Pin));
  assert_param(IS_GPIO_MODE(GPIO_Init->Mode));

  /* Configure the port pins */
  while (((GPIO_Init->Pin) >> position) != 0x00u)
 8003952:	e127      	b.n	8003ba4 <HAL_GPIO_Init+0x264>
  {
    /* Get the IO position */
    ioposition = (0x01uL << position);
 8003954:	2201      	movs	r2, #1
 8003956:	6a7b      	ldr	r3, [r7, #36]	; 0x24
 8003958:	fa02 f303 	lsl.w	r3, r2, r3
 800395c:	61fb      	str	r3, [r7, #28]

    /* Get the current IO position */
    iocurrent = (uint32_t)(GPIO_Init->Pin) & ioposition;
 800395e:	683b      	ldr	r3, [r7, #0]
 8003960:	681b      	ldr	r3, [r3, #0]
 8003962:	69fa      	ldr	r2, [r7, #28]
 8003964:	4013      	ands	r3, r2
 8003966:	61bb      	str	r3, [r7, #24]

    if (iocurrent == ioposition)
 8003968:	69ba      	ldr	r2, [r7, #24]
 800396a:	69fb      	ldr	r3, [r7, #28]
 800396c:	429a      	cmp	r2, r3
 800396e:	f040 8116 	bne.w	8003b9e <HAL_GPIO_Init+0x25e>
    {
      /* Check the Alternate function parameters */
      assert_param(IS_GPIO_AF_INSTANCE(GPIOx));

      /* Based on the required mode, filling config variable with MODEy[1:0] and CNFy[3:2] corresponding bits */
      switch (GPIO_Init->Mode)
 8003972:	683b      	ldr	r3, [r7, #0]
 8003974:	685b      	ldr	r3, [r3, #4]
 8003976:	2b12      	cmp	r3, #18
 8003978:	d034      	beq.n	80039e4 <HAL_GPIO_Init+0xa4>
 800397a:	2b12      	cmp	r3, #18
 800397c:	d80d      	bhi.n	800399a <HAL_GPIO_Init+0x5a>
 800397e:	2b02      	cmp	r3, #2
 8003980:	d02b      	beq.n	80039da <HAL_GPIO_Init+0x9a>
 8003982:	2b02      	cmp	r3, #2
 8003984:	d804      	bhi.n	8003990 <HAL_GPIO_Init+0x50>
 8003986:	2b00      	cmp	r3, #0
 8003988:	d031      	beq.n	80039ee <HAL_GPIO_Init+0xae>
 800398a:	2b01      	cmp	r3, #1
 800398c:	d01c      	beq.n	80039c8 <HAL_GPIO_Init+0x88>
          config = GPIO_CR_MODE_INPUT + GPIO_CR_CNF_ANALOG;
          break;

        /* Parameters are checked with assert_param */
        default:
          break;
 800398e:	e048      	b.n	8003a22 <HAL_GPIO_Init+0xe2>
      switch (GPIO_Init->Mode)
 8003990:	2b03      	cmp	r3, #3
 8003992:	d043      	beq.n	8003a1c <HAL_GPIO_Init+0xdc>
 8003994:	2b11      	cmp	r3, #17
 8003996:	d01b      	beq.n	80039d0 <HAL_GPIO_Init+0x90>
          break;
 8003998:	e043      	b.n	8003a22 <HAL_GPIO_Init+0xe2>
      switch (GPIO_Init->Mode)
 800399a:	4a89      	ldr	r2, [pc, #548]	; (8003bc0 <HAL_GPIO_Init+0x280>)
 800399c:	4293      	cmp	r3, r2
 800399e:	d026      	beq.n	80039ee <HAL_GPIO_Init+0xae>
 80039a0:	4a87      	ldr	r2, [pc, #540]	; (8003bc0 <HAL_GPIO_Init+0x280>)
 80039a2:	4293      	cmp	r3, r2
 80039a4:	d806      	bhi.n	80039b4 <HAL_GPIO_Init+0x74>
 80039a6:	4a87      	ldr	r2, [pc, #540]	; (8003bc4 <HAL_GPIO_Init+0x284>)
 80039a8:	4293      	cmp	r3, r2
 80039aa:	d020      	beq.n	80039ee <HAL_GPIO_Init+0xae>
 80039ac:	4a86      	ldr	r2, [pc, #536]	; (8003bc8 <HAL_GPIO_Init+0x288>)
 80039ae:	4293      	cmp	r3, r2
 80039b0:	d01d      	beq.n	80039ee <HAL_GPIO_Init+0xae>
          break;
 80039b2:	e036      	b.n	8003a22 <HAL_GPIO_Init+0xe2>
      switch (GPIO_Init->Mode)
 80039b4:	4a85      	ldr	r2, [pc, #532]	; (8003bcc <HAL_GPIO_Init+0x28c>)
 80039b6:	4293      	cmp	r3, r2
 80039b8:	d019      	beq.n	80039ee <HAL_GPIO_Init+0xae>
 80039ba:	4a85      	ldr	r2, [pc, #532]	; (8003bd0 <HAL_GPIO_Init+0x290>)
 80039bc:	4293      	cmp	r3, r2
 80039be:	d016      	beq.n	80039ee <HAL_GPIO_Init+0xae>
 80039c0:	4a84      	ldr	r2, [pc, #528]	; (8003bd4 <HAL_GPIO_Init+0x294>)
 80039c2:	4293      	cmp	r3, r2
 80039c4:	d013      	beq.n	80039ee <HAL_GPIO_Init+0xae>
          break;
 80039c6:	e02c      	b.n	8003a22 <HAL_GPIO_Init+0xe2>
          config = GPIO_Init->Speed + GPIO_CR_CNF_GP_OUTPUT_PP;
 80039c8:	683b      	ldr	r3, [r7, #0]
 80039ca:	68db      	ldr	r3, [r3, #12]
 80039cc:	623b      	str	r3, [r7, #32]
          break;
 80039ce:	e028      	b.n	8003a22 <HAL_GPIO_Init+0xe2>
          config = GPIO_Init->Speed + GPIO_CR_CNF_GP_OUTPUT_OD;
 80039d0:	683b      	ldr	r3, [r7, #0]
 80039d2:	68db      	ldr	r3, [r3, #12]
 80039d4:	3304      	adds	r3, #4
 80039d6:	623b      	str	r3, [r7, #32]
          break;
 80039d8:	e023      	b.n	8003a22 <HAL_GPIO_Init+0xe2>
          config = GPIO_Init->Speed + GPIO_CR_CNF_AF_OUTPUT_PP;
 80039da:	683b      	ldr	r3, [r7, #0]
 80039dc:	68db      	ldr	r3, [r3, #12]
 80039de:	3308      	adds	r3, #8
 80039e0:	623b      	str	r3, [r7, #32]
          break;
 80039e2:	e01e      	b.n	8003a22 <HAL_GPIO_Init+0xe2>
          config = GPIO_Init->Speed + GPIO_CR_CNF_AF_OUTPUT_OD;
 80039e4:	683b      	ldr	r3, [r7, #0]
 80039e6:	68db      	ldr	r3, [r3, #12]
 80039e8:	330c      	adds	r3, #12
 80039ea:	623b      	str	r3, [r7, #32]
          break;
 80039ec:	e019      	b.n	8003a22 <HAL_GPIO_Init+0xe2>
          if (GPIO_Init->Pull == GPIO_NOPULL)
 80039ee:	683b      	ldr	r3, [r7, #0]
 80039f0:	689b      	ldr	r3, [r3, #8]
 80039f2:	2b00      	cmp	r3, #0
 80039f4:	d102      	bne.n	80039fc <HAL_GPIO_Init+0xbc>
            config = GPIO_CR_MODE_INPUT + GPIO_CR_CNF_INPUT_FLOATING;
 80039f6:	2304      	movs	r3, #4
 80039f8:	623b      	str	r3, [r7, #32]
          break;
 80039fa:	e012      	b.n	8003a22 <HAL_GPIO_Init+0xe2>
          else if (GPIO_Init->Pull == GPIO_PULLUP)
 80039fc:	683b      	ldr	r3, [r7, #0]
 80039fe:	689b      	ldr	r3, [r3, #8]
 8003a00:	2b01      	cmp	r3, #1
 8003a02:	d105      	bne.n	8003a10 <HAL_GPIO_Init+0xd0>
            config = GPIO_CR_MODE_INPUT + GPIO_CR_CNF_INPUT_PU_PD;
 8003a04:	2308      	movs	r3, #8
 8003a06:	623b      	str	r3, [r7, #32]
            GPIOx->BSRR = ioposition;
 8003a08:	687b      	ldr	r3, [r7, #4]
 8003a0a:	69fa      	ldr	r2, [r7, #28]
 8003a0c:	611a      	str	r2, [r3, #16]
          break;
 8003a0e:	e008      	b.n	8003a22 <HAL_GPIO_Init+0xe2>
            config = GPIO_CR_MODE_INPUT + GPIO_CR_CNF_INPUT_PU_PD;
 8003a10:	2308      	movs	r3, #8
 8003a12:	623b      	str	r3, [r7, #32]
            GPIOx->BRR = ioposition;
 8003a14:	687b      	ldr	r3, [r7, #4]
 8003a16:	69fa      	ldr	r2, [r7, #28]
 8003a18:	615a      	str	r2, [r3, #20]
          break;
 8003a1a:	e002      	b.n	8003a22 <HAL_GPIO_Init+0xe2>
          config = GPIO_CR_MODE_INPUT + GPIO_CR_CNF_ANALOG;
 8003a1c:	2300      	movs	r3, #0
 8003a1e:	623b      	str	r3, [r7, #32]
          break;
 8003a20:	bf00      	nop
      }

      /* Check if the current bit belongs to first half or last half of the pin count number
       in order to address CRH or CRL register*/
      configregister = (iocurrent < GPIO_PIN_8) ? &GPIOx->CRL     : &GPIOx->CRH;
 8003a22:	69bb      	ldr	r3, [r7, #24]
 8003a24:	2bff      	cmp	r3, #255	; 0xff
 8003a26:	d801      	bhi.n	8003a2c <HAL_GPIO_Init+0xec>
 8003a28:	687b      	ldr	r3, [r7, #4]
 8003a2a:	e001      	b.n	8003a30 <HAL_GPIO_Init+0xf0>
 8003a2c:	687b      	ldr	r3, [r7, #4]
 8003a2e:	3304      	adds	r3, #4
 8003a30:	617b      	str	r3, [r7, #20]
      registeroffset = (iocurrent < GPIO_PIN_8) ? (position << 2u) : ((position - 8u) << 2u);
 8003a32:	69bb      	ldr	r3, [r7, #24]
 8003a34:	2bff      	cmp	r3, #255	; 0xff
 8003a36:	d802      	bhi.n	8003a3e <HAL_GPIO_Init+0xfe>
 8003a38:	6a7b      	ldr	r3, [r7, #36]	; 0x24
 8003a3a:	009b      	lsls	r3, r3, #2
 8003a3c:	e002      	b.n	8003a44 <HAL_GPIO_Init+0x104>
 8003a3e:	6a7b      	ldr	r3, [r7, #36]	; 0x24
 8003a40:	3b08      	subs	r3, #8
 8003a42:	009b      	lsls	r3, r3, #2
 8003a44:	613b      	str	r3, [r7, #16]

      /* Apply the new configuration of the pin to the register */
      MODIFY_REG((*configregister), ((GPIO_CRL_MODE0 | GPIO_CRL_CNF0) << registeroffset), (config << registeroffset));
 8003a46:	697b      	ldr	r3, [r7, #20]
 8003a48:	681a      	ldr	r2, [r3, #0]
 8003a4a:	210f      	movs	r1, #15
 8003a4c:	693b      	ldr	r3, [r7, #16]
 8003a4e:	fa01 f303 	lsl.w	r3, r1, r3
 8003a52:	43db      	mvns	r3, r3
 8003a54:	401a      	ands	r2, r3
 8003a56:	6a39      	ldr	r1, [r7, #32]
 8003a58:	693b      	ldr	r3, [r7, #16]
 8003a5a:	fa01 f303 	lsl.w	r3, r1, r3
 8003a5e:	431a      	orrs	r2, r3
 8003a60:	697b      	ldr	r3, [r7, #20]
 8003a62:	601a      	str	r2, [r3, #0]

      /*--------------------- EXTI Mode Configuration ------------------------*/
      /* Configure the External Interrupt or event for the current IO */
      if ((GPIO_Init->Mode & EXTI_MODE) == EXTI_MODE)
 8003a64:	683b      	ldr	r3, [r7, #0]
 8003a66:	685b      	ldr	r3, [r3, #4]
 8003a68:	f003 5380 	and.w	r3, r3, #268435456	; 0x10000000
 8003a6c:	2b00      	cmp	r3, #0
 8003a6e:	f000 8096 	beq.w	8003b9e <HAL_GPIO_Init+0x25e>
      {
        /* Enable AFIO Clock */
        __HAL_RCC_AFIO_CLK_ENABLE();
 8003a72:	4b59      	ldr	r3, [pc, #356]	; (8003bd8 <HAL_GPIO_Init+0x298>)
 8003a74:	699b      	ldr	r3, [r3, #24]
 8003a76:	4a58      	ldr	r2, [pc, #352]	; (8003bd8 <HAL_GPIO_Init+0x298>)
 8003a78:	f043 0301 	orr.w	r3, r3, #1
 8003a7c:	6193      	str	r3, [r2, #24]
 8003a7e:	4b56      	ldr	r3, [pc, #344]	; (8003bd8 <HAL_GPIO_Init+0x298>)
 8003a80:	699b      	ldr	r3, [r3, #24]
 8003a82:	f003 0301 	and.w	r3, r3, #1
 8003a86:	60bb      	str	r3, [r7, #8]
 8003a88:	68bb      	ldr	r3, [r7, #8]
        temp = AFIO->EXTICR[position >> 2u];
 8003a8a:	4a54      	ldr	r2, [pc, #336]	; (8003bdc <HAL_GPIO_Init+0x29c>)
 8003a8c:	6a7b      	ldr	r3, [r7, #36]	; 0x24
 8003a8e:	089b      	lsrs	r3, r3, #2
 8003a90:	3302      	adds	r3, #2
 8003a92:	f852 3023 	ldr.w	r3, [r2, r3, lsl #2]
 8003a96:	60fb      	str	r3, [r7, #12]
        CLEAR_BIT(temp, (0x0Fu) << (4u * (position & 0x03u)));
 8003a98:	6a7b      	ldr	r3, [r7, #36]	; 0x24
 8003a9a:	f003 0303 	and.w	r3, r3, #3
 8003a9e:	009b      	lsls	r3, r3, #2
 8003aa0:	220f      	movs	r2, #15
 8003aa2:	fa02 f303 	lsl.w	r3, r2, r3
 8003aa6:	43db      	mvns	r3, r3
 8003aa8:	68fa      	ldr	r2, [r7, #12]
 8003aaa:	4013      	ands	r3, r2
 8003aac:	60fb      	str	r3, [r7, #12]
        SET_BIT(temp, (GPIO_GET_INDEX(GPIOx)) << (4u * (position & 0x03u)));
 8003aae:	687b      	ldr	r3, [r7, #4]
 8003ab0:	4a4b      	ldr	r2, [pc, #300]	; (8003be0 <HAL_GPIO_Init+0x2a0>)
 8003ab2:	4293      	cmp	r3, r2
 8003ab4:	d013      	beq.n	8003ade <HAL_GPIO_Init+0x19e>
 8003ab6:	687b      	ldr	r3, [r7, #4]
 8003ab8:	4a4a      	ldr	r2, [pc, #296]	; (8003be4 <HAL_GPIO_Init+0x2a4>)
 8003aba:	4293      	cmp	r3, r2
 8003abc:	d00d      	beq.n	8003ada <HAL_GPIO_Init+0x19a>
 8003abe:	687b      	ldr	r3, [r7, #4]
 8003ac0:	4a49      	ldr	r2, [pc, #292]	; (8003be8 <HAL_GPIO_Init+0x2a8>)
 8003ac2:	4293      	cmp	r3, r2
 8003ac4:	d007      	beq.n	8003ad6 <HAL_GPIO_Init+0x196>
 8003ac6:	687b      	ldr	r3, [r7, #4]
 8003ac8:	4a48      	ldr	r2, [pc, #288]	; (8003bec <HAL_GPIO_Init+0x2ac>)
 8003aca:	4293      	cmp	r3, r2
 8003acc:	d101      	bne.n	8003ad2 <HAL_GPIO_Init+0x192>
 8003ace:	2303      	movs	r3, #3
 8003ad0:	e006      	b.n	8003ae0 <HAL_GPIO_Init+0x1a0>
 8003ad2:	2304      	movs	r3, #4
 8003ad4:	e004      	b.n	8003ae0 <HAL_GPIO_Init+0x1a0>
 8003ad6:	2302      	movs	r3, #2
 8003ad8:	e002      	b.n	8003ae0 <HAL_GPIO_Init+0x1a0>
 8003ada:	2301      	movs	r3, #1
 8003adc:	e000      	b.n	8003ae0 <HAL_GPIO_Init+0x1a0>
 8003ade:	2300      	movs	r3, #0
 8003ae0:	6a7a      	ldr	r2, [r7, #36]	; 0x24
 8003ae2:	f002 0203 	and.w	r2, r2, #3
 8003ae6:	0092      	lsls	r2, r2, #2
 8003ae8:	4093      	lsls	r3, r2
 8003aea:	68fa      	ldr	r2, [r7, #12]
 8003aec:	4313      	orrs	r3, r2
 8003aee:	60fb      	str	r3, [r7, #12]
        AFIO->EXTICR[position >> 2u] = temp;
 8003af0:	493a      	ldr	r1, [pc, #232]	; (8003bdc <HAL_GPIO_Init+0x29c>)
 8003af2:	6a7b      	ldr	r3, [r7, #36]	; 0x24
 8003af4:	089b      	lsrs	r3, r3, #2
 8003af6:	3302      	adds	r3, #2
 8003af8:	68fa      	ldr	r2, [r7, #12]
 8003afa:	f841 2023 	str.w	r2, [r1, r3, lsl #2]


        /* Configure the interrupt mask */
        if ((GPIO_Init->Mode & GPIO_MODE_IT) == GPIO_MODE_IT)
 8003afe:	683b      	ldr	r3, [r7, #0]
 8003b00:	685b      	ldr	r3, [r3, #4]
 8003b02:	f403 3380 	and.w	r3, r3, #65536	; 0x10000
 8003b06:	2b00      	cmp	r3, #0
 8003b08:	d006      	beq.n	8003b18 <HAL_GPIO_Init+0x1d8>
        {
          SET_BIT(EXTI->IMR, iocurrent);
 8003b0a:	4b39      	ldr	r3, [pc, #228]	; (8003bf0 <HAL_GPIO_Init+0x2b0>)
 8003b0c:	681a      	ldr	r2, [r3, #0]
 8003b0e:	4938      	ldr	r1, [pc, #224]	; (8003bf0 <HAL_GPIO_Init+0x2b0>)
 8003b10:	69bb      	ldr	r3, [r7, #24]
 8003b12:	4313      	orrs	r3, r2
 8003b14:	600b      	str	r3, [r1, #0]
 8003b16:	e006      	b.n	8003b26 <HAL_GPIO_Init+0x1e6>
        }
        else
        {
          CLEAR_BIT(EXTI->IMR, iocurrent);
 8003b18:	4b35      	ldr	r3, [pc, #212]	; (8003bf0 <HAL_GPIO_Init+0x2b0>)
 8003b1a:	681a      	ldr	r2, [r3, #0]
 8003b1c:	69bb      	ldr	r3, [r7, #24]
 8003b1e:	43db      	mvns	r3, r3
 8003b20:	4933      	ldr	r1, [pc, #204]	; (8003bf0 <HAL_GPIO_Init+0x2b0>)
 8003b22:	4013      	ands	r3, r2
 8003b24:	600b      	str	r3, [r1, #0]
        }

        /* Configure the event mask */
        if ((GPIO_Init->Mode & GPIO_MODE_EVT) == GPIO_MODE_EVT)
 8003b26:	683b      	ldr	r3, [r7, #0]
 8003b28:	685b      	ldr	r3, [r3, #4]
 8003b2a:	f403 3300 	and.w	r3, r3, #131072	; 0x20000
 8003b2e:	2b00      	cmp	r3, #0
 8003b30:	d006      	beq.n	8003b40 <HAL_GPIO_Init+0x200>
        {
          SET_BIT(EXTI->EMR, iocurrent);
 8003b32:	4b2f      	ldr	r3, [pc, #188]	; (8003bf0 <HAL_GPIO_Init+0x2b0>)
 8003b34:	685a      	ldr	r2, [r3, #4]
 8003b36:	492e      	ldr	r1, [pc, #184]	; (8003bf0 <HAL_GPIO_Init+0x2b0>)
 8003b38:	69bb      	ldr	r3, [r7, #24]
 8003b3a:	4313      	orrs	r3, r2
 8003b3c:	604b      	str	r3, [r1, #4]
 8003b3e:	e006      	b.n	8003b4e <HAL_GPIO_Init+0x20e>
        }
        else
        {
          CLEAR_BIT(EXTI->EMR, iocurrent);
 8003b40:	4b2b      	ldr	r3, [pc, #172]	; (8003bf0 <HAL_GPIO_Init+0x2b0>)
 8003b42:	685a      	ldr	r2, [r3, #4]
 8003b44:	69bb      	ldr	r3, [r7, #24]
 8003b46:	43db      	mvns	r3, r3
 8003b48:	4929      	ldr	r1, [pc, #164]	; (8003bf0 <HAL_GPIO_Init+0x2b0>)
 8003b4a:	4013      	ands	r3, r2
 8003b4c:	604b      	str	r3, [r1, #4]
        }

        /* Enable or disable the rising trigger */
        if ((GPIO_Init->Mode & RISING_EDGE) == RISING_EDGE)
 8003b4e:	683b      	ldr	r3, [r7, #0]
 8003b50:	685b      	ldr	r3, [r3, #4]
 8003b52:	f403 1380 	and.w	r3, r3, #1048576	; 0x100000
 8003b56:	2b00      	cmp	r3, #0
 8003b58:	d006      	beq.n	8003b68 <HAL_GPIO_Init+0x228>
        {
          SET_BIT(EXTI->RTSR, iocurrent);
 8003b5a:	4b25      	ldr	r3, [pc, #148]	; (8003bf0 <HAL_GPIO_Init+0x2b0>)
 8003b5c:	689a      	ldr	r2, [r3, #8]
 8003b5e:	4924      	ldr	r1, [pc, #144]	; (8003bf0 <HAL_GPIO_Init+0x2b0>)
 8003b60:	69bb      	ldr	r3, [r7, #24]
 8003b62:	4313      	orrs	r3, r2
 8003b64:	608b      	str	r3, [r1, #8]
 8003b66:	e006      	b.n	8003b76 <HAL_GPIO_Init+0x236>
        }
        else
        {
          CLEAR_BIT(EXTI->RTSR, iocurrent);
 8003b68:	4b21      	ldr	r3, [pc, #132]	; (8003bf0 <HAL_GPIO_Init+0x2b0>)
 8003b6a:	689a      	ldr	r2, [r3, #8]
 8003b6c:	69bb      	ldr	r3, [r7, #24]
 8003b6e:	43db      	mvns	r3, r3
 8003b70:	491f      	ldr	r1, [pc, #124]	; (8003bf0 <HAL_GPIO_Init+0x2b0>)
 8003b72:	4013      	ands	r3, r2
 8003b74:	608b      	str	r3, [r1, #8]
        }

        /* Enable or disable the falling trigger */
        if ((GPIO_Init->Mode & FALLING_EDGE) == FALLING_EDGE)
 8003b76:	683b      	ldr	r3, [r7, #0]
 8003b78:	685b      	ldr	r3, [r3, #4]
 8003b7a:	f403 1300 	and.w	r3, r3, #2097152	; 0x200000
 8003b7e:	2b00      	cmp	r3, #0
 8003b80:	d006      	beq.n	8003b90 <HAL_GPIO_Init+0x250>
        {
          SET_BIT(EXTI->FTSR, iocurrent);
 8003b82:	4b1b      	ldr	r3, [pc, #108]	; (8003bf0 <HAL_GPIO_Init+0x2b0>)
 8003b84:	68da      	ldr	r2, [r3, #12]
 8003b86:	491a      	ldr	r1, [pc, #104]	; (8003bf0 <HAL_GPIO_Init+0x2b0>)
 8003b88:	69bb      	ldr	r3, [r7, #24]
 8003b8a:	4313      	orrs	r3, r2
 8003b8c:	60cb      	str	r3, [r1, #12]
 8003b8e:	e006      	b.n	8003b9e <HAL_GPIO_Init+0x25e>
        }
        else
        {
          CLEAR_BIT(EXTI->FTSR, iocurrent);
 8003b90:	4b17      	ldr	r3, [pc, #92]	; (8003bf0 <HAL_GPIO_Init+0x2b0>)
 8003b92:	68da      	ldr	r2, [r3, #12]
 8003b94:	69bb      	ldr	r3, [r7, #24]
 8003b96:	43db      	mvns	r3, r3
 8003b98:	4915      	ldr	r1, [pc, #84]	; (8003bf0 <HAL_GPIO_Init+0x2b0>)
 8003b9a:	4013      	ands	r3, r2
 8003b9c:	60cb      	str	r3, [r1, #12]
        }
      }
    }

	position++;
 8003b9e:	6a7b      	ldr	r3, [r7, #36]	; 0x24
 8003ba0:	3301      	adds	r3, #1
 8003ba2:	627b      	str	r3, [r7, #36]	; 0x24
  while (((GPIO_Init->Pin) >> position) != 0x00u)
 8003ba4:	683b      	ldr	r3, [r7, #0]
 8003ba6:	681a      	ldr	r2, [r3, #0]
 8003ba8:	6a7b      	ldr	r3, [r7, #36]	; 0x24
 8003baa:	fa22 f303 	lsr.w	r3, r2, r3
 8003bae:	2b00      	cmp	r3, #0
 8003bb0:	f47f aed0 	bne.w	8003954 <HAL_GPIO_Init+0x14>
  }
}
 8003bb4:	bf00      	nop
 8003bb6:	372c      	adds	r7, #44	; 0x2c
 8003bb8:	46bd      	mov	sp, r7
 8003bba:	bc80      	pop	{r7}
 8003bbc:	4770      	bx	lr
 8003bbe:	bf00      	nop
 8003bc0:	10210000 	.word	0x10210000
 8003bc4:	10110000 	.word	0x10110000
 8003bc8:	10120000 	.word	0x10120000
 8003bcc:	10310000 	.word	0x10310000
 8003bd0:	10320000 	.word	0x10320000
 8003bd4:	10220000 	.word	0x10220000
 8003bd8:	40021000 	.word	0x40021000
 8003bdc:	40010000 	.word	0x40010000
 8003be0:	40010800 	.word	0x40010800
 8003be4:	40010c00 	.word	0x40010c00
 8003be8:	40011000 	.word	0x40011000
 8003bec:	40011400 	.word	0x40011400
 8003bf0:	40010400 	.word	0x40010400

08003bf4 <HAL_GPIO_ReadPin>:
  * @param  GPIO_Pin: specifies the port bit to read.
  *         This parameter can be GPIO_PIN_x where x can be (0..15).
  * @retval The input port pin value.
  */
GPIO_PinState HAL_GPIO_ReadPin(GPIO_TypeDef *GPIOx, uint16_t GPIO_Pin)
{
 8003bf4:	b480      	push	{r7}
 8003bf6:	b085      	sub	sp, #20
 8003bf8:	af00      	add	r7, sp, #0
 8003bfa:	6078      	str	r0, [r7, #4]
 8003bfc:	460b      	mov	r3, r1
 8003bfe:	807b      	strh	r3, [r7, #2]
  GPIO_PinState bitstatus;

  /* Check the parameters */
  assert_param(IS_GPIO_PIN(GPIO_Pin));

  if ((GPIOx->IDR & GPIO_Pin) != (uint32_t)GPIO_PIN_RESET)
 8003c00:	687b      	ldr	r3, [r7, #4]
 8003c02:	689a      	ldr	r2, [r3, #8]
 8003c04:	887b      	ldrh	r3, [r7, #2]
 8003c06:	4013      	ands	r3, r2
 8003c08:	2b00      	cmp	r3, #0
 8003c0a:	d002      	beq.n	8003c12 <HAL_GPIO_ReadPin+0x1e>
  {
    bitstatus = GPIO_PIN_SET;
 8003c0c:	2301      	movs	r3, #1
 8003c0e:	73fb      	strb	r3, [r7, #15]
 8003c10:	e001      	b.n	8003c16 <HAL_GPIO_ReadPin+0x22>
  }
  else
  {
    bitstatus = GPIO_PIN_RESET;
 8003c12:	2300      	movs	r3, #0
 8003c14:	73fb      	strb	r3, [r7, #15]
  }
  return bitstatus;
 8003c16:	7bfb      	ldrb	r3, [r7, #15]
}
 8003c18:	4618      	mov	r0, r3
 8003c1a:	3714      	adds	r7, #20
 8003c1c:	46bd      	mov	sp, r7
 8003c1e:	bc80      	pop	{r7}
 8003c20:	4770      	bx	lr

08003c22 <HAL_GPIO_WritePin>:
  *            @arg GPIO_PIN_RESET: to clear the port pin
  *            @arg GPIO_PIN_SET: to set the port pin
  * @retval None
  */
void HAL_GPIO_WritePin(GPIO_TypeDef *GPIOx, uint16_t GPIO_Pin, GPIO_PinState PinState)
{
 8003c22:	b480      	push	{r7}
 8003c24:	b083      	sub	sp, #12
 8003c26:	af00      	add	r7, sp, #0
 8003c28:	6078      	str	r0, [r7, #4]
 8003c2a:	460b      	mov	r3, r1
 8003c2c:	807b      	strh	r3, [r7, #2]
 8003c2e:	4613      	mov	r3, r2
 8003c30:	707b      	strb	r3, [r7, #1]
  /* Check the parameters */
  assert_param(IS_GPIO_PIN(GPIO_Pin));
  assert_param(IS_GPIO_PIN_ACTION(PinState));

  if (PinState != GPIO_PIN_RESET)
 8003c32:	787b      	ldrb	r3, [r7, #1]
 8003c34:	2b00      	cmp	r3, #0
 8003c36:	d003      	beq.n	8003c40 <HAL_GPIO_WritePin+0x1e>
  {
    GPIOx->BSRR = GPIO_Pin;
 8003c38:	887a      	ldrh	r2, [r7, #2]
 8003c3a:	687b      	ldr	r3, [r7, #4]
 8003c3c:	611a      	str	r2, [r3, #16]
  }
  else
  {
    GPIOx->BSRR = (uint32_t)GPIO_Pin << 16u;
  }
}
 8003c3e:	e003      	b.n	8003c48 <HAL_GPIO_WritePin+0x26>
    GPIOx->BSRR = (uint32_t)GPIO_Pin << 16u;
 8003c40:	887b      	ldrh	r3, [r7, #2]
 8003c42:	041a      	lsls	r2, r3, #16
 8003c44:	687b      	ldr	r3, [r7, #4]
 8003c46:	611a      	str	r2, [r3, #16]
}
 8003c48:	bf00      	nop
 8003c4a:	370c      	adds	r7, #12
 8003c4c:	46bd      	mov	sp, r7
 8003c4e:	bc80      	pop	{r7}
 8003c50:	4770      	bx	lr

08003c52 <HAL_GPIO_TogglePin>:
  * @param  GPIOx: where x can be (A..G depending on device used) to select the GPIO peripheral
  * @param  GPIO_Pin: Specifies the pins to be toggled.
  * @retval None
  */
void HAL_GPIO_TogglePin(GPIO_TypeDef *GPIOx, uint16_t GPIO_Pin)
{
 8003c52:	b480      	push	{r7}
 8003c54:	b083      	sub	sp, #12
 8003c56:	af00      	add	r7, sp, #0
 8003c58:	6078      	str	r0, [r7, #4]
 8003c5a:	460b      	mov	r3, r1
 8003c5c:	807b      	strh	r3, [r7, #2]
  /* Check the parameters */
  assert_param(IS_GPIO_PIN(GPIO_Pin));

  if ((GPIOx->ODR & GPIO_Pin) != 0x00u)
 8003c5e:	687b      	ldr	r3, [r7, #4]
 8003c60:	68da      	ldr	r2, [r3, #12]
 8003c62:	887b      	ldrh	r3, [r7, #2]
 8003c64:	4013      	ands	r3, r2
 8003c66:	2b00      	cmp	r3, #0
 8003c68:	d003      	beq.n	8003c72 <HAL_GPIO_TogglePin+0x20>
  {
    GPIOx->BRR = (uint32_t)GPIO_Pin;
 8003c6a:	887a      	ldrh	r2, [r7, #2]
 8003c6c:	687b      	ldr	r3, [r7, #4]
 8003c6e:	615a      	str	r2, [r3, #20]
  }
  else
  {
    GPIOx->BSRR = (uint32_t)GPIO_Pin;
  }
}
 8003c70:	e002      	b.n	8003c78 <HAL_GPIO_TogglePin+0x26>
    GPIOx->BSRR = (uint32_t)GPIO_Pin;
 8003c72:	887a      	ldrh	r2, [r7, #2]
 8003c74:	687b      	ldr	r3, [r7, #4]
 8003c76:	611a      	str	r2, [r3, #16]
}
 8003c78:	bf00      	nop
 8003c7a:	370c      	adds	r7, #12
 8003c7c:	46bd      	mov	sp, r7
 8003c7e:	bc80      	pop	{r7}
 8003c80:	4770      	bx	lr
	...

08003c84 <HAL_I2C_Init>:
  * @param  hi2c Pointer to a I2C_HandleTypeDef structure that contains
  *                the configuration information for the specified I2C.
  * @retval HAL status
  */
HAL_StatusTypeDef HAL_I2C_Init(I2C_HandleTypeDef *hi2c)
{
 8003c84:	b580      	push	{r7, lr}
 8003c86:	b084      	sub	sp, #16
 8003c88:	af00      	add	r7, sp, #0
 8003c8a:	6078      	str	r0, [r7, #4]
  uint32_t freqrange;
  uint32_t pclk1;

  /* Check the I2C handle allocation */
  if (hi2c == NULL)
 8003c8c:	687b      	ldr	r3, [r7, #4]
 8003c8e:	2b00      	cmp	r3, #0
 8003c90:	d101      	bne.n	8003c96 <HAL_I2C_Init+0x12>
  {
    return HAL_ERROR;
 8003c92:	2301      	movs	r3, #1
 8003c94:	e10f      	b.n	8003eb6 <HAL_I2C_Init+0x232>
  assert_param(IS_I2C_DUAL_ADDRESS(hi2c->Init.DualAddressMode));
  assert_param(IS_I2C_OWN_ADDRESS2(hi2c->Init.OwnAddress2));
  assert_param(IS_I2C_GENERAL_CALL(hi2c->Init.GeneralCallMode));
  assert_param(IS_I2C_NO_STRETCH(hi2c->Init.NoStretchMode));

  if (hi2c->State == HAL_I2C_STATE_RESET)
 8003c96:	687b      	ldr	r3, [r7, #4]
 8003c98:	f893 303d 	ldrb.w	r3, [r3, #61]	; 0x3d
 8003c9c:	b2db      	uxtb	r3, r3
 8003c9e:	2b00      	cmp	r3, #0
 8003ca0:	d106      	bne.n	8003cb0 <HAL_I2C_Init+0x2c>
  {
    /* Allocate lock resource and initialize it */
    hi2c->Lock = HAL_UNLOCKED;
 8003ca2:	687b      	ldr	r3, [r7, #4]
 8003ca4:	2200      	movs	r2, #0
 8003ca6:	f883 203c 	strb.w	r2, [r3, #60]	; 0x3c

    /* Init the low level hardware : GPIO, CLOCK, NVIC */
    hi2c->MspInitCallback(hi2c);
#else
    /* Init the low level hardware : GPIO, CLOCK, NVIC */
    HAL_I2C_MspInit(hi2c);
 8003caa:	6878      	ldr	r0, [r7, #4]
 8003cac:	f7fe f81e 	bl	8001cec <HAL_I2C_MspInit>
#endif /* USE_HAL_I2C_REGISTER_CALLBACKS */
  }

  hi2c->State = HAL_I2C_STATE_BUSY;
 8003cb0:	687b      	ldr	r3, [r7, #4]
 8003cb2:	2224      	movs	r2, #36	; 0x24
 8003cb4:	f883 203d 	strb.w	r2, [r3, #61]	; 0x3d

  /* Disable the selected I2C peripheral */
  __HAL_I2C_DISABLE(hi2c);
 8003cb8:	687b      	ldr	r3, [r7, #4]
 8003cba:	681b      	ldr	r3, [r3, #0]
 8003cbc:	681a      	ldr	r2, [r3, #0]
 8003cbe:	687b      	ldr	r3, [r7, #4]
 8003cc0:	681b      	ldr	r3, [r3, #0]
 8003cc2:	f022 0201 	bic.w	r2, r2, #1
 8003cc6:	601a      	str	r2, [r3, #0]

  /* Get PCLK1 frequency */
  pclk1 = HAL_RCC_GetPCLK1Freq();
 8003cc8:	f001 f8ea 	bl	8004ea0 <HAL_RCC_GetPCLK1Freq>
 8003ccc:	60f8      	str	r0, [r7, #12]

  /* Check the minimum allowed PCLK1 frequency */
  if (I2C_MIN_PCLK_FREQ(pclk1, hi2c->Init.ClockSpeed) == 1U)
 8003cce:	687b      	ldr	r3, [r7, #4]
 8003cd0:	685b      	ldr	r3, [r3, #4]
 8003cd2:	4a7b      	ldr	r2, [pc, #492]	; (8003ec0 <HAL_I2C_Init+0x23c>)
 8003cd4:	4293      	cmp	r3, r2
 8003cd6:	d807      	bhi.n	8003ce8 <HAL_I2C_Init+0x64>
 8003cd8:	68fb      	ldr	r3, [r7, #12]
 8003cda:	4a7a      	ldr	r2, [pc, #488]	; (8003ec4 <HAL_I2C_Init+0x240>)
 8003cdc:	4293      	cmp	r3, r2
 8003cde:	bf94      	ite	ls
 8003ce0:	2301      	movls	r3, #1
 8003ce2:	2300      	movhi	r3, #0
 8003ce4:	b2db      	uxtb	r3, r3
 8003ce6:	e006      	b.n	8003cf6 <HAL_I2C_Init+0x72>
 8003ce8:	68fb      	ldr	r3, [r7, #12]
 8003cea:	4a77      	ldr	r2, [pc, #476]	; (8003ec8 <HAL_I2C_Init+0x244>)
 8003cec:	4293      	cmp	r3, r2
 8003cee:	bf94      	ite	ls
 8003cf0:	2301      	movls	r3, #1
 8003cf2:	2300      	movhi	r3, #0
 8003cf4:	b2db      	uxtb	r3, r3
 8003cf6:	2b00      	cmp	r3, #0
 8003cf8:	d001      	beq.n	8003cfe <HAL_I2C_Init+0x7a>
  {
    return HAL_ERROR;
 8003cfa:	2301      	movs	r3, #1
 8003cfc:	e0db      	b.n	8003eb6 <HAL_I2C_Init+0x232>
  }

  /* Calculate frequency range */
  freqrange = I2C_FREQRANGE(pclk1);
 8003cfe:	68fb      	ldr	r3, [r7, #12]
 8003d00:	4a72      	ldr	r2, [pc, #456]	; (8003ecc <HAL_I2C_Init+0x248>)
 8003d02:	fba2 2303 	umull	r2, r3, r2, r3
 8003d06:	0c9b      	lsrs	r3, r3, #18
 8003d08:	60bb      	str	r3, [r7, #8]

  /*---------------------------- I2Cx CR2 Configuration ----------------------*/
  /* Configure I2Cx: Frequency range */
  MODIFY_REG(hi2c->Instance->CR2, I2C_CR2_FREQ, freqrange);
 8003d0a:	687b      	ldr	r3, [r7, #4]
 8003d0c:	681b      	ldr	r3, [r3, #0]
 8003d0e:	685b      	ldr	r3, [r3, #4]
 8003d10:	f023 013f 	bic.w	r1, r3, #63	; 0x3f
 8003d14:	687b      	ldr	r3, [r7, #4]
 8003d16:	681b      	ldr	r3, [r3, #0]
 8003d18:	68ba      	ldr	r2, [r7, #8]
 8003d1a:	430a      	orrs	r2, r1
 8003d1c:	605a      	str	r2, [r3, #4]

  /*---------------------------- I2Cx TRISE Configuration --------------------*/
  /* Configure I2Cx: Rise Time */
  MODIFY_REG(hi2c->Instance->TRISE, I2C_TRISE_TRISE, I2C_RISE_TIME(freqrange, hi2c->Init.ClockSpeed));
 8003d1e:	687b      	ldr	r3, [r7, #4]
 8003d20:	681b      	ldr	r3, [r3, #0]
 8003d22:	6a1b      	ldr	r3, [r3, #32]
 8003d24:	f023 013f 	bic.w	r1, r3, #63	; 0x3f
 8003d28:	687b      	ldr	r3, [r7, #4]
 8003d2a:	685b      	ldr	r3, [r3, #4]
 8003d2c:	4a64      	ldr	r2, [pc, #400]	; (8003ec0 <HAL_I2C_Init+0x23c>)
 8003d2e:	4293      	cmp	r3, r2
 8003d30:	d802      	bhi.n	8003d38 <HAL_I2C_Init+0xb4>
 8003d32:	68bb      	ldr	r3, [r7, #8]
 8003d34:	3301      	adds	r3, #1
 8003d36:	e009      	b.n	8003d4c <HAL_I2C_Init+0xc8>
 8003d38:	68bb      	ldr	r3, [r7, #8]
 8003d3a:	f44f 7296 	mov.w	r2, #300	; 0x12c
 8003d3e:	fb02 f303 	mul.w	r3, r2, r3
 8003d42:	4a63      	ldr	r2, [pc, #396]	; (8003ed0 <HAL_I2C_Init+0x24c>)
 8003d44:	fba2 2303 	umull	r2, r3, r2, r3
 8003d48:	099b      	lsrs	r3, r3, #6
 8003d4a:	3301      	adds	r3, #1
 8003d4c:	687a      	ldr	r2, [r7, #4]
 8003d4e:	6812      	ldr	r2, [r2, #0]
 8003d50:	430b      	orrs	r3, r1
 8003d52:	6213      	str	r3, [r2, #32]

  /*---------------------------- I2Cx CCR Configuration ----------------------*/
  /* Configure I2Cx: Speed */
  MODIFY_REG(hi2c->Instance->CCR, (I2C_CCR_FS | I2C_CCR_DUTY | I2C_CCR_CCR), I2C_SPEED(pclk1, hi2c->Init.ClockSpeed, hi2c->Init.DutyCycle));
 8003d54:	687b      	ldr	r3, [r7, #4]
 8003d56:	681b      	ldr	r3, [r3, #0]
 8003d58:	69db      	ldr	r3, [r3, #28]
 8003d5a:	f423 424f 	bic.w	r2, r3, #52992	; 0xcf00
 8003d5e:	f022 02ff 	bic.w	r2, r2, #255	; 0xff
 8003d62:	687b      	ldr	r3, [r7, #4]
 8003d64:	685b      	ldr	r3, [r3, #4]
 8003d66:	4956      	ldr	r1, [pc, #344]	; (8003ec0 <HAL_I2C_Init+0x23c>)
 8003d68:	428b      	cmp	r3, r1
 8003d6a:	d80d      	bhi.n	8003d88 <HAL_I2C_Init+0x104>
 8003d6c:	68fb      	ldr	r3, [r7, #12]
 8003d6e:	1e59      	subs	r1, r3, #1
 8003d70:	687b      	ldr	r3, [r7, #4]
 8003d72:	685b      	ldr	r3, [r3, #4]
 8003d74:	005b      	lsls	r3, r3, #1
 8003d76:	fbb1 f3f3 	udiv	r3, r1, r3
 8003d7a:	3301      	adds	r3, #1
 8003d7c:	f3c3 030b 	ubfx	r3, r3, #0, #12
 8003d80:	2b04      	cmp	r3, #4
 8003d82:	bf38      	it	cc
 8003d84:	2304      	movcc	r3, #4
 8003d86:	e04f      	b.n	8003e28 <HAL_I2C_Init+0x1a4>
 8003d88:	687b      	ldr	r3, [r7, #4]
 8003d8a:	689b      	ldr	r3, [r3, #8]
 8003d8c:	2b00      	cmp	r3, #0
 8003d8e:	d111      	bne.n	8003db4 <HAL_I2C_Init+0x130>
 8003d90:	68fb      	ldr	r3, [r7, #12]
 8003d92:	1e58      	subs	r0, r3, #1
 8003d94:	687b      	ldr	r3, [r7, #4]
 8003d96:	6859      	ldr	r1, [r3, #4]
 8003d98:	460b      	mov	r3, r1
 8003d9a:	005b      	lsls	r3, r3, #1
 8003d9c:	440b      	add	r3, r1
 8003d9e:	fbb0 f3f3 	udiv	r3, r0, r3
 8003da2:	3301      	adds	r3, #1
 8003da4:	f3c3 030b 	ubfx	r3, r3, #0, #12
 8003da8:	2b00      	cmp	r3, #0
 8003daa:	bf0c      	ite	eq
 8003dac:	2301      	moveq	r3, #1
 8003dae:	2300      	movne	r3, #0
 8003db0:	b2db      	uxtb	r3, r3
 8003db2:	e012      	b.n	8003dda <HAL_I2C_Init+0x156>
 8003db4:	68fb      	ldr	r3, [r7, #12]
 8003db6:	1e58      	subs	r0, r3, #1
 8003db8:	687b      	ldr	r3, [r7, #4]
 8003dba:	6859      	ldr	r1, [r3, #4]
 8003dbc:	460b      	mov	r3, r1
 8003dbe:	009b      	lsls	r3, r3, #2
 8003dc0:	440b      	add	r3, r1
 8003dc2:	0099      	lsls	r1, r3, #2
 8003dc4:	440b      	add	r3, r1
 8003dc6:	fbb0 f3f3 	udiv	r3, r0, r3
 8003dca:	3301      	adds	r3, #1
 8003dcc:	f3c3 030b 	ubfx	r3, r3, #0, #12
 8003dd0:	2b00      	cmp	r3, #0
 8003dd2:	bf0c      	ite	eq
 8003dd4:	2301      	moveq	r3, #1
 8003dd6:	2300      	movne	r3, #0
 8003dd8:	b2db      	uxtb	r3, r3
 8003dda:	2b00      	cmp	r3, #0
 8003ddc:	d001      	beq.n	8003de2 <HAL_I2C_Init+0x15e>
 8003dde:	2301      	movs	r3, #1
 8003de0:	e022      	b.n	8003e28 <HAL_I2C_Init+0x1a4>
 8003de2:	687b      	ldr	r3, [r7, #4]
 8003de4:	689b      	ldr	r3, [r3, #8]
 8003de6:	2b00      	cmp	r3, #0
 8003de8:	d10e      	bne.n	8003e08 <HAL_I2C_Init+0x184>
 8003dea:	68fb      	ldr	r3, [r7, #12]
 8003dec:	1e58      	subs	r0, r3, #1
 8003dee:	687b      	ldr	r3, [r7, #4]
 8003df0:	6859      	ldr	r1, [r3, #4]
 8003df2:	460b      	mov	r3, r1
 8003df4:	005b      	lsls	r3, r3, #1
 8003df6:	440b      	add	r3, r1
 8003df8:	fbb0 f3f3 	udiv	r3, r0, r3
 8003dfc:	3301      	adds	r3, #1
 8003dfe:	f3c3 030b 	ubfx	r3, r3, #0, #12
 8003e02:	f443 4300 	orr.w	r3, r3, #32768	; 0x8000
 8003e06:	e00f      	b.n	8003e28 <HAL_I2C_Init+0x1a4>
 8003e08:	68fb      	ldr	r3, [r7, #12]
 8003e0a:	1e58      	subs	r0, r3, #1
 8003e0c:	687b      	ldr	r3, [r7, #4]
 8003e0e:	6859      	ldr	r1, [r3, #4]
 8003e10:	460b      	mov	r3, r1
 8003e12:	009b      	lsls	r3, r3, #2
 8003e14:	440b      	add	r3, r1
 8003e16:	0099      	lsls	r1, r3, #2
 8003e18:	440b      	add	r3, r1
 8003e1a:	fbb0 f3f3 	udiv	r3, r0, r3
 8003e1e:	3301      	adds	r3, #1
 8003e20:	f3c3 030b 	ubfx	r3, r3, #0, #12
 8003e24:	f443 4340 	orr.w	r3, r3, #49152	; 0xc000
 8003e28:	6879      	ldr	r1, [r7, #4]
 8003e2a:	6809      	ldr	r1, [r1, #0]
 8003e2c:	4313      	orrs	r3, r2
 8003e2e:	61cb      	str	r3, [r1, #28]

  /*---------------------------- I2Cx CR1 Configuration ----------------------*/
  /* Configure I2Cx: Generalcall and NoStretch mode */
  MODIFY_REG(hi2c->Instance->CR1, (I2C_CR1_ENGC | I2C_CR1_NOSTRETCH), (hi2c->Init.GeneralCallMode | hi2c->Init.NoStretchMode));
 8003e30:	687b      	ldr	r3, [r7, #4]
 8003e32:	681b      	ldr	r3, [r3, #0]
 8003e34:	681b      	ldr	r3, [r3, #0]
 8003e36:	f023 01c0 	bic.w	r1, r3, #192	; 0xc0
 8003e3a:	687b      	ldr	r3, [r7, #4]
 8003e3c:	69da      	ldr	r2, [r3, #28]
 8003e3e:	687b      	ldr	r3, [r7, #4]
 8003e40:	6a1b      	ldr	r3, [r3, #32]
 8003e42:	431a      	orrs	r2, r3
 8003e44:	687b      	ldr	r3, [r7, #4]
 8003e46:	681b      	ldr	r3, [r3, #0]
 8003e48:	430a      	orrs	r2, r1
 8003e4a:	601a      	str	r2, [r3, #0]

  /*---------------------------- I2Cx OAR1 Configuration ---------------------*/
  /* Configure I2Cx: Own Address1 and addressing mode */
  MODIFY_REG(hi2c->Instance->OAR1, (I2C_OAR1_ADDMODE | I2C_OAR1_ADD8_9 | I2C_OAR1_ADD1_7 | I2C_OAR1_ADD0), (hi2c->Init.AddressingMode | hi2c->Init.OwnAddress1));
 8003e4c:	687b      	ldr	r3, [r7, #4]
 8003e4e:	681b      	ldr	r3, [r3, #0]
 8003e50:	689b      	ldr	r3, [r3, #8]
 8003e52:	f423 4303 	bic.w	r3, r3, #33536	; 0x8300
 8003e56:	f023 03ff 	bic.w	r3, r3, #255	; 0xff
 8003e5a:	687a      	ldr	r2, [r7, #4]
 8003e5c:	6911      	ldr	r1, [r2, #16]
 8003e5e:	687a      	ldr	r2, [r7, #4]
 8003e60:	68d2      	ldr	r2, [r2, #12]
 8003e62:	4311      	orrs	r1, r2
 8003e64:	687a      	ldr	r2, [r7, #4]
 8003e66:	6812      	ldr	r2, [r2, #0]
 8003e68:	430b      	orrs	r3, r1
 8003e6a:	6093      	str	r3, [r2, #8]

  /*---------------------------- I2Cx OAR2 Configuration ---------------------*/
  /* Configure I2Cx: Dual mode and Own Address2 */
  MODIFY_REG(hi2c->Instance->OAR2, (I2C_OAR2_ENDUAL | I2C_OAR2_ADD2), (hi2c->Init.DualAddressMode | hi2c->Init.OwnAddress2));
 8003e6c:	687b      	ldr	r3, [r7, #4]
 8003e6e:	681b      	ldr	r3, [r3, #0]
 8003e70:	68db      	ldr	r3, [r3, #12]
 8003e72:	f023 01ff 	bic.w	r1, r3, #255	; 0xff
 8003e76:	687b      	ldr	r3, [r7, #4]
 8003e78:	695a      	ldr	r2, [r3, #20]
 8003e7a:	687b      	ldr	r3, [r7, #4]
 8003e7c:	699b      	ldr	r3, [r3, #24]
 8003e7e:	431a      	orrs	r2, r3
 8003e80:	687b      	ldr	r3, [r7, #4]
 8003e82:	681b      	ldr	r3, [r3, #0]
 8003e84:	430a      	orrs	r2, r1
 8003e86:	60da      	str	r2, [r3, #12]

  /* Enable the selected I2C peripheral */
  __HAL_I2C_ENABLE(hi2c);
 8003e88:	687b      	ldr	r3, [r7, #4]
 8003e8a:	681b      	ldr	r3, [r3, #0]
 8003e8c:	681a      	ldr	r2, [r3, #0]
 8003e8e:	687b      	ldr	r3, [r7, #4]
 8003e90:	681b      	ldr	r3, [r3, #0]
 8003e92:	f042 0201 	orr.w	r2, r2, #1
 8003e96:	601a      	str	r2, [r3, #0]

  hi2c->ErrorCode = HAL_I2C_ERROR_NONE;
 8003e98:	687b      	ldr	r3, [r7, #4]
 8003e9a:	2200      	movs	r2, #0
 8003e9c:	641a      	str	r2, [r3, #64]	; 0x40
  hi2c->State = HAL_I2C_STATE_READY;
 8003e9e:	687b      	ldr	r3, [r7, #4]
 8003ea0:	2220      	movs	r2, #32
 8003ea2:	f883 203d 	strb.w	r2, [r3, #61]	; 0x3d
  hi2c->PreviousState = I2C_STATE_NONE;
 8003ea6:	687b      	ldr	r3, [r7, #4]
 8003ea8:	2200      	movs	r2, #0
 8003eaa:	631a      	str	r2, [r3, #48]	; 0x30
  hi2c->Mode = HAL_I2C_MODE_NONE;
 8003eac:	687b      	ldr	r3, [r7, #4]
 8003eae:	2200      	movs	r2, #0
 8003eb0:	f883 203e 	strb.w	r2, [r3, #62]	; 0x3e

  return HAL_OK;
 8003eb4:	2300      	movs	r3, #0
}
 8003eb6:	4618      	mov	r0, r3
 8003eb8:	3710      	adds	r7, #16
 8003eba:	46bd      	mov	sp, r7
 8003ebc:	bd80      	pop	{r7, pc}
 8003ebe:	bf00      	nop
 8003ec0:	000186a0 	.word	0x000186a0
 8003ec4:	001e847f 	.word	0x001e847f
 8003ec8:	003d08ff 	.word	0x003d08ff
 8003ecc:	431bde83 	.word	0x431bde83
 8003ed0:	10624dd3 	.word	0x10624dd3

08003ed4 <HAL_I2C_Master_Receive>:
  * @param  Size Amount of data to be sent
  * @param  Timeout Timeout duration
  * @retval HAL status
  */
HAL_StatusTypeDef HAL_I2C_Master_Receive(I2C_HandleTypeDef *hi2c, uint16_t DevAddress, uint8_t *pData, uint16_t Size, uint32_t Timeout)
{
 8003ed4:	b580      	push	{r7, lr}
 8003ed6:	b08c      	sub	sp, #48	; 0x30
 8003ed8:	af02      	add	r7, sp, #8
 8003eda:	60f8      	str	r0, [r7, #12]
 8003edc:	607a      	str	r2, [r7, #4]
 8003ede:	461a      	mov	r2, r3
 8003ee0:	460b      	mov	r3, r1
 8003ee2:	817b      	strh	r3, [r7, #10]
 8003ee4:	4613      	mov	r3, r2
 8003ee6:	813b      	strh	r3, [r7, #8]
  /* Init tickstart for timeout management*/
  uint32_t tickstart = HAL_GetTick();
 8003ee8:	f7fe f946 	bl	8002178 <HAL_GetTick>
 8003eec:	6278      	str	r0, [r7, #36]	; 0x24

  if (hi2c->State == HAL_I2C_STATE_READY)
 8003eee:	68fb      	ldr	r3, [r7, #12]
 8003ef0:	f893 303d 	ldrb.w	r3, [r3, #61]	; 0x3d
 8003ef4:	b2db      	uxtb	r3, r3
 8003ef6:	2b20      	cmp	r3, #32
 8003ef8:	f040 8213 	bne.w	8004322 <HAL_I2C_Master_Receive+0x44e>
  {
    /* Wait until BUSY flag is reset */
    if (I2C_WaitOnFlagUntilTimeout(hi2c, I2C_FLAG_BUSY, SET, I2C_TIMEOUT_BUSY_FLAG, tickstart) != HAL_OK)
 8003efc:	6a7b      	ldr	r3, [r7, #36]	; 0x24
 8003efe:	9300      	str	r3, [sp, #0]
 8003f00:	2319      	movs	r3, #25
 8003f02:	2201      	movs	r2, #1
 8003f04:	497e      	ldr	r1, [pc, #504]	; (8004100 <HAL_I2C_Master_Receive+0x22c>)
 8003f06:	68f8      	ldr	r0, [r7, #12]
 8003f08:	f000 fac8 	bl	800449c <I2C_WaitOnFlagUntilTimeout>
 8003f0c:	4603      	mov	r3, r0
 8003f0e:	2b00      	cmp	r3, #0
 8003f10:	d001      	beq.n	8003f16 <HAL_I2C_Master_Receive+0x42>
    {
      return HAL_BUSY;
 8003f12:	2302      	movs	r3, #2
 8003f14:	e206      	b.n	8004324 <HAL_I2C_Master_Receive+0x450>
    }

    /* Process Locked */
    __HAL_LOCK(hi2c);
 8003f16:	68fb      	ldr	r3, [r7, #12]
 8003f18:	f893 303c 	ldrb.w	r3, [r3, #60]	; 0x3c
 8003f1c:	2b01      	cmp	r3, #1
 8003f1e:	d101      	bne.n	8003f24 <HAL_I2C_Master_Receive+0x50>
 8003f20:	2302      	movs	r3, #2
 8003f22:	e1ff      	b.n	8004324 <HAL_I2C_Master_Receive+0x450>
 8003f24:	68fb      	ldr	r3, [r7, #12]
 8003f26:	2201      	movs	r2, #1
 8003f28:	f883 203c 	strb.w	r2, [r3, #60]	; 0x3c

    /* Check if the I2C is already enabled */
    if ((hi2c->Instance->CR1 & I2C_CR1_PE) != I2C_CR1_PE)
 8003f2c:	68fb      	ldr	r3, [r7, #12]
 8003f2e:	681b      	ldr	r3, [r3, #0]
 8003f30:	681b      	ldr	r3, [r3, #0]
 8003f32:	f003 0301 	and.w	r3, r3, #1
 8003f36:	2b01      	cmp	r3, #1
 8003f38:	d007      	beq.n	8003f4a <HAL_I2C_Master_Receive+0x76>
    {
      /* Enable I2C peripheral */
      __HAL_I2C_ENABLE(hi2c);
 8003f3a:	68fb      	ldr	r3, [r7, #12]
 8003f3c:	681b      	ldr	r3, [r3, #0]
 8003f3e:	681a      	ldr	r2, [r3, #0]
 8003f40:	68fb      	ldr	r3, [r7, #12]
 8003f42:	681b      	ldr	r3, [r3, #0]
 8003f44:	f042 0201 	orr.w	r2, r2, #1
 8003f48:	601a      	str	r2, [r3, #0]
    }

    /* Disable Pos */
    CLEAR_BIT(hi2c->Instance->CR1, I2C_CR1_POS);
 8003f4a:	68fb      	ldr	r3, [r7, #12]
 8003f4c:	681b      	ldr	r3, [r3, #0]
 8003f4e:	681a      	ldr	r2, [r3, #0]
 8003f50:	68fb      	ldr	r3, [r7, #12]
 8003f52:	681b      	ldr	r3, [r3, #0]
 8003f54:	f422 6200 	bic.w	r2, r2, #2048	; 0x800
 8003f58:	601a      	str	r2, [r3, #0]

    hi2c->State       = HAL_I2C_STATE_BUSY_RX;
 8003f5a:	68fb      	ldr	r3, [r7, #12]
 8003f5c:	2222      	movs	r2, #34	; 0x22
 8003f5e:	f883 203d 	strb.w	r2, [r3, #61]	; 0x3d
    hi2c->Mode        = HAL_I2C_MODE_MASTER;
 8003f62:	68fb      	ldr	r3, [r7, #12]
 8003f64:	2210      	movs	r2, #16
 8003f66:	f883 203e 	strb.w	r2, [r3, #62]	; 0x3e
    hi2c->ErrorCode   = HAL_I2C_ERROR_NONE;
 8003f6a:	68fb      	ldr	r3, [r7, #12]
 8003f6c:	2200      	movs	r2, #0
 8003f6e:	641a      	str	r2, [r3, #64]	; 0x40

    /* Prepare transfer parameters */
    hi2c->pBuffPtr    = pData;
 8003f70:	68fb      	ldr	r3, [r7, #12]
 8003f72:	687a      	ldr	r2, [r7, #4]
 8003f74:	625a      	str	r2, [r3, #36]	; 0x24
    hi2c->XferCount   = Size;
 8003f76:	68fb      	ldr	r3, [r7, #12]
 8003f78:	893a      	ldrh	r2, [r7, #8]
 8003f7a:	855a      	strh	r2, [r3, #42]	; 0x2a
    hi2c->XferSize    = hi2c->XferCount;
 8003f7c:	68fb      	ldr	r3, [r7, #12]
 8003f7e:	8d5b      	ldrh	r3, [r3, #42]	; 0x2a
 8003f80:	b29a      	uxth	r2, r3
 8003f82:	68fb      	ldr	r3, [r7, #12]
 8003f84:	851a      	strh	r2, [r3, #40]	; 0x28
    hi2c->XferOptions = I2C_NO_OPTION_FRAME;
 8003f86:	68fb      	ldr	r3, [r7, #12]
 8003f88:	4a5e      	ldr	r2, [pc, #376]	; (8004104 <HAL_I2C_Master_Receive+0x230>)
 8003f8a:	62da      	str	r2, [r3, #44]	; 0x2c

    /* Send Slave Address */
    if (I2C_MasterRequestRead(hi2c, DevAddress, Timeout, tickstart) != HAL_OK)
 8003f8c:	8979      	ldrh	r1, [r7, #10]
 8003f8e:	6a7b      	ldr	r3, [r7, #36]	; 0x24
 8003f90:	6b3a      	ldr	r2, [r7, #48]	; 0x30
 8003f92:	68f8      	ldr	r0, [r7, #12]
 8003f94:	f000 f9cc 	bl	8004330 <I2C_MasterRequestRead>
 8003f98:	4603      	mov	r3, r0
 8003f9a:	2b00      	cmp	r3, #0
 8003f9c:	d001      	beq.n	8003fa2 <HAL_I2C_Master_Receive+0xce>
    {
      return HAL_ERROR;
 8003f9e:	2301      	movs	r3, #1
 8003fa0:	e1c0      	b.n	8004324 <HAL_I2C_Master_Receive+0x450>
    }

    if (hi2c->XferSize == 0U)
 8003fa2:	68fb      	ldr	r3, [r7, #12]
 8003fa4:	8d1b      	ldrh	r3, [r3, #40]	; 0x28
 8003fa6:	2b00      	cmp	r3, #0
 8003fa8:	d113      	bne.n	8003fd2 <HAL_I2C_Master_Receive+0xfe>
    {
      /* Clear ADDR flag */
      __HAL_I2C_CLEAR_ADDRFLAG(hi2c);
 8003faa:	2300      	movs	r3, #0
 8003fac:	623b      	str	r3, [r7, #32]
 8003fae:	68fb      	ldr	r3, [r7, #12]
 8003fb0:	681b      	ldr	r3, [r3, #0]
 8003fb2:	695b      	ldr	r3, [r3, #20]
 8003fb4:	623b      	str	r3, [r7, #32]
 8003fb6:	68fb      	ldr	r3, [r7, #12]
 8003fb8:	681b      	ldr	r3, [r3, #0]
 8003fba:	699b      	ldr	r3, [r3, #24]
 8003fbc:	623b      	str	r3, [r7, #32]
 8003fbe:	6a3b      	ldr	r3, [r7, #32]

      /* Generate Stop */
      SET_BIT(hi2c->Instance->CR1, I2C_CR1_STOP);
 8003fc0:	68fb      	ldr	r3, [r7, #12]
 8003fc2:	681b      	ldr	r3, [r3, #0]
 8003fc4:	681a      	ldr	r2, [r3, #0]
 8003fc6:	68fb      	ldr	r3, [r7, #12]
 8003fc8:	681b      	ldr	r3, [r3, #0]
 8003fca:	f442 7200 	orr.w	r2, r2, #512	; 0x200
 8003fce:	601a      	str	r2, [r3, #0]
 8003fd0:	e194      	b.n	80042fc <HAL_I2C_Master_Receive+0x428>
    }
    else if (hi2c->XferSize == 1U)
 8003fd2:	68fb      	ldr	r3, [r7, #12]
 8003fd4:	8d1b      	ldrh	r3, [r3, #40]	; 0x28
 8003fd6:	2b01      	cmp	r3, #1
 8003fd8:	d11d      	bne.n	8004016 <HAL_I2C_Master_Receive+0x142>
    {
      /* Disable Acknowledge */
      CLEAR_BIT(hi2c->Instance->CR1, I2C_CR1_ACK);
 8003fda:	68fb      	ldr	r3, [r7, #12]
 8003fdc:	681b      	ldr	r3, [r3, #0]
 8003fde:	681a      	ldr	r2, [r3, #0]
 8003fe0:	68fb      	ldr	r3, [r7, #12]
 8003fe2:	681b      	ldr	r3, [r3, #0]
 8003fe4:	f422 6280 	bic.w	r2, r2, #1024	; 0x400
 8003fe8:	601a      	str	r2, [r3, #0]
  \details Disables IRQ interrupts by setting the I-bit in the CPSR.
           Can only be executed in Privileged modes.
 */
__STATIC_FORCEINLINE void __disable_irq(void)
{
  __ASM volatile ("cpsid i" : : : "memory");
 8003fea:	b672      	cpsid	i
      /* Disable all active IRQs around ADDR clearing and STOP programming because the EV6_3
      software sequence must complete before the current byte end of transfer */
      __disable_irq();

      /* Clear ADDR flag */
      __HAL_I2C_CLEAR_ADDRFLAG(hi2c);
 8003fec:	2300      	movs	r3, #0
 8003fee:	61fb      	str	r3, [r7, #28]
 8003ff0:	68fb      	ldr	r3, [r7, #12]
 8003ff2:	681b      	ldr	r3, [r3, #0]
 8003ff4:	695b      	ldr	r3, [r3, #20]
 8003ff6:	61fb      	str	r3, [r7, #28]
 8003ff8:	68fb      	ldr	r3, [r7, #12]
 8003ffa:	681b      	ldr	r3, [r3, #0]
 8003ffc:	699b      	ldr	r3, [r3, #24]
 8003ffe:	61fb      	str	r3, [r7, #28]
 8004000:	69fb      	ldr	r3, [r7, #28]

      /* Generate Stop */
      SET_BIT(hi2c->Instance->CR1, I2C_CR1_STOP);
 8004002:	68fb      	ldr	r3, [r7, #12]
 8004004:	681b      	ldr	r3, [r3, #0]
 8004006:	681a      	ldr	r2, [r3, #0]
 8004008:	68fb      	ldr	r3, [r7, #12]
 800400a:	681b      	ldr	r3, [r3, #0]
 800400c:	f442 7200 	orr.w	r2, r2, #512	; 0x200
 8004010:	601a      	str	r2, [r3, #0]
  __ASM volatile ("cpsie i" : : : "memory");
 8004012:	b662      	cpsie	i
 8004014:	e172      	b.n	80042fc <HAL_I2C_Master_Receive+0x428>

      /* Re-enable IRQs */
      __enable_irq();
    }
    else if (hi2c->XferSize == 2U)
 8004016:	68fb      	ldr	r3, [r7, #12]
 8004018:	8d1b      	ldrh	r3, [r3, #40]	; 0x28
 800401a:	2b02      	cmp	r3, #2
 800401c:	d11d      	bne.n	800405a <HAL_I2C_Master_Receive+0x186>
    {
      /* Enable Pos */
      SET_BIT(hi2c->Instance->CR1, I2C_CR1_POS);
 800401e:	68fb      	ldr	r3, [r7, #12]
 8004020:	681b      	ldr	r3, [r3, #0]
 8004022:	681a      	ldr	r2, [r3, #0]
 8004024:	68fb      	ldr	r3, [r7, #12]
 8004026:	681b      	ldr	r3, [r3, #0]
 8004028:	f442 6200 	orr.w	r2, r2, #2048	; 0x800
 800402c:	601a      	str	r2, [r3, #0]
  __ASM volatile ("cpsid i" : : : "memory");
 800402e:	b672      	cpsid	i
      /* Disable all active IRQs around ADDR clearing and STOP programming because the EV6_3
      software sequence must complete before the current byte end of transfer */
      __disable_irq();

      /* Clear ADDR flag */
      __HAL_I2C_CLEAR_ADDRFLAG(hi2c);
 8004030:	2300      	movs	r3, #0
 8004032:	61bb      	str	r3, [r7, #24]
 8004034:	68fb      	ldr	r3, [r7, #12]
 8004036:	681b      	ldr	r3, [r3, #0]
 8004038:	695b      	ldr	r3, [r3, #20]
 800403a:	61bb      	str	r3, [r7, #24]
 800403c:	68fb      	ldr	r3, [r7, #12]
 800403e:	681b      	ldr	r3, [r3, #0]
 8004040:	699b      	ldr	r3, [r3, #24]
 8004042:	61bb      	str	r3, [r7, #24]
 8004044:	69bb      	ldr	r3, [r7, #24]

      /* Disable Acknowledge */
      CLEAR_BIT(hi2c->Instance->CR1, I2C_CR1_ACK);
 8004046:	68fb      	ldr	r3, [r7, #12]
 8004048:	681b      	ldr	r3, [r3, #0]
 800404a:	681a      	ldr	r2, [r3, #0]
 800404c:	68fb      	ldr	r3, [r7, #12]
 800404e:	681b      	ldr	r3, [r3, #0]
 8004050:	f422 6280 	bic.w	r2, r2, #1024	; 0x400
 8004054:	601a      	str	r2, [r3, #0]
  __ASM volatile ("cpsie i" : : : "memory");
 8004056:	b662      	cpsie	i
 8004058:	e150      	b.n	80042fc <HAL_I2C_Master_Receive+0x428>
      __enable_irq();
    }
    else
    {
      /* Enable Acknowledge */
      SET_BIT(hi2c->Instance->CR1, I2C_CR1_ACK);
 800405a:	68fb      	ldr	r3, [r7, #12]
 800405c:	681b      	ldr	r3, [r3, #0]
 800405e:	681a      	ldr	r2, [r3, #0]
 8004060:	68fb      	ldr	r3, [r7, #12]
 8004062:	681b      	ldr	r3, [r3, #0]
 8004064:	f442 6280 	orr.w	r2, r2, #1024	; 0x400
 8004068:	601a      	str	r2, [r3, #0]

      /* Clear ADDR flag */
      __HAL_I2C_CLEAR_ADDRFLAG(hi2c);
 800406a:	2300      	movs	r3, #0
 800406c:	617b      	str	r3, [r7, #20]
 800406e:	68fb      	ldr	r3, [r7, #12]
 8004070:	681b      	ldr	r3, [r3, #0]
 8004072:	695b      	ldr	r3, [r3, #20]
 8004074:	617b      	str	r3, [r7, #20]
 8004076:	68fb      	ldr	r3, [r7, #12]
 8004078:	681b      	ldr	r3, [r3, #0]
 800407a:	699b      	ldr	r3, [r3, #24]
 800407c:	617b      	str	r3, [r7, #20]
 800407e:	697b      	ldr	r3, [r7, #20]
    }

    while (hi2c->XferSize > 0U)
 8004080:	e13c      	b.n	80042fc <HAL_I2C_Master_Receive+0x428>
    {
      if (hi2c->XferSize <= 3U)
 8004082:	68fb      	ldr	r3, [r7, #12]
 8004084:	8d1b      	ldrh	r3, [r3, #40]	; 0x28
 8004086:	2b03      	cmp	r3, #3
 8004088:	f200 80f5 	bhi.w	8004276 <HAL_I2C_Master_Receive+0x3a2>
      {
        /* One byte */
        if (hi2c->XferSize == 1U)
 800408c:	68fb      	ldr	r3, [r7, #12]
 800408e:	8d1b      	ldrh	r3, [r3, #40]	; 0x28
 8004090:	2b01      	cmp	r3, #1
 8004092:	d123      	bne.n	80040dc <HAL_I2C_Master_Receive+0x208>
        {
          /* Wait until RXNE flag is set */
          if (I2C_WaitOnRXNEFlagUntilTimeout(hi2c, Timeout, tickstart) != HAL_OK)
 8004094:	6a7a      	ldr	r2, [r7, #36]	; 0x24
 8004096:	6b39      	ldr	r1, [r7, #48]	; 0x30
 8004098:	68f8      	ldr	r0, [r7, #12]
 800409a:	f000 fad5 	bl	8004648 <I2C_WaitOnRXNEFlagUntilTimeout>
 800409e:	4603      	mov	r3, r0
 80040a0:	2b00      	cmp	r3, #0
 80040a2:	d001      	beq.n	80040a8 <HAL_I2C_Master_Receive+0x1d4>
          {
            return HAL_ERROR;
 80040a4:	2301      	movs	r3, #1
 80040a6:	e13d      	b.n	8004324 <HAL_I2C_Master_Receive+0x450>
          }

          /* Read data from DR */
          *hi2c->pBuffPtr = (uint8_t)hi2c->Instance->DR;
 80040a8:	68fb      	ldr	r3, [r7, #12]
 80040aa:	681b      	ldr	r3, [r3, #0]
 80040ac:	691a      	ldr	r2, [r3, #16]
 80040ae:	68fb      	ldr	r3, [r7, #12]
 80040b0:	6a5b      	ldr	r3, [r3, #36]	; 0x24
 80040b2:	b2d2      	uxtb	r2, r2
 80040b4:	701a      	strb	r2, [r3, #0]

          /* Increment Buffer pointer */
          hi2c->pBuffPtr++;
 80040b6:	68fb      	ldr	r3, [r7, #12]
 80040b8:	6a5b      	ldr	r3, [r3, #36]	; 0x24
 80040ba:	1c5a      	adds	r2, r3, #1
 80040bc:	68fb      	ldr	r3, [r7, #12]
 80040be:	625a      	str	r2, [r3, #36]	; 0x24

          /* Update counter */
          hi2c->XferSize--;
 80040c0:	68fb      	ldr	r3, [r7, #12]
 80040c2:	8d1b      	ldrh	r3, [r3, #40]	; 0x28
 80040c4:	3b01      	subs	r3, #1
 80040c6:	b29a      	uxth	r2, r3
 80040c8:	68fb      	ldr	r3, [r7, #12]
 80040ca:	851a      	strh	r2, [r3, #40]	; 0x28
          hi2c->XferCount--;
 80040cc:	68fb      	ldr	r3, [r7, #12]
 80040ce:	8d5b      	ldrh	r3, [r3, #42]	; 0x2a
 80040d0:	b29b      	uxth	r3, r3
 80040d2:	3b01      	subs	r3, #1
 80040d4:	b29a      	uxth	r2, r3
 80040d6:	68fb      	ldr	r3, [r7, #12]
 80040d8:	855a      	strh	r2, [r3, #42]	; 0x2a
 80040da:	e10f      	b.n	80042fc <HAL_I2C_Master_Receive+0x428>
        }
        /* Two bytes */
        else if (hi2c->XferSize == 2U)
 80040dc:	68fb      	ldr	r3, [r7, #12]
 80040de:	8d1b      	ldrh	r3, [r3, #40]	; 0x28
 80040e0:	2b02      	cmp	r3, #2
 80040e2:	d150      	bne.n	8004186 <HAL_I2C_Master_Receive+0x2b2>
        {
          /* Wait until BTF flag is set */
          if (I2C_WaitOnFlagUntilTimeout(hi2c, I2C_FLAG_BTF, RESET, Timeout, tickstart) != HAL_OK)
 80040e4:	6a7b      	ldr	r3, [r7, #36]	; 0x24
 80040e6:	9300      	str	r3, [sp, #0]
 80040e8:	6b3b      	ldr	r3, [r7, #48]	; 0x30
 80040ea:	2200      	movs	r2, #0
 80040ec:	4906      	ldr	r1, [pc, #24]	; (8004108 <HAL_I2C_Master_Receive+0x234>)
 80040ee:	68f8      	ldr	r0, [r7, #12]
 80040f0:	f000 f9d4 	bl	800449c <I2C_WaitOnFlagUntilTimeout>
 80040f4:	4603      	mov	r3, r0
 80040f6:	2b00      	cmp	r3, #0
 80040f8:	d008      	beq.n	800410c <HAL_I2C_Master_Receive+0x238>
          {
            return HAL_ERROR;
 80040fa:	2301      	movs	r3, #1
 80040fc:	e112      	b.n	8004324 <HAL_I2C_Master_Receive+0x450>
 80040fe:	bf00      	nop
 8004100:	00100002 	.word	0x00100002
 8004104:	ffff0000 	.word	0xffff0000
 8004108:	00010004 	.word	0x00010004
  __ASM volatile ("cpsid i" : : : "memory");
 800410c:	b672      	cpsid	i
          /* Disable all active IRQs around ADDR clearing and STOP programming because the EV6_3
             software sequence must complete before the current byte end of transfer */
          __disable_irq();

          /* Generate Stop */
          SET_BIT(hi2c->Instance->CR1, I2C_CR1_STOP);
 800410e:	68fb      	ldr	r3, [r7, #12]
 8004110:	681b      	ldr	r3, [r3, #0]
 8004112:	681a      	ldr	r2, [r3, #0]
 8004114:	68fb      	ldr	r3, [r7, #12]
 8004116:	681b      	ldr	r3, [r3, #0]
 8004118:	f442 7200 	orr.w	r2, r2, #512	; 0x200
 800411c:	601a      	str	r2, [r3, #0]

          /* Read data from DR */
          *hi2c->pBuffPtr = (uint8_t)hi2c->Instance->DR;
 800411e:	68fb      	ldr	r3, [r7, #12]
 8004120:	681b      	ldr	r3, [r3, #0]
 8004122:	691a      	ldr	r2, [r3, #16]
 8004124:	68fb      	ldr	r3, [r7, #12]
 8004126:	6a5b      	ldr	r3, [r3, #36]	; 0x24
 8004128:	b2d2      	uxtb	r2, r2
 800412a:	701a      	strb	r2, [r3, #0]

          /* Increment Buffer pointer */
          hi2c->pBuffPtr++;
 800412c:	68fb      	ldr	r3, [r7, #12]
 800412e:	6a5b      	ldr	r3, [r3, #36]	; 0x24
 8004130:	1c5a      	adds	r2, r3, #1
 8004132:	68fb      	ldr	r3, [r7, #12]
 8004134:	625a      	str	r2, [r3, #36]	; 0x24

          /* Update counter */
          hi2c->XferSize--;
 8004136:	68fb      	ldr	r3, [r7, #12]
 8004138:	8d1b      	ldrh	r3, [r3, #40]	; 0x28
 800413a:	3b01      	subs	r3, #1
 800413c:	b29a      	uxth	r2, r3
 800413e:	68fb      	ldr	r3, [r7, #12]
 8004140:	851a      	strh	r2, [r3, #40]	; 0x28
          hi2c->XferCount--;
 8004142:	68fb      	ldr	r3, [r7, #12]
 8004144:	8d5b      	ldrh	r3, [r3, #42]	; 0x2a
 8004146:	b29b      	uxth	r3, r3
 8004148:	3b01      	subs	r3, #1
 800414a:	b29a      	uxth	r2, r3
 800414c:	68fb      	ldr	r3, [r7, #12]
 800414e:	855a      	strh	r2, [r3, #42]	; 0x2a
  __ASM volatile ("cpsie i" : : : "memory");
 8004150:	b662      	cpsie	i

          /* Re-enable IRQs */
          __enable_irq();

          /* Read data from DR */
          *hi2c->pBuffPtr = (uint8_t)hi2c->Instance->DR;
 8004152:	68fb      	ldr	r3, [r7, #12]
 8004154:	681b      	ldr	r3, [r3, #0]
 8004156:	691a      	ldr	r2, [r3, #16]
 8004158:	68fb      	ldr	r3, [r7, #12]
 800415a:	6a5b      	ldr	r3, [r3, #36]	; 0x24
 800415c:	b2d2      	uxtb	r2, r2
 800415e:	701a      	strb	r2, [r3, #0]

          /* Increment Buffer pointer */
          hi2c->pBuffPtr++;
 8004160:	68fb      	ldr	r3, [r7, #12]
 8004162:	6a5b      	ldr	r3, [r3, #36]	; 0x24
 8004164:	1c5a      	adds	r2, r3, #1
 8004166:	68fb      	ldr	r3, [r7, #12]
 8004168:	625a      	str	r2, [r3, #36]	; 0x24

          /* Update counter */
          hi2c->XferSize--;
 800416a:	68fb      	ldr	r3, [r7, #12]
 800416c:	8d1b      	ldrh	r3, [r3, #40]	; 0x28
 800416e:	3b01      	subs	r3, #1
 8004170:	b29a      	uxth	r2, r3
 8004172:	68fb      	ldr	r3, [r7, #12]
 8004174:	851a      	strh	r2, [r3, #40]	; 0x28
          hi2c->XferCount--;
 8004176:	68fb      	ldr	r3, [r7, #12]
 8004178:	8d5b      	ldrh	r3, [r3, #42]	; 0x2a
 800417a:	b29b      	uxth	r3, r3
 800417c:	3b01      	subs	r3, #1
 800417e:	b29a      	uxth	r2, r3
 8004180:	68fb      	ldr	r3, [r7, #12]
 8004182:	855a      	strh	r2, [r3, #42]	; 0x2a
 8004184:	e0ba      	b.n	80042fc <HAL_I2C_Master_Receive+0x428>
        }
        /* 3 Last bytes */
        else
        {
          /* Wait until BTF flag is set */
          if (I2C_WaitOnFlagUntilTimeout(hi2c, I2C_FLAG_BTF, RESET, Timeout, tickstart) != HAL_OK)
 8004186:	6a7b      	ldr	r3, [r7, #36]	; 0x24
 8004188:	9300      	str	r3, [sp, #0]
 800418a:	6b3b      	ldr	r3, [r7, #48]	; 0x30
 800418c:	2200      	movs	r2, #0
 800418e:	4967      	ldr	r1, [pc, #412]	; (800432c <HAL_I2C_Master_Receive+0x458>)
 8004190:	68f8      	ldr	r0, [r7, #12]
 8004192:	f000 f983 	bl	800449c <I2C_WaitOnFlagUntilTimeout>
 8004196:	4603      	mov	r3, r0
 8004198:	2b00      	cmp	r3, #0
 800419a:	d001      	beq.n	80041a0 <HAL_I2C_Master_Receive+0x2cc>
          {
            return HAL_ERROR;
 800419c:	2301      	movs	r3, #1
 800419e:	e0c1      	b.n	8004324 <HAL_I2C_Master_Receive+0x450>
          }

          /* Disable Acknowledge */
          CLEAR_BIT(hi2c->Instance->CR1, I2C_CR1_ACK);
 80041a0:	68fb      	ldr	r3, [r7, #12]
 80041a2:	681b      	ldr	r3, [r3, #0]
 80041a4:	681a      	ldr	r2, [r3, #0]
 80041a6:	68fb      	ldr	r3, [r7, #12]
 80041a8:	681b      	ldr	r3, [r3, #0]
 80041aa:	f422 6280 	bic.w	r2, r2, #1024	; 0x400
 80041ae:	601a      	str	r2, [r3, #0]
  __ASM volatile ("cpsid i" : : : "memory");
 80041b0:	b672      	cpsid	i
          /* Disable all active IRQs around ADDR clearing and STOP programming because the EV6_3
             software sequence must complete before the current byte end of transfer */
          __disable_irq();

          /* Read data from DR */
          *hi2c->pBuffPtr = (uint8_t)hi2c->Instance->DR;
 80041b2:	68fb      	ldr	r3, [r7, #12]
 80041b4:	681b      	ldr	r3, [r3, #0]
 80041b6:	691a      	ldr	r2, [r3, #16]
 80041b8:	68fb      	ldr	r3, [r7, #12]
 80041ba:	6a5b      	ldr	r3, [r3, #36]	; 0x24
 80041bc:	b2d2      	uxtb	r2, r2
 80041be:	701a      	strb	r2, [r3, #0]

          /* Increment Buffer pointer */
          hi2c->pBuffPtr++;
 80041c0:	68fb      	ldr	r3, [r7, #12]
 80041c2:	6a5b      	ldr	r3, [r3, #36]	; 0x24
 80041c4:	1c5a      	adds	r2, r3, #1
 80041c6:	68fb      	ldr	r3, [r7, #12]
 80041c8:	625a      	str	r2, [r3, #36]	; 0x24

          /* Update counter */
          hi2c->XferSize--;
 80041ca:	68fb      	ldr	r3, [r7, #12]
 80041cc:	8d1b      	ldrh	r3, [r3, #40]	; 0x28
 80041ce:	3b01      	subs	r3, #1
 80041d0:	b29a      	uxth	r2, r3
 80041d2:	68fb      	ldr	r3, [r7, #12]
 80041d4:	851a      	strh	r2, [r3, #40]	; 0x28
          hi2c->XferCount--;
 80041d6:	68fb      	ldr	r3, [r7, #12]
 80041d8:	8d5b      	ldrh	r3, [r3, #42]	; 0x2a
 80041da:	b29b      	uxth	r3, r3
 80041dc:	3b01      	subs	r3, #1
 80041de:	b29a      	uxth	r2, r3
 80041e0:	68fb      	ldr	r3, [r7, #12]
 80041e2:	855a      	strh	r2, [r3, #42]	; 0x2a

          /* Wait until BTF flag is set */
          if (I2C_WaitOnFlagUntilTimeout(hi2c, I2C_FLAG_BTF, RESET, Timeout, tickstart) != HAL_OK)
 80041e4:	6a7b      	ldr	r3, [r7, #36]	; 0x24
 80041e6:	9300      	str	r3, [sp, #0]
 80041e8:	6b3b      	ldr	r3, [r7, #48]	; 0x30
 80041ea:	2200      	movs	r2, #0
 80041ec:	494f      	ldr	r1, [pc, #316]	; (800432c <HAL_I2C_Master_Receive+0x458>)
 80041ee:	68f8      	ldr	r0, [r7, #12]
 80041f0:	f000 f954 	bl	800449c <I2C_WaitOnFlagUntilTimeout>
 80041f4:	4603      	mov	r3, r0
 80041f6:	2b00      	cmp	r3, #0
 80041f8:	d001      	beq.n	80041fe <HAL_I2C_Master_Receive+0x32a>
          {
            return HAL_ERROR;
 80041fa:	2301      	movs	r3, #1
 80041fc:	e092      	b.n	8004324 <HAL_I2C_Master_Receive+0x450>
          }

          /* Generate Stop */
          SET_BIT(hi2c->Instance->CR1, I2C_CR1_STOP);
 80041fe:	68fb      	ldr	r3, [r7, #12]
 8004200:	681b      	ldr	r3, [r3, #0]
 8004202:	681a      	ldr	r2, [r3, #0]
 8004204:	68fb      	ldr	r3, [r7, #12]
 8004206:	681b      	ldr	r3, [r3, #0]
 8004208:	f442 7200 	orr.w	r2, r2, #512	; 0x200
 800420c:	601a      	str	r2, [r3, #0]

          /* Read data from DR */
          *hi2c->pBuffPtr = (uint8_t)hi2c->Instance->DR;
 800420e:	68fb      	ldr	r3, [r7, #12]
 8004210:	681b      	ldr	r3, [r3, #0]
 8004212:	691a      	ldr	r2, [r3, #16]
 8004214:	68fb      	ldr	r3, [r7, #12]
 8004216:	6a5b      	ldr	r3, [r3, #36]	; 0x24
 8004218:	b2d2      	uxtb	r2, r2
 800421a:	701a      	strb	r2, [r3, #0]

          /* Increment Buffer pointer */
          hi2c->pBuffPtr++;
 800421c:	68fb      	ldr	r3, [r7, #12]
 800421e:	6a5b      	ldr	r3, [r3, #36]	; 0x24
 8004220:	1c5a      	adds	r2, r3, #1
 8004222:	68fb      	ldr	r3, [r7, #12]
 8004224:	625a      	str	r2, [r3, #36]	; 0x24

          /* Update counter */
          hi2c->XferSize--;
 8004226:	68fb      	ldr	r3, [r7, #12]
 8004228:	8d1b      	ldrh	r3, [r3, #40]	; 0x28
 800422a:	3b01      	subs	r3, #1
 800422c:	b29a      	uxth	r2, r3
 800422e:	68fb      	ldr	r3, [r7, #12]
 8004230:	851a      	strh	r2, [r3, #40]	; 0x28
          hi2c->XferCount--;
 8004232:	68fb      	ldr	r3, [r7, #12]
 8004234:	8d5b      	ldrh	r3, [r3, #42]	; 0x2a
 8004236:	b29b      	uxth	r3, r3
 8004238:	3b01      	subs	r3, #1
 800423a:	b29a      	uxth	r2, r3
 800423c:	68fb      	ldr	r3, [r7, #12]
 800423e:	855a      	strh	r2, [r3, #42]	; 0x2a
  __ASM volatile ("cpsie i" : : : "memory");
 8004240:	b662      	cpsie	i

          /* Re-enable IRQs */
          __enable_irq();

          /* Read data from DR */
          *hi2c->pBuffPtr = (uint8_t)hi2c->Instance->DR;
 8004242:	68fb      	ldr	r3, [r7, #12]
 8004244:	681b      	ldr	r3, [r3, #0]
 8004246:	691a      	ldr	r2, [r3, #16]
 8004248:	68fb      	ldr	r3, [r7, #12]
 800424a:	6a5b      	ldr	r3, [r3, #36]	; 0x24
 800424c:	b2d2      	uxtb	r2, r2
 800424e:	701a      	strb	r2, [r3, #0]

          /* Increment Buffer pointer */
          hi2c->pBuffPtr++;
 8004250:	68fb      	ldr	r3, [r7, #12]
 8004252:	6a5b      	ldr	r3, [r3, #36]	; 0x24
 8004254:	1c5a      	adds	r2, r3, #1
 8004256:	68fb      	ldr	r3, [r7, #12]
 8004258:	625a      	str	r2, [r3, #36]	; 0x24

          /* Update counter */
          hi2c->XferSize--;
 800425a:	68fb      	ldr	r3, [r7, #12]
 800425c:	8d1b      	ldrh	r3, [r3, #40]	; 0x28
 800425e:	3b01      	subs	r3, #1
 8004260:	b29a      	uxth	r2, r3
 8004262:	68fb      	ldr	r3, [r7, #12]
 8004264:	851a      	strh	r2, [r3, #40]	; 0x28
          hi2c->XferCount--;
 8004266:	68fb      	ldr	r3, [r7, #12]
 8004268:	8d5b      	ldrh	r3, [r3, #42]	; 0x2a
 800426a:	b29b      	uxth	r3, r3
 800426c:	3b01      	subs	r3, #1
 800426e:	b29a      	uxth	r2, r3
 8004270:	68fb      	ldr	r3, [r7, #12]
 8004272:	855a      	strh	r2, [r3, #42]	; 0x2a
 8004274:	e042      	b.n	80042fc <HAL_I2C_Master_Receive+0x428>
        }
      }
      else
      {
        /* Wait until RXNE flag is set */
        if (I2C_WaitOnRXNEFlagUntilTimeout(hi2c, Timeout, tickstart) != HAL_OK)
 8004276:	6a7a      	ldr	r2, [r7, #36]	; 0x24
 8004278:	6b39      	ldr	r1, [r7, #48]	; 0x30
 800427a:	68f8      	ldr	r0, [r7, #12]
 800427c:	f000 f9e4 	bl	8004648 <I2C_WaitOnRXNEFlagUntilTimeout>
 8004280:	4603      	mov	r3, r0
 8004282:	2b00      	cmp	r3, #0
 8004284:	d001      	beq.n	800428a <HAL_I2C_Master_Receive+0x3b6>
        {
          return HAL_ERROR;
 8004286:	2301      	movs	r3, #1
 8004288:	e04c      	b.n	8004324 <HAL_I2C_Master_Receive+0x450>
        }

        /* Read data from DR */
        *hi2c->pBuffPtr = (uint8_t)hi2c->Instance->DR;
 800428a:	68fb      	ldr	r3, [r7, #12]
 800428c:	681b      	ldr	r3, [r3, #0]
 800428e:	691a      	ldr	r2, [r3, #16]
 8004290:	68fb      	ldr	r3, [r7, #12]
 8004292:	6a5b      	ldr	r3, [r3, #36]	; 0x24
 8004294:	b2d2      	uxtb	r2, r2
 8004296:	701a      	strb	r2, [r3, #0]

        /* Increment Buffer pointer */
        hi2c->pBuffPtr++;
 8004298:	68fb      	ldr	r3, [r7, #12]
 800429a:	6a5b      	ldr	r3, [r3, #36]	; 0x24
 800429c:	1c5a      	adds	r2, r3, #1
 800429e:	68fb      	ldr	r3, [r7, #12]
 80042a0:	625a      	str	r2, [r3, #36]	; 0x24

        /* Update counter */
        hi2c->XferSize--;
 80042a2:	68fb      	ldr	r3, [r7, #12]
 80042a4:	8d1b      	ldrh	r3, [r3, #40]	; 0x28
 80042a6:	3b01      	subs	r3, #1
 80042a8:	b29a      	uxth	r2, r3
 80042aa:	68fb      	ldr	r3, [r7, #12]
 80042ac:	851a      	strh	r2, [r3, #40]	; 0x28
        hi2c->XferCount--;
 80042ae:	68fb      	ldr	r3, [r7, #12]
 80042b0:	8d5b      	ldrh	r3, [r3, #42]	; 0x2a
 80042b2:	b29b      	uxth	r3, r3
 80042b4:	3b01      	subs	r3, #1
 80042b6:	b29a      	uxth	r2, r3
 80042b8:	68fb      	ldr	r3, [r7, #12]
 80042ba:	855a      	strh	r2, [r3, #42]	; 0x2a

        if (__HAL_I2C_GET_FLAG(hi2c, I2C_FLAG_BTF) == SET)
 80042bc:	68fb      	ldr	r3, [r7, #12]
 80042be:	681b      	ldr	r3, [r3, #0]
 80042c0:	695b      	ldr	r3, [r3, #20]
 80042c2:	f003 0304 	and.w	r3, r3, #4
 80042c6:	2b04      	cmp	r3, #4
 80042c8:	d118      	bne.n	80042fc <HAL_I2C_Master_Receive+0x428>
        {
          /* Read data from DR */
          *hi2c->pBuffPtr = (uint8_t)hi2c->Instance->DR;
 80042ca:	68fb      	ldr	r3, [r7, #12]
 80042cc:	681b      	ldr	r3, [r3, #0]
 80042ce:	691a      	ldr	r2, [r3, #16]
 80042d0:	68fb      	ldr	r3, [r7, #12]
 80042d2:	6a5b      	ldr	r3, [r3, #36]	; 0x24
 80042d4:	b2d2      	uxtb	r2, r2
 80042d6:	701a      	strb	r2, [r3, #0]

          /* Increment Buffer pointer */
          hi2c->pBuffPtr++;
 80042d8:	68fb      	ldr	r3, [r7, #12]
 80042da:	6a5b      	ldr	r3, [r3, #36]	; 0x24
 80042dc:	1c5a      	adds	r2, r3, #1
 80042de:	68fb      	ldr	r3, [r7, #12]
 80042e0:	625a      	str	r2, [r3, #36]	; 0x24

          /* Update counter */
          hi2c->XferSize--;
 80042e2:	68fb      	ldr	r3, [r7, #12]
 80042e4:	8d1b      	ldrh	r3, [r3, #40]	; 0x28
 80042e6:	3b01      	subs	r3, #1
 80042e8:	b29a      	uxth	r2, r3
 80042ea:	68fb      	ldr	r3, [r7, #12]
 80042ec:	851a      	strh	r2, [r3, #40]	; 0x28
          hi2c->XferCount--;
 80042ee:	68fb      	ldr	r3, [r7, #12]
 80042f0:	8d5b      	ldrh	r3, [r3, #42]	; 0x2a
 80042f2:	b29b      	uxth	r3, r3
 80042f4:	3b01      	subs	r3, #1
 80042f6:	b29a      	uxth	r2, r3
 80042f8:	68fb      	ldr	r3, [r7, #12]
 80042fa:	855a      	strh	r2, [r3, #42]	; 0x2a
    while (hi2c->XferSize > 0U)
 80042fc:	68fb      	ldr	r3, [r7, #12]
 80042fe:	8d1b      	ldrh	r3, [r3, #40]	; 0x28
 8004300:	2b00      	cmp	r3, #0
 8004302:	f47f aebe 	bne.w	8004082 <HAL_I2C_Master_Receive+0x1ae>
        }
      }
    }

    hi2c->State = HAL_I2C_STATE_READY;
 8004306:	68fb      	ldr	r3, [r7, #12]
 8004308:	2220      	movs	r2, #32
 800430a:	f883 203d 	strb.w	r2, [r3, #61]	; 0x3d
    hi2c->Mode = HAL_I2C_MODE_NONE;
 800430e:	68fb      	ldr	r3, [r7, #12]
 8004310:	2200      	movs	r2, #0
 8004312:	f883 203e 	strb.w	r2, [r3, #62]	; 0x3e

    /* Process Unlocked */
    __HAL_UNLOCK(hi2c);
 8004316:	68fb      	ldr	r3, [r7, #12]
 8004318:	2200      	movs	r2, #0
 800431a:	f883 203c 	strb.w	r2, [r3, #60]	; 0x3c

    return HAL_OK;
 800431e:	2300      	movs	r3, #0
 8004320:	e000      	b.n	8004324 <HAL_I2C_Master_Receive+0x450>
  }
  else
  {
    return HAL_BUSY;
 8004322:	2302      	movs	r3, #2
  }
}
 8004324:	4618      	mov	r0, r3
 8004326:	3728      	adds	r7, #40	; 0x28
 8004328:	46bd      	mov	sp, r7
 800432a:	bd80      	pop	{r7, pc}
 800432c:	00010004 	.word	0x00010004

08004330 <I2C_MasterRequestRead>:
  * @param  Timeout Timeout duration
  * @param  Tickstart Tick start value
  * @retval HAL status
  */
static HAL_StatusTypeDef I2C_MasterRequestRead(I2C_HandleTypeDef *hi2c, uint16_t DevAddress, uint32_t Timeout, uint32_t Tickstart)
{
 8004330:	b580      	push	{r7, lr}
 8004332:	b088      	sub	sp, #32
 8004334:	af02      	add	r7, sp, #8
 8004336:	60f8      	str	r0, [r7, #12]
 8004338:	607a      	str	r2, [r7, #4]
 800433a:	603b      	str	r3, [r7, #0]
 800433c:	460b      	mov	r3, r1
 800433e:	817b      	strh	r3, [r7, #10]
  /* Declaration of temporary variable to prevent undefined behavior of volatile usage */
  uint32_t CurrentXferOptions = hi2c->XferOptions;
 8004340:	68fb      	ldr	r3, [r7, #12]
 8004342:	6adb      	ldr	r3, [r3, #44]	; 0x2c
 8004344:	617b      	str	r3, [r7, #20]

  /* Enable Acknowledge */
  SET_BIT(hi2c->Instance->CR1, I2C_CR1_ACK);
 8004346:	68fb      	ldr	r3, [r7, #12]
 8004348:	681b      	ldr	r3, [r3, #0]
 800434a:	681a      	ldr	r2, [r3, #0]
 800434c:	68fb      	ldr	r3, [r7, #12]
 800434e:	681b      	ldr	r3, [r3, #0]
 8004350:	f442 6280 	orr.w	r2, r2, #1024	; 0x400
 8004354:	601a      	str	r2, [r3, #0]

  /* Generate Start condition if first transfer */
  if ((CurrentXferOptions == I2C_FIRST_AND_LAST_FRAME) || (CurrentXferOptions == I2C_FIRST_FRAME)  || (CurrentXferOptions == I2C_NO_OPTION_FRAME))
 8004356:	697b      	ldr	r3, [r7, #20]
 8004358:	2b08      	cmp	r3, #8
 800435a:	d006      	beq.n	800436a <I2C_MasterRequestRead+0x3a>
 800435c:	697b      	ldr	r3, [r7, #20]
 800435e:	2b01      	cmp	r3, #1
 8004360:	d003      	beq.n	800436a <I2C_MasterRequestRead+0x3a>
 8004362:	697b      	ldr	r3, [r7, #20]
 8004364:	f513 3f80 	cmn.w	r3, #65536	; 0x10000
 8004368:	d108      	bne.n	800437c <I2C_MasterRequestRead+0x4c>
  {
    /* Generate Start */
    SET_BIT(hi2c->Instance->CR1, I2C_CR1_START);
 800436a:	68fb      	ldr	r3, [r7, #12]
 800436c:	681b      	ldr	r3, [r3, #0]
 800436e:	681a      	ldr	r2, [r3, #0]
 8004370:	68fb      	ldr	r3, [r7, #12]
 8004372:	681b      	ldr	r3, [r3, #0]
 8004374:	f442 7280 	orr.w	r2, r2, #256	; 0x100
 8004378:	601a      	str	r2, [r3, #0]
 800437a:	e00b      	b.n	8004394 <I2C_MasterRequestRead+0x64>
  }
  else if (hi2c->PreviousState == I2C_STATE_MASTER_BUSY_TX)
 800437c:	68fb      	ldr	r3, [r7, #12]
 800437e:	6b1b      	ldr	r3, [r3, #48]	; 0x30
 8004380:	2b11      	cmp	r3, #17
 8004382:	d107      	bne.n	8004394 <I2C_MasterRequestRead+0x64>
  {
    /* Generate ReStart */
    SET_BIT(hi2c->Instance->CR1, I2C_CR1_START);
 8004384:	68fb      	ldr	r3, [r7, #12]
 8004386:	681b      	ldr	r3, [r3, #0]
 8004388:	681a      	ldr	r2, [r3, #0]
 800438a:	68fb      	ldr	r3, [r7, #12]
 800438c:	681b      	ldr	r3, [r3, #0]
 800438e:	f442 7280 	orr.w	r2, r2, #256	; 0x100
 8004392:	601a      	str	r2, [r3, #0]
  {
    /* Do nothing */
  }

  /* Wait until SB flag is set */
  if (I2C_WaitOnFlagUntilTimeout(hi2c, I2C_FLAG_SB, RESET, Timeout, Tickstart) != HAL_OK)
 8004394:	683b      	ldr	r3, [r7, #0]
 8004396:	9300      	str	r3, [sp, #0]
 8004398:	687b      	ldr	r3, [r7, #4]
 800439a:	2200      	movs	r2, #0
 800439c:	f04f 1101 	mov.w	r1, #65537	; 0x10001
 80043a0:	68f8      	ldr	r0, [r7, #12]
 80043a2:	f000 f87b 	bl	800449c <I2C_WaitOnFlagUntilTimeout>
 80043a6:	4603      	mov	r3, r0
 80043a8:	2b00      	cmp	r3, #0
 80043aa:	d001      	beq.n	80043b0 <I2C_MasterRequestRead+0x80>
  {
    return HAL_ERROR;
 80043ac:	2301      	movs	r3, #1
 80043ae:	e06d      	b.n	800448c <I2C_MasterRequestRead+0x15c>
  }

  if (hi2c->Init.AddressingMode == I2C_ADDRESSINGMODE_7BIT)
 80043b0:	68fb      	ldr	r3, [r7, #12]
 80043b2:	691b      	ldr	r3, [r3, #16]
 80043b4:	f5b3 4f80 	cmp.w	r3, #16384	; 0x4000
 80043b8:	d108      	bne.n	80043cc <I2C_MasterRequestRead+0x9c>
  {
    /* Send slave address */
    hi2c->Instance->DR = I2C_7BIT_ADD_READ(DevAddress);
 80043ba:	897b      	ldrh	r3, [r7, #10]
 80043bc:	b2db      	uxtb	r3, r3
 80043be:	f043 0301 	orr.w	r3, r3, #1
 80043c2:	b2da      	uxtb	r2, r3
 80043c4:	68fb      	ldr	r3, [r7, #12]
 80043c6:	681b      	ldr	r3, [r3, #0]
 80043c8:	611a      	str	r2, [r3, #16]
 80043ca:	e053      	b.n	8004474 <I2C_MasterRequestRead+0x144>
  }
  else
  {
    /* Send header of slave address */
    hi2c->Instance->DR = I2C_10BIT_HEADER_WRITE(DevAddress);
 80043cc:	897b      	ldrh	r3, [r7, #10]
 80043ce:	11db      	asrs	r3, r3, #7
 80043d0:	b2db      	uxtb	r3, r3
 80043d2:	f003 0306 	and.w	r3, r3, #6
 80043d6:	b2db      	uxtb	r3, r3
 80043d8:	f063 030f 	orn	r3, r3, #15
 80043dc:	b2da      	uxtb	r2, r3
 80043de:	68fb      	ldr	r3, [r7, #12]
 80043e0:	681b      	ldr	r3, [r3, #0]
 80043e2:	611a      	str	r2, [r3, #16]

    /* Wait until ADD10 flag is set */
    if (I2C_WaitOnMasterAddressFlagUntilTimeout(hi2c, I2C_FLAG_ADD10, Timeout, Tickstart) != HAL_OK)
 80043e4:	683b      	ldr	r3, [r7, #0]
 80043e6:	687a      	ldr	r2, [r7, #4]
 80043e8:	492a      	ldr	r1, [pc, #168]	; (8004494 <I2C_MasterRequestRead+0x164>)
 80043ea:	68f8      	ldr	r0, [r7, #12]
 80043ec:	f000 f8ad 	bl	800454a <I2C_WaitOnMasterAddressFlagUntilTimeout>
 80043f0:	4603      	mov	r3, r0
 80043f2:	2b00      	cmp	r3, #0
 80043f4:	d001      	beq.n	80043fa <I2C_MasterRequestRead+0xca>
    {
      return HAL_ERROR;
 80043f6:	2301      	movs	r3, #1
 80043f8:	e048      	b.n	800448c <I2C_MasterRequestRead+0x15c>
    }

    /* Send slave address */
    hi2c->Instance->DR = I2C_10BIT_ADDRESS(DevAddress);
 80043fa:	897b      	ldrh	r3, [r7, #10]
 80043fc:	b2da      	uxtb	r2, r3
 80043fe:	68fb      	ldr	r3, [r7, #12]
 8004400:	681b      	ldr	r3, [r3, #0]
 8004402:	611a      	str	r2, [r3, #16]

    /* Wait until ADDR flag is set */
    if (I2C_WaitOnMasterAddressFlagUntilTimeout(hi2c, I2C_FLAG_ADDR, Timeout, Tickstart) != HAL_OK)
 8004404:	683b      	ldr	r3, [r7, #0]
 8004406:	687a      	ldr	r2, [r7, #4]
 8004408:	4923      	ldr	r1, [pc, #140]	; (8004498 <I2C_MasterRequestRead+0x168>)
 800440a:	68f8      	ldr	r0, [r7, #12]
 800440c:	f000 f89d 	bl	800454a <I2C_WaitOnMasterAddressFlagUntilTimeout>
 8004410:	4603      	mov	r3, r0
 8004412:	2b00      	cmp	r3, #0
 8004414:	d001      	beq.n	800441a <I2C_MasterRequestRead+0xea>
    {
      return HAL_ERROR;
 8004416:	2301      	movs	r3, #1
 8004418:	e038      	b.n	800448c <I2C_MasterRequestRead+0x15c>
    }

    /* Clear ADDR flag */
    __HAL_I2C_CLEAR_ADDRFLAG(hi2c);
 800441a:	2300      	movs	r3, #0
 800441c:	613b      	str	r3, [r7, #16]
 800441e:	68fb      	ldr	r3, [r7, #12]
 8004420:	681b      	ldr	r3, [r3, #0]
 8004422:	695b      	ldr	r3, [r3, #20]
 8004424:	613b      	str	r3, [r7, #16]
 8004426:	68fb      	ldr	r3, [r7, #12]
 8004428:	681b      	ldr	r3, [r3, #0]
 800442a:	699b      	ldr	r3, [r3, #24]
 800442c:	613b      	str	r3, [r7, #16]
 800442e:	693b      	ldr	r3, [r7, #16]

    /* Generate Restart */
    SET_BIT(hi2c->Instance->CR1, I2C_CR1_START);
 8004430:	68fb      	ldr	r3, [r7, #12]
 8004432:	681b      	ldr	r3, [r3, #0]
 8004434:	681a      	ldr	r2, [r3, #0]
 8004436:	68fb      	ldr	r3, [r7, #12]
 8004438:	681b      	ldr	r3, [r3, #0]
 800443a:	f442 7280 	orr.w	r2, r2, #256	; 0x100
 800443e:	601a      	str	r2, [r3, #0]

    /* Wait until SB flag is set */
    if (I2C_WaitOnFlagUntilTimeout(hi2c, I2C_FLAG_SB, RESET, Timeout, Tickstart) != HAL_OK)
 8004440:	683b      	ldr	r3, [r7, #0]
 8004442:	9300      	str	r3, [sp, #0]
 8004444:	687b      	ldr	r3, [r7, #4]
 8004446:	2200      	movs	r2, #0
 8004448:	f04f 1101 	mov.w	r1, #65537	; 0x10001
 800444c:	68f8      	ldr	r0, [r7, #12]
 800444e:	f000 f825 	bl	800449c <I2C_WaitOnFlagUntilTimeout>
 8004452:	4603      	mov	r3, r0
 8004454:	2b00      	cmp	r3, #0
 8004456:	d001      	beq.n	800445c <I2C_MasterRequestRead+0x12c>
    {
      return HAL_ERROR;
 8004458:	2301      	movs	r3, #1
 800445a:	e017      	b.n	800448c <I2C_MasterRequestRead+0x15c>
    }

    /* Send header of slave address */
    hi2c->Instance->DR = I2C_10BIT_HEADER_READ(DevAddress);
 800445c:	897b      	ldrh	r3, [r7, #10]
 800445e:	11db      	asrs	r3, r3, #7
 8004460:	b2db      	uxtb	r3, r3
 8004462:	f003 0306 	and.w	r3, r3, #6
 8004466:	b2db      	uxtb	r3, r3
 8004468:	f063 030e 	orn	r3, r3, #14
 800446c:	b2da      	uxtb	r2, r3
 800446e:	68fb      	ldr	r3, [r7, #12]
 8004470:	681b      	ldr	r3, [r3, #0]
 8004472:	611a      	str	r2, [r3, #16]
  }

  /* Wait until ADDR flag is set */
  if (I2C_WaitOnMasterAddressFlagUntilTimeout(hi2c, I2C_FLAG_ADDR, Timeout, Tickstart) != HAL_OK)
 8004474:	683b      	ldr	r3, [r7, #0]
 8004476:	687a      	ldr	r2, [r7, #4]
 8004478:	4907      	ldr	r1, [pc, #28]	; (8004498 <I2C_MasterRequestRead+0x168>)
 800447a:	68f8      	ldr	r0, [r7, #12]
 800447c:	f000 f865 	bl	800454a <I2C_WaitOnMasterAddressFlagUntilTimeout>
 8004480:	4603      	mov	r3, r0
 8004482:	2b00      	cmp	r3, #0
 8004484:	d001      	beq.n	800448a <I2C_MasterRequestRead+0x15a>
  {
    return HAL_ERROR;
 8004486:	2301      	movs	r3, #1
 8004488:	e000      	b.n	800448c <I2C_MasterRequestRead+0x15c>
  }

  return HAL_OK;
 800448a:	2300      	movs	r3, #0
}
 800448c:	4618      	mov	r0, r3
 800448e:	3718      	adds	r7, #24
 8004490:	46bd      	mov	sp, r7
 8004492:	bd80      	pop	{r7, pc}
 8004494:	00010008 	.word	0x00010008
 8004498:	00010002 	.word	0x00010002

0800449c <I2C_WaitOnFlagUntilTimeout>:
  * @param  Timeout Timeout duration
  * @param  Tickstart Tick start value
  * @retval HAL status
  */
static HAL_StatusTypeDef I2C_WaitOnFlagUntilTimeout(I2C_HandleTypeDef *hi2c, uint32_t Flag, FlagStatus Status, uint32_t Timeout, uint32_t Tickstart)
{
 800449c:	b580      	push	{r7, lr}
 800449e:	b084      	sub	sp, #16
 80044a0:	af00      	add	r7, sp, #0
 80044a2:	60f8      	str	r0, [r7, #12]
 80044a4:	60b9      	str	r1, [r7, #8]
 80044a6:	603b      	str	r3, [r7, #0]
 80044a8:	4613      	mov	r3, r2
 80044aa:	71fb      	strb	r3, [r7, #7]
  /* Wait until flag is set */
  while (__HAL_I2C_GET_FLAG(hi2c, Flag) == Status)
 80044ac:	e025      	b.n	80044fa <I2C_WaitOnFlagUntilTimeout+0x5e>
  {
    /* Check for the Timeout */
    if (Timeout != HAL_MAX_DELAY)
 80044ae:	683b      	ldr	r3, [r7, #0]
 80044b0:	f1b3 3fff 	cmp.w	r3, #4294967295
 80044b4:	d021      	beq.n	80044fa <I2C_WaitOnFlagUntilTimeout+0x5e>
    {
      if (((HAL_GetTick() - Tickstart) > Timeout) || (Timeout == 0U))
 80044b6:	f7fd fe5f 	bl	8002178 <HAL_GetTick>
 80044ba:	4602      	mov	r2, r0
 80044bc:	69bb      	ldr	r3, [r7, #24]
 80044be:	1ad3      	subs	r3, r2, r3
 80044c0:	683a      	ldr	r2, [r7, #0]
 80044c2:	429a      	cmp	r2, r3
 80044c4:	d302      	bcc.n	80044cc <I2C_WaitOnFlagUntilTimeout+0x30>
 80044c6:	683b      	ldr	r3, [r7, #0]
 80044c8:	2b00      	cmp	r3, #0
 80044ca:	d116      	bne.n	80044fa <I2C_WaitOnFlagUntilTimeout+0x5e>
      {
        hi2c->PreviousState     = I2C_STATE_NONE;
 80044cc:	68fb      	ldr	r3, [r7, #12]
 80044ce:	2200      	movs	r2, #0
 80044d0:	631a      	str	r2, [r3, #48]	; 0x30
        hi2c->State             = HAL_I2C_STATE_READY;
 80044d2:	68fb      	ldr	r3, [r7, #12]
 80044d4:	2220      	movs	r2, #32
 80044d6:	f883 203d 	strb.w	r2, [r3, #61]	; 0x3d
        hi2c->Mode              = HAL_I2C_MODE_NONE;
 80044da:	68fb      	ldr	r3, [r7, #12]
 80044dc:	2200      	movs	r2, #0
 80044de:	f883 203e 	strb.w	r2, [r3, #62]	; 0x3e
        hi2c->ErrorCode         |= HAL_I2C_ERROR_TIMEOUT;
 80044e2:	68fb      	ldr	r3, [r7, #12]
 80044e4:	6c1b      	ldr	r3, [r3, #64]	; 0x40
 80044e6:	f043 0220 	orr.w	r2, r3, #32
 80044ea:	68fb      	ldr	r3, [r7, #12]
 80044ec:	641a      	str	r2, [r3, #64]	; 0x40

        /* Process Unlocked */
        __HAL_UNLOCK(hi2c);
 80044ee:	68fb      	ldr	r3, [r7, #12]
 80044f0:	2200      	movs	r2, #0
 80044f2:	f883 203c 	strb.w	r2, [r3, #60]	; 0x3c

        return HAL_ERROR;
 80044f6:	2301      	movs	r3, #1
 80044f8:	e023      	b.n	8004542 <I2C_WaitOnFlagUntilTimeout+0xa6>
  while (__HAL_I2C_GET_FLAG(hi2c, Flag) == Status)
 80044fa:	68bb      	ldr	r3, [r7, #8]
 80044fc:	0c1b      	lsrs	r3, r3, #16
 80044fe:	b2db      	uxtb	r3, r3
 8004500:	2b01      	cmp	r3, #1
 8004502:	d10d      	bne.n	8004520 <I2C_WaitOnFlagUntilTimeout+0x84>
 8004504:	68fb      	ldr	r3, [r7, #12]
 8004506:	681b      	ldr	r3, [r3, #0]
 8004508:	695b      	ldr	r3, [r3, #20]
 800450a:	43da      	mvns	r2, r3
 800450c:	68bb      	ldr	r3, [r7, #8]
 800450e:	4013      	ands	r3, r2
 8004510:	b29b      	uxth	r3, r3
 8004512:	2b00      	cmp	r3, #0
 8004514:	bf0c      	ite	eq
 8004516:	2301      	moveq	r3, #1
 8004518:	2300      	movne	r3, #0
 800451a:	b2db      	uxtb	r3, r3
 800451c:	461a      	mov	r2, r3
 800451e:	e00c      	b.n	800453a <I2C_WaitOnFlagUntilTimeout+0x9e>
 8004520:	68fb      	ldr	r3, [r7, #12]
 8004522:	681b      	ldr	r3, [r3, #0]
 8004524:	699b      	ldr	r3, [r3, #24]
 8004526:	43da      	mvns	r2, r3
 8004528:	68bb      	ldr	r3, [r7, #8]
 800452a:	4013      	ands	r3, r2
 800452c:	b29b      	uxth	r3, r3
 800452e:	2b00      	cmp	r3, #0
 8004530:	bf0c      	ite	eq
 8004532:	2301      	moveq	r3, #1
 8004534:	2300      	movne	r3, #0
 8004536:	b2db      	uxtb	r3, r3
 8004538:	461a      	mov	r2, r3
 800453a:	79fb      	ldrb	r3, [r7, #7]
 800453c:	429a      	cmp	r2, r3
 800453e:	d0b6      	beq.n	80044ae <I2C_WaitOnFlagUntilTimeout+0x12>
      }
    }
  }
  return HAL_OK;
 8004540:	2300      	movs	r3, #0
}
 8004542:	4618      	mov	r0, r3
 8004544:	3710      	adds	r7, #16
 8004546:	46bd      	mov	sp, r7
 8004548:	bd80      	pop	{r7, pc}

0800454a <I2C_WaitOnMasterAddressFlagUntilTimeout>:
  * @param  Timeout Timeout duration
  * @param  Tickstart Tick start value
  * @retval HAL status
  */
static HAL_StatusTypeDef I2C_WaitOnMasterAddressFlagUntilTimeout(I2C_HandleTypeDef *hi2c, uint32_t Flag, uint32_t Timeout, uint32_t Tickstart)
{
 800454a:	b580      	push	{r7, lr}
 800454c:	b084      	sub	sp, #16
 800454e:	af00      	add	r7, sp, #0
 8004550:	60f8      	str	r0, [r7, #12]
 8004552:	60b9      	str	r1, [r7, #8]
 8004554:	607a      	str	r2, [r7, #4]
 8004556:	603b      	str	r3, [r7, #0]
  while (__HAL_I2C_GET_FLAG(hi2c, Flag) == RESET)
 8004558:	e051      	b.n	80045fe <I2C_WaitOnMasterAddressFlagUntilTimeout+0xb4>
  {
    if (__HAL_I2C_GET_FLAG(hi2c, I2C_FLAG_AF) == SET)
 800455a:	68fb      	ldr	r3, [r7, #12]
 800455c:	681b      	ldr	r3, [r3, #0]
 800455e:	695b      	ldr	r3, [r3, #20]
 8004560:	f403 6380 	and.w	r3, r3, #1024	; 0x400
 8004564:	f5b3 6f80 	cmp.w	r3, #1024	; 0x400
 8004568:	d123      	bne.n	80045b2 <I2C_WaitOnMasterAddressFlagUntilTimeout+0x68>
    {
      /* Generate Stop */
      SET_BIT(hi2c->Instance->CR1, I2C_CR1_STOP);
 800456a:	68fb      	ldr	r3, [r7, #12]
 800456c:	681b      	ldr	r3, [r3, #0]
 800456e:	681a      	ldr	r2, [r3, #0]
 8004570:	68fb      	ldr	r3, [r7, #12]
 8004572:	681b      	ldr	r3, [r3, #0]
 8004574:	f442 7200 	orr.w	r2, r2, #512	; 0x200
 8004578:	601a      	str	r2, [r3, #0]

      /* Clear AF Flag */
      __HAL_I2C_CLEAR_FLAG(hi2c, I2C_FLAG_AF);
 800457a:	68fb      	ldr	r3, [r7, #12]
 800457c:	681b      	ldr	r3, [r3, #0]
 800457e:	f46f 6280 	mvn.w	r2, #1024	; 0x400
 8004582:	615a      	str	r2, [r3, #20]

      hi2c->PreviousState       = I2C_STATE_NONE;
 8004584:	68fb      	ldr	r3, [r7, #12]
 8004586:	2200      	movs	r2, #0
 8004588:	631a      	str	r2, [r3, #48]	; 0x30
      hi2c->State               = HAL_I2C_STATE_READY;
 800458a:	68fb      	ldr	r3, [r7, #12]
 800458c:	2220      	movs	r2, #32
 800458e:	f883 203d 	strb.w	r2, [r3, #61]	; 0x3d
      hi2c->Mode                = HAL_I2C_MODE_NONE;
 8004592:	68fb      	ldr	r3, [r7, #12]
 8004594:	2200      	movs	r2, #0
 8004596:	f883 203e 	strb.w	r2, [r3, #62]	; 0x3e
      hi2c->ErrorCode           |= HAL_I2C_ERROR_AF;
 800459a:	68fb      	ldr	r3, [r7, #12]
 800459c:	6c1b      	ldr	r3, [r3, #64]	; 0x40
 800459e:	f043 0204 	orr.w	r2, r3, #4
 80045a2:	68fb      	ldr	r3, [r7, #12]
 80045a4:	641a      	str	r2, [r3, #64]	; 0x40

      /* Process Unlocked */
      __HAL_UNLOCK(hi2c);
 80045a6:	68fb      	ldr	r3, [r7, #12]
 80045a8:	2200      	movs	r2, #0
 80045aa:	f883 203c 	strb.w	r2, [r3, #60]	; 0x3c

      return HAL_ERROR;
 80045ae:	2301      	movs	r3, #1
 80045b0:	e046      	b.n	8004640 <I2C_WaitOnMasterAddressFlagUntilTimeout+0xf6>
    }

    /* Check for the Timeout */
    if (Timeout != HAL_MAX_DELAY)
 80045b2:	687b      	ldr	r3, [r7, #4]
 80045b4:	f1b3 3fff 	cmp.w	r3, #4294967295
 80045b8:	d021      	beq.n	80045fe <I2C_WaitOnMasterAddressFlagUntilTimeout+0xb4>
    {
      if (((HAL_GetTick() - Tickstart) > Timeout) || (Timeout == 0U))
 80045ba:	f7fd fddd 	bl	8002178 <HAL_GetTick>
 80045be:	4602      	mov	r2, r0
 80045c0:	683b      	ldr	r3, [r7, #0]
 80045c2:	1ad3      	subs	r3, r2, r3
 80045c4:	687a      	ldr	r2, [r7, #4]
 80045c6:	429a      	cmp	r2, r3
 80045c8:	d302      	bcc.n	80045d0 <I2C_WaitOnMasterAddressFlagUntilTimeout+0x86>
 80045ca:	687b      	ldr	r3, [r7, #4]
 80045cc:	2b00      	cmp	r3, #0
 80045ce:	d116      	bne.n	80045fe <I2C_WaitOnMasterAddressFlagUntilTimeout+0xb4>
      {
        hi2c->PreviousState       = I2C_STATE_NONE;
 80045d0:	68fb      	ldr	r3, [r7, #12]
 80045d2:	2200      	movs	r2, #0
 80045d4:	631a      	str	r2, [r3, #48]	; 0x30
        hi2c->State               = HAL_I2C_STATE_READY;
 80045d6:	68fb      	ldr	r3, [r7, #12]
 80045d8:	2220      	movs	r2, #32
 80045da:	f883 203d 	strb.w	r2, [r3, #61]	; 0x3d
        hi2c->Mode                = HAL_I2C_MODE_NONE;
 80045de:	68fb      	ldr	r3, [r7, #12]
 80045e0:	2200      	movs	r2, #0
 80045e2:	f883 203e 	strb.w	r2, [r3, #62]	; 0x3e
        hi2c->ErrorCode           |= HAL_I2C_ERROR_TIMEOUT;
 80045e6:	68fb      	ldr	r3, [r7, #12]
 80045e8:	6c1b      	ldr	r3, [r3, #64]	; 0x40
 80045ea:	f043 0220 	orr.w	r2, r3, #32
 80045ee:	68fb      	ldr	r3, [r7, #12]
 80045f0:	641a      	str	r2, [r3, #64]	; 0x40

        /* Process Unlocked */
        __HAL_UNLOCK(hi2c);
 80045f2:	68fb      	ldr	r3, [r7, #12]
 80045f4:	2200      	movs	r2, #0
 80045f6:	f883 203c 	strb.w	r2, [r3, #60]	; 0x3c

        return HAL_ERROR;
 80045fa:	2301      	movs	r3, #1
 80045fc:	e020      	b.n	8004640 <I2C_WaitOnMasterAddressFlagUntilTimeout+0xf6>
  while (__HAL_I2C_GET_FLAG(hi2c, Flag) == RESET)
 80045fe:	68bb      	ldr	r3, [r7, #8]
 8004600:	0c1b      	lsrs	r3, r3, #16
 8004602:	b2db      	uxtb	r3, r3
 8004604:	2b01      	cmp	r3, #1
 8004606:	d10c      	bne.n	8004622 <I2C_WaitOnMasterAddressFlagUntilTimeout+0xd8>
 8004608:	68fb      	ldr	r3, [r7, #12]
 800460a:	681b      	ldr	r3, [r3, #0]
 800460c:	695b      	ldr	r3, [r3, #20]
 800460e:	43da      	mvns	r2, r3
 8004610:	68bb      	ldr	r3, [r7, #8]
 8004612:	4013      	ands	r3, r2
 8004614:	b29b      	uxth	r3, r3
 8004616:	2b00      	cmp	r3, #0
 8004618:	bf14      	ite	ne
 800461a:	2301      	movne	r3, #1
 800461c:	2300      	moveq	r3, #0
 800461e:	b2db      	uxtb	r3, r3
 8004620:	e00b      	b.n	800463a <I2C_WaitOnMasterAddressFlagUntilTimeout+0xf0>
 8004622:	68fb      	ldr	r3, [r7, #12]
 8004624:	681b      	ldr	r3, [r3, #0]
 8004626:	699b      	ldr	r3, [r3, #24]
 8004628:	43da      	mvns	r2, r3
 800462a:	68bb      	ldr	r3, [r7, #8]
 800462c:	4013      	ands	r3, r2
 800462e:	b29b      	uxth	r3, r3
 8004630:	2b00      	cmp	r3, #0
 8004632:	bf14      	ite	ne
 8004634:	2301      	movne	r3, #1
 8004636:	2300      	moveq	r3, #0
 8004638:	b2db      	uxtb	r3, r3
 800463a:	2b00      	cmp	r3, #0
 800463c:	d18d      	bne.n	800455a <I2C_WaitOnMasterAddressFlagUntilTimeout+0x10>
      }
    }
  }
  return HAL_OK;
 800463e:	2300      	movs	r3, #0
}
 8004640:	4618      	mov	r0, r3
 8004642:	3710      	adds	r7, #16
 8004644:	46bd      	mov	sp, r7
 8004646:	bd80      	pop	{r7, pc}

08004648 <I2C_WaitOnRXNEFlagUntilTimeout>:
  * @param  Timeout Timeout duration
  * @param  Tickstart Tick start value
  * @retval HAL status
  */
static HAL_StatusTypeDef I2C_WaitOnRXNEFlagUntilTimeout(I2C_HandleTypeDef *hi2c, uint32_t Timeout, uint32_t Tickstart)
{
 8004648:	b580      	push	{r7, lr}
 800464a:	b084      	sub	sp, #16
 800464c:	af00      	add	r7, sp, #0
 800464e:	60f8      	str	r0, [r7, #12]
 8004650:	60b9      	str	r1, [r7, #8]
 8004652:	607a      	str	r2, [r7, #4]

  while (__HAL_I2C_GET_FLAG(hi2c, I2C_FLAG_RXNE) == RESET)
 8004654:	e042      	b.n	80046dc <I2C_WaitOnRXNEFlagUntilTimeout+0x94>
  {
    /* Check if a STOPF is detected */
    if (__HAL_I2C_GET_FLAG(hi2c, I2C_FLAG_STOPF) == SET)
 8004656:	68fb      	ldr	r3, [r7, #12]
 8004658:	681b      	ldr	r3, [r3, #0]
 800465a:	695b      	ldr	r3, [r3, #20]
 800465c:	f003 0310 	and.w	r3, r3, #16
 8004660:	2b10      	cmp	r3, #16
 8004662:	d119      	bne.n	8004698 <I2C_WaitOnRXNEFlagUntilTimeout+0x50>
    {
      /* Clear STOP Flag */
      __HAL_I2C_CLEAR_FLAG(hi2c, I2C_FLAG_STOPF);
 8004664:	68fb      	ldr	r3, [r7, #12]
 8004666:	681b      	ldr	r3, [r3, #0]
 8004668:	f06f 0210 	mvn.w	r2, #16
 800466c:	615a      	str	r2, [r3, #20]

      hi2c->PreviousState       = I2C_STATE_NONE;
 800466e:	68fb      	ldr	r3, [r7, #12]
 8004670:	2200      	movs	r2, #0
 8004672:	631a      	str	r2, [r3, #48]	; 0x30
      hi2c->State               = HAL_I2C_STATE_READY;
 8004674:	68fb      	ldr	r3, [r7, #12]
 8004676:	2220      	movs	r2, #32
 8004678:	f883 203d 	strb.w	r2, [r3, #61]	; 0x3d
      hi2c->Mode                = HAL_I2C_MODE_NONE;
 800467c:	68fb      	ldr	r3, [r7, #12]
 800467e:	2200      	movs	r2, #0
 8004680:	f883 203e 	strb.w	r2, [r3, #62]	; 0x3e
      hi2c->ErrorCode           |= HAL_I2C_ERROR_NONE;
 8004684:	68fb      	ldr	r3, [r7, #12]
 8004686:	6c1a      	ldr	r2, [r3, #64]	; 0x40
 8004688:	68fb      	ldr	r3, [r7, #12]
 800468a:	641a      	str	r2, [r3, #64]	; 0x40

      /* Process Unlocked */
      __HAL_UNLOCK(hi2c);
 800468c:	68fb      	ldr	r3, [r7, #12]
 800468e:	2200      	movs	r2, #0
 8004690:	f883 203c 	strb.w	r2, [r3, #60]	; 0x3c

      return HAL_ERROR;
 8004694:	2301      	movs	r3, #1
 8004696:	e029      	b.n	80046ec <I2C_WaitOnRXNEFlagUntilTimeout+0xa4>
    }

    /* Check for the Timeout */
    if (((HAL_GetTick() - Tickstart) > Timeout) || (Timeout == 0U))
 8004698:	f7fd fd6e 	bl	8002178 <HAL_GetTick>
 800469c:	4602      	mov	r2, r0
 800469e:	687b      	ldr	r3, [r7, #4]
 80046a0:	1ad3      	subs	r3, r2, r3
 80046a2:	68ba      	ldr	r2, [r7, #8]
 80046a4:	429a      	cmp	r2, r3
 80046a6:	d302      	bcc.n	80046ae <I2C_WaitOnRXNEFlagUntilTimeout+0x66>
 80046a8:	68bb      	ldr	r3, [r7, #8]
 80046aa:	2b00      	cmp	r3, #0
 80046ac:	d116      	bne.n	80046dc <I2C_WaitOnRXNEFlagUntilTimeout+0x94>
    {
      hi2c->PreviousState       = I2C_STATE_NONE;
 80046ae:	68fb      	ldr	r3, [r7, #12]
 80046b0:	2200      	movs	r2, #0
 80046b2:	631a      	str	r2, [r3, #48]	; 0x30
      hi2c->State               = HAL_I2C_STATE_READY;
 80046b4:	68fb      	ldr	r3, [r7, #12]
 80046b6:	2220      	movs	r2, #32
 80046b8:	f883 203d 	strb.w	r2, [r3, #61]	; 0x3d
      hi2c->Mode                = HAL_I2C_MODE_NONE;
 80046bc:	68fb      	ldr	r3, [r7, #12]
 80046be:	2200      	movs	r2, #0
 80046c0:	f883 203e 	strb.w	r2, [r3, #62]	; 0x3e
      hi2c->ErrorCode           |= HAL_I2C_ERROR_TIMEOUT;
 80046c4:	68fb      	ldr	r3, [r7, #12]
 80046c6:	6c1b      	ldr	r3, [r3, #64]	; 0x40
 80046c8:	f043 0220 	orr.w	r2, r3, #32
 80046cc:	68fb      	ldr	r3, [r7, #12]
 80046ce:	641a      	str	r2, [r3, #64]	; 0x40

      /* Process Unlocked */
      __HAL_UNLOCK(hi2c);
 80046d0:	68fb      	ldr	r3, [r7, #12]
 80046d2:	2200      	movs	r2, #0
 80046d4:	f883 203c 	strb.w	r2, [r3, #60]	; 0x3c

      return HAL_ERROR;
 80046d8:	2301      	movs	r3, #1
 80046da:	e007      	b.n	80046ec <I2C_WaitOnRXNEFlagUntilTimeout+0xa4>
  while (__HAL_I2C_GET_FLAG(hi2c, I2C_FLAG_RXNE) == RESET)
 80046dc:	68fb      	ldr	r3, [r7, #12]
 80046de:	681b      	ldr	r3, [r3, #0]
 80046e0:	695b      	ldr	r3, [r3, #20]
 80046e2:	f003 0340 	and.w	r3, r3, #64	; 0x40
 80046e6:	2b40      	cmp	r3, #64	; 0x40
 80046e8:	d1b5      	bne.n	8004656 <I2C_WaitOnRXNEFlagUntilTimeout+0xe>
    }
  }
  return HAL_OK;
 80046ea:	2300      	movs	r3, #0
}
 80046ec:	4618      	mov	r0, r3
 80046ee:	3710      	adds	r7, #16
 80046f0:	46bd      	mov	sp, r7
 80046f2:	bd80      	pop	{r7, pc}

080046f4 <HAL_RCC_OscConfig>:
  *         supported by this macro. User should request a transition to HSE Off
  *         first and then HSE On or HSE Bypass.
  * @retval HAL status
  */
HAL_StatusTypeDef HAL_RCC_OscConfig(RCC_OscInitTypeDef  *RCC_OscInitStruct)
{
 80046f4:	b580      	push	{r7, lr}
 80046f6:	b086      	sub	sp, #24
 80046f8:	af00      	add	r7, sp, #0
 80046fa:	6078      	str	r0, [r7, #4]
  uint32_t tickstart;
  uint32_t pll_config;

  /* Check Null pointer */
  if (RCC_OscInitStruct == NULL)
 80046fc:	687b      	ldr	r3, [r7, #4]
 80046fe:	2b00      	cmp	r3, #0
 8004700:	d101      	bne.n	8004706 <HAL_RCC_OscConfig+0x12>
  {
    return HAL_ERROR;
 8004702:	2301      	movs	r3, #1
 8004704:	e26c      	b.n	8004be0 <HAL_RCC_OscConfig+0x4ec>

  /* Check the parameters */
  assert_param(IS_RCC_OSCILLATORTYPE(RCC_OscInitStruct->OscillatorType));

  /*------------------------------- HSE Configuration ------------------------*/
  if (((RCC_OscInitStruct->OscillatorType) & RCC_OSCILLATORTYPE_HSE) == RCC_OSCILLATORTYPE_HSE)
 8004706:	687b      	ldr	r3, [r7, #4]
 8004708:	681b      	ldr	r3, [r3, #0]
 800470a:	f003 0301 	and.w	r3, r3, #1
 800470e:	2b00      	cmp	r3, #0
 8004710:	f000 8087 	beq.w	8004822 <HAL_RCC_OscConfig+0x12e>
  {
    /* Check the parameters */
    assert_param(IS_RCC_HSE(RCC_OscInitStruct->HSEState));

    /* When the HSE is used as system clock or clock source for PLL in these cases it is not allowed to be disabled */
    if ((__HAL_RCC_GET_SYSCLK_SOURCE() == RCC_SYSCLKSOURCE_STATUS_HSE)
 8004714:	4b92      	ldr	r3, [pc, #584]	; (8004960 <HAL_RCC_OscConfig+0x26c>)
 8004716:	685b      	ldr	r3, [r3, #4]
 8004718:	f003 030c 	and.w	r3, r3, #12
 800471c:	2b04      	cmp	r3, #4
 800471e:	d00c      	beq.n	800473a <HAL_RCC_OscConfig+0x46>
        || ((__HAL_RCC_GET_SYSCLK_SOURCE() == RCC_SYSCLKSOURCE_STATUS_PLLCLK) && (__HAL_RCC_GET_PLL_OSCSOURCE() == RCC_PLLSOURCE_HSE)))
 8004720:	4b8f      	ldr	r3, [pc, #572]	; (8004960 <HAL_RCC_OscConfig+0x26c>)
 8004722:	685b      	ldr	r3, [r3, #4]
 8004724:	f003 030c 	and.w	r3, r3, #12
 8004728:	2b08      	cmp	r3, #8
 800472a:	d112      	bne.n	8004752 <HAL_RCC_OscConfig+0x5e>
 800472c:	4b8c      	ldr	r3, [pc, #560]	; (8004960 <HAL_RCC_OscConfig+0x26c>)
 800472e:	685b      	ldr	r3, [r3, #4]
 8004730:	f403 3380 	and.w	r3, r3, #65536	; 0x10000
 8004734:	f5b3 3f80 	cmp.w	r3, #65536	; 0x10000
 8004738:	d10b      	bne.n	8004752 <HAL_RCC_OscConfig+0x5e>
    {
      if ((__HAL_RCC_GET_FLAG(RCC_FLAG_HSERDY) != RESET) && (RCC_OscInitStruct->HSEState == RCC_HSE_OFF))
 800473a:	4b89      	ldr	r3, [pc, #548]	; (8004960 <HAL_RCC_OscConfig+0x26c>)
 800473c:	681b      	ldr	r3, [r3, #0]
 800473e:	f403 3300 	and.w	r3, r3, #131072	; 0x20000
 8004742:	2b00      	cmp	r3, #0
 8004744:	d06c      	beq.n	8004820 <HAL_RCC_OscConfig+0x12c>
 8004746:	687b      	ldr	r3, [r7, #4]
 8004748:	685b      	ldr	r3, [r3, #4]
 800474a:	2b00      	cmp	r3, #0
 800474c:	d168      	bne.n	8004820 <HAL_RCC_OscConfig+0x12c>
      {
        return HAL_ERROR;
 800474e:	2301      	movs	r3, #1
 8004750:	e246      	b.n	8004be0 <HAL_RCC_OscConfig+0x4ec>
      }
    }
    else
    {
      /* Set the new HSE configuration ---------------------------------------*/
      __HAL_RCC_HSE_CONFIG(RCC_OscInitStruct->HSEState);
 8004752:	687b      	ldr	r3, [r7, #4]
 8004754:	685b      	ldr	r3, [r3, #4]
 8004756:	f5b3 3f80 	cmp.w	r3, #65536	; 0x10000
 800475a:	d106      	bne.n	800476a <HAL_RCC_OscConfig+0x76>
 800475c:	4b80      	ldr	r3, [pc, #512]	; (8004960 <HAL_RCC_OscConfig+0x26c>)
 800475e:	681b      	ldr	r3, [r3, #0]
 8004760:	4a7f      	ldr	r2, [pc, #508]	; (8004960 <HAL_RCC_OscConfig+0x26c>)
 8004762:	f443 3380 	orr.w	r3, r3, #65536	; 0x10000
 8004766:	6013      	str	r3, [r2, #0]
 8004768:	e02e      	b.n	80047c8 <HAL_RCC_OscConfig+0xd4>
 800476a:	687b      	ldr	r3, [r7, #4]
 800476c:	685b      	ldr	r3, [r3, #4]
 800476e:	2b00      	cmp	r3, #0
 8004770:	d10c      	bne.n	800478c <HAL_RCC_OscConfig+0x98>
 8004772:	4b7b      	ldr	r3, [pc, #492]	; (8004960 <HAL_RCC_OscConfig+0x26c>)
 8004774:	681b      	ldr	r3, [r3, #0]
 8004776:	4a7a      	ldr	r2, [pc, #488]	; (8004960 <HAL_RCC_OscConfig+0x26c>)
 8004778:	f423 3380 	bic.w	r3, r3, #65536	; 0x10000
 800477c:	6013      	str	r3, [r2, #0]
 800477e:	4b78      	ldr	r3, [pc, #480]	; (8004960 <HAL_RCC_OscConfig+0x26c>)
 8004780:	681b      	ldr	r3, [r3, #0]
 8004782:	4a77      	ldr	r2, [pc, #476]	; (8004960 <HAL_RCC_OscConfig+0x26c>)
 8004784:	f423 2380 	bic.w	r3, r3, #262144	; 0x40000
 8004788:	6013      	str	r3, [r2, #0]
 800478a:	e01d      	b.n	80047c8 <HAL_RCC_OscConfig+0xd4>
 800478c:	687b      	ldr	r3, [r7, #4]
 800478e:	685b      	ldr	r3, [r3, #4]
 8004790:	f5b3 2fa0 	cmp.w	r3, #327680	; 0x50000
 8004794:	d10c      	bne.n	80047b0 <HAL_RCC_OscConfig+0xbc>
 8004796:	4b72      	ldr	r3, [pc, #456]	; (8004960 <HAL_RCC_OscConfig+0x26c>)
 8004798:	681b      	ldr	r3, [r3, #0]
 800479a:	4a71      	ldr	r2, [pc, #452]	; (8004960 <HAL_RCC_OscConfig+0x26c>)
 800479c:	f443 2380 	orr.w	r3, r3, #262144	; 0x40000
 80047a0:	6013      	str	r3, [r2, #0]
 80047a2:	4b6f      	ldr	r3, [pc, #444]	; (8004960 <HAL_RCC_OscConfig+0x26c>)
 80047a4:	681b      	ldr	r3, [r3, #0]
 80047a6:	4a6e      	ldr	r2, [pc, #440]	; (8004960 <HAL_RCC_OscConfig+0x26c>)
 80047a8:	f443 3380 	orr.w	r3, r3, #65536	; 0x10000
 80047ac:	6013      	str	r3, [r2, #0]
 80047ae:	e00b      	b.n	80047c8 <HAL_RCC_OscConfig+0xd4>
 80047b0:	4b6b      	ldr	r3, [pc, #428]	; (8004960 <HAL_RCC_OscConfig+0x26c>)
 80047b2:	681b      	ldr	r3, [r3, #0]
 80047b4:	4a6a      	ldr	r2, [pc, #424]	; (8004960 <HAL_RCC_OscConfig+0x26c>)
 80047b6:	f423 3380 	bic.w	r3, r3, #65536	; 0x10000
 80047ba:	6013      	str	r3, [r2, #0]
 80047bc:	4b68      	ldr	r3, [pc, #416]	; (8004960 <HAL_RCC_OscConfig+0x26c>)
 80047be:	681b      	ldr	r3, [r3, #0]
 80047c0:	4a67      	ldr	r2, [pc, #412]	; (8004960 <HAL_RCC_OscConfig+0x26c>)
 80047c2:	f423 2380 	bic.w	r3, r3, #262144	; 0x40000
 80047c6:	6013      	str	r3, [r2, #0]


      /* Check the HSE State */
      if (RCC_OscInitStruct->HSEState != RCC_HSE_OFF)
 80047c8:	687b      	ldr	r3, [r7, #4]
 80047ca:	685b      	ldr	r3, [r3, #4]
 80047cc:	2b00      	cmp	r3, #0
 80047ce:	d013      	beq.n	80047f8 <HAL_RCC_OscConfig+0x104>
      {
        /* Get Start Tick */
        tickstart = HAL_GetTick();
 80047d0:	f7fd fcd2 	bl	8002178 <HAL_GetTick>
 80047d4:	6138      	str	r0, [r7, #16]

        /* Wait till HSE is ready */
        while (__HAL_RCC_GET_FLAG(RCC_FLAG_HSERDY) == RESET)
 80047d6:	e008      	b.n	80047ea <HAL_RCC_OscConfig+0xf6>
        {
          if ((HAL_GetTick() - tickstart) > HSE_TIMEOUT_VALUE)
 80047d8:	f7fd fcce 	bl	8002178 <HAL_GetTick>
 80047dc:	4602      	mov	r2, r0
 80047de:	693b      	ldr	r3, [r7, #16]
 80047e0:	1ad3      	subs	r3, r2, r3
 80047e2:	2b64      	cmp	r3, #100	; 0x64
 80047e4:	d901      	bls.n	80047ea <HAL_RCC_OscConfig+0xf6>
          {
            return HAL_TIMEOUT;
 80047e6:	2303      	movs	r3, #3
 80047e8:	e1fa      	b.n	8004be0 <HAL_RCC_OscConfig+0x4ec>
        while (__HAL_RCC_GET_FLAG(RCC_FLAG_HSERDY) == RESET)
 80047ea:	4b5d      	ldr	r3, [pc, #372]	; (8004960 <HAL_RCC_OscConfig+0x26c>)
 80047ec:	681b      	ldr	r3, [r3, #0]
 80047ee:	f403 3300 	and.w	r3, r3, #131072	; 0x20000
 80047f2:	2b00      	cmp	r3, #0
 80047f4:	d0f0      	beq.n	80047d8 <HAL_RCC_OscConfig+0xe4>
 80047f6:	e014      	b.n	8004822 <HAL_RCC_OscConfig+0x12e>
        }
      }
      else
      {
        /* Get Start Tick */
        tickstart = HAL_GetTick();
 80047f8:	f7fd fcbe 	bl	8002178 <HAL_GetTick>
 80047fc:	6138      	str	r0, [r7, #16]

        /* Wait till HSE is disabled */
        while (__HAL_RCC_GET_FLAG(RCC_FLAG_HSERDY) != RESET)
 80047fe:	e008      	b.n	8004812 <HAL_RCC_OscConfig+0x11e>
        {
          if ((HAL_GetTick() - tickstart) > HSE_TIMEOUT_VALUE)
 8004800:	f7fd fcba 	bl	8002178 <HAL_GetTick>
 8004804:	4602      	mov	r2, r0
 8004806:	693b      	ldr	r3, [r7, #16]
 8004808:	1ad3      	subs	r3, r2, r3
 800480a:	2b64      	cmp	r3, #100	; 0x64
 800480c:	d901      	bls.n	8004812 <HAL_RCC_OscConfig+0x11e>
          {
            return HAL_TIMEOUT;
 800480e:	2303      	movs	r3, #3
 8004810:	e1e6      	b.n	8004be0 <HAL_RCC_OscConfig+0x4ec>
        while (__HAL_RCC_GET_FLAG(RCC_FLAG_HSERDY) != RESET)
 8004812:	4b53      	ldr	r3, [pc, #332]	; (8004960 <HAL_RCC_OscConfig+0x26c>)
 8004814:	681b      	ldr	r3, [r3, #0]
 8004816:	f403 3300 	and.w	r3, r3, #131072	; 0x20000
 800481a:	2b00      	cmp	r3, #0
 800481c:	d1f0      	bne.n	8004800 <HAL_RCC_OscConfig+0x10c>
 800481e:	e000      	b.n	8004822 <HAL_RCC_OscConfig+0x12e>
      if ((__HAL_RCC_GET_FLAG(RCC_FLAG_HSERDY) != RESET) && (RCC_OscInitStruct->HSEState == RCC_HSE_OFF))
 8004820:	bf00      	nop
        }
      }
    }
  }
  /*----------------------------- HSI Configuration --------------------------*/
  if (((RCC_OscInitStruct->OscillatorType) & RCC_OSCILLATORTYPE_HSI) == RCC_OSCILLATORTYPE_HSI)
 8004822:	687b      	ldr	r3, [r7, #4]
 8004824:	681b      	ldr	r3, [r3, #0]
 8004826:	f003 0302 	and.w	r3, r3, #2
 800482a:	2b00      	cmp	r3, #0
 800482c:	d063      	beq.n	80048f6 <HAL_RCC_OscConfig+0x202>
    /* Check the parameters */
    assert_param(IS_RCC_HSI(RCC_OscInitStruct->HSIState));
    assert_param(IS_RCC_CALIBRATION_VALUE(RCC_OscInitStruct->HSICalibrationValue));

    /* Check if HSI is used as system clock or as PLL source when PLL is selected as system clock */
    if ((__HAL_RCC_GET_SYSCLK_SOURCE() == RCC_SYSCLKSOURCE_STATUS_HSI)
 800482e:	4b4c      	ldr	r3, [pc, #304]	; (8004960 <HAL_RCC_OscConfig+0x26c>)
 8004830:	685b      	ldr	r3, [r3, #4]
 8004832:	f003 030c 	and.w	r3, r3, #12
 8004836:	2b00      	cmp	r3, #0
 8004838:	d00b      	beq.n	8004852 <HAL_RCC_OscConfig+0x15e>
        || ((__HAL_RCC_GET_SYSCLK_SOURCE() == RCC_SYSCLKSOURCE_STATUS_PLLCLK) && (__HAL_RCC_GET_PLL_OSCSOURCE() == RCC_PLLSOURCE_HSI_DIV2)))
 800483a:	4b49      	ldr	r3, [pc, #292]	; (8004960 <HAL_RCC_OscConfig+0x26c>)
 800483c:	685b      	ldr	r3, [r3, #4]
 800483e:	f003 030c 	and.w	r3, r3, #12
 8004842:	2b08      	cmp	r3, #8
 8004844:	d11c      	bne.n	8004880 <HAL_RCC_OscConfig+0x18c>
 8004846:	4b46      	ldr	r3, [pc, #280]	; (8004960 <HAL_RCC_OscConfig+0x26c>)
 8004848:	685b      	ldr	r3, [r3, #4]
 800484a:	f403 3380 	and.w	r3, r3, #65536	; 0x10000
 800484e:	2b00      	cmp	r3, #0
 8004850:	d116      	bne.n	8004880 <HAL_RCC_OscConfig+0x18c>
    {
      /* When HSI is used as system clock it will not disabled */
      if ((__HAL_RCC_GET_FLAG(RCC_FLAG_HSIRDY) != RESET) && (RCC_OscInitStruct->HSIState != RCC_HSI_ON))
 8004852:	4b43      	ldr	r3, [pc, #268]	; (8004960 <HAL_RCC_OscConfig+0x26c>)
 8004854:	681b      	ldr	r3, [r3, #0]
 8004856:	f003 0302 	and.w	r3, r3, #2
 800485a:	2b00      	cmp	r3, #0
 800485c:	d005      	beq.n	800486a <HAL_RCC_OscConfig+0x176>
 800485e:	687b      	ldr	r3, [r7, #4]
 8004860:	691b      	ldr	r3, [r3, #16]
 8004862:	2b01      	cmp	r3, #1
 8004864:	d001      	beq.n	800486a <HAL_RCC_OscConfig+0x176>
      {
        return HAL_ERROR;
 8004866:	2301      	movs	r3, #1
 8004868:	e1ba      	b.n	8004be0 <HAL_RCC_OscConfig+0x4ec>
      }
      /* Otherwise, just the calibration is allowed */
      else
      {
        /* Adjusts the Internal High Speed oscillator (HSI) calibration value.*/
        __HAL_RCC_HSI_CALIBRATIONVALUE_ADJUST(RCC_OscInitStruct->HSICalibrationValue);
 800486a:	4b3d      	ldr	r3, [pc, #244]	; (8004960 <HAL_RCC_OscConfig+0x26c>)
 800486c:	681b      	ldr	r3, [r3, #0]
 800486e:	f023 02f8 	bic.w	r2, r3, #248	; 0xf8
 8004872:	687b      	ldr	r3, [r7, #4]
 8004874:	695b      	ldr	r3, [r3, #20]
 8004876:	00db      	lsls	r3, r3, #3
 8004878:	4939      	ldr	r1, [pc, #228]	; (8004960 <HAL_RCC_OscConfig+0x26c>)
 800487a:	4313      	orrs	r3, r2
 800487c:	600b      	str	r3, [r1, #0]
      if ((__HAL_RCC_GET_FLAG(RCC_FLAG_HSIRDY) != RESET) && (RCC_OscInitStruct->HSIState != RCC_HSI_ON))
 800487e:	e03a      	b.n	80048f6 <HAL_RCC_OscConfig+0x202>
      }
    }
    else
    {
      /* Check the HSI State */
      if (RCC_OscInitStruct->HSIState != RCC_HSI_OFF)
 8004880:	687b      	ldr	r3, [r7, #4]
 8004882:	691b      	ldr	r3, [r3, #16]
 8004884:	2b00      	cmp	r3, #0
 8004886:	d020      	beq.n	80048ca <HAL_RCC_OscConfig+0x1d6>
      {
        /* Enable the Internal High Speed oscillator (HSI). */
        __HAL_RCC_HSI_ENABLE();
 8004888:	4b36      	ldr	r3, [pc, #216]	; (8004964 <HAL_RCC_OscConfig+0x270>)
 800488a:	2201      	movs	r2, #1
 800488c:	601a      	str	r2, [r3, #0]

        /* Get Start Tick */
        tickstart = HAL_GetTick();
 800488e:	f7fd fc73 	bl	8002178 <HAL_GetTick>
 8004892:	6138      	str	r0, [r7, #16]

        /* Wait till HSI is ready */
        while (__HAL_RCC_GET_FLAG(RCC_FLAG_HSIRDY) == RESET)
 8004894:	e008      	b.n	80048a8 <HAL_RCC_OscConfig+0x1b4>
        {
          if ((HAL_GetTick() - tickstart) > HSI_TIMEOUT_VALUE)
 8004896:	f7fd fc6f 	bl	8002178 <HAL_GetTick>
 800489a:	4602      	mov	r2, r0
 800489c:	693b      	ldr	r3, [r7, #16]
 800489e:	1ad3      	subs	r3, r2, r3
 80048a0:	2b02      	cmp	r3, #2
 80048a2:	d901      	bls.n	80048a8 <HAL_RCC_OscConfig+0x1b4>
          {
            return HAL_TIMEOUT;
 80048a4:	2303      	movs	r3, #3
 80048a6:	e19b      	b.n	8004be0 <HAL_RCC_OscConfig+0x4ec>
        while (__HAL_RCC_GET_FLAG(RCC_FLAG_HSIRDY) == RESET)
 80048a8:	4b2d      	ldr	r3, [pc, #180]	; (8004960 <HAL_RCC_OscConfig+0x26c>)
 80048aa:	681b      	ldr	r3, [r3, #0]
 80048ac:	f003 0302 	and.w	r3, r3, #2
 80048b0:	2b00      	cmp	r3, #0
 80048b2:	d0f0      	beq.n	8004896 <HAL_RCC_OscConfig+0x1a2>
          }
        }

        /* Adjusts the Internal High Speed oscillator (HSI) calibration value.*/
        __HAL_RCC_HSI_CALIBRATIONVALUE_ADJUST(RCC_OscInitStruct->HSICalibrationValue);
 80048b4:	4b2a      	ldr	r3, [pc, #168]	; (8004960 <HAL_RCC_OscConfig+0x26c>)
 80048b6:	681b      	ldr	r3, [r3, #0]
 80048b8:	f023 02f8 	bic.w	r2, r3, #248	; 0xf8
 80048bc:	687b      	ldr	r3, [r7, #4]
 80048be:	695b      	ldr	r3, [r3, #20]
 80048c0:	00db      	lsls	r3, r3, #3
 80048c2:	4927      	ldr	r1, [pc, #156]	; (8004960 <HAL_RCC_OscConfig+0x26c>)
 80048c4:	4313      	orrs	r3, r2
 80048c6:	600b      	str	r3, [r1, #0]
 80048c8:	e015      	b.n	80048f6 <HAL_RCC_OscConfig+0x202>
      }
      else
      {
        /* Disable the Internal High Speed oscillator (HSI). */
        __HAL_RCC_HSI_DISABLE();
 80048ca:	4b26      	ldr	r3, [pc, #152]	; (8004964 <HAL_RCC_OscConfig+0x270>)
 80048cc:	2200      	movs	r2, #0
 80048ce:	601a      	str	r2, [r3, #0]

        /* Get Start Tick */
        tickstart = HAL_GetTick();
 80048d0:	f7fd fc52 	bl	8002178 <HAL_GetTick>
 80048d4:	6138      	str	r0, [r7, #16]

        /* Wait till HSI is disabled */
        while (__HAL_RCC_GET_FLAG(RCC_FLAG_HSIRDY) != RESET)
 80048d6:	e008      	b.n	80048ea <HAL_RCC_OscConfig+0x1f6>
        {
          if ((HAL_GetTick() - tickstart) > HSI_TIMEOUT_VALUE)
 80048d8:	f7fd fc4e 	bl	8002178 <HAL_GetTick>
 80048dc:	4602      	mov	r2, r0
 80048de:	693b      	ldr	r3, [r7, #16]
 80048e0:	1ad3      	subs	r3, r2, r3
 80048e2:	2b02      	cmp	r3, #2
 80048e4:	d901      	bls.n	80048ea <HAL_RCC_OscConfig+0x1f6>
          {
            return HAL_TIMEOUT;
 80048e6:	2303      	movs	r3, #3
 80048e8:	e17a      	b.n	8004be0 <HAL_RCC_OscConfig+0x4ec>
        while (__HAL_RCC_GET_FLAG(RCC_FLAG_HSIRDY) != RESET)
 80048ea:	4b1d      	ldr	r3, [pc, #116]	; (8004960 <HAL_RCC_OscConfig+0x26c>)
 80048ec:	681b      	ldr	r3, [r3, #0]
 80048ee:	f003 0302 	and.w	r3, r3, #2
 80048f2:	2b00      	cmp	r3, #0
 80048f4:	d1f0      	bne.n	80048d8 <HAL_RCC_OscConfig+0x1e4>
        }
      }
    }
  }
  /*------------------------------ LSI Configuration -------------------------*/
  if (((RCC_OscInitStruct->OscillatorType) & RCC_OSCILLATORTYPE_LSI) == RCC_OSCILLATORTYPE_LSI)
 80048f6:	687b      	ldr	r3, [r7, #4]
 80048f8:	681b      	ldr	r3, [r3, #0]
 80048fa:	f003 0308 	and.w	r3, r3, #8
 80048fe:	2b00      	cmp	r3, #0
 8004900:	d03a      	beq.n	8004978 <HAL_RCC_OscConfig+0x284>
  {
    /* Check the parameters */
    assert_param(IS_RCC_LSI(RCC_OscInitStruct->LSIState));

    /* Check the LSI State */
    if (RCC_OscInitStruct->LSIState != RCC_LSI_OFF)
 8004902:	687b      	ldr	r3, [r7, #4]
 8004904:	699b      	ldr	r3, [r3, #24]
 8004906:	2b00      	cmp	r3, #0
 8004908:	d019      	beq.n	800493e <HAL_RCC_OscConfig+0x24a>
    {
      /* Enable the Internal Low Speed oscillator (LSI). */
      __HAL_RCC_LSI_ENABLE();
 800490a:	4b17      	ldr	r3, [pc, #92]	; (8004968 <HAL_RCC_OscConfig+0x274>)
 800490c:	2201      	movs	r2, #1
 800490e:	601a      	str	r2, [r3, #0]

      /* Get Start Tick */
      tickstart = HAL_GetTick();
 8004910:	f7fd fc32 	bl	8002178 <HAL_GetTick>
 8004914:	6138      	str	r0, [r7, #16]

      /* Wait till LSI is ready */
      while (__HAL_RCC_GET_FLAG(RCC_FLAG_LSIRDY) == RESET)
 8004916:	e008      	b.n	800492a <HAL_RCC_OscConfig+0x236>
      {
        if ((HAL_GetTick() - tickstart) > LSI_TIMEOUT_VALUE)
 8004918:	f7fd fc2e 	bl	8002178 <HAL_GetTick>
 800491c:	4602      	mov	r2, r0
 800491e:	693b      	ldr	r3, [r7, #16]
 8004920:	1ad3      	subs	r3, r2, r3
 8004922:	2b02      	cmp	r3, #2
 8004924:	d901      	bls.n	800492a <HAL_RCC_OscConfig+0x236>
        {
          return HAL_TIMEOUT;
 8004926:	2303      	movs	r3, #3
 8004928:	e15a      	b.n	8004be0 <HAL_RCC_OscConfig+0x4ec>
      while (__HAL_RCC_GET_FLAG(RCC_FLAG_LSIRDY) == RESET)
 800492a:	4b0d      	ldr	r3, [pc, #52]	; (8004960 <HAL_RCC_OscConfig+0x26c>)
 800492c:	6a5b      	ldr	r3, [r3, #36]	; 0x24
 800492e:	f003 0302 	and.w	r3, r3, #2
 8004932:	2b00      	cmp	r3, #0
 8004934:	d0f0      	beq.n	8004918 <HAL_RCC_OscConfig+0x224>
        }
      }
      /*  To have a fully stabilized clock in the specified range, a software delay of 1ms
          should be added.*/
      RCC_Delay(1);
 8004936:	2001      	movs	r0, #1
 8004938:	f000 fb0a 	bl	8004f50 <RCC_Delay>
 800493c:	e01c      	b.n	8004978 <HAL_RCC_OscConfig+0x284>
    }
    else
    {
      /* Disable the Internal Low Speed oscillator (LSI). */
      __HAL_RCC_LSI_DISABLE();
 800493e:	4b0a      	ldr	r3, [pc, #40]	; (8004968 <HAL_RCC_OscConfig+0x274>)
 8004940:	2200      	movs	r2, #0
 8004942:	601a      	str	r2, [r3, #0]

      /* Get Start Tick */
      tickstart = HAL_GetTick();
 8004944:	f7fd fc18 	bl	8002178 <HAL_GetTick>
 8004948:	6138      	str	r0, [r7, #16]

      /* Wait till LSI is disabled */
      while (__HAL_RCC_GET_FLAG(RCC_FLAG_LSIRDY) != RESET)
 800494a:	e00f      	b.n	800496c <HAL_RCC_OscConfig+0x278>
      {
        if ((HAL_GetTick() - tickstart) > LSI_TIMEOUT_VALUE)
 800494c:	f7fd fc14 	bl	8002178 <HAL_GetTick>
 8004950:	4602      	mov	r2, r0
 8004952:	693b      	ldr	r3, [r7, #16]
 8004954:	1ad3      	subs	r3, r2, r3
 8004956:	2b02      	cmp	r3, #2
 8004958:	d908      	bls.n	800496c <HAL_RCC_OscConfig+0x278>
        {
          return HAL_TIMEOUT;
 800495a:	2303      	movs	r3, #3
 800495c:	e140      	b.n	8004be0 <HAL_RCC_OscConfig+0x4ec>
 800495e:	bf00      	nop
 8004960:	40021000 	.word	0x40021000
 8004964:	42420000 	.word	0x42420000
 8004968:	42420480 	.word	0x42420480
      while (__HAL_RCC_GET_FLAG(RCC_FLAG_LSIRDY) != RESET)
 800496c:	4b9e      	ldr	r3, [pc, #632]	; (8004be8 <HAL_RCC_OscConfig+0x4f4>)
 800496e:	6a5b      	ldr	r3, [r3, #36]	; 0x24
 8004970:	f003 0302 	and.w	r3, r3, #2
 8004974:	2b00      	cmp	r3, #0
 8004976:	d1e9      	bne.n	800494c <HAL_RCC_OscConfig+0x258>
        }
      }
    }
  }
  /*------------------------------ LSE Configuration -------------------------*/
  if (((RCC_OscInitStruct->OscillatorType) & RCC_OSCILLATORTYPE_LSE) == RCC_OSCILLATORTYPE_LSE)
 8004978:	687b      	ldr	r3, [r7, #4]
 800497a:	681b      	ldr	r3, [r3, #0]
 800497c:	f003 0304 	and.w	r3, r3, #4
 8004980:	2b00      	cmp	r3, #0
 8004982:	f000 80a6 	beq.w	8004ad2 <HAL_RCC_OscConfig+0x3de>
  {
    FlagStatus       pwrclkchanged = RESET;
 8004986:	2300      	movs	r3, #0
 8004988:	75fb      	strb	r3, [r7, #23]
    /* Check the parameters */
    assert_param(IS_RCC_LSE(RCC_OscInitStruct->LSEState));

    /* Update LSE configuration in Backup Domain control register    */
    /* Requires to enable write access to Backup Domain of necessary */
    if (__HAL_RCC_PWR_IS_CLK_DISABLED())
 800498a:	4b97      	ldr	r3, [pc, #604]	; (8004be8 <HAL_RCC_OscConfig+0x4f4>)
 800498c:	69db      	ldr	r3, [r3, #28]
 800498e:	f003 5380 	and.w	r3, r3, #268435456	; 0x10000000
 8004992:	2b00      	cmp	r3, #0
 8004994:	d10d      	bne.n	80049b2 <HAL_RCC_OscConfig+0x2be>
    {
      __HAL_RCC_PWR_CLK_ENABLE();
 8004996:	4b94      	ldr	r3, [pc, #592]	; (8004be8 <HAL_RCC_OscConfig+0x4f4>)
 8004998:	69db      	ldr	r3, [r3, #28]
 800499a:	4a93      	ldr	r2, [pc, #588]	; (8004be8 <HAL_RCC_OscConfig+0x4f4>)
 800499c:	f043 5380 	orr.w	r3, r3, #268435456	; 0x10000000
 80049a0:	61d3      	str	r3, [r2, #28]
 80049a2:	4b91      	ldr	r3, [pc, #580]	; (8004be8 <HAL_RCC_OscConfig+0x4f4>)
 80049a4:	69db      	ldr	r3, [r3, #28]
 80049a6:	f003 5380 	and.w	r3, r3, #268435456	; 0x10000000
 80049aa:	60bb      	str	r3, [r7, #8]
 80049ac:	68bb      	ldr	r3, [r7, #8]
      pwrclkchanged = SET;
 80049ae:	2301      	movs	r3, #1
 80049b0:	75fb      	strb	r3, [r7, #23]
    }

    if (HAL_IS_BIT_CLR(PWR->CR, PWR_CR_DBP))
 80049b2:	4b8e      	ldr	r3, [pc, #568]	; (8004bec <HAL_RCC_OscConfig+0x4f8>)
 80049b4:	681b      	ldr	r3, [r3, #0]
 80049b6:	f403 7380 	and.w	r3, r3, #256	; 0x100
 80049ba:	2b00      	cmp	r3, #0
 80049bc:	d118      	bne.n	80049f0 <HAL_RCC_OscConfig+0x2fc>
    {
      /* Enable write access to Backup domain */
      SET_BIT(PWR->CR, PWR_CR_DBP);
 80049be:	4b8b      	ldr	r3, [pc, #556]	; (8004bec <HAL_RCC_OscConfig+0x4f8>)
 80049c0:	681b      	ldr	r3, [r3, #0]
 80049c2:	4a8a      	ldr	r2, [pc, #552]	; (8004bec <HAL_RCC_OscConfig+0x4f8>)
 80049c4:	f443 7380 	orr.w	r3, r3, #256	; 0x100
 80049c8:	6013      	str	r3, [r2, #0]

      /* Wait for Backup domain Write protection disable */
      tickstart = HAL_GetTick();
 80049ca:	f7fd fbd5 	bl	8002178 <HAL_GetTick>
 80049ce:	6138      	str	r0, [r7, #16]

      while (HAL_IS_BIT_CLR(PWR->CR, PWR_CR_DBP))
 80049d0:	e008      	b.n	80049e4 <HAL_RCC_OscConfig+0x2f0>
      {
        if ((HAL_GetTick() - tickstart) > RCC_DBP_TIMEOUT_VALUE)
 80049d2:	f7fd fbd1 	bl	8002178 <HAL_GetTick>
 80049d6:	4602      	mov	r2, r0
 80049d8:	693b      	ldr	r3, [r7, #16]
 80049da:	1ad3      	subs	r3, r2, r3
 80049dc:	2b64      	cmp	r3, #100	; 0x64
 80049de:	d901      	bls.n	80049e4 <HAL_RCC_OscConfig+0x2f0>
        {
          return HAL_TIMEOUT;
 80049e0:	2303      	movs	r3, #3
 80049e2:	e0fd      	b.n	8004be0 <HAL_RCC_OscConfig+0x4ec>
      while (HAL_IS_BIT_CLR(PWR->CR, PWR_CR_DBP))
 80049e4:	4b81      	ldr	r3, [pc, #516]	; (8004bec <HAL_RCC_OscConfig+0x4f8>)
 80049e6:	681b      	ldr	r3, [r3, #0]
 80049e8:	f403 7380 	and.w	r3, r3, #256	; 0x100
 80049ec:	2b00      	cmp	r3, #0
 80049ee:	d0f0      	beq.n	80049d2 <HAL_RCC_OscConfig+0x2de>
        }
      }
    }

    /* Set the new LSE configuration -----------------------------------------*/
    __HAL_RCC_LSE_CONFIG(RCC_OscInitStruct->LSEState);
 80049f0:	687b      	ldr	r3, [r7, #4]
 80049f2:	68db      	ldr	r3, [r3, #12]
 80049f4:	2b01      	cmp	r3, #1
 80049f6:	d106      	bne.n	8004a06 <HAL_RCC_OscConfig+0x312>
 80049f8:	4b7b      	ldr	r3, [pc, #492]	; (8004be8 <HAL_RCC_OscConfig+0x4f4>)
 80049fa:	6a1b      	ldr	r3, [r3, #32]
 80049fc:	4a7a      	ldr	r2, [pc, #488]	; (8004be8 <HAL_RCC_OscConfig+0x4f4>)
 80049fe:	f043 0301 	orr.w	r3, r3, #1
 8004a02:	6213      	str	r3, [r2, #32]
 8004a04:	e02d      	b.n	8004a62 <HAL_RCC_OscConfig+0x36e>
 8004a06:	687b      	ldr	r3, [r7, #4]
 8004a08:	68db      	ldr	r3, [r3, #12]
 8004a0a:	2b00      	cmp	r3, #0
 8004a0c:	d10c      	bne.n	8004a28 <HAL_RCC_OscConfig+0x334>
 8004a0e:	4b76      	ldr	r3, [pc, #472]	; (8004be8 <HAL_RCC_OscConfig+0x4f4>)
 8004a10:	6a1b      	ldr	r3, [r3, #32]
 8004a12:	4a75      	ldr	r2, [pc, #468]	; (8004be8 <HAL_RCC_OscConfig+0x4f4>)
 8004a14:	f023 0301 	bic.w	r3, r3, #1
 8004a18:	6213      	str	r3, [r2, #32]
 8004a1a:	4b73      	ldr	r3, [pc, #460]	; (8004be8 <HAL_RCC_OscConfig+0x4f4>)
 8004a1c:	6a1b      	ldr	r3, [r3, #32]
 8004a1e:	4a72      	ldr	r2, [pc, #456]	; (8004be8 <HAL_RCC_OscConfig+0x4f4>)
 8004a20:	f023 0304 	bic.w	r3, r3, #4
 8004a24:	6213      	str	r3, [r2, #32]
 8004a26:	e01c      	b.n	8004a62 <HAL_RCC_OscConfig+0x36e>
 8004a28:	687b      	ldr	r3, [r7, #4]
 8004a2a:	68db      	ldr	r3, [r3, #12]
 8004a2c:	2b05      	cmp	r3, #5
 8004a2e:	d10c      	bne.n	8004a4a <HAL_RCC_OscConfig+0x356>
 8004a30:	4b6d      	ldr	r3, [pc, #436]	; (8004be8 <HAL_RCC_OscConfig+0x4f4>)
 8004a32:	6a1b      	ldr	r3, [r3, #32]
 8004a34:	4a6c      	ldr	r2, [pc, #432]	; (8004be8 <HAL_RCC_OscConfig+0x4f4>)
 8004a36:	f043 0304 	orr.w	r3, r3, #4
 8004a3a:	6213      	str	r3, [r2, #32]
 8004a3c:	4b6a      	ldr	r3, [pc, #424]	; (8004be8 <HAL_RCC_OscConfig+0x4f4>)
 8004a3e:	6a1b      	ldr	r3, [r3, #32]
 8004a40:	4a69      	ldr	r2, [pc, #420]	; (8004be8 <HAL_RCC_OscConfig+0x4f4>)
 8004a42:	f043 0301 	orr.w	r3, r3, #1
 8004a46:	6213      	str	r3, [r2, #32]
 8004a48:	e00b      	b.n	8004a62 <HAL_RCC_OscConfig+0x36e>
 8004a4a:	4b67      	ldr	r3, [pc, #412]	; (8004be8 <HAL_RCC_OscConfig+0x4f4>)
 8004a4c:	6a1b      	ldr	r3, [r3, #32]
 8004a4e:	4a66      	ldr	r2, [pc, #408]	; (8004be8 <HAL_RCC_OscConfig+0x4f4>)
 8004a50:	f023 0301 	bic.w	r3, r3, #1
 8004a54:	6213      	str	r3, [r2, #32]
 8004a56:	4b64      	ldr	r3, [pc, #400]	; (8004be8 <HAL_RCC_OscConfig+0x4f4>)
 8004a58:	6a1b      	ldr	r3, [r3, #32]
 8004a5a:	4a63      	ldr	r2, [pc, #396]	; (8004be8 <HAL_RCC_OscConfig+0x4f4>)
 8004a5c:	f023 0304 	bic.w	r3, r3, #4
 8004a60:	6213      	str	r3, [r2, #32]
    /* Check the LSE State */
    if (RCC_OscInitStruct->LSEState != RCC_LSE_OFF)
 8004a62:	687b      	ldr	r3, [r7, #4]
 8004a64:	68db      	ldr	r3, [r3, #12]
 8004a66:	2b00      	cmp	r3, #0
 8004a68:	d015      	beq.n	8004a96 <HAL_RCC_OscConfig+0x3a2>
    {
      /* Get Start Tick */
      tickstart = HAL_GetTick();
 8004a6a:	f7fd fb85 	bl	8002178 <HAL_GetTick>
 8004a6e:	6138      	str	r0, [r7, #16]

      /* Wait till LSE is ready */
      while (__HAL_RCC_GET_FLAG(RCC_FLAG_LSERDY) == RESET)
 8004a70:	e00a      	b.n	8004a88 <HAL_RCC_OscConfig+0x394>
      {
        if ((HAL_GetTick() - tickstart) > RCC_LSE_TIMEOUT_VALUE)
 8004a72:	f7fd fb81 	bl	8002178 <HAL_GetTick>
 8004a76:	4602      	mov	r2, r0
 8004a78:	693b      	ldr	r3, [r7, #16]
 8004a7a:	1ad3      	subs	r3, r2, r3
 8004a7c:	f241 3288 	movw	r2, #5000	; 0x1388
 8004a80:	4293      	cmp	r3, r2
 8004a82:	d901      	bls.n	8004a88 <HAL_RCC_OscConfig+0x394>
        {
          return HAL_TIMEOUT;
 8004a84:	2303      	movs	r3, #3
 8004a86:	e0ab      	b.n	8004be0 <HAL_RCC_OscConfig+0x4ec>
      while (__HAL_RCC_GET_FLAG(RCC_FLAG_LSERDY) == RESET)
 8004a88:	4b57      	ldr	r3, [pc, #348]	; (8004be8 <HAL_RCC_OscConfig+0x4f4>)
 8004a8a:	6a1b      	ldr	r3, [r3, #32]
 8004a8c:	f003 0302 	and.w	r3, r3, #2
 8004a90:	2b00      	cmp	r3, #0
 8004a92:	d0ee      	beq.n	8004a72 <HAL_RCC_OscConfig+0x37e>
 8004a94:	e014      	b.n	8004ac0 <HAL_RCC_OscConfig+0x3cc>
      }
    }
    else
    {
      /* Get Start Tick */
      tickstart = HAL_GetTick();
 8004a96:	f7fd fb6f 	bl	8002178 <HAL_GetTick>
 8004a9a:	6138      	str	r0, [r7, #16]

      /* Wait till LSE is disabled */
      while (__HAL_RCC_GET_FLAG(RCC_FLAG_LSERDY) != RESET)
 8004a9c:	e00a      	b.n	8004ab4 <HAL_RCC_OscConfig+0x3c0>
      {
        if ((HAL_GetTick() - tickstart) > RCC_LSE_TIMEOUT_VALUE)
 8004a9e:	f7fd fb6b 	bl	8002178 <HAL_GetTick>
 8004aa2:	4602      	mov	r2, r0
 8004aa4:	693b      	ldr	r3, [r7, #16]
 8004aa6:	1ad3      	subs	r3, r2, r3
 8004aa8:	f241 3288 	movw	r2, #5000	; 0x1388
 8004aac:	4293      	cmp	r3, r2
 8004aae:	d901      	bls.n	8004ab4 <HAL_RCC_OscConfig+0x3c0>
        {
          return HAL_TIMEOUT;
 8004ab0:	2303      	movs	r3, #3
 8004ab2:	e095      	b.n	8004be0 <HAL_RCC_OscConfig+0x4ec>
      while (__HAL_RCC_GET_FLAG(RCC_FLAG_LSERDY) != RESET)
 8004ab4:	4b4c      	ldr	r3, [pc, #304]	; (8004be8 <HAL_RCC_OscConfig+0x4f4>)
 8004ab6:	6a1b      	ldr	r3, [r3, #32]
 8004ab8:	f003 0302 	and.w	r3, r3, #2
 8004abc:	2b00      	cmp	r3, #0
 8004abe:	d1ee      	bne.n	8004a9e <HAL_RCC_OscConfig+0x3aa>
        }
      }
    }

    /* Require to disable power clock if necessary */
    if (pwrclkchanged == SET)
 8004ac0:	7dfb      	ldrb	r3, [r7, #23]
 8004ac2:	2b01      	cmp	r3, #1
 8004ac4:	d105      	bne.n	8004ad2 <HAL_RCC_OscConfig+0x3de>
    {
      __HAL_RCC_PWR_CLK_DISABLE();
 8004ac6:	4b48      	ldr	r3, [pc, #288]	; (8004be8 <HAL_RCC_OscConfig+0x4f4>)
 8004ac8:	69db      	ldr	r3, [r3, #28]
 8004aca:	4a47      	ldr	r2, [pc, #284]	; (8004be8 <HAL_RCC_OscConfig+0x4f4>)
 8004acc:	f023 5380 	bic.w	r3, r3, #268435456	; 0x10000000
 8004ad0:	61d3      	str	r3, [r2, #28]

#endif /* RCC_CR_PLL2ON */
  /*-------------------------------- PLL Configuration -----------------------*/
  /* Check the parameters */
  assert_param(IS_RCC_PLL(RCC_OscInitStruct->PLL.PLLState));
  if ((RCC_OscInitStruct->PLL.PLLState) != RCC_PLL_NONE)
 8004ad2:	687b      	ldr	r3, [r7, #4]
 8004ad4:	69db      	ldr	r3, [r3, #28]
 8004ad6:	2b00      	cmp	r3, #0
 8004ad8:	f000 8081 	beq.w	8004bde <HAL_RCC_OscConfig+0x4ea>
  {
    /* Check if the PLL is used as system clock or not */
    if (__HAL_RCC_GET_SYSCLK_SOURCE() != RCC_SYSCLKSOURCE_STATUS_PLLCLK)
 8004adc:	4b42      	ldr	r3, [pc, #264]	; (8004be8 <HAL_RCC_OscConfig+0x4f4>)
 8004ade:	685b      	ldr	r3, [r3, #4]
 8004ae0:	f003 030c 	and.w	r3, r3, #12
 8004ae4:	2b08      	cmp	r3, #8
 8004ae6:	d061      	beq.n	8004bac <HAL_RCC_OscConfig+0x4b8>
    {
      if ((RCC_OscInitStruct->PLL.PLLState) == RCC_PLL_ON)
 8004ae8:	687b      	ldr	r3, [r7, #4]
 8004aea:	69db      	ldr	r3, [r3, #28]
 8004aec:	2b02      	cmp	r3, #2
 8004aee:	d146      	bne.n	8004b7e <HAL_RCC_OscConfig+0x48a>
        /* Check the parameters */
        assert_param(IS_RCC_PLLSOURCE(RCC_OscInitStruct->PLL.PLLSource));
        assert_param(IS_RCC_PLL_MUL(RCC_OscInitStruct->PLL.PLLMUL));

        /* Disable the main PLL. */
        __HAL_RCC_PLL_DISABLE();
 8004af0:	4b3f      	ldr	r3, [pc, #252]	; (8004bf0 <HAL_RCC_OscConfig+0x4fc>)
 8004af2:	2200      	movs	r2, #0
 8004af4:	601a      	str	r2, [r3, #0]

        /* Get Start Tick */
        tickstart = HAL_GetTick();
 8004af6:	f7fd fb3f 	bl	8002178 <HAL_GetTick>
 8004afa:	6138      	str	r0, [r7, #16]

        /* Wait till PLL is disabled */
        while (__HAL_RCC_GET_FLAG(RCC_FLAG_PLLRDY)  != RESET)
 8004afc:	e008      	b.n	8004b10 <HAL_RCC_OscConfig+0x41c>
        {
          if ((HAL_GetTick() - tickstart) > PLL_TIMEOUT_VALUE)
 8004afe:	f7fd fb3b 	bl	8002178 <HAL_GetTick>
 8004b02:	4602      	mov	r2, r0
 8004b04:	693b      	ldr	r3, [r7, #16]
 8004b06:	1ad3      	subs	r3, r2, r3
 8004b08:	2b02      	cmp	r3, #2
 8004b0a:	d901      	bls.n	8004b10 <HAL_RCC_OscConfig+0x41c>
          {
            return HAL_TIMEOUT;
 8004b0c:	2303      	movs	r3, #3
 8004b0e:	e067      	b.n	8004be0 <HAL_RCC_OscConfig+0x4ec>
        while (__HAL_RCC_GET_FLAG(RCC_FLAG_PLLRDY)  != RESET)
 8004b10:	4b35      	ldr	r3, [pc, #212]	; (8004be8 <HAL_RCC_OscConfig+0x4f4>)
 8004b12:	681b      	ldr	r3, [r3, #0]
 8004b14:	f003 7300 	and.w	r3, r3, #33554432	; 0x2000000
 8004b18:	2b00      	cmp	r3, #0
 8004b1a:	d1f0      	bne.n	8004afe <HAL_RCC_OscConfig+0x40a>
          }
        }

        /* Configure the HSE prediv factor --------------------------------*/
        /* It can be written only when the PLL is disabled. Not used in PLL source is different than HSE */
        if (RCC_OscInitStruct->PLL.PLLSource == RCC_PLLSOURCE_HSE)
 8004b1c:	687b      	ldr	r3, [r7, #4]
 8004b1e:	6a1b      	ldr	r3, [r3, #32]
 8004b20:	f5b3 3f80 	cmp.w	r3, #65536	; 0x10000
 8004b24:	d108      	bne.n	8004b38 <HAL_RCC_OscConfig+0x444>
          /* Set PREDIV1 source */
          SET_BIT(RCC->CFGR2, RCC_OscInitStruct->Prediv1Source);
#endif /* RCC_CFGR2_PREDIV1SRC */

          /* Set PREDIV1 Value */
          __HAL_RCC_HSE_PREDIV_CONFIG(RCC_OscInitStruct->HSEPredivValue);
 8004b26:	4b30      	ldr	r3, [pc, #192]	; (8004be8 <HAL_RCC_OscConfig+0x4f4>)
 8004b28:	685b      	ldr	r3, [r3, #4]
 8004b2a:	f423 3200 	bic.w	r2, r3, #131072	; 0x20000
 8004b2e:	687b      	ldr	r3, [r7, #4]
 8004b30:	689b      	ldr	r3, [r3, #8]
 8004b32:	492d      	ldr	r1, [pc, #180]	; (8004be8 <HAL_RCC_OscConfig+0x4f4>)
 8004b34:	4313      	orrs	r3, r2
 8004b36:	604b      	str	r3, [r1, #4]
        }

        /* Configure the main PLL clock source and multiplication factors. */
        __HAL_RCC_PLL_CONFIG(RCC_OscInitStruct->PLL.PLLSource,
 8004b38:	4b2b      	ldr	r3, [pc, #172]	; (8004be8 <HAL_RCC_OscConfig+0x4f4>)
 8004b3a:	685b      	ldr	r3, [r3, #4]
 8004b3c:	f423 1274 	bic.w	r2, r3, #3997696	; 0x3d0000
 8004b40:	687b      	ldr	r3, [r7, #4]
 8004b42:	6a19      	ldr	r1, [r3, #32]
 8004b44:	687b      	ldr	r3, [r7, #4]
 8004b46:	6a5b      	ldr	r3, [r3, #36]	; 0x24
 8004b48:	430b      	orrs	r3, r1
 8004b4a:	4927      	ldr	r1, [pc, #156]	; (8004be8 <HAL_RCC_OscConfig+0x4f4>)
 8004b4c:	4313      	orrs	r3, r2
 8004b4e:	604b      	str	r3, [r1, #4]
                             RCC_OscInitStruct->PLL.PLLMUL);
        /* Enable the main PLL. */
        __HAL_RCC_PLL_ENABLE();
 8004b50:	4b27      	ldr	r3, [pc, #156]	; (8004bf0 <HAL_RCC_OscConfig+0x4fc>)
 8004b52:	2201      	movs	r2, #1
 8004b54:	601a      	str	r2, [r3, #0]

        /* Get Start Tick */
        tickstart = HAL_GetTick();
 8004b56:	f7fd fb0f 	bl	8002178 <HAL_GetTick>
 8004b5a:	6138      	str	r0, [r7, #16]

        /* Wait till PLL is ready */
        while (__HAL_RCC_GET_FLAG(RCC_FLAG_PLLRDY)  == RESET)
 8004b5c:	e008      	b.n	8004b70 <HAL_RCC_OscConfig+0x47c>
        {
          if ((HAL_GetTick() - tickstart) > PLL_TIMEOUT_VALUE)
 8004b5e:	f7fd fb0b 	bl	8002178 <HAL_GetTick>
 8004b62:	4602      	mov	r2, r0
 8004b64:	693b      	ldr	r3, [r7, #16]
 8004b66:	1ad3      	subs	r3, r2, r3
 8004b68:	2b02      	cmp	r3, #2
 8004b6a:	d901      	bls.n	8004b70 <HAL_RCC_OscConfig+0x47c>
          {
            return HAL_TIMEOUT;
 8004b6c:	2303      	movs	r3, #3
 8004b6e:	e037      	b.n	8004be0 <HAL_RCC_OscConfig+0x4ec>
        while (__HAL_RCC_GET_FLAG(RCC_FLAG_PLLRDY)  == RESET)
 8004b70:	4b1d      	ldr	r3, [pc, #116]	; (8004be8 <HAL_RCC_OscConfig+0x4f4>)
 8004b72:	681b      	ldr	r3, [r3, #0]
 8004b74:	f003 7300 	and.w	r3, r3, #33554432	; 0x2000000
 8004b78:	2b00      	cmp	r3, #0
 8004b7a:	d0f0      	beq.n	8004b5e <HAL_RCC_OscConfig+0x46a>
 8004b7c:	e02f      	b.n	8004bde <HAL_RCC_OscConfig+0x4ea>
        }
      }
      else
      {
        /* Disable the main PLL. */
        __HAL_RCC_PLL_DISABLE();
 8004b7e:	4b1c      	ldr	r3, [pc, #112]	; (8004bf0 <HAL_RCC_OscConfig+0x4fc>)
 8004b80:	2200      	movs	r2, #0
 8004b82:	601a      	str	r2, [r3, #0]

        /* Get Start Tick */
        tickstart = HAL_GetTick();
 8004b84:	f7fd faf8 	bl	8002178 <HAL_GetTick>
 8004b88:	6138      	str	r0, [r7, #16]

        /* Wait till PLL is disabled */
        while (__HAL_RCC_GET_FLAG(RCC_FLAG_PLLRDY)  != RESET)
 8004b8a:	e008      	b.n	8004b9e <HAL_RCC_OscConfig+0x4aa>
        {
          if ((HAL_GetTick() - tickstart) > PLL_TIMEOUT_VALUE)
 8004b8c:	f7fd faf4 	bl	8002178 <HAL_GetTick>
 8004b90:	4602      	mov	r2, r0
 8004b92:	693b      	ldr	r3, [r7, #16]
 8004b94:	1ad3      	subs	r3, r2, r3
 8004b96:	2b02      	cmp	r3, #2
 8004b98:	d901      	bls.n	8004b9e <HAL_RCC_OscConfig+0x4aa>
          {
            return HAL_TIMEOUT;
 8004b9a:	2303      	movs	r3, #3
 8004b9c:	e020      	b.n	8004be0 <HAL_RCC_OscConfig+0x4ec>
        while (__HAL_RCC_GET_FLAG(RCC_FLAG_PLLRDY)  != RESET)
 8004b9e:	4b12      	ldr	r3, [pc, #72]	; (8004be8 <HAL_RCC_OscConfig+0x4f4>)
 8004ba0:	681b      	ldr	r3, [r3, #0]
 8004ba2:	f003 7300 	and.w	r3, r3, #33554432	; 0x2000000
 8004ba6:	2b00      	cmp	r3, #0
 8004ba8:	d1f0      	bne.n	8004b8c <HAL_RCC_OscConfig+0x498>
 8004baa:	e018      	b.n	8004bde <HAL_RCC_OscConfig+0x4ea>
      }
    }
    else
    {
      /* Check if there is a request to disable the PLL used as System clock source */
      if ((RCC_OscInitStruct->PLL.PLLState) == RCC_PLL_OFF)
 8004bac:	687b      	ldr	r3, [r7, #4]
 8004bae:	69db      	ldr	r3, [r3, #28]
 8004bb0:	2b01      	cmp	r3, #1
 8004bb2:	d101      	bne.n	8004bb8 <HAL_RCC_OscConfig+0x4c4>
      {
        return HAL_ERROR;
 8004bb4:	2301      	movs	r3, #1
 8004bb6:	e013      	b.n	8004be0 <HAL_RCC_OscConfig+0x4ec>
      }
      else
      {
        /* Do not return HAL_ERROR if request repeats the current configuration */
        pll_config = RCC->CFGR;
 8004bb8:	4b0b      	ldr	r3, [pc, #44]	; (8004be8 <HAL_RCC_OscConfig+0x4f4>)
 8004bba:	685b      	ldr	r3, [r3, #4]
 8004bbc:	60fb      	str	r3, [r7, #12]
        if ((READ_BIT(pll_config, RCC_CFGR_PLLSRC) != RCC_OscInitStruct->PLL.PLLSource) ||
 8004bbe:	68fb      	ldr	r3, [r7, #12]
 8004bc0:	f403 3280 	and.w	r2, r3, #65536	; 0x10000
 8004bc4:	687b      	ldr	r3, [r7, #4]
 8004bc6:	6a1b      	ldr	r3, [r3, #32]
 8004bc8:	429a      	cmp	r2, r3
 8004bca:	d106      	bne.n	8004bda <HAL_RCC_OscConfig+0x4e6>
            (READ_BIT(pll_config, RCC_CFGR_PLLMULL) != RCC_OscInitStruct->PLL.PLLMUL))
 8004bcc:	68fb      	ldr	r3, [r7, #12]
 8004bce:	f403 1270 	and.w	r2, r3, #3932160	; 0x3c0000
 8004bd2:	687b      	ldr	r3, [r7, #4]
 8004bd4:	6a5b      	ldr	r3, [r3, #36]	; 0x24
        if ((READ_BIT(pll_config, RCC_CFGR_PLLSRC) != RCC_OscInitStruct->PLL.PLLSource) ||
 8004bd6:	429a      	cmp	r2, r3
 8004bd8:	d001      	beq.n	8004bde <HAL_RCC_OscConfig+0x4ea>
        {
          return HAL_ERROR;
 8004bda:	2301      	movs	r3, #1
 8004bdc:	e000      	b.n	8004be0 <HAL_RCC_OscConfig+0x4ec>
        }
      }
    }
  }

  return HAL_OK;
 8004bde:	2300      	movs	r3, #0
}
 8004be0:	4618      	mov	r0, r3
 8004be2:	3718      	adds	r7, #24
 8004be4:	46bd      	mov	sp, r7
 8004be6:	bd80      	pop	{r7, pc}
 8004be8:	40021000 	.word	0x40021000
 8004bec:	40007000 	.word	0x40007000
 8004bf0:	42420060 	.word	0x42420060

08004bf4 <HAL_RCC_ClockConfig>:
  *         You can use @ref HAL_RCC_GetClockConfig() function to know which clock is
  *         currently used as system clock source.
  * @retval HAL status
  */
HAL_StatusTypeDef HAL_RCC_ClockConfig(RCC_ClkInitTypeDef  *RCC_ClkInitStruct, uint32_t FLatency)
{
 8004bf4:	b580      	push	{r7, lr}
 8004bf6:	b084      	sub	sp, #16
 8004bf8:	af00      	add	r7, sp, #0
 8004bfa:	6078      	str	r0, [r7, #4]
 8004bfc:	6039      	str	r1, [r7, #0]
  uint32_t tickstart;

  /* Check Null pointer */
  if (RCC_ClkInitStruct == NULL)
 8004bfe:	687b      	ldr	r3, [r7, #4]
 8004c00:	2b00      	cmp	r3, #0
 8004c02:	d101      	bne.n	8004c08 <HAL_RCC_ClockConfig+0x14>
  {
    return HAL_ERROR;
 8004c04:	2301      	movs	r3, #1
 8004c06:	e0d0      	b.n	8004daa <HAL_RCC_ClockConfig+0x1b6>
  must be correctly programmed according to the frequency of the CPU clock
    (HCLK) of the device. */

#if defined(FLASH_ACR_LATENCY)
  /* Increasing the number of wait states because of higher CPU frequency */
  if (FLatency > __HAL_FLASH_GET_LATENCY())
 8004c08:	4b6a      	ldr	r3, [pc, #424]	; (8004db4 <HAL_RCC_ClockConfig+0x1c0>)
 8004c0a:	681b      	ldr	r3, [r3, #0]
 8004c0c:	f003 0307 	and.w	r3, r3, #7
 8004c10:	683a      	ldr	r2, [r7, #0]
 8004c12:	429a      	cmp	r2, r3
 8004c14:	d910      	bls.n	8004c38 <HAL_RCC_ClockConfig+0x44>
  {
    /* Program the new number of wait states to the LATENCY bits in the FLASH_ACR register */
    __HAL_FLASH_SET_LATENCY(FLatency);
 8004c16:	4b67      	ldr	r3, [pc, #412]	; (8004db4 <HAL_RCC_ClockConfig+0x1c0>)
 8004c18:	681b      	ldr	r3, [r3, #0]
 8004c1a:	f023 0207 	bic.w	r2, r3, #7
 8004c1e:	4965      	ldr	r1, [pc, #404]	; (8004db4 <HAL_RCC_ClockConfig+0x1c0>)
 8004c20:	683b      	ldr	r3, [r7, #0]
 8004c22:	4313      	orrs	r3, r2
 8004c24:	600b      	str	r3, [r1, #0]

    /* Check that the new number of wait states is taken into account to access the Flash
    memory by reading the FLASH_ACR register */
    if (__HAL_FLASH_GET_LATENCY() != FLatency)
 8004c26:	4b63      	ldr	r3, [pc, #396]	; (8004db4 <HAL_RCC_ClockConfig+0x1c0>)
 8004c28:	681b      	ldr	r3, [r3, #0]
 8004c2a:	f003 0307 	and.w	r3, r3, #7
 8004c2e:	683a      	ldr	r2, [r7, #0]
 8004c30:	429a      	cmp	r2, r3
 8004c32:	d001      	beq.n	8004c38 <HAL_RCC_ClockConfig+0x44>
  {
    return HAL_ERROR;
 8004c34:	2301      	movs	r3, #1
 8004c36:	e0b8      	b.n	8004daa <HAL_RCC_ClockConfig+0x1b6>
  }
}

#endif /* FLASH_ACR_LATENCY */
/*-------------------------- HCLK Configuration --------------------------*/
if (((RCC_ClkInitStruct->ClockType) & RCC_CLOCKTYPE_HCLK) == RCC_CLOCKTYPE_HCLK)
 8004c38:	687b      	ldr	r3, [r7, #4]
 8004c3a:	681b      	ldr	r3, [r3, #0]
 8004c3c:	f003 0302 	and.w	r3, r3, #2
 8004c40:	2b00      	cmp	r3, #0
 8004c42:	d020      	beq.n	8004c86 <HAL_RCC_ClockConfig+0x92>
  {
    /* Set the highest APBx dividers in order to ensure that we do not go through
    a non-spec phase whatever we decrease or increase HCLK. */
    if (((RCC_ClkInitStruct->ClockType) & RCC_CLOCKTYPE_PCLK1) == RCC_CLOCKTYPE_PCLK1)
 8004c44:	687b      	ldr	r3, [r7, #4]
 8004c46:	681b      	ldr	r3, [r3, #0]
 8004c48:	f003 0304 	and.w	r3, r3, #4
 8004c4c:	2b00      	cmp	r3, #0
 8004c4e:	d005      	beq.n	8004c5c <HAL_RCC_ClockConfig+0x68>
    {
      MODIFY_REG(RCC->CFGR, RCC_CFGR_PPRE1, RCC_HCLK_DIV16);
 8004c50:	4b59      	ldr	r3, [pc, #356]	; (8004db8 <HAL_RCC_ClockConfig+0x1c4>)
 8004c52:	685b      	ldr	r3, [r3, #4]
 8004c54:	4a58      	ldr	r2, [pc, #352]	; (8004db8 <HAL_RCC_ClockConfig+0x1c4>)
 8004c56:	f443 63e0 	orr.w	r3, r3, #1792	; 0x700
 8004c5a:	6053      	str	r3, [r2, #4]
    }

    if (((RCC_ClkInitStruct->ClockType) & RCC_CLOCKTYPE_PCLK2) == RCC_CLOCKTYPE_PCLK2)
 8004c5c:	687b      	ldr	r3, [r7, #4]
 8004c5e:	681b      	ldr	r3, [r3, #0]
 8004c60:	f003 0308 	and.w	r3, r3, #8
 8004c64:	2b00      	cmp	r3, #0
 8004c66:	d005      	beq.n	8004c74 <HAL_RCC_ClockConfig+0x80>
    {
      MODIFY_REG(RCC->CFGR, RCC_CFGR_PPRE2, (RCC_HCLK_DIV16 << 3));
 8004c68:	4b53      	ldr	r3, [pc, #332]	; (8004db8 <HAL_RCC_ClockConfig+0x1c4>)
 8004c6a:	685b      	ldr	r3, [r3, #4]
 8004c6c:	4a52      	ldr	r2, [pc, #328]	; (8004db8 <HAL_RCC_ClockConfig+0x1c4>)
 8004c6e:	f443 5360 	orr.w	r3, r3, #14336	; 0x3800
 8004c72:	6053      	str	r3, [r2, #4]
    }

    /* Set the new HCLK clock divider */
    assert_param(IS_RCC_HCLK(RCC_ClkInitStruct->AHBCLKDivider));
    MODIFY_REG(RCC->CFGR, RCC_CFGR_HPRE, RCC_ClkInitStruct->AHBCLKDivider);
 8004c74:	4b50      	ldr	r3, [pc, #320]	; (8004db8 <HAL_RCC_ClockConfig+0x1c4>)
 8004c76:	685b      	ldr	r3, [r3, #4]
 8004c78:	f023 02f0 	bic.w	r2, r3, #240	; 0xf0
 8004c7c:	687b      	ldr	r3, [r7, #4]
 8004c7e:	689b      	ldr	r3, [r3, #8]
 8004c80:	494d      	ldr	r1, [pc, #308]	; (8004db8 <HAL_RCC_ClockConfig+0x1c4>)
 8004c82:	4313      	orrs	r3, r2
 8004c84:	604b      	str	r3, [r1, #4]
  }

  /*------------------------- SYSCLK Configuration ---------------------------*/
  if (((RCC_ClkInitStruct->ClockType) & RCC_CLOCKTYPE_SYSCLK) == RCC_CLOCKTYPE_SYSCLK)
 8004c86:	687b      	ldr	r3, [r7, #4]
 8004c88:	681b      	ldr	r3, [r3, #0]
 8004c8a:	f003 0301 	and.w	r3, r3, #1
 8004c8e:	2b00      	cmp	r3, #0
 8004c90:	d040      	beq.n	8004d14 <HAL_RCC_ClockConfig+0x120>
  {
    assert_param(IS_RCC_SYSCLKSOURCE(RCC_ClkInitStruct->SYSCLKSource));

    /* HSE is selected as System Clock Source */
    if (RCC_ClkInitStruct->SYSCLKSource == RCC_SYSCLKSOURCE_HSE)
 8004c92:	687b      	ldr	r3, [r7, #4]
 8004c94:	685b      	ldr	r3, [r3, #4]
 8004c96:	2b01      	cmp	r3, #1
 8004c98:	d107      	bne.n	8004caa <HAL_RCC_ClockConfig+0xb6>
    {
      /* Check the HSE ready flag */
      if (__HAL_RCC_GET_FLAG(RCC_FLAG_HSERDY) == RESET)
 8004c9a:	4b47      	ldr	r3, [pc, #284]	; (8004db8 <HAL_RCC_ClockConfig+0x1c4>)
 8004c9c:	681b      	ldr	r3, [r3, #0]
 8004c9e:	f403 3300 	and.w	r3, r3, #131072	; 0x20000
 8004ca2:	2b00      	cmp	r3, #0
 8004ca4:	d115      	bne.n	8004cd2 <HAL_RCC_ClockConfig+0xde>
      {
        return HAL_ERROR;
 8004ca6:	2301      	movs	r3, #1
 8004ca8:	e07f      	b.n	8004daa <HAL_RCC_ClockConfig+0x1b6>
      }
    }
    /* PLL is selected as System Clock Source */
    else if (RCC_ClkInitStruct->SYSCLKSource == RCC_SYSCLKSOURCE_PLLCLK)
 8004caa:	687b      	ldr	r3, [r7, #4]
 8004cac:	685b      	ldr	r3, [r3, #4]
 8004cae:	2b02      	cmp	r3, #2
 8004cb0:	d107      	bne.n	8004cc2 <HAL_RCC_ClockConfig+0xce>
    {
      /* Check the PLL ready flag */
      if (__HAL_RCC_GET_FLAG(RCC_FLAG_PLLRDY) == RESET)
 8004cb2:	4b41      	ldr	r3, [pc, #260]	; (8004db8 <HAL_RCC_ClockConfig+0x1c4>)
 8004cb4:	681b      	ldr	r3, [r3, #0]
 8004cb6:	f003 7300 	and.w	r3, r3, #33554432	; 0x2000000
 8004cba:	2b00      	cmp	r3, #0
 8004cbc:	d109      	bne.n	8004cd2 <HAL_RCC_ClockConfig+0xde>
      {
        return HAL_ERROR;
 8004cbe:	2301      	movs	r3, #1
 8004cc0:	e073      	b.n	8004daa <HAL_RCC_ClockConfig+0x1b6>
    }
    /* HSI is selected as System Clock Source */
    else
    {
      /* Check the HSI ready flag */
      if (__HAL_RCC_GET_FLAG(RCC_FLAG_HSIRDY) == RESET)
 8004cc2:	4b3d      	ldr	r3, [pc, #244]	; (8004db8 <HAL_RCC_ClockConfig+0x1c4>)
 8004cc4:	681b      	ldr	r3, [r3, #0]
 8004cc6:	f003 0302 	and.w	r3, r3, #2
 8004cca:	2b00      	cmp	r3, #0
 8004ccc:	d101      	bne.n	8004cd2 <HAL_RCC_ClockConfig+0xde>
      {
        return HAL_ERROR;
 8004cce:	2301      	movs	r3, #1
 8004cd0:	e06b      	b.n	8004daa <HAL_RCC_ClockConfig+0x1b6>
      }
    }
    __HAL_RCC_SYSCLK_CONFIG(RCC_ClkInitStruct->SYSCLKSource);
 8004cd2:	4b39      	ldr	r3, [pc, #228]	; (8004db8 <HAL_RCC_ClockConfig+0x1c4>)
 8004cd4:	685b      	ldr	r3, [r3, #4]
 8004cd6:	f023 0203 	bic.w	r2, r3, #3
 8004cda:	687b      	ldr	r3, [r7, #4]
 8004cdc:	685b      	ldr	r3, [r3, #4]
 8004cde:	4936      	ldr	r1, [pc, #216]	; (8004db8 <HAL_RCC_ClockConfig+0x1c4>)
 8004ce0:	4313      	orrs	r3, r2
 8004ce2:	604b      	str	r3, [r1, #4]

    /* Get Start Tick */
    tickstart = HAL_GetTick();
 8004ce4:	f7fd fa48 	bl	8002178 <HAL_GetTick>
 8004ce8:	60f8      	str	r0, [r7, #12]

    while (__HAL_RCC_GET_SYSCLK_SOURCE() != (RCC_ClkInitStruct->SYSCLKSource << RCC_CFGR_SWS_Pos))
 8004cea:	e00a      	b.n	8004d02 <HAL_RCC_ClockConfig+0x10e>
    {
      if ((HAL_GetTick() - tickstart) > CLOCKSWITCH_TIMEOUT_VALUE)
 8004cec:	f7fd fa44 	bl	8002178 <HAL_GetTick>
 8004cf0:	4602      	mov	r2, r0
 8004cf2:	68fb      	ldr	r3, [r7, #12]
 8004cf4:	1ad3      	subs	r3, r2, r3
 8004cf6:	f241 3288 	movw	r2, #5000	; 0x1388
 8004cfa:	4293      	cmp	r3, r2
 8004cfc:	d901      	bls.n	8004d02 <HAL_RCC_ClockConfig+0x10e>
      {
        return HAL_TIMEOUT;
 8004cfe:	2303      	movs	r3, #3
 8004d00:	e053      	b.n	8004daa <HAL_RCC_ClockConfig+0x1b6>
    while (__HAL_RCC_GET_SYSCLK_SOURCE() != (RCC_ClkInitStruct->SYSCLKSource << RCC_CFGR_SWS_Pos))
 8004d02:	4b2d      	ldr	r3, [pc, #180]	; (8004db8 <HAL_RCC_ClockConfig+0x1c4>)
 8004d04:	685b      	ldr	r3, [r3, #4]
 8004d06:	f003 020c 	and.w	r2, r3, #12
 8004d0a:	687b      	ldr	r3, [r7, #4]
 8004d0c:	685b      	ldr	r3, [r3, #4]
 8004d0e:	009b      	lsls	r3, r3, #2
 8004d10:	429a      	cmp	r2, r3
 8004d12:	d1eb      	bne.n	8004cec <HAL_RCC_ClockConfig+0xf8>
    }
  }

#if defined(FLASH_ACR_LATENCY)
  /* Decreasing the number of wait states because of lower CPU frequency */
  if (FLatency < __HAL_FLASH_GET_LATENCY())
 8004d14:	4b27      	ldr	r3, [pc, #156]	; (8004db4 <HAL_RCC_ClockConfig+0x1c0>)
 8004d16:	681b      	ldr	r3, [r3, #0]
 8004d18:	f003 0307 	and.w	r3, r3, #7
 8004d1c:	683a      	ldr	r2, [r7, #0]
 8004d1e:	429a      	cmp	r2, r3
 8004d20:	d210      	bcs.n	8004d44 <HAL_RCC_ClockConfig+0x150>
  {
    /* Program the new number of wait states to the LATENCY bits in the FLASH_ACR register */
    __HAL_FLASH_SET_LATENCY(FLatency);
 8004d22:	4b24      	ldr	r3, [pc, #144]	; (8004db4 <HAL_RCC_ClockConfig+0x1c0>)
 8004d24:	681b      	ldr	r3, [r3, #0]
 8004d26:	f023 0207 	bic.w	r2, r3, #7
 8004d2a:	4922      	ldr	r1, [pc, #136]	; (8004db4 <HAL_RCC_ClockConfig+0x1c0>)
 8004d2c:	683b      	ldr	r3, [r7, #0]
 8004d2e:	4313      	orrs	r3, r2
 8004d30:	600b      	str	r3, [r1, #0]

    /* Check that the new number of wait states is taken into account to access the Flash
    memory by reading the FLASH_ACR register */
    if (__HAL_FLASH_GET_LATENCY() != FLatency)
 8004d32:	4b20      	ldr	r3, [pc, #128]	; (8004db4 <HAL_RCC_ClockConfig+0x1c0>)
 8004d34:	681b      	ldr	r3, [r3, #0]
 8004d36:	f003 0307 	and.w	r3, r3, #7
 8004d3a:	683a      	ldr	r2, [r7, #0]
 8004d3c:	429a      	cmp	r2, r3
 8004d3e:	d001      	beq.n	8004d44 <HAL_RCC_ClockConfig+0x150>
  {
    return HAL_ERROR;
 8004d40:	2301      	movs	r3, #1
 8004d42:	e032      	b.n	8004daa <HAL_RCC_ClockConfig+0x1b6>
  }
}
#endif /* FLASH_ACR_LATENCY */

/*-------------------------- PCLK1 Configuration ---------------------------*/
if (((RCC_ClkInitStruct->ClockType) & RCC_CLOCKTYPE_PCLK1) == RCC_CLOCKTYPE_PCLK1)
 8004d44:	687b      	ldr	r3, [r7, #4]
 8004d46:	681b      	ldr	r3, [r3, #0]
 8004d48:	f003 0304 	and.w	r3, r3, #4
 8004d4c:	2b00      	cmp	r3, #0
 8004d4e:	d008      	beq.n	8004d62 <HAL_RCC_ClockConfig+0x16e>
  {
    assert_param(IS_RCC_PCLK(RCC_ClkInitStruct->APB1CLKDivider));
    MODIFY_REG(RCC->CFGR, RCC_CFGR_PPRE1, RCC_ClkInitStruct->APB1CLKDivider);
 8004d50:	4b19      	ldr	r3, [pc, #100]	; (8004db8 <HAL_RCC_ClockConfig+0x1c4>)
 8004d52:	685b      	ldr	r3, [r3, #4]
 8004d54:	f423 62e0 	bic.w	r2, r3, #1792	; 0x700
 8004d58:	687b      	ldr	r3, [r7, #4]
 8004d5a:	68db      	ldr	r3, [r3, #12]
 8004d5c:	4916      	ldr	r1, [pc, #88]	; (8004db8 <HAL_RCC_ClockConfig+0x1c4>)
 8004d5e:	4313      	orrs	r3, r2
 8004d60:	604b      	str	r3, [r1, #4]
  }

  /*-------------------------- PCLK2 Configuration ---------------------------*/
  if (((RCC_ClkInitStruct->ClockType) & RCC_CLOCKTYPE_PCLK2) == RCC_CLOCKTYPE_PCLK2)
 8004d62:	687b      	ldr	r3, [r7, #4]
 8004d64:	681b      	ldr	r3, [r3, #0]
 8004d66:	f003 0308 	and.w	r3, r3, #8
 8004d6a:	2b00      	cmp	r3, #0
 8004d6c:	d009      	beq.n	8004d82 <HAL_RCC_ClockConfig+0x18e>
  {
    assert_param(IS_RCC_PCLK(RCC_ClkInitStruct->APB2CLKDivider));
    MODIFY_REG(RCC->CFGR, RCC_CFGR_PPRE2, ((RCC_ClkInitStruct->APB2CLKDivider) << 3));
 8004d6e:	4b12      	ldr	r3, [pc, #72]	; (8004db8 <HAL_RCC_ClockConfig+0x1c4>)
 8004d70:	685b      	ldr	r3, [r3, #4]
 8004d72:	f423 5260 	bic.w	r2, r3, #14336	; 0x3800
 8004d76:	687b      	ldr	r3, [r7, #4]
 8004d78:	691b      	ldr	r3, [r3, #16]
 8004d7a:	00db      	lsls	r3, r3, #3
 8004d7c:	490e      	ldr	r1, [pc, #56]	; (8004db8 <HAL_RCC_ClockConfig+0x1c4>)
 8004d7e:	4313      	orrs	r3, r2
 8004d80:	604b      	str	r3, [r1, #4]
  }

  /* Update the SystemCoreClock global variable */
  SystemCoreClock = HAL_RCC_GetSysClockFreq() >> AHBPrescTable[(RCC->CFGR & RCC_CFGR_HPRE) >> RCC_CFGR_HPRE_Pos];
 8004d82:	f000 f821 	bl	8004dc8 <HAL_RCC_GetSysClockFreq>
 8004d86:	4601      	mov	r1, r0
 8004d88:	4b0b      	ldr	r3, [pc, #44]	; (8004db8 <HAL_RCC_ClockConfig+0x1c4>)
 8004d8a:	685b      	ldr	r3, [r3, #4]
 8004d8c:	091b      	lsrs	r3, r3, #4
 8004d8e:	f003 030f 	and.w	r3, r3, #15
 8004d92:	4a0a      	ldr	r2, [pc, #40]	; (8004dbc <HAL_RCC_ClockConfig+0x1c8>)
 8004d94:	5cd3      	ldrb	r3, [r2, r3]
 8004d96:	fa21 f303 	lsr.w	r3, r1, r3
 8004d9a:	4a09      	ldr	r2, [pc, #36]	; (8004dc0 <HAL_RCC_ClockConfig+0x1cc>)
 8004d9c:	6013      	str	r3, [r2, #0]

  /* Configure the source of time base considering new system clocks settings*/
  HAL_InitTick(uwTickPrio);
 8004d9e:	4b09      	ldr	r3, [pc, #36]	; (8004dc4 <HAL_RCC_ClockConfig+0x1d0>)
 8004da0:	681b      	ldr	r3, [r3, #0]
 8004da2:	4618      	mov	r0, r3
 8004da4:	f7fd f8e2 	bl	8001f6c <HAL_InitTick>

  return HAL_OK;
 8004da8:	2300      	movs	r3, #0
}
 8004daa:	4618      	mov	r0, r3
 8004dac:	3710      	adds	r7, #16
 8004dae:	46bd      	mov	sp, r7
 8004db0:	bd80      	pop	{r7, pc}
 8004db2:	bf00      	nop
 8004db4:	40022000 	.word	0x40022000
 8004db8:	40021000 	.word	0x40021000
 8004dbc:	08008540 	.word	0x08008540
 8004dc0:	20000000 	.word	0x20000000
 8004dc4:	20000004 	.word	0x20000004

08004dc8 <HAL_RCC_GetSysClockFreq>:
  *         right SYSCLK value. Otherwise, any configuration based on this function will be incorrect.
  *
  * @retval SYSCLK frequency
  */
uint32_t HAL_RCC_GetSysClockFreq(void)
{
 8004dc8:	b490      	push	{r4, r7}
 8004dca:	b08a      	sub	sp, #40	; 0x28
 8004dcc:	af00      	add	r7, sp, #0
#if defined(RCC_CFGR2_PREDIV1SRC)
  const uint8_t aPLLMULFactorTable[14] = {0, 0, 4, 5, 6, 7, 8, 9, 0, 0, 0, 0, 0, 13};
  const uint8_t aPredivFactorTable[16] = {1, 2, 3, 4, 5, 6, 7, 8, 9, 10, 11, 12, 13, 14, 15, 16};
#else
  const uint8_t aPLLMULFactorTable[16] = {2, 3, 4, 5, 6, 7, 8, 9, 10, 11, 12, 13, 14, 15, 16, 16};
 8004dce:	4b2a      	ldr	r3, [pc, #168]	; (8004e78 <HAL_RCC_GetSysClockFreq+0xb0>)
 8004dd0:	1d3c      	adds	r4, r7, #4
 8004dd2:	cb0f      	ldmia	r3, {r0, r1, r2, r3}
 8004dd4:	e884 000f 	stmia.w	r4, {r0, r1, r2, r3}
#if defined(RCC_CFGR2_PREDIV1)
  const uint8_t aPredivFactorTable[16] = {1, 2, 3, 4, 5, 6, 7, 8, 9, 10, 11, 12, 13, 14, 15, 16};
#else
  const uint8_t aPredivFactorTable[2] = {1, 2};
 8004dd8:	4b28      	ldr	r3, [pc, #160]	; (8004e7c <HAL_RCC_GetSysClockFreq+0xb4>)
 8004dda:	881b      	ldrh	r3, [r3, #0]
 8004ddc:	803b      	strh	r3, [r7, #0]
#endif /*RCC_CFGR2_PREDIV1*/

#endif
  uint32_t tmpreg = 0U, prediv = 0U, pllclk = 0U, pllmul = 0U;
 8004dde:	2300      	movs	r3, #0
 8004de0:	61fb      	str	r3, [r7, #28]
 8004de2:	2300      	movs	r3, #0
 8004de4:	61bb      	str	r3, [r7, #24]
 8004de6:	2300      	movs	r3, #0
 8004de8:	627b      	str	r3, [r7, #36]	; 0x24
 8004dea:	2300      	movs	r3, #0
 8004dec:	617b      	str	r3, [r7, #20]
  uint32_t sysclockfreq = 0U;
 8004dee:	2300      	movs	r3, #0
 8004df0:	623b      	str	r3, [r7, #32]
#if defined(RCC_CFGR2_PREDIV1SRC)
  uint32_t prediv2 = 0U, pll2mul = 0U;
#endif /*RCC_CFGR2_PREDIV1SRC*/

  tmpreg = RCC->CFGR;
 8004df2:	4b23      	ldr	r3, [pc, #140]	; (8004e80 <HAL_RCC_GetSysClockFreq+0xb8>)
 8004df4:	685b      	ldr	r3, [r3, #4]
 8004df6:	61fb      	str	r3, [r7, #28]

  /* Get SYSCLK source -------------------------------------------------------*/
  switch (tmpreg & RCC_CFGR_SWS)
 8004df8:	69fb      	ldr	r3, [r7, #28]
 8004dfa:	f003 030c 	and.w	r3, r3, #12
 8004dfe:	2b04      	cmp	r3, #4
 8004e00:	d002      	beq.n	8004e08 <HAL_RCC_GetSysClockFreq+0x40>
 8004e02:	2b08      	cmp	r3, #8
 8004e04:	d003      	beq.n	8004e0e <HAL_RCC_GetSysClockFreq+0x46>
 8004e06:	e02d      	b.n	8004e64 <HAL_RCC_GetSysClockFreq+0x9c>
  {
    case RCC_SYSCLKSOURCE_STATUS_HSE:  /* HSE used as system clock */
    {
      sysclockfreq = HSE_VALUE;
 8004e08:	4b1e      	ldr	r3, [pc, #120]	; (8004e84 <HAL_RCC_GetSysClockFreq+0xbc>)
 8004e0a:	623b      	str	r3, [r7, #32]
      break;
 8004e0c:	e02d      	b.n	8004e6a <HAL_RCC_GetSysClockFreq+0xa2>
    }
    case RCC_SYSCLKSOURCE_STATUS_PLLCLK:  /* PLL used as system clock */
    {
      pllmul = aPLLMULFactorTable[(uint32_t)(tmpreg & RCC_CFGR_PLLMULL) >> RCC_CFGR_PLLMULL_Pos];
 8004e0e:	69fb      	ldr	r3, [r7, #28]
 8004e10:	0c9b      	lsrs	r3, r3, #18
 8004e12:	f003 030f 	and.w	r3, r3, #15
 8004e16:	f107 0228 	add.w	r2, r7, #40	; 0x28
 8004e1a:	4413      	add	r3, r2
 8004e1c:	f813 3c24 	ldrb.w	r3, [r3, #-36]
 8004e20:	617b      	str	r3, [r7, #20]
      if ((tmpreg & RCC_CFGR_PLLSRC) != RCC_PLLSOURCE_HSI_DIV2)
 8004e22:	69fb      	ldr	r3, [r7, #28]
 8004e24:	f403 3380 	and.w	r3, r3, #65536	; 0x10000
 8004e28:	2b00      	cmp	r3, #0
 8004e2a:	d013      	beq.n	8004e54 <HAL_RCC_GetSysClockFreq+0x8c>
      {
#if defined(RCC_CFGR2_PREDIV1)
        prediv = aPredivFactorTable[(uint32_t)(RCC->CFGR2 & RCC_CFGR2_PREDIV1) >> RCC_CFGR2_PREDIV1_Pos];
#else
        prediv = aPredivFactorTable[(uint32_t)(RCC->CFGR & RCC_CFGR_PLLXTPRE) >> RCC_CFGR_PLLXTPRE_Pos];
 8004e2c:	4b14      	ldr	r3, [pc, #80]	; (8004e80 <HAL_RCC_GetSysClockFreq+0xb8>)
 8004e2e:	685b      	ldr	r3, [r3, #4]
 8004e30:	0c5b      	lsrs	r3, r3, #17
 8004e32:	f003 0301 	and.w	r3, r3, #1
 8004e36:	f107 0228 	add.w	r2, r7, #40	; 0x28
 8004e3a:	4413      	add	r3, r2
 8004e3c:	f813 3c28 	ldrb.w	r3, [r3, #-40]
 8004e40:	61bb      	str	r3, [r7, #24]
        {
          pllclk = pllclk / 2;
        }
#else
        /* HSE used as PLL clock source : PLLCLK = HSE/PREDIV1 * PLLMUL */
        pllclk = (uint32_t)((HSE_VALUE  * pllmul) / prediv);
 8004e42:	697b      	ldr	r3, [r7, #20]
 8004e44:	4a0f      	ldr	r2, [pc, #60]	; (8004e84 <HAL_RCC_GetSysClockFreq+0xbc>)
 8004e46:	fb02 f203 	mul.w	r2, r2, r3
 8004e4a:	69bb      	ldr	r3, [r7, #24]
 8004e4c:	fbb2 f3f3 	udiv	r3, r2, r3
 8004e50:	627b      	str	r3, [r7, #36]	; 0x24
 8004e52:	e004      	b.n	8004e5e <HAL_RCC_GetSysClockFreq+0x96>
#endif /*RCC_CFGR2_PREDIV1SRC*/
      }
      else
      {
        /* HSI used as PLL clock source : PLLCLK = HSI/2 * PLLMUL */
        pllclk = (uint32_t)((HSI_VALUE >> 1) * pllmul);
 8004e54:	697b      	ldr	r3, [r7, #20]
 8004e56:	4a0c      	ldr	r2, [pc, #48]	; (8004e88 <HAL_RCC_GetSysClockFreq+0xc0>)
 8004e58:	fb02 f303 	mul.w	r3, r2, r3
 8004e5c:	627b      	str	r3, [r7, #36]	; 0x24
      }
      sysclockfreq = pllclk;
 8004e5e:	6a7b      	ldr	r3, [r7, #36]	; 0x24
 8004e60:	623b      	str	r3, [r7, #32]
      break;
 8004e62:	e002      	b.n	8004e6a <HAL_RCC_GetSysClockFreq+0xa2>
    }
    case RCC_SYSCLKSOURCE_STATUS_HSI:  /* HSI used as system clock source */
    default: /* HSI used as system clock */
    {
      sysclockfreq = HSI_VALUE;
 8004e64:	4b07      	ldr	r3, [pc, #28]	; (8004e84 <HAL_RCC_GetSysClockFreq+0xbc>)
 8004e66:	623b      	str	r3, [r7, #32]
      break;
 8004e68:	bf00      	nop
    }
  }
  return sysclockfreq;
 8004e6a:	6a3b      	ldr	r3, [r7, #32]
}
 8004e6c:	4618      	mov	r0, r3
 8004e6e:	3728      	adds	r7, #40	; 0x28
 8004e70:	46bd      	mov	sp, r7
 8004e72:	bc90      	pop	{r4, r7}
 8004e74:	4770      	bx	lr
 8004e76:	bf00      	nop
 8004e78:	080084b4 	.word	0x080084b4
 8004e7c:	080084c4 	.word	0x080084c4
 8004e80:	40021000 	.word	0x40021000
 8004e84:	007a1200 	.word	0x007a1200
 8004e88:	003d0900 	.word	0x003d0900

08004e8c <HAL_RCC_GetHCLKFreq>:
  * @note   The SystemCoreClock CMSIS variable is used to store System Clock Frequency
  *         and updated within this function
  * @retval HCLK frequency
  */
uint32_t HAL_RCC_GetHCLKFreq(void)
{
 8004e8c:	b480      	push	{r7}
 8004e8e:	af00      	add	r7, sp, #0
  return SystemCoreClock;
 8004e90:	4b02      	ldr	r3, [pc, #8]	; (8004e9c <HAL_RCC_GetHCLKFreq+0x10>)
 8004e92:	681b      	ldr	r3, [r3, #0]
}
 8004e94:	4618      	mov	r0, r3
 8004e96:	46bd      	mov	sp, r7
 8004e98:	bc80      	pop	{r7}
 8004e9a:	4770      	bx	lr
 8004e9c:	20000000 	.word	0x20000000

08004ea0 <HAL_RCC_GetPCLK1Freq>:
  * @note   Each time PCLK1 changes, this function must be called to update the
  *         right PCLK1 value. Otherwise, any configuration based on this function will be incorrect.
  * @retval PCLK1 frequency
  */
uint32_t HAL_RCC_GetPCLK1Freq(void)
{
 8004ea0:	b580      	push	{r7, lr}
 8004ea2:	af00      	add	r7, sp, #0
  /* Get HCLK source and Compute PCLK1 frequency ---------------------------*/
  return (HAL_RCC_GetHCLKFreq() >> APBPrescTable[(RCC->CFGR & RCC_CFGR_PPRE1) >> RCC_CFGR_PPRE1_Pos]);
 8004ea4:	f7ff fff2 	bl	8004e8c <HAL_RCC_GetHCLKFreq>
 8004ea8:	4601      	mov	r1, r0
 8004eaa:	4b05      	ldr	r3, [pc, #20]	; (8004ec0 <HAL_RCC_GetPCLK1Freq+0x20>)
 8004eac:	685b      	ldr	r3, [r3, #4]
 8004eae:	0a1b      	lsrs	r3, r3, #8
 8004eb0:	f003 0307 	and.w	r3, r3, #7
 8004eb4:	4a03      	ldr	r2, [pc, #12]	; (8004ec4 <HAL_RCC_GetPCLK1Freq+0x24>)
 8004eb6:	5cd3      	ldrb	r3, [r2, r3]
 8004eb8:	fa21 f303 	lsr.w	r3, r1, r3
}
 8004ebc:	4618      	mov	r0, r3
 8004ebe:	bd80      	pop	{r7, pc}
 8004ec0:	40021000 	.word	0x40021000
 8004ec4:	08008550 	.word	0x08008550

08004ec8 <HAL_RCC_GetPCLK2Freq>:
  * @note   Each time PCLK2 changes, this function must be called to update the
  *         right PCLK2 value. Otherwise, any configuration based on this function will be incorrect.
  * @retval PCLK2 frequency
  */
uint32_t HAL_RCC_GetPCLK2Freq(void)
{
 8004ec8:	b580      	push	{r7, lr}
 8004eca:	af00      	add	r7, sp, #0
  /* Get HCLK source and Compute PCLK2 frequency ---------------------------*/
  return (HAL_RCC_GetHCLKFreq() >> APBPrescTable[(RCC->CFGR & RCC_CFGR_PPRE2) >> RCC_CFGR_PPRE2_Pos]);
 8004ecc:	f7ff ffde 	bl	8004e8c <HAL_RCC_GetHCLKFreq>
 8004ed0:	4601      	mov	r1, r0
 8004ed2:	4b05      	ldr	r3, [pc, #20]	; (8004ee8 <HAL_RCC_GetPCLK2Freq+0x20>)
 8004ed4:	685b      	ldr	r3, [r3, #4]
 8004ed6:	0adb      	lsrs	r3, r3, #11
 8004ed8:	f003 0307 	and.w	r3, r3, #7
 8004edc:	4a03      	ldr	r2, [pc, #12]	; (8004eec <HAL_RCC_GetPCLK2Freq+0x24>)
 8004ede:	5cd3      	ldrb	r3, [r2, r3]
 8004ee0:	fa21 f303 	lsr.w	r3, r1, r3
}
 8004ee4:	4618      	mov	r0, r3
 8004ee6:	bd80      	pop	{r7, pc}
 8004ee8:	40021000 	.word	0x40021000
 8004eec:	08008550 	.word	0x08008550

08004ef0 <HAL_RCC_GetClockConfig>:
  * contains the current clock configuration.
  * @param  pFLatency Pointer on the Flash Latency.
  * @retval None
  */
void HAL_RCC_GetClockConfig(RCC_ClkInitTypeDef  *RCC_ClkInitStruct, uint32_t *pFLatency)
{
 8004ef0:	b480      	push	{r7}
 8004ef2:	b083      	sub	sp, #12
 8004ef4:	af00      	add	r7, sp, #0
 8004ef6:	6078      	str	r0, [r7, #4]
 8004ef8:	6039      	str	r1, [r7, #0]
  /* Check the parameters */
  assert_param(RCC_ClkInitStruct != NULL);
  assert_param(pFLatency != NULL);

  /* Set all possible values for the Clock type parameter --------------------*/
  RCC_ClkInitStruct->ClockType = RCC_CLOCKTYPE_SYSCLK | RCC_CLOCKTYPE_HCLK | RCC_CLOCKTYPE_PCLK1 | RCC_CLOCKTYPE_PCLK2;
 8004efa:	687b      	ldr	r3, [r7, #4]
 8004efc:	220f      	movs	r2, #15
 8004efe:	601a      	str	r2, [r3, #0]

  /* Get the SYSCLK configuration --------------------------------------------*/
  RCC_ClkInitStruct->SYSCLKSource = (uint32_t)(RCC->CFGR & RCC_CFGR_SW);
 8004f00:	4b11      	ldr	r3, [pc, #68]	; (8004f48 <HAL_RCC_GetClockConfig+0x58>)
 8004f02:	685b      	ldr	r3, [r3, #4]
 8004f04:	f003 0203 	and.w	r2, r3, #3
 8004f08:	687b      	ldr	r3, [r7, #4]
 8004f0a:	605a      	str	r2, [r3, #4]

  /* Get the HCLK configuration ----------------------------------------------*/
  RCC_ClkInitStruct->AHBCLKDivider = (uint32_t)(RCC->CFGR & RCC_CFGR_HPRE);
 8004f0c:	4b0e      	ldr	r3, [pc, #56]	; (8004f48 <HAL_RCC_GetClockConfig+0x58>)
 8004f0e:	685b      	ldr	r3, [r3, #4]
 8004f10:	f003 02f0 	and.w	r2, r3, #240	; 0xf0
 8004f14:	687b      	ldr	r3, [r7, #4]
 8004f16:	609a      	str	r2, [r3, #8]

  /* Get the APB1 configuration ----------------------------------------------*/
  RCC_ClkInitStruct->APB1CLKDivider = (uint32_t)(RCC->CFGR & RCC_CFGR_PPRE1);
 8004f18:	4b0b      	ldr	r3, [pc, #44]	; (8004f48 <HAL_RCC_GetClockConfig+0x58>)
 8004f1a:	685b      	ldr	r3, [r3, #4]
 8004f1c:	f403 62e0 	and.w	r2, r3, #1792	; 0x700
 8004f20:	687b      	ldr	r3, [r7, #4]
 8004f22:	60da      	str	r2, [r3, #12]

  /* Get the APB2 configuration ----------------------------------------------*/
  RCC_ClkInitStruct->APB2CLKDivider = (uint32_t)((RCC->CFGR & RCC_CFGR_PPRE2) >> 3);
 8004f24:	4b08      	ldr	r3, [pc, #32]	; (8004f48 <HAL_RCC_GetClockConfig+0x58>)
 8004f26:	685b      	ldr	r3, [r3, #4]
 8004f28:	08db      	lsrs	r3, r3, #3
 8004f2a:	f403 62e0 	and.w	r2, r3, #1792	; 0x700
 8004f2e:	687b      	ldr	r3, [r7, #4]
 8004f30:	611a      	str	r2, [r3, #16]

#if   defined(FLASH_ACR_LATENCY)
  /* Get the Flash Wait State (Latency) configuration ------------------------*/
  *pFLatency = (uint32_t)(FLASH->ACR & FLASH_ACR_LATENCY);
 8004f32:	4b06      	ldr	r3, [pc, #24]	; (8004f4c <HAL_RCC_GetClockConfig+0x5c>)
 8004f34:	681b      	ldr	r3, [r3, #0]
 8004f36:	f003 0207 	and.w	r2, r3, #7
 8004f3a:	683b      	ldr	r3, [r7, #0]
 8004f3c:	601a      	str	r2, [r3, #0]
#else
  /* For VALUE lines devices, only LATENCY_0 can be set*/
  *pFLatency = (uint32_t)FLASH_LATENCY_0;
#endif
}
 8004f3e:	bf00      	nop
 8004f40:	370c      	adds	r7, #12
 8004f42:	46bd      	mov	sp, r7
 8004f44:	bc80      	pop	{r7}
 8004f46:	4770      	bx	lr
 8004f48:	40021000 	.word	0x40021000
 8004f4c:	40022000 	.word	0x40022000

08004f50 <RCC_Delay>:
  * @brief  This function provides delay (in milliseconds) based on CPU cycles method.
  * @param  mdelay: specifies the delay time length, in milliseconds.
  * @retval None
  */
static void RCC_Delay(uint32_t mdelay)
{
 8004f50:	b480      	push	{r7}
 8004f52:	b085      	sub	sp, #20
 8004f54:	af00      	add	r7, sp, #0
 8004f56:	6078      	str	r0, [r7, #4]
  __IO uint32_t Delay = mdelay * (SystemCoreClock / 8U / 1000U);
 8004f58:	4b0a      	ldr	r3, [pc, #40]	; (8004f84 <RCC_Delay+0x34>)
 8004f5a:	681b      	ldr	r3, [r3, #0]
 8004f5c:	4a0a      	ldr	r2, [pc, #40]	; (8004f88 <RCC_Delay+0x38>)
 8004f5e:	fba2 2303 	umull	r2, r3, r2, r3
 8004f62:	0a5b      	lsrs	r3, r3, #9
 8004f64:	687a      	ldr	r2, [r7, #4]
 8004f66:	fb02 f303 	mul.w	r3, r2, r3
 8004f6a:	60fb      	str	r3, [r7, #12]
  do
  {
    __NOP();
 8004f6c:	bf00      	nop
  }
  while (Delay --);
 8004f6e:	68fb      	ldr	r3, [r7, #12]
 8004f70:	1e5a      	subs	r2, r3, #1
 8004f72:	60fa      	str	r2, [r7, #12]
 8004f74:	2b00      	cmp	r3, #0
 8004f76:	d1f9      	bne.n	8004f6c <RCC_Delay+0x1c>
}
 8004f78:	bf00      	nop
 8004f7a:	3714      	adds	r7, #20
 8004f7c:	46bd      	mov	sp, r7
 8004f7e:	bc80      	pop	{r7}
 8004f80:	4770      	bx	lr
 8004f82:	bf00      	nop
 8004f84:	20000000 	.word	0x20000000
 8004f88:	10624dd3 	.word	0x10624dd3

08004f8c <HAL_RCCEx_PeriphCLKConfig>:
  *         manually disable it.
  *
  * @retval HAL status
  */
HAL_StatusTypeDef HAL_RCCEx_PeriphCLKConfig(RCC_PeriphCLKInitTypeDef  *PeriphClkInit)
{
 8004f8c:	b580      	push	{r7, lr}
 8004f8e:	b086      	sub	sp, #24
 8004f90:	af00      	add	r7, sp, #0
 8004f92:	6078      	str	r0, [r7, #4]
  uint32_t tickstart = 0U, temp_reg = 0U;
 8004f94:	2300      	movs	r3, #0
 8004f96:	613b      	str	r3, [r7, #16]
 8004f98:	2300      	movs	r3, #0
 8004f9a:	60fb      	str	r3, [r7, #12]

  /* Check the parameters */
  assert_param(IS_RCC_PERIPHCLOCK(PeriphClkInit->PeriphClockSelection));

  /*------------------------------- RTC/LCD Configuration ------------------------*/
  if ((((PeriphClkInit->PeriphClockSelection) & RCC_PERIPHCLK_RTC) == RCC_PERIPHCLK_RTC))
 8004f9c:	687b      	ldr	r3, [r7, #4]
 8004f9e:	681b      	ldr	r3, [r3, #0]
 8004fa0:	f003 0301 	and.w	r3, r3, #1
 8004fa4:	2b00      	cmp	r3, #0
 8004fa6:	d07d      	beq.n	80050a4 <HAL_RCCEx_PeriphCLKConfig+0x118>
  {
    /* check for RTC Parameters used to output RTCCLK */
    assert_param(IS_RCC_RTCCLKSOURCE(PeriphClkInit->RTCClockSelection));

    FlagStatus       pwrclkchanged = RESET;
 8004fa8:	2300      	movs	r3, #0
 8004faa:	75fb      	strb	r3, [r7, #23]

    /* As soon as function is called to change RTC clock source, activation of the
       power domain is done. */
    /* Requires to enable write access to Backup Domain of necessary */
    if (__HAL_RCC_PWR_IS_CLK_DISABLED())
 8004fac:	4b4f      	ldr	r3, [pc, #316]	; (80050ec <HAL_RCCEx_PeriphCLKConfig+0x160>)
 8004fae:	69db      	ldr	r3, [r3, #28]
 8004fb0:	f003 5380 	and.w	r3, r3, #268435456	; 0x10000000
 8004fb4:	2b00      	cmp	r3, #0
 8004fb6:	d10d      	bne.n	8004fd4 <HAL_RCCEx_PeriphCLKConfig+0x48>
    {
      __HAL_RCC_PWR_CLK_ENABLE();
 8004fb8:	4b4c      	ldr	r3, [pc, #304]	; (80050ec <HAL_RCCEx_PeriphCLKConfig+0x160>)
 8004fba:	69db      	ldr	r3, [r3, #28]
 8004fbc:	4a4b      	ldr	r2, [pc, #300]	; (80050ec <HAL_RCCEx_PeriphCLKConfig+0x160>)
 8004fbe:	f043 5380 	orr.w	r3, r3, #268435456	; 0x10000000
 8004fc2:	61d3      	str	r3, [r2, #28]
 8004fc4:	4b49      	ldr	r3, [pc, #292]	; (80050ec <HAL_RCCEx_PeriphCLKConfig+0x160>)
 8004fc6:	69db      	ldr	r3, [r3, #28]
 8004fc8:	f003 5380 	and.w	r3, r3, #268435456	; 0x10000000
 8004fcc:	60bb      	str	r3, [r7, #8]
 8004fce:	68bb      	ldr	r3, [r7, #8]
      pwrclkchanged = SET;
 8004fd0:	2301      	movs	r3, #1
 8004fd2:	75fb      	strb	r3, [r7, #23]
    }

    if (HAL_IS_BIT_CLR(PWR->CR, PWR_CR_DBP))
 8004fd4:	4b46      	ldr	r3, [pc, #280]	; (80050f0 <HAL_RCCEx_PeriphCLKConfig+0x164>)
 8004fd6:	681b      	ldr	r3, [r3, #0]
 8004fd8:	f403 7380 	and.w	r3, r3, #256	; 0x100
 8004fdc:	2b00      	cmp	r3, #0
 8004fde:	d118      	bne.n	8005012 <HAL_RCCEx_PeriphCLKConfig+0x86>
    {
      /* Enable write access to Backup domain */
      SET_BIT(PWR->CR, PWR_CR_DBP);
 8004fe0:	4b43      	ldr	r3, [pc, #268]	; (80050f0 <HAL_RCCEx_PeriphCLKConfig+0x164>)
 8004fe2:	681b      	ldr	r3, [r3, #0]
 8004fe4:	4a42      	ldr	r2, [pc, #264]	; (80050f0 <HAL_RCCEx_PeriphCLKConfig+0x164>)
 8004fe6:	f443 7380 	orr.w	r3, r3, #256	; 0x100
 8004fea:	6013      	str	r3, [r2, #0]

      /* Wait for Backup domain Write protection disable */
      tickstart = HAL_GetTick();
 8004fec:	f7fd f8c4 	bl	8002178 <HAL_GetTick>
 8004ff0:	6138      	str	r0, [r7, #16]

      while (HAL_IS_BIT_CLR(PWR->CR, PWR_CR_DBP))
 8004ff2:	e008      	b.n	8005006 <HAL_RCCEx_PeriphCLKConfig+0x7a>
      {
        if ((HAL_GetTick() - tickstart) > RCC_DBP_TIMEOUT_VALUE)
 8004ff4:	f7fd f8c0 	bl	8002178 <HAL_GetTick>
 8004ff8:	4602      	mov	r2, r0
 8004ffa:	693b      	ldr	r3, [r7, #16]
 8004ffc:	1ad3      	subs	r3, r2, r3
 8004ffe:	2b64      	cmp	r3, #100	; 0x64
 8005000:	d901      	bls.n	8005006 <HAL_RCCEx_PeriphCLKConfig+0x7a>
        {
          return HAL_TIMEOUT;
 8005002:	2303      	movs	r3, #3
 8005004:	e06d      	b.n	80050e2 <HAL_RCCEx_PeriphCLKConfig+0x156>
      while (HAL_IS_BIT_CLR(PWR->CR, PWR_CR_DBP))
 8005006:	4b3a      	ldr	r3, [pc, #232]	; (80050f0 <HAL_RCCEx_PeriphCLKConfig+0x164>)
 8005008:	681b      	ldr	r3, [r3, #0]
 800500a:	f403 7380 	and.w	r3, r3, #256	; 0x100
 800500e:	2b00      	cmp	r3, #0
 8005010:	d0f0      	beq.n	8004ff4 <HAL_RCCEx_PeriphCLKConfig+0x68>
        }
      }
    }

    /* Reset the Backup domain only if the RTC Clock source selection is modified from reset value */
    temp_reg = (RCC->BDCR & RCC_BDCR_RTCSEL);
 8005012:	4b36      	ldr	r3, [pc, #216]	; (80050ec <HAL_RCCEx_PeriphCLKConfig+0x160>)
 8005014:	6a1b      	ldr	r3, [r3, #32]
 8005016:	f403 7340 	and.w	r3, r3, #768	; 0x300
 800501a:	60fb      	str	r3, [r7, #12]
    if ((temp_reg != 0x00000000U) && (temp_reg != (PeriphClkInit->RTCClockSelection & RCC_BDCR_RTCSEL)))
 800501c:	68fb      	ldr	r3, [r7, #12]
 800501e:	2b00      	cmp	r3, #0
 8005020:	d02e      	beq.n	8005080 <HAL_RCCEx_PeriphCLKConfig+0xf4>
 8005022:	687b      	ldr	r3, [r7, #4]
 8005024:	685b      	ldr	r3, [r3, #4]
 8005026:	f403 7340 	and.w	r3, r3, #768	; 0x300
 800502a:	68fa      	ldr	r2, [r7, #12]
 800502c:	429a      	cmp	r2, r3
 800502e:	d027      	beq.n	8005080 <HAL_RCCEx_PeriphCLKConfig+0xf4>
    {
      /* Store the content of BDCR register before the reset of Backup Domain */
      temp_reg = (RCC->BDCR & ~(RCC_BDCR_RTCSEL));
 8005030:	4b2e      	ldr	r3, [pc, #184]	; (80050ec <HAL_RCCEx_PeriphCLKConfig+0x160>)
 8005032:	6a1b      	ldr	r3, [r3, #32]
 8005034:	f423 7340 	bic.w	r3, r3, #768	; 0x300
 8005038:	60fb      	str	r3, [r7, #12]
      /* RTC Clock selection can be changed only if the Backup Domain is reset */
      __HAL_RCC_BACKUPRESET_FORCE();
 800503a:	4b2e      	ldr	r3, [pc, #184]	; (80050f4 <HAL_RCCEx_PeriphCLKConfig+0x168>)
 800503c:	2201      	movs	r2, #1
 800503e:	601a      	str	r2, [r3, #0]
      __HAL_RCC_BACKUPRESET_RELEASE();
 8005040:	4b2c      	ldr	r3, [pc, #176]	; (80050f4 <HAL_RCCEx_PeriphCLKConfig+0x168>)
 8005042:	2200      	movs	r2, #0
 8005044:	601a      	str	r2, [r3, #0]
      /* Restore the Content of BDCR register */
      RCC->BDCR = temp_reg;
 8005046:	4a29      	ldr	r2, [pc, #164]	; (80050ec <HAL_RCCEx_PeriphCLKConfig+0x160>)
 8005048:	68fb      	ldr	r3, [r7, #12]
 800504a:	6213      	str	r3, [r2, #32]

      /* Wait for LSERDY if LSE was enabled */
      if (HAL_IS_BIT_SET(temp_reg, RCC_BDCR_LSEON))
 800504c:	68fb      	ldr	r3, [r7, #12]
 800504e:	f003 0301 	and.w	r3, r3, #1
 8005052:	2b00      	cmp	r3, #0
 8005054:	d014      	beq.n	8005080 <HAL_RCCEx_PeriphCLKConfig+0xf4>
      {
        /* Get Start Tick */
        tickstart = HAL_GetTick();
 8005056:	f7fd f88f 	bl	8002178 <HAL_GetTick>
 800505a:	6138      	str	r0, [r7, #16]

        /* Wait till LSE is ready */
        while (__HAL_RCC_GET_FLAG(RCC_FLAG_LSERDY) == RESET)
 800505c:	e00a      	b.n	8005074 <HAL_RCCEx_PeriphCLKConfig+0xe8>
        {
          if ((HAL_GetTick() - tickstart) > RCC_LSE_TIMEOUT_VALUE)
 800505e:	f7fd f88b 	bl	8002178 <HAL_GetTick>
 8005062:	4602      	mov	r2, r0
 8005064:	693b      	ldr	r3, [r7, #16]
 8005066:	1ad3      	subs	r3, r2, r3
 8005068:	f241 3288 	movw	r2, #5000	; 0x1388
 800506c:	4293      	cmp	r3, r2
 800506e:	d901      	bls.n	8005074 <HAL_RCCEx_PeriphCLKConfig+0xe8>
          {
            return HAL_TIMEOUT;
 8005070:	2303      	movs	r3, #3
 8005072:	e036      	b.n	80050e2 <HAL_RCCEx_PeriphCLKConfig+0x156>
        while (__HAL_RCC_GET_FLAG(RCC_FLAG_LSERDY) == RESET)
 8005074:	4b1d      	ldr	r3, [pc, #116]	; (80050ec <HAL_RCCEx_PeriphCLKConfig+0x160>)
 8005076:	6a1b      	ldr	r3, [r3, #32]
 8005078:	f003 0302 	and.w	r3, r3, #2
 800507c:	2b00      	cmp	r3, #0
 800507e:	d0ee      	beq.n	800505e <HAL_RCCEx_PeriphCLKConfig+0xd2>
          }
        }
      }
    }
    __HAL_RCC_RTC_CONFIG(PeriphClkInit->RTCClockSelection);
 8005080:	4b1a      	ldr	r3, [pc, #104]	; (80050ec <HAL_RCCEx_PeriphCLKConfig+0x160>)
 8005082:	6a1b      	ldr	r3, [r3, #32]
 8005084:	f423 7240 	bic.w	r2, r3, #768	; 0x300
 8005088:	687b      	ldr	r3, [r7, #4]
 800508a:	685b      	ldr	r3, [r3, #4]
 800508c:	4917      	ldr	r1, [pc, #92]	; (80050ec <HAL_RCCEx_PeriphCLKConfig+0x160>)
 800508e:	4313      	orrs	r3, r2
 8005090:	620b      	str	r3, [r1, #32]

    /* Require to disable power clock if necessary */
    if (pwrclkchanged == SET)
 8005092:	7dfb      	ldrb	r3, [r7, #23]
 8005094:	2b01      	cmp	r3, #1
 8005096:	d105      	bne.n	80050a4 <HAL_RCCEx_PeriphCLKConfig+0x118>
    {
      __HAL_RCC_PWR_CLK_DISABLE();
 8005098:	4b14      	ldr	r3, [pc, #80]	; (80050ec <HAL_RCCEx_PeriphCLKConfig+0x160>)
 800509a:	69db      	ldr	r3, [r3, #28]
 800509c:	4a13      	ldr	r2, [pc, #76]	; (80050ec <HAL_RCCEx_PeriphCLKConfig+0x160>)
 800509e:	f023 5380 	bic.w	r3, r3, #268435456	; 0x10000000
 80050a2:	61d3      	str	r3, [r2, #28]
    }
  }

  /*------------------------------ ADC clock Configuration ------------------*/
  if (((PeriphClkInit->PeriphClockSelection) & RCC_PERIPHCLK_ADC) == RCC_PERIPHCLK_ADC)
 80050a4:	687b      	ldr	r3, [r7, #4]
 80050a6:	681b      	ldr	r3, [r3, #0]
 80050a8:	f003 0302 	and.w	r3, r3, #2
 80050ac:	2b00      	cmp	r3, #0
 80050ae:	d008      	beq.n	80050c2 <HAL_RCCEx_PeriphCLKConfig+0x136>
  {
    /* Check the parameters */
    assert_param(IS_RCC_ADCPLLCLK_DIV(PeriphClkInit->AdcClockSelection));

    /* Configure the ADC clock source */
    __HAL_RCC_ADC_CONFIG(PeriphClkInit->AdcClockSelection);
 80050b0:	4b0e      	ldr	r3, [pc, #56]	; (80050ec <HAL_RCCEx_PeriphCLKConfig+0x160>)
 80050b2:	685b      	ldr	r3, [r3, #4]
 80050b4:	f423 4240 	bic.w	r2, r3, #49152	; 0xc000
 80050b8:	687b      	ldr	r3, [r7, #4]
 80050ba:	689b      	ldr	r3, [r3, #8]
 80050bc:	490b      	ldr	r1, [pc, #44]	; (80050ec <HAL_RCCEx_PeriphCLKConfig+0x160>)
 80050be:	4313      	orrs	r3, r2
 80050c0:	604b      	str	r3, [r1, #4]

#if defined(STM32F102x6) || defined(STM32F102xB) || defined(STM32F103x6)\
 || defined(STM32F103xB) || defined(STM32F103xE) || defined(STM32F103xG)\
 || defined(STM32F105xC) || defined(STM32F107xC)
  /*------------------------------ USB clock Configuration ------------------*/
  if (((PeriphClkInit->PeriphClockSelection) & RCC_PERIPHCLK_USB) == RCC_PERIPHCLK_USB)
 80050c2:	687b      	ldr	r3, [r7, #4]
 80050c4:	681b      	ldr	r3, [r3, #0]
 80050c6:	f003 0310 	and.w	r3, r3, #16
 80050ca:	2b00      	cmp	r3, #0
 80050cc:	d008      	beq.n	80050e0 <HAL_RCCEx_PeriphCLKConfig+0x154>
  {
    /* Check the parameters */
    assert_param(IS_RCC_USBPLLCLK_DIV(PeriphClkInit->UsbClockSelection));

    /* Configure the USB clock source */
    __HAL_RCC_USB_CONFIG(PeriphClkInit->UsbClockSelection);
 80050ce:	4b07      	ldr	r3, [pc, #28]	; (80050ec <HAL_RCCEx_PeriphCLKConfig+0x160>)
 80050d0:	685b      	ldr	r3, [r3, #4]
 80050d2:	f423 0280 	bic.w	r2, r3, #4194304	; 0x400000
 80050d6:	687b      	ldr	r3, [r7, #4]
 80050d8:	68db      	ldr	r3, [r3, #12]
 80050da:	4904      	ldr	r1, [pc, #16]	; (80050ec <HAL_RCCEx_PeriphCLKConfig+0x160>)
 80050dc:	4313      	orrs	r3, r2
 80050de:	604b      	str	r3, [r1, #4]
  }
#endif /* STM32F102x6 || STM32F102xB || STM32F103x6 || STM32F103xB || STM32F103xE || STM32F103xG || STM32F105xC || STM32F107xC */

  return HAL_OK;
 80050e0:	2300      	movs	r3, #0
}
 80050e2:	4618      	mov	r0, r3
 80050e4:	3718      	adds	r7, #24
 80050e6:	46bd      	mov	sp, r7
 80050e8:	bd80      	pop	{r7, pc}
 80050ea:	bf00      	nop
 80050ec:	40021000 	.word	0x40021000
 80050f0:	40007000 	.word	0x40007000
 80050f4:	42420440 	.word	0x42420440

080050f8 <HAL_TIM_Base_Init>:
  *         Ex: call @ref HAL_TIM_Base_DeInit() before HAL_TIM_Base_Init()
  * @param  htim TIM Base handle
  * @retval HAL status
  */
HAL_StatusTypeDef HAL_TIM_Base_Init(TIM_HandleTypeDef *htim)
{
 80050f8:	b580      	push	{r7, lr}
 80050fa:	b082      	sub	sp, #8
 80050fc:	af00      	add	r7, sp, #0
 80050fe:	6078      	str	r0, [r7, #4]
  /* Check the TIM handle allocation */
  if (htim == NULL)
 8005100:	687b      	ldr	r3, [r7, #4]
 8005102:	2b00      	cmp	r3, #0
 8005104:	d101      	bne.n	800510a <HAL_TIM_Base_Init+0x12>
  {
    return HAL_ERROR;
 8005106:	2301      	movs	r3, #1
 8005108:	e01d      	b.n	8005146 <HAL_TIM_Base_Init+0x4e>
  assert_param(IS_TIM_INSTANCE(htim->Instance));
  assert_param(IS_TIM_COUNTER_MODE(htim->Init.CounterMode));
  assert_param(IS_TIM_CLOCKDIVISION_DIV(htim->Init.ClockDivision));
  assert_param(IS_TIM_AUTORELOAD_PRELOAD(htim->Init.AutoReloadPreload));

  if (htim->State == HAL_TIM_STATE_RESET)
 800510a:	687b      	ldr	r3, [r7, #4]
 800510c:	f893 303d 	ldrb.w	r3, [r3, #61]	; 0x3d
 8005110:	b2db      	uxtb	r3, r3
 8005112:	2b00      	cmp	r3, #0
 8005114:	d106      	bne.n	8005124 <HAL_TIM_Base_Init+0x2c>
  {
    /* Allocate lock resource and initialize it */
    htim->Lock = HAL_UNLOCKED;
 8005116:	687b      	ldr	r3, [r7, #4]
 8005118:	2200      	movs	r2, #0
 800511a:	f883 203c 	strb.w	r2, [r3, #60]	; 0x3c
    }
    /* Init the low level hardware : GPIO, CLOCK, NVIC */
    htim->Base_MspInitCallback(htim);
#else
    /* Init the low level hardware : GPIO, CLOCK, NVIC */
    HAL_TIM_Base_MspInit(htim);
 800511e:	6878      	ldr	r0, [r7, #4]
 8005120:	f000 f815 	bl	800514e <HAL_TIM_Base_MspInit>
#endif /* USE_HAL_TIM_REGISTER_CALLBACKS */
  }

  /* Set the TIM state */
  htim->State = HAL_TIM_STATE_BUSY;
 8005124:	687b      	ldr	r3, [r7, #4]
 8005126:	2202      	movs	r2, #2
 8005128:	f883 203d 	strb.w	r2, [r3, #61]	; 0x3d

  /* Set the Time Base configuration */
  TIM_Base_SetConfig(htim->Instance, &htim->Init);
 800512c:	687b      	ldr	r3, [r7, #4]
 800512e:	681a      	ldr	r2, [r3, #0]
 8005130:	687b      	ldr	r3, [r7, #4]
 8005132:	3304      	adds	r3, #4
 8005134:	4619      	mov	r1, r3
 8005136:	4610      	mov	r0, r2
 8005138:	f000 f962 	bl	8005400 <TIM_Base_SetConfig>

  /* Initialize the TIM state*/
  htim->State = HAL_TIM_STATE_READY;
 800513c:	687b      	ldr	r3, [r7, #4]
 800513e:	2201      	movs	r2, #1
 8005140:	f883 203d 	strb.w	r2, [r3, #61]	; 0x3d

  return HAL_OK;
 8005144:	2300      	movs	r3, #0
}
 8005146:	4618      	mov	r0, r3
 8005148:	3708      	adds	r7, #8
 800514a:	46bd      	mov	sp, r7
 800514c:	bd80      	pop	{r7, pc}

0800514e <HAL_TIM_Base_MspInit>:
  * @brief  Initializes the TIM Base MSP.
  * @param  htim TIM Base handle
  * @retval None
  */
__weak void HAL_TIM_Base_MspInit(TIM_HandleTypeDef *htim)
{
 800514e:	b480      	push	{r7}
 8005150:	b083      	sub	sp, #12
 8005152:	af00      	add	r7, sp, #0
 8005154:	6078      	str	r0, [r7, #4]
  UNUSED(htim);

  /* NOTE : This function should not be modified, when the callback is needed,
            the HAL_TIM_Base_MspInit could be implemented in the user file
   */
}
 8005156:	bf00      	nop
 8005158:	370c      	adds	r7, #12
 800515a:	46bd      	mov	sp, r7
 800515c:	bc80      	pop	{r7}
 800515e:	4770      	bx	lr

08005160 <HAL_TIM_Base_Start_IT>:
  * @brief  Starts the TIM Base generation in interrupt mode.
  * @param  htim TIM Base handle
  * @retval HAL status
  */
HAL_StatusTypeDef HAL_TIM_Base_Start_IT(TIM_HandleTypeDef *htim)
{
 8005160:	b480      	push	{r7}
 8005162:	b085      	sub	sp, #20
 8005164:	af00      	add	r7, sp, #0
 8005166:	6078      	str	r0, [r7, #4]

  /* Check the parameters */
  assert_param(IS_TIM_INSTANCE(htim->Instance));

  /* Enable the TIM Update interrupt */
  __HAL_TIM_ENABLE_IT(htim, TIM_IT_UPDATE);
 8005168:	687b      	ldr	r3, [r7, #4]
 800516a:	681b      	ldr	r3, [r3, #0]
 800516c:	68da      	ldr	r2, [r3, #12]
 800516e:	687b      	ldr	r3, [r7, #4]
 8005170:	681b      	ldr	r3, [r3, #0]
 8005172:	f042 0201 	orr.w	r2, r2, #1
 8005176:	60da      	str	r2, [r3, #12]

  /* Enable the Peripheral, except in trigger mode where enable is automatically done with trigger */
  tmpsmcr = htim->Instance->SMCR & TIM_SMCR_SMS;
 8005178:	687b      	ldr	r3, [r7, #4]
 800517a:	681b      	ldr	r3, [r3, #0]
 800517c:	689b      	ldr	r3, [r3, #8]
 800517e:	f003 0307 	and.w	r3, r3, #7
 8005182:	60fb      	str	r3, [r7, #12]
  if (!IS_TIM_SLAVEMODE_TRIGGER_ENABLED(tmpsmcr))
 8005184:	68fb      	ldr	r3, [r7, #12]
 8005186:	2b06      	cmp	r3, #6
 8005188:	d007      	beq.n	800519a <HAL_TIM_Base_Start_IT+0x3a>
  {
    __HAL_TIM_ENABLE(htim);
 800518a:	687b      	ldr	r3, [r7, #4]
 800518c:	681b      	ldr	r3, [r3, #0]
 800518e:	681a      	ldr	r2, [r3, #0]
 8005190:	687b      	ldr	r3, [r7, #4]
 8005192:	681b      	ldr	r3, [r3, #0]
 8005194:	f042 0201 	orr.w	r2, r2, #1
 8005198:	601a      	str	r2, [r3, #0]
  }

  /* Return function status */
  return HAL_OK;
 800519a:	2300      	movs	r3, #0
}
 800519c:	4618      	mov	r0, r3
 800519e:	3714      	adds	r7, #20
 80051a0:	46bd      	mov	sp, r7
 80051a2:	bc80      	pop	{r7}
 80051a4:	4770      	bx	lr

080051a6 <HAL_TIM_IRQHandler>:
  * @brief  This function handles TIM interrupts requests.
  * @param  htim TIM  handle
  * @retval None
  */
void HAL_TIM_IRQHandler(TIM_HandleTypeDef *htim)
{
 80051a6:	b580      	push	{r7, lr}
 80051a8:	b082      	sub	sp, #8
 80051aa:	af00      	add	r7, sp, #0
 80051ac:	6078      	str	r0, [r7, #4]
  /* Capture compare 1 event */
  if (__HAL_TIM_GET_FLAG(htim, TIM_FLAG_CC1) != RESET)
 80051ae:	687b      	ldr	r3, [r7, #4]
 80051b0:	681b      	ldr	r3, [r3, #0]
 80051b2:	691b      	ldr	r3, [r3, #16]
 80051b4:	f003 0302 	and.w	r3, r3, #2
 80051b8:	2b02      	cmp	r3, #2
 80051ba:	d122      	bne.n	8005202 <HAL_TIM_IRQHandler+0x5c>
  {
    if (__HAL_TIM_GET_IT_SOURCE(htim, TIM_IT_CC1) != RESET)
 80051bc:	687b      	ldr	r3, [r7, #4]
 80051be:	681b      	ldr	r3, [r3, #0]
 80051c0:	68db      	ldr	r3, [r3, #12]
 80051c2:	f003 0302 	and.w	r3, r3, #2
 80051c6:	2b02      	cmp	r3, #2
 80051c8:	d11b      	bne.n	8005202 <HAL_TIM_IRQHandler+0x5c>
    {
      {
        __HAL_TIM_CLEAR_IT(htim, TIM_IT_CC1);
 80051ca:	687b      	ldr	r3, [r7, #4]
 80051cc:	681b      	ldr	r3, [r3, #0]
 80051ce:	f06f 0202 	mvn.w	r2, #2
 80051d2:	611a      	str	r2, [r3, #16]
        htim->Channel = HAL_TIM_ACTIVE_CHANNEL_1;
 80051d4:	687b      	ldr	r3, [r7, #4]
 80051d6:	2201      	movs	r2, #1
 80051d8:	771a      	strb	r2, [r3, #28]

        /* Input capture event */
        if ((htim->Instance->CCMR1 & TIM_CCMR1_CC1S) != 0x00U)
 80051da:	687b      	ldr	r3, [r7, #4]
 80051dc:	681b      	ldr	r3, [r3, #0]
 80051de:	699b      	ldr	r3, [r3, #24]
 80051e0:	f003 0303 	and.w	r3, r3, #3
 80051e4:	2b00      	cmp	r3, #0
 80051e6:	d003      	beq.n	80051f0 <HAL_TIM_IRQHandler+0x4a>
        {
#if (USE_HAL_TIM_REGISTER_CALLBACKS == 1)
          htim->IC_CaptureCallback(htim);
#else
          HAL_TIM_IC_CaptureCallback(htim);
 80051e8:	6878      	ldr	r0, [r7, #4]
 80051ea:	f000 f8ed 	bl	80053c8 <HAL_TIM_IC_CaptureCallback>
 80051ee:	e005      	b.n	80051fc <HAL_TIM_IRQHandler+0x56>
        {
#if (USE_HAL_TIM_REGISTER_CALLBACKS == 1)
          htim->OC_DelayElapsedCallback(htim);
          htim->PWM_PulseFinishedCallback(htim);
#else
          HAL_TIM_OC_DelayElapsedCallback(htim);
 80051f0:	6878      	ldr	r0, [r7, #4]
 80051f2:	f000 f8e0 	bl	80053b6 <HAL_TIM_OC_DelayElapsedCallback>
          HAL_TIM_PWM_PulseFinishedCallback(htim);
 80051f6:	6878      	ldr	r0, [r7, #4]
 80051f8:	f000 f8ef 	bl	80053da <HAL_TIM_PWM_PulseFinishedCallback>
#endif /* USE_HAL_TIM_REGISTER_CALLBACKS */
        }
        htim->Channel = HAL_TIM_ACTIVE_CHANNEL_CLEARED;
 80051fc:	687b      	ldr	r3, [r7, #4]
 80051fe:	2200      	movs	r2, #0
 8005200:	771a      	strb	r2, [r3, #28]
      }
    }
  }
  /* Capture compare 2 event */
  if (__HAL_TIM_GET_FLAG(htim, TIM_FLAG_CC2) != RESET)
 8005202:	687b      	ldr	r3, [r7, #4]
 8005204:	681b      	ldr	r3, [r3, #0]
 8005206:	691b      	ldr	r3, [r3, #16]
 8005208:	f003 0304 	and.w	r3, r3, #4
 800520c:	2b04      	cmp	r3, #4
 800520e:	d122      	bne.n	8005256 <HAL_TIM_IRQHandler+0xb0>
  {
    if (__HAL_TIM_GET_IT_SOURCE(htim, TIM_IT_CC2) != RESET)
 8005210:	687b      	ldr	r3, [r7, #4]
 8005212:	681b      	ldr	r3, [r3, #0]
 8005214:	68db      	ldr	r3, [r3, #12]
 8005216:	f003 0304 	and.w	r3, r3, #4
 800521a:	2b04      	cmp	r3, #4
 800521c:	d11b      	bne.n	8005256 <HAL_TIM_IRQHandler+0xb0>
    {
      __HAL_TIM_CLEAR_IT(htim, TIM_IT_CC2);
 800521e:	687b      	ldr	r3, [r7, #4]
 8005220:	681b      	ldr	r3, [r3, #0]
 8005222:	f06f 0204 	mvn.w	r2, #4
 8005226:	611a      	str	r2, [r3, #16]
      htim->Channel = HAL_TIM_ACTIVE_CHANNEL_2;
 8005228:	687b      	ldr	r3, [r7, #4]
 800522a:	2202      	movs	r2, #2
 800522c:	771a      	strb	r2, [r3, #28]
      /* Input capture event */
      if ((htim->Instance->CCMR1 & TIM_CCMR1_CC2S) != 0x00U)
 800522e:	687b      	ldr	r3, [r7, #4]
 8005230:	681b      	ldr	r3, [r3, #0]
 8005232:	699b      	ldr	r3, [r3, #24]
 8005234:	f403 7340 	and.w	r3, r3, #768	; 0x300
 8005238:	2b00      	cmp	r3, #0
 800523a:	d003      	beq.n	8005244 <HAL_TIM_IRQHandler+0x9e>
      {
#if (USE_HAL_TIM_REGISTER_CALLBACKS == 1)
        htim->IC_CaptureCallback(htim);
#else
        HAL_TIM_IC_CaptureCallback(htim);
 800523c:	6878      	ldr	r0, [r7, #4]
 800523e:	f000 f8c3 	bl	80053c8 <HAL_TIM_IC_CaptureCallback>
 8005242:	e005      	b.n	8005250 <HAL_TIM_IRQHandler+0xaa>
      {
#if (USE_HAL_TIM_REGISTER_CALLBACKS == 1)
        htim->OC_DelayElapsedCallback(htim);
        htim->PWM_PulseFinishedCallback(htim);
#else
        HAL_TIM_OC_DelayElapsedCallback(htim);
 8005244:	6878      	ldr	r0, [r7, #4]
 8005246:	f000 f8b6 	bl	80053b6 <HAL_TIM_OC_DelayElapsedCallback>
        HAL_TIM_PWM_PulseFinishedCallback(htim);
 800524a:	6878      	ldr	r0, [r7, #4]
 800524c:	f000 f8c5 	bl	80053da <HAL_TIM_PWM_PulseFinishedCallback>
#endif /* USE_HAL_TIM_REGISTER_CALLBACKS */
      }
      htim->Channel = HAL_TIM_ACTIVE_CHANNEL_CLEARED;
 8005250:	687b      	ldr	r3, [r7, #4]
 8005252:	2200      	movs	r2, #0
 8005254:	771a      	strb	r2, [r3, #28]
    }
  }
  /* Capture compare 3 event */
  if (__HAL_TIM_GET_FLAG(htim, TIM_FLAG_CC3) != RESET)
 8005256:	687b      	ldr	r3, [r7, #4]
 8005258:	681b      	ldr	r3, [r3, #0]
 800525a:	691b      	ldr	r3, [r3, #16]
 800525c:	f003 0308 	and.w	r3, r3, #8
 8005260:	2b08      	cmp	r3, #8
 8005262:	d122      	bne.n	80052aa <HAL_TIM_IRQHandler+0x104>
  {
    if (__HAL_TIM_GET_IT_SOURCE(htim, TIM_IT_CC3) != RESET)
 8005264:	687b      	ldr	r3, [r7, #4]
 8005266:	681b      	ldr	r3, [r3, #0]
 8005268:	68db      	ldr	r3, [r3, #12]
 800526a:	f003 0308 	and.w	r3, r3, #8
 800526e:	2b08      	cmp	r3, #8
 8005270:	d11b      	bne.n	80052aa <HAL_TIM_IRQHandler+0x104>
    {
      __HAL_TIM_CLEAR_IT(htim, TIM_IT_CC3);
 8005272:	687b      	ldr	r3, [r7, #4]
 8005274:	681b      	ldr	r3, [r3, #0]
 8005276:	f06f 0208 	mvn.w	r2, #8
 800527a:	611a      	str	r2, [r3, #16]
      htim->Channel = HAL_TIM_ACTIVE_CHANNEL_3;
 800527c:	687b      	ldr	r3, [r7, #4]
 800527e:	2204      	movs	r2, #4
 8005280:	771a      	strb	r2, [r3, #28]
      /* Input capture event */
      if ((htim->Instance->CCMR2 & TIM_CCMR2_CC3S) != 0x00U)
 8005282:	687b      	ldr	r3, [r7, #4]
 8005284:	681b      	ldr	r3, [r3, #0]
 8005286:	69db      	ldr	r3, [r3, #28]
 8005288:	f003 0303 	and.w	r3, r3, #3
 800528c:	2b00      	cmp	r3, #0
 800528e:	d003      	beq.n	8005298 <HAL_TIM_IRQHandler+0xf2>
      {
#if (USE_HAL_TIM_REGISTER_CALLBACKS == 1)
        htim->IC_CaptureCallback(htim);
#else
        HAL_TIM_IC_CaptureCallback(htim);
 8005290:	6878      	ldr	r0, [r7, #4]
 8005292:	f000 f899 	bl	80053c8 <HAL_TIM_IC_CaptureCallback>
 8005296:	e005      	b.n	80052a4 <HAL_TIM_IRQHandler+0xfe>
      {
#if (USE_HAL_TIM_REGISTER_CALLBACKS == 1)
        htim->OC_DelayElapsedCallback(htim);
        htim->PWM_PulseFinishedCallback(htim);
#else
        HAL_TIM_OC_DelayElapsedCallback(htim);
 8005298:	6878      	ldr	r0, [r7, #4]
 800529a:	f000 f88c 	bl	80053b6 <HAL_TIM_OC_DelayElapsedCallback>
        HAL_TIM_PWM_PulseFinishedCallback(htim);
 800529e:	6878      	ldr	r0, [r7, #4]
 80052a0:	f000 f89b 	bl	80053da <HAL_TIM_PWM_PulseFinishedCallback>
#endif /* USE_HAL_TIM_REGISTER_CALLBACKS */
      }
      htim->Channel = HAL_TIM_ACTIVE_CHANNEL_CLEARED;
 80052a4:	687b      	ldr	r3, [r7, #4]
 80052a6:	2200      	movs	r2, #0
 80052a8:	771a      	strb	r2, [r3, #28]
    }
  }
  /* Capture compare 4 event */
  if (__HAL_TIM_GET_FLAG(htim, TIM_FLAG_CC4) != RESET)
 80052aa:	687b      	ldr	r3, [r7, #4]
 80052ac:	681b      	ldr	r3, [r3, #0]
 80052ae:	691b      	ldr	r3, [r3, #16]
 80052b0:	f003 0310 	and.w	r3, r3, #16
 80052b4:	2b10      	cmp	r3, #16
 80052b6:	d122      	bne.n	80052fe <HAL_TIM_IRQHandler+0x158>
  {
    if (__HAL_TIM_GET_IT_SOURCE(htim, TIM_IT_CC4) != RESET)
 80052b8:	687b      	ldr	r3, [r7, #4]
 80052ba:	681b      	ldr	r3, [r3, #0]
 80052bc:	68db      	ldr	r3, [r3, #12]
 80052be:	f003 0310 	and.w	r3, r3, #16
 80052c2:	2b10      	cmp	r3, #16
 80052c4:	d11b      	bne.n	80052fe <HAL_TIM_IRQHandler+0x158>
    {
      __HAL_TIM_CLEAR_IT(htim, TIM_IT_CC4);
 80052c6:	687b      	ldr	r3, [r7, #4]
 80052c8:	681b      	ldr	r3, [r3, #0]
 80052ca:	f06f 0210 	mvn.w	r2, #16
 80052ce:	611a      	str	r2, [r3, #16]
      htim->Channel = HAL_TIM_ACTIVE_CHANNEL_4;
 80052d0:	687b      	ldr	r3, [r7, #4]
 80052d2:	2208      	movs	r2, #8
 80052d4:	771a      	strb	r2, [r3, #28]
      /* Input capture event */
      if ((htim->Instance->CCMR2 & TIM_CCMR2_CC4S) != 0x00U)
 80052d6:	687b      	ldr	r3, [r7, #4]
 80052d8:	681b      	ldr	r3, [r3, #0]
 80052da:	69db      	ldr	r3, [r3, #28]
 80052dc:	f403 7340 	and.w	r3, r3, #768	; 0x300
 80052e0:	2b00      	cmp	r3, #0
 80052e2:	d003      	beq.n	80052ec <HAL_TIM_IRQHandler+0x146>
      {
#if (USE_HAL_TIM_REGISTER_CALLBACKS == 1)
        htim->IC_CaptureCallback(htim);
#else
        HAL_TIM_IC_CaptureCallback(htim);
 80052e4:	6878      	ldr	r0, [r7, #4]
 80052e6:	f000 f86f 	bl	80053c8 <HAL_TIM_IC_CaptureCallback>
 80052ea:	e005      	b.n	80052f8 <HAL_TIM_IRQHandler+0x152>
      {
#if (USE_HAL_TIM_REGISTER_CALLBACKS == 1)
        htim->OC_DelayElapsedCallback(htim);
        htim->PWM_PulseFinishedCallback(htim);
#else
        HAL_TIM_OC_DelayElapsedCallback(htim);
 80052ec:	6878      	ldr	r0, [r7, #4]
 80052ee:	f000 f862 	bl	80053b6 <HAL_TIM_OC_DelayElapsedCallback>
        HAL_TIM_PWM_PulseFinishedCallback(htim);
 80052f2:	6878      	ldr	r0, [r7, #4]
 80052f4:	f000 f871 	bl	80053da <HAL_TIM_PWM_PulseFinishedCallback>
#endif /* USE_HAL_TIM_REGISTER_CALLBACKS */
      }
      htim->Channel = HAL_TIM_ACTIVE_CHANNEL_CLEARED;
 80052f8:	687b      	ldr	r3, [r7, #4]
 80052fa:	2200      	movs	r2, #0
 80052fc:	771a      	strb	r2, [r3, #28]
    }
  }
  /* TIM Update event */
  if (__HAL_TIM_GET_FLAG(htim, TIM_FLAG_UPDATE) != RESET)
 80052fe:	687b      	ldr	r3, [r7, #4]
 8005300:	681b      	ldr	r3, [r3, #0]
 8005302:	691b      	ldr	r3, [r3, #16]
 8005304:	f003 0301 	and.w	r3, r3, #1
 8005308:	2b01      	cmp	r3, #1
 800530a:	d10e      	bne.n	800532a <HAL_TIM_IRQHandler+0x184>
  {
    if (__HAL_TIM_GET_IT_SOURCE(htim, TIM_IT_UPDATE) != RESET)
 800530c:	687b      	ldr	r3, [r7, #4]
 800530e:	681b      	ldr	r3, [r3, #0]
 8005310:	68db      	ldr	r3, [r3, #12]
 8005312:	f003 0301 	and.w	r3, r3, #1
 8005316:	2b01      	cmp	r3, #1
 8005318:	d107      	bne.n	800532a <HAL_TIM_IRQHandler+0x184>
    {
      __HAL_TIM_CLEAR_IT(htim, TIM_IT_UPDATE);
 800531a:	687b      	ldr	r3, [r7, #4]
 800531c:	681b      	ldr	r3, [r3, #0]
 800531e:	f06f 0201 	mvn.w	r2, #1
 8005322:	611a      	str	r2, [r3, #16]
#if (USE_HAL_TIM_REGISTER_CALLBACKS == 1)
      htim->PeriodElapsedCallback(htim);
#else
      HAL_TIM_PeriodElapsedCallback(htim);
 8005324:	6878      	ldr	r0, [r7, #4]
 8005326:	f7fc fc8f 	bl	8001c48 <HAL_TIM_PeriodElapsedCallback>
#endif /* USE_HAL_TIM_REGISTER_CALLBACKS */
    }
  }
  /* TIM Break input event */
  if (__HAL_TIM_GET_FLAG(htim, TIM_FLAG_BREAK) != RESET)
 800532a:	687b      	ldr	r3, [r7, #4]
 800532c:	681b      	ldr	r3, [r3, #0]
 800532e:	691b      	ldr	r3, [r3, #16]
 8005330:	f003 0380 	and.w	r3, r3, #128	; 0x80
 8005334:	2b80      	cmp	r3, #128	; 0x80
 8005336:	d10e      	bne.n	8005356 <HAL_TIM_IRQHandler+0x1b0>
  {
    if (__HAL_TIM_GET_IT_SOURCE(htim, TIM_IT_BREAK) != RESET)
 8005338:	687b      	ldr	r3, [r7, #4]
 800533a:	681b      	ldr	r3, [r3, #0]
 800533c:	68db      	ldr	r3, [r3, #12]
 800533e:	f003 0380 	and.w	r3, r3, #128	; 0x80
 8005342:	2b80      	cmp	r3, #128	; 0x80
 8005344:	d107      	bne.n	8005356 <HAL_TIM_IRQHandler+0x1b0>
    {
      __HAL_TIM_CLEAR_IT(htim, TIM_IT_BREAK);
 8005346:	687b      	ldr	r3, [r7, #4]
 8005348:	681b      	ldr	r3, [r3, #0]
 800534a:	f06f 0280 	mvn.w	r2, #128	; 0x80
 800534e:	611a      	str	r2, [r3, #16]
#if (USE_HAL_TIM_REGISTER_CALLBACKS == 1)
      htim->BreakCallback(htim);
#else
      HAL_TIMEx_BreakCallback(htim);
 8005350:	6878      	ldr	r0, [r7, #4]
 8005352:	f000 f8c0 	bl	80054d6 <HAL_TIMEx_BreakCallback>
#endif /* USE_HAL_TIM_REGISTER_CALLBACKS */
    }
  }
  /* TIM Trigger detection event */
  if (__HAL_TIM_GET_FLAG(htim, TIM_FLAG_TRIGGER) != RESET)
 8005356:	687b      	ldr	r3, [r7, #4]
 8005358:	681b      	ldr	r3, [r3, #0]
 800535a:	691b      	ldr	r3, [r3, #16]
 800535c:	f003 0340 	and.w	r3, r3, #64	; 0x40
 8005360:	2b40      	cmp	r3, #64	; 0x40
 8005362:	d10e      	bne.n	8005382 <HAL_TIM_IRQHandler+0x1dc>
  {
    if (__HAL_TIM_GET_IT_SOURCE(htim, TIM_IT_TRIGGER) != RESET)
 8005364:	687b      	ldr	r3, [r7, #4]
 8005366:	681b      	ldr	r3, [r3, #0]
 8005368:	68db      	ldr	r3, [r3, #12]
 800536a:	f003 0340 	and.w	r3, r3, #64	; 0x40
 800536e:	2b40      	cmp	r3, #64	; 0x40
 8005370:	d107      	bne.n	8005382 <HAL_TIM_IRQHandler+0x1dc>
    {
      __HAL_TIM_CLEAR_IT(htim, TIM_IT_TRIGGER);
 8005372:	687b      	ldr	r3, [r7, #4]
 8005374:	681b      	ldr	r3, [r3, #0]
 8005376:	f06f 0240 	mvn.w	r2, #64	; 0x40
 800537a:	611a      	str	r2, [r3, #16]
#if (USE_HAL_TIM_REGISTER_CALLBACKS == 1)
      htim->TriggerCallback(htim);
#else
      HAL_TIM_TriggerCallback(htim);
 800537c:	6878      	ldr	r0, [r7, #4]
 800537e:	f000 f835 	bl	80053ec <HAL_TIM_TriggerCallback>
#endif /* USE_HAL_TIM_REGISTER_CALLBACKS */
    }
  }
  /* TIM commutation event */
  if (__HAL_TIM_GET_FLAG(htim, TIM_FLAG_COM) != RESET)
 8005382:	687b      	ldr	r3, [r7, #4]
 8005384:	681b      	ldr	r3, [r3, #0]
 8005386:	691b      	ldr	r3, [r3, #16]
 8005388:	f003 0320 	and.w	r3, r3, #32
 800538c:	2b20      	cmp	r3, #32
 800538e:	d10e      	bne.n	80053ae <HAL_TIM_IRQHandler+0x208>
  {
    if (__HAL_TIM_GET_IT_SOURCE(htim, TIM_IT_COM) != RESET)
 8005390:	687b      	ldr	r3, [r7, #4]
 8005392:	681b      	ldr	r3, [r3, #0]
 8005394:	68db      	ldr	r3, [r3, #12]
 8005396:	f003 0320 	and.w	r3, r3, #32
 800539a:	2b20      	cmp	r3, #32
 800539c:	d107      	bne.n	80053ae <HAL_TIM_IRQHandler+0x208>
    {
      __HAL_TIM_CLEAR_IT(htim, TIM_FLAG_COM);
 800539e:	687b      	ldr	r3, [r7, #4]
 80053a0:	681b      	ldr	r3, [r3, #0]
 80053a2:	f06f 0220 	mvn.w	r2, #32
 80053a6:	611a      	str	r2, [r3, #16]
#if (USE_HAL_TIM_REGISTER_CALLBACKS == 1)
      htim->CommutationCallback(htim);
#else
      HAL_TIMEx_CommutCallback(htim);
 80053a8:	6878      	ldr	r0, [r7, #4]
 80053aa:	f000 f88b 	bl	80054c4 <HAL_TIMEx_CommutCallback>
#endif /* USE_HAL_TIM_REGISTER_CALLBACKS */
    }
  }
}
 80053ae:	bf00      	nop
 80053b0:	3708      	adds	r7, #8
 80053b2:	46bd      	mov	sp, r7
 80053b4:	bd80      	pop	{r7, pc}

080053b6 <HAL_TIM_OC_DelayElapsedCallback>:
  * @brief  Output Compare callback in non-blocking mode
  * @param  htim TIM OC handle
  * @retval None
  */
__weak void HAL_TIM_OC_DelayElapsedCallback(TIM_HandleTypeDef *htim)
{
 80053b6:	b480      	push	{r7}
 80053b8:	b083      	sub	sp, #12
 80053ba:	af00      	add	r7, sp, #0
 80053bc:	6078      	str	r0, [r7, #4]
  UNUSED(htim);

  /* NOTE : This function should not be modified, when the callback is needed,
            the HAL_TIM_OC_DelayElapsedCallback could be implemented in the user file
   */
}
 80053be:	bf00      	nop
 80053c0:	370c      	adds	r7, #12
 80053c2:	46bd      	mov	sp, r7
 80053c4:	bc80      	pop	{r7}
 80053c6:	4770      	bx	lr

080053c8 <HAL_TIM_IC_CaptureCallback>:
  * @brief  Input Capture callback in non-blocking mode
  * @param  htim TIM IC handle
  * @retval None
  */
__weak void HAL_TIM_IC_CaptureCallback(TIM_HandleTypeDef *htim)
{
 80053c8:	b480      	push	{r7}
 80053ca:	b083      	sub	sp, #12
 80053cc:	af00      	add	r7, sp, #0
 80053ce:	6078      	str	r0, [r7, #4]
  UNUSED(htim);

  /* NOTE : This function should not be modified, when the callback is needed,
            the HAL_TIM_IC_CaptureCallback could be implemented in the user file
   */
}
 80053d0:	bf00      	nop
 80053d2:	370c      	adds	r7, #12
 80053d4:	46bd      	mov	sp, r7
 80053d6:	bc80      	pop	{r7}
 80053d8:	4770      	bx	lr

080053da <HAL_TIM_PWM_PulseFinishedCallback>:
  * @brief  PWM Pulse finished callback in non-blocking mode
  * @param  htim TIM handle
  * @retval None
  */
__weak void HAL_TIM_PWM_PulseFinishedCallback(TIM_HandleTypeDef *htim)
{
 80053da:	b480      	push	{r7}
 80053dc:	b083      	sub	sp, #12
 80053de:	af00      	add	r7, sp, #0
 80053e0:	6078      	str	r0, [r7, #4]
  UNUSED(htim);

  /* NOTE : This function should not be modified, when the callback is needed,
            the HAL_TIM_PWM_PulseFinishedCallback could be implemented in the user file
   */
}
 80053e2:	bf00      	nop
 80053e4:	370c      	adds	r7, #12
 80053e6:	46bd      	mov	sp, r7
 80053e8:	bc80      	pop	{r7}
 80053ea:	4770      	bx	lr

080053ec <HAL_TIM_TriggerCallback>:
  * @brief  Hall Trigger detection callback in non-blocking mode
  * @param  htim TIM handle
  * @retval None
  */
__weak void HAL_TIM_TriggerCallback(TIM_HandleTypeDef *htim)
{
 80053ec:	b480      	push	{r7}
 80053ee:	b083      	sub	sp, #12
 80053f0:	af00      	add	r7, sp, #0
 80053f2:	6078      	str	r0, [r7, #4]
  UNUSED(htim);

  /* NOTE : This function should not be modified, when the callback is needed,
            the HAL_TIM_TriggerCallback could be implemented in the user file
   */
}
 80053f4:	bf00      	nop
 80053f6:	370c      	adds	r7, #12
 80053f8:	46bd      	mov	sp, r7
 80053fa:	bc80      	pop	{r7}
 80053fc:	4770      	bx	lr
	...

08005400 <TIM_Base_SetConfig>:
  * @param  TIMx TIM peripheral
  * @param  Structure TIM Base configuration structure
  * @retval None
  */
void TIM_Base_SetConfig(TIM_TypeDef *TIMx, TIM_Base_InitTypeDef *Structure)
{
 8005400:	b480      	push	{r7}
 8005402:	b085      	sub	sp, #20
 8005404:	af00      	add	r7, sp, #0
 8005406:	6078      	str	r0, [r7, #4]
 8005408:	6039      	str	r1, [r7, #0]
  uint32_t tmpcr1;
  tmpcr1 = TIMx->CR1;
 800540a:	687b      	ldr	r3, [r7, #4]
 800540c:	681b      	ldr	r3, [r3, #0]
 800540e:	60fb      	str	r3, [r7, #12]

  /* Set TIM Time Base Unit parameters ---------------------------------------*/
  if (IS_TIM_COUNTER_MODE_SELECT_INSTANCE(TIMx))
 8005410:	687b      	ldr	r3, [r7, #4]
 8005412:	4a29      	ldr	r2, [pc, #164]	; (80054b8 <TIM_Base_SetConfig+0xb8>)
 8005414:	4293      	cmp	r3, r2
 8005416:	d00b      	beq.n	8005430 <TIM_Base_SetConfig+0x30>
 8005418:	687b      	ldr	r3, [r7, #4]
 800541a:	f1b3 4f80 	cmp.w	r3, #1073741824	; 0x40000000
 800541e:	d007      	beq.n	8005430 <TIM_Base_SetConfig+0x30>
 8005420:	687b      	ldr	r3, [r7, #4]
 8005422:	4a26      	ldr	r2, [pc, #152]	; (80054bc <TIM_Base_SetConfig+0xbc>)
 8005424:	4293      	cmp	r3, r2
 8005426:	d003      	beq.n	8005430 <TIM_Base_SetConfig+0x30>
 8005428:	687b      	ldr	r3, [r7, #4]
 800542a:	4a25      	ldr	r2, [pc, #148]	; (80054c0 <TIM_Base_SetConfig+0xc0>)
 800542c:	4293      	cmp	r3, r2
 800542e:	d108      	bne.n	8005442 <TIM_Base_SetConfig+0x42>
  {
    /* Select the Counter Mode */
    tmpcr1 &= ~(TIM_CR1_DIR | TIM_CR1_CMS);
 8005430:	68fb      	ldr	r3, [r7, #12]
 8005432:	f023 0370 	bic.w	r3, r3, #112	; 0x70
 8005436:	60fb      	str	r3, [r7, #12]
    tmpcr1 |= Structure->CounterMode;
 8005438:	683b      	ldr	r3, [r7, #0]
 800543a:	685b      	ldr	r3, [r3, #4]
 800543c:	68fa      	ldr	r2, [r7, #12]
 800543e:	4313      	orrs	r3, r2
 8005440:	60fb      	str	r3, [r7, #12]
  }

  if (IS_TIM_CLOCK_DIVISION_INSTANCE(TIMx))
 8005442:	687b      	ldr	r3, [r7, #4]
 8005444:	4a1c      	ldr	r2, [pc, #112]	; (80054b8 <TIM_Base_SetConfig+0xb8>)
 8005446:	4293      	cmp	r3, r2
 8005448:	d00b      	beq.n	8005462 <TIM_Base_SetConfig+0x62>
 800544a:	687b      	ldr	r3, [r7, #4]
 800544c:	f1b3 4f80 	cmp.w	r3, #1073741824	; 0x40000000
 8005450:	d007      	beq.n	8005462 <TIM_Base_SetConfig+0x62>
 8005452:	687b      	ldr	r3, [r7, #4]
 8005454:	4a19      	ldr	r2, [pc, #100]	; (80054bc <TIM_Base_SetConfig+0xbc>)
 8005456:	4293      	cmp	r3, r2
 8005458:	d003      	beq.n	8005462 <TIM_Base_SetConfig+0x62>
 800545a:	687b      	ldr	r3, [r7, #4]
 800545c:	4a18      	ldr	r2, [pc, #96]	; (80054c0 <TIM_Base_SetConfig+0xc0>)
 800545e:	4293      	cmp	r3, r2
 8005460:	d108      	bne.n	8005474 <TIM_Base_SetConfig+0x74>
  {
    /* Set the clock division */
    tmpcr1 &= ~TIM_CR1_CKD;
 8005462:	68fb      	ldr	r3, [r7, #12]
 8005464:	f423 7340 	bic.w	r3, r3, #768	; 0x300
 8005468:	60fb      	str	r3, [r7, #12]
    tmpcr1 |= (uint32_t)Structure->ClockDivision;
 800546a:	683b      	ldr	r3, [r7, #0]
 800546c:	68db      	ldr	r3, [r3, #12]
 800546e:	68fa      	ldr	r2, [r7, #12]
 8005470:	4313      	orrs	r3, r2
 8005472:	60fb      	str	r3, [r7, #12]
  }

  /* Set the auto-reload preload */
  MODIFY_REG(tmpcr1, TIM_CR1_ARPE, Structure->AutoReloadPreload);
 8005474:	68fb      	ldr	r3, [r7, #12]
 8005476:	f023 0280 	bic.w	r2, r3, #128	; 0x80
 800547a:	683b      	ldr	r3, [r7, #0]
 800547c:	695b      	ldr	r3, [r3, #20]
 800547e:	4313      	orrs	r3, r2
 8005480:	60fb      	str	r3, [r7, #12]

  TIMx->CR1 = tmpcr1;
 8005482:	687b      	ldr	r3, [r7, #4]
 8005484:	68fa      	ldr	r2, [r7, #12]
 8005486:	601a      	str	r2, [r3, #0]

  /* Set the Autoreload value */
  TIMx->ARR = (uint32_t)Structure->Period ;
 8005488:	683b      	ldr	r3, [r7, #0]
 800548a:	689a      	ldr	r2, [r3, #8]
 800548c:	687b      	ldr	r3, [r7, #4]
 800548e:	62da      	str	r2, [r3, #44]	; 0x2c

  /* Set the Prescaler value */
  TIMx->PSC = Structure->Prescaler;
 8005490:	683b      	ldr	r3, [r7, #0]
 8005492:	681a      	ldr	r2, [r3, #0]
 8005494:	687b      	ldr	r3, [r7, #4]
 8005496:	629a      	str	r2, [r3, #40]	; 0x28

  if (IS_TIM_REPETITION_COUNTER_INSTANCE(TIMx))
 8005498:	687b      	ldr	r3, [r7, #4]
 800549a:	4a07      	ldr	r2, [pc, #28]	; (80054b8 <TIM_Base_SetConfig+0xb8>)
 800549c:	4293      	cmp	r3, r2
 800549e:	d103      	bne.n	80054a8 <TIM_Base_SetConfig+0xa8>
  {
    /* Set the Repetition Counter value */
    TIMx->RCR = Structure->RepetitionCounter;
 80054a0:	683b      	ldr	r3, [r7, #0]
 80054a2:	691a      	ldr	r2, [r3, #16]
 80054a4:	687b      	ldr	r3, [r7, #4]
 80054a6:	631a      	str	r2, [r3, #48]	; 0x30
  }

  /* Generate an update event to reload the Prescaler
     and the repetition counter (only for advanced timer) value immediately */
  TIMx->EGR = TIM_EGR_UG;
 80054a8:	687b      	ldr	r3, [r7, #4]
 80054aa:	2201      	movs	r2, #1
 80054ac:	615a      	str	r2, [r3, #20]
}
 80054ae:	bf00      	nop
 80054b0:	3714      	adds	r7, #20
 80054b2:	46bd      	mov	sp, r7
 80054b4:	bc80      	pop	{r7}
 80054b6:	4770      	bx	lr
 80054b8:	40012c00 	.word	0x40012c00
 80054bc:	40000400 	.word	0x40000400
 80054c0:	40000800 	.word	0x40000800

080054c4 <HAL_TIMEx_CommutCallback>:
  * @brief  Hall commutation changed callback in non-blocking mode
  * @param  htim TIM handle
  * @retval None
  */
__weak void HAL_TIMEx_CommutCallback(TIM_HandleTypeDef *htim)
{
 80054c4:	b480      	push	{r7}
 80054c6:	b083      	sub	sp, #12
 80054c8:	af00      	add	r7, sp, #0
 80054ca:	6078      	str	r0, [r7, #4]
  UNUSED(htim);

  /* NOTE : This function should not be modified, when the callback is needed,
            the HAL_TIMEx_CommutCallback could be implemented in the user file
   */
}
 80054cc:	bf00      	nop
 80054ce:	370c      	adds	r7, #12
 80054d0:	46bd      	mov	sp, r7
 80054d2:	bc80      	pop	{r7}
 80054d4:	4770      	bx	lr

080054d6 <HAL_TIMEx_BreakCallback>:
  * @brief  Hall Break detection callback in non-blocking mode
  * @param  htim TIM handle
  * @retval None
  */
__weak void HAL_TIMEx_BreakCallback(TIM_HandleTypeDef *htim)
{
 80054d6:	b480      	push	{r7}
 80054d8:	b083      	sub	sp, #12
 80054da:	af00      	add	r7, sp, #0
 80054dc:	6078      	str	r0, [r7, #4]
  UNUSED(htim);

  /* NOTE : This function should not be modified, when the callback is needed,
            the HAL_TIMEx_BreakCallback could be implemented in the user file
   */
}
 80054de:	bf00      	nop
 80054e0:	370c      	adds	r7, #12
 80054e2:	46bd      	mov	sp, r7
 80054e4:	bc80      	pop	{r7}
 80054e6:	4770      	bx	lr

080054e8 <Reset_Handler>:
  .weak Reset_Handler
  .type Reset_Handler, %function
Reset_Handler:

/* Copy the data segment initializers from flash to SRAM */
  movs r1, #0
 80054e8:	2100      	movs	r1, #0
  b LoopCopyDataInit
 80054ea:	e003      	b.n	80054f4 <LoopCopyDataInit>

080054ec <CopyDataInit>:

CopyDataInit:
  ldr r3, =_sidata
 80054ec:	4b0b      	ldr	r3, [pc, #44]	; (800551c <LoopFillZerobss+0x14>)
  ldr r3, [r3, r1]
 80054ee:	585b      	ldr	r3, [r3, r1]
  str r3, [r0, r1]
 80054f0:	5043      	str	r3, [r0, r1]
  adds r1, r1, #4
 80054f2:	3104      	adds	r1, #4

080054f4 <LoopCopyDataInit>:

LoopCopyDataInit:
  ldr r0, =_sdata
 80054f4:	480a      	ldr	r0, [pc, #40]	; (8005520 <LoopFillZerobss+0x18>)
  ldr r3, =_edata
 80054f6:	4b0b      	ldr	r3, [pc, #44]	; (8005524 <LoopFillZerobss+0x1c>)
  adds r2, r0, r1
 80054f8:	1842      	adds	r2, r0, r1
  cmp r2, r3
 80054fa:	429a      	cmp	r2, r3
  bcc CopyDataInit
 80054fc:	d3f6      	bcc.n	80054ec <CopyDataInit>
  ldr r2, =_sbss
 80054fe:	4a0a      	ldr	r2, [pc, #40]	; (8005528 <LoopFillZerobss+0x20>)
  b LoopFillZerobss
 8005500:	e002      	b.n	8005508 <LoopFillZerobss>

08005502 <FillZerobss>:
/* Zero fill the bss segment. */
FillZerobss:
  movs r3, #0
 8005502:	2300      	movs	r3, #0
  str r3, [r2], #4
 8005504:	f842 3b04 	str.w	r3, [r2], #4

08005508 <LoopFillZerobss>:

LoopFillZerobss:
  ldr r3, = _ebss
 8005508:	4b08      	ldr	r3, [pc, #32]	; (800552c <LoopFillZerobss+0x24>)
  cmp r2, r3
 800550a:	429a      	cmp	r2, r3
  bcc FillZerobss
 800550c:	d3f9      	bcc.n	8005502 <FillZerobss>

/* Call the clock system intitialization function.*/
    bl  SystemInit
 800550e:	f7fc fdd7 	bl	80020c0 <SystemInit>
/* Call static constructors */
    bl __libc_init_array
 8005512:	f002 ff59 	bl	80083c8 <__libc_init_array>
/* Call the application's entry point.*/
  bl main
 8005516:	f7fb fd15 	bl	8000f44 <main>
  bx lr
 800551a:	4770      	bx	lr
  ldr r3, =_sidata
 800551c:	0800856c 	.word	0x0800856c
  ldr r0, =_sdata
 8005520:	20000000 	.word	0x20000000
  ldr r3, =_edata
 8005524:	20000010 	.word	0x20000010
  ldr r2, =_sbss
 8005528:	20000010 	.word	0x20000010
  ldr r3, = _ebss
 800552c:	200023b0 	.word	0x200023b0

08005530 <ADC1_2_IRQHandler>:
 * @retval : None
*/
    .section .text.Default_Handler,"ax",%progbits
Default_Handler:
Infinite_Loop:
  b Infinite_Loop
 8005530:	e7fe      	b.n	8005530 <ADC1_2_IRQHandler>

08005532 <vListInitialise>:
/*-----------------------------------------------------------
 * PUBLIC LIST API documented in list.h
 *----------------------------------------------------------*/

void vListInitialise( List_t * const pxList )
{
 8005532:	b480      	push	{r7}
 8005534:	b083      	sub	sp, #12
 8005536:	af00      	add	r7, sp, #0
 8005538:	6078      	str	r0, [r7, #4]
	/* The list structure contains a list item which is used to mark the
	end of the list.  To initialise the list the list end is inserted
	as the only list entry. */
	pxList->pxIndex = ( ListItem_t * ) &( pxList->xListEnd );			/*lint !e826 !e740 The mini list structure is used as the list end to save RAM.  This is checked and valid. */
 800553a:	687b      	ldr	r3, [r7, #4]
 800553c:	f103 0208 	add.w	r2, r3, #8
 8005540:	687b      	ldr	r3, [r7, #4]
 8005542:	605a      	str	r2, [r3, #4]

	/* The list end value is the highest possible value in the list to
	ensure it remains at the end of the list. */
	pxList->xListEnd.xItemValue = portMAX_DELAY;
 8005544:	687b      	ldr	r3, [r7, #4]
 8005546:	f04f 32ff 	mov.w	r2, #4294967295
 800554a:	609a      	str	r2, [r3, #8]

	/* The list end next and previous pointers point to itself so we know
	when the list is empty. */
	pxList->xListEnd.pxNext = ( ListItem_t * ) &( pxList->xListEnd );	/*lint !e826 !e740 The mini list structure is used as the list end to save RAM.  This is checked and valid. */
 800554c:	687b      	ldr	r3, [r7, #4]
 800554e:	f103 0208 	add.w	r2, r3, #8
 8005552:	687b      	ldr	r3, [r7, #4]
 8005554:	60da      	str	r2, [r3, #12]
	pxList->xListEnd.pxPrevious = ( ListItem_t * ) &( pxList->xListEnd );/*lint !e826 !e740 The mini list structure is used as the list end to save RAM.  This is checked and valid. */
 8005556:	687b      	ldr	r3, [r7, #4]
 8005558:	f103 0208 	add.w	r2, r3, #8
 800555c:	687b      	ldr	r3, [r7, #4]
 800555e:	611a      	str	r2, [r3, #16]

	pxList->uxNumberOfItems = ( UBaseType_t ) 0U;
 8005560:	687b      	ldr	r3, [r7, #4]
 8005562:	2200      	movs	r2, #0
 8005564:	601a      	str	r2, [r3, #0]

	/* Write known values into the list if
	configUSE_LIST_DATA_INTEGRITY_CHECK_BYTES is set to 1. */
	listSET_LIST_INTEGRITY_CHECK_1_VALUE( pxList );
	listSET_LIST_INTEGRITY_CHECK_2_VALUE( pxList );
}
 8005566:	bf00      	nop
 8005568:	370c      	adds	r7, #12
 800556a:	46bd      	mov	sp, r7
 800556c:	bc80      	pop	{r7}
 800556e:	4770      	bx	lr

08005570 <vListInitialiseItem>:
/*-----------------------------------------------------------*/

void vListInitialiseItem( ListItem_t * const pxItem )
{
 8005570:	b480      	push	{r7}
 8005572:	b083      	sub	sp, #12
 8005574:	af00      	add	r7, sp, #0
 8005576:	6078      	str	r0, [r7, #4]
	/* Make sure the list item is not recorded as being on a list. */
	pxItem->pvContainer = NULL;
 8005578:	687b      	ldr	r3, [r7, #4]
 800557a:	2200      	movs	r2, #0
 800557c:	611a      	str	r2, [r3, #16]

	/* Write known values into the list item if
	configUSE_LIST_DATA_INTEGRITY_CHECK_BYTES is set to 1. */
	listSET_FIRST_LIST_ITEM_INTEGRITY_CHECK_VALUE( pxItem );
	listSET_SECOND_LIST_ITEM_INTEGRITY_CHECK_VALUE( pxItem );
}
 800557e:	bf00      	nop
 8005580:	370c      	adds	r7, #12
 8005582:	46bd      	mov	sp, r7
 8005584:	bc80      	pop	{r7}
 8005586:	4770      	bx	lr

08005588 <vListInsertEnd>:
/*-----------------------------------------------------------*/

void vListInsertEnd( List_t * const pxList, ListItem_t * const pxNewListItem )
{
 8005588:	b480      	push	{r7}
 800558a:	b085      	sub	sp, #20
 800558c:	af00      	add	r7, sp, #0
 800558e:	6078      	str	r0, [r7, #4]
 8005590:	6039      	str	r1, [r7, #0]
ListItem_t * const pxIndex = pxList->pxIndex;
 8005592:	687b      	ldr	r3, [r7, #4]
 8005594:	685b      	ldr	r3, [r3, #4]
 8005596:	60fb      	str	r3, [r7, #12]
	listTEST_LIST_ITEM_INTEGRITY( pxNewListItem );

	/* Insert a new list item into pxList, but rather than sort the list,
	makes the new list item the last item to be removed by a call to
	listGET_OWNER_OF_NEXT_ENTRY(). */
	pxNewListItem->pxNext = pxIndex;
 8005598:	683b      	ldr	r3, [r7, #0]
 800559a:	68fa      	ldr	r2, [r7, #12]
 800559c:	605a      	str	r2, [r3, #4]
	pxNewListItem->pxPrevious = pxIndex->pxPrevious;
 800559e:	68fb      	ldr	r3, [r7, #12]
 80055a0:	689a      	ldr	r2, [r3, #8]
 80055a2:	683b      	ldr	r3, [r7, #0]
 80055a4:	609a      	str	r2, [r3, #8]

	/* Only used during decision coverage testing. */
	mtCOVERAGE_TEST_DELAY();

	pxIndex->pxPrevious->pxNext = pxNewListItem;
 80055a6:	68fb      	ldr	r3, [r7, #12]
 80055a8:	689b      	ldr	r3, [r3, #8]
 80055aa:	683a      	ldr	r2, [r7, #0]
 80055ac:	605a      	str	r2, [r3, #4]
	pxIndex->pxPrevious = pxNewListItem;
 80055ae:	68fb      	ldr	r3, [r7, #12]
 80055b0:	683a      	ldr	r2, [r7, #0]
 80055b2:	609a      	str	r2, [r3, #8]

	/* Remember which list the item is in. */
	pxNewListItem->pvContainer = ( void * ) pxList;
 80055b4:	683b      	ldr	r3, [r7, #0]
 80055b6:	687a      	ldr	r2, [r7, #4]
 80055b8:	611a      	str	r2, [r3, #16]

	( pxList->uxNumberOfItems )++;
 80055ba:	687b      	ldr	r3, [r7, #4]
 80055bc:	681b      	ldr	r3, [r3, #0]
 80055be:	1c5a      	adds	r2, r3, #1
 80055c0:	687b      	ldr	r3, [r7, #4]
 80055c2:	601a      	str	r2, [r3, #0]
}
 80055c4:	bf00      	nop
 80055c6:	3714      	adds	r7, #20
 80055c8:	46bd      	mov	sp, r7
 80055ca:	bc80      	pop	{r7}
 80055cc:	4770      	bx	lr

080055ce <vListInsert>:
/*-----------------------------------------------------------*/

void vListInsert( List_t * const pxList, ListItem_t * const pxNewListItem )
{
 80055ce:	b480      	push	{r7}
 80055d0:	b085      	sub	sp, #20
 80055d2:	af00      	add	r7, sp, #0
 80055d4:	6078      	str	r0, [r7, #4]
 80055d6:	6039      	str	r1, [r7, #0]
ListItem_t *pxIterator;
const TickType_t xValueOfInsertion = pxNewListItem->xItemValue;
 80055d8:	683b      	ldr	r3, [r7, #0]
 80055da:	681b      	ldr	r3, [r3, #0]
 80055dc:	60bb      	str	r3, [r7, #8]
	new list item should be placed after it.  This ensures that TCB's which are
	stored in ready lists (all of which have the same xItemValue value) get a
	share of the CPU.  However, if the xItemValue is the same as the back marker
	the iteration loop below will not end.  Therefore the value is checked
	first, and the algorithm slightly modified if necessary. */
	if( xValueOfInsertion == portMAX_DELAY )
 80055de:	68bb      	ldr	r3, [r7, #8]
 80055e0:	f1b3 3fff 	cmp.w	r3, #4294967295
 80055e4:	d103      	bne.n	80055ee <vListInsert+0x20>
	{
		pxIterator = pxList->xListEnd.pxPrevious;
 80055e6:	687b      	ldr	r3, [r7, #4]
 80055e8:	691b      	ldr	r3, [r3, #16]
 80055ea:	60fb      	str	r3, [r7, #12]
 80055ec:	e00c      	b.n	8005608 <vListInsert+0x3a>
			4) Using a queue or semaphore before it has been initialised or
			   before the scheduler has been started (are interrupts firing
			   before vTaskStartScheduler() has been called?).
		**********************************************************************/

		for( pxIterator = ( ListItem_t * ) &( pxList->xListEnd ); pxIterator->pxNext->xItemValue <= xValueOfInsertion; pxIterator = pxIterator->pxNext ) /*lint !e826 !e740 The mini list structure is used as the list end to save RAM.  This is checked and valid. */
 80055ee:	687b      	ldr	r3, [r7, #4]
 80055f0:	3308      	adds	r3, #8
 80055f2:	60fb      	str	r3, [r7, #12]
 80055f4:	e002      	b.n	80055fc <vListInsert+0x2e>
 80055f6:	68fb      	ldr	r3, [r7, #12]
 80055f8:	685b      	ldr	r3, [r3, #4]
 80055fa:	60fb      	str	r3, [r7, #12]
 80055fc:	68fb      	ldr	r3, [r7, #12]
 80055fe:	685b      	ldr	r3, [r3, #4]
 8005600:	681b      	ldr	r3, [r3, #0]
 8005602:	68ba      	ldr	r2, [r7, #8]
 8005604:	429a      	cmp	r2, r3
 8005606:	d2f6      	bcs.n	80055f6 <vListInsert+0x28>
			/* There is nothing to do here, just iterating to the wanted
			insertion position. */
		}
	}

	pxNewListItem->pxNext = pxIterator->pxNext;
 8005608:	68fb      	ldr	r3, [r7, #12]
 800560a:	685a      	ldr	r2, [r3, #4]
 800560c:	683b      	ldr	r3, [r7, #0]
 800560e:	605a      	str	r2, [r3, #4]
	pxNewListItem->pxNext->pxPrevious = pxNewListItem;
 8005610:	683b      	ldr	r3, [r7, #0]
 8005612:	685b      	ldr	r3, [r3, #4]
 8005614:	683a      	ldr	r2, [r7, #0]
 8005616:	609a      	str	r2, [r3, #8]
	pxNewListItem->pxPrevious = pxIterator;
 8005618:	683b      	ldr	r3, [r7, #0]
 800561a:	68fa      	ldr	r2, [r7, #12]
 800561c:	609a      	str	r2, [r3, #8]
	pxIterator->pxNext = pxNewListItem;
 800561e:	68fb      	ldr	r3, [r7, #12]
 8005620:	683a      	ldr	r2, [r7, #0]
 8005622:	605a      	str	r2, [r3, #4]

	/* Remember which list the item is in.  This allows fast removal of the
	item later. */
	pxNewListItem->pvContainer = ( void * ) pxList;
 8005624:	683b      	ldr	r3, [r7, #0]
 8005626:	687a      	ldr	r2, [r7, #4]
 8005628:	611a      	str	r2, [r3, #16]

	( pxList->uxNumberOfItems )++;
 800562a:	687b      	ldr	r3, [r7, #4]
 800562c:	681b      	ldr	r3, [r3, #0]
 800562e:	1c5a      	adds	r2, r3, #1
 8005630:	687b      	ldr	r3, [r7, #4]
 8005632:	601a      	str	r2, [r3, #0]
}
 8005634:	bf00      	nop
 8005636:	3714      	adds	r7, #20
 8005638:	46bd      	mov	sp, r7
 800563a:	bc80      	pop	{r7}
 800563c:	4770      	bx	lr

0800563e <uxListRemove>:
/*-----------------------------------------------------------*/

UBaseType_t uxListRemove( ListItem_t * const pxItemToRemove )
{
 800563e:	b480      	push	{r7}
 8005640:	b085      	sub	sp, #20
 8005642:	af00      	add	r7, sp, #0
 8005644:	6078      	str	r0, [r7, #4]
/* The list item knows which list it is in.  Obtain the list from the list
item. */
List_t * const pxList = ( List_t * ) pxItemToRemove->pvContainer;
 8005646:	687b      	ldr	r3, [r7, #4]
 8005648:	691b      	ldr	r3, [r3, #16]
 800564a:	60fb      	str	r3, [r7, #12]

	pxItemToRemove->pxNext->pxPrevious = pxItemToRemove->pxPrevious;
 800564c:	687b      	ldr	r3, [r7, #4]
 800564e:	685b      	ldr	r3, [r3, #4]
 8005650:	687a      	ldr	r2, [r7, #4]
 8005652:	6892      	ldr	r2, [r2, #8]
 8005654:	609a      	str	r2, [r3, #8]
	pxItemToRemove->pxPrevious->pxNext = pxItemToRemove->pxNext;
 8005656:	687b      	ldr	r3, [r7, #4]
 8005658:	689b      	ldr	r3, [r3, #8]
 800565a:	687a      	ldr	r2, [r7, #4]
 800565c:	6852      	ldr	r2, [r2, #4]
 800565e:	605a      	str	r2, [r3, #4]

	/* Only used during decision coverage testing. */
	mtCOVERAGE_TEST_DELAY();

	/* Make sure the index is left pointing to a valid item. */
	if( pxList->pxIndex == pxItemToRemove )
 8005660:	68fb      	ldr	r3, [r7, #12]
 8005662:	685b      	ldr	r3, [r3, #4]
 8005664:	687a      	ldr	r2, [r7, #4]
 8005666:	429a      	cmp	r2, r3
 8005668:	d103      	bne.n	8005672 <uxListRemove+0x34>
	{
		pxList->pxIndex = pxItemToRemove->pxPrevious;
 800566a:	687b      	ldr	r3, [r7, #4]
 800566c:	689a      	ldr	r2, [r3, #8]
 800566e:	68fb      	ldr	r3, [r7, #12]
 8005670:	605a      	str	r2, [r3, #4]
	else
	{
		mtCOVERAGE_TEST_MARKER();
	}

	pxItemToRemove->pvContainer = NULL;
 8005672:	687b      	ldr	r3, [r7, #4]
 8005674:	2200      	movs	r2, #0
 8005676:	611a      	str	r2, [r3, #16]
	( pxList->uxNumberOfItems )--;
 8005678:	68fb      	ldr	r3, [r7, #12]
 800567a:	681b      	ldr	r3, [r3, #0]
 800567c:	1e5a      	subs	r2, r3, #1
 800567e:	68fb      	ldr	r3, [r7, #12]
 8005680:	601a      	str	r2, [r3, #0]

	return pxList->uxNumberOfItems;
 8005682:	68fb      	ldr	r3, [r7, #12]
 8005684:	681b      	ldr	r3, [r3, #0]
}
 8005686:	4618      	mov	r0, r3
 8005688:	3714      	adds	r7, #20
 800568a:	46bd      	mov	sp, r7
 800568c:	bc80      	pop	{r7}
 800568e:	4770      	bx	lr

08005690 <xQueueGenericReset>:
	}														\
	taskEXIT_CRITICAL()
/*-----------------------------------------------------------*/

BaseType_t xQueueGenericReset( QueueHandle_t xQueue, BaseType_t xNewQueue )
{
 8005690:	b580      	push	{r7, lr}
 8005692:	b084      	sub	sp, #16
 8005694:	af00      	add	r7, sp, #0
 8005696:	6078      	str	r0, [r7, #4]
 8005698:	6039      	str	r1, [r7, #0]
Queue_t * const pxQueue = ( Queue_t * ) xQueue;
 800569a:	687b      	ldr	r3, [r7, #4]
 800569c:	60fb      	str	r3, [r7, #12]

	configASSERT( pxQueue );
 800569e:	68fb      	ldr	r3, [r7, #12]
 80056a0:	2b00      	cmp	r3, #0
 80056a2:	d109      	bne.n	80056b8 <xQueueGenericReset+0x28>

portFORCE_INLINE static void vPortRaiseBASEPRI( void )
{
uint32_t ulNewBASEPRI;

	__asm volatile
 80056a4:	f04f 0350 	mov.w	r3, #80	; 0x50
 80056a8:	f383 8811 	msr	BASEPRI, r3
 80056ac:	f3bf 8f6f 	isb	sy
 80056b0:	f3bf 8f4f 	dsb	sy
 80056b4:	60bb      	str	r3, [r7, #8]
 80056b6:	e7fe      	b.n	80056b6 <xQueueGenericReset+0x26>

	taskENTER_CRITICAL();
 80056b8:	f001 f8e4 	bl	8006884 <vPortEnterCritical>
	{
		pxQueue->pcTail = pxQueue->pcHead + ( pxQueue->uxLength * pxQueue->uxItemSize );
 80056bc:	68fb      	ldr	r3, [r7, #12]
 80056be:	681a      	ldr	r2, [r3, #0]
 80056c0:	68fb      	ldr	r3, [r7, #12]
 80056c2:	6bdb      	ldr	r3, [r3, #60]	; 0x3c
 80056c4:	68f9      	ldr	r1, [r7, #12]
 80056c6:	6c09      	ldr	r1, [r1, #64]	; 0x40
 80056c8:	fb01 f303 	mul.w	r3, r1, r3
 80056cc:	441a      	add	r2, r3
 80056ce:	68fb      	ldr	r3, [r7, #12]
 80056d0:	605a      	str	r2, [r3, #4]
		pxQueue->uxMessagesWaiting = ( UBaseType_t ) 0U;
 80056d2:	68fb      	ldr	r3, [r7, #12]
 80056d4:	2200      	movs	r2, #0
 80056d6:	639a      	str	r2, [r3, #56]	; 0x38
		pxQueue->pcWriteTo = pxQueue->pcHead;
 80056d8:	68fb      	ldr	r3, [r7, #12]
 80056da:	681a      	ldr	r2, [r3, #0]
 80056dc:	68fb      	ldr	r3, [r7, #12]
 80056de:	609a      	str	r2, [r3, #8]
		pxQueue->u.pcReadFrom = pxQueue->pcHead + ( ( pxQueue->uxLength - ( UBaseType_t ) 1U ) * pxQueue->uxItemSize );
 80056e0:	68fb      	ldr	r3, [r7, #12]
 80056e2:	681a      	ldr	r2, [r3, #0]
 80056e4:	68fb      	ldr	r3, [r7, #12]
 80056e6:	6bdb      	ldr	r3, [r3, #60]	; 0x3c
 80056e8:	3b01      	subs	r3, #1
 80056ea:	68f9      	ldr	r1, [r7, #12]
 80056ec:	6c09      	ldr	r1, [r1, #64]	; 0x40
 80056ee:	fb01 f303 	mul.w	r3, r1, r3
 80056f2:	441a      	add	r2, r3
 80056f4:	68fb      	ldr	r3, [r7, #12]
 80056f6:	60da      	str	r2, [r3, #12]
		pxQueue->cRxLock = queueUNLOCKED;
 80056f8:	68fb      	ldr	r3, [r7, #12]
 80056fa:	22ff      	movs	r2, #255	; 0xff
 80056fc:	f883 2044 	strb.w	r2, [r3, #68]	; 0x44
		pxQueue->cTxLock = queueUNLOCKED;
 8005700:	68fb      	ldr	r3, [r7, #12]
 8005702:	22ff      	movs	r2, #255	; 0xff
 8005704:	f883 2045 	strb.w	r2, [r3, #69]	; 0x45

		if( xNewQueue == pdFALSE )
 8005708:	683b      	ldr	r3, [r7, #0]
 800570a:	2b00      	cmp	r3, #0
 800570c:	d114      	bne.n	8005738 <xQueueGenericReset+0xa8>
			/* If there are tasks blocked waiting to read from the queue, then
			the tasks will remain blocked as after this function exits the queue
			will still be empty.  If there are tasks blocked waiting to write to
			the queue, then one should be unblocked as after this function exits
			it will be possible to write to it. */
			if( listLIST_IS_EMPTY( &( pxQueue->xTasksWaitingToSend ) ) == pdFALSE )
 800570e:	68fb      	ldr	r3, [r7, #12]
 8005710:	691b      	ldr	r3, [r3, #16]
 8005712:	2b00      	cmp	r3, #0
 8005714:	d01a      	beq.n	800574c <xQueueGenericReset+0xbc>
			{
				if( xTaskRemoveFromEventList( &( pxQueue->xTasksWaitingToSend ) ) != pdFALSE )
 8005716:	68fb      	ldr	r3, [r7, #12]
 8005718:	3310      	adds	r3, #16
 800571a:	4618      	mov	r0, r3
 800571c:	f000 fdba 	bl	8006294 <xTaskRemoveFromEventList>
 8005720:	4603      	mov	r3, r0
 8005722:	2b00      	cmp	r3, #0
 8005724:	d012      	beq.n	800574c <xQueueGenericReset+0xbc>
				{
					queueYIELD_IF_USING_PREEMPTION();
 8005726:	4b0d      	ldr	r3, [pc, #52]	; (800575c <xQueueGenericReset+0xcc>)
 8005728:	f04f 5280 	mov.w	r2, #268435456	; 0x10000000
 800572c:	601a      	str	r2, [r3, #0]
 800572e:	f3bf 8f4f 	dsb	sy
 8005732:	f3bf 8f6f 	isb	sy
 8005736:	e009      	b.n	800574c <xQueueGenericReset+0xbc>
			}
		}
		else
		{
			/* Ensure the event queues start in the correct state. */
			vListInitialise( &( pxQueue->xTasksWaitingToSend ) );
 8005738:	68fb      	ldr	r3, [r7, #12]
 800573a:	3310      	adds	r3, #16
 800573c:	4618      	mov	r0, r3
 800573e:	f7ff fef8 	bl	8005532 <vListInitialise>
			vListInitialise( &( pxQueue->xTasksWaitingToReceive ) );
 8005742:	68fb      	ldr	r3, [r7, #12]
 8005744:	3324      	adds	r3, #36	; 0x24
 8005746:	4618      	mov	r0, r3
 8005748:	f7ff fef3 	bl	8005532 <vListInitialise>
		}
	}
	taskEXIT_CRITICAL();
 800574c:	f001 f8c8 	bl	80068e0 <vPortExitCritical>

	/* A value is returned for calling semantic consistency with previous
	versions. */
	return pdPASS;
 8005750:	2301      	movs	r3, #1
}
 8005752:	4618      	mov	r0, r3
 8005754:	3710      	adds	r7, #16
 8005756:	46bd      	mov	sp, r7
 8005758:	bd80      	pop	{r7, pc}
 800575a:	bf00      	nop
 800575c:	e000ed04 	.word	0xe000ed04

08005760 <xQueueGenericCreate>:
/*-----------------------------------------------------------*/

#if( configSUPPORT_DYNAMIC_ALLOCATION == 1 )

	QueueHandle_t xQueueGenericCreate( const UBaseType_t uxQueueLength, const UBaseType_t uxItemSize, const uint8_t ucQueueType )
	{
 8005760:	b580      	push	{r7, lr}
 8005762:	b08a      	sub	sp, #40	; 0x28
 8005764:	af02      	add	r7, sp, #8
 8005766:	60f8      	str	r0, [r7, #12]
 8005768:	60b9      	str	r1, [r7, #8]
 800576a:	4613      	mov	r3, r2
 800576c:	71fb      	strb	r3, [r7, #7]
	Queue_t *pxNewQueue;
	size_t xQueueSizeInBytes;
	uint8_t *pucQueueStorage;

		configASSERT( uxQueueLength > ( UBaseType_t ) 0 );
 800576e:	68fb      	ldr	r3, [r7, #12]
 8005770:	2b00      	cmp	r3, #0
 8005772:	d109      	bne.n	8005788 <xQueueGenericCreate+0x28>
 8005774:	f04f 0350 	mov.w	r3, #80	; 0x50
 8005778:	f383 8811 	msr	BASEPRI, r3
 800577c:	f3bf 8f6f 	isb	sy
 8005780:	f3bf 8f4f 	dsb	sy
 8005784:	613b      	str	r3, [r7, #16]
 8005786:	e7fe      	b.n	8005786 <xQueueGenericCreate+0x26>

		if( uxItemSize == ( UBaseType_t ) 0 )
 8005788:	68bb      	ldr	r3, [r7, #8]
 800578a:	2b00      	cmp	r3, #0
 800578c:	d102      	bne.n	8005794 <xQueueGenericCreate+0x34>
		{
			/* There is not going to be a queue storage area. */
			xQueueSizeInBytes = ( size_t ) 0;
 800578e:	2300      	movs	r3, #0
 8005790:	61fb      	str	r3, [r7, #28]
 8005792:	e004      	b.n	800579e <xQueueGenericCreate+0x3e>
		}
		else
		{
			/* Allocate enough space to hold the maximum number of items that
			can be in the queue at any time. */
			xQueueSizeInBytes = ( size_t ) ( uxQueueLength * uxItemSize ); /*lint !e961 MISRA exception as the casts are only redundant for some ports. */
 8005794:	68fb      	ldr	r3, [r7, #12]
 8005796:	68ba      	ldr	r2, [r7, #8]
 8005798:	fb02 f303 	mul.w	r3, r2, r3
 800579c:	61fb      	str	r3, [r7, #28]
		}

		pxNewQueue = ( Queue_t * ) pvPortMalloc( sizeof( Queue_t ) + xQueueSizeInBytes );
 800579e:	69fb      	ldr	r3, [r7, #28]
 80057a0:	3348      	adds	r3, #72	; 0x48
 80057a2:	4618      	mov	r0, r3
 80057a4:	f001 f932 	bl	8006a0c <pvPortMalloc>
 80057a8:	61b8      	str	r0, [r7, #24]

		if( pxNewQueue != NULL )
 80057aa:	69bb      	ldr	r3, [r7, #24]
 80057ac:	2b00      	cmp	r3, #0
 80057ae:	d00f      	beq.n	80057d0 <xQueueGenericCreate+0x70>
		{
			/* Jump past the queue structure to find the location of the queue
			storage area. */
			pucQueueStorage = ( ( uint8_t * ) pxNewQueue ) + sizeof( Queue_t );
 80057b0:	69bb      	ldr	r3, [r7, #24]
 80057b2:	3348      	adds	r3, #72	; 0x48
 80057b4:	617b      	str	r3, [r7, #20]
			#if( configSUPPORT_STATIC_ALLOCATION == 1 )
			{
				/* Queues can be created either statically or dynamically, so
				note this task was created dynamically in case it is later
				deleted. */
				pxNewQueue->ucStaticallyAllocated = pdFALSE;
 80057b6:	69bb      	ldr	r3, [r7, #24]
 80057b8:	2200      	movs	r2, #0
 80057ba:	f883 2046 	strb.w	r2, [r3, #70]	; 0x46
			}
			#endif /* configSUPPORT_STATIC_ALLOCATION */

			prvInitialiseNewQueue( uxQueueLength, uxItemSize, pucQueueStorage, ucQueueType, pxNewQueue );
 80057be:	79fa      	ldrb	r2, [r7, #7]
 80057c0:	69bb      	ldr	r3, [r7, #24]
 80057c2:	9300      	str	r3, [sp, #0]
 80057c4:	4613      	mov	r3, r2
 80057c6:	697a      	ldr	r2, [r7, #20]
 80057c8:	68b9      	ldr	r1, [r7, #8]
 80057ca:	68f8      	ldr	r0, [r7, #12]
 80057cc:	f000 f805 	bl	80057da <prvInitialiseNewQueue>
		else
		{
			traceQUEUE_CREATE_FAILED( ucQueueType );
		}

		return pxNewQueue;
 80057d0:	69bb      	ldr	r3, [r7, #24]
	}
 80057d2:	4618      	mov	r0, r3
 80057d4:	3720      	adds	r7, #32
 80057d6:	46bd      	mov	sp, r7
 80057d8:	bd80      	pop	{r7, pc}

080057da <prvInitialiseNewQueue>:

#endif /* configSUPPORT_STATIC_ALLOCATION */
/*-----------------------------------------------------------*/

static void prvInitialiseNewQueue( const UBaseType_t uxQueueLength, const UBaseType_t uxItemSize, uint8_t *pucQueueStorage, const uint8_t ucQueueType, Queue_t *pxNewQueue )
{
 80057da:	b580      	push	{r7, lr}
 80057dc:	b084      	sub	sp, #16
 80057de:	af00      	add	r7, sp, #0
 80057e0:	60f8      	str	r0, [r7, #12]
 80057e2:	60b9      	str	r1, [r7, #8]
 80057e4:	607a      	str	r2, [r7, #4]
 80057e6:	70fb      	strb	r3, [r7, #3]
	/* Remove compiler warnings about unused parameters should
	configUSE_TRACE_FACILITY not be set to 1. */
	( void ) ucQueueType;

	if( uxItemSize == ( UBaseType_t ) 0 )
 80057e8:	68bb      	ldr	r3, [r7, #8]
 80057ea:	2b00      	cmp	r3, #0
 80057ec:	d103      	bne.n	80057f6 <prvInitialiseNewQueue+0x1c>
	{
		/* No RAM was allocated for the queue storage area, but PC head cannot
		be set to NULL because NULL is used as a key to say the queue is used as
		a mutex.  Therefore just set pcHead to point to the queue as a benign
		value that is known to be within the memory map. */
		pxNewQueue->pcHead = ( int8_t * ) pxNewQueue;
 80057ee:	69bb      	ldr	r3, [r7, #24]
 80057f0:	69ba      	ldr	r2, [r7, #24]
 80057f2:	601a      	str	r2, [r3, #0]
 80057f4:	e002      	b.n	80057fc <prvInitialiseNewQueue+0x22>
	}
	else
	{
		/* Set the head to the start of the queue storage area. */
		pxNewQueue->pcHead = ( int8_t * ) pucQueueStorage;
 80057f6:	69bb      	ldr	r3, [r7, #24]
 80057f8:	687a      	ldr	r2, [r7, #4]
 80057fa:	601a      	str	r2, [r3, #0]
	}

	/* Initialise the queue members as described where the queue type is
	defined. */
	pxNewQueue->uxLength = uxQueueLength;
 80057fc:	69bb      	ldr	r3, [r7, #24]
 80057fe:	68fa      	ldr	r2, [r7, #12]
 8005800:	63da      	str	r2, [r3, #60]	; 0x3c
	pxNewQueue->uxItemSize = uxItemSize;
 8005802:	69bb      	ldr	r3, [r7, #24]
 8005804:	68ba      	ldr	r2, [r7, #8]
 8005806:	641a      	str	r2, [r3, #64]	; 0x40
	( void ) xQueueGenericReset( pxNewQueue, pdTRUE );
 8005808:	2101      	movs	r1, #1
 800580a:	69b8      	ldr	r0, [r7, #24]
 800580c:	f7ff ff40 	bl	8005690 <xQueueGenericReset>
	{
		pxNewQueue->pxQueueSetContainer = NULL;
	}
	#endif /* configUSE_QUEUE_SETS */

	traceQUEUE_CREATE( pxNewQueue );
 8005810:	78fb      	ldrb	r3, [r7, #3]
 8005812:	68ba      	ldr	r2, [r7, #8]
 8005814:	68f9      	ldr	r1, [r7, #12]
 8005816:	2073      	movs	r0, #115	; 0x73
 8005818:	f001 ffba 	bl	8007790 <SEGGER_SYSVIEW_RecordU32x3>
}
 800581c:	bf00      	nop
 800581e:	3710      	adds	r7, #16
 8005820:	46bd      	mov	sp, r7
 8005822:	bd80      	pop	{r7, pc}

08005824 <xTaskCreateStatic>:
									const uint32_t ulStackDepth,
									void * const pvParameters,
									UBaseType_t uxPriority,
									StackType_t * const puxStackBuffer,
									StaticTask_t * const pxTaskBuffer )
	{
 8005824:	b580      	push	{r7, lr}
 8005826:	b08e      	sub	sp, #56	; 0x38
 8005828:	af04      	add	r7, sp, #16
 800582a:	60f8      	str	r0, [r7, #12]
 800582c:	60b9      	str	r1, [r7, #8]
 800582e:	607a      	str	r2, [r7, #4]
 8005830:	603b      	str	r3, [r7, #0]
	TCB_t *pxNewTCB;
	TaskHandle_t xReturn;

		configASSERT( puxStackBuffer != NULL );
 8005832:	6b7b      	ldr	r3, [r7, #52]	; 0x34
 8005834:	2b00      	cmp	r3, #0
 8005836:	d109      	bne.n	800584c <xTaskCreateStatic+0x28>
 8005838:	f04f 0350 	mov.w	r3, #80	; 0x50
 800583c:	f383 8811 	msr	BASEPRI, r3
 8005840:	f3bf 8f6f 	isb	sy
 8005844:	f3bf 8f4f 	dsb	sy
 8005848:	623b      	str	r3, [r7, #32]
 800584a:	e7fe      	b.n	800584a <xTaskCreateStatic+0x26>
		configASSERT( pxTaskBuffer != NULL );
 800584c:	6bbb      	ldr	r3, [r7, #56]	; 0x38
 800584e:	2b00      	cmp	r3, #0
 8005850:	d109      	bne.n	8005866 <xTaskCreateStatic+0x42>
 8005852:	f04f 0350 	mov.w	r3, #80	; 0x50
 8005856:	f383 8811 	msr	BASEPRI, r3
 800585a:	f3bf 8f6f 	isb	sy
 800585e:	f3bf 8f4f 	dsb	sy
 8005862:	61fb      	str	r3, [r7, #28]
 8005864:	e7fe      	b.n	8005864 <xTaskCreateStatic+0x40>
		#if( configASSERT_DEFINED == 1 )
		{
			/* Sanity check that the size of the structure used to declare a
			variable of type StaticTask_t equals the size of the real task
			structure. */
			volatile size_t xSize = sizeof( StaticTask_t );
 8005866:	2354      	movs	r3, #84	; 0x54
 8005868:	613b      	str	r3, [r7, #16]
			configASSERT( xSize == sizeof( TCB_t ) );
 800586a:	693b      	ldr	r3, [r7, #16]
 800586c:	2b54      	cmp	r3, #84	; 0x54
 800586e:	d009      	beq.n	8005884 <xTaskCreateStatic+0x60>
 8005870:	f04f 0350 	mov.w	r3, #80	; 0x50
 8005874:	f383 8811 	msr	BASEPRI, r3
 8005878:	f3bf 8f6f 	isb	sy
 800587c:	f3bf 8f4f 	dsb	sy
 8005880:	61bb      	str	r3, [r7, #24]
 8005882:	e7fe      	b.n	8005882 <xTaskCreateStatic+0x5e>
		}
		#endif /* configASSERT_DEFINED */


		if( ( pxTaskBuffer != NULL ) && ( puxStackBuffer != NULL ) )
 8005884:	6bbb      	ldr	r3, [r7, #56]	; 0x38
 8005886:	2b00      	cmp	r3, #0
 8005888:	d01e      	beq.n	80058c8 <xTaskCreateStatic+0xa4>
 800588a:	6b7b      	ldr	r3, [r7, #52]	; 0x34
 800588c:	2b00      	cmp	r3, #0
 800588e:	d01b      	beq.n	80058c8 <xTaskCreateStatic+0xa4>
		{
			/* The memory used for the task's TCB and stack are passed into this
			function - use them. */
			pxNewTCB = ( TCB_t * ) pxTaskBuffer; /*lint !e740 Unusual cast is ok as the structures are designed to have the same alignment, and the size is checked by an assert. */
 8005890:	6bbb      	ldr	r3, [r7, #56]	; 0x38
 8005892:	627b      	str	r3, [r7, #36]	; 0x24
			pxNewTCB->pxStack = ( StackType_t * ) puxStackBuffer;
 8005894:	6a7b      	ldr	r3, [r7, #36]	; 0x24
 8005896:	6b7a      	ldr	r2, [r7, #52]	; 0x34
 8005898:	631a      	str	r2, [r3, #48]	; 0x30

			#if( tskSTATIC_AND_DYNAMIC_ALLOCATION_POSSIBLE != 0 ) /*lint !e731 Macro has been consolidated for readability reasons. */
			{
				/* Tasks can be created statically or dynamically, so note this
				task was created statically in case the task is later deleted. */
				pxNewTCB->ucStaticallyAllocated = tskSTATICALLY_ALLOCATED_STACK_AND_TCB;
 800589a:	6a7b      	ldr	r3, [r7, #36]	; 0x24
 800589c:	2202      	movs	r2, #2
 800589e:	f883 2051 	strb.w	r2, [r3, #81]	; 0x51
			}
			#endif /* configSUPPORT_DYNAMIC_ALLOCATION */

			prvInitialiseNewTask( pxTaskCode, pcName, ulStackDepth, pvParameters, uxPriority, &xReturn, pxNewTCB, NULL );
 80058a2:	2300      	movs	r3, #0
 80058a4:	9303      	str	r3, [sp, #12]
 80058a6:	6a7b      	ldr	r3, [r7, #36]	; 0x24
 80058a8:	9302      	str	r3, [sp, #8]
 80058aa:	f107 0314 	add.w	r3, r7, #20
 80058ae:	9301      	str	r3, [sp, #4]
 80058b0:	6b3b      	ldr	r3, [r7, #48]	; 0x30
 80058b2:	9300      	str	r3, [sp, #0]
 80058b4:	683b      	ldr	r3, [r7, #0]
 80058b6:	687a      	ldr	r2, [r7, #4]
 80058b8:	68b9      	ldr	r1, [r7, #8]
 80058ba:	68f8      	ldr	r0, [r7, #12]
 80058bc:	f000 f850 	bl	8005960 <prvInitialiseNewTask>
			prvAddNewTaskToReadyList( pxNewTCB );
 80058c0:	6a78      	ldr	r0, [r7, #36]	; 0x24
 80058c2:	f000 f8cb 	bl	8005a5c <prvAddNewTaskToReadyList>
 80058c6:	e001      	b.n	80058cc <xTaskCreateStatic+0xa8>
		}
		else
		{
			xReturn = NULL;
 80058c8:	2300      	movs	r3, #0
 80058ca:	617b      	str	r3, [r7, #20]
		}

		return xReturn;
 80058cc:	697b      	ldr	r3, [r7, #20]
	}
 80058ce:	4618      	mov	r0, r3
 80058d0:	3728      	adds	r7, #40	; 0x28
 80058d2:	46bd      	mov	sp, r7
 80058d4:	bd80      	pop	{r7, pc}

080058d6 <xTaskCreate>:
							const char * const pcName,		/*lint !e971 Unqualified char types are allowed for strings and single characters only. */
							const configSTACK_DEPTH_TYPE usStackDepth,
							void * const pvParameters,
							UBaseType_t uxPriority,
							TaskHandle_t * const pxCreatedTask )
	{
 80058d6:	b580      	push	{r7, lr}
 80058d8:	b08c      	sub	sp, #48	; 0x30
 80058da:	af04      	add	r7, sp, #16
 80058dc:	60f8      	str	r0, [r7, #12]
 80058de:	60b9      	str	r1, [r7, #8]
 80058e0:	603b      	str	r3, [r7, #0]
 80058e2:	4613      	mov	r3, r2
 80058e4:	80fb      	strh	r3, [r7, #6]
		#else /* portSTACK_GROWTH */
		{
		StackType_t *pxStack;

			/* Allocate space for the stack used by the task being created. */
			pxStack = ( StackType_t * ) pvPortMalloc( ( ( ( size_t ) usStackDepth ) * sizeof( StackType_t ) ) ); /*lint !e961 MISRA exception as the casts are only redundant for some ports. */
 80058e6:	88fb      	ldrh	r3, [r7, #6]
 80058e8:	009b      	lsls	r3, r3, #2
 80058ea:	4618      	mov	r0, r3
 80058ec:	f001 f88e 	bl	8006a0c <pvPortMalloc>
 80058f0:	6178      	str	r0, [r7, #20]

			if( pxStack != NULL )
 80058f2:	697b      	ldr	r3, [r7, #20]
 80058f4:	2b00      	cmp	r3, #0
 80058f6:	d00e      	beq.n	8005916 <xTaskCreate+0x40>
			{
				/* Allocate space for the TCB. */
				pxNewTCB = ( TCB_t * ) pvPortMalloc( sizeof( TCB_t ) ); /*lint !e961 MISRA exception as the casts are only redundant for some paths. */
 80058f8:	2054      	movs	r0, #84	; 0x54
 80058fa:	f001 f887 	bl	8006a0c <pvPortMalloc>
 80058fe:	61f8      	str	r0, [r7, #28]

				if( pxNewTCB != NULL )
 8005900:	69fb      	ldr	r3, [r7, #28]
 8005902:	2b00      	cmp	r3, #0
 8005904:	d003      	beq.n	800590e <xTaskCreate+0x38>
				{
					/* Store the stack location in the TCB. */
					pxNewTCB->pxStack = pxStack;
 8005906:	69fb      	ldr	r3, [r7, #28]
 8005908:	697a      	ldr	r2, [r7, #20]
 800590a:	631a      	str	r2, [r3, #48]	; 0x30
 800590c:	e005      	b.n	800591a <xTaskCreate+0x44>
				}
				else
				{
					/* The stack cannot be used as the TCB was not created.  Free
					it again. */
					vPortFree( pxStack );
 800590e:	6978      	ldr	r0, [r7, #20]
 8005910:	f001 f93e 	bl	8006b90 <vPortFree>
 8005914:	e001      	b.n	800591a <xTaskCreate+0x44>
				}
			}
			else
			{
				pxNewTCB = NULL;
 8005916:	2300      	movs	r3, #0
 8005918:	61fb      	str	r3, [r7, #28]
			}
		}
		#endif /* portSTACK_GROWTH */

		if( pxNewTCB != NULL )
 800591a:	69fb      	ldr	r3, [r7, #28]
 800591c:	2b00      	cmp	r3, #0
 800591e:	d017      	beq.n	8005950 <xTaskCreate+0x7a>
		{
			#if( tskSTATIC_AND_DYNAMIC_ALLOCATION_POSSIBLE != 0 ) /*lint !e731 Macro has been consolidated for readability reasons. */
			{
				/* Tasks can be created statically or dynamically, so note this
				task was created dynamically in case it is later deleted. */
				pxNewTCB->ucStaticallyAllocated = tskDYNAMICALLY_ALLOCATED_STACK_AND_TCB;
 8005920:	69fb      	ldr	r3, [r7, #28]
 8005922:	2200      	movs	r2, #0
 8005924:	f883 2051 	strb.w	r2, [r3, #81]	; 0x51
			}
			#endif /* configSUPPORT_STATIC_ALLOCATION */

			prvInitialiseNewTask( pxTaskCode, pcName, ( uint32_t ) usStackDepth, pvParameters, uxPriority, pxCreatedTask, pxNewTCB, NULL );
 8005928:	88fa      	ldrh	r2, [r7, #6]
 800592a:	2300      	movs	r3, #0
 800592c:	9303      	str	r3, [sp, #12]
 800592e:	69fb      	ldr	r3, [r7, #28]
 8005930:	9302      	str	r3, [sp, #8]
 8005932:	6afb      	ldr	r3, [r7, #44]	; 0x2c
 8005934:	9301      	str	r3, [sp, #4]
 8005936:	6abb      	ldr	r3, [r7, #40]	; 0x28
 8005938:	9300      	str	r3, [sp, #0]
 800593a:	683b      	ldr	r3, [r7, #0]
 800593c:	68b9      	ldr	r1, [r7, #8]
 800593e:	68f8      	ldr	r0, [r7, #12]
 8005940:	f000 f80e 	bl	8005960 <prvInitialiseNewTask>
			prvAddNewTaskToReadyList( pxNewTCB );
 8005944:	69f8      	ldr	r0, [r7, #28]
 8005946:	f000 f889 	bl	8005a5c <prvAddNewTaskToReadyList>
			xReturn = pdPASS;
 800594a:	2301      	movs	r3, #1
 800594c:	61bb      	str	r3, [r7, #24]
 800594e:	e002      	b.n	8005956 <xTaskCreate+0x80>
		}
		else
		{
			xReturn = errCOULD_NOT_ALLOCATE_REQUIRED_MEMORY;
 8005950:	f04f 33ff 	mov.w	r3, #4294967295
 8005954:	61bb      	str	r3, [r7, #24]
		}

		return xReturn;
 8005956:	69bb      	ldr	r3, [r7, #24]
	}
 8005958:	4618      	mov	r0, r3
 800595a:	3720      	adds	r7, #32
 800595c:	46bd      	mov	sp, r7
 800595e:	bd80      	pop	{r7, pc}

08005960 <prvInitialiseNewTask>:
									void * const pvParameters,
									UBaseType_t uxPriority,
									TaskHandle_t * const pxCreatedTask,
									TCB_t *pxNewTCB,
									const MemoryRegion_t * const xRegions )
{
 8005960:	b580      	push	{r7, lr}
 8005962:	b088      	sub	sp, #32
 8005964:	af00      	add	r7, sp, #0
 8005966:	60f8      	str	r0, [r7, #12]
 8005968:	60b9      	str	r1, [r7, #8]
 800596a:	607a      	str	r2, [r7, #4]
 800596c:	603b      	str	r3, [r7, #0]
	grows from high memory to low (as per the 80x86) or vice versa.
	portSTACK_GROWTH is used to make the result positive or negative as required
	by the port. */
	#if( portSTACK_GROWTH < 0 )
	{
		pxTopOfStack = pxNewTCB->pxStack + ( ulStackDepth - ( uint32_t ) 1 );
 800596e:	6b3b      	ldr	r3, [r7, #48]	; 0x30
 8005970:	6b1a      	ldr	r2, [r3, #48]	; 0x30
 8005972:	687b      	ldr	r3, [r7, #4]
 8005974:	f103 4380 	add.w	r3, r3, #1073741824	; 0x40000000
 8005978:	3b01      	subs	r3, #1
 800597a:	009b      	lsls	r3, r3, #2
 800597c:	4413      	add	r3, r2
 800597e:	61bb      	str	r3, [r7, #24]
		pxTopOfStack = ( StackType_t * ) ( ( ( portPOINTER_SIZE_TYPE ) pxTopOfStack ) & ( ~( ( portPOINTER_SIZE_TYPE ) portBYTE_ALIGNMENT_MASK ) ) ); /*lint !e923 MISRA exception.  Avoiding casts between pointers and integers is not practical.  Size differences accounted for using portPOINTER_SIZE_TYPE type. */
 8005980:	69bb      	ldr	r3, [r7, #24]
 8005982:	f023 0307 	bic.w	r3, r3, #7
 8005986:	61bb      	str	r3, [r7, #24]

		/* Check the alignment of the calculated top of stack is correct. */
		configASSERT( ( ( ( portPOINTER_SIZE_TYPE ) pxTopOfStack & ( portPOINTER_SIZE_TYPE ) portBYTE_ALIGNMENT_MASK ) == 0UL ) );
 8005988:	69bb      	ldr	r3, [r7, #24]
 800598a:	f003 0307 	and.w	r3, r3, #7
 800598e:	2b00      	cmp	r3, #0
 8005990:	d009      	beq.n	80059a6 <prvInitialiseNewTask+0x46>
 8005992:	f04f 0350 	mov.w	r3, #80	; 0x50
 8005996:	f383 8811 	msr	BASEPRI, r3
 800599a:	f3bf 8f6f 	isb	sy
 800599e:	f3bf 8f4f 	dsb	sy
 80059a2:	617b      	str	r3, [r7, #20]
 80059a4:	e7fe      	b.n	80059a4 <prvInitialiseNewTask+0x44>
		pxNewTCB->pxEndOfStack = pxNewTCB->pxStack + ( ulStackDepth - ( uint32_t ) 1 );
	}
	#endif /* portSTACK_GROWTH */

	/* Store the task name in the TCB. */
	for( x = ( UBaseType_t ) 0; x < ( UBaseType_t ) configMAX_TASK_NAME_LEN; x++ )
 80059a6:	2300      	movs	r3, #0
 80059a8:	61fb      	str	r3, [r7, #28]
 80059aa:	e012      	b.n	80059d2 <prvInitialiseNewTask+0x72>
	{
		pxNewTCB->pcTaskName[ x ] = pcName[ x ];
 80059ac:	68ba      	ldr	r2, [r7, #8]
 80059ae:	69fb      	ldr	r3, [r7, #28]
 80059b0:	4413      	add	r3, r2
 80059b2:	7819      	ldrb	r1, [r3, #0]
 80059b4:	6b3a      	ldr	r2, [r7, #48]	; 0x30
 80059b6:	69fb      	ldr	r3, [r7, #28]
 80059b8:	4413      	add	r3, r2
 80059ba:	3334      	adds	r3, #52	; 0x34
 80059bc:	460a      	mov	r2, r1
 80059be:	701a      	strb	r2, [r3, #0]

		/* Don't copy all configMAX_TASK_NAME_LEN if the string is shorter than
		configMAX_TASK_NAME_LEN characters just in case the memory after the
		string is not accessible (extremely unlikely). */
		if( pcName[ x ] == 0x00 )
 80059c0:	68ba      	ldr	r2, [r7, #8]
 80059c2:	69fb      	ldr	r3, [r7, #28]
 80059c4:	4413      	add	r3, r2
 80059c6:	781b      	ldrb	r3, [r3, #0]
 80059c8:	2b00      	cmp	r3, #0
 80059ca:	d006      	beq.n	80059da <prvInitialiseNewTask+0x7a>
	for( x = ( UBaseType_t ) 0; x < ( UBaseType_t ) configMAX_TASK_NAME_LEN; x++ )
 80059cc:	69fb      	ldr	r3, [r7, #28]
 80059ce:	3301      	adds	r3, #1
 80059d0:	61fb      	str	r3, [r7, #28]
 80059d2:	69fb      	ldr	r3, [r7, #28]
 80059d4:	2b0f      	cmp	r3, #15
 80059d6:	d9e9      	bls.n	80059ac <prvInitialiseNewTask+0x4c>
 80059d8:	e000      	b.n	80059dc <prvInitialiseNewTask+0x7c>
		{
			break;
 80059da:	bf00      	nop
		}
	}

	/* Ensure the name string is terminated in the case that the string length
	was greater or equal to configMAX_TASK_NAME_LEN. */
	pxNewTCB->pcTaskName[ configMAX_TASK_NAME_LEN - 1 ] = '\0';
 80059dc:	6b3b      	ldr	r3, [r7, #48]	; 0x30
 80059de:	2200      	movs	r2, #0
 80059e0:	f883 2043 	strb.w	r2, [r3, #67]	; 0x43

	/* This is used as an array index so must ensure it's not too large.  First
	remove the privilege bit if one is present. */
	if( uxPriority >= ( UBaseType_t ) configMAX_PRIORITIES )
 80059e4:	6abb      	ldr	r3, [r7, #40]	; 0x28
 80059e6:	2b06      	cmp	r3, #6
 80059e8:	d901      	bls.n	80059ee <prvInitialiseNewTask+0x8e>
	{
		uxPriority = ( UBaseType_t ) configMAX_PRIORITIES - ( UBaseType_t ) 1U;
 80059ea:	2306      	movs	r3, #6
 80059ec:	62bb      	str	r3, [r7, #40]	; 0x28
	else
	{
		mtCOVERAGE_TEST_MARKER();
	}

	pxNewTCB->uxPriority = uxPriority;
 80059ee:	6b3b      	ldr	r3, [r7, #48]	; 0x30
 80059f0:	6aba      	ldr	r2, [r7, #40]	; 0x28
 80059f2:	62da      	str	r2, [r3, #44]	; 0x2c
	#if ( configUSE_MUTEXES == 1 )
	{
		pxNewTCB->uxBasePriority = uxPriority;
 80059f4:	6b3b      	ldr	r3, [r7, #48]	; 0x30
 80059f6:	6aba      	ldr	r2, [r7, #40]	; 0x28
 80059f8:	645a      	str	r2, [r3, #68]	; 0x44
		pxNewTCB->uxMutexesHeld = 0;
 80059fa:	6b3b      	ldr	r3, [r7, #48]	; 0x30
 80059fc:	2200      	movs	r2, #0
 80059fe:	649a      	str	r2, [r3, #72]	; 0x48
	}
	#endif /* configUSE_MUTEXES */

	vListInitialiseItem( &( pxNewTCB->xStateListItem ) );
 8005a00:	6b3b      	ldr	r3, [r7, #48]	; 0x30
 8005a02:	3304      	adds	r3, #4
 8005a04:	4618      	mov	r0, r3
 8005a06:	f7ff fdb3 	bl	8005570 <vListInitialiseItem>
	vListInitialiseItem( &( pxNewTCB->xEventListItem ) );
 8005a0a:	6b3b      	ldr	r3, [r7, #48]	; 0x30
 8005a0c:	3318      	adds	r3, #24
 8005a0e:	4618      	mov	r0, r3
 8005a10:	f7ff fdae 	bl	8005570 <vListInitialiseItem>

	/* Set the pxNewTCB as a link back from the ListItem_t.  This is so we can get
	back to	the containing TCB from a generic item in a list. */
	listSET_LIST_ITEM_OWNER( &( pxNewTCB->xStateListItem ), pxNewTCB );
 8005a14:	6b3b      	ldr	r3, [r7, #48]	; 0x30
 8005a16:	6b3a      	ldr	r2, [r7, #48]	; 0x30
 8005a18:	611a      	str	r2, [r3, #16]

	/* Event lists are always in priority order. */
	listSET_LIST_ITEM_VALUE( &( pxNewTCB->xEventListItem ), ( TickType_t ) configMAX_PRIORITIES - ( TickType_t ) uxPriority ); /*lint !e961 MISRA exception as the casts are only redundant for some ports. */
 8005a1a:	6abb      	ldr	r3, [r7, #40]	; 0x28
 8005a1c:	f1c3 0207 	rsb	r2, r3, #7
 8005a20:	6b3b      	ldr	r3, [r7, #48]	; 0x30
 8005a22:	619a      	str	r2, [r3, #24]
	listSET_LIST_ITEM_OWNER( &( pxNewTCB->xEventListItem ), pxNewTCB );
 8005a24:	6b3b      	ldr	r3, [r7, #48]	; 0x30
 8005a26:	6b3a      	ldr	r2, [r7, #48]	; 0x30
 8005a28:	625a      	str	r2, [r3, #36]	; 0x24
	}
	#endif

	#if ( configUSE_TASK_NOTIFICATIONS == 1 )
	{
		pxNewTCB->ulNotifiedValue = 0;
 8005a2a:	6b3b      	ldr	r3, [r7, #48]	; 0x30
 8005a2c:	2200      	movs	r2, #0
 8005a2e:	64da      	str	r2, [r3, #76]	; 0x4c
		pxNewTCB->ucNotifyState = taskNOT_WAITING_NOTIFICATION;
 8005a30:	6b3b      	ldr	r3, [r7, #48]	; 0x30
 8005a32:	2200      	movs	r2, #0
 8005a34:	f883 2050 	strb.w	r2, [r3, #80]	; 0x50
	{
		pxNewTCB->pxTopOfStack = pxPortInitialiseStack( pxTopOfStack, pxTaskCode, pvParameters, xRunPrivileged );
	}
	#else /* portUSING_MPU_WRAPPERS */
	{
		pxNewTCB->pxTopOfStack = pxPortInitialiseStack( pxTopOfStack, pxTaskCode, pvParameters );
 8005a38:	683a      	ldr	r2, [r7, #0]
 8005a3a:	68f9      	ldr	r1, [r7, #12]
 8005a3c:	69b8      	ldr	r0, [r7, #24]
 8005a3e:	f000 fddd 	bl	80065fc <pxPortInitialiseStack>
 8005a42:	4602      	mov	r2, r0
 8005a44:	6b3b      	ldr	r3, [r7, #48]	; 0x30
 8005a46:	601a      	str	r2, [r3, #0]
	}
	#endif /* portUSING_MPU_WRAPPERS */

	if( ( void * ) pxCreatedTask != NULL )
 8005a48:	6afb      	ldr	r3, [r7, #44]	; 0x2c
 8005a4a:	2b00      	cmp	r3, #0
 8005a4c:	d002      	beq.n	8005a54 <prvInitialiseNewTask+0xf4>
	{
		/* Pass the handle out in an anonymous way.  The handle can be used to
		change the created task's priority, delete the created task, etc.*/
		*pxCreatedTask = ( TaskHandle_t ) pxNewTCB;
 8005a4e:	6afb      	ldr	r3, [r7, #44]	; 0x2c
 8005a50:	6b3a      	ldr	r2, [r7, #48]	; 0x30
 8005a52:	601a      	str	r2, [r3, #0]
	}
	else
	{
		mtCOVERAGE_TEST_MARKER();
	}
}
 8005a54:	bf00      	nop
 8005a56:	3720      	adds	r7, #32
 8005a58:	46bd      	mov	sp, r7
 8005a5a:	bd80      	pop	{r7, pc}

08005a5c <prvAddNewTaskToReadyList>:
/*-----------------------------------------------------------*/

static void prvAddNewTaskToReadyList( TCB_t *pxNewTCB )
{
 8005a5c:	b5b0      	push	{r4, r5, r7, lr}
 8005a5e:	b084      	sub	sp, #16
 8005a60:	af02      	add	r7, sp, #8
 8005a62:	6078      	str	r0, [r7, #4]
	/* Ensure interrupts don't access the task lists while the lists are being
	updated. */
	taskENTER_CRITICAL();
 8005a64:	f000 ff0e 	bl	8006884 <vPortEnterCritical>
	{
		uxCurrentNumberOfTasks++;
 8005a68:	4b39      	ldr	r3, [pc, #228]	; (8005b50 <prvAddNewTaskToReadyList+0xf4>)
 8005a6a:	681b      	ldr	r3, [r3, #0]
 8005a6c:	3301      	adds	r3, #1
 8005a6e:	4a38      	ldr	r2, [pc, #224]	; (8005b50 <prvAddNewTaskToReadyList+0xf4>)
 8005a70:	6013      	str	r3, [r2, #0]
		if( pxCurrentTCB == NULL )
 8005a72:	4b38      	ldr	r3, [pc, #224]	; (8005b54 <prvAddNewTaskToReadyList+0xf8>)
 8005a74:	681b      	ldr	r3, [r3, #0]
 8005a76:	2b00      	cmp	r3, #0
 8005a78:	d109      	bne.n	8005a8e <prvAddNewTaskToReadyList+0x32>
		{
			/* There are no other tasks, or all the other tasks are in
			the suspended state - make this the current task. */
			pxCurrentTCB = pxNewTCB;
 8005a7a:	4a36      	ldr	r2, [pc, #216]	; (8005b54 <prvAddNewTaskToReadyList+0xf8>)
 8005a7c:	687b      	ldr	r3, [r7, #4]
 8005a7e:	6013      	str	r3, [r2, #0]

			if( uxCurrentNumberOfTasks == ( UBaseType_t ) 1 )
 8005a80:	4b33      	ldr	r3, [pc, #204]	; (8005b50 <prvAddNewTaskToReadyList+0xf4>)
 8005a82:	681b      	ldr	r3, [r3, #0]
 8005a84:	2b01      	cmp	r3, #1
 8005a86:	d110      	bne.n	8005aaa <prvAddNewTaskToReadyList+0x4e>
			{
				/* This is the first task to be created so do the preliminary
				initialisation required.  We will not recover if this call
				fails, but we will report the failure. */
				prvInitialiseTaskLists();
 8005a88:	f000 fc82 	bl	8006390 <prvInitialiseTaskLists>
 8005a8c:	e00d      	b.n	8005aaa <prvAddNewTaskToReadyList+0x4e>
		else
		{
			/* If the scheduler is not already running, make this task the
			current task if it is the highest priority task to be created
			so far. */
			if( xSchedulerRunning == pdFALSE )
 8005a8e:	4b32      	ldr	r3, [pc, #200]	; (8005b58 <prvAddNewTaskToReadyList+0xfc>)
 8005a90:	681b      	ldr	r3, [r3, #0]
 8005a92:	2b00      	cmp	r3, #0
 8005a94:	d109      	bne.n	8005aaa <prvAddNewTaskToReadyList+0x4e>
			{
				if( pxCurrentTCB->uxPriority <= pxNewTCB->uxPriority )
 8005a96:	4b2f      	ldr	r3, [pc, #188]	; (8005b54 <prvAddNewTaskToReadyList+0xf8>)
 8005a98:	681b      	ldr	r3, [r3, #0]
 8005a9a:	6ada      	ldr	r2, [r3, #44]	; 0x2c
 8005a9c:	687b      	ldr	r3, [r7, #4]
 8005a9e:	6adb      	ldr	r3, [r3, #44]	; 0x2c
 8005aa0:	429a      	cmp	r2, r3
 8005aa2:	d802      	bhi.n	8005aaa <prvAddNewTaskToReadyList+0x4e>
				{
					pxCurrentTCB = pxNewTCB;
 8005aa4:	4a2b      	ldr	r2, [pc, #172]	; (8005b54 <prvAddNewTaskToReadyList+0xf8>)
 8005aa6:	687b      	ldr	r3, [r7, #4]
 8005aa8:	6013      	str	r3, [r2, #0]
			{
				mtCOVERAGE_TEST_MARKER();
			}
		}

		uxTaskNumber++;
 8005aaa:	4b2c      	ldr	r3, [pc, #176]	; (8005b5c <prvAddNewTaskToReadyList+0x100>)
 8005aac:	681b      	ldr	r3, [r3, #0]
 8005aae:	3301      	adds	r3, #1
 8005ab0:	4a2a      	ldr	r2, [pc, #168]	; (8005b5c <prvAddNewTaskToReadyList+0x100>)
 8005ab2:	6013      	str	r3, [r2, #0]
		{
			/* Add a counter into the TCB for tracing only. */
			pxNewTCB->uxTCBNumber = uxTaskNumber;
		}
		#endif /* configUSE_TRACE_FACILITY */
		traceTASK_CREATE( pxNewTCB );
 8005ab4:	687b      	ldr	r3, [r7, #4]
 8005ab6:	2b00      	cmp	r3, #0
 8005ab8:	d016      	beq.n	8005ae8 <prvAddNewTaskToReadyList+0x8c>
 8005aba:	687b      	ldr	r3, [r7, #4]
 8005abc:	4618      	mov	r0, r3
 8005abe:	f002 fa15 	bl	8007eec <SEGGER_SYSVIEW_OnTaskCreate>
 8005ac2:	6878      	ldr	r0, [r7, #4]
 8005ac4:	687b      	ldr	r3, [r7, #4]
 8005ac6:	f103 0134 	add.w	r1, r3, #52	; 0x34
 8005aca:	687b      	ldr	r3, [r7, #4]
 8005acc:	6ada      	ldr	r2, [r3, #44]	; 0x2c
 8005ace:	687b      	ldr	r3, [r7, #4]
 8005ad0:	6b1b      	ldr	r3, [r3, #48]	; 0x30
 8005ad2:	461d      	mov	r5, r3
 8005ad4:	687b      	ldr	r3, [r7, #4]
 8005ad6:	681b      	ldr	r3, [r3, #0]
 8005ad8:	461c      	mov	r4, r3
 8005ada:	687b      	ldr	r3, [r7, #4]
 8005adc:	6b1b      	ldr	r3, [r3, #48]	; 0x30
 8005ade:	1ae3      	subs	r3, r4, r3
 8005ae0:	9300      	str	r3, [sp, #0]
 8005ae2:	462b      	mov	r3, r5
 8005ae4:	f001 f966 	bl	8006db4 <SYSVIEW_AddTask>

		prvAddTaskToReadyList( pxNewTCB );
 8005ae8:	687b      	ldr	r3, [r7, #4]
 8005aea:	4618      	mov	r0, r3
 8005aec:	f002 fa82 	bl	8007ff4 <SEGGER_SYSVIEW_OnTaskStartReady>
 8005af0:	687b      	ldr	r3, [r7, #4]
 8005af2:	6adb      	ldr	r3, [r3, #44]	; 0x2c
 8005af4:	2201      	movs	r2, #1
 8005af6:	409a      	lsls	r2, r3
 8005af8:	4b19      	ldr	r3, [pc, #100]	; (8005b60 <prvAddNewTaskToReadyList+0x104>)
 8005afa:	681b      	ldr	r3, [r3, #0]
 8005afc:	4313      	orrs	r3, r2
 8005afe:	4a18      	ldr	r2, [pc, #96]	; (8005b60 <prvAddNewTaskToReadyList+0x104>)
 8005b00:	6013      	str	r3, [r2, #0]
 8005b02:	687b      	ldr	r3, [r7, #4]
 8005b04:	6ada      	ldr	r2, [r3, #44]	; 0x2c
 8005b06:	4613      	mov	r3, r2
 8005b08:	009b      	lsls	r3, r3, #2
 8005b0a:	4413      	add	r3, r2
 8005b0c:	009b      	lsls	r3, r3, #2
 8005b0e:	4a15      	ldr	r2, [pc, #84]	; (8005b64 <prvAddNewTaskToReadyList+0x108>)
 8005b10:	441a      	add	r2, r3
 8005b12:	687b      	ldr	r3, [r7, #4]
 8005b14:	3304      	adds	r3, #4
 8005b16:	4619      	mov	r1, r3
 8005b18:	4610      	mov	r0, r2
 8005b1a:	f7ff fd35 	bl	8005588 <vListInsertEnd>

		portSETUP_TCB( pxNewTCB );
	}
	taskEXIT_CRITICAL();
 8005b1e:	f000 fedf 	bl	80068e0 <vPortExitCritical>

	if( xSchedulerRunning != pdFALSE )
 8005b22:	4b0d      	ldr	r3, [pc, #52]	; (8005b58 <prvAddNewTaskToReadyList+0xfc>)
 8005b24:	681b      	ldr	r3, [r3, #0]
 8005b26:	2b00      	cmp	r3, #0
 8005b28:	d00e      	beq.n	8005b48 <prvAddNewTaskToReadyList+0xec>
	{
		/* If the created task is of a higher priority than the current task
		then it should run now. */
		if( pxCurrentTCB->uxPriority < pxNewTCB->uxPriority )
 8005b2a:	4b0a      	ldr	r3, [pc, #40]	; (8005b54 <prvAddNewTaskToReadyList+0xf8>)
 8005b2c:	681b      	ldr	r3, [r3, #0]
 8005b2e:	6ada      	ldr	r2, [r3, #44]	; 0x2c
 8005b30:	687b      	ldr	r3, [r7, #4]
 8005b32:	6adb      	ldr	r3, [r3, #44]	; 0x2c
 8005b34:	429a      	cmp	r2, r3
 8005b36:	d207      	bcs.n	8005b48 <prvAddNewTaskToReadyList+0xec>
		{
			taskYIELD_IF_USING_PREEMPTION();
 8005b38:	4b0b      	ldr	r3, [pc, #44]	; (8005b68 <prvAddNewTaskToReadyList+0x10c>)
 8005b3a:	f04f 5280 	mov.w	r2, #268435456	; 0x10000000
 8005b3e:	601a      	str	r2, [r3, #0]
 8005b40:	f3bf 8f4f 	dsb	sy
 8005b44:	f3bf 8f6f 	isb	sy
	}
	else
	{
		mtCOVERAGE_TEST_MARKER();
	}
}
 8005b48:	bf00      	nop
 8005b4a:	3708      	adds	r7, #8
 8005b4c:	46bd      	mov	sp, r7
 8005b4e:	bdb0      	pop	{r4, r5, r7, pc}
 8005b50:	2000038c 	.word	0x2000038c
 8005b54:	2000028c 	.word	0x2000028c
 8005b58:	20000398 	.word	0x20000398
 8005b5c:	200003a8 	.word	0x200003a8
 8005b60:	20000394 	.word	0x20000394
 8005b64:	20000290 	.word	0x20000290
 8005b68:	e000ed04 	.word	0xe000ed04

08005b6c <vTaskDelete>:
/*-----------------------------------------------------------*/

#if ( INCLUDE_vTaskDelete == 1 )

	void vTaskDelete( TaskHandle_t xTaskToDelete )
	{
 8005b6c:	b580      	push	{r7, lr}
 8005b6e:	b084      	sub	sp, #16
 8005b70:	af00      	add	r7, sp, #0
 8005b72:	6078      	str	r0, [r7, #4]
	TCB_t *pxTCB;

		taskENTER_CRITICAL();
 8005b74:	f000 fe86 	bl	8006884 <vPortEnterCritical>
		{
			/* If null is passed in here then it is the calling task that is
			being deleted. */
			pxTCB = prvGetTCBFromHandle( xTaskToDelete );
 8005b78:	687b      	ldr	r3, [r7, #4]
 8005b7a:	2b00      	cmp	r3, #0
 8005b7c:	d102      	bne.n	8005b84 <vTaskDelete+0x18>
 8005b7e:	4b3f      	ldr	r3, [pc, #252]	; (8005c7c <vTaskDelete+0x110>)
 8005b80:	681b      	ldr	r3, [r3, #0]
 8005b82:	e000      	b.n	8005b86 <vTaskDelete+0x1a>
 8005b84:	687b      	ldr	r3, [r7, #4]
 8005b86:	60fb      	str	r3, [r7, #12]

			/* Remove task from the ready list. */
			if( uxListRemove( &( pxTCB->xStateListItem ) ) == ( UBaseType_t ) 0 )
 8005b88:	68fb      	ldr	r3, [r7, #12]
 8005b8a:	3304      	adds	r3, #4
 8005b8c:	4618      	mov	r0, r3
 8005b8e:	f7ff fd56 	bl	800563e <uxListRemove>
 8005b92:	4603      	mov	r3, r0
 8005b94:	2b00      	cmp	r3, #0
 8005b96:	d115      	bne.n	8005bc4 <vTaskDelete+0x58>
			{
				taskRESET_READY_PRIORITY( pxTCB->uxPriority );
 8005b98:	68fb      	ldr	r3, [r7, #12]
 8005b9a:	6ada      	ldr	r2, [r3, #44]	; 0x2c
 8005b9c:	4938      	ldr	r1, [pc, #224]	; (8005c80 <vTaskDelete+0x114>)
 8005b9e:	4613      	mov	r3, r2
 8005ba0:	009b      	lsls	r3, r3, #2
 8005ba2:	4413      	add	r3, r2
 8005ba4:	009b      	lsls	r3, r3, #2
 8005ba6:	440b      	add	r3, r1
 8005ba8:	681b      	ldr	r3, [r3, #0]
 8005baa:	2b00      	cmp	r3, #0
 8005bac:	d10a      	bne.n	8005bc4 <vTaskDelete+0x58>
 8005bae:	68fb      	ldr	r3, [r7, #12]
 8005bb0:	6adb      	ldr	r3, [r3, #44]	; 0x2c
 8005bb2:	2201      	movs	r2, #1
 8005bb4:	fa02 f303 	lsl.w	r3, r2, r3
 8005bb8:	43da      	mvns	r2, r3
 8005bba:	4b32      	ldr	r3, [pc, #200]	; (8005c84 <vTaskDelete+0x118>)
 8005bbc:	681b      	ldr	r3, [r3, #0]
 8005bbe:	4013      	ands	r3, r2
 8005bc0:	4a30      	ldr	r2, [pc, #192]	; (8005c84 <vTaskDelete+0x118>)
 8005bc2:	6013      	str	r3, [r2, #0]
			{
				mtCOVERAGE_TEST_MARKER();
			}

			/* Is the task waiting on an event also? */
			if( listLIST_ITEM_CONTAINER( &( pxTCB->xEventListItem ) ) != NULL )
 8005bc4:	68fb      	ldr	r3, [r7, #12]
 8005bc6:	6a9b      	ldr	r3, [r3, #40]	; 0x28
 8005bc8:	2b00      	cmp	r3, #0
 8005bca:	d004      	beq.n	8005bd6 <vTaskDelete+0x6a>
			{
				( void ) uxListRemove( &( pxTCB->xEventListItem ) );
 8005bcc:	68fb      	ldr	r3, [r7, #12]
 8005bce:	3318      	adds	r3, #24
 8005bd0:	4618      	mov	r0, r3
 8005bd2:	f7ff fd34 	bl	800563e <uxListRemove>

			/* Increment the uxTaskNumber also so kernel aware debuggers can
			detect that the task lists need re-generating.  This is done before
			portPRE_TASK_DELETE_HOOK() as in the Windows port that macro will
			not return. */
			uxTaskNumber++;
 8005bd6:	4b2c      	ldr	r3, [pc, #176]	; (8005c88 <vTaskDelete+0x11c>)
 8005bd8:	681b      	ldr	r3, [r3, #0]
 8005bda:	3301      	adds	r3, #1
 8005bdc:	4a2a      	ldr	r2, [pc, #168]	; (8005c88 <vTaskDelete+0x11c>)
 8005bde:	6013      	str	r3, [r2, #0]

			if( pxTCB == pxCurrentTCB )
 8005be0:	4b26      	ldr	r3, [pc, #152]	; (8005c7c <vTaskDelete+0x110>)
 8005be2:	681b      	ldr	r3, [r3, #0]
 8005be4:	68fa      	ldr	r2, [r7, #12]
 8005be6:	429a      	cmp	r2, r3
 8005be8:	d10b      	bne.n	8005c02 <vTaskDelete+0x96>
				/* A task is deleting itself.  This cannot complete within the
				task itself, as a context switch to another task is required.
				Place the task in the termination list.  The idle task will
				check the termination list and free up any memory allocated by
				the scheduler for the TCB and stack of the deleted task. */
				vListInsertEnd( &xTasksWaitingTermination, &( pxTCB->xStateListItem ) );
 8005bea:	68fb      	ldr	r3, [r7, #12]
 8005bec:	3304      	adds	r3, #4
 8005bee:	4619      	mov	r1, r3
 8005bf0:	4826      	ldr	r0, [pc, #152]	; (8005c8c <vTaskDelete+0x120>)
 8005bf2:	f7ff fcc9 	bl	8005588 <vListInsertEnd>

				/* Increment the ucTasksDeleted variable so the idle task knows
				there is a task that has been deleted and that it should therefore
				check the xTasksWaitingTermination list. */
				++uxDeletedTasksWaitingCleanUp;
 8005bf6:	4b26      	ldr	r3, [pc, #152]	; (8005c90 <vTaskDelete+0x124>)
 8005bf8:	681b      	ldr	r3, [r3, #0]
 8005bfa:	3301      	adds	r3, #1
 8005bfc:	4a24      	ldr	r2, [pc, #144]	; (8005c90 <vTaskDelete+0x124>)
 8005bfe:	6013      	str	r3, [r2, #0]
 8005c00:	e009      	b.n	8005c16 <vTaskDelete+0xaa>
				required. */
				portPRE_TASK_DELETE_HOOK( pxTCB, &xYieldPending );
			}
			else
			{
				--uxCurrentNumberOfTasks;
 8005c02:	4b24      	ldr	r3, [pc, #144]	; (8005c94 <vTaskDelete+0x128>)
 8005c04:	681b      	ldr	r3, [r3, #0]
 8005c06:	3b01      	subs	r3, #1
 8005c08:	4a22      	ldr	r2, [pc, #136]	; (8005c94 <vTaskDelete+0x128>)
 8005c0a:	6013      	str	r3, [r2, #0]
				prvDeleteTCB( pxTCB );
 8005c0c:	68f8      	ldr	r0, [r7, #12]
 8005c0e:	f000 fc2b 	bl	8006468 <prvDeleteTCB>

				/* Reset the next expected unblock time in case it referred to
				the task that has just been deleted. */
				prvResetNextTaskUnblockTime();
 8005c12:	f000 fc57 	bl	80064c4 <prvResetNextTaskUnblockTime>
			}

			traceTASK_DELETE( pxTCB );
 8005c16:	68fb      	ldr	r3, [r7, #12]
 8005c18:	4618      	mov	r0, r3
 8005c1a:	f002 fa8d 	bl	8008138 <SEGGER_SYSVIEW_ShrinkId>
 8005c1e:	4603      	mov	r3, r0
 8005c20:	4619      	mov	r1, r3
 8005c22:	2022      	movs	r0, #34	; 0x22
 8005c24:	f001 fd1e 	bl	8007664 <SEGGER_SYSVIEW_RecordU32>
 8005c28:	68fb      	ldr	r3, [r7, #12]
 8005c2a:	4618      	mov	r0, r3
 8005c2c:	f001 f92a 	bl	8006e84 <SYSVIEW_DeleteTask>
		}
		taskEXIT_CRITICAL();
 8005c30:	f000 fe56 	bl	80068e0 <vPortExitCritical>

		/* Force a reschedule if it is the currently running task that has just
		been deleted. */
		if( xSchedulerRunning != pdFALSE )
 8005c34:	4b18      	ldr	r3, [pc, #96]	; (8005c98 <vTaskDelete+0x12c>)
 8005c36:	681b      	ldr	r3, [r3, #0]
 8005c38:	2b00      	cmp	r3, #0
 8005c3a:	d01a      	beq.n	8005c72 <vTaskDelete+0x106>
		{
			if( pxTCB == pxCurrentTCB )
 8005c3c:	4b0f      	ldr	r3, [pc, #60]	; (8005c7c <vTaskDelete+0x110>)
 8005c3e:	681b      	ldr	r3, [r3, #0]
 8005c40:	68fa      	ldr	r2, [r7, #12]
 8005c42:	429a      	cmp	r2, r3
 8005c44:	d115      	bne.n	8005c72 <vTaskDelete+0x106>
			{
				configASSERT( uxSchedulerSuspended == 0 );
 8005c46:	4b15      	ldr	r3, [pc, #84]	; (8005c9c <vTaskDelete+0x130>)
 8005c48:	681b      	ldr	r3, [r3, #0]
 8005c4a:	2b00      	cmp	r3, #0
 8005c4c:	d009      	beq.n	8005c62 <vTaskDelete+0xf6>
 8005c4e:	f04f 0350 	mov.w	r3, #80	; 0x50
 8005c52:	f383 8811 	msr	BASEPRI, r3
 8005c56:	f3bf 8f6f 	isb	sy
 8005c5a:	f3bf 8f4f 	dsb	sy
 8005c5e:	60bb      	str	r3, [r7, #8]
 8005c60:	e7fe      	b.n	8005c60 <vTaskDelete+0xf4>
				portYIELD_WITHIN_API();
 8005c62:	4b0f      	ldr	r3, [pc, #60]	; (8005ca0 <vTaskDelete+0x134>)
 8005c64:	f04f 5280 	mov.w	r2, #268435456	; 0x10000000
 8005c68:	601a      	str	r2, [r3, #0]
 8005c6a:	f3bf 8f4f 	dsb	sy
 8005c6e:	f3bf 8f6f 	isb	sy
			else
			{
				mtCOVERAGE_TEST_MARKER();
			}
		}
	}
 8005c72:	bf00      	nop
 8005c74:	3710      	adds	r7, #16
 8005c76:	46bd      	mov	sp, r7
 8005c78:	bd80      	pop	{r7, pc}
 8005c7a:	bf00      	nop
 8005c7c:	2000028c 	.word	0x2000028c
 8005c80:	20000290 	.word	0x20000290
 8005c84:	20000394 	.word	0x20000394
 8005c88:	200003a8 	.word	0x200003a8
 8005c8c:	20000360 	.word	0x20000360
 8005c90:	20000374 	.word	0x20000374
 8005c94:	2000038c 	.word	0x2000038c
 8005c98:	20000398 	.word	0x20000398
 8005c9c:	200003b4 	.word	0x200003b4
 8005ca0:	e000ed04 	.word	0xe000ed04

08005ca4 <vTaskDelayUntil>:
/*-----------------------------------------------------------*/

#if ( INCLUDE_vTaskDelayUntil == 1 )

	void vTaskDelayUntil( TickType_t * const pxPreviousWakeTime, const TickType_t xTimeIncrement )
	{
 8005ca4:	b580      	push	{r7, lr}
 8005ca6:	b08a      	sub	sp, #40	; 0x28
 8005ca8:	af00      	add	r7, sp, #0
 8005caa:	6078      	str	r0, [r7, #4]
 8005cac:	6039      	str	r1, [r7, #0]
	TickType_t xTimeToWake;
	BaseType_t xAlreadyYielded, xShouldDelay = pdFALSE;
 8005cae:	2300      	movs	r3, #0
 8005cb0:	627b      	str	r3, [r7, #36]	; 0x24

		configASSERT( pxPreviousWakeTime );
 8005cb2:	687b      	ldr	r3, [r7, #4]
 8005cb4:	2b00      	cmp	r3, #0
 8005cb6:	d109      	bne.n	8005ccc <vTaskDelayUntil+0x28>
 8005cb8:	f04f 0350 	mov.w	r3, #80	; 0x50
 8005cbc:	f383 8811 	msr	BASEPRI, r3
 8005cc0:	f3bf 8f6f 	isb	sy
 8005cc4:	f3bf 8f4f 	dsb	sy
 8005cc8:	617b      	str	r3, [r7, #20]
 8005cca:	e7fe      	b.n	8005cca <vTaskDelayUntil+0x26>
		configASSERT( ( xTimeIncrement > 0U ) );
 8005ccc:	683b      	ldr	r3, [r7, #0]
 8005cce:	2b00      	cmp	r3, #0
 8005cd0:	d109      	bne.n	8005ce6 <vTaskDelayUntil+0x42>
 8005cd2:	f04f 0350 	mov.w	r3, #80	; 0x50
 8005cd6:	f383 8811 	msr	BASEPRI, r3
 8005cda:	f3bf 8f6f 	isb	sy
 8005cde:	f3bf 8f4f 	dsb	sy
 8005ce2:	613b      	str	r3, [r7, #16]
 8005ce4:	e7fe      	b.n	8005ce4 <vTaskDelayUntil+0x40>
		configASSERT( uxSchedulerSuspended == 0 );
 8005ce6:	4b2b      	ldr	r3, [pc, #172]	; (8005d94 <vTaskDelayUntil+0xf0>)
 8005ce8:	681b      	ldr	r3, [r3, #0]
 8005cea:	2b00      	cmp	r3, #0
 8005cec:	d009      	beq.n	8005d02 <vTaskDelayUntil+0x5e>
 8005cee:	f04f 0350 	mov.w	r3, #80	; 0x50
 8005cf2:	f383 8811 	msr	BASEPRI, r3
 8005cf6:	f3bf 8f6f 	isb	sy
 8005cfa:	f3bf 8f4f 	dsb	sy
 8005cfe:	60fb      	str	r3, [r7, #12]
 8005d00:	e7fe      	b.n	8005d00 <vTaskDelayUntil+0x5c>

		vTaskSuspendAll();
 8005d02:	f000 f8e3 	bl	8005ecc <vTaskSuspendAll>
		{
			/* Minor optimisation.  The tick count cannot change in this
			block. */
			const TickType_t xConstTickCount = xTickCount;
 8005d06:	4b24      	ldr	r3, [pc, #144]	; (8005d98 <vTaskDelayUntil+0xf4>)
 8005d08:	681b      	ldr	r3, [r3, #0]
 8005d0a:	623b      	str	r3, [r7, #32]

			/* Generate the tick time at which the task wants to wake. */
			xTimeToWake = *pxPreviousWakeTime + xTimeIncrement;
 8005d0c:	687b      	ldr	r3, [r7, #4]
 8005d0e:	681b      	ldr	r3, [r3, #0]
 8005d10:	683a      	ldr	r2, [r7, #0]
 8005d12:	4413      	add	r3, r2
 8005d14:	61fb      	str	r3, [r7, #28]

			if( xConstTickCount < *pxPreviousWakeTime )
 8005d16:	687b      	ldr	r3, [r7, #4]
 8005d18:	681b      	ldr	r3, [r3, #0]
 8005d1a:	6a3a      	ldr	r2, [r7, #32]
 8005d1c:	429a      	cmp	r2, r3
 8005d1e:	d20b      	bcs.n	8005d38 <vTaskDelayUntil+0x94>
				/* The tick count has overflowed since this function was
				lasted called.  In this case the only time we should ever
				actually delay is if the wake time has also	overflowed,
				and the wake time is greater than the tick time.  When this
				is the case it is as if neither time had overflowed. */
				if( ( xTimeToWake < *pxPreviousWakeTime ) && ( xTimeToWake > xConstTickCount ) )
 8005d20:	687b      	ldr	r3, [r7, #4]
 8005d22:	681b      	ldr	r3, [r3, #0]
 8005d24:	69fa      	ldr	r2, [r7, #28]
 8005d26:	429a      	cmp	r2, r3
 8005d28:	d211      	bcs.n	8005d4e <vTaskDelayUntil+0xaa>
 8005d2a:	69fa      	ldr	r2, [r7, #28]
 8005d2c:	6a3b      	ldr	r3, [r7, #32]
 8005d2e:	429a      	cmp	r2, r3
 8005d30:	d90d      	bls.n	8005d4e <vTaskDelayUntil+0xaa>
				{
					xShouldDelay = pdTRUE;
 8005d32:	2301      	movs	r3, #1
 8005d34:	627b      	str	r3, [r7, #36]	; 0x24
 8005d36:	e00a      	b.n	8005d4e <vTaskDelayUntil+0xaa>
			else
			{
				/* The tick time has not overflowed.  In this case we will
				delay if either the wake time has overflowed, and/or the
				tick time is less than the wake time. */
				if( ( xTimeToWake < *pxPreviousWakeTime ) || ( xTimeToWake > xConstTickCount ) )
 8005d38:	687b      	ldr	r3, [r7, #4]
 8005d3a:	681b      	ldr	r3, [r3, #0]
 8005d3c:	69fa      	ldr	r2, [r7, #28]
 8005d3e:	429a      	cmp	r2, r3
 8005d40:	d303      	bcc.n	8005d4a <vTaskDelayUntil+0xa6>
 8005d42:	69fa      	ldr	r2, [r7, #28]
 8005d44:	6a3b      	ldr	r3, [r7, #32]
 8005d46:	429a      	cmp	r2, r3
 8005d48:	d901      	bls.n	8005d4e <vTaskDelayUntil+0xaa>
				{
					xShouldDelay = pdTRUE;
 8005d4a:	2301      	movs	r3, #1
 8005d4c:	627b      	str	r3, [r7, #36]	; 0x24
					mtCOVERAGE_TEST_MARKER();
				}
			}

			/* Update the wake time ready for the next call. */
			*pxPreviousWakeTime = xTimeToWake;
 8005d4e:	687b      	ldr	r3, [r7, #4]
 8005d50:	69fa      	ldr	r2, [r7, #28]
 8005d52:	601a      	str	r2, [r3, #0]

			if( xShouldDelay != pdFALSE )
 8005d54:	6a7b      	ldr	r3, [r7, #36]	; 0x24
 8005d56:	2b00      	cmp	r3, #0
 8005d58:	d009      	beq.n	8005d6e <vTaskDelayUntil+0xca>
			{
				traceTASK_DELAY_UNTIL( xTimeToWake );
 8005d5a:	2024      	movs	r0, #36	; 0x24
 8005d5c:	f001 fc64 	bl	8007628 <SEGGER_SYSVIEW_RecordVoid>

				/* prvAddCurrentTaskToDelayedList() needs the block time, not
				the time to wake, so subtract the current tick count. */
				prvAddCurrentTaskToDelayedList( xTimeToWake - xConstTickCount, pdFALSE );
 8005d60:	69fa      	ldr	r2, [r7, #28]
 8005d62:	6a3b      	ldr	r3, [r7, #32]
 8005d64:	1ad3      	subs	r3, r2, r3
 8005d66:	2100      	movs	r1, #0
 8005d68:	4618      	mov	r0, r3
 8005d6a:	f000 fbcf 	bl	800650c <prvAddCurrentTaskToDelayedList>
			else
			{
				mtCOVERAGE_TEST_MARKER();
			}
		}
		xAlreadyYielded = xTaskResumeAll();
 8005d6e:	f000 f8bb 	bl	8005ee8 <xTaskResumeAll>
 8005d72:	61b8      	str	r0, [r7, #24]

		/* Force a reschedule if xTaskResumeAll has not already done so, we may
		have put ourselves to sleep. */
		if( xAlreadyYielded == pdFALSE )
 8005d74:	69bb      	ldr	r3, [r7, #24]
 8005d76:	2b00      	cmp	r3, #0
 8005d78:	d107      	bne.n	8005d8a <vTaskDelayUntil+0xe6>
		{
			portYIELD_WITHIN_API();
 8005d7a:	4b08      	ldr	r3, [pc, #32]	; (8005d9c <vTaskDelayUntil+0xf8>)
 8005d7c:	f04f 5280 	mov.w	r2, #268435456	; 0x10000000
 8005d80:	601a      	str	r2, [r3, #0]
 8005d82:	f3bf 8f4f 	dsb	sy
 8005d86:	f3bf 8f6f 	isb	sy
		}
		else
		{
			mtCOVERAGE_TEST_MARKER();
		}
	}
 8005d8a:	bf00      	nop
 8005d8c:	3728      	adds	r7, #40	; 0x28
 8005d8e:	46bd      	mov	sp, r7
 8005d90:	bd80      	pop	{r7, pc}
 8005d92:	bf00      	nop
 8005d94:	200003b4 	.word	0x200003b4
 8005d98:	20000390 	.word	0x20000390
 8005d9c:	e000ed04 	.word	0xe000ed04

08005da0 <vTaskDelay>:
/*-----------------------------------------------------------*/

#if ( INCLUDE_vTaskDelay == 1 )

	void vTaskDelay( const TickType_t xTicksToDelay )
	{
 8005da0:	b580      	push	{r7, lr}
 8005da2:	b084      	sub	sp, #16
 8005da4:	af00      	add	r7, sp, #0
 8005da6:	6078      	str	r0, [r7, #4]
	BaseType_t xAlreadyYielded = pdFALSE;
 8005da8:	2300      	movs	r3, #0
 8005daa:	60fb      	str	r3, [r7, #12]

		/* A delay time of zero just forces a reschedule. */
		if( xTicksToDelay > ( TickType_t ) 0U )
 8005dac:	687b      	ldr	r3, [r7, #4]
 8005dae:	2b00      	cmp	r3, #0
 8005db0:	d01a      	beq.n	8005de8 <vTaskDelay+0x48>
		{
			configASSERT( uxSchedulerSuspended == 0 );
 8005db2:	4b15      	ldr	r3, [pc, #84]	; (8005e08 <vTaskDelay+0x68>)
 8005db4:	681b      	ldr	r3, [r3, #0]
 8005db6:	2b00      	cmp	r3, #0
 8005db8:	d009      	beq.n	8005dce <vTaskDelay+0x2e>
 8005dba:	f04f 0350 	mov.w	r3, #80	; 0x50
 8005dbe:	f383 8811 	msr	BASEPRI, r3
 8005dc2:	f3bf 8f6f 	isb	sy
 8005dc6:	f3bf 8f4f 	dsb	sy
 8005dca:	60bb      	str	r3, [r7, #8]
 8005dcc:	e7fe      	b.n	8005dcc <vTaskDelay+0x2c>
			vTaskSuspendAll();
 8005dce:	f000 f87d 	bl	8005ecc <vTaskSuspendAll>
			{
				traceTASK_DELAY();
 8005dd2:	6879      	ldr	r1, [r7, #4]
 8005dd4:	2023      	movs	r0, #35	; 0x23
 8005dd6:	f001 fc45 	bl	8007664 <SEGGER_SYSVIEW_RecordU32>
				list or removed from the blocked list until the scheduler
				is resumed.

				This task cannot be in an event list as it is the currently
				executing task. */
				prvAddCurrentTaskToDelayedList( xTicksToDelay, pdFALSE );
 8005dda:	2100      	movs	r1, #0
 8005ddc:	6878      	ldr	r0, [r7, #4]
 8005dde:	f000 fb95 	bl	800650c <prvAddCurrentTaskToDelayedList>
			}
			xAlreadyYielded = xTaskResumeAll();
 8005de2:	f000 f881 	bl	8005ee8 <xTaskResumeAll>
 8005de6:	60f8      	str	r0, [r7, #12]
			mtCOVERAGE_TEST_MARKER();
		}

		/* Force a reschedule if xTaskResumeAll has not already done so, we may
		have put ourselves to sleep. */
		if( xAlreadyYielded == pdFALSE )
 8005de8:	68fb      	ldr	r3, [r7, #12]
 8005dea:	2b00      	cmp	r3, #0
 8005dec:	d107      	bne.n	8005dfe <vTaskDelay+0x5e>
		{
			portYIELD_WITHIN_API();
 8005dee:	4b07      	ldr	r3, [pc, #28]	; (8005e0c <vTaskDelay+0x6c>)
 8005df0:	f04f 5280 	mov.w	r2, #268435456	; 0x10000000
 8005df4:	601a      	str	r2, [r3, #0]
 8005df6:	f3bf 8f4f 	dsb	sy
 8005dfa:	f3bf 8f6f 	isb	sy
		}
		else
		{
			mtCOVERAGE_TEST_MARKER();
		}
	}
 8005dfe:	bf00      	nop
 8005e00:	3710      	adds	r7, #16
 8005e02:	46bd      	mov	sp, r7
 8005e04:	bd80      	pop	{r7, pc}
 8005e06:	bf00      	nop
 8005e08:	200003b4 	.word	0x200003b4
 8005e0c:	e000ed04 	.word	0xe000ed04

08005e10 <vTaskStartScheduler>:

#endif /* ( ( INCLUDE_xTaskResumeFromISR == 1 ) && ( INCLUDE_vTaskSuspend == 1 ) ) */
/*-----------------------------------------------------------*/

void vTaskStartScheduler( void )
{
 8005e10:	b580      	push	{r7, lr}
 8005e12:	b08a      	sub	sp, #40	; 0x28
 8005e14:	af04      	add	r7, sp, #16
BaseType_t xReturn;

	/* Add the idle task at the lowest priority. */
	#if( configSUPPORT_STATIC_ALLOCATION == 1 )
	{
		StaticTask_t *pxIdleTaskTCBBuffer = NULL;
 8005e16:	2300      	movs	r3, #0
 8005e18:	60bb      	str	r3, [r7, #8]
		StackType_t *pxIdleTaskStackBuffer = NULL;
 8005e1a:	2300      	movs	r3, #0
 8005e1c:	607b      	str	r3, [r7, #4]
		uint32_t ulIdleTaskStackSize;

		/* The Idle task is created using user provided RAM - obtain the
		address of the RAM then create the idle task. */
		vApplicationGetIdleTaskMemory( &pxIdleTaskTCBBuffer, &pxIdleTaskStackBuffer, &ulIdleTaskStackSize );
 8005e1e:	463a      	mov	r2, r7
 8005e20:	1d39      	adds	r1, r7, #4
 8005e22:	f107 0308 	add.w	r3, r7, #8
 8005e26:	4618      	mov	r0, r3
 8005e28:	f7fb f874 	bl	8000f14 <vApplicationGetIdleTaskMemory>
		xIdleTaskHandle = xTaskCreateStatic(	prvIdleTask,
 8005e2c:	6839      	ldr	r1, [r7, #0]
 8005e2e:	687b      	ldr	r3, [r7, #4]
 8005e30:	68ba      	ldr	r2, [r7, #8]
 8005e32:	9202      	str	r2, [sp, #8]
 8005e34:	9301      	str	r3, [sp, #4]
 8005e36:	2300      	movs	r3, #0
 8005e38:	9300      	str	r3, [sp, #0]
 8005e3a:	2300      	movs	r3, #0
 8005e3c:	460a      	mov	r2, r1
 8005e3e:	491d      	ldr	r1, [pc, #116]	; (8005eb4 <vTaskStartScheduler+0xa4>)
 8005e40:	481d      	ldr	r0, [pc, #116]	; (8005eb8 <vTaskStartScheduler+0xa8>)
 8005e42:	f7ff fcef 	bl	8005824 <xTaskCreateStatic>
 8005e46:	4602      	mov	r2, r0
 8005e48:	4b1c      	ldr	r3, [pc, #112]	; (8005ebc <vTaskStartScheduler+0xac>)
 8005e4a:	601a      	str	r2, [r3, #0]
												( void * ) NULL, /*lint !e961.  The cast is not redundant for all compilers. */
												( tskIDLE_PRIORITY | portPRIVILEGE_BIT ),
												pxIdleTaskStackBuffer,
												pxIdleTaskTCBBuffer ); /*lint !e961 MISRA exception, justified as it is not a redundant explicit cast to all supported compilers. */

		if( xIdleTaskHandle != NULL )
 8005e4c:	4b1b      	ldr	r3, [pc, #108]	; (8005ebc <vTaskStartScheduler+0xac>)
 8005e4e:	681b      	ldr	r3, [r3, #0]
 8005e50:	2b00      	cmp	r3, #0
 8005e52:	d002      	beq.n	8005e5a <vTaskStartScheduler+0x4a>
		{
			xReturn = pdPASS;
 8005e54:	2301      	movs	r3, #1
 8005e56:	617b      	str	r3, [r7, #20]
 8005e58:	e001      	b.n	8005e5e <vTaskStartScheduler+0x4e>
		}
		else
		{
			xReturn = pdFAIL;
 8005e5a:	2300      	movs	r3, #0
 8005e5c:	617b      	str	r3, [r7, #20]
			mtCOVERAGE_TEST_MARKER();
		}
	}
	#endif /* configUSE_TIMERS */

	if( xReturn == pdPASS )
 8005e5e:	697b      	ldr	r3, [r7, #20]
 8005e60:	2b01      	cmp	r3, #1
 8005e62:	d115      	bne.n	8005e90 <vTaskStartScheduler+0x80>
 8005e64:	f04f 0350 	mov.w	r3, #80	; 0x50
 8005e68:	f383 8811 	msr	BASEPRI, r3
 8005e6c:	f3bf 8f6f 	isb	sy
 8005e70:	f3bf 8f4f 	dsb	sy
 8005e74:	613b      	str	r3, [r7, #16]
			structure specific to the task that will run first. */
			_impure_ptr = &( pxCurrentTCB->xNewLib_reent );
		}
		#endif /* configUSE_NEWLIB_REENTRANT */

		xNextTaskUnblockTime = portMAX_DELAY;
 8005e76:	4b12      	ldr	r3, [pc, #72]	; (8005ec0 <vTaskStartScheduler+0xb0>)
 8005e78:	f04f 32ff 	mov.w	r2, #4294967295
 8005e7c:	601a      	str	r2, [r3, #0]
		xSchedulerRunning = pdTRUE;
 8005e7e:	4b11      	ldr	r3, [pc, #68]	; (8005ec4 <vTaskStartScheduler+0xb4>)
 8005e80:	2201      	movs	r2, #1
 8005e82:	601a      	str	r2, [r3, #0]
		xTickCount = ( TickType_t ) 0U;
 8005e84:	4b10      	ldr	r3, [pc, #64]	; (8005ec8 <vTaskStartScheduler+0xb8>)
 8005e86:	2200      	movs	r2, #0
 8005e88:	601a      	str	r2, [r3, #0]
		FreeRTOSConfig.h file. */
		portCONFIGURE_TIMER_FOR_RUN_TIME_STATS();

		/* Setting up the timer tick is hardware specific and thus in the
		portable interface. */
		if( xPortStartScheduler() != pdFALSE )
 8005e8a:	f000 fc35 	bl	80066f8 <xPortStartScheduler>
	}

	/* Prevent compiler warnings if INCLUDE_xTaskGetIdleTaskHandle is set to 0,
	meaning xIdleTaskHandle is not used anywhere else. */
	( void ) xIdleTaskHandle;
}
 8005e8e:	e00d      	b.n	8005eac <vTaskStartScheduler+0x9c>
		configASSERT( xReturn != errCOULD_NOT_ALLOCATE_REQUIRED_MEMORY );
 8005e90:	697b      	ldr	r3, [r7, #20]
 8005e92:	f1b3 3fff 	cmp.w	r3, #4294967295
 8005e96:	d109      	bne.n	8005eac <vTaskStartScheduler+0x9c>
 8005e98:	f04f 0350 	mov.w	r3, #80	; 0x50
 8005e9c:	f383 8811 	msr	BASEPRI, r3
 8005ea0:	f3bf 8f6f 	isb	sy
 8005ea4:	f3bf 8f4f 	dsb	sy
 8005ea8:	60fb      	str	r3, [r7, #12]
 8005eaa:	e7fe      	b.n	8005eaa <vTaskStartScheduler+0x9a>
}
 8005eac:	bf00      	nop
 8005eae:	3718      	adds	r7, #24
 8005eb0:	46bd      	mov	sp, r7
 8005eb2:	bd80      	pop	{r7, pc}
 8005eb4:	080084c8 	.word	0x080084c8
 8005eb8:	08006361 	.word	0x08006361
 8005ebc:	200003b0 	.word	0x200003b0
 8005ec0:	200003ac 	.word	0x200003ac
 8005ec4:	20000398 	.word	0x20000398
 8005ec8:	20000390 	.word	0x20000390

08005ecc <vTaskSuspendAll>:
	vPortEndScheduler();
}
/*----------------------------------------------------------*/

void vTaskSuspendAll( void )
{
 8005ecc:	b480      	push	{r7}
 8005ece:	af00      	add	r7, sp, #0
	/* A critical section is not required as the variable is of type
	BaseType_t.  Please read Richard Barry's reply in the following link to a
	post in the FreeRTOS support forum before reporting this as a bug! -
	http://goo.gl/wu4acr */
	++uxSchedulerSuspended;
 8005ed0:	4b04      	ldr	r3, [pc, #16]	; (8005ee4 <vTaskSuspendAll+0x18>)
 8005ed2:	681b      	ldr	r3, [r3, #0]
 8005ed4:	3301      	adds	r3, #1
 8005ed6:	4a03      	ldr	r2, [pc, #12]	; (8005ee4 <vTaskSuspendAll+0x18>)
 8005ed8:	6013      	str	r3, [r2, #0]
}
 8005eda:	bf00      	nop
 8005edc:	46bd      	mov	sp, r7
 8005ede:	bc80      	pop	{r7}
 8005ee0:	4770      	bx	lr
 8005ee2:	bf00      	nop
 8005ee4:	200003b4 	.word	0x200003b4

08005ee8 <xTaskResumeAll>:

#endif /* configUSE_TICKLESS_IDLE */
/*----------------------------------------------------------*/

BaseType_t xTaskResumeAll( void )
{
 8005ee8:	b580      	push	{r7, lr}
 8005eea:	b084      	sub	sp, #16
 8005eec:	af00      	add	r7, sp, #0
TCB_t *pxTCB = NULL;
 8005eee:	2300      	movs	r3, #0
 8005ef0:	60fb      	str	r3, [r7, #12]
BaseType_t xAlreadyYielded = pdFALSE;
 8005ef2:	2300      	movs	r3, #0
 8005ef4:	60bb      	str	r3, [r7, #8]

	/* If uxSchedulerSuspended is zero then this function does not match a
	previous call to vTaskSuspendAll(). */
	configASSERT( uxSchedulerSuspended );
 8005ef6:	4b43      	ldr	r3, [pc, #268]	; (8006004 <xTaskResumeAll+0x11c>)
 8005ef8:	681b      	ldr	r3, [r3, #0]
 8005efa:	2b00      	cmp	r3, #0
 8005efc:	d109      	bne.n	8005f12 <xTaskResumeAll+0x2a>
 8005efe:	f04f 0350 	mov.w	r3, #80	; 0x50
 8005f02:	f383 8811 	msr	BASEPRI, r3
 8005f06:	f3bf 8f6f 	isb	sy
 8005f0a:	f3bf 8f4f 	dsb	sy
 8005f0e:	603b      	str	r3, [r7, #0]
 8005f10:	e7fe      	b.n	8005f10 <xTaskResumeAll+0x28>
	/* It is possible that an ISR caused a task to be removed from an event
	list while the scheduler was suspended.  If this was the case then the
	removed task will have been added to the xPendingReadyList.  Once the
	scheduler has been resumed it is safe to move all the pending ready
	tasks from this list into their appropriate ready list. */
	taskENTER_CRITICAL();
 8005f12:	f000 fcb7 	bl	8006884 <vPortEnterCritical>
	{
		--uxSchedulerSuspended;
 8005f16:	4b3b      	ldr	r3, [pc, #236]	; (8006004 <xTaskResumeAll+0x11c>)
 8005f18:	681b      	ldr	r3, [r3, #0]
 8005f1a:	3b01      	subs	r3, #1
 8005f1c:	4a39      	ldr	r2, [pc, #228]	; (8006004 <xTaskResumeAll+0x11c>)
 8005f1e:	6013      	str	r3, [r2, #0]

		if( uxSchedulerSuspended == ( UBaseType_t ) pdFALSE )
 8005f20:	4b38      	ldr	r3, [pc, #224]	; (8006004 <xTaskResumeAll+0x11c>)
 8005f22:	681b      	ldr	r3, [r3, #0]
 8005f24:	2b00      	cmp	r3, #0
 8005f26:	d165      	bne.n	8005ff4 <xTaskResumeAll+0x10c>
		{
			if( uxCurrentNumberOfTasks > ( UBaseType_t ) 0U )
 8005f28:	4b37      	ldr	r3, [pc, #220]	; (8006008 <xTaskResumeAll+0x120>)
 8005f2a:	681b      	ldr	r3, [r3, #0]
 8005f2c:	2b00      	cmp	r3, #0
 8005f2e:	d061      	beq.n	8005ff4 <xTaskResumeAll+0x10c>
			{
				/* Move any readied tasks from the pending list into the
				appropriate ready list. */
				while( listLIST_IS_EMPTY( &xPendingReadyList ) == pdFALSE )
 8005f30:	e032      	b.n	8005f98 <xTaskResumeAll+0xb0>
				{
					pxTCB = ( TCB_t * ) listGET_OWNER_OF_HEAD_ENTRY( ( &xPendingReadyList ) );
 8005f32:	4b36      	ldr	r3, [pc, #216]	; (800600c <xTaskResumeAll+0x124>)
 8005f34:	68db      	ldr	r3, [r3, #12]
 8005f36:	68db      	ldr	r3, [r3, #12]
 8005f38:	60fb      	str	r3, [r7, #12]
					( void ) uxListRemove( &( pxTCB->xEventListItem ) );
 8005f3a:	68fb      	ldr	r3, [r7, #12]
 8005f3c:	3318      	adds	r3, #24
 8005f3e:	4618      	mov	r0, r3
 8005f40:	f7ff fb7d 	bl	800563e <uxListRemove>
					( void ) uxListRemove( &( pxTCB->xStateListItem ) );
 8005f44:	68fb      	ldr	r3, [r7, #12]
 8005f46:	3304      	adds	r3, #4
 8005f48:	4618      	mov	r0, r3
 8005f4a:	f7ff fb78 	bl	800563e <uxListRemove>
					prvAddTaskToReadyList( pxTCB );
 8005f4e:	68fb      	ldr	r3, [r7, #12]
 8005f50:	4618      	mov	r0, r3
 8005f52:	f002 f84f 	bl	8007ff4 <SEGGER_SYSVIEW_OnTaskStartReady>
 8005f56:	68fb      	ldr	r3, [r7, #12]
 8005f58:	6adb      	ldr	r3, [r3, #44]	; 0x2c
 8005f5a:	2201      	movs	r2, #1
 8005f5c:	409a      	lsls	r2, r3
 8005f5e:	4b2c      	ldr	r3, [pc, #176]	; (8006010 <xTaskResumeAll+0x128>)
 8005f60:	681b      	ldr	r3, [r3, #0]
 8005f62:	4313      	orrs	r3, r2
 8005f64:	4a2a      	ldr	r2, [pc, #168]	; (8006010 <xTaskResumeAll+0x128>)
 8005f66:	6013      	str	r3, [r2, #0]
 8005f68:	68fb      	ldr	r3, [r7, #12]
 8005f6a:	6ada      	ldr	r2, [r3, #44]	; 0x2c
 8005f6c:	4613      	mov	r3, r2
 8005f6e:	009b      	lsls	r3, r3, #2
 8005f70:	4413      	add	r3, r2
 8005f72:	009b      	lsls	r3, r3, #2
 8005f74:	4a27      	ldr	r2, [pc, #156]	; (8006014 <xTaskResumeAll+0x12c>)
 8005f76:	441a      	add	r2, r3
 8005f78:	68fb      	ldr	r3, [r7, #12]
 8005f7a:	3304      	adds	r3, #4
 8005f7c:	4619      	mov	r1, r3
 8005f7e:	4610      	mov	r0, r2
 8005f80:	f7ff fb02 	bl	8005588 <vListInsertEnd>

					/* If the moved task has a priority higher than the current
					task then a yield must be performed. */
					if( pxTCB->uxPriority >= pxCurrentTCB->uxPriority )
 8005f84:	68fb      	ldr	r3, [r7, #12]
 8005f86:	6ada      	ldr	r2, [r3, #44]	; 0x2c
 8005f88:	4b23      	ldr	r3, [pc, #140]	; (8006018 <xTaskResumeAll+0x130>)
 8005f8a:	681b      	ldr	r3, [r3, #0]
 8005f8c:	6adb      	ldr	r3, [r3, #44]	; 0x2c
 8005f8e:	429a      	cmp	r2, r3
 8005f90:	d302      	bcc.n	8005f98 <xTaskResumeAll+0xb0>
					{
						xYieldPending = pdTRUE;
 8005f92:	4b22      	ldr	r3, [pc, #136]	; (800601c <xTaskResumeAll+0x134>)
 8005f94:	2201      	movs	r2, #1
 8005f96:	601a      	str	r2, [r3, #0]
				while( listLIST_IS_EMPTY( &xPendingReadyList ) == pdFALSE )
 8005f98:	4b1c      	ldr	r3, [pc, #112]	; (800600c <xTaskResumeAll+0x124>)
 8005f9a:	681b      	ldr	r3, [r3, #0]
 8005f9c:	2b00      	cmp	r3, #0
 8005f9e:	d1c8      	bne.n	8005f32 <xTaskResumeAll+0x4a>
					{
						mtCOVERAGE_TEST_MARKER();
					}
				}

				if( pxTCB != NULL )
 8005fa0:	68fb      	ldr	r3, [r7, #12]
 8005fa2:	2b00      	cmp	r3, #0
 8005fa4:	d001      	beq.n	8005faa <xTaskResumeAll+0xc2>
					which may have prevented the next unblock time from being
					re-calculated, in which case re-calculate it now.  Mainly
					important for low power tickless implementations, where
					this can prevent an unnecessary exit from low power
					state. */
					prvResetNextTaskUnblockTime();
 8005fa6:	f000 fa8d 	bl	80064c4 <prvResetNextTaskUnblockTime>
				/* If any ticks occurred while the scheduler was suspended then
				they should be processed now.  This ensures the tick count does
				not	slip, and that any delayed tasks are resumed at the correct
				time. */
				{
					UBaseType_t uxPendedCounts = uxPendedTicks; /* Non-volatile copy. */
 8005faa:	4b1d      	ldr	r3, [pc, #116]	; (8006020 <xTaskResumeAll+0x138>)
 8005fac:	681b      	ldr	r3, [r3, #0]
 8005fae:	607b      	str	r3, [r7, #4]

					if( uxPendedCounts > ( UBaseType_t ) 0U )
 8005fb0:	687b      	ldr	r3, [r7, #4]
 8005fb2:	2b00      	cmp	r3, #0
 8005fb4:	d010      	beq.n	8005fd8 <xTaskResumeAll+0xf0>
					{
						do
						{
							if( xTaskIncrementTick() != pdFALSE )
 8005fb6:	f000 f845 	bl	8006044 <xTaskIncrementTick>
 8005fba:	4603      	mov	r3, r0
 8005fbc:	2b00      	cmp	r3, #0
 8005fbe:	d002      	beq.n	8005fc6 <xTaskResumeAll+0xde>
							{
								xYieldPending = pdTRUE;
 8005fc0:	4b16      	ldr	r3, [pc, #88]	; (800601c <xTaskResumeAll+0x134>)
 8005fc2:	2201      	movs	r2, #1
 8005fc4:	601a      	str	r2, [r3, #0]
							}
							else
							{
								mtCOVERAGE_TEST_MARKER();
							}
							--uxPendedCounts;
 8005fc6:	687b      	ldr	r3, [r7, #4]
 8005fc8:	3b01      	subs	r3, #1
 8005fca:	607b      	str	r3, [r7, #4]
						} while( uxPendedCounts > ( UBaseType_t ) 0U );
 8005fcc:	687b      	ldr	r3, [r7, #4]
 8005fce:	2b00      	cmp	r3, #0
 8005fd0:	d1f1      	bne.n	8005fb6 <xTaskResumeAll+0xce>

						uxPendedTicks = 0;
 8005fd2:	4b13      	ldr	r3, [pc, #76]	; (8006020 <xTaskResumeAll+0x138>)
 8005fd4:	2200      	movs	r2, #0
 8005fd6:	601a      	str	r2, [r3, #0]
					{
						mtCOVERAGE_TEST_MARKER();
					}
				}

				if( xYieldPending != pdFALSE )
 8005fd8:	4b10      	ldr	r3, [pc, #64]	; (800601c <xTaskResumeAll+0x134>)
 8005fda:	681b      	ldr	r3, [r3, #0]
 8005fdc:	2b00      	cmp	r3, #0
 8005fde:	d009      	beq.n	8005ff4 <xTaskResumeAll+0x10c>
				{
					#if( configUSE_PREEMPTION != 0 )
					{
						xAlreadyYielded = pdTRUE;
 8005fe0:	2301      	movs	r3, #1
 8005fe2:	60bb      	str	r3, [r7, #8]
					}
					#endif
					taskYIELD_IF_USING_PREEMPTION();
 8005fe4:	4b0f      	ldr	r3, [pc, #60]	; (8006024 <xTaskResumeAll+0x13c>)
 8005fe6:	f04f 5280 	mov.w	r2, #268435456	; 0x10000000
 8005fea:	601a      	str	r2, [r3, #0]
 8005fec:	f3bf 8f4f 	dsb	sy
 8005ff0:	f3bf 8f6f 	isb	sy
		else
		{
			mtCOVERAGE_TEST_MARKER();
		}
	}
	taskEXIT_CRITICAL();
 8005ff4:	f000 fc74 	bl	80068e0 <vPortExitCritical>

	return xAlreadyYielded;
 8005ff8:	68bb      	ldr	r3, [r7, #8]
}
 8005ffa:	4618      	mov	r0, r3
 8005ffc:	3710      	adds	r7, #16
 8005ffe:	46bd      	mov	sp, r7
 8006000:	bd80      	pop	{r7, pc}
 8006002:	bf00      	nop
 8006004:	200003b4 	.word	0x200003b4
 8006008:	2000038c 	.word	0x2000038c
 800600c:	2000034c 	.word	0x2000034c
 8006010:	20000394 	.word	0x20000394
 8006014:	20000290 	.word	0x20000290
 8006018:	2000028c 	.word	0x2000028c
 800601c:	200003a0 	.word	0x200003a0
 8006020:	2000039c 	.word	0x2000039c
 8006024:	e000ed04 	.word	0xe000ed04

08006028 <xTaskGetTickCount>:
/*-----------------------------------------------------------*/

TickType_t xTaskGetTickCount( void )
{
 8006028:	b480      	push	{r7}
 800602a:	b083      	sub	sp, #12
 800602c:	af00      	add	r7, sp, #0
TickType_t xTicks;

	/* Critical section required if running on a 16 bit processor. */
	portTICK_TYPE_ENTER_CRITICAL();
	{
		xTicks = xTickCount;
 800602e:	4b04      	ldr	r3, [pc, #16]	; (8006040 <xTaskGetTickCount+0x18>)
 8006030:	681b      	ldr	r3, [r3, #0]
 8006032:	607b      	str	r3, [r7, #4]
	}
	portTICK_TYPE_EXIT_CRITICAL();

	return xTicks;
 8006034:	687b      	ldr	r3, [r7, #4]
}
 8006036:	4618      	mov	r0, r3
 8006038:	370c      	adds	r7, #12
 800603a:	46bd      	mov	sp, r7
 800603c:	bc80      	pop	{r7}
 800603e:	4770      	bx	lr
 8006040:	20000390 	.word	0x20000390

08006044 <xTaskIncrementTick>:

#endif /* INCLUDE_xTaskAbortDelay */
/*----------------------------------------------------------*/

BaseType_t xTaskIncrementTick( void )
{
 8006044:	b580      	push	{r7, lr}
 8006046:	b086      	sub	sp, #24
 8006048:	af00      	add	r7, sp, #0
TCB_t * pxTCB;
TickType_t xItemValue;
BaseType_t xSwitchRequired = pdFALSE;
 800604a:	2300      	movs	r3, #0
 800604c:	617b      	str	r3, [r7, #20]

	/* Called by the portable layer each time a tick interrupt occurs.
	Increments the tick then checks to see if the new tick value will cause any
	tasks to be unblocked. */
	traceTASK_INCREMENT_TICK( xTickCount );
	if( uxSchedulerSuspended == ( UBaseType_t ) pdFALSE )
 800604e:	4b52      	ldr	r3, [pc, #328]	; (8006198 <xTaskIncrementTick+0x154>)
 8006050:	681b      	ldr	r3, [r3, #0]
 8006052:	2b00      	cmp	r3, #0
 8006054:	f040 8090 	bne.w	8006178 <xTaskIncrementTick+0x134>
	{
		/* Minor optimisation.  The tick count cannot change in this
		block. */
		const TickType_t xConstTickCount = xTickCount + ( TickType_t ) 1;
 8006058:	4b50      	ldr	r3, [pc, #320]	; (800619c <xTaskIncrementTick+0x158>)
 800605a:	681b      	ldr	r3, [r3, #0]
 800605c:	3301      	adds	r3, #1
 800605e:	613b      	str	r3, [r7, #16]

		/* Increment the RTOS tick, switching the delayed and overflowed
		delayed lists if it wraps to 0. */
		xTickCount = xConstTickCount;
 8006060:	4a4e      	ldr	r2, [pc, #312]	; (800619c <xTaskIncrementTick+0x158>)
 8006062:	693b      	ldr	r3, [r7, #16]
 8006064:	6013      	str	r3, [r2, #0]

		if( xConstTickCount == ( TickType_t ) 0U ) /*lint !e774 'if' does not always evaluate to false as it is looking for an overflow. */
 8006066:	693b      	ldr	r3, [r7, #16]
 8006068:	2b00      	cmp	r3, #0
 800606a:	d11f      	bne.n	80060ac <xTaskIncrementTick+0x68>
		{
			taskSWITCH_DELAYED_LISTS();
 800606c:	4b4c      	ldr	r3, [pc, #304]	; (80061a0 <xTaskIncrementTick+0x15c>)
 800606e:	681b      	ldr	r3, [r3, #0]
 8006070:	681b      	ldr	r3, [r3, #0]
 8006072:	2b00      	cmp	r3, #0
 8006074:	d009      	beq.n	800608a <xTaskIncrementTick+0x46>
 8006076:	f04f 0350 	mov.w	r3, #80	; 0x50
 800607a:	f383 8811 	msr	BASEPRI, r3
 800607e:	f3bf 8f6f 	isb	sy
 8006082:	f3bf 8f4f 	dsb	sy
 8006086:	603b      	str	r3, [r7, #0]
 8006088:	e7fe      	b.n	8006088 <xTaskIncrementTick+0x44>
 800608a:	4b45      	ldr	r3, [pc, #276]	; (80061a0 <xTaskIncrementTick+0x15c>)
 800608c:	681b      	ldr	r3, [r3, #0]
 800608e:	60fb      	str	r3, [r7, #12]
 8006090:	4b44      	ldr	r3, [pc, #272]	; (80061a4 <xTaskIncrementTick+0x160>)
 8006092:	681b      	ldr	r3, [r3, #0]
 8006094:	4a42      	ldr	r2, [pc, #264]	; (80061a0 <xTaskIncrementTick+0x15c>)
 8006096:	6013      	str	r3, [r2, #0]
 8006098:	4a42      	ldr	r2, [pc, #264]	; (80061a4 <xTaskIncrementTick+0x160>)
 800609a:	68fb      	ldr	r3, [r7, #12]
 800609c:	6013      	str	r3, [r2, #0]
 800609e:	4b42      	ldr	r3, [pc, #264]	; (80061a8 <xTaskIncrementTick+0x164>)
 80060a0:	681b      	ldr	r3, [r3, #0]
 80060a2:	3301      	adds	r3, #1
 80060a4:	4a40      	ldr	r2, [pc, #256]	; (80061a8 <xTaskIncrementTick+0x164>)
 80060a6:	6013      	str	r3, [r2, #0]
 80060a8:	f000 fa0c 	bl	80064c4 <prvResetNextTaskUnblockTime>

		/* See if this tick has made a timeout expire.  Tasks are stored in
		the	queue in the order of their wake time - meaning once one task
		has been found whose block time has not expired there is no need to
		look any further down the list. */
		if( xConstTickCount >= xNextTaskUnblockTime )
 80060ac:	4b3f      	ldr	r3, [pc, #252]	; (80061ac <xTaskIncrementTick+0x168>)
 80060ae:	681b      	ldr	r3, [r3, #0]
 80060b0:	693a      	ldr	r2, [r7, #16]
 80060b2:	429a      	cmp	r2, r3
 80060b4:	d351      	bcc.n	800615a <xTaskIncrementTick+0x116>
		{
			for( ;; )
			{
				if( listLIST_IS_EMPTY( pxDelayedTaskList ) != pdFALSE )
 80060b6:	4b3a      	ldr	r3, [pc, #232]	; (80061a0 <xTaskIncrementTick+0x15c>)
 80060b8:	681b      	ldr	r3, [r3, #0]
 80060ba:	681b      	ldr	r3, [r3, #0]
 80060bc:	2b00      	cmp	r3, #0
 80060be:	d101      	bne.n	80060c4 <xTaskIncrementTick+0x80>
 80060c0:	2301      	movs	r3, #1
 80060c2:	e000      	b.n	80060c6 <xTaskIncrementTick+0x82>
 80060c4:	2300      	movs	r3, #0
 80060c6:	2b00      	cmp	r3, #0
 80060c8:	d004      	beq.n	80060d4 <xTaskIncrementTick+0x90>
					/* The delayed list is empty.  Set xNextTaskUnblockTime
					to the maximum possible value so it is extremely
					unlikely that the
					if( xTickCount >= xNextTaskUnblockTime ) test will pass
					next time through. */
					xNextTaskUnblockTime = portMAX_DELAY; /*lint !e961 MISRA exception as the casts are only redundant for some ports. */
 80060ca:	4b38      	ldr	r3, [pc, #224]	; (80061ac <xTaskIncrementTick+0x168>)
 80060cc:	f04f 32ff 	mov.w	r2, #4294967295
 80060d0:	601a      	str	r2, [r3, #0]
					break;
 80060d2:	e042      	b.n	800615a <xTaskIncrementTick+0x116>
				{
					/* The delayed list is not empty, get the value of the
					item at the head of the delayed list.  This is the time
					at which the task at the head of the delayed list must
					be removed from the Blocked state. */
					pxTCB = ( TCB_t * ) listGET_OWNER_OF_HEAD_ENTRY( pxDelayedTaskList );
 80060d4:	4b32      	ldr	r3, [pc, #200]	; (80061a0 <xTaskIncrementTick+0x15c>)
 80060d6:	681b      	ldr	r3, [r3, #0]
 80060d8:	68db      	ldr	r3, [r3, #12]
 80060da:	68db      	ldr	r3, [r3, #12]
 80060dc:	60bb      	str	r3, [r7, #8]
					xItemValue = listGET_LIST_ITEM_VALUE( &( pxTCB->xStateListItem ) );
 80060de:	68bb      	ldr	r3, [r7, #8]
 80060e0:	685b      	ldr	r3, [r3, #4]
 80060e2:	607b      	str	r3, [r7, #4]

					if( xConstTickCount < xItemValue )
 80060e4:	693a      	ldr	r2, [r7, #16]
 80060e6:	687b      	ldr	r3, [r7, #4]
 80060e8:	429a      	cmp	r2, r3
 80060ea:	d203      	bcs.n	80060f4 <xTaskIncrementTick+0xb0>
						/* It is not time to unblock this item yet, but the
						item value is the time at which the task at the head
						of the blocked list must be removed from the Blocked
						state -	so record the item value in
						xNextTaskUnblockTime. */
						xNextTaskUnblockTime = xItemValue;
 80060ec:	4a2f      	ldr	r2, [pc, #188]	; (80061ac <xTaskIncrementTick+0x168>)
 80060ee:	687b      	ldr	r3, [r7, #4]
 80060f0:	6013      	str	r3, [r2, #0]
						break;
 80060f2:	e032      	b.n	800615a <xTaskIncrementTick+0x116>
					{
						mtCOVERAGE_TEST_MARKER();
					}

					/* It is time to remove the item from the Blocked state. */
					( void ) uxListRemove( &( pxTCB->xStateListItem ) );
 80060f4:	68bb      	ldr	r3, [r7, #8]
 80060f6:	3304      	adds	r3, #4
 80060f8:	4618      	mov	r0, r3
 80060fa:	f7ff faa0 	bl	800563e <uxListRemove>

					/* Is the task waiting on an event also?  If so remove
					it from the event list. */
					if( listLIST_ITEM_CONTAINER( &( pxTCB->xEventListItem ) ) != NULL )
 80060fe:	68bb      	ldr	r3, [r7, #8]
 8006100:	6a9b      	ldr	r3, [r3, #40]	; 0x28
 8006102:	2b00      	cmp	r3, #0
 8006104:	d004      	beq.n	8006110 <xTaskIncrementTick+0xcc>
					{
						( void ) uxListRemove( &( pxTCB->xEventListItem ) );
 8006106:	68bb      	ldr	r3, [r7, #8]
 8006108:	3318      	adds	r3, #24
 800610a:	4618      	mov	r0, r3
 800610c:	f7ff fa97 	bl	800563e <uxListRemove>
						mtCOVERAGE_TEST_MARKER();
					}

					/* Place the unblocked task into the appropriate ready
					list. */
					prvAddTaskToReadyList( pxTCB );
 8006110:	68bb      	ldr	r3, [r7, #8]
 8006112:	4618      	mov	r0, r3
 8006114:	f001 ff6e 	bl	8007ff4 <SEGGER_SYSVIEW_OnTaskStartReady>
 8006118:	68bb      	ldr	r3, [r7, #8]
 800611a:	6adb      	ldr	r3, [r3, #44]	; 0x2c
 800611c:	2201      	movs	r2, #1
 800611e:	409a      	lsls	r2, r3
 8006120:	4b23      	ldr	r3, [pc, #140]	; (80061b0 <xTaskIncrementTick+0x16c>)
 8006122:	681b      	ldr	r3, [r3, #0]
 8006124:	4313      	orrs	r3, r2
 8006126:	4a22      	ldr	r2, [pc, #136]	; (80061b0 <xTaskIncrementTick+0x16c>)
 8006128:	6013      	str	r3, [r2, #0]
 800612a:	68bb      	ldr	r3, [r7, #8]
 800612c:	6ada      	ldr	r2, [r3, #44]	; 0x2c
 800612e:	4613      	mov	r3, r2
 8006130:	009b      	lsls	r3, r3, #2
 8006132:	4413      	add	r3, r2
 8006134:	009b      	lsls	r3, r3, #2
 8006136:	4a1f      	ldr	r2, [pc, #124]	; (80061b4 <xTaskIncrementTick+0x170>)
 8006138:	441a      	add	r2, r3
 800613a:	68bb      	ldr	r3, [r7, #8]
 800613c:	3304      	adds	r3, #4
 800613e:	4619      	mov	r1, r3
 8006140:	4610      	mov	r0, r2
 8006142:	f7ff fa21 	bl	8005588 <vListInsertEnd>
					{
						/* Preemption is on, but a context switch should
						only be performed if the unblocked task has a
						priority that is equal to or higher than the
						currently executing task. */
						if( pxTCB->uxPriority >= pxCurrentTCB->uxPriority )
 8006146:	68bb      	ldr	r3, [r7, #8]
 8006148:	6ada      	ldr	r2, [r3, #44]	; 0x2c
 800614a:	4b1b      	ldr	r3, [pc, #108]	; (80061b8 <xTaskIncrementTick+0x174>)
 800614c:	681b      	ldr	r3, [r3, #0]
 800614e:	6adb      	ldr	r3, [r3, #44]	; 0x2c
 8006150:	429a      	cmp	r2, r3
 8006152:	d3b0      	bcc.n	80060b6 <xTaskIncrementTick+0x72>
						{
							xSwitchRequired = pdTRUE;
 8006154:	2301      	movs	r3, #1
 8006156:	617b      	str	r3, [r7, #20]
				if( listLIST_IS_EMPTY( pxDelayedTaskList ) != pdFALSE )
 8006158:	e7ad      	b.n	80060b6 <xTaskIncrementTick+0x72>
		/* Tasks of equal priority to the currently running task will share
		processing time (time slice) if preemption is on, and the application
		writer has not explicitly turned time slicing off. */
		#if ( ( configUSE_PREEMPTION == 1 ) && ( configUSE_TIME_SLICING == 1 ) )
		{
			if( listCURRENT_LIST_LENGTH( &( pxReadyTasksLists[ pxCurrentTCB->uxPriority ] ) ) > ( UBaseType_t ) 1 )
 800615a:	4b17      	ldr	r3, [pc, #92]	; (80061b8 <xTaskIncrementTick+0x174>)
 800615c:	681b      	ldr	r3, [r3, #0]
 800615e:	6ada      	ldr	r2, [r3, #44]	; 0x2c
 8006160:	4914      	ldr	r1, [pc, #80]	; (80061b4 <xTaskIncrementTick+0x170>)
 8006162:	4613      	mov	r3, r2
 8006164:	009b      	lsls	r3, r3, #2
 8006166:	4413      	add	r3, r2
 8006168:	009b      	lsls	r3, r3, #2
 800616a:	440b      	add	r3, r1
 800616c:	681b      	ldr	r3, [r3, #0]
 800616e:	2b01      	cmp	r3, #1
 8006170:	d907      	bls.n	8006182 <xTaskIncrementTick+0x13e>
			{
				xSwitchRequired = pdTRUE;
 8006172:	2301      	movs	r3, #1
 8006174:	617b      	str	r3, [r7, #20]
 8006176:	e004      	b.n	8006182 <xTaskIncrementTick+0x13e>
		}
		#endif /* configUSE_TICK_HOOK */
	}
	else
	{
		++uxPendedTicks;
 8006178:	4b10      	ldr	r3, [pc, #64]	; (80061bc <xTaskIncrementTick+0x178>)
 800617a:	681b      	ldr	r3, [r3, #0]
 800617c:	3301      	adds	r3, #1
 800617e:	4a0f      	ldr	r2, [pc, #60]	; (80061bc <xTaskIncrementTick+0x178>)
 8006180:	6013      	str	r3, [r2, #0]
		#endif
	}

	#if ( configUSE_PREEMPTION == 1 )
	{
		if( xYieldPending != pdFALSE )
 8006182:	4b0f      	ldr	r3, [pc, #60]	; (80061c0 <xTaskIncrementTick+0x17c>)
 8006184:	681b      	ldr	r3, [r3, #0]
 8006186:	2b00      	cmp	r3, #0
 8006188:	d001      	beq.n	800618e <xTaskIncrementTick+0x14a>
		{
			xSwitchRequired = pdTRUE;
 800618a:	2301      	movs	r3, #1
 800618c:	617b      	str	r3, [r7, #20]
			mtCOVERAGE_TEST_MARKER();
		}
	}
	#endif /* configUSE_PREEMPTION */

	return xSwitchRequired;
 800618e:	697b      	ldr	r3, [r7, #20]
}
 8006190:	4618      	mov	r0, r3
 8006192:	3718      	adds	r7, #24
 8006194:	46bd      	mov	sp, r7
 8006196:	bd80      	pop	{r7, pc}
 8006198:	200003b4 	.word	0x200003b4
 800619c:	20000390 	.word	0x20000390
 80061a0:	20000344 	.word	0x20000344
 80061a4:	20000348 	.word	0x20000348
 80061a8:	200003a4 	.word	0x200003a4
 80061ac:	200003ac 	.word	0x200003ac
 80061b0:	20000394 	.word	0x20000394
 80061b4:	20000290 	.word	0x20000290
 80061b8:	2000028c 	.word	0x2000028c
 80061bc:	2000039c 	.word	0x2000039c
 80061c0:	200003a0 	.word	0x200003a0

080061c4 <vTaskSwitchContext>:

#endif /* configUSE_APPLICATION_TASK_TAG */
/*-----------------------------------------------------------*/

void vTaskSwitchContext( void )
{
 80061c4:	b580      	push	{r7, lr}
 80061c6:	b086      	sub	sp, #24
 80061c8:	af00      	add	r7, sp, #0
	if( uxSchedulerSuspended != ( UBaseType_t ) pdFALSE )
 80061ca:	4b2c      	ldr	r3, [pc, #176]	; (800627c <vTaskSwitchContext+0xb8>)
 80061cc:	681b      	ldr	r3, [r3, #0]
 80061ce:	2b00      	cmp	r3, #0
 80061d0:	d003      	beq.n	80061da <vTaskSwitchContext+0x16>
	{
		/* The scheduler is currently suspended - do not allow a context
		switch. */
		xYieldPending = pdTRUE;
 80061d2:	4b2b      	ldr	r3, [pc, #172]	; (8006280 <vTaskSwitchContext+0xbc>)
 80061d4:	2201      	movs	r2, #1
 80061d6:	601a      	str	r2, [r3, #0]
			structure specific to this task. */
			_impure_ptr = &( pxCurrentTCB->xNewLib_reent );
		}
		#endif /* configUSE_NEWLIB_REENTRANT */
	}
}
 80061d8:	e04c      	b.n	8006274 <vTaskSwitchContext+0xb0>
		xYieldPending = pdFALSE;
 80061da:	4b29      	ldr	r3, [pc, #164]	; (8006280 <vTaskSwitchContext+0xbc>)
 80061dc:	2200      	movs	r2, #0
 80061de:	601a      	str	r2, [r3, #0]
		taskSELECT_HIGHEST_PRIORITY_TASK();
 80061e0:	4b28      	ldr	r3, [pc, #160]	; (8006284 <vTaskSwitchContext+0xc0>)
 80061e2:	681b      	ldr	r3, [r3, #0]
 80061e4:	60fb      	str	r3, [r7, #12]
		__asm volatile ( "clz %0, %1" : "=r" ( ucReturn ) : "r" ( ulBitmap ) : "memory" );
 80061e6:	68fb      	ldr	r3, [r7, #12]
 80061e8:	fab3 f383 	clz	r3, r3
 80061ec:	72fb      	strb	r3, [r7, #11]
		return ucReturn;
 80061ee:	7afb      	ldrb	r3, [r7, #11]
 80061f0:	f1c3 031f 	rsb	r3, r3, #31
 80061f4:	617b      	str	r3, [r7, #20]
 80061f6:	4924      	ldr	r1, [pc, #144]	; (8006288 <vTaskSwitchContext+0xc4>)
 80061f8:	697a      	ldr	r2, [r7, #20]
 80061fa:	4613      	mov	r3, r2
 80061fc:	009b      	lsls	r3, r3, #2
 80061fe:	4413      	add	r3, r2
 8006200:	009b      	lsls	r3, r3, #2
 8006202:	440b      	add	r3, r1
 8006204:	681b      	ldr	r3, [r3, #0]
 8006206:	2b00      	cmp	r3, #0
 8006208:	d109      	bne.n	800621e <vTaskSwitchContext+0x5a>
	__asm volatile
 800620a:	f04f 0350 	mov.w	r3, #80	; 0x50
 800620e:	f383 8811 	msr	BASEPRI, r3
 8006212:	f3bf 8f6f 	isb	sy
 8006216:	f3bf 8f4f 	dsb	sy
 800621a:	607b      	str	r3, [r7, #4]
 800621c:	e7fe      	b.n	800621c <vTaskSwitchContext+0x58>
 800621e:	697a      	ldr	r2, [r7, #20]
 8006220:	4613      	mov	r3, r2
 8006222:	009b      	lsls	r3, r3, #2
 8006224:	4413      	add	r3, r2
 8006226:	009b      	lsls	r3, r3, #2
 8006228:	4a17      	ldr	r2, [pc, #92]	; (8006288 <vTaskSwitchContext+0xc4>)
 800622a:	4413      	add	r3, r2
 800622c:	613b      	str	r3, [r7, #16]
 800622e:	693b      	ldr	r3, [r7, #16]
 8006230:	685b      	ldr	r3, [r3, #4]
 8006232:	685a      	ldr	r2, [r3, #4]
 8006234:	693b      	ldr	r3, [r7, #16]
 8006236:	605a      	str	r2, [r3, #4]
 8006238:	693b      	ldr	r3, [r7, #16]
 800623a:	685a      	ldr	r2, [r3, #4]
 800623c:	693b      	ldr	r3, [r7, #16]
 800623e:	3308      	adds	r3, #8
 8006240:	429a      	cmp	r2, r3
 8006242:	d104      	bne.n	800624e <vTaskSwitchContext+0x8a>
 8006244:	693b      	ldr	r3, [r7, #16]
 8006246:	685b      	ldr	r3, [r3, #4]
 8006248:	685a      	ldr	r2, [r3, #4]
 800624a:	693b      	ldr	r3, [r7, #16]
 800624c:	605a      	str	r2, [r3, #4]
 800624e:	693b      	ldr	r3, [r7, #16]
 8006250:	685b      	ldr	r3, [r3, #4]
 8006252:	68db      	ldr	r3, [r3, #12]
 8006254:	4a0d      	ldr	r2, [pc, #52]	; (800628c <vTaskSwitchContext+0xc8>)
 8006256:	6013      	str	r3, [r2, #0]
		traceTASK_SWITCHED_IN();
 8006258:	4b0c      	ldr	r3, [pc, #48]	; (800628c <vTaskSwitchContext+0xc8>)
 800625a:	681a      	ldr	r2, [r3, #0]
 800625c:	4b0c      	ldr	r3, [pc, #48]	; (8006290 <vTaskSwitchContext+0xcc>)
 800625e:	681b      	ldr	r3, [r3, #0]
 8006260:	429a      	cmp	r2, r3
 8006262:	d102      	bne.n	800626a <vTaskSwitchContext+0xa6>
 8006264:	f001 fe26 	bl	8007eb4 <SEGGER_SYSVIEW_OnIdle>
}
 8006268:	e004      	b.n	8006274 <vTaskSwitchContext+0xb0>
		traceTASK_SWITCHED_IN();
 800626a:	4b08      	ldr	r3, [pc, #32]	; (800628c <vTaskSwitchContext+0xc8>)
 800626c:	681b      	ldr	r3, [r3, #0]
 800626e:	4618      	mov	r0, r3
 8006270:	f001 fe7e 	bl	8007f70 <SEGGER_SYSVIEW_OnTaskStartExec>
}
 8006274:	bf00      	nop
 8006276:	3718      	adds	r7, #24
 8006278:	46bd      	mov	sp, r7
 800627a:	bd80      	pop	{r7, pc}
 800627c:	200003b4 	.word	0x200003b4
 8006280:	200003a0 	.word	0x200003a0
 8006284:	20000394 	.word	0x20000394
 8006288:	20000290 	.word	0x20000290
 800628c:	2000028c 	.word	0x2000028c
 8006290:	200003b0 	.word	0x200003b0

08006294 <xTaskRemoveFromEventList>:

#endif /* configUSE_TIMERS */
/*-----------------------------------------------------------*/

BaseType_t xTaskRemoveFromEventList( const List_t * const pxEventList )
{
 8006294:	b580      	push	{r7, lr}
 8006296:	b086      	sub	sp, #24
 8006298:	af00      	add	r7, sp, #0
 800629a:	6078      	str	r0, [r7, #4]
	get called - the lock count on the queue will get modified instead.  This
	means exclusive access to the event list is guaranteed here.

	This function assumes that a check has already been made to ensure that
	pxEventList is not empty. */
	pxUnblockedTCB = ( TCB_t * ) listGET_OWNER_OF_HEAD_ENTRY( pxEventList );
 800629c:	687b      	ldr	r3, [r7, #4]
 800629e:	68db      	ldr	r3, [r3, #12]
 80062a0:	68db      	ldr	r3, [r3, #12]
 80062a2:	613b      	str	r3, [r7, #16]
	configASSERT( pxUnblockedTCB );
 80062a4:	693b      	ldr	r3, [r7, #16]
 80062a6:	2b00      	cmp	r3, #0
 80062a8:	d109      	bne.n	80062be <xTaskRemoveFromEventList+0x2a>
 80062aa:	f04f 0350 	mov.w	r3, #80	; 0x50
 80062ae:	f383 8811 	msr	BASEPRI, r3
 80062b2:	f3bf 8f6f 	isb	sy
 80062b6:	f3bf 8f4f 	dsb	sy
 80062ba:	60fb      	str	r3, [r7, #12]
 80062bc:	e7fe      	b.n	80062bc <xTaskRemoveFromEventList+0x28>
	( void ) uxListRemove( &( pxUnblockedTCB->xEventListItem ) );
 80062be:	693b      	ldr	r3, [r7, #16]
 80062c0:	3318      	adds	r3, #24
 80062c2:	4618      	mov	r0, r3
 80062c4:	f7ff f9bb 	bl	800563e <uxListRemove>

	if( uxSchedulerSuspended == ( UBaseType_t ) pdFALSE )
 80062c8:	4b1f      	ldr	r3, [pc, #124]	; (8006348 <xTaskRemoveFromEventList+0xb4>)
 80062ca:	681b      	ldr	r3, [r3, #0]
 80062cc:	2b00      	cmp	r3, #0
 80062ce:	d120      	bne.n	8006312 <xTaskRemoveFromEventList+0x7e>
	{
		( void ) uxListRemove( &( pxUnblockedTCB->xStateListItem ) );
 80062d0:	693b      	ldr	r3, [r7, #16]
 80062d2:	3304      	adds	r3, #4
 80062d4:	4618      	mov	r0, r3
 80062d6:	f7ff f9b2 	bl	800563e <uxListRemove>
		prvAddTaskToReadyList( pxUnblockedTCB );
 80062da:	693b      	ldr	r3, [r7, #16]
 80062dc:	4618      	mov	r0, r3
 80062de:	f001 fe89 	bl	8007ff4 <SEGGER_SYSVIEW_OnTaskStartReady>
 80062e2:	693b      	ldr	r3, [r7, #16]
 80062e4:	6adb      	ldr	r3, [r3, #44]	; 0x2c
 80062e6:	2201      	movs	r2, #1
 80062e8:	409a      	lsls	r2, r3
 80062ea:	4b18      	ldr	r3, [pc, #96]	; (800634c <xTaskRemoveFromEventList+0xb8>)
 80062ec:	681b      	ldr	r3, [r3, #0]
 80062ee:	4313      	orrs	r3, r2
 80062f0:	4a16      	ldr	r2, [pc, #88]	; (800634c <xTaskRemoveFromEventList+0xb8>)
 80062f2:	6013      	str	r3, [r2, #0]
 80062f4:	693b      	ldr	r3, [r7, #16]
 80062f6:	6ada      	ldr	r2, [r3, #44]	; 0x2c
 80062f8:	4613      	mov	r3, r2
 80062fa:	009b      	lsls	r3, r3, #2
 80062fc:	4413      	add	r3, r2
 80062fe:	009b      	lsls	r3, r3, #2
 8006300:	4a13      	ldr	r2, [pc, #76]	; (8006350 <xTaskRemoveFromEventList+0xbc>)
 8006302:	441a      	add	r2, r3
 8006304:	693b      	ldr	r3, [r7, #16]
 8006306:	3304      	adds	r3, #4
 8006308:	4619      	mov	r1, r3
 800630a:	4610      	mov	r0, r2
 800630c:	f7ff f93c 	bl	8005588 <vListInsertEnd>
 8006310:	e005      	b.n	800631e <xTaskRemoveFromEventList+0x8a>
	}
	else
	{
		/* The delayed and ready lists cannot be accessed, so hold this task
		pending until the scheduler is resumed. */
		vListInsertEnd( &( xPendingReadyList ), &( pxUnblockedTCB->xEventListItem ) );
 8006312:	693b      	ldr	r3, [r7, #16]
 8006314:	3318      	adds	r3, #24
 8006316:	4619      	mov	r1, r3
 8006318:	480e      	ldr	r0, [pc, #56]	; (8006354 <xTaskRemoveFromEventList+0xc0>)
 800631a:	f7ff f935 	bl	8005588 <vListInsertEnd>
	}

	if( pxUnblockedTCB->uxPriority > pxCurrentTCB->uxPriority )
 800631e:	693b      	ldr	r3, [r7, #16]
 8006320:	6ada      	ldr	r2, [r3, #44]	; 0x2c
 8006322:	4b0d      	ldr	r3, [pc, #52]	; (8006358 <xTaskRemoveFromEventList+0xc4>)
 8006324:	681b      	ldr	r3, [r3, #0]
 8006326:	6adb      	ldr	r3, [r3, #44]	; 0x2c
 8006328:	429a      	cmp	r2, r3
 800632a:	d905      	bls.n	8006338 <xTaskRemoveFromEventList+0xa4>
	{
		/* Return true if the task removed from the event list has a higher
		priority than the calling task.  This allows the calling task to know if
		it should force a context switch now. */
		xReturn = pdTRUE;
 800632c:	2301      	movs	r3, #1
 800632e:	617b      	str	r3, [r7, #20]

		/* Mark that a yield is pending in case the user is not using the
		"xHigherPriorityTaskWoken" parameter to an ISR safe FreeRTOS function. */
		xYieldPending = pdTRUE;
 8006330:	4b0a      	ldr	r3, [pc, #40]	; (800635c <xTaskRemoveFromEventList+0xc8>)
 8006332:	2201      	movs	r2, #1
 8006334:	601a      	str	r2, [r3, #0]
 8006336:	e001      	b.n	800633c <xTaskRemoveFromEventList+0xa8>
	}
	else
	{
		xReturn = pdFALSE;
 8006338:	2300      	movs	r3, #0
 800633a:	617b      	str	r3, [r7, #20]
		ensure it is updated at the earliest possible time. */
		prvResetNextTaskUnblockTime();
	}
	#endif

	return xReturn;
 800633c:	697b      	ldr	r3, [r7, #20]
}
 800633e:	4618      	mov	r0, r3
 8006340:	3718      	adds	r7, #24
 8006342:	46bd      	mov	sp, r7
 8006344:	bd80      	pop	{r7, pc}
 8006346:	bf00      	nop
 8006348:	200003b4 	.word	0x200003b4
 800634c:	20000394 	.word	0x20000394
 8006350:	20000290 	.word	0x20000290
 8006354:	2000034c 	.word	0x2000034c
 8006358:	2000028c 	.word	0x2000028c
 800635c:	200003a0 	.word	0x200003a0

08006360 <prvIdleTask>:
 *
 * void prvIdleTask( void *pvParameters );
 *
 */
static portTASK_FUNCTION( prvIdleTask, pvParameters )
{
 8006360:	b580      	push	{r7, lr}
 8006362:	b082      	sub	sp, #8
 8006364:	af00      	add	r7, sp, #0
 8006366:	6078      	str	r0, [r7, #4]

	for( ;; )
	{
		/* See if any tasks have deleted themselves - if so then the idle task
		is responsible for freeing the deleted task's TCB and stack. */
		prvCheckTasksWaitingTermination();
 8006368:	f000 f852 	bl	8006410 <prvCheckTasksWaitingTermination>

			A critical region is not required here as we are just reading from
			the list, and an occasional incorrect value will not matter.  If
			the ready list at the idle priority contains more than one task
			then a task other than the idle task is ready to execute. */
			if( listCURRENT_LIST_LENGTH( &( pxReadyTasksLists[ tskIDLE_PRIORITY ] ) ) > ( UBaseType_t ) 1 )
 800636c:	4b06      	ldr	r3, [pc, #24]	; (8006388 <prvIdleTask+0x28>)
 800636e:	681b      	ldr	r3, [r3, #0]
 8006370:	2b01      	cmp	r3, #1
 8006372:	d9f9      	bls.n	8006368 <prvIdleTask+0x8>
			{
				taskYIELD();
 8006374:	4b05      	ldr	r3, [pc, #20]	; (800638c <prvIdleTask+0x2c>)
 8006376:	f04f 5280 	mov.w	r2, #268435456	; 0x10000000
 800637a:	601a      	str	r2, [r3, #0]
 800637c:	f3bf 8f4f 	dsb	sy
 8006380:	f3bf 8f6f 	isb	sy
		prvCheckTasksWaitingTermination();
 8006384:	e7f0      	b.n	8006368 <prvIdleTask+0x8>
 8006386:	bf00      	nop
 8006388:	20000290 	.word	0x20000290
 800638c:	e000ed04 	.word	0xe000ed04

08006390 <prvInitialiseTaskLists>:

#endif /* portUSING_MPU_WRAPPERS */
/*-----------------------------------------------------------*/

static void prvInitialiseTaskLists( void )
{
 8006390:	b580      	push	{r7, lr}
 8006392:	b082      	sub	sp, #8
 8006394:	af00      	add	r7, sp, #0
UBaseType_t uxPriority;

	for( uxPriority = ( UBaseType_t ) 0U; uxPriority < ( UBaseType_t ) configMAX_PRIORITIES; uxPriority++ )
 8006396:	2300      	movs	r3, #0
 8006398:	607b      	str	r3, [r7, #4]
 800639a:	e00c      	b.n	80063b6 <prvInitialiseTaskLists+0x26>
	{
		vListInitialise( &( pxReadyTasksLists[ uxPriority ] ) );
 800639c:	687a      	ldr	r2, [r7, #4]
 800639e:	4613      	mov	r3, r2
 80063a0:	009b      	lsls	r3, r3, #2
 80063a2:	4413      	add	r3, r2
 80063a4:	009b      	lsls	r3, r3, #2
 80063a6:	4a12      	ldr	r2, [pc, #72]	; (80063f0 <prvInitialiseTaskLists+0x60>)
 80063a8:	4413      	add	r3, r2
 80063aa:	4618      	mov	r0, r3
 80063ac:	f7ff f8c1 	bl	8005532 <vListInitialise>
	for( uxPriority = ( UBaseType_t ) 0U; uxPriority < ( UBaseType_t ) configMAX_PRIORITIES; uxPriority++ )
 80063b0:	687b      	ldr	r3, [r7, #4]
 80063b2:	3301      	adds	r3, #1
 80063b4:	607b      	str	r3, [r7, #4]
 80063b6:	687b      	ldr	r3, [r7, #4]
 80063b8:	2b06      	cmp	r3, #6
 80063ba:	d9ef      	bls.n	800639c <prvInitialiseTaskLists+0xc>
	}

	vListInitialise( &xDelayedTaskList1 );
 80063bc:	480d      	ldr	r0, [pc, #52]	; (80063f4 <prvInitialiseTaskLists+0x64>)
 80063be:	f7ff f8b8 	bl	8005532 <vListInitialise>
	vListInitialise( &xDelayedTaskList2 );
 80063c2:	480d      	ldr	r0, [pc, #52]	; (80063f8 <prvInitialiseTaskLists+0x68>)
 80063c4:	f7ff f8b5 	bl	8005532 <vListInitialise>
	vListInitialise( &xPendingReadyList );
 80063c8:	480c      	ldr	r0, [pc, #48]	; (80063fc <prvInitialiseTaskLists+0x6c>)
 80063ca:	f7ff f8b2 	bl	8005532 <vListInitialise>

	#if ( INCLUDE_vTaskDelete == 1 )
	{
		vListInitialise( &xTasksWaitingTermination );
 80063ce:	480c      	ldr	r0, [pc, #48]	; (8006400 <prvInitialiseTaskLists+0x70>)
 80063d0:	f7ff f8af 	bl	8005532 <vListInitialise>
	}
	#endif /* INCLUDE_vTaskDelete */

	#if ( INCLUDE_vTaskSuspend == 1 )
	{
		vListInitialise( &xSuspendedTaskList );
 80063d4:	480b      	ldr	r0, [pc, #44]	; (8006404 <prvInitialiseTaskLists+0x74>)
 80063d6:	f7ff f8ac 	bl	8005532 <vListInitialise>
	}
	#endif /* INCLUDE_vTaskSuspend */

	/* Start with pxDelayedTaskList using list1 and the pxOverflowDelayedTaskList
	using list2. */
	pxDelayedTaskList = &xDelayedTaskList1;
 80063da:	4b0b      	ldr	r3, [pc, #44]	; (8006408 <prvInitialiseTaskLists+0x78>)
 80063dc:	4a05      	ldr	r2, [pc, #20]	; (80063f4 <prvInitialiseTaskLists+0x64>)
 80063de:	601a      	str	r2, [r3, #0]
	pxOverflowDelayedTaskList = &xDelayedTaskList2;
 80063e0:	4b0a      	ldr	r3, [pc, #40]	; (800640c <prvInitialiseTaskLists+0x7c>)
 80063e2:	4a05      	ldr	r2, [pc, #20]	; (80063f8 <prvInitialiseTaskLists+0x68>)
 80063e4:	601a      	str	r2, [r3, #0]
}
 80063e6:	bf00      	nop
 80063e8:	3708      	adds	r7, #8
 80063ea:	46bd      	mov	sp, r7
 80063ec:	bd80      	pop	{r7, pc}
 80063ee:	bf00      	nop
 80063f0:	20000290 	.word	0x20000290
 80063f4:	2000031c 	.word	0x2000031c
 80063f8:	20000330 	.word	0x20000330
 80063fc:	2000034c 	.word	0x2000034c
 8006400:	20000360 	.word	0x20000360
 8006404:	20000378 	.word	0x20000378
 8006408:	20000344 	.word	0x20000344
 800640c:	20000348 	.word	0x20000348

08006410 <prvCheckTasksWaitingTermination>:
/*-----------------------------------------------------------*/

static void prvCheckTasksWaitingTermination( void )
{
 8006410:	b580      	push	{r7, lr}
 8006412:	b082      	sub	sp, #8
 8006414:	af00      	add	r7, sp, #0
	{
		TCB_t *pxTCB;

		/* uxDeletedTasksWaitingCleanUp is used to prevent vTaskSuspendAll()
		being called too often in the idle task. */
		while( uxDeletedTasksWaitingCleanUp > ( UBaseType_t ) 0U )
 8006416:	e019      	b.n	800644c <prvCheckTasksWaitingTermination+0x3c>
		{
			taskENTER_CRITICAL();
 8006418:	f000 fa34 	bl	8006884 <vPortEnterCritical>
			{
				pxTCB = ( TCB_t * ) listGET_OWNER_OF_HEAD_ENTRY( ( &xTasksWaitingTermination ) );
 800641c:	4b0f      	ldr	r3, [pc, #60]	; (800645c <prvCheckTasksWaitingTermination+0x4c>)
 800641e:	68db      	ldr	r3, [r3, #12]
 8006420:	68db      	ldr	r3, [r3, #12]
 8006422:	607b      	str	r3, [r7, #4]
				( void ) uxListRemove( &( pxTCB->xStateListItem ) );
 8006424:	687b      	ldr	r3, [r7, #4]
 8006426:	3304      	adds	r3, #4
 8006428:	4618      	mov	r0, r3
 800642a:	f7ff f908 	bl	800563e <uxListRemove>
				--uxCurrentNumberOfTasks;
 800642e:	4b0c      	ldr	r3, [pc, #48]	; (8006460 <prvCheckTasksWaitingTermination+0x50>)
 8006430:	681b      	ldr	r3, [r3, #0]
 8006432:	3b01      	subs	r3, #1
 8006434:	4a0a      	ldr	r2, [pc, #40]	; (8006460 <prvCheckTasksWaitingTermination+0x50>)
 8006436:	6013      	str	r3, [r2, #0]
				--uxDeletedTasksWaitingCleanUp;
 8006438:	4b0a      	ldr	r3, [pc, #40]	; (8006464 <prvCheckTasksWaitingTermination+0x54>)
 800643a:	681b      	ldr	r3, [r3, #0]
 800643c:	3b01      	subs	r3, #1
 800643e:	4a09      	ldr	r2, [pc, #36]	; (8006464 <prvCheckTasksWaitingTermination+0x54>)
 8006440:	6013      	str	r3, [r2, #0]
			}
			taskEXIT_CRITICAL();
 8006442:	f000 fa4d 	bl	80068e0 <vPortExitCritical>

			prvDeleteTCB( pxTCB );
 8006446:	6878      	ldr	r0, [r7, #4]
 8006448:	f000 f80e 	bl	8006468 <prvDeleteTCB>
		while( uxDeletedTasksWaitingCleanUp > ( UBaseType_t ) 0U )
 800644c:	4b05      	ldr	r3, [pc, #20]	; (8006464 <prvCheckTasksWaitingTermination+0x54>)
 800644e:	681b      	ldr	r3, [r3, #0]
 8006450:	2b00      	cmp	r3, #0
 8006452:	d1e1      	bne.n	8006418 <prvCheckTasksWaitingTermination+0x8>
		}
	}
	#endif /* INCLUDE_vTaskDelete */
}
 8006454:	bf00      	nop
 8006456:	3708      	adds	r7, #8
 8006458:	46bd      	mov	sp, r7
 800645a:	bd80      	pop	{r7, pc}
 800645c:	20000360 	.word	0x20000360
 8006460:	2000038c 	.word	0x2000038c
 8006464:	20000374 	.word	0x20000374

08006468 <prvDeleteTCB>:
	/*-----------------------------------------------------------*/

#if ( INCLUDE_vTaskDelete == 1 )

	static void prvDeleteTCB( TCB_t *pxTCB )
	{
 8006468:	b580      	push	{r7, lr}
 800646a:	b084      	sub	sp, #16
 800646c:	af00      	add	r7, sp, #0
 800646e:	6078      	str	r0, [r7, #4]
		#elif( tskSTATIC_AND_DYNAMIC_ALLOCATION_POSSIBLE != 0 ) /*lint !e731 Macro has been consolidated for readability reasons. */
		{
			/* The task could have been allocated statically or dynamically, so
			check what was statically allocated before trying to free the
			memory. */
			if( pxTCB->ucStaticallyAllocated == tskDYNAMICALLY_ALLOCATED_STACK_AND_TCB )
 8006470:	687b      	ldr	r3, [r7, #4]
 8006472:	f893 3051 	ldrb.w	r3, [r3, #81]	; 0x51
 8006476:	2b00      	cmp	r3, #0
 8006478:	d108      	bne.n	800648c <prvDeleteTCB+0x24>
			{
				/* Both the stack and TCB were allocated dynamically, so both
				must be freed. */
				vPortFree( pxTCB->pxStack );
 800647a:	687b      	ldr	r3, [r7, #4]
 800647c:	6b1b      	ldr	r3, [r3, #48]	; 0x30
 800647e:	4618      	mov	r0, r3
 8006480:	f000 fb86 	bl	8006b90 <vPortFree>
				vPortFree( pxTCB );
 8006484:	6878      	ldr	r0, [r7, #4]
 8006486:	f000 fb83 	bl	8006b90 <vPortFree>
				configASSERT( pxTCB->ucStaticallyAllocated == tskSTATICALLY_ALLOCATED_STACK_AND_TCB	);
				mtCOVERAGE_TEST_MARKER();
			}
		}
		#endif /* configSUPPORT_DYNAMIC_ALLOCATION */
	}
 800648a:	e017      	b.n	80064bc <prvDeleteTCB+0x54>
			else if( pxTCB->ucStaticallyAllocated == tskSTATICALLY_ALLOCATED_STACK_ONLY )
 800648c:	687b      	ldr	r3, [r7, #4]
 800648e:	f893 3051 	ldrb.w	r3, [r3, #81]	; 0x51
 8006492:	2b01      	cmp	r3, #1
 8006494:	d103      	bne.n	800649e <prvDeleteTCB+0x36>
				vPortFree( pxTCB );
 8006496:	6878      	ldr	r0, [r7, #4]
 8006498:	f000 fb7a 	bl	8006b90 <vPortFree>
	}
 800649c:	e00e      	b.n	80064bc <prvDeleteTCB+0x54>
				configASSERT( pxTCB->ucStaticallyAllocated == tskSTATICALLY_ALLOCATED_STACK_AND_TCB	);
 800649e:	687b      	ldr	r3, [r7, #4]
 80064a0:	f893 3051 	ldrb.w	r3, [r3, #81]	; 0x51
 80064a4:	2b02      	cmp	r3, #2
 80064a6:	d009      	beq.n	80064bc <prvDeleteTCB+0x54>
 80064a8:	f04f 0350 	mov.w	r3, #80	; 0x50
 80064ac:	f383 8811 	msr	BASEPRI, r3
 80064b0:	f3bf 8f6f 	isb	sy
 80064b4:	f3bf 8f4f 	dsb	sy
 80064b8:	60fb      	str	r3, [r7, #12]
 80064ba:	e7fe      	b.n	80064ba <prvDeleteTCB+0x52>
	}
 80064bc:	bf00      	nop
 80064be:	3710      	adds	r7, #16
 80064c0:	46bd      	mov	sp, r7
 80064c2:	bd80      	pop	{r7, pc}

080064c4 <prvResetNextTaskUnblockTime>:

#endif /* INCLUDE_vTaskDelete */
/*-----------------------------------------------------------*/

static void prvResetNextTaskUnblockTime( void )
{
 80064c4:	b480      	push	{r7}
 80064c6:	b083      	sub	sp, #12
 80064c8:	af00      	add	r7, sp, #0
TCB_t *pxTCB;

	if( listLIST_IS_EMPTY( pxDelayedTaskList ) != pdFALSE )
 80064ca:	4b0e      	ldr	r3, [pc, #56]	; (8006504 <prvResetNextTaskUnblockTime+0x40>)
 80064cc:	681b      	ldr	r3, [r3, #0]
 80064ce:	681b      	ldr	r3, [r3, #0]
 80064d0:	2b00      	cmp	r3, #0
 80064d2:	d101      	bne.n	80064d8 <prvResetNextTaskUnblockTime+0x14>
 80064d4:	2301      	movs	r3, #1
 80064d6:	e000      	b.n	80064da <prvResetNextTaskUnblockTime+0x16>
 80064d8:	2300      	movs	r3, #0
 80064da:	2b00      	cmp	r3, #0
 80064dc:	d004      	beq.n	80064e8 <prvResetNextTaskUnblockTime+0x24>
	{
		/* The new current delayed list is empty.  Set xNextTaskUnblockTime to
		the maximum possible value so it is	extremely unlikely that the
		if( xTickCount >= xNextTaskUnblockTime ) test will pass until
		there is an item in the delayed list. */
		xNextTaskUnblockTime = portMAX_DELAY;
 80064de:	4b0a      	ldr	r3, [pc, #40]	; (8006508 <prvResetNextTaskUnblockTime+0x44>)
 80064e0:	f04f 32ff 	mov.w	r2, #4294967295
 80064e4:	601a      	str	r2, [r3, #0]
		which the task at the head of the delayed list should be removed
		from the Blocked state. */
		( pxTCB ) = ( TCB_t * ) listGET_OWNER_OF_HEAD_ENTRY( pxDelayedTaskList );
		xNextTaskUnblockTime = listGET_LIST_ITEM_VALUE( &( ( pxTCB )->xStateListItem ) );
	}
}
 80064e6:	e008      	b.n	80064fa <prvResetNextTaskUnblockTime+0x36>
		( pxTCB ) = ( TCB_t * ) listGET_OWNER_OF_HEAD_ENTRY( pxDelayedTaskList );
 80064e8:	4b06      	ldr	r3, [pc, #24]	; (8006504 <prvResetNextTaskUnblockTime+0x40>)
 80064ea:	681b      	ldr	r3, [r3, #0]
 80064ec:	68db      	ldr	r3, [r3, #12]
 80064ee:	68db      	ldr	r3, [r3, #12]
 80064f0:	607b      	str	r3, [r7, #4]
		xNextTaskUnblockTime = listGET_LIST_ITEM_VALUE( &( ( pxTCB )->xStateListItem ) );
 80064f2:	687b      	ldr	r3, [r7, #4]
 80064f4:	685b      	ldr	r3, [r3, #4]
 80064f6:	4a04      	ldr	r2, [pc, #16]	; (8006508 <prvResetNextTaskUnblockTime+0x44>)
 80064f8:	6013      	str	r3, [r2, #0]
}
 80064fa:	bf00      	nop
 80064fc:	370c      	adds	r7, #12
 80064fe:	46bd      	mov	sp, r7
 8006500:	bc80      	pop	{r7}
 8006502:	4770      	bx	lr
 8006504:	20000344 	.word	0x20000344
 8006508:	200003ac 	.word	0x200003ac

0800650c <prvAddCurrentTaskToDelayedList>:
#endif /* configUSE_TASK_NOTIFICATIONS */
/*-----------------------------------------------------------*/


static void prvAddCurrentTaskToDelayedList( TickType_t xTicksToWait, const BaseType_t xCanBlockIndefinitely )
{
 800650c:	b580      	push	{r7, lr}
 800650e:	b084      	sub	sp, #16
 8006510:	af00      	add	r7, sp, #0
 8006512:	6078      	str	r0, [r7, #4]
 8006514:	6039      	str	r1, [r7, #0]
TickType_t xTimeToWake;
const TickType_t xConstTickCount = xTickCount;
 8006516:	4b32      	ldr	r3, [pc, #200]	; (80065e0 <prvAddCurrentTaskToDelayedList+0xd4>)
 8006518:	681b      	ldr	r3, [r3, #0]
 800651a:	60fb      	str	r3, [r7, #12]
	}
	#endif

	/* Remove the task from the ready list before adding it to the blocked list
	as the same list item is used for both lists. */
	if( uxListRemove( &( pxCurrentTCB->xStateListItem ) ) == ( UBaseType_t ) 0 )
 800651c:	4b31      	ldr	r3, [pc, #196]	; (80065e4 <prvAddCurrentTaskToDelayedList+0xd8>)
 800651e:	681b      	ldr	r3, [r3, #0]
 8006520:	3304      	adds	r3, #4
 8006522:	4618      	mov	r0, r3
 8006524:	f7ff f88b 	bl	800563e <uxListRemove>
 8006528:	4603      	mov	r3, r0
 800652a:	2b00      	cmp	r3, #0
 800652c:	d10b      	bne.n	8006546 <prvAddCurrentTaskToDelayedList+0x3a>
	{
		/* The current task must be in a ready list, so there is no need to
		check, and the port reset macro can be called directly. */
		portRESET_READY_PRIORITY( pxCurrentTCB->uxPriority, uxTopReadyPriority );
 800652e:	4b2d      	ldr	r3, [pc, #180]	; (80065e4 <prvAddCurrentTaskToDelayedList+0xd8>)
 8006530:	681b      	ldr	r3, [r3, #0]
 8006532:	6adb      	ldr	r3, [r3, #44]	; 0x2c
 8006534:	2201      	movs	r2, #1
 8006536:	fa02 f303 	lsl.w	r3, r2, r3
 800653a:	43da      	mvns	r2, r3
 800653c:	4b2a      	ldr	r3, [pc, #168]	; (80065e8 <prvAddCurrentTaskToDelayedList+0xdc>)
 800653e:	681b      	ldr	r3, [r3, #0]
 8006540:	4013      	ands	r3, r2
 8006542:	4a29      	ldr	r2, [pc, #164]	; (80065e8 <prvAddCurrentTaskToDelayedList+0xdc>)
 8006544:	6013      	str	r3, [r2, #0]
		mtCOVERAGE_TEST_MARKER();
	}

	#if ( INCLUDE_vTaskSuspend == 1 )
	{
		if( ( xTicksToWait == portMAX_DELAY ) && ( xCanBlockIndefinitely != pdFALSE ) )
 8006546:	687b      	ldr	r3, [r7, #4]
 8006548:	f1b3 3fff 	cmp.w	r3, #4294967295
 800654c:	d110      	bne.n	8006570 <prvAddCurrentTaskToDelayedList+0x64>
 800654e:	683b      	ldr	r3, [r7, #0]
 8006550:	2b00      	cmp	r3, #0
 8006552:	d00d      	beq.n	8006570 <prvAddCurrentTaskToDelayedList+0x64>
		{
			/* Add the task to the suspended task list instead of a delayed task
			list to ensure it is not woken by a timing event.  It will block
			indefinitely. */
			traceMOVED_TASK_TO_SUSPENDED_LIST(pxCurrentTCB);
 8006554:	4b23      	ldr	r3, [pc, #140]	; (80065e4 <prvAddCurrentTaskToDelayedList+0xd8>)
 8006556:	681b      	ldr	r3, [r3, #0]
 8006558:	211b      	movs	r1, #27
 800655a:	4618      	mov	r0, r3
 800655c:	f001 fd8c 	bl	8008078 <SEGGER_SYSVIEW_OnTaskStopReady>
			vListInsertEnd( &xSuspendedTaskList, &( pxCurrentTCB->xStateListItem ) );
 8006560:	4b20      	ldr	r3, [pc, #128]	; (80065e4 <prvAddCurrentTaskToDelayedList+0xd8>)
 8006562:	681b      	ldr	r3, [r3, #0]
 8006564:	3304      	adds	r3, #4
 8006566:	4619      	mov	r1, r3
 8006568:	4820      	ldr	r0, [pc, #128]	; (80065ec <prvAddCurrentTaskToDelayedList+0xe0>)
 800656a:	f7ff f80d 	bl	8005588 <vListInsertEnd>

		/* Avoid compiler warning when INCLUDE_vTaskSuspend is not 1. */
		( void ) xCanBlockIndefinitely;
	}
	#endif /* INCLUDE_vTaskSuspend */
}
 800656e:	e032      	b.n	80065d6 <prvAddCurrentTaskToDelayedList+0xca>
			xTimeToWake = xConstTickCount + xTicksToWait;
 8006570:	68fa      	ldr	r2, [r7, #12]
 8006572:	687b      	ldr	r3, [r7, #4]
 8006574:	4413      	add	r3, r2
 8006576:	60bb      	str	r3, [r7, #8]
			listSET_LIST_ITEM_VALUE( &( pxCurrentTCB->xStateListItem ), xTimeToWake );
 8006578:	4b1a      	ldr	r3, [pc, #104]	; (80065e4 <prvAddCurrentTaskToDelayedList+0xd8>)
 800657a:	681b      	ldr	r3, [r3, #0]
 800657c:	68ba      	ldr	r2, [r7, #8]
 800657e:	605a      	str	r2, [r3, #4]
			if( xTimeToWake < xConstTickCount )
 8006580:	68ba      	ldr	r2, [r7, #8]
 8006582:	68fb      	ldr	r3, [r7, #12]
 8006584:	429a      	cmp	r2, r3
 8006586:	d20f      	bcs.n	80065a8 <prvAddCurrentTaskToDelayedList+0x9c>
				traceMOVED_TASK_TO_OVERFLOW_DELAYED_LIST();
 8006588:	4b16      	ldr	r3, [pc, #88]	; (80065e4 <prvAddCurrentTaskToDelayedList+0xd8>)
 800658a:	681b      	ldr	r3, [r3, #0]
 800658c:	2104      	movs	r1, #4
 800658e:	4618      	mov	r0, r3
 8006590:	f001 fd72 	bl	8008078 <SEGGER_SYSVIEW_OnTaskStopReady>
				vListInsert( pxOverflowDelayedTaskList, &( pxCurrentTCB->xStateListItem ) );
 8006594:	4b16      	ldr	r3, [pc, #88]	; (80065f0 <prvAddCurrentTaskToDelayedList+0xe4>)
 8006596:	681a      	ldr	r2, [r3, #0]
 8006598:	4b12      	ldr	r3, [pc, #72]	; (80065e4 <prvAddCurrentTaskToDelayedList+0xd8>)
 800659a:	681b      	ldr	r3, [r3, #0]
 800659c:	3304      	adds	r3, #4
 800659e:	4619      	mov	r1, r3
 80065a0:	4610      	mov	r0, r2
 80065a2:	f7ff f814 	bl	80055ce <vListInsert>
}
 80065a6:	e016      	b.n	80065d6 <prvAddCurrentTaskToDelayedList+0xca>
				traceMOVED_TASK_TO_DELAYED_LIST();
 80065a8:	4b0e      	ldr	r3, [pc, #56]	; (80065e4 <prvAddCurrentTaskToDelayedList+0xd8>)
 80065aa:	681b      	ldr	r3, [r3, #0]
 80065ac:	2104      	movs	r1, #4
 80065ae:	4618      	mov	r0, r3
 80065b0:	f001 fd62 	bl	8008078 <SEGGER_SYSVIEW_OnTaskStopReady>
				vListInsert( pxDelayedTaskList, &( pxCurrentTCB->xStateListItem ) );
 80065b4:	4b0f      	ldr	r3, [pc, #60]	; (80065f4 <prvAddCurrentTaskToDelayedList+0xe8>)
 80065b6:	681a      	ldr	r2, [r3, #0]
 80065b8:	4b0a      	ldr	r3, [pc, #40]	; (80065e4 <prvAddCurrentTaskToDelayedList+0xd8>)
 80065ba:	681b      	ldr	r3, [r3, #0]
 80065bc:	3304      	adds	r3, #4
 80065be:	4619      	mov	r1, r3
 80065c0:	4610      	mov	r0, r2
 80065c2:	f7ff f804 	bl	80055ce <vListInsert>
				if( xTimeToWake < xNextTaskUnblockTime )
 80065c6:	4b0c      	ldr	r3, [pc, #48]	; (80065f8 <prvAddCurrentTaskToDelayedList+0xec>)
 80065c8:	681b      	ldr	r3, [r3, #0]
 80065ca:	68ba      	ldr	r2, [r7, #8]
 80065cc:	429a      	cmp	r2, r3
 80065ce:	d202      	bcs.n	80065d6 <prvAddCurrentTaskToDelayedList+0xca>
					xNextTaskUnblockTime = xTimeToWake;
 80065d0:	4a09      	ldr	r2, [pc, #36]	; (80065f8 <prvAddCurrentTaskToDelayedList+0xec>)
 80065d2:	68bb      	ldr	r3, [r7, #8]
 80065d4:	6013      	str	r3, [r2, #0]
}
 80065d6:	bf00      	nop
 80065d8:	3710      	adds	r7, #16
 80065da:	46bd      	mov	sp, r7
 80065dc:	bd80      	pop	{r7, pc}
 80065de:	bf00      	nop
 80065e0:	20000390 	.word	0x20000390
 80065e4:	2000028c 	.word	0x2000028c
 80065e8:	20000394 	.word	0x20000394
 80065ec:	20000378 	.word	0x20000378
 80065f0:	20000348 	.word	0x20000348
 80065f4:	20000344 	.word	0x20000344
 80065f8:	200003ac 	.word	0x200003ac

080065fc <pxPortInitialiseStack>:

/*
 * See header file for description.
 */
StackType_t *pxPortInitialiseStack( StackType_t *pxTopOfStack, TaskFunction_t pxCode, void *pvParameters )
{
 80065fc:	b480      	push	{r7}
 80065fe:	b085      	sub	sp, #20
 8006600:	af00      	add	r7, sp, #0
 8006602:	60f8      	str	r0, [r7, #12]
 8006604:	60b9      	str	r1, [r7, #8]
 8006606:	607a      	str	r2, [r7, #4]
	/* Simulate the stack frame as it would be created by a context switch
	interrupt. */
	pxTopOfStack--; /* Offset added to account for the way the MCU uses the stack on entry/exit of interrupts. */
 8006608:	68fb      	ldr	r3, [r7, #12]
 800660a:	3b04      	subs	r3, #4
 800660c:	60fb      	str	r3, [r7, #12]
	*pxTopOfStack = portINITIAL_XPSR;	/* xPSR */
 800660e:	68fb      	ldr	r3, [r7, #12]
 8006610:	f04f 7280 	mov.w	r2, #16777216	; 0x1000000
 8006614:	601a      	str	r2, [r3, #0]
	pxTopOfStack--;
 8006616:	68fb      	ldr	r3, [r7, #12]
 8006618:	3b04      	subs	r3, #4
 800661a:	60fb      	str	r3, [r7, #12]
	*pxTopOfStack = ( ( StackType_t ) pxCode ) & portSTART_ADDRESS_MASK;	/* PC */
 800661c:	68bb      	ldr	r3, [r7, #8]
 800661e:	f023 0201 	bic.w	r2, r3, #1
 8006622:	68fb      	ldr	r3, [r7, #12]
 8006624:	601a      	str	r2, [r3, #0]
	pxTopOfStack--;
 8006626:	68fb      	ldr	r3, [r7, #12]
 8006628:	3b04      	subs	r3, #4
 800662a:	60fb      	str	r3, [r7, #12]
	*pxTopOfStack = ( StackType_t ) portTASK_RETURN_ADDRESS;	/* LR */
 800662c:	4a08      	ldr	r2, [pc, #32]	; (8006650 <pxPortInitialiseStack+0x54>)
 800662e:	68fb      	ldr	r3, [r7, #12]
 8006630:	601a      	str	r2, [r3, #0]
	pxTopOfStack -= 5;	/* R12, R3, R2 and R1. */
 8006632:	68fb      	ldr	r3, [r7, #12]
 8006634:	3b14      	subs	r3, #20
 8006636:	60fb      	str	r3, [r7, #12]
	*pxTopOfStack = ( StackType_t ) pvParameters;	/* R0 */
 8006638:	687a      	ldr	r2, [r7, #4]
 800663a:	68fb      	ldr	r3, [r7, #12]
 800663c:	601a      	str	r2, [r3, #0]
	pxTopOfStack -= 8;	/* R11, R10, R9, R8, R7, R6, R5 and R4. */
 800663e:	68fb      	ldr	r3, [r7, #12]
 8006640:	3b20      	subs	r3, #32
 8006642:	60fb      	str	r3, [r7, #12]

	return pxTopOfStack;
 8006644:	68fb      	ldr	r3, [r7, #12]
}
 8006646:	4618      	mov	r0, r3
 8006648:	3714      	adds	r7, #20
 800664a:	46bd      	mov	sp, r7
 800664c:	bc80      	pop	{r7}
 800664e:	4770      	bx	lr
 8006650:	08006655 	.word	0x08006655

08006654 <prvTaskExitError>:
/*-----------------------------------------------------------*/

static void prvTaskExitError( void )
{
 8006654:	b480      	push	{r7}
 8006656:	b085      	sub	sp, #20
 8006658:	af00      	add	r7, sp, #0
volatile uint32_t ulDummy = 0UL;
 800665a:	2300      	movs	r3, #0
 800665c:	607b      	str	r3, [r7, #4]
	its caller as there is nothing to return to.  If a task wants to exit it
	should instead call vTaskDelete( NULL ).

	Artificially force an assert() to be triggered if configASSERT() is
	defined, then stop here so application writers can catch the error. */
	configASSERT( uxCriticalNesting == ~0UL );
 800665e:	4b10      	ldr	r3, [pc, #64]	; (80066a0 <prvTaskExitError+0x4c>)
 8006660:	681b      	ldr	r3, [r3, #0]
 8006662:	f1b3 3fff 	cmp.w	r3, #4294967295
 8006666:	d009      	beq.n	800667c <prvTaskExitError+0x28>
 8006668:	f04f 0350 	mov.w	r3, #80	; 0x50
 800666c:	f383 8811 	msr	BASEPRI, r3
 8006670:	f3bf 8f6f 	isb	sy
 8006674:	f3bf 8f4f 	dsb	sy
 8006678:	60fb      	str	r3, [r7, #12]
 800667a:	e7fe      	b.n	800667a <prvTaskExitError+0x26>
 800667c:	f04f 0350 	mov.w	r3, #80	; 0x50
 8006680:	f383 8811 	msr	BASEPRI, r3
 8006684:	f3bf 8f6f 	isb	sy
 8006688:	f3bf 8f4f 	dsb	sy
 800668c:	60bb      	str	r3, [r7, #8]
	portDISABLE_INTERRUPTS();
	while( ulDummy == 0 )
 800668e:	bf00      	nop
 8006690:	687b      	ldr	r3, [r7, #4]
 8006692:	2b00      	cmp	r3, #0
 8006694:	d0fc      	beq.n	8006690 <prvTaskExitError+0x3c>
		about code appearing after this function is called - making ulDummy
		volatile makes the compiler think the function could return and
		therefore not output an 'unreachable code' warning for code that appears
		after it. */
	}
}
 8006696:	bf00      	nop
 8006698:	3714      	adds	r7, #20
 800669a:	46bd      	mov	sp, r7
 800669c:	bc80      	pop	{r7}
 800669e:	4770      	bx	lr
 80066a0:	2000000c 	.word	0x2000000c
	...

080066b0 <SVC_Handler>:
/*-----------------------------------------------------------*/

void vPortSVCHandler( void )
{
	__asm volatile (
 80066b0:	4b07      	ldr	r3, [pc, #28]	; (80066d0 <pxCurrentTCBConst2>)
 80066b2:	6819      	ldr	r1, [r3, #0]
 80066b4:	6808      	ldr	r0, [r1, #0]
 80066b6:	e8b0 0ff0 	ldmia.w	r0!, {r4, r5, r6, r7, r8, r9, sl, fp}
 80066ba:	f380 8809 	msr	PSP, r0
 80066be:	f3bf 8f6f 	isb	sy
 80066c2:	f04f 0000 	mov.w	r0, #0
 80066c6:	f380 8811 	msr	BASEPRI, r0
 80066ca:	f04e 0e0d 	orr.w	lr, lr, #13
 80066ce:	4770      	bx	lr

080066d0 <pxCurrentTCBConst2>:
 80066d0:	2000028c 	.word	0x2000028c
					"	bx r14							\n"
					"									\n"
					"	.align 4						\n"
					"pxCurrentTCBConst2: .word pxCurrentTCB				\n"
				);
}
 80066d4:	bf00      	nop
 80066d6:	bf00      	nop

080066d8 <prvPortStartFirstTask>:
/*-----------------------------------------------------------*/

static void prvPortStartFirstTask( void )
{
	__asm volatile(
 80066d8:	4806      	ldr	r0, [pc, #24]	; (80066f4 <prvPortStartFirstTask+0x1c>)
 80066da:	6800      	ldr	r0, [r0, #0]
 80066dc:	6800      	ldr	r0, [r0, #0]
 80066de:	f380 8808 	msr	MSP, r0
 80066e2:	b662      	cpsie	i
 80066e4:	b661      	cpsie	f
 80066e6:	f3bf 8f4f 	dsb	sy
 80066ea:	f3bf 8f6f 	isb	sy
 80066ee:	df00      	svc	0
 80066f0:	bf00      	nop
					" dsb					\n"
					" isb					\n"
					" svc 0					\n" /* System call to start first task. */
					" nop					\n"
				);
}
 80066f2:	bf00      	nop
 80066f4:	e000ed08 	.word	0xe000ed08

080066f8 <xPortStartScheduler>:

/*
 * See header file for description.
 */
BaseType_t xPortStartScheduler( void )
{
 80066f8:	b580      	push	{r7, lr}
 80066fa:	b084      	sub	sp, #16
 80066fc:	af00      	add	r7, sp, #0
	configASSERT( configMAX_SYSCALL_INTERRUPT_PRIORITY );

	#if( configASSERT_DEFINED == 1 )
	{
		volatile uint32_t ulOriginalPriority;
		volatile uint8_t * const pucFirstUserPriorityRegister = ( volatile uint8_t * const ) ( portNVIC_IP_REGISTERS_OFFSET_16 + portFIRST_USER_INTERRUPT_NUMBER );
 80066fe:	4b31      	ldr	r3, [pc, #196]	; (80067c4 <xPortStartScheduler+0xcc>)
 8006700:	60fb      	str	r3, [r7, #12]
		functions can be called.  ISR safe functions are those that end in
		"FromISR".  FreeRTOS maintains separate thread and ISR API functions to
		ensure interrupt entry is as fast and simple as possible.

		Save the interrupt priority value that is about to be clobbered. */
		ulOriginalPriority = *pucFirstUserPriorityRegister;
 8006702:	68fb      	ldr	r3, [r7, #12]
 8006704:	781b      	ldrb	r3, [r3, #0]
 8006706:	b2db      	uxtb	r3, r3
 8006708:	607b      	str	r3, [r7, #4]

		/* Determine the number of priority bits available.  First write to all
		possible bits. */
		*pucFirstUserPriorityRegister = portMAX_8_BIT_VALUE;
 800670a:	68fb      	ldr	r3, [r7, #12]
 800670c:	22ff      	movs	r2, #255	; 0xff
 800670e:	701a      	strb	r2, [r3, #0]

		/* Read the value back to see how many bits stuck. */
		ucMaxPriorityValue = *pucFirstUserPriorityRegister;
 8006710:	68fb      	ldr	r3, [r7, #12]
 8006712:	781b      	ldrb	r3, [r3, #0]
 8006714:	b2db      	uxtb	r3, r3
 8006716:	70fb      	strb	r3, [r7, #3]

		/* Use the same mask on the maximum system call priority. */
		ucMaxSysCallPriority = configMAX_SYSCALL_INTERRUPT_PRIORITY & ucMaxPriorityValue;
 8006718:	78fb      	ldrb	r3, [r7, #3]
 800671a:	b2db      	uxtb	r3, r3
 800671c:	f003 0350 	and.w	r3, r3, #80	; 0x50
 8006720:	b2da      	uxtb	r2, r3
 8006722:	4b29      	ldr	r3, [pc, #164]	; (80067c8 <xPortStartScheduler+0xd0>)
 8006724:	701a      	strb	r2, [r3, #0]

		/* Calculate the maximum acceptable priority group value for the number
		of bits read back. */
		ulMaxPRIGROUPValue = portMAX_PRIGROUP_BITS;
 8006726:	4b29      	ldr	r3, [pc, #164]	; (80067cc <xPortStartScheduler+0xd4>)
 8006728:	2207      	movs	r2, #7
 800672a:	601a      	str	r2, [r3, #0]
		while( ( ucMaxPriorityValue & portTOP_BIT_OF_BYTE ) == portTOP_BIT_OF_BYTE )
 800672c:	e009      	b.n	8006742 <xPortStartScheduler+0x4a>
		{
			ulMaxPRIGROUPValue--;
 800672e:	4b27      	ldr	r3, [pc, #156]	; (80067cc <xPortStartScheduler+0xd4>)
 8006730:	681b      	ldr	r3, [r3, #0]
 8006732:	3b01      	subs	r3, #1
 8006734:	4a25      	ldr	r2, [pc, #148]	; (80067cc <xPortStartScheduler+0xd4>)
 8006736:	6013      	str	r3, [r2, #0]
			ucMaxPriorityValue <<= ( uint8_t ) 0x01;
 8006738:	78fb      	ldrb	r3, [r7, #3]
 800673a:	b2db      	uxtb	r3, r3
 800673c:	005b      	lsls	r3, r3, #1
 800673e:	b2db      	uxtb	r3, r3
 8006740:	70fb      	strb	r3, [r7, #3]
		while( ( ucMaxPriorityValue & portTOP_BIT_OF_BYTE ) == portTOP_BIT_OF_BYTE )
 8006742:	78fb      	ldrb	r3, [r7, #3]
 8006744:	b2db      	uxtb	r3, r3
 8006746:	f003 0380 	and.w	r3, r3, #128	; 0x80
 800674a:	2b80      	cmp	r3, #128	; 0x80
 800674c:	d0ef      	beq.n	800672e <xPortStartScheduler+0x36>
		#ifdef configPRIO_BITS
		{
			/* Check the FreeRTOS configuration that defines the number of
			priority bits matches the number of priority bits actually queried
			from the hardware. */
			configASSERT( ( portMAX_PRIGROUP_BITS - ulMaxPRIGROUPValue ) == configPRIO_BITS );
 800674e:	4b1f      	ldr	r3, [pc, #124]	; (80067cc <xPortStartScheduler+0xd4>)
 8006750:	681b      	ldr	r3, [r3, #0]
 8006752:	f1c3 0307 	rsb	r3, r3, #7
 8006756:	2b04      	cmp	r3, #4
 8006758:	d009      	beq.n	800676e <xPortStartScheduler+0x76>
 800675a:	f04f 0350 	mov.w	r3, #80	; 0x50
 800675e:	f383 8811 	msr	BASEPRI, r3
 8006762:	f3bf 8f6f 	isb	sy
 8006766:	f3bf 8f4f 	dsb	sy
 800676a:	60bb      	str	r3, [r7, #8]
 800676c:	e7fe      	b.n	800676c <xPortStartScheduler+0x74>
		}
		#endif

		/* Shift the priority group value back to its position within the AIRCR
		register. */
		ulMaxPRIGROUPValue <<= portPRIGROUP_SHIFT;
 800676e:	4b17      	ldr	r3, [pc, #92]	; (80067cc <xPortStartScheduler+0xd4>)
 8006770:	681b      	ldr	r3, [r3, #0]
 8006772:	021b      	lsls	r3, r3, #8
 8006774:	4a15      	ldr	r2, [pc, #84]	; (80067cc <xPortStartScheduler+0xd4>)
 8006776:	6013      	str	r3, [r2, #0]
		ulMaxPRIGROUPValue &= portPRIORITY_GROUP_MASK;
 8006778:	4b14      	ldr	r3, [pc, #80]	; (80067cc <xPortStartScheduler+0xd4>)
 800677a:	681b      	ldr	r3, [r3, #0]
 800677c:	f403 63e0 	and.w	r3, r3, #1792	; 0x700
 8006780:	4a12      	ldr	r2, [pc, #72]	; (80067cc <xPortStartScheduler+0xd4>)
 8006782:	6013      	str	r3, [r2, #0]

		/* Restore the clobbered interrupt priority register to its original
		value. */
		*pucFirstUserPriorityRegister = ulOriginalPriority;
 8006784:	687b      	ldr	r3, [r7, #4]
 8006786:	b2da      	uxtb	r2, r3
 8006788:	68fb      	ldr	r3, [r7, #12]
 800678a:	701a      	strb	r2, [r3, #0]
	}
	#endif /* conifgASSERT_DEFINED */

	/* Make PendSV and SysTick the lowest priority interrupts. */
	portNVIC_SYSPRI2_REG |= portNVIC_PENDSV_PRI;
 800678c:	4b10      	ldr	r3, [pc, #64]	; (80067d0 <xPortStartScheduler+0xd8>)
 800678e:	681b      	ldr	r3, [r3, #0]
 8006790:	4a0f      	ldr	r2, [pc, #60]	; (80067d0 <xPortStartScheduler+0xd8>)
 8006792:	f443 0370 	orr.w	r3, r3, #15728640	; 0xf00000
 8006796:	6013      	str	r3, [r2, #0]
	portNVIC_SYSPRI2_REG |= portNVIC_SYSTICK_PRI;
 8006798:	4b0d      	ldr	r3, [pc, #52]	; (80067d0 <xPortStartScheduler+0xd8>)
 800679a:	681b      	ldr	r3, [r3, #0]
 800679c:	4a0c      	ldr	r2, [pc, #48]	; (80067d0 <xPortStartScheduler+0xd8>)
 800679e:	f043 4370 	orr.w	r3, r3, #4026531840	; 0xf0000000
 80067a2:	6013      	str	r3, [r2, #0]

	/* Start the timer that generates the tick ISR.  Interrupts are disabled
	here already. */
	vPortSetupTimerInterrupt();
 80067a4:	f000 f910 	bl	80069c8 <vPortSetupTimerInterrupt>

	/* Initialise the critical nesting count ready for the first task. */
	uxCriticalNesting = 0;
 80067a8:	4b0a      	ldr	r3, [pc, #40]	; (80067d4 <xPortStartScheduler+0xdc>)
 80067aa:	2200      	movs	r2, #0
 80067ac:	601a      	str	r2, [r3, #0]

	/* Start the first task. */
	prvPortStartFirstTask();
 80067ae:	f7ff ff93 	bl	80066d8 <prvPortStartFirstTask>
	exit error function to prevent compiler warnings about a static function
	not being called in the case that the application writer overrides this
	functionality by defining configTASK_RETURN_ADDRESS.  Call
	vTaskSwitchContext() so link time optimisation does not remove the
	symbol. */
	vTaskSwitchContext();
 80067b2:	f7ff fd07 	bl	80061c4 <vTaskSwitchContext>
	prvTaskExitError();
 80067b6:	f7ff ff4d 	bl	8006654 <prvTaskExitError>

	/* Should not get here! */
	return 0;
 80067ba:	2300      	movs	r3, #0
}
 80067bc:	4618      	mov	r0, r3
 80067be:	3710      	adds	r7, #16
 80067c0:	46bd      	mov	sp, r7
 80067c2:	bd80      	pop	{r7, pc}
 80067c4:	e000e400 	.word	0xe000e400
 80067c8:	200003b8 	.word	0x200003b8
 80067cc:	200003bc 	.word	0x200003bc
 80067d0:	e000ed20 	.word	0xe000ed20
 80067d4:	2000000c 	.word	0x2000000c

080067d8 <vInitPrioGroupValue>:
/*-----------------------------------------------------------*/
void vInitPrioGroupValue(void)
{
 80067d8:	b480      	push	{r7}
 80067da:	b085      	sub	sp, #20
 80067dc:	af00      	add	r7, sp, #0
  //  configASSERT( portCPUID != portCORTEX_M7_r0p0_ID );

    #if ( configASSERT_DEFINED == 1 )
        {
            volatile uint32_t ulOriginalPriority;
            volatile uint8_t * const pucFirstUserPriorityRegister = ( volatile uint8_t * const ) ( portNVIC_IP_REGISTERS_OFFSET_16 + portFIRST_USER_INTERRUPT_NUMBER );
 80067de:	4b26      	ldr	r3, [pc, #152]	; (8006878 <vInitPrioGroupValue+0xa0>)
 80067e0:	60fb      	str	r3, [r7, #12]
             * functions can be called.  ISR safe functions are those that end in
             * "FromISR".  FreeRTOS maintains separate thread and ISR API functions to
             * ensure interrupt entry is as fast and simple as possible.
             *
             * Save the interrupt priority value that is about to be clobbered. */
            ulOriginalPriority = *pucFirstUserPriorityRegister;
 80067e2:	68fb      	ldr	r3, [r7, #12]
 80067e4:	781b      	ldrb	r3, [r3, #0]
 80067e6:	b2db      	uxtb	r3, r3
 80067e8:	607b      	str	r3, [r7, #4]

            /* Determine the number of priority bits available.  First write to all
             * possible bits. */
            *pucFirstUserPriorityRegister = portMAX_8_BIT_VALUE;
 80067ea:	68fb      	ldr	r3, [r7, #12]
 80067ec:	22ff      	movs	r2, #255	; 0xff
 80067ee:	701a      	strb	r2, [r3, #0]

            /* Read the value back to see how many bits stuck. */
            ucMaxPriorityValue = *pucFirstUserPriorityRegister;
 80067f0:	68fb      	ldr	r3, [r7, #12]
 80067f2:	781b      	ldrb	r3, [r3, #0]
 80067f4:	b2db      	uxtb	r3, r3
 80067f6:	70fb      	strb	r3, [r7, #3]

            /* Use the same mask on the maximum system call priority. */
            ucMaxSysCallPriority = configMAX_SYSCALL_INTERRUPT_PRIORITY & ucMaxPriorityValue;
 80067f8:	78fb      	ldrb	r3, [r7, #3]
 80067fa:	b2db      	uxtb	r3, r3
 80067fc:	f003 0350 	and.w	r3, r3, #80	; 0x50
 8006800:	b2da      	uxtb	r2, r3
 8006802:	4b1e      	ldr	r3, [pc, #120]	; (800687c <vInitPrioGroupValue+0xa4>)
 8006804:	701a      	strb	r2, [r3, #0]

            /* Calculate the maximum acceptable priority group value for the number
             * of bits read back. */
            ulMaxPRIGROUPValue = portMAX_PRIGROUP_BITS;
 8006806:	4b1e      	ldr	r3, [pc, #120]	; (8006880 <vInitPrioGroupValue+0xa8>)
 8006808:	2207      	movs	r2, #7
 800680a:	601a      	str	r2, [r3, #0]

            while( ( ucMaxPriorityValue & portTOP_BIT_OF_BYTE ) == portTOP_BIT_OF_BYTE )
 800680c:	e009      	b.n	8006822 <vInitPrioGroupValue+0x4a>
            {
                ulMaxPRIGROUPValue--;
 800680e:	4b1c      	ldr	r3, [pc, #112]	; (8006880 <vInitPrioGroupValue+0xa8>)
 8006810:	681b      	ldr	r3, [r3, #0]
 8006812:	3b01      	subs	r3, #1
 8006814:	4a1a      	ldr	r2, [pc, #104]	; (8006880 <vInitPrioGroupValue+0xa8>)
 8006816:	6013      	str	r3, [r2, #0]
                ucMaxPriorityValue <<= ( uint8_t ) 0x01;
 8006818:	78fb      	ldrb	r3, [r7, #3]
 800681a:	b2db      	uxtb	r3, r3
 800681c:	005b      	lsls	r3, r3, #1
 800681e:	b2db      	uxtb	r3, r3
 8006820:	70fb      	strb	r3, [r7, #3]
            while( ( ucMaxPriorityValue & portTOP_BIT_OF_BYTE ) == portTOP_BIT_OF_BYTE )
 8006822:	78fb      	ldrb	r3, [r7, #3]
 8006824:	b2db      	uxtb	r3, r3
 8006826:	f003 0380 	and.w	r3, r3, #128	; 0x80
 800682a:	2b80      	cmp	r3, #128	; 0x80
 800682c:	d0ef      	beq.n	800680e <vInitPrioGroupValue+0x36>
            #ifdef configPRIO_BITS
                {
                    /* Check the FreeRTOS configuration that defines the number of
                     * priority bits matches the number of priority bits actually queried
                     * from the hardware. */
                    configASSERT( ( portMAX_PRIGROUP_BITS - ulMaxPRIGROUPValue ) == configPRIO_BITS );
 800682e:	4b14      	ldr	r3, [pc, #80]	; (8006880 <vInitPrioGroupValue+0xa8>)
 8006830:	681b      	ldr	r3, [r3, #0]
 8006832:	f1c3 0307 	rsb	r3, r3, #7
 8006836:	2b04      	cmp	r3, #4
 8006838:	d009      	beq.n	800684e <vInitPrioGroupValue+0x76>
 800683a:	f04f 0350 	mov.w	r3, #80	; 0x50
 800683e:	f383 8811 	msr	BASEPRI, r3
 8006842:	f3bf 8f6f 	isb	sy
 8006846:	f3bf 8f4f 	dsb	sy
 800684a:	60bb      	str	r3, [r7, #8]
 800684c:	e7fe      	b.n	800684c <vInitPrioGroupValue+0x74>
                }
            #endif

            /* Shift the priority group value back to its position within the AIRCR
             * register. */
            ulMaxPRIGROUPValue <<= portPRIGROUP_SHIFT;
 800684e:	4b0c      	ldr	r3, [pc, #48]	; (8006880 <vInitPrioGroupValue+0xa8>)
 8006850:	681b      	ldr	r3, [r3, #0]
 8006852:	021b      	lsls	r3, r3, #8
 8006854:	4a0a      	ldr	r2, [pc, #40]	; (8006880 <vInitPrioGroupValue+0xa8>)
 8006856:	6013      	str	r3, [r2, #0]
            ulMaxPRIGROUPValue &= portPRIORITY_GROUP_MASK;
 8006858:	4b09      	ldr	r3, [pc, #36]	; (8006880 <vInitPrioGroupValue+0xa8>)
 800685a:	681b      	ldr	r3, [r3, #0]
 800685c:	f403 63e0 	and.w	r3, r3, #1792	; 0x700
 8006860:	4a07      	ldr	r2, [pc, #28]	; (8006880 <vInitPrioGroupValue+0xa8>)
 8006862:	6013      	str	r3, [r2, #0]

            /* Restore the clobbered interrupt priority register to its original
             * value. */
            *pucFirstUserPriorityRegister = ulOriginalPriority;
 8006864:	687b      	ldr	r3, [r7, #4]
 8006866:	b2da      	uxtb	r2, r3
 8006868:	68fb      	ldr	r3, [r7, #12]
 800686a:	701a      	strb	r2, [r3, #0]
        }
    #endif /* conifgASSERT_DEFINED */
}
 800686c:	bf00      	nop
 800686e:	3714      	adds	r7, #20
 8006870:	46bd      	mov	sp, r7
 8006872:	bc80      	pop	{r7}
 8006874:	4770      	bx	lr
 8006876:	bf00      	nop
 8006878:	e000e400 	.word	0xe000e400
 800687c:	200003b8 	.word	0x200003b8
 8006880:	200003bc 	.word	0x200003bc

08006884 <vPortEnterCritical>:
	configASSERT( uxCriticalNesting == 1000UL );
}
/*-----------------------------------------------------------*/

void vPortEnterCritical( void )
{
 8006884:	b480      	push	{r7}
 8006886:	b083      	sub	sp, #12
 8006888:	af00      	add	r7, sp, #0
 800688a:	f04f 0350 	mov.w	r3, #80	; 0x50
 800688e:	f383 8811 	msr	BASEPRI, r3
 8006892:	f3bf 8f6f 	isb	sy
 8006896:	f3bf 8f4f 	dsb	sy
 800689a:	607b      	str	r3, [r7, #4]
	portDISABLE_INTERRUPTS();
	uxCriticalNesting++;
 800689c:	4b0e      	ldr	r3, [pc, #56]	; (80068d8 <vPortEnterCritical+0x54>)
 800689e:	681b      	ldr	r3, [r3, #0]
 80068a0:	3301      	adds	r3, #1
 80068a2:	4a0d      	ldr	r2, [pc, #52]	; (80068d8 <vPortEnterCritical+0x54>)
 80068a4:	6013      	str	r3, [r2, #0]
	/* This is not the interrupt safe version of the enter critical function so
	assert() if it is being called from an interrupt context.  Only API
	functions that end in "FromISR" can be used in an interrupt.  Only assert if
	the critical nesting count is 1 to protect against recursive calls if the
	assert function also uses a critical section. */
	if( uxCriticalNesting == 1 )
 80068a6:	4b0c      	ldr	r3, [pc, #48]	; (80068d8 <vPortEnterCritical+0x54>)
 80068a8:	681b      	ldr	r3, [r3, #0]
 80068aa:	2b01      	cmp	r3, #1
 80068ac:	d10e      	bne.n	80068cc <vPortEnterCritical+0x48>
	{
		configASSERT( ( portNVIC_INT_CTRL_REG & portVECTACTIVE_MASK ) == 0 );
 80068ae:	4b0b      	ldr	r3, [pc, #44]	; (80068dc <vPortEnterCritical+0x58>)
 80068b0:	681b      	ldr	r3, [r3, #0]
 80068b2:	b2db      	uxtb	r3, r3
 80068b4:	2b00      	cmp	r3, #0
 80068b6:	d009      	beq.n	80068cc <vPortEnterCritical+0x48>
 80068b8:	f04f 0350 	mov.w	r3, #80	; 0x50
 80068bc:	f383 8811 	msr	BASEPRI, r3
 80068c0:	f3bf 8f6f 	isb	sy
 80068c4:	f3bf 8f4f 	dsb	sy
 80068c8:	603b      	str	r3, [r7, #0]
 80068ca:	e7fe      	b.n	80068ca <vPortEnterCritical+0x46>
	}
}
 80068cc:	bf00      	nop
 80068ce:	370c      	adds	r7, #12
 80068d0:	46bd      	mov	sp, r7
 80068d2:	bc80      	pop	{r7}
 80068d4:	4770      	bx	lr
 80068d6:	bf00      	nop
 80068d8:	2000000c 	.word	0x2000000c
 80068dc:	e000ed04 	.word	0xe000ed04

080068e0 <vPortExitCritical>:
/*-----------------------------------------------------------*/

void vPortExitCritical( void )
{
 80068e0:	b480      	push	{r7}
 80068e2:	b083      	sub	sp, #12
 80068e4:	af00      	add	r7, sp, #0
	configASSERT( uxCriticalNesting );
 80068e6:	4b10      	ldr	r3, [pc, #64]	; (8006928 <vPortExitCritical+0x48>)
 80068e8:	681b      	ldr	r3, [r3, #0]
 80068ea:	2b00      	cmp	r3, #0
 80068ec:	d109      	bne.n	8006902 <vPortExitCritical+0x22>
 80068ee:	f04f 0350 	mov.w	r3, #80	; 0x50
 80068f2:	f383 8811 	msr	BASEPRI, r3
 80068f6:	f3bf 8f6f 	isb	sy
 80068fa:	f3bf 8f4f 	dsb	sy
 80068fe:	607b      	str	r3, [r7, #4]
 8006900:	e7fe      	b.n	8006900 <vPortExitCritical+0x20>
	uxCriticalNesting--;
 8006902:	4b09      	ldr	r3, [pc, #36]	; (8006928 <vPortExitCritical+0x48>)
 8006904:	681b      	ldr	r3, [r3, #0]
 8006906:	3b01      	subs	r3, #1
 8006908:	4a07      	ldr	r2, [pc, #28]	; (8006928 <vPortExitCritical+0x48>)
 800690a:	6013      	str	r3, [r2, #0]
	if( uxCriticalNesting == 0 )
 800690c:	4b06      	ldr	r3, [pc, #24]	; (8006928 <vPortExitCritical+0x48>)
 800690e:	681b      	ldr	r3, [r3, #0]
 8006910:	2b00      	cmp	r3, #0
 8006912:	d104      	bne.n	800691e <vPortExitCritical+0x3e>
 8006914:	2300      	movs	r3, #0
 8006916:	603b      	str	r3, [r7, #0]
}
/*-----------------------------------------------------------*/

portFORCE_INLINE static void vPortSetBASEPRI( uint32_t ulNewMaskValue )
{
	__asm volatile
 8006918:	683b      	ldr	r3, [r7, #0]
 800691a:	f383 8811 	msr	BASEPRI, r3
	{
		portENABLE_INTERRUPTS();
	}
}
 800691e:	bf00      	nop
 8006920:	370c      	adds	r7, #12
 8006922:	46bd      	mov	sp, r7
 8006924:	bc80      	pop	{r7}
 8006926:	4770      	bx	lr
 8006928:	2000000c 	.word	0x2000000c
 800692c:	00000000 	.word	0x00000000

08006930 <PendSV_Handler>:

void xPortPendSVHandler( void )
{
	/* This is a naked function. */

	__asm volatile
 8006930:	f3ef 8009 	mrs	r0, PSP
 8006934:	f3bf 8f6f 	isb	sy
 8006938:	4b0d      	ldr	r3, [pc, #52]	; (8006970 <pxCurrentTCBConst>)
 800693a:	681a      	ldr	r2, [r3, #0]
 800693c:	e920 0ff0 	stmdb	r0!, {r4, r5, r6, r7, r8, r9, sl, fp}
 8006940:	6010      	str	r0, [r2, #0]
 8006942:	e92d 4008 	stmdb	sp!, {r3, lr}
 8006946:	f04f 0050 	mov.w	r0, #80	; 0x50
 800694a:	f380 8811 	msr	BASEPRI, r0
 800694e:	f7ff fc39 	bl	80061c4 <vTaskSwitchContext>
 8006952:	f04f 0000 	mov.w	r0, #0
 8006956:	f380 8811 	msr	BASEPRI, r0
 800695a:	e8bd 4008 	ldmia.w	sp!, {r3, lr}
 800695e:	6819      	ldr	r1, [r3, #0]
 8006960:	6808      	ldr	r0, [r1, #0]
 8006962:	e8b0 0ff0 	ldmia.w	r0!, {r4, r5, r6, r7, r8, r9, sl, fp}
 8006966:	f380 8809 	msr	PSP, r0
 800696a:	f3bf 8f6f 	isb	sy
 800696e:	4770      	bx	lr

08006970 <pxCurrentTCBConst>:
 8006970:	2000028c 	.word	0x2000028c
	"										\n"
	"	.align 4							\n"
	"pxCurrentTCBConst: .word pxCurrentTCB	\n"
	::"i"(configMAX_SYSCALL_INTERRUPT_PRIORITY)
	);
}
 8006974:	bf00      	nop
 8006976:	bf00      	nop

08006978 <SysTick_Handler>:
/*-----------------------------------------------------------*/

void xPortSysTickHandler( void )
{
 8006978:	b580      	push	{r7, lr}
 800697a:	b082      	sub	sp, #8
 800697c:	af00      	add	r7, sp, #0
	__asm volatile
 800697e:	f04f 0350 	mov.w	r3, #80	; 0x50
 8006982:	f383 8811 	msr	BASEPRI, r3
 8006986:	f3bf 8f6f 	isb	sy
 800698a:	f3bf 8f4f 	dsb	sy
 800698e:	607b      	str	r3, [r7, #4]
	/* The SysTick runs at the lowest interrupt priority, so when this interrupt
	executes all interrupts must be unmasked.  There is therefore no need to
	save and then restore the interrupt mask value as its value is already
	known. */
	portDISABLE_INTERRUPTS();
	traceISR_ENTER();
 8006990:	f001 fa16 	bl	8007dc0 <SEGGER_SYSVIEW_RecordEnterISR>
	{
		/* Increment the RTOS tick. */
		if( xTaskIncrementTick() != pdFALSE )
 8006994:	f7ff fb56 	bl	8006044 <xTaskIncrementTick>
 8006998:	4603      	mov	r3, r0
 800699a:	2b00      	cmp	r3, #0
 800699c:	d006      	beq.n	80069ac <SysTick_Handler+0x34>
		{
			traceISR_EXIT_TO_SCHEDULER();
 800699e:	f001 fa6d 	bl	8007e7c <SEGGER_SYSVIEW_RecordExitISRToScheduler>
			/* A context switch is required.  Context switching is performed in
			the PendSV interrupt.  Pend the PendSV interrupt. */
			portNVIC_INT_CTRL_REG = portNVIC_PENDSVSET_BIT;
 80069a2:	4b08      	ldr	r3, [pc, #32]	; (80069c4 <SysTick_Handler+0x4c>)
 80069a4:	f04f 5280 	mov.w	r2, #268435456	; 0x10000000
 80069a8:	601a      	str	r2, [r3, #0]
 80069aa:	e001      	b.n	80069b0 <SysTick_Handler+0x38>
		}
				else
				{
					traceISR_EXIT();
 80069ac:	f001 fa4a 	bl	8007e44 <SEGGER_SYSVIEW_RecordExitISR>
 80069b0:	2300      	movs	r3, #0
 80069b2:	603b      	str	r3, [r7, #0]
	__asm volatile
 80069b4:	683b      	ldr	r3, [r7, #0]
 80069b6:	f383 8811 	msr	BASEPRI, r3
				}
	}
	portENABLE_INTERRUPTS();
}
 80069ba:	bf00      	nop
 80069bc:	3708      	adds	r7, #8
 80069be:	46bd      	mov	sp, r7
 80069c0:	bd80      	pop	{r7, pc}
 80069c2:	bf00      	nop
 80069c4:	e000ed04 	.word	0xe000ed04

080069c8 <vPortSetupTimerInterrupt>:
/*
 * Setup the systick timer to generate the tick interrupts at the required
 * frequency.
 */
__attribute__(( weak )) void vPortSetupTimerInterrupt( void )
{
 80069c8:	b480      	push	{r7}
 80069ca:	af00      	add	r7, sp, #0
		ulStoppedTimerCompensation = portMISSED_COUNTS_FACTOR / ( configCPU_CLOCK_HZ / configSYSTICK_CLOCK_HZ );
	}
	#endif /* configUSE_TICKLESS_IDLE */

	/* Stop and clear the SysTick. */
	portNVIC_SYSTICK_CTRL_REG = 0UL;
 80069cc:	4b0a      	ldr	r3, [pc, #40]	; (80069f8 <vPortSetupTimerInterrupt+0x30>)
 80069ce:	2200      	movs	r2, #0
 80069d0:	601a      	str	r2, [r3, #0]
	portNVIC_SYSTICK_CURRENT_VALUE_REG = 0UL;
 80069d2:	4b0a      	ldr	r3, [pc, #40]	; (80069fc <vPortSetupTimerInterrupt+0x34>)
 80069d4:	2200      	movs	r2, #0
 80069d6:	601a      	str	r2, [r3, #0]

	/* Configure SysTick to interrupt at the requested rate. */
	portNVIC_SYSTICK_LOAD_REG = ( configSYSTICK_CLOCK_HZ / configTICK_RATE_HZ ) - 1UL;
 80069d8:	4b09      	ldr	r3, [pc, #36]	; (8006a00 <vPortSetupTimerInterrupt+0x38>)
 80069da:	681b      	ldr	r3, [r3, #0]
 80069dc:	4a09      	ldr	r2, [pc, #36]	; (8006a04 <vPortSetupTimerInterrupt+0x3c>)
 80069de:	fba2 2303 	umull	r2, r3, r2, r3
 80069e2:	099b      	lsrs	r3, r3, #6
 80069e4:	4a08      	ldr	r2, [pc, #32]	; (8006a08 <vPortSetupTimerInterrupt+0x40>)
 80069e6:	3b01      	subs	r3, #1
 80069e8:	6013      	str	r3, [r2, #0]
	portNVIC_SYSTICK_CTRL_REG = ( portNVIC_SYSTICK_CLK_BIT | portNVIC_SYSTICK_INT_BIT | portNVIC_SYSTICK_ENABLE_BIT );
 80069ea:	4b03      	ldr	r3, [pc, #12]	; (80069f8 <vPortSetupTimerInterrupt+0x30>)
 80069ec:	2207      	movs	r2, #7
 80069ee:	601a      	str	r2, [r3, #0]
}
 80069f0:	bf00      	nop
 80069f2:	46bd      	mov	sp, r7
 80069f4:	bc80      	pop	{r7}
 80069f6:	4770      	bx	lr
 80069f8:	e000e010 	.word	0xe000e010
 80069fc:	e000e018 	.word	0xe000e018
 8006a00:	20000000 	.word	0x20000000
 8006a04:	10624dd3 	.word	0x10624dd3
 8006a08:	e000e014 	.word	0xe000e014

08006a0c <pvPortMalloc>:
static size_t xBlockAllocatedBit = 0;

/*-----------------------------------------------------------*/

void *pvPortMalloc( size_t xWantedSize )
{
 8006a0c:	b580      	push	{r7, lr}
 8006a0e:	b08a      	sub	sp, #40	; 0x28
 8006a10:	af00      	add	r7, sp, #0
 8006a12:	6078      	str	r0, [r7, #4]
BlockLink_t *pxBlock, *pxPreviousBlock, *pxNewBlockLink;
void *pvReturn = NULL;
 8006a14:	2300      	movs	r3, #0
 8006a16:	61fb      	str	r3, [r7, #28]

	vTaskSuspendAll();
 8006a18:	f7ff fa58 	bl	8005ecc <vTaskSuspendAll>
	{
		/* If this is the first call to malloc then the heap will require
		initialisation to setup the list of free blocks. */
		if( pxEnd == NULL )
 8006a1c:	4b57      	ldr	r3, [pc, #348]	; (8006b7c <pvPortMalloc+0x170>)
 8006a1e:	681b      	ldr	r3, [r3, #0]
 8006a20:	2b00      	cmp	r3, #0
 8006a22:	d101      	bne.n	8006a28 <pvPortMalloc+0x1c>
		{
			prvHeapInit();
 8006a24:	f000 f90c 	bl	8006c40 <prvHeapInit>

		/* Check the requested block size is not so large that the top bit is
		set.  The top bit of the block size member of the BlockLink_t structure
		is used to determine who owns the block - the application or the
		kernel, so it must be free. */
		if( ( xWantedSize & xBlockAllocatedBit ) == 0 )
 8006a28:	4b55      	ldr	r3, [pc, #340]	; (8006b80 <pvPortMalloc+0x174>)
 8006a2a:	681a      	ldr	r2, [r3, #0]
 8006a2c:	687b      	ldr	r3, [r7, #4]
 8006a2e:	4013      	ands	r3, r2
 8006a30:	2b00      	cmp	r3, #0
 8006a32:	f040 808c 	bne.w	8006b4e <pvPortMalloc+0x142>
		{
			/* The wanted size is increased so it can contain a BlockLink_t
			structure in addition to the requested amount of bytes. */
			if( xWantedSize > 0 )
 8006a36:	687b      	ldr	r3, [r7, #4]
 8006a38:	2b00      	cmp	r3, #0
 8006a3a:	d01c      	beq.n	8006a76 <pvPortMalloc+0x6a>
			{
				xWantedSize += xHeapStructSize;
 8006a3c:	2208      	movs	r2, #8
 8006a3e:	687b      	ldr	r3, [r7, #4]
 8006a40:	4413      	add	r3, r2
 8006a42:	607b      	str	r3, [r7, #4]

				/* Ensure that blocks are always aligned to the required number
				of bytes. */
				if( ( xWantedSize & portBYTE_ALIGNMENT_MASK ) != 0x00 )
 8006a44:	687b      	ldr	r3, [r7, #4]
 8006a46:	f003 0307 	and.w	r3, r3, #7
 8006a4a:	2b00      	cmp	r3, #0
 8006a4c:	d013      	beq.n	8006a76 <pvPortMalloc+0x6a>
				{
					/* Byte alignment required. */
					xWantedSize += ( portBYTE_ALIGNMENT - ( xWantedSize & portBYTE_ALIGNMENT_MASK ) );
 8006a4e:	687b      	ldr	r3, [r7, #4]
 8006a50:	f023 0307 	bic.w	r3, r3, #7
 8006a54:	3308      	adds	r3, #8
 8006a56:	607b      	str	r3, [r7, #4]
					configASSERT( ( xWantedSize & portBYTE_ALIGNMENT_MASK ) == 0 );
 8006a58:	687b      	ldr	r3, [r7, #4]
 8006a5a:	f003 0307 	and.w	r3, r3, #7
 8006a5e:	2b00      	cmp	r3, #0
 8006a60:	d009      	beq.n	8006a76 <pvPortMalloc+0x6a>
	__asm volatile
 8006a62:	f04f 0350 	mov.w	r3, #80	; 0x50
 8006a66:	f383 8811 	msr	BASEPRI, r3
 8006a6a:	f3bf 8f6f 	isb	sy
 8006a6e:	f3bf 8f4f 	dsb	sy
 8006a72:	617b      	str	r3, [r7, #20]
 8006a74:	e7fe      	b.n	8006a74 <pvPortMalloc+0x68>
			else
			{
				mtCOVERAGE_TEST_MARKER();
			}

			if( ( xWantedSize > 0 ) && ( xWantedSize <= xFreeBytesRemaining ) )
 8006a76:	687b      	ldr	r3, [r7, #4]
 8006a78:	2b00      	cmp	r3, #0
 8006a7a:	d068      	beq.n	8006b4e <pvPortMalloc+0x142>
 8006a7c:	4b41      	ldr	r3, [pc, #260]	; (8006b84 <pvPortMalloc+0x178>)
 8006a7e:	681b      	ldr	r3, [r3, #0]
 8006a80:	687a      	ldr	r2, [r7, #4]
 8006a82:	429a      	cmp	r2, r3
 8006a84:	d863      	bhi.n	8006b4e <pvPortMalloc+0x142>
			{
				/* Traverse the list from the start	(lowest address) block until
				one	of adequate size is found. */
				pxPreviousBlock = &xStart;
 8006a86:	4b40      	ldr	r3, [pc, #256]	; (8006b88 <pvPortMalloc+0x17c>)
 8006a88:	623b      	str	r3, [r7, #32]
				pxBlock = xStart.pxNextFreeBlock;
 8006a8a:	4b3f      	ldr	r3, [pc, #252]	; (8006b88 <pvPortMalloc+0x17c>)
 8006a8c:	681b      	ldr	r3, [r3, #0]
 8006a8e:	627b      	str	r3, [r7, #36]	; 0x24
				while( ( pxBlock->xBlockSize < xWantedSize ) && ( pxBlock->pxNextFreeBlock != NULL ) )
 8006a90:	e004      	b.n	8006a9c <pvPortMalloc+0x90>
				{
					pxPreviousBlock = pxBlock;
 8006a92:	6a7b      	ldr	r3, [r7, #36]	; 0x24
 8006a94:	623b      	str	r3, [r7, #32]
					pxBlock = pxBlock->pxNextFreeBlock;
 8006a96:	6a7b      	ldr	r3, [r7, #36]	; 0x24
 8006a98:	681b      	ldr	r3, [r3, #0]
 8006a9a:	627b      	str	r3, [r7, #36]	; 0x24
				while( ( pxBlock->xBlockSize < xWantedSize ) && ( pxBlock->pxNextFreeBlock != NULL ) )
 8006a9c:	6a7b      	ldr	r3, [r7, #36]	; 0x24
 8006a9e:	685b      	ldr	r3, [r3, #4]
 8006aa0:	687a      	ldr	r2, [r7, #4]
 8006aa2:	429a      	cmp	r2, r3
 8006aa4:	d903      	bls.n	8006aae <pvPortMalloc+0xa2>
 8006aa6:	6a7b      	ldr	r3, [r7, #36]	; 0x24
 8006aa8:	681b      	ldr	r3, [r3, #0]
 8006aaa:	2b00      	cmp	r3, #0
 8006aac:	d1f1      	bne.n	8006a92 <pvPortMalloc+0x86>
				}

				/* If the end marker was reached then a block of adequate size
				was	not found. */
				if( pxBlock != pxEnd )
 8006aae:	4b33      	ldr	r3, [pc, #204]	; (8006b7c <pvPortMalloc+0x170>)
 8006ab0:	681b      	ldr	r3, [r3, #0]
 8006ab2:	6a7a      	ldr	r2, [r7, #36]	; 0x24
 8006ab4:	429a      	cmp	r2, r3
 8006ab6:	d04a      	beq.n	8006b4e <pvPortMalloc+0x142>
				{
					/* Return the memory space pointed to - jumping over the
					BlockLink_t structure at its start. */
					pvReturn = ( void * ) ( ( ( uint8_t * ) pxPreviousBlock->pxNextFreeBlock ) + xHeapStructSize );
 8006ab8:	6a3b      	ldr	r3, [r7, #32]
 8006aba:	681b      	ldr	r3, [r3, #0]
 8006abc:	2208      	movs	r2, #8
 8006abe:	4413      	add	r3, r2
 8006ac0:	61fb      	str	r3, [r7, #28]

					/* This block is being returned for use so must be taken out
					of the list of free blocks. */
					pxPreviousBlock->pxNextFreeBlock = pxBlock->pxNextFreeBlock;
 8006ac2:	6a7b      	ldr	r3, [r7, #36]	; 0x24
 8006ac4:	681a      	ldr	r2, [r3, #0]
 8006ac6:	6a3b      	ldr	r3, [r7, #32]
 8006ac8:	601a      	str	r2, [r3, #0]

					/* If the block is larger than required it can be split into
					two. */
					if( ( pxBlock->xBlockSize - xWantedSize ) > heapMINIMUM_BLOCK_SIZE )
 8006aca:	6a7b      	ldr	r3, [r7, #36]	; 0x24
 8006acc:	685a      	ldr	r2, [r3, #4]
 8006ace:	687b      	ldr	r3, [r7, #4]
 8006ad0:	1ad2      	subs	r2, r2, r3
 8006ad2:	2308      	movs	r3, #8
 8006ad4:	005b      	lsls	r3, r3, #1
 8006ad6:	429a      	cmp	r2, r3
 8006ad8:	d91e      	bls.n	8006b18 <pvPortMalloc+0x10c>
					{
						/* This block is to be split into two.  Create a new
						block following the number of bytes requested. The void
						cast is used to prevent byte alignment warnings from the
						compiler. */
						pxNewBlockLink = ( void * ) ( ( ( uint8_t * ) pxBlock ) + xWantedSize );
 8006ada:	6a7a      	ldr	r2, [r7, #36]	; 0x24
 8006adc:	687b      	ldr	r3, [r7, #4]
 8006ade:	4413      	add	r3, r2
 8006ae0:	61bb      	str	r3, [r7, #24]
						configASSERT( ( ( ( size_t ) pxNewBlockLink ) & portBYTE_ALIGNMENT_MASK ) == 0 );
 8006ae2:	69bb      	ldr	r3, [r7, #24]
 8006ae4:	f003 0307 	and.w	r3, r3, #7
 8006ae8:	2b00      	cmp	r3, #0
 8006aea:	d009      	beq.n	8006b00 <pvPortMalloc+0xf4>
 8006aec:	f04f 0350 	mov.w	r3, #80	; 0x50
 8006af0:	f383 8811 	msr	BASEPRI, r3
 8006af4:	f3bf 8f6f 	isb	sy
 8006af8:	f3bf 8f4f 	dsb	sy
 8006afc:	613b      	str	r3, [r7, #16]
 8006afe:	e7fe      	b.n	8006afe <pvPortMalloc+0xf2>

						/* Calculate the sizes of two blocks split from the
						single block. */
						pxNewBlockLink->xBlockSize = pxBlock->xBlockSize - xWantedSize;
 8006b00:	6a7b      	ldr	r3, [r7, #36]	; 0x24
 8006b02:	685a      	ldr	r2, [r3, #4]
 8006b04:	687b      	ldr	r3, [r7, #4]
 8006b06:	1ad2      	subs	r2, r2, r3
 8006b08:	69bb      	ldr	r3, [r7, #24]
 8006b0a:	605a      	str	r2, [r3, #4]
						pxBlock->xBlockSize = xWantedSize;
 8006b0c:	6a7b      	ldr	r3, [r7, #36]	; 0x24
 8006b0e:	687a      	ldr	r2, [r7, #4]
 8006b10:	605a      	str	r2, [r3, #4]

						/* Insert the new block into the list of free blocks. */
						prvInsertBlockIntoFreeList( pxNewBlockLink );
 8006b12:	69b8      	ldr	r0, [r7, #24]
 8006b14:	f000 f8f6 	bl	8006d04 <prvInsertBlockIntoFreeList>
					else
					{
						mtCOVERAGE_TEST_MARKER();
					}

					xFreeBytesRemaining -= pxBlock->xBlockSize;
 8006b18:	4b1a      	ldr	r3, [pc, #104]	; (8006b84 <pvPortMalloc+0x178>)
 8006b1a:	681a      	ldr	r2, [r3, #0]
 8006b1c:	6a7b      	ldr	r3, [r7, #36]	; 0x24
 8006b1e:	685b      	ldr	r3, [r3, #4]
 8006b20:	1ad3      	subs	r3, r2, r3
 8006b22:	4a18      	ldr	r2, [pc, #96]	; (8006b84 <pvPortMalloc+0x178>)
 8006b24:	6013      	str	r3, [r2, #0]

					if( xFreeBytesRemaining < xMinimumEverFreeBytesRemaining )
 8006b26:	4b17      	ldr	r3, [pc, #92]	; (8006b84 <pvPortMalloc+0x178>)
 8006b28:	681a      	ldr	r2, [r3, #0]
 8006b2a:	4b18      	ldr	r3, [pc, #96]	; (8006b8c <pvPortMalloc+0x180>)
 8006b2c:	681b      	ldr	r3, [r3, #0]
 8006b2e:	429a      	cmp	r2, r3
 8006b30:	d203      	bcs.n	8006b3a <pvPortMalloc+0x12e>
					{
						xMinimumEverFreeBytesRemaining = xFreeBytesRemaining;
 8006b32:	4b14      	ldr	r3, [pc, #80]	; (8006b84 <pvPortMalloc+0x178>)
 8006b34:	681b      	ldr	r3, [r3, #0]
 8006b36:	4a15      	ldr	r2, [pc, #84]	; (8006b8c <pvPortMalloc+0x180>)
 8006b38:	6013      	str	r3, [r2, #0]
						mtCOVERAGE_TEST_MARKER();
					}

					/* The block is being returned - it is allocated and owned
					by the application and has no "next" block. */
					pxBlock->xBlockSize |= xBlockAllocatedBit;
 8006b3a:	6a7b      	ldr	r3, [r7, #36]	; 0x24
 8006b3c:	685a      	ldr	r2, [r3, #4]
 8006b3e:	4b10      	ldr	r3, [pc, #64]	; (8006b80 <pvPortMalloc+0x174>)
 8006b40:	681b      	ldr	r3, [r3, #0]
 8006b42:	431a      	orrs	r2, r3
 8006b44:	6a7b      	ldr	r3, [r7, #36]	; 0x24
 8006b46:	605a      	str	r2, [r3, #4]
					pxBlock->pxNextFreeBlock = NULL;
 8006b48:	6a7b      	ldr	r3, [r7, #36]	; 0x24
 8006b4a:	2200      	movs	r2, #0
 8006b4c:	601a      	str	r2, [r3, #0]
			mtCOVERAGE_TEST_MARKER();
		}

		traceMALLOC( pvReturn, xWantedSize );
	}
	( void ) xTaskResumeAll();
 8006b4e:	f7ff f9cb 	bl	8005ee8 <xTaskResumeAll>
			mtCOVERAGE_TEST_MARKER();
		}
	}
	#endif

	configASSERT( ( ( ( size_t ) pvReturn ) & ( size_t ) portBYTE_ALIGNMENT_MASK ) == 0 );
 8006b52:	69fb      	ldr	r3, [r7, #28]
 8006b54:	f003 0307 	and.w	r3, r3, #7
 8006b58:	2b00      	cmp	r3, #0
 8006b5a:	d009      	beq.n	8006b70 <pvPortMalloc+0x164>
 8006b5c:	f04f 0350 	mov.w	r3, #80	; 0x50
 8006b60:	f383 8811 	msr	BASEPRI, r3
 8006b64:	f3bf 8f6f 	isb	sy
 8006b68:	f3bf 8f4f 	dsb	sy
 8006b6c:	60fb      	str	r3, [r7, #12]
 8006b6e:	e7fe      	b.n	8006b6e <pvPortMalloc+0x162>
	return pvReturn;
 8006b70:	69fb      	ldr	r3, [r7, #28]
}
 8006b72:	4618      	mov	r0, r3
 8006b74:	3728      	adds	r7, #40	; 0x28
 8006b76:	46bd      	mov	sp, r7
 8006b78:	bd80      	pop	{r7, pc}
 8006b7a:	bf00      	nop
 8006b7c:	20001bc8 	.word	0x20001bc8
 8006b80:	20001bd4 	.word	0x20001bd4
 8006b84:	20001bcc 	.word	0x20001bcc
 8006b88:	20001bc0 	.word	0x20001bc0
 8006b8c:	20001bd0 	.word	0x20001bd0

08006b90 <vPortFree>:
/*-----------------------------------------------------------*/

void vPortFree( void *pv )
{
 8006b90:	b580      	push	{r7, lr}
 8006b92:	b086      	sub	sp, #24
 8006b94:	af00      	add	r7, sp, #0
 8006b96:	6078      	str	r0, [r7, #4]
uint8_t *puc = ( uint8_t * ) pv;
 8006b98:	687b      	ldr	r3, [r7, #4]
 8006b9a:	617b      	str	r3, [r7, #20]
BlockLink_t *pxLink;

	if( pv != NULL )
 8006b9c:	687b      	ldr	r3, [r7, #4]
 8006b9e:	2b00      	cmp	r3, #0
 8006ba0:	d046      	beq.n	8006c30 <vPortFree+0xa0>
	{
		/* The memory being freed will have an BlockLink_t structure immediately
		before it. */
		puc -= xHeapStructSize;
 8006ba2:	2308      	movs	r3, #8
 8006ba4:	425b      	negs	r3, r3
 8006ba6:	697a      	ldr	r2, [r7, #20]
 8006ba8:	4413      	add	r3, r2
 8006baa:	617b      	str	r3, [r7, #20]

		/* This casting is to keep the compiler from issuing warnings. */
		pxLink = ( void * ) puc;
 8006bac:	697b      	ldr	r3, [r7, #20]
 8006bae:	613b      	str	r3, [r7, #16]

		/* Check the block is actually allocated. */
		configASSERT( ( pxLink->xBlockSize & xBlockAllocatedBit ) != 0 );
 8006bb0:	693b      	ldr	r3, [r7, #16]
 8006bb2:	685a      	ldr	r2, [r3, #4]
 8006bb4:	4b20      	ldr	r3, [pc, #128]	; (8006c38 <vPortFree+0xa8>)
 8006bb6:	681b      	ldr	r3, [r3, #0]
 8006bb8:	4013      	ands	r3, r2
 8006bba:	2b00      	cmp	r3, #0
 8006bbc:	d109      	bne.n	8006bd2 <vPortFree+0x42>
 8006bbe:	f04f 0350 	mov.w	r3, #80	; 0x50
 8006bc2:	f383 8811 	msr	BASEPRI, r3
 8006bc6:	f3bf 8f6f 	isb	sy
 8006bca:	f3bf 8f4f 	dsb	sy
 8006bce:	60fb      	str	r3, [r7, #12]
 8006bd0:	e7fe      	b.n	8006bd0 <vPortFree+0x40>
		configASSERT( pxLink->pxNextFreeBlock == NULL );
 8006bd2:	693b      	ldr	r3, [r7, #16]
 8006bd4:	681b      	ldr	r3, [r3, #0]
 8006bd6:	2b00      	cmp	r3, #0
 8006bd8:	d009      	beq.n	8006bee <vPortFree+0x5e>
 8006bda:	f04f 0350 	mov.w	r3, #80	; 0x50
 8006bde:	f383 8811 	msr	BASEPRI, r3
 8006be2:	f3bf 8f6f 	isb	sy
 8006be6:	f3bf 8f4f 	dsb	sy
 8006bea:	60bb      	str	r3, [r7, #8]
 8006bec:	e7fe      	b.n	8006bec <vPortFree+0x5c>

		if( ( pxLink->xBlockSize & xBlockAllocatedBit ) != 0 )
 8006bee:	693b      	ldr	r3, [r7, #16]
 8006bf0:	685a      	ldr	r2, [r3, #4]
 8006bf2:	4b11      	ldr	r3, [pc, #68]	; (8006c38 <vPortFree+0xa8>)
 8006bf4:	681b      	ldr	r3, [r3, #0]
 8006bf6:	4013      	ands	r3, r2
 8006bf8:	2b00      	cmp	r3, #0
 8006bfa:	d019      	beq.n	8006c30 <vPortFree+0xa0>
		{
			if( pxLink->pxNextFreeBlock == NULL )
 8006bfc:	693b      	ldr	r3, [r7, #16]
 8006bfe:	681b      	ldr	r3, [r3, #0]
 8006c00:	2b00      	cmp	r3, #0
 8006c02:	d115      	bne.n	8006c30 <vPortFree+0xa0>
			{
				/* The block is being returned to the heap - it is no longer
				allocated. */
				pxLink->xBlockSize &= ~xBlockAllocatedBit;
 8006c04:	693b      	ldr	r3, [r7, #16]
 8006c06:	685a      	ldr	r2, [r3, #4]
 8006c08:	4b0b      	ldr	r3, [pc, #44]	; (8006c38 <vPortFree+0xa8>)
 8006c0a:	681b      	ldr	r3, [r3, #0]
 8006c0c:	43db      	mvns	r3, r3
 8006c0e:	401a      	ands	r2, r3
 8006c10:	693b      	ldr	r3, [r7, #16]
 8006c12:	605a      	str	r2, [r3, #4]

				vTaskSuspendAll();
 8006c14:	f7ff f95a 	bl	8005ecc <vTaskSuspendAll>
				{
					/* Add this block to the list of free blocks. */
					xFreeBytesRemaining += pxLink->xBlockSize;
 8006c18:	693b      	ldr	r3, [r7, #16]
 8006c1a:	685a      	ldr	r2, [r3, #4]
 8006c1c:	4b07      	ldr	r3, [pc, #28]	; (8006c3c <vPortFree+0xac>)
 8006c1e:	681b      	ldr	r3, [r3, #0]
 8006c20:	4413      	add	r3, r2
 8006c22:	4a06      	ldr	r2, [pc, #24]	; (8006c3c <vPortFree+0xac>)
 8006c24:	6013      	str	r3, [r2, #0]
					traceFREE( pv, pxLink->xBlockSize );
					prvInsertBlockIntoFreeList( ( ( BlockLink_t * ) pxLink ) );
 8006c26:	6938      	ldr	r0, [r7, #16]
 8006c28:	f000 f86c 	bl	8006d04 <prvInsertBlockIntoFreeList>
				}
				( void ) xTaskResumeAll();
 8006c2c:	f7ff f95c 	bl	8005ee8 <xTaskResumeAll>
		else
		{
			mtCOVERAGE_TEST_MARKER();
		}
	}
}
 8006c30:	bf00      	nop
 8006c32:	3718      	adds	r7, #24
 8006c34:	46bd      	mov	sp, r7
 8006c36:	bd80      	pop	{r7, pc}
 8006c38:	20001bd4 	.word	0x20001bd4
 8006c3c:	20001bcc 	.word	0x20001bcc

08006c40 <prvHeapInit>:
	/* This just exists to keep the linker quiet. */
}
/*-----------------------------------------------------------*/

static void prvHeapInit( void )
{
 8006c40:	b480      	push	{r7}
 8006c42:	b085      	sub	sp, #20
 8006c44:	af00      	add	r7, sp, #0
BlockLink_t *pxFirstFreeBlock;
uint8_t *pucAlignedHeap;
size_t uxAddress;
size_t xTotalHeapSize = configTOTAL_HEAP_SIZE;
 8006c46:	f44f 53c0 	mov.w	r3, #6144	; 0x1800
 8006c4a:	60bb      	str	r3, [r7, #8]

	/* Ensure the heap starts on a correctly aligned boundary. */
	uxAddress = ( size_t ) ucHeap;
 8006c4c:	4b27      	ldr	r3, [pc, #156]	; (8006cec <prvHeapInit+0xac>)
 8006c4e:	60fb      	str	r3, [r7, #12]

	if( ( uxAddress & portBYTE_ALIGNMENT_MASK ) != 0 )
 8006c50:	68fb      	ldr	r3, [r7, #12]
 8006c52:	f003 0307 	and.w	r3, r3, #7
 8006c56:	2b00      	cmp	r3, #0
 8006c58:	d00c      	beq.n	8006c74 <prvHeapInit+0x34>
	{
		uxAddress += ( portBYTE_ALIGNMENT - 1 );
 8006c5a:	68fb      	ldr	r3, [r7, #12]
 8006c5c:	3307      	adds	r3, #7
 8006c5e:	60fb      	str	r3, [r7, #12]
		uxAddress &= ~( ( size_t ) portBYTE_ALIGNMENT_MASK );
 8006c60:	68fb      	ldr	r3, [r7, #12]
 8006c62:	f023 0307 	bic.w	r3, r3, #7
 8006c66:	60fb      	str	r3, [r7, #12]
		xTotalHeapSize -= uxAddress - ( size_t ) ucHeap;
 8006c68:	68ba      	ldr	r2, [r7, #8]
 8006c6a:	68fb      	ldr	r3, [r7, #12]
 8006c6c:	1ad3      	subs	r3, r2, r3
 8006c6e:	4a1f      	ldr	r2, [pc, #124]	; (8006cec <prvHeapInit+0xac>)
 8006c70:	4413      	add	r3, r2
 8006c72:	60bb      	str	r3, [r7, #8]
	}

	pucAlignedHeap = ( uint8_t * ) uxAddress;
 8006c74:	68fb      	ldr	r3, [r7, #12]
 8006c76:	607b      	str	r3, [r7, #4]

	/* xStart is used to hold a pointer to the first item in the list of free
	blocks.  The void cast is used to prevent compiler warnings. */
	xStart.pxNextFreeBlock = ( void * ) pucAlignedHeap;
 8006c78:	4a1d      	ldr	r2, [pc, #116]	; (8006cf0 <prvHeapInit+0xb0>)
 8006c7a:	687b      	ldr	r3, [r7, #4]
 8006c7c:	6013      	str	r3, [r2, #0]
	xStart.xBlockSize = ( size_t ) 0;
 8006c7e:	4b1c      	ldr	r3, [pc, #112]	; (8006cf0 <prvHeapInit+0xb0>)
 8006c80:	2200      	movs	r2, #0
 8006c82:	605a      	str	r2, [r3, #4]

	/* pxEnd is used to mark the end of the list of free blocks and is inserted
	at the end of the heap space. */
	uxAddress = ( ( size_t ) pucAlignedHeap ) + xTotalHeapSize;
 8006c84:	687b      	ldr	r3, [r7, #4]
 8006c86:	68ba      	ldr	r2, [r7, #8]
 8006c88:	4413      	add	r3, r2
 8006c8a:	60fb      	str	r3, [r7, #12]
	uxAddress -= xHeapStructSize;
 8006c8c:	2208      	movs	r2, #8
 8006c8e:	68fb      	ldr	r3, [r7, #12]
 8006c90:	1a9b      	subs	r3, r3, r2
 8006c92:	60fb      	str	r3, [r7, #12]
	uxAddress &= ~( ( size_t ) portBYTE_ALIGNMENT_MASK );
 8006c94:	68fb      	ldr	r3, [r7, #12]
 8006c96:	f023 0307 	bic.w	r3, r3, #7
 8006c9a:	60fb      	str	r3, [r7, #12]
	pxEnd = ( void * ) uxAddress;
 8006c9c:	68fb      	ldr	r3, [r7, #12]
 8006c9e:	4a15      	ldr	r2, [pc, #84]	; (8006cf4 <prvHeapInit+0xb4>)
 8006ca0:	6013      	str	r3, [r2, #0]
	pxEnd->xBlockSize = 0;
 8006ca2:	4b14      	ldr	r3, [pc, #80]	; (8006cf4 <prvHeapInit+0xb4>)
 8006ca4:	681b      	ldr	r3, [r3, #0]
 8006ca6:	2200      	movs	r2, #0
 8006ca8:	605a      	str	r2, [r3, #4]
	pxEnd->pxNextFreeBlock = NULL;
 8006caa:	4b12      	ldr	r3, [pc, #72]	; (8006cf4 <prvHeapInit+0xb4>)
 8006cac:	681b      	ldr	r3, [r3, #0]
 8006cae:	2200      	movs	r2, #0
 8006cb0:	601a      	str	r2, [r3, #0]

	/* To start with there is a single free block that is sized to take up the
	entire heap space, minus the space taken by pxEnd. */
	pxFirstFreeBlock = ( void * ) pucAlignedHeap;
 8006cb2:	687b      	ldr	r3, [r7, #4]
 8006cb4:	603b      	str	r3, [r7, #0]
	pxFirstFreeBlock->xBlockSize = uxAddress - ( size_t ) pxFirstFreeBlock;
 8006cb6:	683b      	ldr	r3, [r7, #0]
 8006cb8:	68fa      	ldr	r2, [r7, #12]
 8006cba:	1ad2      	subs	r2, r2, r3
 8006cbc:	683b      	ldr	r3, [r7, #0]
 8006cbe:	605a      	str	r2, [r3, #4]
	pxFirstFreeBlock->pxNextFreeBlock = pxEnd;
 8006cc0:	4b0c      	ldr	r3, [pc, #48]	; (8006cf4 <prvHeapInit+0xb4>)
 8006cc2:	681a      	ldr	r2, [r3, #0]
 8006cc4:	683b      	ldr	r3, [r7, #0]
 8006cc6:	601a      	str	r2, [r3, #0]

	/* Only one block exists - and it covers the entire usable heap space. */
	xMinimumEverFreeBytesRemaining = pxFirstFreeBlock->xBlockSize;
 8006cc8:	683b      	ldr	r3, [r7, #0]
 8006cca:	685b      	ldr	r3, [r3, #4]
 8006ccc:	4a0a      	ldr	r2, [pc, #40]	; (8006cf8 <prvHeapInit+0xb8>)
 8006cce:	6013      	str	r3, [r2, #0]
	xFreeBytesRemaining = pxFirstFreeBlock->xBlockSize;
 8006cd0:	683b      	ldr	r3, [r7, #0]
 8006cd2:	685b      	ldr	r3, [r3, #4]
 8006cd4:	4a09      	ldr	r2, [pc, #36]	; (8006cfc <prvHeapInit+0xbc>)
 8006cd6:	6013      	str	r3, [r2, #0]

	/* Work out the position of the top bit in a size_t variable. */
	xBlockAllocatedBit = ( ( size_t ) 1 ) << ( ( sizeof( size_t ) * heapBITS_PER_BYTE ) - 1 );
 8006cd8:	4b09      	ldr	r3, [pc, #36]	; (8006d00 <prvHeapInit+0xc0>)
 8006cda:	f04f 4200 	mov.w	r2, #2147483648	; 0x80000000
 8006cde:	601a      	str	r2, [r3, #0]
}
 8006ce0:	bf00      	nop
 8006ce2:	3714      	adds	r7, #20
 8006ce4:	46bd      	mov	sp, r7
 8006ce6:	bc80      	pop	{r7}
 8006ce8:	4770      	bx	lr
 8006cea:	bf00      	nop
 8006cec:	200003c0 	.word	0x200003c0
 8006cf0:	20001bc0 	.word	0x20001bc0
 8006cf4:	20001bc8 	.word	0x20001bc8
 8006cf8:	20001bd0 	.word	0x20001bd0
 8006cfc:	20001bcc 	.word	0x20001bcc
 8006d00:	20001bd4 	.word	0x20001bd4

08006d04 <prvInsertBlockIntoFreeList>:
/*-----------------------------------------------------------*/

static void prvInsertBlockIntoFreeList( BlockLink_t *pxBlockToInsert )
{
 8006d04:	b480      	push	{r7}
 8006d06:	b085      	sub	sp, #20
 8006d08:	af00      	add	r7, sp, #0
 8006d0a:	6078      	str	r0, [r7, #4]
BlockLink_t *pxIterator;
uint8_t *puc;

	/* Iterate through the list until a block is found that has a higher address
	than the block being inserted. */
	for( pxIterator = &xStart; pxIterator->pxNextFreeBlock < pxBlockToInsert; pxIterator = pxIterator->pxNextFreeBlock )
 8006d0c:	4b27      	ldr	r3, [pc, #156]	; (8006dac <prvInsertBlockIntoFreeList+0xa8>)
 8006d0e:	60fb      	str	r3, [r7, #12]
 8006d10:	e002      	b.n	8006d18 <prvInsertBlockIntoFreeList+0x14>
 8006d12:	68fb      	ldr	r3, [r7, #12]
 8006d14:	681b      	ldr	r3, [r3, #0]
 8006d16:	60fb      	str	r3, [r7, #12]
 8006d18:	68fb      	ldr	r3, [r7, #12]
 8006d1a:	681b      	ldr	r3, [r3, #0]
 8006d1c:	687a      	ldr	r2, [r7, #4]
 8006d1e:	429a      	cmp	r2, r3
 8006d20:	d8f7      	bhi.n	8006d12 <prvInsertBlockIntoFreeList+0xe>
		/* Nothing to do here, just iterate to the right position. */
	}

	/* Do the block being inserted, and the block it is being inserted after
	make a contiguous block of memory? */
	puc = ( uint8_t * ) pxIterator;
 8006d22:	68fb      	ldr	r3, [r7, #12]
 8006d24:	60bb      	str	r3, [r7, #8]
	if( ( puc + pxIterator->xBlockSize ) == ( uint8_t * ) pxBlockToInsert )
 8006d26:	68fb      	ldr	r3, [r7, #12]
 8006d28:	685b      	ldr	r3, [r3, #4]
 8006d2a:	68ba      	ldr	r2, [r7, #8]
 8006d2c:	4413      	add	r3, r2
 8006d2e:	687a      	ldr	r2, [r7, #4]
 8006d30:	429a      	cmp	r2, r3
 8006d32:	d108      	bne.n	8006d46 <prvInsertBlockIntoFreeList+0x42>
	{
		pxIterator->xBlockSize += pxBlockToInsert->xBlockSize;
 8006d34:	68fb      	ldr	r3, [r7, #12]
 8006d36:	685a      	ldr	r2, [r3, #4]
 8006d38:	687b      	ldr	r3, [r7, #4]
 8006d3a:	685b      	ldr	r3, [r3, #4]
 8006d3c:	441a      	add	r2, r3
 8006d3e:	68fb      	ldr	r3, [r7, #12]
 8006d40:	605a      	str	r2, [r3, #4]
		pxBlockToInsert = pxIterator;
 8006d42:	68fb      	ldr	r3, [r7, #12]
 8006d44:	607b      	str	r3, [r7, #4]
		mtCOVERAGE_TEST_MARKER();
	}

	/* Do the block being inserted, and the block it is being inserted before
	make a contiguous block of memory? */
	puc = ( uint8_t * ) pxBlockToInsert;
 8006d46:	687b      	ldr	r3, [r7, #4]
 8006d48:	60bb      	str	r3, [r7, #8]
	if( ( puc + pxBlockToInsert->xBlockSize ) == ( uint8_t * ) pxIterator->pxNextFreeBlock )
 8006d4a:	687b      	ldr	r3, [r7, #4]
 8006d4c:	685b      	ldr	r3, [r3, #4]
 8006d4e:	68ba      	ldr	r2, [r7, #8]
 8006d50:	441a      	add	r2, r3
 8006d52:	68fb      	ldr	r3, [r7, #12]
 8006d54:	681b      	ldr	r3, [r3, #0]
 8006d56:	429a      	cmp	r2, r3
 8006d58:	d118      	bne.n	8006d8c <prvInsertBlockIntoFreeList+0x88>
	{
		if( pxIterator->pxNextFreeBlock != pxEnd )
 8006d5a:	68fb      	ldr	r3, [r7, #12]
 8006d5c:	681a      	ldr	r2, [r3, #0]
 8006d5e:	4b14      	ldr	r3, [pc, #80]	; (8006db0 <prvInsertBlockIntoFreeList+0xac>)
 8006d60:	681b      	ldr	r3, [r3, #0]
 8006d62:	429a      	cmp	r2, r3
 8006d64:	d00d      	beq.n	8006d82 <prvInsertBlockIntoFreeList+0x7e>
		{
			/* Form one big block from the two blocks. */
			pxBlockToInsert->xBlockSize += pxIterator->pxNextFreeBlock->xBlockSize;
 8006d66:	687b      	ldr	r3, [r7, #4]
 8006d68:	685a      	ldr	r2, [r3, #4]
 8006d6a:	68fb      	ldr	r3, [r7, #12]
 8006d6c:	681b      	ldr	r3, [r3, #0]
 8006d6e:	685b      	ldr	r3, [r3, #4]
 8006d70:	441a      	add	r2, r3
 8006d72:	687b      	ldr	r3, [r7, #4]
 8006d74:	605a      	str	r2, [r3, #4]
			pxBlockToInsert->pxNextFreeBlock = pxIterator->pxNextFreeBlock->pxNextFreeBlock;
 8006d76:	68fb      	ldr	r3, [r7, #12]
 8006d78:	681b      	ldr	r3, [r3, #0]
 8006d7a:	681a      	ldr	r2, [r3, #0]
 8006d7c:	687b      	ldr	r3, [r7, #4]
 8006d7e:	601a      	str	r2, [r3, #0]
 8006d80:	e008      	b.n	8006d94 <prvInsertBlockIntoFreeList+0x90>
		}
		else
		{
			pxBlockToInsert->pxNextFreeBlock = pxEnd;
 8006d82:	4b0b      	ldr	r3, [pc, #44]	; (8006db0 <prvInsertBlockIntoFreeList+0xac>)
 8006d84:	681a      	ldr	r2, [r3, #0]
 8006d86:	687b      	ldr	r3, [r7, #4]
 8006d88:	601a      	str	r2, [r3, #0]
 8006d8a:	e003      	b.n	8006d94 <prvInsertBlockIntoFreeList+0x90>
		}
	}
	else
	{
		pxBlockToInsert->pxNextFreeBlock = pxIterator->pxNextFreeBlock;
 8006d8c:	68fb      	ldr	r3, [r7, #12]
 8006d8e:	681a      	ldr	r2, [r3, #0]
 8006d90:	687b      	ldr	r3, [r7, #4]
 8006d92:	601a      	str	r2, [r3, #0]

	/* If the block being inserted plugged a gab, so was merged with the block
	before and the block after, then it's pxNextFreeBlock pointer will have
	already been set, and should not be set here as that would make it point
	to itself. */
	if( pxIterator != pxBlockToInsert )
 8006d94:	68fa      	ldr	r2, [r7, #12]
 8006d96:	687b      	ldr	r3, [r7, #4]
 8006d98:	429a      	cmp	r2, r3
 8006d9a:	d002      	beq.n	8006da2 <prvInsertBlockIntoFreeList+0x9e>
	{
		pxIterator->pxNextFreeBlock = pxBlockToInsert;
 8006d9c:	68fb      	ldr	r3, [r7, #12]
 8006d9e:	687a      	ldr	r2, [r7, #4]
 8006da0:	601a      	str	r2, [r3, #0]
	}
	else
	{
		mtCOVERAGE_TEST_MARKER();
	}
}
 8006da2:	bf00      	nop
 8006da4:	3714      	adds	r7, #20
 8006da6:	46bd      	mov	sp, r7
 8006da8:	bc80      	pop	{r7}
 8006daa:	4770      	bx	lr
 8006dac:	20001bc0 	.word	0x20001bc0
 8006db0:	20001bc8 	.word	0x20001bc8

08006db4 <SYSVIEW_AddTask>:
*       SYSVIEW_AddTask()
*
*  Function description
*    Add a task to the internal list and record its information.
*/
void SYSVIEW_AddTask(U32 xHandle, const char* pcTaskName, unsigned uxCurrentPriority, U32  pxStack, unsigned uStackHighWaterMark) {
 8006db4:	b580      	push	{r7, lr}
 8006db6:	b086      	sub	sp, #24
 8006db8:	af02      	add	r7, sp, #8
 8006dba:	60f8      	str	r0, [r7, #12]
 8006dbc:	60b9      	str	r1, [r7, #8]
 8006dbe:	607a      	str	r2, [r7, #4]
 8006dc0:	603b      	str	r3, [r7, #0]
  
  if (memcmp(pcTaskName, "IDLE", 5) == 0) {
 8006dc2:	2205      	movs	r2, #5
 8006dc4:	492b      	ldr	r1, [pc, #172]	; (8006e74 <SYSVIEW_AddTask+0xc0>)
 8006dc6:	68b8      	ldr	r0, [r7, #8]
 8006dc8:	f001 fb22 	bl	8008410 <memcmp>
 8006dcc:	4603      	mov	r3, r0
 8006dce:	2b00      	cmp	r3, #0
 8006dd0:	d04b      	beq.n	8006e6a <SYSVIEW_AddTask+0xb6>
    return;
  }
  
  if (_NumTasks >= SYSVIEW_FREERTOS_MAX_NOF_TASKS) {
 8006dd2:	4b29      	ldr	r3, [pc, #164]	; (8006e78 <SYSVIEW_AddTask+0xc4>)
 8006dd4:	681b      	ldr	r3, [r3, #0]
 8006dd6:	2b07      	cmp	r3, #7
 8006dd8:	d903      	bls.n	8006de2 <SYSVIEW_AddTask+0x2e>
    SEGGER_SYSVIEW_Warn("SYSTEMVIEW: Could not record task information. Maximum number of tasks reached.");
 8006dda:	4828      	ldr	r0, [pc, #160]	; (8006e7c <SYSVIEW_AddTask+0xc8>)
 8006ddc:	f001 fa98 	bl	8008310 <SEGGER_SYSVIEW_Warn>
    return;
 8006de0:	e044      	b.n	8006e6c <SYSVIEW_AddTask+0xb8>
  }

  _aTasks[_NumTasks].xHandle = xHandle;
 8006de2:	4b25      	ldr	r3, [pc, #148]	; (8006e78 <SYSVIEW_AddTask+0xc4>)
 8006de4:	681a      	ldr	r2, [r3, #0]
 8006de6:	4926      	ldr	r1, [pc, #152]	; (8006e80 <SYSVIEW_AddTask+0xcc>)
 8006de8:	4613      	mov	r3, r2
 8006dea:	009b      	lsls	r3, r3, #2
 8006dec:	4413      	add	r3, r2
 8006dee:	009b      	lsls	r3, r3, #2
 8006df0:	440b      	add	r3, r1
 8006df2:	68fa      	ldr	r2, [r7, #12]
 8006df4:	601a      	str	r2, [r3, #0]
  _aTasks[_NumTasks].pcTaskName = pcTaskName;
 8006df6:	4b20      	ldr	r3, [pc, #128]	; (8006e78 <SYSVIEW_AddTask+0xc4>)
 8006df8:	681a      	ldr	r2, [r3, #0]
 8006dfa:	4921      	ldr	r1, [pc, #132]	; (8006e80 <SYSVIEW_AddTask+0xcc>)
 8006dfc:	4613      	mov	r3, r2
 8006dfe:	009b      	lsls	r3, r3, #2
 8006e00:	4413      	add	r3, r2
 8006e02:	009b      	lsls	r3, r3, #2
 8006e04:	440b      	add	r3, r1
 8006e06:	3304      	adds	r3, #4
 8006e08:	68ba      	ldr	r2, [r7, #8]
 8006e0a:	601a      	str	r2, [r3, #0]
  _aTasks[_NumTasks].uxCurrentPriority = uxCurrentPriority;
 8006e0c:	4b1a      	ldr	r3, [pc, #104]	; (8006e78 <SYSVIEW_AddTask+0xc4>)
 8006e0e:	681a      	ldr	r2, [r3, #0]
 8006e10:	491b      	ldr	r1, [pc, #108]	; (8006e80 <SYSVIEW_AddTask+0xcc>)
 8006e12:	4613      	mov	r3, r2
 8006e14:	009b      	lsls	r3, r3, #2
 8006e16:	4413      	add	r3, r2
 8006e18:	009b      	lsls	r3, r3, #2
 8006e1a:	440b      	add	r3, r1
 8006e1c:	3308      	adds	r3, #8
 8006e1e:	687a      	ldr	r2, [r7, #4]
 8006e20:	601a      	str	r2, [r3, #0]
  _aTasks[_NumTasks].pxStack = pxStack;
 8006e22:	4b15      	ldr	r3, [pc, #84]	; (8006e78 <SYSVIEW_AddTask+0xc4>)
 8006e24:	681a      	ldr	r2, [r3, #0]
 8006e26:	4916      	ldr	r1, [pc, #88]	; (8006e80 <SYSVIEW_AddTask+0xcc>)
 8006e28:	4613      	mov	r3, r2
 8006e2a:	009b      	lsls	r3, r3, #2
 8006e2c:	4413      	add	r3, r2
 8006e2e:	009b      	lsls	r3, r3, #2
 8006e30:	440b      	add	r3, r1
 8006e32:	330c      	adds	r3, #12
 8006e34:	683a      	ldr	r2, [r7, #0]
 8006e36:	601a      	str	r2, [r3, #0]
  _aTasks[_NumTasks].uStackHighWaterMark = uStackHighWaterMark;
 8006e38:	4b0f      	ldr	r3, [pc, #60]	; (8006e78 <SYSVIEW_AddTask+0xc4>)
 8006e3a:	681a      	ldr	r2, [r3, #0]
 8006e3c:	4910      	ldr	r1, [pc, #64]	; (8006e80 <SYSVIEW_AddTask+0xcc>)
 8006e3e:	4613      	mov	r3, r2
 8006e40:	009b      	lsls	r3, r3, #2
 8006e42:	4413      	add	r3, r2
 8006e44:	009b      	lsls	r3, r3, #2
 8006e46:	440b      	add	r3, r1
 8006e48:	3310      	adds	r3, #16
 8006e4a:	69ba      	ldr	r2, [r7, #24]
 8006e4c:	601a      	str	r2, [r3, #0]

  _NumTasks++;
 8006e4e:	4b0a      	ldr	r3, [pc, #40]	; (8006e78 <SYSVIEW_AddTask+0xc4>)
 8006e50:	681b      	ldr	r3, [r3, #0]
 8006e52:	3301      	adds	r3, #1
 8006e54:	4a08      	ldr	r2, [pc, #32]	; (8006e78 <SYSVIEW_AddTask+0xc4>)
 8006e56:	6013      	str	r3, [r2, #0]

  SYSVIEW_SendTaskInfo(xHandle, pcTaskName,uxCurrentPriority, pxStack, uStackHighWaterMark);
 8006e58:	69bb      	ldr	r3, [r7, #24]
 8006e5a:	9300      	str	r3, [sp, #0]
 8006e5c:	683b      	ldr	r3, [r7, #0]
 8006e5e:	687a      	ldr	r2, [r7, #4]
 8006e60:	68b9      	ldr	r1, [r7, #8]
 8006e62:	68f8      	ldr	r0, [r7, #12]
 8006e64:	f000 f8ca 	bl	8006ffc <SYSVIEW_SendTaskInfo>
 8006e68:	e000      	b.n	8006e6c <SYSVIEW_AddTask+0xb8>
    return;
 8006e6a:	bf00      	nop

}
 8006e6c:	3710      	adds	r7, #16
 8006e6e:	46bd      	mov	sp, r7
 8006e70:	bd80      	pop	{r7, pc}
 8006e72:	bf00      	nop
 8006e74:	080084d0 	.word	0x080084d0
 8006e78:	20001c78 	.word	0x20001c78
 8006e7c:	080084d8 	.word	0x080084d8
 8006e80:	20001bd8 	.word	0x20001bd8

08006e84 <SYSVIEW_DeleteTask>:
*       SYSVIEW_DeleteTask()
*
*  Function description
*    Delete a task from the internal list.
*/
void SYSVIEW_DeleteTask(U32 xHandle) {
 8006e84:	b580      	push	{r7, lr}
 8006e86:	b084      	sub	sp, #16
 8006e88:	af00      	add	r7, sp, #0
 8006e8a:	6078      	str	r0, [r7, #4]
  unsigned n;
  
  if (_NumTasks == 0) {
 8006e8c:	4b59      	ldr	r3, [pc, #356]	; (8006ff4 <SYSVIEW_DeleteTask+0x170>)
 8006e8e:	681b      	ldr	r3, [r3, #0]
 8006e90:	2b00      	cmp	r3, #0
 8006e92:	f000 80ab 	beq.w	8006fec <SYSVIEW_DeleteTask+0x168>
    return; // Early out
  }  
  for (n = 0; n < _NumTasks; n++) {
 8006e96:	2300      	movs	r3, #0
 8006e98:	60fb      	str	r3, [r7, #12]
 8006e9a:	e00d      	b.n	8006eb8 <SYSVIEW_DeleteTask+0x34>
    if (_aTasks[n].xHandle == xHandle) {
 8006e9c:	4956      	ldr	r1, [pc, #344]	; (8006ff8 <SYSVIEW_DeleteTask+0x174>)
 8006e9e:	68fa      	ldr	r2, [r7, #12]
 8006ea0:	4613      	mov	r3, r2
 8006ea2:	009b      	lsls	r3, r3, #2
 8006ea4:	4413      	add	r3, r2
 8006ea6:	009b      	lsls	r3, r3, #2
 8006ea8:	440b      	add	r3, r1
 8006eaa:	681b      	ldr	r3, [r3, #0]
 8006eac:	687a      	ldr	r2, [r7, #4]
 8006eae:	429a      	cmp	r2, r3
 8006eb0:	d008      	beq.n	8006ec4 <SYSVIEW_DeleteTask+0x40>
  for (n = 0; n < _NumTasks; n++) {
 8006eb2:	68fb      	ldr	r3, [r7, #12]
 8006eb4:	3301      	adds	r3, #1
 8006eb6:	60fb      	str	r3, [r7, #12]
 8006eb8:	4b4e      	ldr	r3, [pc, #312]	; (8006ff4 <SYSVIEW_DeleteTask+0x170>)
 8006eba:	681b      	ldr	r3, [r3, #0]
 8006ebc:	68fa      	ldr	r2, [r7, #12]
 8006ebe:	429a      	cmp	r2, r3
 8006ec0:	d3ec      	bcc.n	8006e9c <SYSVIEW_DeleteTask+0x18>
 8006ec2:	e000      	b.n	8006ec6 <SYSVIEW_DeleteTask+0x42>
      break;
 8006ec4:	bf00      	nop
    }
  }
  if (n == (_NumTasks - 1)) {  
 8006ec6:	4b4b      	ldr	r3, [pc, #300]	; (8006ff4 <SYSVIEW_DeleteTask+0x170>)
 8006ec8:	681b      	ldr	r3, [r3, #0]
 8006eca:	3b01      	subs	r3, #1
 8006ecc:	68fa      	ldr	r2, [r7, #12]
 8006ece:	429a      	cmp	r2, r3
 8006ed0:	d111      	bne.n	8006ef6 <SYSVIEW_DeleteTask+0x72>
    //
    // Task is last item in list.
    // Simply zero the item and decrement number of tasks.
    //
    memset(&_aTasks[n], 0, sizeof(_aTasks[n]));
 8006ed2:	68fa      	ldr	r2, [r7, #12]
 8006ed4:	4613      	mov	r3, r2
 8006ed6:	009b      	lsls	r3, r3, #2
 8006ed8:	4413      	add	r3, r2
 8006eda:	009b      	lsls	r3, r3, #2
 8006edc:	4a46      	ldr	r2, [pc, #280]	; (8006ff8 <SYSVIEW_DeleteTask+0x174>)
 8006ede:	4413      	add	r3, r2
 8006ee0:	2214      	movs	r2, #20
 8006ee2:	2100      	movs	r1, #0
 8006ee4:	4618      	mov	r0, r3
 8006ee6:	f001 faad 	bl	8008444 <memset>
    _NumTasks--;
 8006eea:	4b42      	ldr	r3, [pc, #264]	; (8006ff4 <SYSVIEW_DeleteTask+0x170>)
 8006eec:	681b      	ldr	r3, [r3, #0]
 8006eee:	3b01      	subs	r3, #1
 8006ef0:	4a40      	ldr	r2, [pc, #256]	; (8006ff4 <SYSVIEW_DeleteTask+0x170>)
 8006ef2:	6013      	str	r3, [r2, #0]
 8006ef4:	e07b      	b.n	8006fee <SYSVIEW_DeleteTask+0x16a>
  } else if (n < _NumTasks) {
 8006ef6:	4b3f      	ldr	r3, [pc, #252]	; (8006ff4 <SYSVIEW_DeleteTask+0x170>)
 8006ef8:	681b      	ldr	r3, [r3, #0]
 8006efa:	68fa      	ldr	r2, [r7, #12]
 8006efc:	429a      	cmp	r2, r3
 8006efe:	d276      	bcs.n	8006fee <SYSVIEW_DeleteTask+0x16a>
    //
    // Task is in the middle of the list.
    // Move last item to current position and decrement number of tasks.
    // Order of tasks does not really matter, so no need to move all following items.
    //
    _aTasks[n].xHandle             = _aTasks[_NumTasks - 1].xHandle;
 8006f00:	4b3c      	ldr	r3, [pc, #240]	; (8006ff4 <SYSVIEW_DeleteTask+0x170>)
 8006f02:	681b      	ldr	r3, [r3, #0]
 8006f04:	1e5a      	subs	r2, r3, #1
 8006f06:	493c      	ldr	r1, [pc, #240]	; (8006ff8 <SYSVIEW_DeleteTask+0x174>)
 8006f08:	4613      	mov	r3, r2
 8006f0a:	009b      	lsls	r3, r3, #2
 8006f0c:	4413      	add	r3, r2
 8006f0e:	009b      	lsls	r3, r3, #2
 8006f10:	440b      	add	r3, r1
 8006f12:	6819      	ldr	r1, [r3, #0]
 8006f14:	4838      	ldr	r0, [pc, #224]	; (8006ff8 <SYSVIEW_DeleteTask+0x174>)
 8006f16:	68fa      	ldr	r2, [r7, #12]
 8006f18:	4613      	mov	r3, r2
 8006f1a:	009b      	lsls	r3, r3, #2
 8006f1c:	4413      	add	r3, r2
 8006f1e:	009b      	lsls	r3, r3, #2
 8006f20:	4403      	add	r3, r0
 8006f22:	6019      	str	r1, [r3, #0]
    _aTasks[n].pcTaskName          = _aTasks[_NumTasks - 1].pcTaskName;
 8006f24:	4b33      	ldr	r3, [pc, #204]	; (8006ff4 <SYSVIEW_DeleteTask+0x170>)
 8006f26:	681b      	ldr	r3, [r3, #0]
 8006f28:	1e5a      	subs	r2, r3, #1
 8006f2a:	4933      	ldr	r1, [pc, #204]	; (8006ff8 <SYSVIEW_DeleteTask+0x174>)
 8006f2c:	4613      	mov	r3, r2
 8006f2e:	009b      	lsls	r3, r3, #2
 8006f30:	4413      	add	r3, r2
 8006f32:	009b      	lsls	r3, r3, #2
 8006f34:	440b      	add	r3, r1
 8006f36:	3304      	adds	r3, #4
 8006f38:	6819      	ldr	r1, [r3, #0]
 8006f3a:	482f      	ldr	r0, [pc, #188]	; (8006ff8 <SYSVIEW_DeleteTask+0x174>)
 8006f3c:	68fa      	ldr	r2, [r7, #12]
 8006f3e:	4613      	mov	r3, r2
 8006f40:	009b      	lsls	r3, r3, #2
 8006f42:	4413      	add	r3, r2
 8006f44:	009b      	lsls	r3, r3, #2
 8006f46:	4403      	add	r3, r0
 8006f48:	3304      	adds	r3, #4
 8006f4a:	6019      	str	r1, [r3, #0]
    _aTasks[n].uxCurrentPriority   = _aTasks[_NumTasks - 1].uxCurrentPriority;
 8006f4c:	4b29      	ldr	r3, [pc, #164]	; (8006ff4 <SYSVIEW_DeleteTask+0x170>)
 8006f4e:	681b      	ldr	r3, [r3, #0]
 8006f50:	1e5a      	subs	r2, r3, #1
 8006f52:	4929      	ldr	r1, [pc, #164]	; (8006ff8 <SYSVIEW_DeleteTask+0x174>)
 8006f54:	4613      	mov	r3, r2
 8006f56:	009b      	lsls	r3, r3, #2
 8006f58:	4413      	add	r3, r2
 8006f5a:	009b      	lsls	r3, r3, #2
 8006f5c:	440b      	add	r3, r1
 8006f5e:	3308      	adds	r3, #8
 8006f60:	6819      	ldr	r1, [r3, #0]
 8006f62:	4825      	ldr	r0, [pc, #148]	; (8006ff8 <SYSVIEW_DeleteTask+0x174>)
 8006f64:	68fa      	ldr	r2, [r7, #12]
 8006f66:	4613      	mov	r3, r2
 8006f68:	009b      	lsls	r3, r3, #2
 8006f6a:	4413      	add	r3, r2
 8006f6c:	009b      	lsls	r3, r3, #2
 8006f6e:	4403      	add	r3, r0
 8006f70:	3308      	adds	r3, #8
 8006f72:	6019      	str	r1, [r3, #0]
    _aTasks[n].pxStack             = _aTasks[_NumTasks - 1].pxStack;
 8006f74:	4b1f      	ldr	r3, [pc, #124]	; (8006ff4 <SYSVIEW_DeleteTask+0x170>)
 8006f76:	681b      	ldr	r3, [r3, #0]
 8006f78:	1e5a      	subs	r2, r3, #1
 8006f7a:	491f      	ldr	r1, [pc, #124]	; (8006ff8 <SYSVIEW_DeleteTask+0x174>)
 8006f7c:	4613      	mov	r3, r2
 8006f7e:	009b      	lsls	r3, r3, #2
 8006f80:	4413      	add	r3, r2
 8006f82:	009b      	lsls	r3, r3, #2
 8006f84:	440b      	add	r3, r1
 8006f86:	330c      	adds	r3, #12
 8006f88:	6819      	ldr	r1, [r3, #0]
 8006f8a:	481b      	ldr	r0, [pc, #108]	; (8006ff8 <SYSVIEW_DeleteTask+0x174>)
 8006f8c:	68fa      	ldr	r2, [r7, #12]
 8006f8e:	4613      	mov	r3, r2
 8006f90:	009b      	lsls	r3, r3, #2
 8006f92:	4413      	add	r3, r2
 8006f94:	009b      	lsls	r3, r3, #2
 8006f96:	4403      	add	r3, r0
 8006f98:	330c      	adds	r3, #12
 8006f9a:	6019      	str	r1, [r3, #0]
    _aTasks[n].uStackHighWaterMark = _aTasks[_NumTasks - 1].uStackHighWaterMark;
 8006f9c:	4b15      	ldr	r3, [pc, #84]	; (8006ff4 <SYSVIEW_DeleteTask+0x170>)
 8006f9e:	681b      	ldr	r3, [r3, #0]
 8006fa0:	1e5a      	subs	r2, r3, #1
 8006fa2:	4915      	ldr	r1, [pc, #84]	; (8006ff8 <SYSVIEW_DeleteTask+0x174>)
 8006fa4:	4613      	mov	r3, r2
 8006fa6:	009b      	lsls	r3, r3, #2
 8006fa8:	4413      	add	r3, r2
 8006faa:	009b      	lsls	r3, r3, #2
 8006fac:	440b      	add	r3, r1
 8006fae:	3310      	adds	r3, #16
 8006fb0:	6819      	ldr	r1, [r3, #0]
 8006fb2:	4811      	ldr	r0, [pc, #68]	; (8006ff8 <SYSVIEW_DeleteTask+0x174>)
 8006fb4:	68fa      	ldr	r2, [r7, #12]
 8006fb6:	4613      	mov	r3, r2
 8006fb8:	009b      	lsls	r3, r3, #2
 8006fba:	4413      	add	r3, r2
 8006fbc:	009b      	lsls	r3, r3, #2
 8006fbe:	4403      	add	r3, r0
 8006fc0:	3310      	adds	r3, #16
 8006fc2:	6019      	str	r1, [r3, #0]
    memset(&_aTasks[_NumTasks - 1], 0, sizeof(_aTasks[_NumTasks - 1]));
 8006fc4:	4b0b      	ldr	r3, [pc, #44]	; (8006ff4 <SYSVIEW_DeleteTask+0x170>)
 8006fc6:	681b      	ldr	r3, [r3, #0]
 8006fc8:	1e5a      	subs	r2, r3, #1
 8006fca:	4613      	mov	r3, r2
 8006fcc:	009b      	lsls	r3, r3, #2
 8006fce:	4413      	add	r3, r2
 8006fd0:	009b      	lsls	r3, r3, #2
 8006fd2:	4a09      	ldr	r2, [pc, #36]	; (8006ff8 <SYSVIEW_DeleteTask+0x174>)
 8006fd4:	4413      	add	r3, r2
 8006fd6:	2214      	movs	r2, #20
 8006fd8:	2100      	movs	r1, #0
 8006fda:	4618      	mov	r0, r3
 8006fdc:	f001 fa32 	bl	8008444 <memset>
    _NumTasks--;
 8006fe0:	4b04      	ldr	r3, [pc, #16]	; (8006ff4 <SYSVIEW_DeleteTask+0x170>)
 8006fe2:	681b      	ldr	r3, [r3, #0]
 8006fe4:	3b01      	subs	r3, #1
 8006fe6:	4a03      	ldr	r2, [pc, #12]	; (8006ff4 <SYSVIEW_DeleteTask+0x170>)
 8006fe8:	6013      	str	r3, [r2, #0]
 8006fea:	e000      	b.n	8006fee <SYSVIEW_DeleteTask+0x16a>
    return; // Early out
 8006fec:	bf00      	nop
  }
}
 8006fee:	3710      	adds	r7, #16
 8006ff0:	46bd      	mov	sp, r7
 8006ff2:	bd80      	pop	{r7, pc}
 8006ff4:	20001c78 	.word	0x20001c78
 8006ff8:	20001bd8 	.word	0x20001bd8

08006ffc <SYSVIEW_SendTaskInfo>:
*       SYSVIEW_SendTaskInfo()
*
*  Function description
*    Record task information.
*/
void SYSVIEW_SendTaskInfo(U32 TaskID, const char* sName, unsigned Prio, U32 StackBase, unsigned StackSize) {
 8006ffc:	b580      	push	{r7, lr}
 8006ffe:	b08a      	sub	sp, #40	; 0x28
 8007000:	af00      	add	r7, sp, #0
 8007002:	60f8      	str	r0, [r7, #12]
 8007004:	60b9      	str	r1, [r7, #8]
 8007006:	607a      	str	r2, [r7, #4]
 8007008:	603b      	str	r3, [r7, #0]
  SEGGER_SYSVIEW_TASKINFO TaskInfo;

  memset(&TaskInfo, 0, sizeof(TaskInfo)); // Fill all elements with 0 to allow extending the structure in future version without breaking the code
 800700a:	f107 0314 	add.w	r3, r7, #20
 800700e:	2214      	movs	r2, #20
 8007010:	2100      	movs	r1, #0
 8007012:	4618      	mov	r0, r3
 8007014:	f001 fa16 	bl	8008444 <memset>
  TaskInfo.TaskID     = TaskID;
 8007018:	68fb      	ldr	r3, [r7, #12]
 800701a:	617b      	str	r3, [r7, #20]
  TaskInfo.sName      = sName;
 800701c:	68bb      	ldr	r3, [r7, #8]
 800701e:	61bb      	str	r3, [r7, #24]
  TaskInfo.Prio       = Prio;
 8007020:	687b      	ldr	r3, [r7, #4]
 8007022:	61fb      	str	r3, [r7, #28]
  TaskInfo.StackBase  = StackBase;
 8007024:	683b      	ldr	r3, [r7, #0]
 8007026:	623b      	str	r3, [r7, #32]
  TaskInfo.StackSize  = StackSize;
 8007028:	6b3b      	ldr	r3, [r7, #48]	; 0x30
 800702a:	627b      	str	r3, [r7, #36]	; 0x24
  SEGGER_SYSVIEW_SendTaskInfo(&TaskInfo);
 800702c:	f107 0314 	add.w	r3, r7, #20
 8007030:	4618      	mov	r0, r3
 8007032:	f000 fd9d 	bl	8007b70 <SEGGER_SYSVIEW_SendTaskInfo>
}
 8007036:	bf00      	nop
 8007038:	3728      	adds	r7, #40	; 0x28
 800703a:	46bd      	mov	sp, r7
 800703c:	bd80      	pop	{r7, pc}
	...

08007040 <_DoInit>:
                      _DoInit();                                                                     \
                    }                                                                                \
                  } while (0);                                                                       \
                }

static void _DoInit(void) {
 8007040:	b480      	push	{r7}
 8007042:	b083      	sub	sp, #12
 8007044:	af00      	add	r7, sp, #0
  volatile SEGGER_RTT_CB* p;   // Volatile to make sure that compiler cannot change the order of accesses to the control block
  //
  // Initialize control block
  //
  p                     = (volatile SEGGER_RTT_CB*)((char*)&_SEGGER_RTT + SEGGER_RTT_UNCACHED_OFF);  // Access control block uncached so that nothing in the cache ever becomes dirty and all changes are visible in HW directly
 8007046:	4b21      	ldr	r3, [pc, #132]	; (80070cc <_DoInit+0x8c>)
 8007048:	607b      	str	r3, [r7, #4]
  p->MaxNumUpBuffers    = SEGGER_RTT_MAX_NUM_UP_BUFFERS;
 800704a:	687b      	ldr	r3, [r7, #4]
 800704c:	2203      	movs	r2, #3
 800704e:	611a      	str	r2, [r3, #16]
  p->MaxNumDownBuffers  = SEGGER_RTT_MAX_NUM_DOWN_BUFFERS;
 8007050:	687b      	ldr	r3, [r7, #4]
 8007052:	2203      	movs	r2, #3
 8007054:	615a      	str	r2, [r3, #20]
  //
  // Initialize up buffer 0
  //
  p->aUp[0].sName         = "Terminal";
 8007056:	687b      	ldr	r3, [r7, #4]
 8007058:	4a1d      	ldr	r2, [pc, #116]	; (80070d0 <_DoInit+0x90>)
 800705a:	619a      	str	r2, [r3, #24]
  p->aUp[0].pBuffer       = _acUpBuffer;
 800705c:	687b      	ldr	r3, [r7, #4]
 800705e:	4a1d      	ldr	r2, [pc, #116]	; (80070d4 <_DoInit+0x94>)
 8007060:	61da      	str	r2, [r3, #28]
  p->aUp[0].SizeOfBuffer  = BUFFER_SIZE_UP;
 8007062:	687b      	ldr	r3, [r7, #4]
 8007064:	f44f 6280 	mov.w	r2, #1024	; 0x400
 8007068:	621a      	str	r2, [r3, #32]
  p->aUp[0].RdOff         = 0u;
 800706a:	687b      	ldr	r3, [r7, #4]
 800706c:	2200      	movs	r2, #0
 800706e:	629a      	str	r2, [r3, #40]	; 0x28
  p->aUp[0].WrOff         = 0u;
 8007070:	687b      	ldr	r3, [r7, #4]
 8007072:	2200      	movs	r2, #0
 8007074:	625a      	str	r2, [r3, #36]	; 0x24
  p->aUp[0].Flags         = SEGGER_RTT_MODE_DEFAULT;
 8007076:	687b      	ldr	r3, [r7, #4]
 8007078:	2200      	movs	r2, #0
 800707a:	62da      	str	r2, [r3, #44]	; 0x2c
  //
  // Initialize down buffer 0
  //
  p->aDown[0].sName         = "Terminal";
 800707c:	687b      	ldr	r3, [r7, #4]
 800707e:	4a14      	ldr	r2, [pc, #80]	; (80070d0 <_DoInit+0x90>)
 8007080:	661a      	str	r2, [r3, #96]	; 0x60
  p->aDown[0].pBuffer       = _acDownBuffer;
 8007082:	687b      	ldr	r3, [r7, #4]
 8007084:	4a14      	ldr	r2, [pc, #80]	; (80070d8 <_DoInit+0x98>)
 8007086:	665a      	str	r2, [r3, #100]	; 0x64
  p->aDown[0].SizeOfBuffer  = BUFFER_SIZE_DOWN;
 8007088:	687b      	ldr	r3, [r7, #4]
 800708a:	2210      	movs	r2, #16
 800708c:	669a      	str	r2, [r3, #104]	; 0x68
  p->aDown[0].RdOff         = 0u;
 800708e:	687b      	ldr	r3, [r7, #4]
 8007090:	2200      	movs	r2, #0
 8007092:	671a      	str	r2, [r3, #112]	; 0x70
  p->aDown[0].WrOff         = 0u;
 8007094:	687b      	ldr	r3, [r7, #4]
 8007096:	2200      	movs	r2, #0
 8007098:	66da      	str	r2, [r3, #108]	; 0x6c
  p->aDown[0].Flags         = SEGGER_RTT_MODE_DEFAULT;
 800709a:	687b      	ldr	r3, [r7, #4]
 800709c:	2200      	movs	r2, #0
 800709e:	675a      	str	r2, [r3, #116]	; 0x74
  //
  // Finish initialization of the control block.
  // Copy Id string in three steps to make sure "SEGGER RTT" is not found
  // in initializer memory (usually flash) by J-Link
  //
  STRCPY((char*)&p->acID[7], "RTT");
 80070a0:	687b      	ldr	r3, [r7, #4]
 80070a2:	3307      	adds	r3, #7
 80070a4:	4a0d      	ldr	r2, [pc, #52]	; (80070dc <_DoInit+0x9c>)
 80070a6:	6810      	ldr	r0, [r2, #0]
 80070a8:	6018      	str	r0, [r3, #0]
  RTT__DMB();                       // Force order of memory accessed inside core for cores that allow to change the order
  STRCPY((char*)&p->acID[0], "SEGGER");
 80070aa:	687b      	ldr	r3, [r7, #4]
 80070ac:	4a0c      	ldr	r2, [pc, #48]	; (80070e0 <_DoInit+0xa0>)
 80070ae:	6810      	ldr	r0, [r2, #0]
 80070b0:	6018      	str	r0, [r3, #0]
 80070b2:	8891      	ldrh	r1, [r2, #4]
 80070b4:	7992      	ldrb	r2, [r2, #6]
 80070b6:	8099      	strh	r1, [r3, #4]
 80070b8:	719a      	strb	r2, [r3, #6]
  RTT__DMB();                       // Force order of memory accessed inside core for cores that allow to change the order
  p->acID[6] = ' ';
 80070ba:	687b      	ldr	r3, [r7, #4]
 80070bc:	2220      	movs	r2, #32
 80070be:	719a      	strb	r2, [r3, #6]
  RTT__DMB();                       // Force order of memory accessed inside core for cores that allow to change the order
}
 80070c0:	bf00      	nop
 80070c2:	370c      	adds	r7, #12
 80070c4:	46bd      	mov	sp, r7
 80070c6:	bc80      	pop	{r7}
 80070c8:	4770      	bx	lr
 80070ca:	bf00      	nop
 80070cc:	20002308 	.word	0x20002308
 80070d0:	08008528 	.word	0x08008528
 80070d4:	20001c7c 	.word	0x20001c7c
 80070d8:	2000207c 	.word	0x2000207c
 80070dc:	08008534 	.word	0x08008534
 80070e0:	08008538 	.word	0x08008538

080070e4 <SEGGER_RTT_ReadNoLock>:
*    BufferSize   Size of the target application buffer.
*
*  Return value
*    Number of bytes that have been read.
*/
unsigned SEGGER_RTT_ReadNoLock(unsigned BufferIndex, void* pData, unsigned BufferSize) {
 80070e4:	b580      	push	{r7, lr}
 80070e6:	b08c      	sub	sp, #48	; 0x30
 80070e8:	af00      	add	r7, sp, #0
 80070ea:	60f8      	str	r0, [r7, #12]
 80070ec:	60b9      	str	r1, [r7, #8]
 80070ee:	607a      	str	r2, [r7, #4]
  unsigned                WrOff;
  unsigned char*          pBuffer;
  SEGGER_RTT_BUFFER_DOWN* pRing;
  volatile char*          pSrc;
  //
  INIT();
 80070f0:	4b3e      	ldr	r3, [pc, #248]	; (80071ec <SEGGER_RTT_ReadNoLock+0x108>)
 80070f2:	623b      	str	r3, [r7, #32]
 80070f4:	6a3b      	ldr	r3, [r7, #32]
 80070f6:	781b      	ldrb	r3, [r3, #0]
 80070f8:	b2db      	uxtb	r3, r3
 80070fa:	2b00      	cmp	r3, #0
 80070fc:	d101      	bne.n	8007102 <SEGGER_RTT_ReadNoLock+0x1e>
 80070fe:	f7ff ff9f 	bl	8007040 <_DoInit>
  pRing = (SEGGER_RTT_BUFFER_DOWN*)((char*)&_SEGGER_RTT.aDown[BufferIndex] + SEGGER_RTT_UNCACHED_OFF);  // Access uncached to make sure we see changes made by the J-Link side and all of our changes go into HW directly
 8007102:	68fa      	ldr	r2, [r7, #12]
 8007104:	4613      	mov	r3, r2
 8007106:	005b      	lsls	r3, r3, #1
 8007108:	4413      	add	r3, r2
 800710a:	00db      	lsls	r3, r3, #3
 800710c:	3360      	adds	r3, #96	; 0x60
 800710e:	4a37      	ldr	r2, [pc, #220]	; (80071ec <SEGGER_RTT_ReadNoLock+0x108>)
 8007110:	4413      	add	r3, r2
 8007112:	61fb      	str	r3, [r7, #28]
  pBuffer = (unsigned char*)pData;
 8007114:	68bb      	ldr	r3, [r7, #8]
 8007116:	627b      	str	r3, [r7, #36]	; 0x24
  RdOff = pRing->RdOff;
 8007118:	69fb      	ldr	r3, [r7, #28]
 800711a:	691b      	ldr	r3, [r3, #16]
 800711c:	62bb      	str	r3, [r7, #40]	; 0x28
  WrOff = pRing->WrOff;
 800711e:	69fb      	ldr	r3, [r7, #28]
 8007120:	68db      	ldr	r3, [r3, #12]
 8007122:	61bb      	str	r3, [r7, #24]
  NumBytesRead = 0u;
 8007124:	2300      	movs	r3, #0
 8007126:	62fb      	str	r3, [r7, #44]	; 0x2c
  //
  // Read from current read position to wrap-around of buffer, first
  //
  if (RdOff > WrOff) {
 8007128:	6aba      	ldr	r2, [r7, #40]	; 0x28
 800712a:	69bb      	ldr	r3, [r7, #24]
 800712c:	429a      	cmp	r2, r3
 800712e:	d92b      	bls.n	8007188 <SEGGER_RTT_ReadNoLock+0xa4>
    NumBytesRem = pRing->SizeOfBuffer - RdOff;
 8007130:	69fb      	ldr	r3, [r7, #28]
 8007132:	689a      	ldr	r2, [r3, #8]
 8007134:	6abb      	ldr	r3, [r7, #40]	; 0x28
 8007136:	1ad3      	subs	r3, r2, r3
 8007138:	617b      	str	r3, [r7, #20]
    NumBytesRem = MIN(NumBytesRem, BufferSize);
 800713a:	697a      	ldr	r2, [r7, #20]
 800713c:	687b      	ldr	r3, [r7, #4]
 800713e:	4293      	cmp	r3, r2
 8007140:	bf28      	it	cs
 8007142:	4613      	movcs	r3, r2
 8007144:	617b      	str	r3, [r7, #20]
    pSrc = (pRing->pBuffer + RdOff) + SEGGER_RTT_UNCACHED_OFF;
 8007146:	69fb      	ldr	r3, [r7, #28]
 8007148:	685a      	ldr	r2, [r3, #4]
 800714a:	6abb      	ldr	r3, [r7, #40]	; 0x28
 800714c:	4413      	add	r3, r2
 800714e:	613b      	str	r3, [r7, #16]
    RdOff        += NumBytesRem;
    while (NumBytesRem--) {
      *pBuffer++ = *pSrc++;
    };
#else
    SEGGER_RTT_MEMCPY(pBuffer, (void*)pSrc, NumBytesRem);
 8007150:	697a      	ldr	r2, [r7, #20]
 8007152:	6939      	ldr	r1, [r7, #16]
 8007154:	6a78      	ldr	r0, [r7, #36]	; 0x24
 8007156:	f001 f96a 	bl	800842e <memcpy>
    NumBytesRead += NumBytesRem;
 800715a:	6afa      	ldr	r2, [r7, #44]	; 0x2c
 800715c:	697b      	ldr	r3, [r7, #20]
 800715e:	4413      	add	r3, r2
 8007160:	62fb      	str	r3, [r7, #44]	; 0x2c
    pBuffer      += NumBytesRem;
 8007162:	6a7a      	ldr	r2, [r7, #36]	; 0x24
 8007164:	697b      	ldr	r3, [r7, #20]
 8007166:	4413      	add	r3, r2
 8007168:	627b      	str	r3, [r7, #36]	; 0x24
    BufferSize   -= NumBytesRem;
 800716a:	687a      	ldr	r2, [r7, #4]
 800716c:	697b      	ldr	r3, [r7, #20]
 800716e:	1ad3      	subs	r3, r2, r3
 8007170:	607b      	str	r3, [r7, #4]
    RdOff        += NumBytesRem;
 8007172:	6aba      	ldr	r2, [r7, #40]	; 0x28
 8007174:	697b      	ldr	r3, [r7, #20]
 8007176:	4413      	add	r3, r2
 8007178:	62bb      	str	r3, [r7, #40]	; 0x28
#endif
    //
    // Handle wrap-around of buffer
    //
    if (RdOff == pRing->SizeOfBuffer) {
 800717a:	69fb      	ldr	r3, [r7, #28]
 800717c:	689b      	ldr	r3, [r3, #8]
 800717e:	6aba      	ldr	r2, [r7, #40]	; 0x28
 8007180:	429a      	cmp	r2, r3
 8007182:	d101      	bne.n	8007188 <SEGGER_RTT_ReadNoLock+0xa4>
      RdOff = 0u;
 8007184:	2300      	movs	r3, #0
 8007186:	62bb      	str	r3, [r7, #40]	; 0x28
    }
  }
  //
  // Read remaining items of buffer
  //
  NumBytesRem = WrOff - RdOff;
 8007188:	69ba      	ldr	r2, [r7, #24]
 800718a:	6abb      	ldr	r3, [r7, #40]	; 0x28
 800718c:	1ad3      	subs	r3, r2, r3
 800718e:	617b      	str	r3, [r7, #20]
  NumBytesRem = MIN(NumBytesRem, BufferSize);
 8007190:	697a      	ldr	r2, [r7, #20]
 8007192:	687b      	ldr	r3, [r7, #4]
 8007194:	4293      	cmp	r3, r2
 8007196:	bf28      	it	cs
 8007198:	4613      	movcs	r3, r2
 800719a:	617b      	str	r3, [r7, #20]
  if (NumBytesRem > 0u) {
 800719c:	697b      	ldr	r3, [r7, #20]
 800719e:	2b00      	cmp	r3, #0
 80071a0:	d019      	beq.n	80071d6 <SEGGER_RTT_ReadNoLock+0xf2>
    pSrc = (pRing->pBuffer + RdOff) + SEGGER_RTT_UNCACHED_OFF;
 80071a2:	69fb      	ldr	r3, [r7, #28]
 80071a4:	685a      	ldr	r2, [r3, #4]
 80071a6:	6abb      	ldr	r3, [r7, #40]	; 0x28
 80071a8:	4413      	add	r3, r2
 80071aa:	613b      	str	r3, [r7, #16]
    RdOff        += NumBytesRem;
    while (NumBytesRem--) {
      *pBuffer++ = *pSrc++;
    };
#else
    SEGGER_RTT_MEMCPY(pBuffer, (void*)pSrc, NumBytesRem);
 80071ac:	697a      	ldr	r2, [r7, #20]
 80071ae:	6939      	ldr	r1, [r7, #16]
 80071b0:	6a78      	ldr	r0, [r7, #36]	; 0x24
 80071b2:	f001 f93c 	bl	800842e <memcpy>
    NumBytesRead += NumBytesRem;
 80071b6:	6afa      	ldr	r2, [r7, #44]	; 0x2c
 80071b8:	697b      	ldr	r3, [r7, #20]
 80071ba:	4413      	add	r3, r2
 80071bc:	62fb      	str	r3, [r7, #44]	; 0x2c
    pBuffer      += NumBytesRem;
 80071be:	6a7a      	ldr	r2, [r7, #36]	; 0x24
 80071c0:	697b      	ldr	r3, [r7, #20]
 80071c2:	4413      	add	r3, r2
 80071c4:	627b      	str	r3, [r7, #36]	; 0x24
    BufferSize   -= NumBytesRem;
 80071c6:	687a      	ldr	r2, [r7, #4]
 80071c8:	697b      	ldr	r3, [r7, #20]
 80071ca:	1ad3      	subs	r3, r2, r3
 80071cc:	607b      	str	r3, [r7, #4]
    RdOff        += NumBytesRem;
 80071ce:	6aba      	ldr	r2, [r7, #40]	; 0x28
 80071d0:	697b      	ldr	r3, [r7, #20]
 80071d2:	4413      	add	r3, r2
 80071d4:	62bb      	str	r3, [r7, #40]	; 0x28
#endif
  }
  if (NumBytesRead) {
 80071d6:	6afb      	ldr	r3, [r7, #44]	; 0x2c
 80071d8:	2b00      	cmp	r3, #0
 80071da:	d002      	beq.n	80071e2 <SEGGER_RTT_ReadNoLock+0xfe>
    pRing->RdOff = RdOff;
 80071dc:	69fb      	ldr	r3, [r7, #28]
 80071de:	6aba      	ldr	r2, [r7, #40]	; 0x28
 80071e0:	611a      	str	r2, [r3, #16]
  }
  //
  return NumBytesRead;
 80071e2:	6afb      	ldr	r3, [r7, #44]	; 0x2c
}
 80071e4:	4618      	mov	r0, r3
 80071e6:	3730      	adds	r7, #48	; 0x30
 80071e8:	46bd      	mov	sp, r7
 80071ea:	bd80      	pop	{r7, pc}
 80071ec:	20002308 	.word	0x20002308

080071f0 <_EncodeStr>:
*  Additional information
*    The string is encoded as a count byte followed by the contents
*    of the string.
*    No more than 1 + Limit bytes will be encoded to the payload.
*/
static U8 *_EncodeStr(U8 *pPayload, const char *pText, unsigned int Limit) {
 80071f0:	b480      	push	{r7}
 80071f2:	b087      	sub	sp, #28
 80071f4:	af00      	add	r7, sp, #0
 80071f6:	60f8      	str	r0, [r7, #12]
 80071f8:	60b9      	str	r1, [r7, #8]
 80071fa:	607a      	str	r2, [r7, #4]
  unsigned int n;
  unsigned int Len;
  //
  // Compute string len
  //
  Len = 0;
 80071fc:	2300      	movs	r3, #0
 80071fe:	613b      	str	r3, [r7, #16]
  while(*(pText + Len) != 0) {
 8007200:	e002      	b.n	8007208 <_EncodeStr+0x18>
    Len++;
 8007202:	693b      	ldr	r3, [r7, #16]
 8007204:	3301      	adds	r3, #1
 8007206:	613b      	str	r3, [r7, #16]
  while(*(pText + Len) != 0) {
 8007208:	68ba      	ldr	r2, [r7, #8]
 800720a:	693b      	ldr	r3, [r7, #16]
 800720c:	4413      	add	r3, r2
 800720e:	781b      	ldrb	r3, [r3, #0]
 8007210:	2b00      	cmp	r3, #0
 8007212:	d1f6      	bne.n	8007202 <_EncodeStr+0x12>
  }
  if (Len > Limit) {
 8007214:	693a      	ldr	r2, [r7, #16]
 8007216:	687b      	ldr	r3, [r7, #4]
 8007218:	429a      	cmp	r2, r3
 800721a:	d901      	bls.n	8007220 <_EncodeStr+0x30>
    Len = Limit;
 800721c:	687b      	ldr	r3, [r7, #4]
 800721e:	613b      	str	r3, [r7, #16]
  }
  //
  // Write Len
  //
  if (Len < 255)  {
 8007220:	693b      	ldr	r3, [r7, #16]
 8007222:	2bfe      	cmp	r3, #254	; 0xfe
 8007224:	d806      	bhi.n	8007234 <_EncodeStr+0x44>
    *pPayload++ = Len; 
 8007226:	68fb      	ldr	r3, [r7, #12]
 8007228:	1c5a      	adds	r2, r3, #1
 800722a:	60fa      	str	r2, [r7, #12]
 800722c:	693a      	ldr	r2, [r7, #16]
 800722e:	b2d2      	uxtb	r2, r2
 8007230:	701a      	strb	r2, [r3, #0]
 8007232:	e011      	b.n	8007258 <_EncodeStr+0x68>
  } else {
    *pPayload++ = 255;
 8007234:	68fb      	ldr	r3, [r7, #12]
 8007236:	1c5a      	adds	r2, r3, #1
 8007238:	60fa      	str	r2, [r7, #12]
 800723a:	22ff      	movs	r2, #255	; 0xff
 800723c:	701a      	strb	r2, [r3, #0]
    *pPayload++ = (Len & 255);
 800723e:	68fb      	ldr	r3, [r7, #12]
 8007240:	1c5a      	adds	r2, r3, #1
 8007242:	60fa      	str	r2, [r7, #12]
 8007244:	693a      	ldr	r2, [r7, #16]
 8007246:	b2d2      	uxtb	r2, r2
 8007248:	701a      	strb	r2, [r3, #0]
    *pPayload++ = ((Len >> 8) & 255);
 800724a:	693b      	ldr	r3, [r7, #16]
 800724c:	0a19      	lsrs	r1, r3, #8
 800724e:	68fb      	ldr	r3, [r7, #12]
 8007250:	1c5a      	adds	r2, r3, #1
 8007252:	60fa      	str	r2, [r7, #12]
 8007254:	b2ca      	uxtb	r2, r1
 8007256:	701a      	strb	r2, [r3, #0]
  }
  //
  // copy string
  //
  n = 0;
 8007258:	2300      	movs	r3, #0
 800725a:	617b      	str	r3, [r7, #20]
  while (n < Len) {
 800725c:	e00a      	b.n	8007274 <_EncodeStr+0x84>
    *pPayload++ = *pText++;
 800725e:	68ba      	ldr	r2, [r7, #8]
 8007260:	1c53      	adds	r3, r2, #1
 8007262:	60bb      	str	r3, [r7, #8]
 8007264:	68fb      	ldr	r3, [r7, #12]
 8007266:	1c59      	adds	r1, r3, #1
 8007268:	60f9      	str	r1, [r7, #12]
 800726a:	7812      	ldrb	r2, [r2, #0]
 800726c:	701a      	strb	r2, [r3, #0]
    n++;
 800726e:	697b      	ldr	r3, [r7, #20]
 8007270:	3301      	adds	r3, #1
 8007272:	617b      	str	r3, [r7, #20]
  while (n < Len) {
 8007274:	697a      	ldr	r2, [r7, #20]
 8007276:	693b      	ldr	r3, [r7, #16]
 8007278:	429a      	cmp	r2, r3
 800727a:	d3f0      	bcc.n	800725e <_EncodeStr+0x6e>
  }
  return pPayload;
 800727c:	68fb      	ldr	r3, [r7, #12]
}
 800727e:	4618      	mov	r0, r3
 8007280:	371c      	adds	r7, #28
 8007282:	46bd      	mov	sp, r7
 8007284:	bc80      	pop	{r7}
 8007286:	4770      	bx	lr

08007288 <_PreparePacket>:
*  Additional information
*    The payload length and evnetId are not initialized.
*    PreparePacket only reserves space for them and they are
*    computed and filled in by the sending function.
*/
static U8* _PreparePacket(U8* pPacket) {
 8007288:	b480      	push	{r7}
 800728a:	b083      	sub	sp, #12
 800728c:	af00      	add	r7, sp, #0
 800728e:	6078      	str	r0, [r7, #4]
  return pPacket + 4;
 8007290:	687b      	ldr	r3, [r7, #4]
 8007292:	3304      	adds	r3, #4
}
 8007294:	4618      	mov	r0, r3
 8007296:	370c      	adds	r7, #12
 8007298:	46bd      	mov	sp, r7
 800729a:	bc80      	pop	{r7}
 800729c:	4770      	bx	lr
	...

080072a0 <_HandleIncomingPacket>:
*    This function is called each time after sending a packet.
*    Processing incoming packets is done asynchronous. SystemView might
*    already have sent event packets after the host has sent a command.
*/
#if (SEGGER_SYSVIEW_POST_MORTEM_MODE != 1)
static void _HandleIncomingPacket(void) {
 80072a0:	b580      	push	{r7, lr}
 80072a2:	b082      	sub	sp, #8
 80072a4:	af00      	add	r7, sp, #0
  U8  Cmd;
  int Status;
  //
  Status = SEGGER_RTT_ReadNoLock(CHANNEL_ID_DOWN, &Cmd, 1);
 80072a6:	4b33      	ldr	r3, [pc, #204]	; (8007374 <_HandleIncomingPacket+0xd4>)
 80072a8:	7e1b      	ldrb	r3, [r3, #24]
 80072aa:	4618      	mov	r0, r3
 80072ac:	1cfb      	adds	r3, r7, #3
 80072ae:	2201      	movs	r2, #1
 80072b0:	4619      	mov	r1, r3
 80072b2:	f7ff ff17 	bl	80070e4 <SEGGER_RTT_ReadNoLock>
 80072b6:	4603      	mov	r3, r0
 80072b8:	607b      	str	r3, [r7, #4]
  if (Status > 0) {
 80072ba:	687b      	ldr	r3, [r7, #4]
 80072bc:	2b00      	cmp	r3, #0
 80072be:	dd4d      	ble.n	800735c <_HandleIncomingPacket+0xbc>
    switch (Cmd) {
 80072c0:	78fb      	ldrb	r3, [r7, #3]
 80072c2:	2b05      	cmp	r3, #5
 80072c4:	d022      	beq.n	800730c <_HandleIncomingPacket+0x6c>
 80072c6:	2b05      	cmp	r3, #5
 80072c8:	dc0b      	bgt.n	80072e2 <_HandleIncomingPacket+0x42>
 80072ca:	2b02      	cmp	r3, #2
 80072cc:	d015      	beq.n	80072fa <_HandleIncomingPacket+0x5a>
 80072ce:	2b02      	cmp	r3, #2
 80072d0:	dc02      	bgt.n	80072d8 <_HandleIncomingPacket+0x38>
 80072d2:	2b01      	cmp	r3, #1
 80072d4:	d00e      	beq.n	80072f4 <_HandleIncomingPacket+0x54>
 80072d6:	e034      	b.n	8007342 <_HandleIncomingPacket+0xa2>
 80072d8:	2b03      	cmp	r3, #3
 80072da:	d011      	beq.n	8007300 <_HandleIncomingPacket+0x60>
 80072dc:	2b04      	cmp	r3, #4
 80072de:	d012      	beq.n	8007306 <_HandleIncomingPacket+0x66>
 80072e0:	e02f      	b.n	8007342 <_HandleIncomingPacket+0xa2>
 80072e2:	2b07      	cmp	r3, #7
 80072e4:	d018      	beq.n	8007318 <_HandleIncomingPacket+0x78>
 80072e6:	2b07      	cmp	r3, #7
 80072e8:	db13      	blt.n	8007312 <_HandleIncomingPacket+0x72>
 80072ea:	2b7f      	cmp	r3, #127	; 0x7f
 80072ec:	d038      	beq.n	8007360 <_HandleIncomingPacket+0xc0>
 80072ee:	2b80      	cmp	r3, #128	; 0x80
 80072f0:	d015      	beq.n	800731e <_HandleIncomingPacket+0x7e>
 80072f2:	e026      	b.n	8007342 <_HandleIncomingPacket+0xa2>
    case SEGGER_SYSVIEW_COMMAND_ID_START:
      SEGGER_SYSVIEW_Start();
 80072f4:	f000 fac2 	bl	800787c <SEGGER_SYSVIEW_Start>
      break;
 80072f8:	e037      	b.n	800736a <_HandleIncomingPacket+0xca>
    case SEGGER_SYSVIEW_COMMAND_ID_STOP:
      SEGGER_SYSVIEW_Stop();
 80072fa:	f000 fb79 	bl	80079f0 <SEGGER_SYSVIEW_Stop>
      break;
 80072fe:	e034      	b.n	800736a <_HandleIncomingPacket+0xca>
    case SEGGER_SYSVIEW_COMMAND_ID_GET_SYSTIME:
      SEGGER_SYSVIEW_RecordSystime();
 8007300:	f000 fd2e 	bl	8007d60 <SEGGER_SYSVIEW_RecordSystime>
      break;
 8007304:	e031      	b.n	800736a <_HandleIncomingPacket+0xca>
    case SEGGER_SYSVIEW_COMMAND_ID_GET_TASKLIST:
      SEGGER_SYSVIEW_SendTaskList();
 8007306:	f000 fd17 	bl	8007d38 <SEGGER_SYSVIEW_SendTaskList>
      break;
 800730a:	e02e      	b.n	800736a <_HandleIncomingPacket+0xca>
    case SEGGER_SYSVIEW_COMMAND_ID_GET_SYSDESC:
      SEGGER_SYSVIEW_GetSysDesc();
 800730c:	f000 fb96 	bl	8007a3c <SEGGER_SYSVIEW_GetSysDesc>
      break;
 8007310:	e02b      	b.n	800736a <_HandleIncomingPacket+0xca>
    case SEGGER_SYSVIEW_COMMAND_ID_GET_NUMMODULES:
      SEGGER_SYSVIEW_SendNumModules();
 8007312:	f000 ffbf 	bl	8008294 <SEGGER_SYSVIEW_SendNumModules>
      break;
 8007316:	e028      	b.n	800736a <_HandleIncomingPacket+0xca>
    case SEGGER_SYSVIEW_COMMAND_ID_GET_MODULEDESC:
      SEGGER_SYSVIEW_SendModuleDescription();
 8007318:	f000 ff9e 	bl	8008258 <SEGGER_SYSVIEW_SendModuleDescription>
      break;
 800731c:	e025      	b.n	800736a <_HandleIncomingPacket+0xca>
    case SEGGER_SYSVIEW_COMMAND_ID_GET_MODULE:
      Status = SEGGER_RTT_ReadNoLock(CHANNEL_ID_DOWN, &Cmd, 1);
 800731e:	4b15      	ldr	r3, [pc, #84]	; (8007374 <_HandleIncomingPacket+0xd4>)
 8007320:	7e1b      	ldrb	r3, [r3, #24]
 8007322:	4618      	mov	r0, r3
 8007324:	1cfb      	adds	r3, r7, #3
 8007326:	2201      	movs	r2, #1
 8007328:	4619      	mov	r1, r3
 800732a:	f7ff fedb 	bl	80070e4 <SEGGER_RTT_ReadNoLock>
 800732e:	4603      	mov	r3, r0
 8007330:	607b      	str	r3, [r7, #4]
      if (Status > 0) {
 8007332:	687b      	ldr	r3, [r7, #4]
 8007334:	2b00      	cmp	r3, #0
 8007336:	dd15      	ble.n	8007364 <_HandleIncomingPacket+0xc4>
        SEGGER_SYSVIEW_SendModule(Cmd);
 8007338:	78fb      	ldrb	r3, [r7, #3]
 800733a:	4618      	mov	r0, r3
 800733c:	f000 ff0c 	bl	8008158 <SEGGER_SYSVIEW_SendModule>
      }
      break;
 8007340:	e010      	b.n	8007364 <_HandleIncomingPacket+0xc4>
    case SEGGER_SYSVIEW_COMMAND_ID_HEARTBEAT:
      break;
    default:
      if (Cmd >= 128) { // Unknown extended command. Dummy read its parameter.
 8007342:	78fb      	ldrb	r3, [r7, #3]
 8007344:	b25b      	sxtb	r3, r3
 8007346:	2b00      	cmp	r3, #0
 8007348:	da0e      	bge.n	8007368 <_HandleIncomingPacket+0xc8>
        SEGGER_RTT_ReadNoLock(CHANNEL_ID_DOWN, &Cmd, 1);
 800734a:	4b0a      	ldr	r3, [pc, #40]	; (8007374 <_HandleIncomingPacket+0xd4>)
 800734c:	7e1b      	ldrb	r3, [r3, #24]
 800734e:	4618      	mov	r0, r3
 8007350:	1cfb      	adds	r3, r7, #3
 8007352:	2201      	movs	r2, #1
 8007354:	4619      	mov	r1, r3
 8007356:	f7ff fec5 	bl	80070e4 <SEGGER_RTT_ReadNoLock>
      }
      break;
 800735a:	e005      	b.n	8007368 <_HandleIncomingPacket+0xc8>
    }
  }
 800735c:	bf00      	nop
 800735e:	e004      	b.n	800736a <_HandleIncomingPacket+0xca>
      break;
 8007360:	bf00      	nop
 8007362:	e002      	b.n	800736a <_HandleIncomingPacket+0xca>
      break;
 8007364:	bf00      	nop
 8007366:	e000      	b.n	800736a <_HandleIncomingPacket+0xca>
      break;
 8007368:	bf00      	nop
}
 800736a:	bf00      	nop
 800736c:	3708      	adds	r7, #8
 800736e:	46bd      	mov	sp, r7
 8007370:	bd80      	pop	{r7, pc}
 8007372:	bf00      	nop
 8007374:	2000208c 	.word	0x2000208c

08007378 <_TrySendOverflowPacket>:
*    !=0:  Success, Message sent (stored in RTT-Buffer)
*    ==0:  Buffer full, Message *NOT* stored
*
*/
#if (SEGGER_SYSVIEW_POST_MORTEM_MODE != 1)
static int _TrySendOverflowPacket(void) {
 8007378:	b580      	push	{r7, lr}
 800737a:	b08c      	sub	sp, #48	; 0x30
 800737c:	af00      	add	r7, sp, #0
  I32 Delta;
  int Status;
  U8  aPacket[11];
  U8* pPayload;

  aPacket[0] = SYSVIEW_EVTID_OVERFLOW;      // 1
 800737e:	2301      	movs	r3, #1
 8007380:	713b      	strb	r3, [r7, #4]
  pPayload   = &aPacket[1];
 8007382:	1d3b      	adds	r3, r7, #4
 8007384:	3301      	adds	r3, #1
 8007386:	61fb      	str	r3, [r7, #28]
  ENCODE_U32(pPayload, _SYSVIEW_Globals.DropCount);
 8007388:	69fb      	ldr	r3, [r7, #28]
 800738a:	62fb      	str	r3, [r7, #44]	; 0x2c
 800738c:	4b31      	ldr	r3, [pc, #196]	; (8007454 <_TrySendOverflowPacket+0xdc>)
 800738e:	695b      	ldr	r3, [r3, #20]
 8007390:	62bb      	str	r3, [r7, #40]	; 0x28
 8007392:	e00b      	b.n	80073ac <_TrySendOverflowPacket+0x34>
 8007394:	6abb      	ldr	r3, [r7, #40]	; 0x28
 8007396:	b2da      	uxtb	r2, r3
 8007398:	6afb      	ldr	r3, [r7, #44]	; 0x2c
 800739a:	1c59      	adds	r1, r3, #1
 800739c:	62f9      	str	r1, [r7, #44]	; 0x2c
 800739e:	f062 027f 	orn	r2, r2, #127	; 0x7f
 80073a2:	b2d2      	uxtb	r2, r2
 80073a4:	701a      	strb	r2, [r3, #0]
 80073a6:	6abb      	ldr	r3, [r7, #40]	; 0x28
 80073a8:	09db      	lsrs	r3, r3, #7
 80073aa:	62bb      	str	r3, [r7, #40]	; 0x28
 80073ac:	6abb      	ldr	r3, [r7, #40]	; 0x28
 80073ae:	2b7f      	cmp	r3, #127	; 0x7f
 80073b0:	d8f0      	bhi.n	8007394 <_TrySendOverflowPacket+0x1c>
 80073b2:	6afb      	ldr	r3, [r7, #44]	; 0x2c
 80073b4:	1c5a      	adds	r2, r3, #1
 80073b6:	62fa      	str	r2, [r7, #44]	; 0x2c
 80073b8:	6aba      	ldr	r2, [r7, #40]	; 0x28
 80073ba:	b2d2      	uxtb	r2, r2
 80073bc:	701a      	strb	r2, [r3, #0]
 80073be:	6afb      	ldr	r3, [r7, #44]	; 0x2c
 80073c0:	61fb      	str	r3, [r7, #28]
  //
  // Compute time stamp delta and append it to packet.
  //
  TimeStamp  = SEGGER_SYSVIEW_GET_TIMESTAMP();
 80073c2:	4b25      	ldr	r3, [pc, #148]	; (8007458 <_TrySendOverflowPacket+0xe0>)
 80073c4:	681b      	ldr	r3, [r3, #0]
 80073c6:	61bb      	str	r3, [r7, #24]
  Delta = TimeStamp - _SYSVIEW_Globals.LastTxTimeStamp;
 80073c8:	4b22      	ldr	r3, [pc, #136]	; (8007454 <_TrySendOverflowPacket+0xdc>)
 80073ca:	68db      	ldr	r3, [r3, #12]
 80073cc:	69ba      	ldr	r2, [r7, #24]
 80073ce:	1ad3      	subs	r3, r2, r3
 80073d0:	617b      	str	r3, [r7, #20]
  MAKE_DELTA_32BIT(Delta);
  ENCODE_U32(pPayload, Delta);
 80073d2:	69fb      	ldr	r3, [r7, #28]
 80073d4:	627b      	str	r3, [r7, #36]	; 0x24
 80073d6:	697b      	ldr	r3, [r7, #20]
 80073d8:	623b      	str	r3, [r7, #32]
 80073da:	e00b      	b.n	80073f4 <_TrySendOverflowPacket+0x7c>
 80073dc:	6a3b      	ldr	r3, [r7, #32]
 80073de:	b2da      	uxtb	r2, r3
 80073e0:	6a7b      	ldr	r3, [r7, #36]	; 0x24
 80073e2:	1c59      	adds	r1, r3, #1
 80073e4:	6279      	str	r1, [r7, #36]	; 0x24
 80073e6:	f062 027f 	orn	r2, r2, #127	; 0x7f
 80073ea:	b2d2      	uxtb	r2, r2
 80073ec:	701a      	strb	r2, [r3, #0]
 80073ee:	6a3b      	ldr	r3, [r7, #32]
 80073f0:	09db      	lsrs	r3, r3, #7
 80073f2:	623b      	str	r3, [r7, #32]
 80073f4:	6a3b      	ldr	r3, [r7, #32]
 80073f6:	2b7f      	cmp	r3, #127	; 0x7f
 80073f8:	d8f0      	bhi.n	80073dc <_TrySendOverflowPacket+0x64>
 80073fa:	6a7b      	ldr	r3, [r7, #36]	; 0x24
 80073fc:	1c5a      	adds	r2, r3, #1
 80073fe:	627a      	str	r2, [r7, #36]	; 0x24
 8007400:	6a3a      	ldr	r2, [r7, #32]
 8007402:	b2d2      	uxtb	r2, r2
 8007404:	701a      	strb	r2, [r3, #0]
 8007406:	6a7b      	ldr	r3, [r7, #36]	; 0x24
 8007408:	61fb      	str	r3, [r7, #28]
  //
  // Try to store packet in RTT buffer and update time stamp when this was successful
  //
  Status = SEGGER_RTT_WriteSkipNoLock(CHANNEL_ID_UP, aPacket, pPayload - aPacket);
 800740a:	4b12      	ldr	r3, [pc, #72]	; (8007454 <_TrySendOverflowPacket+0xdc>)
 800740c:	785b      	ldrb	r3, [r3, #1]
 800740e:	4618      	mov	r0, r3
 8007410:	69fa      	ldr	r2, [r7, #28]
 8007412:	1d3b      	adds	r3, r7, #4
 8007414:	1ad3      	subs	r3, r2, r3
 8007416:	461a      	mov	r2, r3
 8007418:	1d3b      	adds	r3, r7, #4
 800741a:	4619      	mov	r1, r3
 800741c:	f7f8 fe98 	bl	8000150 <SEGGER_RTT_ASM_WriteSkipNoLock>
 8007420:	4603      	mov	r3, r0
 8007422:	613b      	str	r3, [r7, #16]
  SEGGER_SYSVIEW_ON_EVENT_RECORDED(pPayload - aPacket);
  if (Status) {
 8007424:	693b      	ldr	r3, [r7, #16]
 8007426:	2b00      	cmp	r3, #0
 8007428:	d009      	beq.n	800743e <_TrySendOverflowPacket+0xc6>
    _SYSVIEW_Globals.LastTxTimeStamp = TimeStamp;
 800742a:	4a0a      	ldr	r2, [pc, #40]	; (8007454 <_TrySendOverflowPacket+0xdc>)
 800742c:	69bb      	ldr	r3, [r7, #24]
 800742e:	60d3      	str	r3, [r2, #12]
    _SYSVIEW_Globals.EnableState--; // EnableState has been 2, will be 1. Always.
 8007430:	4b08      	ldr	r3, [pc, #32]	; (8007454 <_TrySendOverflowPacket+0xdc>)
 8007432:	781b      	ldrb	r3, [r3, #0]
 8007434:	3b01      	subs	r3, #1
 8007436:	b2da      	uxtb	r2, r3
 8007438:	4b06      	ldr	r3, [pc, #24]	; (8007454 <_TrySendOverflowPacket+0xdc>)
 800743a:	701a      	strb	r2, [r3, #0]
 800743c:	e004      	b.n	8007448 <_TrySendOverflowPacket+0xd0>
  } else {
    _SYSVIEW_Globals.DropCount++;
 800743e:	4b05      	ldr	r3, [pc, #20]	; (8007454 <_TrySendOverflowPacket+0xdc>)
 8007440:	695b      	ldr	r3, [r3, #20]
 8007442:	3301      	adds	r3, #1
 8007444:	4a03      	ldr	r2, [pc, #12]	; (8007454 <_TrySendOverflowPacket+0xdc>)
 8007446:	6153      	str	r3, [r2, #20]
  }
  //
  return Status;
 8007448:	693b      	ldr	r3, [r7, #16]
}
 800744a:	4618      	mov	r0, r3
 800744c:	3730      	adds	r7, #48	; 0x30
 800744e:	46bd      	mov	sp, r7
 8007450:	bd80      	pop	{r7, pc}
 8007452:	bf00      	nop
 8007454:	2000208c 	.word	0x2000208c
 8007458:	e0001004 	.word	0xe0001004

0800745c <_SendPacket>:
*                   There must be at least 4 bytes free to prepend Id and Length.
*    pEndPacket   - Pointer to end of packet payload.
*    EventId      - Id of the event to send.
*
*/
static void _SendPacket(U8* pStartPacket, U8* pEndPacket, unsigned int EventId) {
 800745c:	b580      	push	{r7, lr}
 800745e:	b08a      	sub	sp, #40	; 0x28
 8007460:	af00      	add	r7, sp, #0
 8007462:	60f8      	str	r0, [r7, #12]
 8007464:	60b9      	str	r1, [r7, #8]
 8007466:	607a      	str	r2, [r7, #4]
#if (SEGGER_SYSVIEW_POST_MORTEM_MODE == 1)
  if (_SYSVIEW_Globals.EnableState == 0) {
    goto SendDone;
  }
#else
  if (_SYSVIEW_Globals.EnableState == 1) {  // Enabled, no dropped packets remaining
 8007468:	4b6c      	ldr	r3, [pc, #432]	; (800761c <_SendPacket+0x1c0>)
 800746a:	781b      	ldrb	r3, [r3, #0]
 800746c:	2b01      	cmp	r3, #1
 800746e:	d010      	beq.n	8007492 <_SendPacket+0x36>
    goto Send;
  }
  if (_SYSVIEW_Globals.EnableState == 0) {
 8007470:	4b6a      	ldr	r3, [pc, #424]	; (800761c <_SendPacket+0x1c0>)
 8007472:	781b      	ldrb	r3, [r3, #0]
 8007474:	2b00      	cmp	r3, #0
 8007476:	f000 80a3 	beq.w	80075c0 <_SendPacket+0x164>
  //
  // Handle buffer full situations:
  // Have packets been dropped before because buffer was full?
  // In this case try to send and overflow packet.
  //
  if (_SYSVIEW_Globals.EnableState == 2) {
 800747a:	4b68      	ldr	r3, [pc, #416]	; (800761c <_SendPacket+0x1c0>)
 800747c:	781b      	ldrb	r3, [r3, #0]
 800747e:	2b02      	cmp	r3, #2
 8007480:	d109      	bne.n	8007496 <_SendPacket+0x3a>
    _TrySendOverflowPacket();
 8007482:	f7ff ff79 	bl	8007378 <_TrySendOverflowPacket>
    if (_SYSVIEW_Globals.EnableState != 1) {
 8007486:	4b65      	ldr	r3, [pc, #404]	; (800761c <_SendPacket+0x1c0>)
 8007488:	781b      	ldrb	r3, [r3, #0]
 800748a:	2b01      	cmp	r3, #1
 800748c:	f040 809a 	bne.w	80075c4 <_SendPacket+0x168>
      goto SendDone;
    }
  }
Send:
 8007490:	e001      	b.n	8007496 <_SendPacket+0x3a>
    goto Send;
 8007492:	bf00      	nop
 8007494:	e000      	b.n	8007498 <_SendPacket+0x3c>
Send:
 8007496:	bf00      	nop
#endif
  //
  // Check if event is disabled from being recorded.
  //
  if (EventId < 32) {
 8007498:	687b      	ldr	r3, [r7, #4]
 800749a:	2b1f      	cmp	r3, #31
 800749c:	d809      	bhi.n	80074b2 <_SendPacket+0x56>
    if (_SYSVIEW_Globals.DisabledEvents & ((U32)1u << EventId)) {
 800749e:	4b5f      	ldr	r3, [pc, #380]	; (800761c <_SendPacket+0x1c0>)
 80074a0:	69da      	ldr	r2, [r3, #28]
 80074a2:	687b      	ldr	r3, [r7, #4]
 80074a4:	fa22 f303 	lsr.w	r3, r2, r3
 80074a8:	f003 0301 	and.w	r3, r3, #1
 80074ac:	2b00      	cmp	r3, #0
 80074ae:	f040 808b 	bne.w	80075c8 <_SendPacket+0x16c>
  //
  // Prepare actual packet.
  // If it is a known packet, prepend eventId only,
  // otherwise prepend packet length and eventId.
  //
  if (EventId < 24) {
 80074b2:	687b      	ldr	r3, [r7, #4]
 80074b4:	2b17      	cmp	r3, #23
 80074b6:	d807      	bhi.n	80074c8 <_SendPacket+0x6c>
    *--pStartPacket = EventId;
 80074b8:	68fb      	ldr	r3, [r7, #12]
 80074ba:	3b01      	subs	r3, #1
 80074bc:	60fb      	str	r3, [r7, #12]
 80074be:	687b      	ldr	r3, [r7, #4]
 80074c0:	b2da      	uxtb	r2, r3
 80074c2:	68fb      	ldr	r3, [r7, #12]
 80074c4:	701a      	strb	r2, [r3, #0]
 80074c6:	e03d      	b.n	8007544 <_SendPacket+0xe8>
  } else {
    NumBytes = pEndPacket - pStartPacket;
 80074c8:	68ba      	ldr	r2, [r7, #8]
 80074ca:	68fb      	ldr	r3, [r7, #12]
 80074cc:	1ad3      	subs	r3, r2, r3
 80074ce:	61fb      	str	r3, [r7, #28]
    if (NumBytes > 127) {
 80074d0:	69fb      	ldr	r3, [r7, #28]
 80074d2:	2b7f      	cmp	r3, #127	; 0x7f
 80074d4:	d912      	bls.n	80074fc <_SendPacket+0xa0>
      *--pStartPacket = (NumBytes >> 7);
 80074d6:	69fb      	ldr	r3, [r7, #28]
 80074d8:	09da      	lsrs	r2, r3, #7
 80074da:	68fb      	ldr	r3, [r7, #12]
 80074dc:	3b01      	subs	r3, #1
 80074de:	60fb      	str	r3, [r7, #12]
 80074e0:	b2d2      	uxtb	r2, r2
 80074e2:	68fb      	ldr	r3, [r7, #12]
 80074e4:	701a      	strb	r2, [r3, #0]
      *--pStartPacket = NumBytes | 0x80;
 80074e6:	69fb      	ldr	r3, [r7, #28]
 80074e8:	b2db      	uxtb	r3, r3
 80074ea:	68fa      	ldr	r2, [r7, #12]
 80074ec:	3a01      	subs	r2, #1
 80074ee:	60fa      	str	r2, [r7, #12]
 80074f0:	f063 037f 	orn	r3, r3, #127	; 0x7f
 80074f4:	b2da      	uxtb	r2, r3
 80074f6:	68fb      	ldr	r3, [r7, #12]
 80074f8:	701a      	strb	r2, [r3, #0]
 80074fa:	e006      	b.n	800750a <_SendPacket+0xae>
    } else {
      *--pStartPacket = NumBytes;
 80074fc:	68fb      	ldr	r3, [r7, #12]
 80074fe:	3b01      	subs	r3, #1
 8007500:	60fb      	str	r3, [r7, #12]
 8007502:	69fb      	ldr	r3, [r7, #28]
 8007504:	b2da      	uxtb	r2, r3
 8007506:	68fb      	ldr	r3, [r7, #12]
 8007508:	701a      	strb	r2, [r3, #0]
    }
    if (EventId > 127) {
 800750a:	687b      	ldr	r3, [r7, #4]
 800750c:	2b7f      	cmp	r3, #127	; 0x7f
 800750e:	d912      	bls.n	8007536 <_SendPacket+0xda>
      *--pStartPacket = (EventId >> 7);
 8007510:	687b      	ldr	r3, [r7, #4]
 8007512:	09da      	lsrs	r2, r3, #7
 8007514:	68fb      	ldr	r3, [r7, #12]
 8007516:	3b01      	subs	r3, #1
 8007518:	60fb      	str	r3, [r7, #12]
 800751a:	b2d2      	uxtb	r2, r2
 800751c:	68fb      	ldr	r3, [r7, #12]
 800751e:	701a      	strb	r2, [r3, #0]
      *--pStartPacket = EventId | 0x80;
 8007520:	687b      	ldr	r3, [r7, #4]
 8007522:	b2db      	uxtb	r3, r3
 8007524:	68fa      	ldr	r2, [r7, #12]
 8007526:	3a01      	subs	r2, #1
 8007528:	60fa      	str	r2, [r7, #12]
 800752a:	f063 037f 	orn	r3, r3, #127	; 0x7f
 800752e:	b2da      	uxtb	r2, r3
 8007530:	68fb      	ldr	r3, [r7, #12]
 8007532:	701a      	strb	r2, [r3, #0]
 8007534:	e006      	b.n	8007544 <_SendPacket+0xe8>
    } else {
      *--pStartPacket = EventId;
 8007536:	68fb      	ldr	r3, [r7, #12]
 8007538:	3b01      	subs	r3, #1
 800753a:	60fb      	str	r3, [r7, #12]
 800753c:	687b      	ldr	r3, [r7, #4]
 800753e:	b2da      	uxtb	r2, r3
 8007540:	68fb      	ldr	r3, [r7, #12]
 8007542:	701a      	strb	r2, [r3, #0]
    }
  }
  //
  // Compute time stamp delta and append it to packet.
  //
  TimeStamp  = SEGGER_SYSVIEW_GET_TIMESTAMP();
 8007544:	4b36      	ldr	r3, [pc, #216]	; (8007620 <_SendPacket+0x1c4>)
 8007546:	681b      	ldr	r3, [r3, #0]
 8007548:	61bb      	str	r3, [r7, #24]
  Delta = TimeStamp - _SYSVIEW_Globals.LastTxTimeStamp;
 800754a:	4b34      	ldr	r3, [pc, #208]	; (800761c <_SendPacket+0x1c0>)
 800754c:	68db      	ldr	r3, [r3, #12]
 800754e:	69ba      	ldr	r2, [r7, #24]
 8007550:	1ad3      	subs	r3, r2, r3
 8007552:	617b      	str	r3, [r7, #20]
  MAKE_DELTA_32BIT(Delta);
  ENCODE_U32(pEndPacket, Delta);
 8007554:	68bb      	ldr	r3, [r7, #8]
 8007556:	627b      	str	r3, [r7, #36]	; 0x24
 8007558:	697b      	ldr	r3, [r7, #20]
 800755a:	623b      	str	r3, [r7, #32]
 800755c:	e00b      	b.n	8007576 <_SendPacket+0x11a>
 800755e:	6a3b      	ldr	r3, [r7, #32]
 8007560:	b2da      	uxtb	r2, r3
 8007562:	6a7b      	ldr	r3, [r7, #36]	; 0x24
 8007564:	1c59      	adds	r1, r3, #1
 8007566:	6279      	str	r1, [r7, #36]	; 0x24
 8007568:	f062 027f 	orn	r2, r2, #127	; 0x7f
 800756c:	b2d2      	uxtb	r2, r2
 800756e:	701a      	strb	r2, [r3, #0]
 8007570:	6a3b      	ldr	r3, [r7, #32]
 8007572:	09db      	lsrs	r3, r3, #7
 8007574:	623b      	str	r3, [r7, #32]
 8007576:	6a3b      	ldr	r3, [r7, #32]
 8007578:	2b7f      	cmp	r3, #127	; 0x7f
 800757a:	d8f0      	bhi.n	800755e <_SendPacket+0x102>
 800757c:	6a7b      	ldr	r3, [r7, #36]	; 0x24
 800757e:	1c5a      	adds	r2, r3, #1
 8007580:	627a      	str	r2, [r7, #36]	; 0x24
 8007582:	6a3a      	ldr	r2, [r7, #32]
 8007584:	b2d2      	uxtb	r2, r2
 8007586:	701a      	strb	r2, [r3, #0]
 8007588:	6a7b      	ldr	r3, [r7, #36]	; 0x24
 800758a:	60bb      	str	r3, [r7, #8]
  _SYSVIEW_Globals.LastTxTimeStamp = TimeStamp;
#else
  //
  // Try to store packet in RTT buffer and update time stamp when this was successful
  //
  Status = SEGGER_RTT_WriteSkipNoLock(CHANNEL_ID_UP, pStartPacket, pEndPacket - pStartPacket);
 800758c:	4b23      	ldr	r3, [pc, #140]	; (800761c <_SendPacket+0x1c0>)
 800758e:	785b      	ldrb	r3, [r3, #1]
 8007590:	4618      	mov	r0, r3
 8007592:	68ba      	ldr	r2, [r7, #8]
 8007594:	68fb      	ldr	r3, [r7, #12]
 8007596:	1ad3      	subs	r3, r2, r3
 8007598:	461a      	mov	r2, r3
 800759a:	68f9      	ldr	r1, [r7, #12]
 800759c:	f7f8 fdd8 	bl	8000150 <SEGGER_RTT_ASM_WriteSkipNoLock>
 80075a0:	4603      	mov	r3, r0
 80075a2:	613b      	str	r3, [r7, #16]
  SEGGER_SYSVIEW_ON_EVENT_RECORDED(pEndPacket - pStartPacket);
  if (Status) {
 80075a4:	693b      	ldr	r3, [r7, #16]
 80075a6:	2b00      	cmp	r3, #0
 80075a8:	d003      	beq.n	80075b2 <_SendPacket+0x156>
    _SYSVIEW_Globals.LastTxTimeStamp = TimeStamp;
 80075aa:	4a1c      	ldr	r2, [pc, #112]	; (800761c <_SendPacket+0x1c0>)
 80075ac:	69bb      	ldr	r3, [r7, #24]
 80075ae:	60d3      	str	r3, [r2, #12]
 80075b0:	e00b      	b.n	80075ca <_SendPacket+0x16e>
  } else {
    _SYSVIEW_Globals.EnableState++; // EnableState has been 1, will be 2. Always.
 80075b2:	4b1a      	ldr	r3, [pc, #104]	; (800761c <_SendPacket+0x1c0>)
 80075b4:	781b      	ldrb	r3, [r3, #0]
 80075b6:	3301      	adds	r3, #1
 80075b8:	b2da      	uxtb	r2, r3
 80075ba:	4b18      	ldr	r3, [pc, #96]	; (800761c <_SendPacket+0x1c0>)
 80075bc:	701a      	strb	r2, [r3, #0]
 80075be:	e004      	b.n	80075ca <_SendPacket+0x16e>
    goto SendDone;
 80075c0:	bf00      	nop
 80075c2:	e002      	b.n	80075ca <_SendPacket+0x16e>
      goto SendDone;
 80075c4:	bf00      	nop
 80075c6:	e000      	b.n	80075ca <_SendPacket+0x16e>
      goto SendDone;
 80075c8:	bf00      	nop
  //
  // Check if host is sending data which needs to be processed.
  // Note that since this code is called for every packet, it is very time critical, so we do
  // only what is really needed here, which is checking if there is any data
  //
  if (SEGGER_RTT_HASDATA(CHANNEL_ID_DOWN)) {
 80075ca:	4b14      	ldr	r3, [pc, #80]	; (800761c <_SendPacket+0x1c0>)
 80075cc:	7e1b      	ldrb	r3, [r3, #24]
 80075ce:	4619      	mov	r1, r3
 80075d0:	4a14      	ldr	r2, [pc, #80]	; (8007624 <_SendPacket+0x1c8>)
 80075d2:	460b      	mov	r3, r1
 80075d4:	005b      	lsls	r3, r3, #1
 80075d6:	440b      	add	r3, r1
 80075d8:	00db      	lsls	r3, r3, #3
 80075da:	4413      	add	r3, r2
 80075dc:	336c      	adds	r3, #108	; 0x6c
 80075de:	681a      	ldr	r2, [r3, #0]
 80075e0:	4b0e      	ldr	r3, [pc, #56]	; (800761c <_SendPacket+0x1c0>)
 80075e2:	7e1b      	ldrb	r3, [r3, #24]
 80075e4:	4618      	mov	r0, r3
 80075e6:	490f      	ldr	r1, [pc, #60]	; (8007624 <_SendPacket+0x1c8>)
 80075e8:	4603      	mov	r3, r0
 80075ea:	005b      	lsls	r3, r3, #1
 80075ec:	4403      	add	r3, r0
 80075ee:	00db      	lsls	r3, r3, #3
 80075f0:	440b      	add	r3, r1
 80075f2:	3370      	adds	r3, #112	; 0x70
 80075f4:	681b      	ldr	r3, [r3, #0]
 80075f6:	429a      	cmp	r2, r3
 80075f8:	d00b      	beq.n	8007612 <_SendPacket+0x1b6>
    if (_SYSVIEW_Globals.RecursionCnt == 0) {   // Avoid uncontrolled nesting. This way, this routine can call itself once, but no more often than that.
 80075fa:	4b08      	ldr	r3, [pc, #32]	; (800761c <_SendPacket+0x1c0>)
 80075fc:	789b      	ldrb	r3, [r3, #2]
 80075fe:	2b00      	cmp	r3, #0
 8007600:	d107      	bne.n	8007612 <_SendPacket+0x1b6>
      _SYSVIEW_Globals.RecursionCnt = 1;
 8007602:	4b06      	ldr	r3, [pc, #24]	; (800761c <_SendPacket+0x1c0>)
 8007604:	2201      	movs	r2, #1
 8007606:	709a      	strb	r2, [r3, #2]
      _HandleIncomingPacket();
 8007608:	f7ff fe4a 	bl	80072a0 <_HandleIncomingPacket>
      _SYSVIEW_Globals.RecursionCnt = 0;
 800760c:	4b03      	ldr	r3, [pc, #12]	; (800761c <_SendPacket+0x1c0>)
 800760e:	2200      	movs	r2, #0
 8007610:	709a      	strb	r2, [r3, #2]
#endif
  //
#if (SEGGER_SYSVIEW_USE_STATIC_BUFFER == 0)
  SEGGER_SYSVIEW_UNLOCK();  // We are done. Unlock and return
#endif
}
 8007612:	bf00      	nop
 8007614:	3728      	adds	r7, #40	; 0x28
 8007616:	46bd      	mov	sp, r7
 8007618:	bd80      	pop	{r7, pc}
 800761a:	bf00      	nop
 800761c:	2000208c 	.word	0x2000208c
 8007620:	e0001004 	.word	0xe0001004
 8007624:	20002308 	.word	0x20002308

08007628 <SEGGER_SYSVIEW_RecordVoid>:
*    Formats and sends a SystemView packet with an empty payload.
*
*  Parameters
*    EventID - SystemView event ID.
*/
void SEGGER_SYSVIEW_RecordVoid(unsigned int EventID) {
 8007628:	b580      	push	{r7, lr}
 800762a:	b084      	sub	sp, #16
 800762c:	af00      	add	r7, sp, #0
 800762e:	6078      	str	r0, [r7, #4]
  U8* pPayloadStart;
  RECORD_START(SEGGER_SYSVIEW_INFO_SIZE);
 8007630:	f3ef 8311 	mrs	r3, BASEPRI
 8007634:	f04f 0120 	mov.w	r1, #32
 8007638:	f381 8811 	msr	BASEPRI, r1
 800763c:	60fb      	str	r3, [r7, #12]
 800763e:	4808      	ldr	r0, [pc, #32]	; (8007660 <SEGGER_SYSVIEW_RecordVoid+0x38>)
 8007640:	f7ff fe22 	bl	8007288 <_PreparePacket>
 8007644:	60b8      	str	r0, [r7, #8]
  //
  _SendPacket(pPayloadStart, pPayloadStart, EventID);
 8007646:	687a      	ldr	r2, [r7, #4]
 8007648:	68b9      	ldr	r1, [r7, #8]
 800764a:	68b8      	ldr	r0, [r7, #8]
 800764c:	f7ff ff06 	bl	800745c <_SendPacket>
  RECORD_END();
 8007650:	68fb      	ldr	r3, [r7, #12]
 8007652:	f383 8811 	msr	BASEPRI, r3
}
 8007656:	bf00      	nop
 8007658:	3710      	adds	r7, #16
 800765a:	46bd      	mov	sp, r7
 800765c:	bd80      	pop	{r7, pc}
 800765e:	bf00      	nop
 8007660:	200020bc 	.word	0x200020bc

08007664 <SEGGER_SYSVIEW_RecordU32>:
*
*  Parameters
*    EventID - SystemView event ID.
*    Value   - The 32-bit parameter encoded to SystemView packet payload.
*/
void SEGGER_SYSVIEW_RecordU32(unsigned int EventID, U32 Value) {
 8007664:	b580      	push	{r7, lr}
 8007666:	b088      	sub	sp, #32
 8007668:	af00      	add	r7, sp, #0
 800766a:	6078      	str	r0, [r7, #4]
 800766c:	6039      	str	r1, [r7, #0]
  U8* pPayload;
  U8* pPayloadStart;
  RECORD_START(SEGGER_SYSVIEW_INFO_SIZE + SEGGER_SYSVIEW_QUANTA_U32);
 800766e:	f3ef 8311 	mrs	r3, BASEPRI
 8007672:	f04f 0120 	mov.w	r1, #32
 8007676:	f381 8811 	msr	BASEPRI, r1
 800767a:	617b      	str	r3, [r7, #20]
 800767c:	4816      	ldr	r0, [pc, #88]	; (80076d8 <SEGGER_SYSVIEW_RecordU32+0x74>)
 800767e:	f7ff fe03 	bl	8007288 <_PreparePacket>
 8007682:	6138      	str	r0, [r7, #16]
  //
  pPayload = pPayloadStart;
 8007684:	693b      	ldr	r3, [r7, #16]
 8007686:	60fb      	str	r3, [r7, #12]
  ENCODE_U32(pPayload, Value);
 8007688:	68fb      	ldr	r3, [r7, #12]
 800768a:	61fb      	str	r3, [r7, #28]
 800768c:	683b      	ldr	r3, [r7, #0]
 800768e:	61bb      	str	r3, [r7, #24]
 8007690:	e00b      	b.n	80076aa <SEGGER_SYSVIEW_RecordU32+0x46>
 8007692:	69bb      	ldr	r3, [r7, #24]
 8007694:	b2da      	uxtb	r2, r3
 8007696:	69fb      	ldr	r3, [r7, #28]
 8007698:	1c59      	adds	r1, r3, #1
 800769a:	61f9      	str	r1, [r7, #28]
 800769c:	f062 027f 	orn	r2, r2, #127	; 0x7f
 80076a0:	b2d2      	uxtb	r2, r2
 80076a2:	701a      	strb	r2, [r3, #0]
 80076a4:	69bb      	ldr	r3, [r7, #24]
 80076a6:	09db      	lsrs	r3, r3, #7
 80076a8:	61bb      	str	r3, [r7, #24]
 80076aa:	69bb      	ldr	r3, [r7, #24]
 80076ac:	2b7f      	cmp	r3, #127	; 0x7f
 80076ae:	d8f0      	bhi.n	8007692 <SEGGER_SYSVIEW_RecordU32+0x2e>
 80076b0:	69fb      	ldr	r3, [r7, #28]
 80076b2:	1c5a      	adds	r2, r3, #1
 80076b4:	61fa      	str	r2, [r7, #28]
 80076b6:	69ba      	ldr	r2, [r7, #24]
 80076b8:	b2d2      	uxtb	r2, r2
 80076ba:	701a      	strb	r2, [r3, #0]
 80076bc:	69fb      	ldr	r3, [r7, #28]
 80076be:	60fb      	str	r3, [r7, #12]
  _SendPacket(pPayloadStart, pPayload, EventID);
 80076c0:	687a      	ldr	r2, [r7, #4]
 80076c2:	68f9      	ldr	r1, [r7, #12]
 80076c4:	6938      	ldr	r0, [r7, #16]
 80076c6:	f7ff fec9 	bl	800745c <_SendPacket>
  RECORD_END();
 80076ca:	697b      	ldr	r3, [r7, #20]
 80076cc:	f383 8811 	msr	BASEPRI, r3
}
 80076d0:	bf00      	nop
 80076d2:	3720      	adds	r7, #32
 80076d4:	46bd      	mov	sp, r7
 80076d6:	bd80      	pop	{r7, pc}
 80076d8:	200020bc 	.word	0x200020bc

080076dc <SEGGER_SYSVIEW_RecordU32x2>:
*  Parameters
*    EventID - SystemView event ID.
*    Para0   - The 32-bit parameter encoded to SystemView packet payload.
*    Para1   - The 32-bit parameter encoded to SystemView packet payload.
*/
void SEGGER_SYSVIEW_RecordU32x2(unsigned int EventID, U32 Para0, U32 Para1) {
 80076dc:	b580      	push	{r7, lr}
 80076de:	b08c      	sub	sp, #48	; 0x30
 80076e0:	af00      	add	r7, sp, #0
 80076e2:	60f8      	str	r0, [r7, #12]
 80076e4:	60b9      	str	r1, [r7, #8]
 80076e6:	607a      	str	r2, [r7, #4]
  U8* pPayload;
  U8* pPayloadStart;
  RECORD_START(SEGGER_SYSVIEW_INFO_SIZE + 2 * SEGGER_SYSVIEW_QUANTA_U32);
 80076e8:	f3ef 8311 	mrs	r3, BASEPRI
 80076ec:	f04f 0120 	mov.w	r1, #32
 80076f0:	f381 8811 	msr	BASEPRI, r1
 80076f4:	61fb      	str	r3, [r7, #28]
 80076f6:	4825      	ldr	r0, [pc, #148]	; (800778c <SEGGER_SYSVIEW_RecordU32x2+0xb0>)
 80076f8:	f7ff fdc6 	bl	8007288 <_PreparePacket>
 80076fc:	61b8      	str	r0, [r7, #24]
  //
  pPayload = pPayloadStart;
 80076fe:	69bb      	ldr	r3, [r7, #24]
 8007700:	617b      	str	r3, [r7, #20]
  ENCODE_U32(pPayload, Para0);
 8007702:	697b      	ldr	r3, [r7, #20]
 8007704:	62fb      	str	r3, [r7, #44]	; 0x2c
 8007706:	68bb      	ldr	r3, [r7, #8]
 8007708:	62bb      	str	r3, [r7, #40]	; 0x28
 800770a:	e00b      	b.n	8007724 <SEGGER_SYSVIEW_RecordU32x2+0x48>
 800770c:	6abb      	ldr	r3, [r7, #40]	; 0x28
 800770e:	b2da      	uxtb	r2, r3
 8007710:	6afb      	ldr	r3, [r7, #44]	; 0x2c
 8007712:	1c59      	adds	r1, r3, #1
 8007714:	62f9      	str	r1, [r7, #44]	; 0x2c
 8007716:	f062 027f 	orn	r2, r2, #127	; 0x7f
 800771a:	b2d2      	uxtb	r2, r2
 800771c:	701a      	strb	r2, [r3, #0]
 800771e:	6abb      	ldr	r3, [r7, #40]	; 0x28
 8007720:	09db      	lsrs	r3, r3, #7
 8007722:	62bb      	str	r3, [r7, #40]	; 0x28
 8007724:	6abb      	ldr	r3, [r7, #40]	; 0x28
 8007726:	2b7f      	cmp	r3, #127	; 0x7f
 8007728:	d8f0      	bhi.n	800770c <SEGGER_SYSVIEW_RecordU32x2+0x30>
 800772a:	6afb      	ldr	r3, [r7, #44]	; 0x2c
 800772c:	1c5a      	adds	r2, r3, #1
 800772e:	62fa      	str	r2, [r7, #44]	; 0x2c
 8007730:	6aba      	ldr	r2, [r7, #40]	; 0x28
 8007732:	b2d2      	uxtb	r2, r2
 8007734:	701a      	strb	r2, [r3, #0]
 8007736:	6afb      	ldr	r3, [r7, #44]	; 0x2c
 8007738:	617b      	str	r3, [r7, #20]
  ENCODE_U32(pPayload, Para1);
 800773a:	697b      	ldr	r3, [r7, #20]
 800773c:	627b      	str	r3, [r7, #36]	; 0x24
 800773e:	687b      	ldr	r3, [r7, #4]
 8007740:	623b      	str	r3, [r7, #32]
 8007742:	e00b      	b.n	800775c <SEGGER_SYSVIEW_RecordU32x2+0x80>
 8007744:	6a3b      	ldr	r3, [r7, #32]
 8007746:	b2da      	uxtb	r2, r3
 8007748:	6a7b      	ldr	r3, [r7, #36]	; 0x24
 800774a:	1c59      	adds	r1, r3, #1
 800774c:	6279      	str	r1, [r7, #36]	; 0x24
 800774e:	f062 027f 	orn	r2, r2, #127	; 0x7f
 8007752:	b2d2      	uxtb	r2, r2
 8007754:	701a      	strb	r2, [r3, #0]
 8007756:	6a3b      	ldr	r3, [r7, #32]
 8007758:	09db      	lsrs	r3, r3, #7
 800775a:	623b      	str	r3, [r7, #32]
 800775c:	6a3b      	ldr	r3, [r7, #32]
 800775e:	2b7f      	cmp	r3, #127	; 0x7f
 8007760:	d8f0      	bhi.n	8007744 <SEGGER_SYSVIEW_RecordU32x2+0x68>
 8007762:	6a7b      	ldr	r3, [r7, #36]	; 0x24
 8007764:	1c5a      	adds	r2, r3, #1
 8007766:	627a      	str	r2, [r7, #36]	; 0x24
 8007768:	6a3a      	ldr	r2, [r7, #32]
 800776a:	b2d2      	uxtb	r2, r2
 800776c:	701a      	strb	r2, [r3, #0]
 800776e:	6a7b      	ldr	r3, [r7, #36]	; 0x24
 8007770:	617b      	str	r3, [r7, #20]
  _SendPacket(pPayloadStart, pPayload, EventID);
 8007772:	68fa      	ldr	r2, [r7, #12]
 8007774:	6979      	ldr	r1, [r7, #20]
 8007776:	69b8      	ldr	r0, [r7, #24]
 8007778:	f7ff fe70 	bl	800745c <_SendPacket>
  RECORD_END();
 800777c:	69fb      	ldr	r3, [r7, #28]
 800777e:	f383 8811 	msr	BASEPRI, r3
}
 8007782:	bf00      	nop
 8007784:	3730      	adds	r7, #48	; 0x30
 8007786:	46bd      	mov	sp, r7
 8007788:	bd80      	pop	{r7, pc}
 800778a:	bf00      	nop
 800778c:	200020bc 	.word	0x200020bc

08007790 <SEGGER_SYSVIEW_RecordU32x3>:
*    EventID - SystemView event ID.
*    Para0   - The 32-bit parameter encoded to SystemView packet payload.
*    Para1   - The 32-bit parameter encoded to SystemView packet payload.
*    Para2   - The 32-bit parameter encoded to SystemView packet payload.
*/
void SEGGER_SYSVIEW_RecordU32x3(unsigned int EventID, U32 Para0, U32 Para1, U32 Para2) {
 8007790:	b580      	push	{r7, lr}
 8007792:	b08e      	sub	sp, #56	; 0x38
 8007794:	af00      	add	r7, sp, #0
 8007796:	60f8      	str	r0, [r7, #12]
 8007798:	60b9      	str	r1, [r7, #8]
 800779a:	607a      	str	r2, [r7, #4]
 800779c:	603b      	str	r3, [r7, #0]
  U8* pPayload;
  U8* pPayloadStart;
  RECORD_START(SEGGER_SYSVIEW_INFO_SIZE + 3 * SEGGER_SYSVIEW_QUANTA_U32);
 800779e:	f3ef 8311 	mrs	r3, BASEPRI
 80077a2:	f04f 0120 	mov.w	r1, #32
 80077a6:	f381 8811 	msr	BASEPRI, r1
 80077aa:	61fb      	str	r3, [r7, #28]
 80077ac:	4832      	ldr	r0, [pc, #200]	; (8007878 <SEGGER_SYSVIEW_RecordU32x3+0xe8>)
 80077ae:	f7ff fd6b 	bl	8007288 <_PreparePacket>
 80077b2:	61b8      	str	r0, [r7, #24]
  //
  pPayload = pPayloadStart;
 80077b4:	69bb      	ldr	r3, [r7, #24]
 80077b6:	617b      	str	r3, [r7, #20]
  ENCODE_U32(pPayload, Para0);
 80077b8:	697b      	ldr	r3, [r7, #20]
 80077ba:	637b      	str	r3, [r7, #52]	; 0x34
 80077bc:	68bb      	ldr	r3, [r7, #8]
 80077be:	633b      	str	r3, [r7, #48]	; 0x30
 80077c0:	e00b      	b.n	80077da <SEGGER_SYSVIEW_RecordU32x3+0x4a>
 80077c2:	6b3b      	ldr	r3, [r7, #48]	; 0x30
 80077c4:	b2da      	uxtb	r2, r3
 80077c6:	6b7b      	ldr	r3, [r7, #52]	; 0x34
 80077c8:	1c59      	adds	r1, r3, #1
 80077ca:	6379      	str	r1, [r7, #52]	; 0x34
 80077cc:	f062 027f 	orn	r2, r2, #127	; 0x7f
 80077d0:	b2d2      	uxtb	r2, r2
 80077d2:	701a      	strb	r2, [r3, #0]
 80077d4:	6b3b      	ldr	r3, [r7, #48]	; 0x30
 80077d6:	09db      	lsrs	r3, r3, #7
 80077d8:	633b      	str	r3, [r7, #48]	; 0x30
 80077da:	6b3b      	ldr	r3, [r7, #48]	; 0x30
 80077dc:	2b7f      	cmp	r3, #127	; 0x7f
 80077de:	d8f0      	bhi.n	80077c2 <SEGGER_SYSVIEW_RecordU32x3+0x32>
 80077e0:	6b7b      	ldr	r3, [r7, #52]	; 0x34
 80077e2:	1c5a      	adds	r2, r3, #1
 80077e4:	637a      	str	r2, [r7, #52]	; 0x34
 80077e6:	6b3a      	ldr	r2, [r7, #48]	; 0x30
 80077e8:	b2d2      	uxtb	r2, r2
 80077ea:	701a      	strb	r2, [r3, #0]
 80077ec:	6b7b      	ldr	r3, [r7, #52]	; 0x34
 80077ee:	617b      	str	r3, [r7, #20]
  ENCODE_U32(pPayload, Para1);
 80077f0:	697b      	ldr	r3, [r7, #20]
 80077f2:	62fb      	str	r3, [r7, #44]	; 0x2c
 80077f4:	687b      	ldr	r3, [r7, #4]
 80077f6:	62bb      	str	r3, [r7, #40]	; 0x28
 80077f8:	e00b      	b.n	8007812 <SEGGER_SYSVIEW_RecordU32x3+0x82>
 80077fa:	6abb      	ldr	r3, [r7, #40]	; 0x28
 80077fc:	b2da      	uxtb	r2, r3
 80077fe:	6afb      	ldr	r3, [r7, #44]	; 0x2c
 8007800:	1c59      	adds	r1, r3, #1
 8007802:	62f9      	str	r1, [r7, #44]	; 0x2c
 8007804:	f062 027f 	orn	r2, r2, #127	; 0x7f
 8007808:	b2d2      	uxtb	r2, r2
 800780a:	701a      	strb	r2, [r3, #0]
 800780c:	6abb      	ldr	r3, [r7, #40]	; 0x28
 800780e:	09db      	lsrs	r3, r3, #7
 8007810:	62bb      	str	r3, [r7, #40]	; 0x28
 8007812:	6abb      	ldr	r3, [r7, #40]	; 0x28
 8007814:	2b7f      	cmp	r3, #127	; 0x7f
 8007816:	d8f0      	bhi.n	80077fa <SEGGER_SYSVIEW_RecordU32x3+0x6a>
 8007818:	6afb      	ldr	r3, [r7, #44]	; 0x2c
 800781a:	1c5a      	adds	r2, r3, #1
 800781c:	62fa      	str	r2, [r7, #44]	; 0x2c
 800781e:	6aba      	ldr	r2, [r7, #40]	; 0x28
 8007820:	b2d2      	uxtb	r2, r2
 8007822:	701a      	strb	r2, [r3, #0]
 8007824:	6afb      	ldr	r3, [r7, #44]	; 0x2c
 8007826:	617b      	str	r3, [r7, #20]
  ENCODE_U32(pPayload, Para2);
 8007828:	697b      	ldr	r3, [r7, #20]
 800782a:	627b      	str	r3, [r7, #36]	; 0x24
 800782c:	683b      	ldr	r3, [r7, #0]
 800782e:	623b      	str	r3, [r7, #32]
 8007830:	e00b      	b.n	800784a <SEGGER_SYSVIEW_RecordU32x3+0xba>
 8007832:	6a3b      	ldr	r3, [r7, #32]
 8007834:	b2da      	uxtb	r2, r3
 8007836:	6a7b      	ldr	r3, [r7, #36]	; 0x24
 8007838:	1c59      	adds	r1, r3, #1
 800783a:	6279      	str	r1, [r7, #36]	; 0x24
 800783c:	f062 027f 	orn	r2, r2, #127	; 0x7f
 8007840:	b2d2      	uxtb	r2, r2
 8007842:	701a      	strb	r2, [r3, #0]
 8007844:	6a3b      	ldr	r3, [r7, #32]
 8007846:	09db      	lsrs	r3, r3, #7
 8007848:	623b      	str	r3, [r7, #32]
 800784a:	6a3b      	ldr	r3, [r7, #32]
 800784c:	2b7f      	cmp	r3, #127	; 0x7f
 800784e:	d8f0      	bhi.n	8007832 <SEGGER_SYSVIEW_RecordU32x3+0xa2>
 8007850:	6a7b      	ldr	r3, [r7, #36]	; 0x24
 8007852:	1c5a      	adds	r2, r3, #1
 8007854:	627a      	str	r2, [r7, #36]	; 0x24
 8007856:	6a3a      	ldr	r2, [r7, #32]
 8007858:	b2d2      	uxtb	r2, r2
 800785a:	701a      	strb	r2, [r3, #0]
 800785c:	6a7b      	ldr	r3, [r7, #36]	; 0x24
 800785e:	617b      	str	r3, [r7, #20]
  _SendPacket(pPayloadStart, pPayload, EventID);
 8007860:	68fa      	ldr	r2, [r7, #12]
 8007862:	6979      	ldr	r1, [r7, #20]
 8007864:	69b8      	ldr	r0, [r7, #24]
 8007866:	f7ff fdf9 	bl	800745c <_SendPacket>
  RECORD_END();
 800786a:	69fb      	ldr	r3, [r7, #28]
 800786c:	f383 8811 	msr	BASEPRI, r3
}
 8007870:	bf00      	nop
 8007872:	3738      	adds	r7, #56	; 0x38
 8007874:	46bd      	mov	sp, r7
 8007876:	bd80      	pop	{r7, pc}
 8007878:	200020bc 	.word	0x200020bc

0800787c <SEGGER_SYSVIEW_Start>:
*    When SEGGER_SYSVIEW_CAN_RESTART is 1, each received start command
*    records the system information. This is required to enable restart
*    of recordings when SystemView unexpectedly disconnects without sending
*    a stop command before.
*/
void SEGGER_SYSVIEW_Start(void) {
 800787c:	b580      	push	{r7, lr}
 800787e:	b08c      	sub	sp, #48	; 0x30
 8007880:	af00      	add	r7, sp, #0
#if (SEGGER_SYSVIEW_CAN_RESTART == 0)
  if (_SYSVIEW_Globals.EnableState == 0) {
#endif
    _SYSVIEW_Globals.EnableState = 1;
 8007882:	4b58      	ldr	r3, [pc, #352]	; (80079e4 <SEGGER_SYSVIEW_Start+0x168>)
 8007884:	2201      	movs	r2, #1
 8007886:	701a      	strb	r2, [r3, #0]
#if (SEGGER_SYSVIEW_POST_MORTEM_MODE == 1)
    _SendSyncInfo();
#else
    SEGGER_SYSVIEW_LOCK();
 8007888:	f3ef 8311 	mrs	r3, BASEPRI
 800788c:	f04f 0120 	mov.w	r1, #32
 8007890:	f381 8811 	msr	BASEPRI, r1
 8007894:	60fb      	str	r3, [r7, #12]
    SEGGER_RTT_WriteSkipNoLock(CHANNEL_ID_UP, _abSync, 10);
 8007896:	4b53      	ldr	r3, [pc, #332]	; (80079e4 <SEGGER_SYSVIEW_Start+0x168>)
 8007898:	785b      	ldrb	r3, [r3, #1]
 800789a:	220a      	movs	r2, #10
 800789c:	4952      	ldr	r1, [pc, #328]	; (80079e8 <SEGGER_SYSVIEW_Start+0x16c>)
 800789e:	4618      	mov	r0, r3
 80078a0:	f7f8 fc56 	bl	8000150 <SEGGER_RTT_ASM_WriteSkipNoLock>
    SEGGER_SYSVIEW_UNLOCK();
 80078a4:	68fb      	ldr	r3, [r7, #12]
 80078a6:	f383 8811 	msr	BASEPRI, r3
    SEGGER_SYSVIEW_ON_EVENT_RECORDED(10);
    SEGGER_SYSVIEW_RecordVoid(SYSVIEW_EVTID_TRACE_START);
 80078aa:	200a      	movs	r0, #10
 80078ac:	f7ff febc 	bl	8007628 <SEGGER_SYSVIEW_RecordVoid>
    {
      U8* pPayload;
      U8* pPayloadStart;
      RECORD_START(SEGGER_SYSVIEW_INFO_SIZE + 4 * SEGGER_SYSVIEW_QUANTA_U32);
 80078b0:	f3ef 8311 	mrs	r3, BASEPRI
 80078b4:	f04f 0120 	mov.w	r1, #32
 80078b8:	f381 8811 	msr	BASEPRI, r1
 80078bc:	60bb      	str	r3, [r7, #8]
 80078be:	484b      	ldr	r0, [pc, #300]	; (80079ec <SEGGER_SYSVIEW_Start+0x170>)
 80078c0:	f7ff fce2 	bl	8007288 <_PreparePacket>
 80078c4:	6078      	str	r0, [r7, #4]
      //
      pPayload = pPayloadStart;
 80078c6:	687b      	ldr	r3, [r7, #4]
 80078c8:	603b      	str	r3, [r7, #0]
      ENCODE_U32(pPayload, _SYSVIEW_Globals.SysFreq);
 80078ca:	683b      	ldr	r3, [r7, #0]
 80078cc:	62fb      	str	r3, [r7, #44]	; 0x2c
 80078ce:	4b45      	ldr	r3, [pc, #276]	; (80079e4 <SEGGER_SYSVIEW_Start+0x168>)
 80078d0:	685b      	ldr	r3, [r3, #4]
 80078d2:	62bb      	str	r3, [r7, #40]	; 0x28
 80078d4:	e00b      	b.n	80078ee <SEGGER_SYSVIEW_Start+0x72>
 80078d6:	6abb      	ldr	r3, [r7, #40]	; 0x28
 80078d8:	b2da      	uxtb	r2, r3
 80078da:	6afb      	ldr	r3, [r7, #44]	; 0x2c
 80078dc:	1c59      	adds	r1, r3, #1
 80078de:	62f9      	str	r1, [r7, #44]	; 0x2c
 80078e0:	f062 027f 	orn	r2, r2, #127	; 0x7f
 80078e4:	b2d2      	uxtb	r2, r2
 80078e6:	701a      	strb	r2, [r3, #0]
 80078e8:	6abb      	ldr	r3, [r7, #40]	; 0x28
 80078ea:	09db      	lsrs	r3, r3, #7
 80078ec:	62bb      	str	r3, [r7, #40]	; 0x28
 80078ee:	6abb      	ldr	r3, [r7, #40]	; 0x28
 80078f0:	2b7f      	cmp	r3, #127	; 0x7f
 80078f2:	d8f0      	bhi.n	80078d6 <SEGGER_SYSVIEW_Start+0x5a>
 80078f4:	6afb      	ldr	r3, [r7, #44]	; 0x2c
 80078f6:	1c5a      	adds	r2, r3, #1
 80078f8:	62fa      	str	r2, [r7, #44]	; 0x2c
 80078fa:	6aba      	ldr	r2, [r7, #40]	; 0x28
 80078fc:	b2d2      	uxtb	r2, r2
 80078fe:	701a      	strb	r2, [r3, #0]
 8007900:	6afb      	ldr	r3, [r7, #44]	; 0x2c
 8007902:	603b      	str	r3, [r7, #0]
      ENCODE_U32(pPayload, _SYSVIEW_Globals.CPUFreq);
 8007904:	683b      	ldr	r3, [r7, #0]
 8007906:	627b      	str	r3, [r7, #36]	; 0x24
 8007908:	4b36      	ldr	r3, [pc, #216]	; (80079e4 <SEGGER_SYSVIEW_Start+0x168>)
 800790a:	689b      	ldr	r3, [r3, #8]
 800790c:	623b      	str	r3, [r7, #32]
 800790e:	e00b      	b.n	8007928 <SEGGER_SYSVIEW_Start+0xac>
 8007910:	6a3b      	ldr	r3, [r7, #32]
 8007912:	b2da      	uxtb	r2, r3
 8007914:	6a7b      	ldr	r3, [r7, #36]	; 0x24
 8007916:	1c59      	adds	r1, r3, #1
 8007918:	6279      	str	r1, [r7, #36]	; 0x24
 800791a:	f062 027f 	orn	r2, r2, #127	; 0x7f
 800791e:	b2d2      	uxtb	r2, r2
 8007920:	701a      	strb	r2, [r3, #0]
 8007922:	6a3b      	ldr	r3, [r7, #32]
 8007924:	09db      	lsrs	r3, r3, #7
 8007926:	623b      	str	r3, [r7, #32]
 8007928:	6a3b      	ldr	r3, [r7, #32]
 800792a:	2b7f      	cmp	r3, #127	; 0x7f
 800792c:	d8f0      	bhi.n	8007910 <SEGGER_SYSVIEW_Start+0x94>
 800792e:	6a7b      	ldr	r3, [r7, #36]	; 0x24
 8007930:	1c5a      	adds	r2, r3, #1
 8007932:	627a      	str	r2, [r7, #36]	; 0x24
 8007934:	6a3a      	ldr	r2, [r7, #32]
 8007936:	b2d2      	uxtb	r2, r2
 8007938:	701a      	strb	r2, [r3, #0]
 800793a:	6a7b      	ldr	r3, [r7, #36]	; 0x24
 800793c:	603b      	str	r3, [r7, #0]
      ENCODE_U32(pPayload, _SYSVIEW_Globals.RAMBaseAddress);
 800793e:	683b      	ldr	r3, [r7, #0]
 8007940:	61fb      	str	r3, [r7, #28]
 8007942:	4b28      	ldr	r3, [pc, #160]	; (80079e4 <SEGGER_SYSVIEW_Start+0x168>)
 8007944:	691b      	ldr	r3, [r3, #16]
 8007946:	61bb      	str	r3, [r7, #24]
 8007948:	e00b      	b.n	8007962 <SEGGER_SYSVIEW_Start+0xe6>
 800794a:	69bb      	ldr	r3, [r7, #24]
 800794c:	b2da      	uxtb	r2, r3
 800794e:	69fb      	ldr	r3, [r7, #28]
 8007950:	1c59      	adds	r1, r3, #1
 8007952:	61f9      	str	r1, [r7, #28]
 8007954:	f062 027f 	orn	r2, r2, #127	; 0x7f
 8007958:	b2d2      	uxtb	r2, r2
 800795a:	701a      	strb	r2, [r3, #0]
 800795c:	69bb      	ldr	r3, [r7, #24]
 800795e:	09db      	lsrs	r3, r3, #7
 8007960:	61bb      	str	r3, [r7, #24]
 8007962:	69bb      	ldr	r3, [r7, #24]
 8007964:	2b7f      	cmp	r3, #127	; 0x7f
 8007966:	d8f0      	bhi.n	800794a <SEGGER_SYSVIEW_Start+0xce>
 8007968:	69fb      	ldr	r3, [r7, #28]
 800796a:	1c5a      	adds	r2, r3, #1
 800796c:	61fa      	str	r2, [r7, #28]
 800796e:	69ba      	ldr	r2, [r7, #24]
 8007970:	b2d2      	uxtb	r2, r2
 8007972:	701a      	strb	r2, [r3, #0]
 8007974:	69fb      	ldr	r3, [r7, #28]
 8007976:	603b      	str	r3, [r7, #0]
      ENCODE_U32(pPayload, SEGGER_SYSVIEW_ID_SHIFT);
 8007978:	683b      	ldr	r3, [r7, #0]
 800797a:	617b      	str	r3, [r7, #20]
 800797c:	2300      	movs	r3, #0
 800797e:	613b      	str	r3, [r7, #16]
 8007980:	e00b      	b.n	800799a <SEGGER_SYSVIEW_Start+0x11e>
 8007982:	693b      	ldr	r3, [r7, #16]
 8007984:	b2da      	uxtb	r2, r3
 8007986:	697b      	ldr	r3, [r7, #20]
 8007988:	1c59      	adds	r1, r3, #1
 800798a:	6179      	str	r1, [r7, #20]
 800798c:	f062 027f 	orn	r2, r2, #127	; 0x7f
 8007990:	b2d2      	uxtb	r2, r2
 8007992:	701a      	strb	r2, [r3, #0]
 8007994:	693b      	ldr	r3, [r7, #16]
 8007996:	09db      	lsrs	r3, r3, #7
 8007998:	613b      	str	r3, [r7, #16]
 800799a:	693b      	ldr	r3, [r7, #16]
 800799c:	2b7f      	cmp	r3, #127	; 0x7f
 800799e:	d8f0      	bhi.n	8007982 <SEGGER_SYSVIEW_Start+0x106>
 80079a0:	697b      	ldr	r3, [r7, #20]
 80079a2:	1c5a      	adds	r2, r3, #1
 80079a4:	617a      	str	r2, [r7, #20]
 80079a6:	693a      	ldr	r2, [r7, #16]
 80079a8:	b2d2      	uxtb	r2, r2
 80079aa:	701a      	strb	r2, [r3, #0]
 80079ac:	697b      	ldr	r3, [r7, #20]
 80079ae:	603b      	str	r3, [r7, #0]
      _SendPacket(pPayloadStart, pPayload, SYSVIEW_EVTID_INIT);
 80079b0:	2218      	movs	r2, #24
 80079b2:	6839      	ldr	r1, [r7, #0]
 80079b4:	6878      	ldr	r0, [r7, #4]
 80079b6:	f7ff fd51 	bl	800745c <_SendPacket>
      RECORD_END();
 80079ba:	68bb      	ldr	r3, [r7, #8]
 80079bc:	f383 8811 	msr	BASEPRI, r3
    }
    if (_SYSVIEW_Globals.pfSendSysDesc) {
 80079c0:	4b08      	ldr	r3, [pc, #32]	; (80079e4 <SEGGER_SYSVIEW_Start+0x168>)
 80079c2:	6a5b      	ldr	r3, [r3, #36]	; 0x24
 80079c4:	2b00      	cmp	r3, #0
 80079c6:	d002      	beq.n	80079ce <SEGGER_SYSVIEW_Start+0x152>
      _SYSVIEW_Globals.pfSendSysDesc();
 80079c8:	4b06      	ldr	r3, [pc, #24]	; (80079e4 <SEGGER_SYSVIEW_Start+0x168>)
 80079ca:	6a5b      	ldr	r3, [r3, #36]	; 0x24
 80079cc:	4798      	blx	r3
    }
    SEGGER_SYSVIEW_RecordSystime();
 80079ce:	f000 f9c7 	bl	8007d60 <SEGGER_SYSVIEW_RecordSystime>
    SEGGER_SYSVIEW_SendTaskList();
 80079d2:	f000 f9b1 	bl	8007d38 <SEGGER_SYSVIEW_SendTaskList>
    SEGGER_SYSVIEW_SendNumModules();
 80079d6:	f000 fc5d 	bl	8008294 <SEGGER_SYSVIEW_SendNumModules>
#endif
#if (SEGGER_SYSVIEW_CAN_RESTART == 0)
  }
#endif
}
 80079da:	bf00      	nop
 80079dc:	3730      	adds	r7, #48	; 0x30
 80079de:	46bd      	mov	sp, r7
 80079e0:	bd80      	pop	{r7, pc}
 80079e2:	bf00      	nop
 80079e4:	2000208c 	.word	0x2000208c
 80079e8:	08008558 	.word	0x08008558
 80079ec:	200020bc 	.word	0x200020bc

080079f0 <SEGGER_SYSVIEW_Stop>:
*    This function disables transmission of SystemView packets recorded
*    by subsequent trace calls.  If transmission is enabled when
*    this function is called, a single SystemView Stop event is recorded
*    to the trace, send, and then trace transmission is halted.
*/
void SEGGER_SYSVIEW_Stop(void) {
 80079f0:	b580      	push	{r7, lr}
 80079f2:	b082      	sub	sp, #8
 80079f4:	af00      	add	r7, sp, #0
  U8* pPayloadStart;
  RECORD_START(SEGGER_SYSVIEW_INFO_SIZE);
 80079f6:	f3ef 8311 	mrs	r3, BASEPRI
 80079fa:	f04f 0120 	mov.w	r1, #32
 80079fe:	f381 8811 	msr	BASEPRI, r1
 8007a02:	607b      	str	r3, [r7, #4]
 8007a04:	480b      	ldr	r0, [pc, #44]	; (8007a34 <SEGGER_SYSVIEW_Stop+0x44>)
 8007a06:	f7ff fc3f 	bl	8007288 <_PreparePacket>
 8007a0a:	6038      	str	r0, [r7, #0]
  //
  if (_SYSVIEW_Globals.EnableState) {
 8007a0c:	4b0a      	ldr	r3, [pc, #40]	; (8007a38 <SEGGER_SYSVIEW_Stop+0x48>)
 8007a0e:	781b      	ldrb	r3, [r3, #0]
 8007a10:	2b00      	cmp	r3, #0
 8007a12:	d007      	beq.n	8007a24 <SEGGER_SYSVIEW_Stop+0x34>
    _SendPacket(pPayloadStart, pPayloadStart, SYSVIEW_EVTID_TRACE_STOP);
 8007a14:	220b      	movs	r2, #11
 8007a16:	6839      	ldr	r1, [r7, #0]
 8007a18:	6838      	ldr	r0, [r7, #0]
 8007a1a:	f7ff fd1f 	bl	800745c <_SendPacket>
    _SYSVIEW_Globals.EnableState = 0;
 8007a1e:	4b06      	ldr	r3, [pc, #24]	; (8007a38 <SEGGER_SYSVIEW_Stop+0x48>)
 8007a20:	2200      	movs	r2, #0
 8007a22:	701a      	strb	r2, [r3, #0]
  }
  RECORD_END();
 8007a24:	687b      	ldr	r3, [r7, #4]
 8007a26:	f383 8811 	msr	BASEPRI, r3
}
 8007a2a:	bf00      	nop
 8007a2c:	3708      	adds	r7, #8
 8007a2e:	46bd      	mov	sp, r7
 8007a30:	bd80      	pop	{r7, pc}
 8007a32:	bf00      	nop
 8007a34:	200020bc 	.word	0x200020bc
 8007a38:	2000208c 	.word	0x2000208c

08007a3c <SEGGER_SYSVIEW_GetSysDesc>:
*
*  Function description
*    Triggers a send of the system information and description.
*
*/
void SEGGER_SYSVIEW_GetSysDesc(void) {
 8007a3c:	b580      	push	{r7, lr}
 8007a3e:	b08c      	sub	sp, #48	; 0x30
 8007a40:	af00      	add	r7, sp, #0
  U8* pPayload;
  U8* pPayloadStart;
  RECORD_START(SEGGER_SYSVIEW_INFO_SIZE + 4 * SEGGER_SYSVIEW_QUANTA_U32);
 8007a42:	f3ef 8311 	mrs	r3, BASEPRI
 8007a46:	f04f 0120 	mov.w	r1, #32
 8007a4a:	f381 8811 	msr	BASEPRI, r1
 8007a4e:	60fb      	str	r3, [r7, #12]
 8007a50:	4845      	ldr	r0, [pc, #276]	; (8007b68 <SEGGER_SYSVIEW_GetSysDesc+0x12c>)
 8007a52:	f7ff fc19 	bl	8007288 <_PreparePacket>
 8007a56:	60b8      	str	r0, [r7, #8]
  //
  pPayload = pPayloadStart;
 8007a58:	68bb      	ldr	r3, [r7, #8]
 8007a5a:	607b      	str	r3, [r7, #4]
  ENCODE_U32(pPayload, _SYSVIEW_Globals.SysFreq);
 8007a5c:	687b      	ldr	r3, [r7, #4]
 8007a5e:	62fb      	str	r3, [r7, #44]	; 0x2c
 8007a60:	4b42      	ldr	r3, [pc, #264]	; (8007b6c <SEGGER_SYSVIEW_GetSysDesc+0x130>)
 8007a62:	685b      	ldr	r3, [r3, #4]
 8007a64:	62bb      	str	r3, [r7, #40]	; 0x28
 8007a66:	e00b      	b.n	8007a80 <SEGGER_SYSVIEW_GetSysDesc+0x44>
 8007a68:	6abb      	ldr	r3, [r7, #40]	; 0x28
 8007a6a:	b2da      	uxtb	r2, r3
 8007a6c:	6afb      	ldr	r3, [r7, #44]	; 0x2c
 8007a6e:	1c59      	adds	r1, r3, #1
 8007a70:	62f9      	str	r1, [r7, #44]	; 0x2c
 8007a72:	f062 027f 	orn	r2, r2, #127	; 0x7f
 8007a76:	b2d2      	uxtb	r2, r2
 8007a78:	701a      	strb	r2, [r3, #0]
 8007a7a:	6abb      	ldr	r3, [r7, #40]	; 0x28
 8007a7c:	09db      	lsrs	r3, r3, #7
 8007a7e:	62bb      	str	r3, [r7, #40]	; 0x28
 8007a80:	6abb      	ldr	r3, [r7, #40]	; 0x28
 8007a82:	2b7f      	cmp	r3, #127	; 0x7f
 8007a84:	d8f0      	bhi.n	8007a68 <SEGGER_SYSVIEW_GetSysDesc+0x2c>
 8007a86:	6afb      	ldr	r3, [r7, #44]	; 0x2c
 8007a88:	1c5a      	adds	r2, r3, #1
 8007a8a:	62fa      	str	r2, [r7, #44]	; 0x2c
 8007a8c:	6aba      	ldr	r2, [r7, #40]	; 0x28
 8007a8e:	b2d2      	uxtb	r2, r2
 8007a90:	701a      	strb	r2, [r3, #0]
 8007a92:	6afb      	ldr	r3, [r7, #44]	; 0x2c
 8007a94:	607b      	str	r3, [r7, #4]
  ENCODE_U32(pPayload, _SYSVIEW_Globals.CPUFreq);
 8007a96:	687b      	ldr	r3, [r7, #4]
 8007a98:	627b      	str	r3, [r7, #36]	; 0x24
 8007a9a:	4b34      	ldr	r3, [pc, #208]	; (8007b6c <SEGGER_SYSVIEW_GetSysDesc+0x130>)
 8007a9c:	689b      	ldr	r3, [r3, #8]
 8007a9e:	623b      	str	r3, [r7, #32]
 8007aa0:	e00b      	b.n	8007aba <SEGGER_SYSVIEW_GetSysDesc+0x7e>
 8007aa2:	6a3b      	ldr	r3, [r7, #32]
 8007aa4:	b2da      	uxtb	r2, r3
 8007aa6:	6a7b      	ldr	r3, [r7, #36]	; 0x24
 8007aa8:	1c59      	adds	r1, r3, #1
 8007aaa:	6279      	str	r1, [r7, #36]	; 0x24
 8007aac:	f062 027f 	orn	r2, r2, #127	; 0x7f
 8007ab0:	b2d2      	uxtb	r2, r2
 8007ab2:	701a      	strb	r2, [r3, #0]
 8007ab4:	6a3b      	ldr	r3, [r7, #32]
 8007ab6:	09db      	lsrs	r3, r3, #7
 8007ab8:	623b      	str	r3, [r7, #32]
 8007aba:	6a3b      	ldr	r3, [r7, #32]
 8007abc:	2b7f      	cmp	r3, #127	; 0x7f
 8007abe:	d8f0      	bhi.n	8007aa2 <SEGGER_SYSVIEW_GetSysDesc+0x66>
 8007ac0:	6a7b      	ldr	r3, [r7, #36]	; 0x24
 8007ac2:	1c5a      	adds	r2, r3, #1
 8007ac4:	627a      	str	r2, [r7, #36]	; 0x24
 8007ac6:	6a3a      	ldr	r2, [r7, #32]
 8007ac8:	b2d2      	uxtb	r2, r2
 8007aca:	701a      	strb	r2, [r3, #0]
 8007acc:	6a7b      	ldr	r3, [r7, #36]	; 0x24
 8007ace:	607b      	str	r3, [r7, #4]
  ENCODE_U32(pPayload, _SYSVIEW_Globals.RAMBaseAddress);
 8007ad0:	687b      	ldr	r3, [r7, #4]
 8007ad2:	61fb      	str	r3, [r7, #28]
 8007ad4:	4b25      	ldr	r3, [pc, #148]	; (8007b6c <SEGGER_SYSVIEW_GetSysDesc+0x130>)
 8007ad6:	691b      	ldr	r3, [r3, #16]
 8007ad8:	61bb      	str	r3, [r7, #24]
 8007ada:	e00b      	b.n	8007af4 <SEGGER_SYSVIEW_GetSysDesc+0xb8>
 8007adc:	69bb      	ldr	r3, [r7, #24]
 8007ade:	b2da      	uxtb	r2, r3
 8007ae0:	69fb      	ldr	r3, [r7, #28]
 8007ae2:	1c59      	adds	r1, r3, #1
 8007ae4:	61f9      	str	r1, [r7, #28]
 8007ae6:	f062 027f 	orn	r2, r2, #127	; 0x7f
 8007aea:	b2d2      	uxtb	r2, r2
 8007aec:	701a      	strb	r2, [r3, #0]
 8007aee:	69bb      	ldr	r3, [r7, #24]
 8007af0:	09db      	lsrs	r3, r3, #7
 8007af2:	61bb      	str	r3, [r7, #24]
 8007af4:	69bb      	ldr	r3, [r7, #24]
 8007af6:	2b7f      	cmp	r3, #127	; 0x7f
 8007af8:	d8f0      	bhi.n	8007adc <SEGGER_SYSVIEW_GetSysDesc+0xa0>
 8007afa:	69fb      	ldr	r3, [r7, #28]
 8007afc:	1c5a      	adds	r2, r3, #1
 8007afe:	61fa      	str	r2, [r7, #28]
 8007b00:	69ba      	ldr	r2, [r7, #24]
 8007b02:	b2d2      	uxtb	r2, r2
 8007b04:	701a      	strb	r2, [r3, #0]
 8007b06:	69fb      	ldr	r3, [r7, #28]
 8007b08:	607b      	str	r3, [r7, #4]
  ENCODE_U32(pPayload, SEGGER_SYSVIEW_ID_SHIFT);
 8007b0a:	687b      	ldr	r3, [r7, #4]
 8007b0c:	617b      	str	r3, [r7, #20]
 8007b0e:	2300      	movs	r3, #0
 8007b10:	613b      	str	r3, [r7, #16]
 8007b12:	e00b      	b.n	8007b2c <SEGGER_SYSVIEW_GetSysDesc+0xf0>
 8007b14:	693b      	ldr	r3, [r7, #16]
 8007b16:	b2da      	uxtb	r2, r3
 8007b18:	697b      	ldr	r3, [r7, #20]
 8007b1a:	1c59      	adds	r1, r3, #1
 8007b1c:	6179      	str	r1, [r7, #20]
 8007b1e:	f062 027f 	orn	r2, r2, #127	; 0x7f
 8007b22:	b2d2      	uxtb	r2, r2
 8007b24:	701a      	strb	r2, [r3, #0]
 8007b26:	693b      	ldr	r3, [r7, #16]
 8007b28:	09db      	lsrs	r3, r3, #7
 8007b2a:	613b      	str	r3, [r7, #16]
 8007b2c:	693b      	ldr	r3, [r7, #16]
 8007b2e:	2b7f      	cmp	r3, #127	; 0x7f
 8007b30:	d8f0      	bhi.n	8007b14 <SEGGER_SYSVIEW_GetSysDesc+0xd8>
 8007b32:	697b      	ldr	r3, [r7, #20]
 8007b34:	1c5a      	adds	r2, r3, #1
 8007b36:	617a      	str	r2, [r7, #20]
 8007b38:	693a      	ldr	r2, [r7, #16]
 8007b3a:	b2d2      	uxtb	r2, r2
 8007b3c:	701a      	strb	r2, [r3, #0]
 8007b3e:	697b      	ldr	r3, [r7, #20]
 8007b40:	607b      	str	r3, [r7, #4]
  _SendPacket(pPayloadStart, pPayload, SYSVIEW_EVTID_INIT);
 8007b42:	2218      	movs	r2, #24
 8007b44:	6879      	ldr	r1, [r7, #4]
 8007b46:	68b8      	ldr	r0, [r7, #8]
 8007b48:	f7ff fc88 	bl	800745c <_SendPacket>
  RECORD_END();
 8007b4c:	68fb      	ldr	r3, [r7, #12]
 8007b4e:	f383 8811 	msr	BASEPRI, r3
  if (_SYSVIEW_Globals.pfSendSysDesc) {
 8007b52:	4b06      	ldr	r3, [pc, #24]	; (8007b6c <SEGGER_SYSVIEW_GetSysDesc+0x130>)
 8007b54:	6a5b      	ldr	r3, [r3, #36]	; 0x24
 8007b56:	2b00      	cmp	r3, #0
 8007b58:	d002      	beq.n	8007b60 <SEGGER_SYSVIEW_GetSysDesc+0x124>
    _SYSVIEW_Globals.pfSendSysDesc();
 8007b5a:	4b04      	ldr	r3, [pc, #16]	; (8007b6c <SEGGER_SYSVIEW_GetSysDesc+0x130>)
 8007b5c:	6a5b      	ldr	r3, [r3, #36]	; 0x24
 8007b5e:	4798      	blx	r3
  }
}
 8007b60:	bf00      	nop
 8007b62:	3730      	adds	r7, #48	; 0x30
 8007b64:	46bd      	mov	sp, r7
 8007b66:	bd80      	pop	{r7, pc}
 8007b68:	200020bc 	.word	0x200020bc
 8007b6c:	2000208c 	.word	0x2000208c

08007b70 <SEGGER_SYSVIEW_SendTaskInfo>:
*    task priority and task name.
*
*  Parameters
*    pInfo - Pointer to task information to send.
*/
void SEGGER_SYSVIEW_SendTaskInfo(const SEGGER_SYSVIEW_TASKINFO *pInfo) {
 8007b70:	b580      	push	{r7, lr}
 8007b72:	b092      	sub	sp, #72	; 0x48
 8007b74:	af00      	add	r7, sp, #0
 8007b76:	6078      	str	r0, [r7, #4]
  U8* pPayload;
  U8* pPayloadStart;
  RECORD_START(SEGGER_SYSVIEW_INFO_SIZE + SEGGER_SYSVIEW_QUANTA_U32 + 1 + 32);
 8007b78:	f3ef 8311 	mrs	r3, BASEPRI
 8007b7c:	f04f 0120 	mov.w	r1, #32
 8007b80:	f381 8811 	msr	BASEPRI, r1
 8007b84:	617b      	str	r3, [r7, #20]
 8007b86:	486a      	ldr	r0, [pc, #424]	; (8007d30 <SEGGER_SYSVIEW_SendTaskInfo+0x1c0>)
 8007b88:	f7ff fb7e 	bl	8007288 <_PreparePacket>
 8007b8c:	6138      	str	r0, [r7, #16]
  //
  pPayload = pPayloadStart;
 8007b8e:	693b      	ldr	r3, [r7, #16]
 8007b90:	60fb      	str	r3, [r7, #12]
  ENCODE_U32(pPayload, SHRINK_ID(pInfo->TaskID));
 8007b92:	68fb      	ldr	r3, [r7, #12]
 8007b94:	647b      	str	r3, [r7, #68]	; 0x44
 8007b96:	687b      	ldr	r3, [r7, #4]
 8007b98:	681a      	ldr	r2, [r3, #0]
 8007b9a:	4b66      	ldr	r3, [pc, #408]	; (8007d34 <SEGGER_SYSVIEW_SendTaskInfo+0x1c4>)
 8007b9c:	691b      	ldr	r3, [r3, #16]
 8007b9e:	1ad3      	subs	r3, r2, r3
 8007ba0:	643b      	str	r3, [r7, #64]	; 0x40
 8007ba2:	e00b      	b.n	8007bbc <SEGGER_SYSVIEW_SendTaskInfo+0x4c>
 8007ba4:	6c3b      	ldr	r3, [r7, #64]	; 0x40
 8007ba6:	b2da      	uxtb	r2, r3
 8007ba8:	6c7b      	ldr	r3, [r7, #68]	; 0x44
 8007baa:	1c59      	adds	r1, r3, #1
 8007bac:	6479      	str	r1, [r7, #68]	; 0x44
 8007bae:	f062 027f 	orn	r2, r2, #127	; 0x7f
 8007bb2:	b2d2      	uxtb	r2, r2
 8007bb4:	701a      	strb	r2, [r3, #0]
 8007bb6:	6c3b      	ldr	r3, [r7, #64]	; 0x40
 8007bb8:	09db      	lsrs	r3, r3, #7
 8007bba:	643b      	str	r3, [r7, #64]	; 0x40
 8007bbc:	6c3b      	ldr	r3, [r7, #64]	; 0x40
 8007bbe:	2b7f      	cmp	r3, #127	; 0x7f
 8007bc0:	d8f0      	bhi.n	8007ba4 <SEGGER_SYSVIEW_SendTaskInfo+0x34>
 8007bc2:	6c7b      	ldr	r3, [r7, #68]	; 0x44
 8007bc4:	1c5a      	adds	r2, r3, #1
 8007bc6:	647a      	str	r2, [r7, #68]	; 0x44
 8007bc8:	6c3a      	ldr	r2, [r7, #64]	; 0x40
 8007bca:	b2d2      	uxtb	r2, r2
 8007bcc:	701a      	strb	r2, [r3, #0]
 8007bce:	6c7b      	ldr	r3, [r7, #68]	; 0x44
 8007bd0:	60fb      	str	r3, [r7, #12]
  ENCODE_U32(pPayload, pInfo->Prio);
 8007bd2:	68fb      	ldr	r3, [r7, #12]
 8007bd4:	63fb      	str	r3, [r7, #60]	; 0x3c
 8007bd6:	687b      	ldr	r3, [r7, #4]
 8007bd8:	689b      	ldr	r3, [r3, #8]
 8007bda:	63bb      	str	r3, [r7, #56]	; 0x38
 8007bdc:	e00b      	b.n	8007bf6 <SEGGER_SYSVIEW_SendTaskInfo+0x86>
 8007bde:	6bbb      	ldr	r3, [r7, #56]	; 0x38
 8007be0:	b2da      	uxtb	r2, r3
 8007be2:	6bfb      	ldr	r3, [r7, #60]	; 0x3c
 8007be4:	1c59      	adds	r1, r3, #1
 8007be6:	63f9      	str	r1, [r7, #60]	; 0x3c
 8007be8:	f062 027f 	orn	r2, r2, #127	; 0x7f
 8007bec:	b2d2      	uxtb	r2, r2
 8007bee:	701a      	strb	r2, [r3, #0]
 8007bf0:	6bbb      	ldr	r3, [r7, #56]	; 0x38
 8007bf2:	09db      	lsrs	r3, r3, #7
 8007bf4:	63bb      	str	r3, [r7, #56]	; 0x38
 8007bf6:	6bbb      	ldr	r3, [r7, #56]	; 0x38
 8007bf8:	2b7f      	cmp	r3, #127	; 0x7f
 8007bfa:	d8f0      	bhi.n	8007bde <SEGGER_SYSVIEW_SendTaskInfo+0x6e>
 8007bfc:	6bfb      	ldr	r3, [r7, #60]	; 0x3c
 8007bfe:	1c5a      	adds	r2, r3, #1
 8007c00:	63fa      	str	r2, [r7, #60]	; 0x3c
 8007c02:	6bba      	ldr	r2, [r7, #56]	; 0x38
 8007c04:	b2d2      	uxtb	r2, r2
 8007c06:	701a      	strb	r2, [r3, #0]
 8007c08:	6bfb      	ldr	r3, [r7, #60]	; 0x3c
 8007c0a:	60fb      	str	r3, [r7, #12]
  pPayload = _EncodeStr(pPayload, pInfo->sName, 32);
 8007c0c:	687b      	ldr	r3, [r7, #4]
 8007c0e:	685b      	ldr	r3, [r3, #4]
 8007c10:	2220      	movs	r2, #32
 8007c12:	4619      	mov	r1, r3
 8007c14:	68f8      	ldr	r0, [r7, #12]
 8007c16:	f7ff faeb 	bl	80071f0 <_EncodeStr>
 8007c1a:	60f8      	str	r0, [r7, #12]
  _SendPacket(pPayloadStart, pPayload, SYSVIEW_EVTID_TASK_INFO);
 8007c1c:	2209      	movs	r2, #9
 8007c1e:	68f9      	ldr	r1, [r7, #12]
 8007c20:	6938      	ldr	r0, [r7, #16]
 8007c22:	f7ff fc1b 	bl	800745c <_SendPacket>
  //
  pPayload = pPayloadStart;
 8007c26:	693b      	ldr	r3, [r7, #16]
 8007c28:	60fb      	str	r3, [r7, #12]
  ENCODE_U32(pPayload, SHRINK_ID(pInfo->TaskID));
 8007c2a:	68fb      	ldr	r3, [r7, #12]
 8007c2c:	637b      	str	r3, [r7, #52]	; 0x34
 8007c2e:	687b      	ldr	r3, [r7, #4]
 8007c30:	681a      	ldr	r2, [r3, #0]
 8007c32:	4b40      	ldr	r3, [pc, #256]	; (8007d34 <SEGGER_SYSVIEW_SendTaskInfo+0x1c4>)
 8007c34:	691b      	ldr	r3, [r3, #16]
 8007c36:	1ad3      	subs	r3, r2, r3
 8007c38:	633b      	str	r3, [r7, #48]	; 0x30
 8007c3a:	e00b      	b.n	8007c54 <SEGGER_SYSVIEW_SendTaskInfo+0xe4>
 8007c3c:	6b3b      	ldr	r3, [r7, #48]	; 0x30
 8007c3e:	b2da      	uxtb	r2, r3
 8007c40:	6b7b      	ldr	r3, [r7, #52]	; 0x34
 8007c42:	1c59      	adds	r1, r3, #1
 8007c44:	6379      	str	r1, [r7, #52]	; 0x34
 8007c46:	f062 027f 	orn	r2, r2, #127	; 0x7f
 8007c4a:	b2d2      	uxtb	r2, r2
 8007c4c:	701a      	strb	r2, [r3, #0]
 8007c4e:	6b3b      	ldr	r3, [r7, #48]	; 0x30
 8007c50:	09db      	lsrs	r3, r3, #7
 8007c52:	633b      	str	r3, [r7, #48]	; 0x30
 8007c54:	6b3b      	ldr	r3, [r7, #48]	; 0x30
 8007c56:	2b7f      	cmp	r3, #127	; 0x7f
 8007c58:	d8f0      	bhi.n	8007c3c <SEGGER_SYSVIEW_SendTaskInfo+0xcc>
 8007c5a:	6b7b      	ldr	r3, [r7, #52]	; 0x34
 8007c5c:	1c5a      	adds	r2, r3, #1
 8007c5e:	637a      	str	r2, [r7, #52]	; 0x34
 8007c60:	6b3a      	ldr	r2, [r7, #48]	; 0x30
 8007c62:	b2d2      	uxtb	r2, r2
 8007c64:	701a      	strb	r2, [r3, #0]
 8007c66:	6b7b      	ldr	r3, [r7, #52]	; 0x34
 8007c68:	60fb      	str	r3, [r7, #12]
  ENCODE_U32(pPayload, pInfo->StackBase);
 8007c6a:	68fb      	ldr	r3, [r7, #12]
 8007c6c:	62fb      	str	r3, [r7, #44]	; 0x2c
 8007c6e:	687b      	ldr	r3, [r7, #4]
 8007c70:	68db      	ldr	r3, [r3, #12]
 8007c72:	62bb      	str	r3, [r7, #40]	; 0x28
 8007c74:	e00b      	b.n	8007c8e <SEGGER_SYSVIEW_SendTaskInfo+0x11e>
 8007c76:	6abb      	ldr	r3, [r7, #40]	; 0x28
 8007c78:	b2da      	uxtb	r2, r3
 8007c7a:	6afb      	ldr	r3, [r7, #44]	; 0x2c
 8007c7c:	1c59      	adds	r1, r3, #1
 8007c7e:	62f9      	str	r1, [r7, #44]	; 0x2c
 8007c80:	f062 027f 	orn	r2, r2, #127	; 0x7f
 8007c84:	b2d2      	uxtb	r2, r2
 8007c86:	701a      	strb	r2, [r3, #0]
 8007c88:	6abb      	ldr	r3, [r7, #40]	; 0x28
 8007c8a:	09db      	lsrs	r3, r3, #7
 8007c8c:	62bb      	str	r3, [r7, #40]	; 0x28
 8007c8e:	6abb      	ldr	r3, [r7, #40]	; 0x28
 8007c90:	2b7f      	cmp	r3, #127	; 0x7f
 8007c92:	d8f0      	bhi.n	8007c76 <SEGGER_SYSVIEW_SendTaskInfo+0x106>
 8007c94:	6afb      	ldr	r3, [r7, #44]	; 0x2c
 8007c96:	1c5a      	adds	r2, r3, #1
 8007c98:	62fa      	str	r2, [r7, #44]	; 0x2c
 8007c9a:	6aba      	ldr	r2, [r7, #40]	; 0x28
 8007c9c:	b2d2      	uxtb	r2, r2
 8007c9e:	701a      	strb	r2, [r3, #0]
 8007ca0:	6afb      	ldr	r3, [r7, #44]	; 0x2c
 8007ca2:	60fb      	str	r3, [r7, #12]
  ENCODE_U32(pPayload, pInfo->StackSize);
 8007ca4:	68fb      	ldr	r3, [r7, #12]
 8007ca6:	627b      	str	r3, [r7, #36]	; 0x24
 8007ca8:	687b      	ldr	r3, [r7, #4]
 8007caa:	691b      	ldr	r3, [r3, #16]
 8007cac:	623b      	str	r3, [r7, #32]
 8007cae:	e00b      	b.n	8007cc8 <SEGGER_SYSVIEW_SendTaskInfo+0x158>
 8007cb0:	6a3b      	ldr	r3, [r7, #32]
 8007cb2:	b2da      	uxtb	r2, r3
 8007cb4:	6a7b      	ldr	r3, [r7, #36]	; 0x24
 8007cb6:	1c59      	adds	r1, r3, #1
 8007cb8:	6279      	str	r1, [r7, #36]	; 0x24
 8007cba:	f062 027f 	orn	r2, r2, #127	; 0x7f
 8007cbe:	b2d2      	uxtb	r2, r2
 8007cc0:	701a      	strb	r2, [r3, #0]
 8007cc2:	6a3b      	ldr	r3, [r7, #32]
 8007cc4:	09db      	lsrs	r3, r3, #7
 8007cc6:	623b      	str	r3, [r7, #32]
 8007cc8:	6a3b      	ldr	r3, [r7, #32]
 8007cca:	2b7f      	cmp	r3, #127	; 0x7f
 8007ccc:	d8f0      	bhi.n	8007cb0 <SEGGER_SYSVIEW_SendTaskInfo+0x140>
 8007cce:	6a7b      	ldr	r3, [r7, #36]	; 0x24
 8007cd0:	1c5a      	adds	r2, r3, #1
 8007cd2:	627a      	str	r2, [r7, #36]	; 0x24
 8007cd4:	6a3a      	ldr	r2, [r7, #32]
 8007cd6:	b2d2      	uxtb	r2, r2
 8007cd8:	701a      	strb	r2, [r3, #0]
 8007cda:	6a7b      	ldr	r3, [r7, #36]	; 0x24
 8007cdc:	60fb      	str	r3, [r7, #12]
  ENCODE_U32(pPayload, 0); // Stack End, future use
 8007cde:	68fb      	ldr	r3, [r7, #12]
 8007ce0:	61fb      	str	r3, [r7, #28]
 8007ce2:	2300      	movs	r3, #0
 8007ce4:	61bb      	str	r3, [r7, #24]
 8007ce6:	e00b      	b.n	8007d00 <SEGGER_SYSVIEW_SendTaskInfo+0x190>
 8007ce8:	69bb      	ldr	r3, [r7, #24]
 8007cea:	b2da      	uxtb	r2, r3
 8007cec:	69fb      	ldr	r3, [r7, #28]
 8007cee:	1c59      	adds	r1, r3, #1
 8007cf0:	61f9      	str	r1, [r7, #28]
 8007cf2:	f062 027f 	orn	r2, r2, #127	; 0x7f
 8007cf6:	b2d2      	uxtb	r2, r2
 8007cf8:	701a      	strb	r2, [r3, #0]
 8007cfa:	69bb      	ldr	r3, [r7, #24]
 8007cfc:	09db      	lsrs	r3, r3, #7
 8007cfe:	61bb      	str	r3, [r7, #24]
 8007d00:	69bb      	ldr	r3, [r7, #24]
 8007d02:	2b7f      	cmp	r3, #127	; 0x7f
 8007d04:	d8f0      	bhi.n	8007ce8 <SEGGER_SYSVIEW_SendTaskInfo+0x178>
 8007d06:	69fb      	ldr	r3, [r7, #28]
 8007d08:	1c5a      	adds	r2, r3, #1
 8007d0a:	61fa      	str	r2, [r7, #28]
 8007d0c:	69ba      	ldr	r2, [r7, #24]
 8007d0e:	b2d2      	uxtb	r2, r2
 8007d10:	701a      	strb	r2, [r3, #0]
 8007d12:	69fb      	ldr	r3, [r7, #28]
 8007d14:	60fb      	str	r3, [r7, #12]
  _SendPacket(pPayloadStart, pPayload, SYSVIEW_EVTID_STACK_INFO);
 8007d16:	2215      	movs	r2, #21
 8007d18:	68f9      	ldr	r1, [r7, #12]
 8007d1a:	6938      	ldr	r0, [r7, #16]
 8007d1c:	f7ff fb9e 	bl	800745c <_SendPacket>
  RECORD_END();
 8007d20:	697b      	ldr	r3, [r7, #20]
 8007d22:	f383 8811 	msr	BASEPRI, r3
}
 8007d26:	bf00      	nop
 8007d28:	3748      	adds	r7, #72	; 0x48
 8007d2a:	46bd      	mov	sp, r7
 8007d2c:	bd80      	pop	{r7, pc}
 8007d2e:	bf00      	nop
 8007d30:	200020bc 	.word	0x200020bc
 8007d34:	2000208c 	.word	0x2000208c

08007d38 <SEGGER_SYSVIEW_SendTaskList>:
*       SEGGER_SYSVIEW_SendTaskList()
*
*  Function description
*    Send all tasks descriptors to the host.
*/
void SEGGER_SYSVIEW_SendTaskList(void) {
 8007d38:	b580      	push	{r7, lr}
 8007d3a:	af00      	add	r7, sp, #0
  if (_SYSVIEW_Globals.pOSAPI && _SYSVIEW_Globals.pOSAPI->pfSendTaskList) {
 8007d3c:	4b07      	ldr	r3, [pc, #28]	; (8007d5c <SEGGER_SYSVIEW_SendTaskList+0x24>)
 8007d3e:	6a1b      	ldr	r3, [r3, #32]
 8007d40:	2b00      	cmp	r3, #0
 8007d42:	d008      	beq.n	8007d56 <SEGGER_SYSVIEW_SendTaskList+0x1e>
 8007d44:	4b05      	ldr	r3, [pc, #20]	; (8007d5c <SEGGER_SYSVIEW_SendTaskList+0x24>)
 8007d46:	6a1b      	ldr	r3, [r3, #32]
 8007d48:	685b      	ldr	r3, [r3, #4]
 8007d4a:	2b00      	cmp	r3, #0
 8007d4c:	d003      	beq.n	8007d56 <SEGGER_SYSVIEW_SendTaskList+0x1e>
    _SYSVIEW_Globals.pOSAPI->pfSendTaskList();
 8007d4e:	4b03      	ldr	r3, [pc, #12]	; (8007d5c <SEGGER_SYSVIEW_SendTaskList+0x24>)
 8007d50:	6a1b      	ldr	r3, [r3, #32]
 8007d52:	685b      	ldr	r3, [r3, #4]
 8007d54:	4798      	blx	r3
  }
}
 8007d56:	bf00      	nop
 8007d58:	bd80      	pop	{r7, pc}
 8007d5a:	bf00      	nop
 8007d5c:	2000208c 	.word	0x2000208c

08007d60 <SEGGER_SYSVIEW_RecordSystime>:
*
*  Function description
*    Formats and sends a SystemView Systime containing a single U64 or U32
*    parameter payload.
*/
void SEGGER_SYSVIEW_RecordSystime(void) {
 8007d60:	b590      	push	{r4, r7, lr}
 8007d62:	b083      	sub	sp, #12
 8007d64:	af00      	add	r7, sp, #0
  U64 Systime;

  if (_SYSVIEW_Globals.pOSAPI && _SYSVIEW_Globals.pOSAPI->pfGetTime) {
 8007d66:	4b14      	ldr	r3, [pc, #80]	; (8007db8 <SEGGER_SYSVIEW_RecordSystime+0x58>)
 8007d68:	6a1b      	ldr	r3, [r3, #32]
 8007d6a:	2b00      	cmp	r3, #0
 8007d6c:	d019      	beq.n	8007da2 <SEGGER_SYSVIEW_RecordSystime+0x42>
 8007d6e:	4b12      	ldr	r3, [pc, #72]	; (8007db8 <SEGGER_SYSVIEW_RecordSystime+0x58>)
 8007d70:	6a1b      	ldr	r3, [r3, #32]
 8007d72:	681b      	ldr	r3, [r3, #0]
 8007d74:	2b00      	cmp	r3, #0
 8007d76:	d014      	beq.n	8007da2 <SEGGER_SYSVIEW_RecordSystime+0x42>
    Systime = _SYSVIEW_Globals.pOSAPI->pfGetTime();
 8007d78:	4b0f      	ldr	r3, [pc, #60]	; (8007db8 <SEGGER_SYSVIEW_RecordSystime+0x58>)
 8007d7a:	6a1b      	ldr	r3, [r3, #32]
 8007d7c:	681b      	ldr	r3, [r3, #0]
 8007d7e:	4798      	blx	r3
 8007d80:	e9c7 0100 	strd	r0, r1, [r7]
    SEGGER_SYSVIEW_RecordU32x2(SYSVIEW_EVTID_SYSTIME_US,
 8007d84:	6838      	ldr	r0, [r7, #0]
                               (U32)(Systime),
                               (U32)(Systime >> 32));
 8007d86:	e9d7 1200 	ldrd	r1, r2, [r7]
 8007d8a:	f04f 0300 	mov.w	r3, #0
 8007d8e:	f04f 0400 	mov.w	r4, #0
 8007d92:	0013      	movs	r3, r2
 8007d94:	2400      	movs	r4, #0
    SEGGER_SYSVIEW_RecordU32x2(SYSVIEW_EVTID_SYSTIME_US,
 8007d96:	461a      	mov	r2, r3
 8007d98:	4601      	mov	r1, r0
 8007d9a:	200d      	movs	r0, #13
 8007d9c:	f7ff fc9e 	bl	80076dc <SEGGER_SYSVIEW_RecordU32x2>
 8007da0:	e005      	b.n	8007dae <SEGGER_SYSVIEW_RecordSystime+0x4e>
  } else {
    SEGGER_SYSVIEW_RecordU32(SYSVIEW_EVTID_SYSTIME_CYCLES, SEGGER_SYSVIEW_GET_TIMESTAMP());
 8007da2:	4b06      	ldr	r3, [pc, #24]	; (8007dbc <SEGGER_SYSVIEW_RecordSystime+0x5c>)
 8007da4:	681b      	ldr	r3, [r3, #0]
 8007da6:	4619      	mov	r1, r3
 8007da8:	200c      	movs	r0, #12
 8007daa:	f7ff fc5b 	bl	8007664 <SEGGER_SYSVIEW_RecordU32>
  }
}
 8007dae:	bf00      	nop
 8007db0:	370c      	adds	r7, #12
 8007db2:	46bd      	mov	sp, r7
 8007db4:	bd90      	pop	{r4, r7, pc}
 8007db6:	bf00      	nop
 8007db8:	2000208c 	.word	0x2000208c
 8007dbc:	e0001004 	.word	0xe0001004

08007dc0 <SEGGER_SYSVIEW_RecordEnterISR>:
*
*  Additional information
*    Example packets sent
*      02 0F 50              // ISR(15) Enter. Timestamp is 80 (0x50)
*/
void SEGGER_SYSVIEW_RecordEnterISR(void) {
 8007dc0:	b580      	push	{r7, lr}
 8007dc2:	b086      	sub	sp, #24
 8007dc4:	af00      	add	r7, sp, #0
  unsigned v;
  U8* pPayload;
  U8* pPayloadStart;
  RECORD_START(SEGGER_SYSVIEW_INFO_SIZE + SEGGER_SYSVIEW_QUANTA_U32);
 8007dc6:	f3ef 8311 	mrs	r3, BASEPRI
 8007dca:	f04f 0120 	mov.w	r1, #32
 8007dce:	f381 8811 	msr	BASEPRI, r1
 8007dd2:	60fb      	str	r3, [r7, #12]
 8007dd4:	4819      	ldr	r0, [pc, #100]	; (8007e3c <SEGGER_SYSVIEW_RecordEnterISR+0x7c>)
 8007dd6:	f7ff fa57 	bl	8007288 <_PreparePacket>
 8007dda:	60b8      	str	r0, [r7, #8]
  //
  pPayload = pPayloadStart;
 8007ddc:	68bb      	ldr	r3, [r7, #8]
 8007dde:	607b      	str	r3, [r7, #4]
  v = SEGGER_SYSVIEW_GET_INTERRUPT_ID();
 8007de0:	4b17      	ldr	r3, [pc, #92]	; (8007e40 <SEGGER_SYSVIEW_RecordEnterISR+0x80>)
 8007de2:	681b      	ldr	r3, [r3, #0]
 8007de4:	f3c3 0308 	ubfx	r3, r3, #0, #9
 8007de8:	603b      	str	r3, [r7, #0]
  ENCODE_U32(pPayload, v);
 8007dea:	687b      	ldr	r3, [r7, #4]
 8007dec:	617b      	str	r3, [r7, #20]
 8007dee:	683b      	ldr	r3, [r7, #0]
 8007df0:	613b      	str	r3, [r7, #16]
 8007df2:	e00b      	b.n	8007e0c <SEGGER_SYSVIEW_RecordEnterISR+0x4c>
 8007df4:	693b      	ldr	r3, [r7, #16]
 8007df6:	b2da      	uxtb	r2, r3
 8007df8:	697b      	ldr	r3, [r7, #20]
 8007dfa:	1c59      	adds	r1, r3, #1
 8007dfc:	6179      	str	r1, [r7, #20]
 8007dfe:	f062 027f 	orn	r2, r2, #127	; 0x7f
 8007e02:	b2d2      	uxtb	r2, r2
 8007e04:	701a      	strb	r2, [r3, #0]
 8007e06:	693b      	ldr	r3, [r7, #16]
 8007e08:	09db      	lsrs	r3, r3, #7
 8007e0a:	613b      	str	r3, [r7, #16]
 8007e0c:	693b      	ldr	r3, [r7, #16]
 8007e0e:	2b7f      	cmp	r3, #127	; 0x7f
 8007e10:	d8f0      	bhi.n	8007df4 <SEGGER_SYSVIEW_RecordEnterISR+0x34>
 8007e12:	697b      	ldr	r3, [r7, #20]
 8007e14:	1c5a      	adds	r2, r3, #1
 8007e16:	617a      	str	r2, [r7, #20]
 8007e18:	693a      	ldr	r2, [r7, #16]
 8007e1a:	b2d2      	uxtb	r2, r2
 8007e1c:	701a      	strb	r2, [r3, #0]
 8007e1e:	697b      	ldr	r3, [r7, #20]
 8007e20:	607b      	str	r3, [r7, #4]
  _SendPacket(pPayloadStart, pPayload, SYSVIEW_EVTID_ISR_ENTER);
 8007e22:	2202      	movs	r2, #2
 8007e24:	6879      	ldr	r1, [r7, #4]
 8007e26:	68b8      	ldr	r0, [r7, #8]
 8007e28:	f7ff fb18 	bl	800745c <_SendPacket>
  RECORD_END();
 8007e2c:	68fb      	ldr	r3, [r7, #12]
 8007e2e:	f383 8811 	msr	BASEPRI, r3
}
 8007e32:	bf00      	nop
 8007e34:	3718      	adds	r7, #24
 8007e36:	46bd      	mov	sp, r7
 8007e38:	bd80      	pop	{r7, pc}
 8007e3a:	bf00      	nop
 8007e3c:	200020bc 	.word	0x200020bc
 8007e40:	e000ed04 	.word	0xe000ed04

08007e44 <SEGGER_SYSVIEW_RecordExitISR>:
*      03 <TimeStamp>        // Max. packet len is 6
*
*    Example packets sent
*      03 20                // ISR Exit. Timestamp is 32 (0x20)
*/
void SEGGER_SYSVIEW_RecordExitISR(void) {
 8007e44:	b580      	push	{r7, lr}
 8007e46:	b082      	sub	sp, #8
 8007e48:	af00      	add	r7, sp, #0
  U8* pPayloadStart;
  RECORD_START(SEGGER_SYSVIEW_INFO_SIZE);
 8007e4a:	f3ef 8311 	mrs	r3, BASEPRI
 8007e4e:	f04f 0120 	mov.w	r1, #32
 8007e52:	f381 8811 	msr	BASEPRI, r1
 8007e56:	607b      	str	r3, [r7, #4]
 8007e58:	4807      	ldr	r0, [pc, #28]	; (8007e78 <SEGGER_SYSVIEW_RecordExitISR+0x34>)
 8007e5a:	f7ff fa15 	bl	8007288 <_PreparePacket>
 8007e5e:	6038      	str	r0, [r7, #0]
  //
  _SendPacket(pPayloadStart, pPayloadStart, SYSVIEW_EVTID_ISR_EXIT);
 8007e60:	2203      	movs	r2, #3
 8007e62:	6839      	ldr	r1, [r7, #0]
 8007e64:	6838      	ldr	r0, [r7, #0]
 8007e66:	f7ff faf9 	bl	800745c <_SendPacket>
  RECORD_END();
 8007e6a:	687b      	ldr	r3, [r7, #4]
 8007e6c:	f383 8811 	msr	BASEPRI, r3
}
 8007e70:	bf00      	nop
 8007e72:	3708      	adds	r7, #8
 8007e74:	46bd      	mov	sp, r7
 8007e76:	bd80      	pop	{r7, pc}
 8007e78:	200020bc 	.word	0x200020bc

08007e7c <SEGGER_SYSVIEW_RecordExitISRToScheduler>:
*      18 <TimeStamp>        // Max. packet len is 6
*
*    Example packets sent
*      18 20                // ISR Exit to Scheduler. Timestamp is 32 (0x20)
*/
void SEGGER_SYSVIEW_RecordExitISRToScheduler(void) {
 8007e7c:	b580      	push	{r7, lr}
 8007e7e:	b082      	sub	sp, #8
 8007e80:	af00      	add	r7, sp, #0
  U8* pPayloadStart;
  RECORD_START(SEGGER_SYSVIEW_INFO_SIZE);
 8007e82:	f3ef 8311 	mrs	r3, BASEPRI
 8007e86:	f04f 0120 	mov.w	r1, #32
 8007e8a:	f381 8811 	msr	BASEPRI, r1
 8007e8e:	607b      	str	r3, [r7, #4]
 8007e90:	4807      	ldr	r0, [pc, #28]	; (8007eb0 <SEGGER_SYSVIEW_RecordExitISRToScheduler+0x34>)
 8007e92:	f7ff f9f9 	bl	8007288 <_PreparePacket>
 8007e96:	6038      	str	r0, [r7, #0]
  //
  _SendPacket(pPayloadStart, pPayloadStart, SYSVIEW_EVTID_ISR_TO_SCHEDULER);
 8007e98:	2212      	movs	r2, #18
 8007e9a:	6839      	ldr	r1, [r7, #0]
 8007e9c:	6838      	ldr	r0, [r7, #0]
 8007e9e:	f7ff fadd 	bl	800745c <_SendPacket>
  RECORD_END();
 8007ea2:	687b      	ldr	r3, [r7, #4]
 8007ea4:	f383 8811 	msr	BASEPRI, r3
}
 8007ea8:	bf00      	nop
 8007eaa:	3708      	adds	r7, #8
 8007eac:	46bd      	mov	sp, r7
 8007eae:	bd80      	pop	{r7, pc}
 8007eb0:	200020bc 	.word	0x200020bc

08007eb4 <SEGGER_SYSVIEW_OnIdle>:
*       SEGGER_SYSVIEW_OnIdle()
*
*  Function description
*    Record an Idle event.
*/
void SEGGER_SYSVIEW_OnIdle(void) {
 8007eb4:	b580      	push	{r7, lr}
 8007eb6:	b082      	sub	sp, #8
 8007eb8:	af00      	add	r7, sp, #0
  U8* pPayloadStart;
  RECORD_START(SEGGER_SYSVIEW_INFO_SIZE);
 8007eba:	f3ef 8311 	mrs	r3, BASEPRI
 8007ebe:	f04f 0120 	mov.w	r1, #32
 8007ec2:	f381 8811 	msr	BASEPRI, r1
 8007ec6:	607b      	str	r3, [r7, #4]
 8007ec8:	4807      	ldr	r0, [pc, #28]	; (8007ee8 <SEGGER_SYSVIEW_OnIdle+0x34>)
 8007eca:	f7ff f9dd 	bl	8007288 <_PreparePacket>
 8007ece:	6038      	str	r0, [r7, #0]
  //
  _SendPacket(pPayloadStart, pPayloadStart, SYSVIEW_EVTID_IDLE);
 8007ed0:	2211      	movs	r2, #17
 8007ed2:	6839      	ldr	r1, [r7, #0]
 8007ed4:	6838      	ldr	r0, [r7, #0]
 8007ed6:	f7ff fac1 	bl	800745c <_SendPacket>
  RECORD_END();
 8007eda:	687b      	ldr	r3, [r7, #4]
 8007edc:	f383 8811 	msr	BASEPRI, r3
}
 8007ee0:	bf00      	nop
 8007ee2:	3708      	adds	r7, #8
 8007ee4:	46bd      	mov	sp, r7
 8007ee6:	bd80      	pop	{r7, pc}
 8007ee8:	200020bc 	.word	0x200020bc

08007eec <SEGGER_SYSVIEW_OnTaskCreate>:
*    to creating a task in the OS.
*
*  Parameters
*    TaskId        - Task ID of created task.
*/
void SEGGER_SYSVIEW_OnTaskCreate(U32 TaskId) {
 8007eec:	b580      	push	{r7, lr}
 8007eee:	b088      	sub	sp, #32
 8007ef0:	af00      	add	r7, sp, #0
 8007ef2:	6078      	str	r0, [r7, #4]
  U8* pPayload;
  U8* pPayloadStart;
  RECORD_START(SEGGER_SYSVIEW_INFO_SIZE + SEGGER_SYSVIEW_QUANTA_U32);
 8007ef4:	f3ef 8311 	mrs	r3, BASEPRI
 8007ef8:	f04f 0120 	mov.w	r1, #32
 8007efc:	f381 8811 	msr	BASEPRI, r1
 8007f00:	617b      	str	r3, [r7, #20]
 8007f02:	4819      	ldr	r0, [pc, #100]	; (8007f68 <SEGGER_SYSVIEW_OnTaskCreate+0x7c>)
 8007f04:	f7ff f9c0 	bl	8007288 <_PreparePacket>
 8007f08:	6138      	str	r0, [r7, #16]
  //
  pPayload = pPayloadStart;
 8007f0a:	693b      	ldr	r3, [r7, #16]
 8007f0c:	60fb      	str	r3, [r7, #12]
  TaskId = SHRINK_ID(TaskId);
 8007f0e:	4b17      	ldr	r3, [pc, #92]	; (8007f6c <SEGGER_SYSVIEW_OnTaskCreate+0x80>)
 8007f10:	691b      	ldr	r3, [r3, #16]
 8007f12:	687a      	ldr	r2, [r7, #4]
 8007f14:	1ad3      	subs	r3, r2, r3
 8007f16:	607b      	str	r3, [r7, #4]
  ENCODE_U32(pPayload, TaskId);
 8007f18:	68fb      	ldr	r3, [r7, #12]
 8007f1a:	61fb      	str	r3, [r7, #28]
 8007f1c:	687b      	ldr	r3, [r7, #4]
 8007f1e:	61bb      	str	r3, [r7, #24]
 8007f20:	e00b      	b.n	8007f3a <SEGGER_SYSVIEW_OnTaskCreate+0x4e>
 8007f22:	69bb      	ldr	r3, [r7, #24]
 8007f24:	b2da      	uxtb	r2, r3
 8007f26:	69fb      	ldr	r3, [r7, #28]
 8007f28:	1c59      	adds	r1, r3, #1
 8007f2a:	61f9      	str	r1, [r7, #28]
 8007f2c:	f062 027f 	orn	r2, r2, #127	; 0x7f
 8007f30:	b2d2      	uxtb	r2, r2
 8007f32:	701a      	strb	r2, [r3, #0]
 8007f34:	69bb      	ldr	r3, [r7, #24]
 8007f36:	09db      	lsrs	r3, r3, #7
 8007f38:	61bb      	str	r3, [r7, #24]
 8007f3a:	69bb      	ldr	r3, [r7, #24]
 8007f3c:	2b7f      	cmp	r3, #127	; 0x7f
 8007f3e:	d8f0      	bhi.n	8007f22 <SEGGER_SYSVIEW_OnTaskCreate+0x36>
 8007f40:	69fb      	ldr	r3, [r7, #28]
 8007f42:	1c5a      	adds	r2, r3, #1
 8007f44:	61fa      	str	r2, [r7, #28]
 8007f46:	69ba      	ldr	r2, [r7, #24]
 8007f48:	b2d2      	uxtb	r2, r2
 8007f4a:	701a      	strb	r2, [r3, #0]
 8007f4c:	69fb      	ldr	r3, [r7, #28]
 8007f4e:	60fb      	str	r3, [r7, #12]
  _SendPacket(pPayloadStart, pPayload, SYSVIEW_EVTID_TASK_CREATE);
 8007f50:	2208      	movs	r2, #8
 8007f52:	68f9      	ldr	r1, [r7, #12]
 8007f54:	6938      	ldr	r0, [r7, #16]
 8007f56:	f7ff fa81 	bl	800745c <_SendPacket>
  RECORD_END();
 8007f5a:	697b      	ldr	r3, [r7, #20]
 8007f5c:	f383 8811 	msr	BASEPRI, r3
}
 8007f60:	bf00      	nop
 8007f62:	3720      	adds	r7, #32
 8007f64:	46bd      	mov	sp, r7
 8007f66:	bd80      	pop	{r7, pc}
 8007f68:	200020bc 	.word	0x200020bc
 8007f6c:	2000208c 	.word	0x2000208c

08007f70 <SEGGER_SYSVIEW_OnTaskStartExec>:
*    when it is ready to execute.
*
*  Parameters
*    TaskId - Task ID of task that started to execute.
*/
void SEGGER_SYSVIEW_OnTaskStartExec(U32 TaskId) {
 8007f70:	b580      	push	{r7, lr}
 8007f72:	b088      	sub	sp, #32
 8007f74:	af00      	add	r7, sp, #0
 8007f76:	6078      	str	r0, [r7, #4]
  U8* pPayload;
  U8* pPayloadStart;
  RECORD_START(SEGGER_SYSVIEW_INFO_SIZE + SEGGER_SYSVIEW_QUANTA_U32);
 8007f78:	f3ef 8311 	mrs	r3, BASEPRI
 8007f7c:	f04f 0120 	mov.w	r1, #32
 8007f80:	f381 8811 	msr	BASEPRI, r1
 8007f84:	617b      	str	r3, [r7, #20]
 8007f86:	4819      	ldr	r0, [pc, #100]	; (8007fec <SEGGER_SYSVIEW_OnTaskStartExec+0x7c>)
 8007f88:	f7ff f97e 	bl	8007288 <_PreparePacket>
 8007f8c:	6138      	str	r0, [r7, #16]
  //
  pPayload = pPayloadStart;
 8007f8e:	693b      	ldr	r3, [r7, #16]
 8007f90:	60fb      	str	r3, [r7, #12]
  TaskId = SHRINK_ID(TaskId);
 8007f92:	4b17      	ldr	r3, [pc, #92]	; (8007ff0 <SEGGER_SYSVIEW_OnTaskStartExec+0x80>)
 8007f94:	691b      	ldr	r3, [r3, #16]
 8007f96:	687a      	ldr	r2, [r7, #4]
 8007f98:	1ad3      	subs	r3, r2, r3
 8007f9a:	607b      	str	r3, [r7, #4]
  ENCODE_U32(pPayload, TaskId);
 8007f9c:	68fb      	ldr	r3, [r7, #12]
 8007f9e:	61fb      	str	r3, [r7, #28]
 8007fa0:	687b      	ldr	r3, [r7, #4]
 8007fa2:	61bb      	str	r3, [r7, #24]
 8007fa4:	e00b      	b.n	8007fbe <SEGGER_SYSVIEW_OnTaskStartExec+0x4e>
 8007fa6:	69bb      	ldr	r3, [r7, #24]
 8007fa8:	b2da      	uxtb	r2, r3
 8007faa:	69fb      	ldr	r3, [r7, #28]
 8007fac:	1c59      	adds	r1, r3, #1
 8007fae:	61f9      	str	r1, [r7, #28]
 8007fb0:	f062 027f 	orn	r2, r2, #127	; 0x7f
 8007fb4:	b2d2      	uxtb	r2, r2
 8007fb6:	701a      	strb	r2, [r3, #0]
 8007fb8:	69bb      	ldr	r3, [r7, #24]
 8007fba:	09db      	lsrs	r3, r3, #7
 8007fbc:	61bb      	str	r3, [r7, #24]
 8007fbe:	69bb      	ldr	r3, [r7, #24]
 8007fc0:	2b7f      	cmp	r3, #127	; 0x7f
 8007fc2:	d8f0      	bhi.n	8007fa6 <SEGGER_SYSVIEW_OnTaskStartExec+0x36>
 8007fc4:	69fb      	ldr	r3, [r7, #28]
 8007fc6:	1c5a      	adds	r2, r3, #1
 8007fc8:	61fa      	str	r2, [r7, #28]
 8007fca:	69ba      	ldr	r2, [r7, #24]
 8007fcc:	b2d2      	uxtb	r2, r2
 8007fce:	701a      	strb	r2, [r3, #0]
 8007fd0:	69fb      	ldr	r3, [r7, #28]
 8007fd2:	60fb      	str	r3, [r7, #12]
  _SendPacket(pPayloadStart, pPayload, SYSVIEW_EVTID_TASK_START_EXEC);
 8007fd4:	2204      	movs	r2, #4
 8007fd6:	68f9      	ldr	r1, [r7, #12]
 8007fd8:	6938      	ldr	r0, [r7, #16]
 8007fda:	f7ff fa3f 	bl	800745c <_SendPacket>
  RECORD_END();
 8007fde:	697b      	ldr	r3, [r7, #20]
 8007fe0:	f383 8811 	msr	BASEPRI, r3
}
 8007fe4:	bf00      	nop
 8007fe6:	3720      	adds	r7, #32
 8007fe8:	46bd      	mov	sp, r7
 8007fea:	bd80      	pop	{r7, pc}
 8007fec:	200020bc 	.word	0x200020bc
 8007ff0:	2000208c 	.word	0x2000208c

08007ff4 <SEGGER_SYSVIEW_OnTaskStartReady>:
*    Record a Task Start Ready event.
*
*  Parameters
*    TaskId - Task ID of task that started to execute.
*/
void SEGGER_SYSVIEW_OnTaskStartReady(U32 TaskId) {
 8007ff4:	b580      	push	{r7, lr}
 8007ff6:	b088      	sub	sp, #32
 8007ff8:	af00      	add	r7, sp, #0
 8007ffa:	6078      	str	r0, [r7, #4]
  U8* pPayload;
  U8* pPayloadStart;
  RECORD_START(SEGGER_SYSVIEW_INFO_SIZE + SEGGER_SYSVIEW_QUANTA_U32);
 8007ffc:	f3ef 8311 	mrs	r3, BASEPRI
 8008000:	f04f 0120 	mov.w	r1, #32
 8008004:	f381 8811 	msr	BASEPRI, r1
 8008008:	617b      	str	r3, [r7, #20]
 800800a:	4819      	ldr	r0, [pc, #100]	; (8008070 <SEGGER_SYSVIEW_OnTaskStartReady+0x7c>)
 800800c:	f7ff f93c 	bl	8007288 <_PreparePacket>
 8008010:	6138      	str	r0, [r7, #16]
  //
  pPayload = pPayloadStart;
 8008012:	693b      	ldr	r3, [r7, #16]
 8008014:	60fb      	str	r3, [r7, #12]
  TaskId = SHRINK_ID(TaskId);
 8008016:	4b17      	ldr	r3, [pc, #92]	; (8008074 <SEGGER_SYSVIEW_OnTaskStartReady+0x80>)
 8008018:	691b      	ldr	r3, [r3, #16]
 800801a:	687a      	ldr	r2, [r7, #4]
 800801c:	1ad3      	subs	r3, r2, r3
 800801e:	607b      	str	r3, [r7, #4]
  ENCODE_U32(pPayload, TaskId);
 8008020:	68fb      	ldr	r3, [r7, #12]
 8008022:	61fb      	str	r3, [r7, #28]
 8008024:	687b      	ldr	r3, [r7, #4]
 8008026:	61bb      	str	r3, [r7, #24]
 8008028:	e00b      	b.n	8008042 <SEGGER_SYSVIEW_OnTaskStartReady+0x4e>
 800802a:	69bb      	ldr	r3, [r7, #24]
 800802c:	b2da      	uxtb	r2, r3
 800802e:	69fb      	ldr	r3, [r7, #28]
 8008030:	1c59      	adds	r1, r3, #1
 8008032:	61f9      	str	r1, [r7, #28]
 8008034:	f062 027f 	orn	r2, r2, #127	; 0x7f
 8008038:	b2d2      	uxtb	r2, r2
 800803a:	701a      	strb	r2, [r3, #0]
 800803c:	69bb      	ldr	r3, [r7, #24]
 800803e:	09db      	lsrs	r3, r3, #7
 8008040:	61bb      	str	r3, [r7, #24]
 8008042:	69bb      	ldr	r3, [r7, #24]
 8008044:	2b7f      	cmp	r3, #127	; 0x7f
 8008046:	d8f0      	bhi.n	800802a <SEGGER_SYSVIEW_OnTaskStartReady+0x36>
 8008048:	69fb      	ldr	r3, [r7, #28]
 800804a:	1c5a      	adds	r2, r3, #1
 800804c:	61fa      	str	r2, [r7, #28]
 800804e:	69ba      	ldr	r2, [r7, #24]
 8008050:	b2d2      	uxtb	r2, r2
 8008052:	701a      	strb	r2, [r3, #0]
 8008054:	69fb      	ldr	r3, [r7, #28]
 8008056:	60fb      	str	r3, [r7, #12]
  _SendPacket(pPayloadStart, pPayload, SYSVIEW_EVTID_TASK_START_READY);
 8008058:	2206      	movs	r2, #6
 800805a:	68f9      	ldr	r1, [r7, #12]
 800805c:	6938      	ldr	r0, [r7, #16]
 800805e:	f7ff f9fd 	bl	800745c <_SendPacket>
  RECORD_END();
 8008062:	697b      	ldr	r3, [r7, #20]
 8008064:	f383 8811 	msr	BASEPRI, r3
}
 8008068:	bf00      	nop
 800806a:	3720      	adds	r7, #32
 800806c:	46bd      	mov	sp, r7
 800806e:	bd80      	pop	{r7, pc}
 8008070:	200020bc 	.word	0x200020bc
 8008074:	2000208c 	.word	0x2000208c

08008078 <SEGGER_SYSVIEW_OnTaskStopReady>:
*
*  Parameters
*    TaskId - Task ID of task that completed execution.
*    Cause  - Reason for task to stop (i.e. Idle/Sleep)
*/
void SEGGER_SYSVIEW_OnTaskStopReady(U32 TaskId, unsigned int Cause) {
 8008078:	b580      	push	{r7, lr}
 800807a:	b08a      	sub	sp, #40	; 0x28
 800807c:	af00      	add	r7, sp, #0
 800807e:	6078      	str	r0, [r7, #4]
 8008080:	6039      	str	r1, [r7, #0]
  U8* pPayload;
  U8* pPayloadStart;
  RECORD_START(SEGGER_SYSVIEW_INFO_SIZE + 2 * SEGGER_SYSVIEW_QUANTA_U32);
 8008082:	f3ef 8311 	mrs	r3, BASEPRI
 8008086:	f04f 0120 	mov.w	r1, #32
 800808a:	f381 8811 	msr	BASEPRI, r1
 800808e:	617b      	str	r3, [r7, #20]
 8008090:	4827      	ldr	r0, [pc, #156]	; (8008130 <SEGGER_SYSVIEW_OnTaskStopReady+0xb8>)
 8008092:	f7ff f8f9 	bl	8007288 <_PreparePacket>
 8008096:	6138      	str	r0, [r7, #16]
  //
  pPayload = pPayloadStart;
 8008098:	693b      	ldr	r3, [r7, #16]
 800809a:	60fb      	str	r3, [r7, #12]
  TaskId = SHRINK_ID(TaskId);
 800809c:	4b25      	ldr	r3, [pc, #148]	; (8008134 <SEGGER_SYSVIEW_OnTaskStopReady+0xbc>)
 800809e:	691b      	ldr	r3, [r3, #16]
 80080a0:	687a      	ldr	r2, [r7, #4]
 80080a2:	1ad3      	subs	r3, r2, r3
 80080a4:	607b      	str	r3, [r7, #4]
  ENCODE_U32(pPayload, TaskId);
 80080a6:	68fb      	ldr	r3, [r7, #12]
 80080a8:	627b      	str	r3, [r7, #36]	; 0x24
 80080aa:	687b      	ldr	r3, [r7, #4]
 80080ac:	623b      	str	r3, [r7, #32]
 80080ae:	e00b      	b.n	80080c8 <SEGGER_SYSVIEW_OnTaskStopReady+0x50>
 80080b0:	6a3b      	ldr	r3, [r7, #32]
 80080b2:	b2da      	uxtb	r2, r3
 80080b4:	6a7b      	ldr	r3, [r7, #36]	; 0x24
 80080b6:	1c59      	adds	r1, r3, #1
 80080b8:	6279      	str	r1, [r7, #36]	; 0x24
 80080ba:	f062 027f 	orn	r2, r2, #127	; 0x7f
 80080be:	b2d2      	uxtb	r2, r2
 80080c0:	701a      	strb	r2, [r3, #0]
 80080c2:	6a3b      	ldr	r3, [r7, #32]
 80080c4:	09db      	lsrs	r3, r3, #7
 80080c6:	623b      	str	r3, [r7, #32]
 80080c8:	6a3b      	ldr	r3, [r7, #32]
 80080ca:	2b7f      	cmp	r3, #127	; 0x7f
 80080cc:	d8f0      	bhi.n	80080b0 <SEGGER_SYSVIEW_OnTaskStopReady+0x38>
 80080ce:	6a7b      	ldr	r3, [r7, #36]	; 0x24
 80080d0:	1c5a      	adds	r2, r3, #1
 80080d2:	627a      	str	r2, [r7, #36]	; 0x24
 80080d4:	6a3a      	ldr	r2, [r7, #32]
 80080d6:	b2d2      	uxtb	r2, r2
 80080d8:	701a      	strb	r2, [r3, #0]
 80080da:	6a7b      	ldr	r3, [r7, #36]	; 0x24
 80080dc:	60fb      	str	r3, [r7, #12]
  ENCODE_U32(pPayload, Cause);
 80080de:	68fb      	ldr	r3, [r7, #12]
 80080e0:	61fb      	str	r3, [r7, #28]
 80080e2:	683b      	ldr	r3, [r7, #0]
 80080e4:	61bb      	str	r3, [r7, #24]
 80080e6:	e00b      	b.n	8008100 <SEGGER_SYSVIEW_OnTaskStopReady+0x88>
 80080e8:	69bb      	ldr	r3, [r7, #24]
 80080ea:	b2da      	uxtb	r2, r3
 80080ec:	69fb      	ldr	r3, [r7, #28]
 80080ee:	1c59      	adds	r1, r3, #1
 80080f0:	61f9      	str	r1, [r7, #28]
 80080f2:	f062 027f 	orn	r2, r2, #127	; 0x7f
 80080f6:	b2d2      	uxtb	r2, r2
 80080f8:	701a      	strb	r2, [r3, #0]
 80080fa:	69bb      	ldr	r3, [r7, #24]
 80080fc:	09db      	lsrs	r3, r3, #7
 80080fe:	61bb      	str	r3, [r7, #24]
 8008100:	69bb      	ldr	r3, [r7, #24]
 8008102:	2b7f      	cmp	r3, #127	; 0x7f
 8008104:	d8f0      	bhi.n	80080e8 <SEGGER_SYSVIEW_OnTaskStopReady+0x70>
 8008106:	69fb      	ldr	r3, [r7, #28]
 8008108:	1c5a      	adds	r2, r3, #1
 800810a:	61fa      	str	r2, [r7, #28]
 800810c:	69ba      	ldr	r2, [r7, #24]
 800810e:	b2d2      	uxtb	r2, r2
 8008110:	701a      	strb	r2, [r3, #0]
 8008112:	69fb      	ldr	r3, [r7, #28]
 8008114:	60fb      	str	r3, [r7, #12]
  _SendPacket(pPayloadStart, pPayload, SYSVIEW_EVTID_TASK_STOP_READY);
 8008116:	2207      	movs	r2, #7
 8008118:	68f9      	ldr	r1, [r7, #12]
 800811a:	6938      	ldr	r0, [r7, #16]
 800811c:	f7ff f99e 	bl	800745c <_SendPacket>
  RECORD_END();
 8008120:	697b      	ldr	r3, [r7, #20]
 8008122:	f383 8811 	msr	BASEPRI, r3
}
 8008126:	bf00      	nop
 8008128:	3728      	adds	r7, #40	; 0x28
 800812a:	46bd      	mov	sp, r7
 800812c:	bd80      	pop	{r7, pc}
 800812e:	bf00      	nop
 8008130:	200020bc 	.word	0x200020bc
 8008134:	2000208c 	.word	0x2000208c

08008138 <SEGGER_SYSVIEW_ShrinkId>:
*     SEGGER_SYSVIEW_ID_BASE: Lowest Id reported by the application.
*       (i.e. 0x20000000 when all Ids are an address in this RAM)
*     SEGGER_SYSVIEW_ID_SHIFT: Number of bits to shift the Id to
*       save bandwidth. (i.e. 2 when Ids are 4 byte aligned)
*/
U32 SEGGER_SYSVIEW_ShrinkId(U32 Id) {
 8008138:	b480      	push	{r7}
 800813a:	b083      	sub	sp, #12
 800813c:	af00      	add	r7, sp, #0
 800813e:	6078      	str	r0, [r7, #4]
  return SHRINK_ID(Id);
 8008140:	4b04      	ldr	r3, [pc, #16]	; (8008154 <SEGGER_SYSVIEW_ShrinkId+0x1c>)
 8008142:	691b      	ldr	r3, [r3, #16]
 8008144:	687a      	ldr	r2, [r7, #4]
 8008146:	1ad3      	subs	r3, r2, r3
}
 8008148:	4618      	mov	r0, r3
 800814a:	370c      	adds	r7, #12
 800814c:	46bd      	mov	sp, r7
 800814e:	bc80      	pop	{r7}
 8008150:	4770      	bx	lr
 8008152:	bf00      	nop
 8008154:	2000208c 	.word	0x2000208c

08008158 <SEGGER_SYSVIEW_SendModule>:
*    Sends the information of a registered module to the host.
*
*  Parameters
*    ModuleId   - Id of the requested module.
*/
void SEGGER_SYSVIEW_SendModule(U8 ModuleId) {
 8008158:	b580      	push	{r7, lr}
 800815a:	b08c      	sub	sp, #48	; 0x30
 800815c:	af00      	add	r7, sp, #0
 800815e:	4603      	mov	r3, r0
 8008160:	71fb      	strb	r3, [r7, #7]
  SEGGER_SYSVIEW_MODULE* pModule;
  U32 n;

  if (_pFirstModule != 0) {
 8008162:	4b3b      	ldr	r3, [pc, #236]	; (8008250 <SEGGER_SYSVIEW_SendModule+0xf8>)
 8008164:	681b      	ldr	r3, [r3, #0]
 8008166:	2b00      	cmp	r3, #0
 8008168:	d06d      	beq.n	8008246 <SEGGER_SYSVIEW_SendModule+0xee>
    pModule = _pFirstModule;
 800816a:	4b39      	ldr	r3, [pc, #228]	; (8008250 <SEGGER_SYSVIEW_SendModule+0xf8>)
 800816c:	681b      	ldr	r3, [r3, #0]
 800816e:	62fb      	str	r3, [r7, #44]	; 0x2c
    for (n = 0; n < ModuleId; n++) {
 8008170:	2300      	movs	r3, #0
 8008172:	62bb      	str	r3, [r7, #40]	; 0x28
 8008174:	e008      	b.n	8008188 <SEGGER_SYSVIEW_SendModule+0x30>
      pModule = pModule->pNext;
 8008176:	6afb      	ldr	r3, [r7, #44]	; 0x2c
 8008178:	691b      	ldr	r3, [r3, #16]
 800817a:	62fb      	str	r3, [r7, #44]	; 0x2c
      if (pModule == 0) {
 800817c:	6afb      	ldr	r3, [r7, #44]	; 0x2c
 800817e:	2b00      	cmp	r3, #0
 8008180:	d007      	beq.n	8008192 <SEGGER_SYSVIEW_SendModule+0x3a>
    for (n = 0; n < ModuleId; n++) {
 8008182:	6abb      	ldr	r3, [r7, #40]	; 0x28
 8008184:	3301      	adds	r3, #1
 8008186:	62bb      	str	r3, [r7, #40]	; 0x28
 8008188:	79fb      	ldrb	r3, [r7, #7]
 800818a:	6aba      	ldr	r2, [r7, #40]	; 0x28
 800818c:	429a      	cmp	r2, r3
 800818e:	d3f2      	bcc.n	8008176 <SEGGER_SYSVIEW_SendModule+0x1e>
 8008190:	e000      	b.n	8008194 <SEGGER_SYSVIEW_SendModule+0x3c>
        break;
 8008192:	bf00      	nop
      }
    }
    if (pModule != 0) {
 8008194:	6afb      	ldr	r3, [r7, #44]	; 0x2c
 8008196:	2b00      	cmp	r3, #0
 8008198:	d055      	beq.n	8008246 <SEGGER_SYSVIEW_SendModule+0xee>
      U8* pPayload;
      U8* pPayloadStart;
      RECORD_START(SEGGER_SYSVIEW_INFO_SIZE + 2 * SEGGER_SYSVIEW_QUANTA_U32 + 1 + SEGGER_SYSVIEW_MAX_STRING_LEN);
 800819a:	f3ef 8311 	mrs	r3, BASEPRI
 800819e:	f04f 0120 	mov.w	r1, #32
 80081a2:	f381 8811 	msr	BASEPRI, r1
 80081a6:	617b      	str	r3, [r7, #20]
 80081a8:	482a      	ldr	r0, [pc, #168]	; (8008254 <SEGGER_SYSVIEW_SendModule+0xfc>)
 80081aa:	f7ff f86d 	bl	8007288 <_PreparePacket>
 80081ae:	6138      	str	r0, [r7, #16]
      //
      pPayload = pPayloadStart;
 80081b0:	693b      	ldr	r3, [r7, #16]
 80081b2:	60fb      	str	r3, [r7, #12]
      //
      // Send module description
      // Send event offset and number of events
      //
      ENCODE_U32(pPayload, ModuleId);
 80081b4:	68fb      	ldr	r3, [r7, #12]
 80081b6:	627b      	str	r3, [r7, #36]	; 0x24
 80081b8:	79fb      	ldrb	r3, [r7, #7]
 80081ba:	623b      	str	r3, [r7, #32]
 80081bc:	e00b      	b.n	80081d6 <SEGGER_SYSVIEW_SendModule+0x7e>
 80081be:	6a3b      	ldr	r3, [r7, #32]
 80081c0:	b2da      	uxtb	r2, r3
 80081c2:	6a7b      	ldr	r3, [r7, #36]	; 0x24
 80081c4:	1c59      	adds	r1, r3, #1
 80081c6:	6279      	str	r1, [r7, #36]	; 0x24
 80081c8:	f062 027f 	orn	r2, r2, #127	; 0x7f
 80081cc:	b2d2      	uxtb	r2, r2
 80081ce:	701a      	strb	r2, [r3, #0]
 80081d0:	6a3b      	ldr	r3, [r7, #32]
 80081d2:	09db      	lsrs	r3, r3, #7
 80081d4:	623b      	str	r3, [r7, #32]
 80081d6:	6a3b      	ldr	r3, [r7, #32]
 80081d8:	2b7f      	cmp	r3, #127	; 0x7f
 80081da:	d8f0      	bhi.n	80081be <SEGGER_SYSVIEW_SendModule+0x66>
 80081dc:	6a7b      	ldr	r3, [r7, #36]	; 0x24
 80081de:	1c5a      	adds	r2, r3, #1
 80081e0:	627a      	str	r2, [r7, #36]	; 0x24
 80081e2:	6a3a      	ldr	r2, [r7, #32]
 80081e4:	b2d2      	uxtb	r2, r2
 80081e6:	701a      	strb	r2, [r3, #0]
 80081e8:	6a7b      	ldr	r3, [r7, #36]	; 0x24
 80081ea:	60fb      	str	r3, [r7, #12]
      ENCODE_U32(pPayload, (pModule->EventOffset));
 80081ec:	68fb      	ldr	r3, [r7, #12]
 80081ee:	61fb      	str	r3, [r7, #28]
 80081f0:	6afb      	ldr	r3, [r7, #44]	; 0x2c
 80081f2:	689b      	ldr	r3, [r3, #8]
 80081f4:	61bb      	str	r3, [r7, #24]
 80081f6:	e00b      	b.n	8008210 <SEGGER_SYSVIEW_SendModule+0xb8>
 80081f8:	69bb      	ldr	r3, [r7, #24]
 80081fa:	b2da      	uxtb	r2, r3
 80081fc:	69fb      	ldr	r3, [r7, #28]
 80081fe:	1c59      	adds	r1, r3, #1
 8008200:	61f9      	str	r1, [r7, #28]
 8008202:	f062 027f 	orn	r2, r2, #127	; 0x7f
 8008206:	b2d2      	uxtb	r2, r2
 8008208:	701a      	strb	r2, [r3, #0]
 800820a:	69bb      	ldr	r3, [r7, #24]
 800820c:	09db      	lsrs	r3, r3, #7
 800820e:	61bb      	str	r3, [r7, #24]
 8008210:	69bb      	ldr	r3, [r7, #24]
 8008212:	2b7f      	cmp	r3, #127	; 0x7f
 8008214:	d8f0      	bhi.n	80081f8 <SEGGER_SYSVIEW_SendModule+0xa0>
 8008216:	69fb      	ldr	r3, [r7, #28]
 8008218:	1c5a      	adds	r2, r3, #1
 800821a:	61fa      	str	r2, [r7, #28]
 800821c:	69ba      	ldr	r2, [r7, #24]
 800821e:	b2d2      	uxtb	r2, r2
 8008220:	701a      	strb	r2, [r3, #0]
 8008222:	69fb      	ldr	r3, [r7, #28]
 8008224:	60fb      	str	r3, [r7, #12]
      pPayload = _EncodeStr(pPayload, pModule->sModule, SEGGER_SYSVIEW_MAX_STRING_LEN);
 8008226:	6afb      	ldr	r3, [r7, #44]	; 0x2c
 8008228:	681b      	ldr	r3, [r3, #0]
 800822a:	2280      	movs	r2, #128	; 0x80
 800822c:	4619      	mov	r1, r3
 800822e:	68f8      	ldr	r0, [r7, #12]
 8008230:	f7fe ffde 	bl	80071f0 <_EncodeStr>
 8008234:	60f8      	str	r0, [r7, #12]
      _SendPacket(pPayloadStart, pPayload, SYSVIEW_EVTID_MODULEDESC);
 8008236:	2216      	movs	r2, #22
 8008238:	68f9      	ldr	r1, [r7, #12]
 800823a:	6938      	ldr	r0, [r7, #16]
 800823c:	f7ff f90e 	bl	800745c <_SendPacket>
      RECORD_END();
 8008240:	697b      	ldr	r3, [r7, #20]
 8008242:	f383 8811 	msr	BASEPRI, r3
    }
  }
}
 8008246:	bf00      	nop
 8008248:	3730      	adds	r7, #48	; 0x30
 800824a:	46bd      	mov	sp, r7
 800824c:	bd80      	pop	{r7, pc}
 800824e:	bf00      	nop
 8008250:	200020b4 	.word	0x200020b4
 8008254:	200020bc 	.word	0x200020bc

08008258 <SEGGER_SYSVIEW_SendModuleDescription>:
*
*  Function description
*    Triggers a send of the registered module descriptions.
*
*/
void SEGGER_SYSVIEW_SendModuleDescription(void) {
 8008258:	b580      	push	{r7, lr}
 800825a:	b082      	sub	sp, #8
 800825c:	af00      	add	r7, sp, #0
  SEGGER_SYSVIEW_MODULE* pModule;

  if (_pFirstModule != 0) {
 800825e:	4b0c      	ldr	r3, [pc, #48]	; (8008290 <SEGGER_SYSVIEW_SendModuleDescription+0x38>)
 8008260:	681b      	ldr	r3, [r3, #0]
 8008262:	2b00      	cmp	r3, #0
 8008264:	d00f      	beq.n	8008286 <SEGGER_SYSVIEW_SendModuleDescription+0x2e>
    pModule = _pFirstModule;
 8008266:	4b0a      	ldr	r3, [pc, #40]	; (8008290 <SEGGER_SYSVIEW_SendModuleDescription+0x38>)
 8008268:	681b      	ldr	r3, [r3, #0]
 800826a:	607b      	str	r3, [r7, #4]
    do {
      if (pModule->pfSendModuleDesc) {
 800826c:	687b      	ldr	r3, [r7, #4]
 800826e:	68db      	ldr	r3, [r3, #12]
 8008270:	2b00      	cmp	r3, #0
 8008272:	d002      	beq.n	800827a <SEGGER_SYSVIEW_SendModuleDescription+0x22>
        pModule->pfSendModuleDesc();
 8008274:	687b      	ldr	r3, [r7, #4]
 8008276:	68db      	ldr	r3, [r3, #12]
 8008278:	4798      	blx	r3
      }
      pModule = pModule->pNext;
 800827a:	687b      	ldr	r3, [r7, #4]
 800827c:	691b      	ldr	r3, [r3, #16]
 800827e:	607b      	str	r3, [r7, #4]
    } while (pModule);
 8008280:	687b      	ldr	r3, [r7, #4]
 8008282:	2b00      	cmp	r3, #0
 8008284:	d1f2      	bne.n	800826c <SEGGER_SYSVIEW_SendModuleDescription+0x14>
  }
}
 8008286:	bf00      	nop
 8008288:	3708      	adds	r7, #8
 800828a:	46bd      	mov	sp, r7
 800828c:	bd80      	pop	{r7, pc}
 800828e:	bf00      	nop
 8008290:	200020b4 	.word	0x200020b4

08008294 <SEGGER_SYSVIEW_SendNumModules>:
*       SEGGER_SYSVIEW_SendNumModules()
*
*  Function description
*    Send the number of registered modules to the host.
*/
void SEGGER_SYSVIEW_SendNumModules(void) {
 8008294:	b580      	push	{r7, lr}
 8008296:	b086      	sub	sp, #24
 8008298:	af00      	add	r7, sp, #0
  U8* pPayload;
  U8* pPayloadStart;
  RECORD_START(SEGGER_SYSVIEW_INFO_SIZE + 2*SEGGER_SYSVIEW_QUANTA_U32);
 800829a:	f3ef 8311 	mrs	r3, BASEPRI
 800829e:	f04f 0120 	mov.w	r1, #32
 80082a2:	f381 8811 	msr	BASEPRI, r1
 80082a6:	60fb      	str	r3, [r7, #12]
 80082a8:	4817      	ldr	r0, [pc, #92]	; (8008308 <SEGGER_SYSVIEW_SendNumModules+0x74>)
 80082aa:	f7fe ffed 	bl	8007288 <_PreparePacket>
 80082ae:	60b8      	str	r0, [r7, #8]
  pPayload = pPayloadStart;
 80082b0:	68bb      	ldr	r3, [r7, #8]
 80082b2:	607b      	str	r3, [r7, #4]
  ENCODE_U32(pPayload, _NumModules);
 80082b4:	687b      	ldr	r3, [r7, #4]
 80082b6:	617b      	str	r3, [r7, #20]
 80082b8:	4b14      	ldr	r3, [pc, #80]	; (800830c <SEGGER_SYSVIEW_SendNumModules+0x78>)
 80082ba:	781b      	ldrb	r3, [r3, #0]
 80082bc:	613b      	str	r3, [r7, #16]
 80082be:	e00b      	b.n	80082d8 <SEGGER_SYSVIEW_SendNumModules+0x44>
 80082c0:	693b      	ldr	r3, [r7, #16]
 80082c2:	b2da      	uxtb	r2, r3
 80082c4:	697b      	ldr	r3, [r7, #20]
 80082c6:	1c59      	adds	r1, r3, #1
 80082c8:	6179      	str	r1, [r7, #20]
 80082ca:	f062 027f 	orn	r2, r2, #127	; 0x7f
 80082ce:	b2d2      	uxtb	r2, r2
 80082d0:	701a      	strb	r2, [r3, #0]
 80082d2:	693b      	ldr	r3, [r7, #16]
 80082d4:	09db      	lsrs	r3, r3, #7
 80082d6:	613b      	str	r3, [r7, #16]
 80082d8:	693b      	ldr	r3, [r7, #16]
 80082da:	2b7f      	cmp	r3, #127	; 0x7f
 80082dc:	d8f0      	bhi.n	80082c0 <SEGGER_SYSVIEW_SendNumModules+0x2c>
 80082de:	697b      	ldr	r3, [r7, #20]
 80082e0:	1c5a      	adds	r2, r3, #1
 80082e2:	617a      	str	r2, [r7, #20]
 80082e4:	693a      	ldr	r2, [r7, #16]
 80082e6:	b2d2      	uxtb	r2, r2
 80082e8:	701a      	strb	r2, [r3, #0]
 80082ea:	697b      	ldr	r3, [r7, #20]
 80082ec:	607b      	str	r3, [r7, #4]
  _SendPacket(pPayloadStart, pPayload, SYSVIEW_EVTID_NUMMODULES);
 80082ee:	221b      	movs	r2, #27
 80082f0:	6879      	ldr	r1, [r7, #4]
 80082f2:	68b8      	ldr	r0, [r7, #8]
 80082f4:	f7ff f8b2 	bl	800745c <_SendPacket>
  RECORD_END();
 80082f8:	68fb      	ldr	r3, [r7, #12]
 80082fa:	f383 8811 	msr	BASEPRI, r3
}
 80082fe:	bf00      	nop
 8008300:	3718      	adds	r7, #24
 8008302:	46bd      	mov	sp, r7
 8008304:	bd80      	pop	{r7, pc}
 8008306:	bf00      	nop
 8008308:	200020bc 	.word	0x200020bc
 800830c:	200020b8 	.word	0x200020b8

08008310 <SEGGER_SYSVIEW_Warn>:
*    Print a warning string to the host.
*
*  Parameters
*    s        - String to sent.
*/
void SEGGER_SYSVIEW_Warn(const char* s) {
 8008310:	b580      	push	{r7, lr}
 8008312:	b08a      	sub	sp, #40	; 0x28
 8008314:	af00      	add	r7, sp, #0
 8008316:	6078      	str	r0, [r7, #4]
  U8* pPayload;
  U8* pPayloadStart;
  RECORD_START(SEGGER_SYSVIEW_INFO_SIZE + 2 * SEGGER_SYSVIEW_QUANTA_U32 + SEGGER_SYSVIEW_MAX_STRING_LEN);
 8008318:	f3ef 8311 	mrs	r3, BASEPRI
 800831c:	f04f 0120 	mov.w	r1, #32
 8008320:	f381 8811 	msr	BASEPRI, r1
 8008324:	617b      	str	r3, [r7, #20]
 8008326:	4827      	ldr	r0, [pc, #156]	; (80083c4 <SEGGER_SYSVIEW_Warn+0xb4>)
 8008328:	f7fe ffae 	bl	8007288 <_PreparePacket>
 800832c:	6138      	str	r0, [r7, #16]
  //
  pPayload = _EncodeStr(pPayloadStart, s, SEGGER_SYSVIEW_MAX_STRING_LEN);
 800832e:	2280      	movs	r2, #128	; 0x80
 8008330:	6879      	ldr	r1, [r7, #4]
 8008332:	6938      	ldr	r0, [r7, #16]
 8008334:	f7fe ff5c 	bl	80071f0 <_EncodeStr>
 8008338:	60f8      	str	r0, [r7, #12]
  ENCODE_U32(pPayload, SEGGER_SYSVIEW_WARNING);
 800833a:	68fb      	ldr	r3, [r7, #12]
 800833c:	627b      	str	r3, [r7, #36]	; 0x24
 800833e:	2301      	movs	r3, #1
 8008340:	623b      	str	r3, [r7, #32]
 8008342:	e00b      	b.n	800835c <SEGGER_SYSVIEW_Warn+0x4c>
 8008344:	6a3b      	ldr	r3, [r7, #32]
 8008346:	b2da      	uxtb	r2, r3
 8008348:	6a7b      	ldr	r3, [r7, #36]	; 0x24
 800834a:	1c59      	adds	r1, r3, #1
 800834c:	6279      	str	r1, [r7, #36]	; 0x24
 800834e:	f062 027f 	orn	r2, r2, #127	; 0x7f
 8008352:	b2d2      	uxtb	r2, r2
 8008354:	701a      	strb	r2, [r3, #0]
 8008356:	6a3b      	ldr	r3, [r7, #32]
 8008358:	09db      	lsrs	r3, r3, #7
 800835a:	623b      	str	r3, [r7, #32]
 800835c:	6a3b      	ldr	r3, [r7, #32]
 800835e:	2b7f      	cmp	r3, #127	; 0x7f
 8008360:	d8f0      	bhi.n	8008344 <SEGGER_SYSVIEW_Warn+0x34>
 8008362:	6a7b      	ldr	r3, [r7, #36]	; 0x24
 8008364:	1c5a      	adds	r2, r3, #1
 8008366:	627a      	str	r2, [r7, #36]	; 0x24
 8008368:	6a3a      	ldr	r2, [r7, #32]
 800836a:	b2d2      	uxtb	r2, r2
 800836c:	701a      	strb	r2, [r3, #0]
 800836e:	6a7b      	ldr	r3, [r7, #36]	; 0x24
 8008370:	60fb      	str	r3, [r7, #12]
  ENCODE_U32(pPayload, 0);
 8008372:	68fb      	ldr	r3, [r7, #12]
 8008374:	61fb      	str	r3, [r7, #28]
 8008376:	2300      	movs	r3, #0
 8008378:	61bb      	str	r3, [r7, #24]
 800837a:	e00b      	b.n	8008394 <SEGGER_SYSVIEW_Warn+0x84>
 800837c:	69bb      	ldr	r3, [r7, #24]
 800837e:	b2da      	uxtb	r2, r3
 8008380:	69fb      	ldr	r3, [r7, #28]
 8008382:	1c59      	adds	r1, r3, #1
 8008384:	61f9      	str	r1, [r7, #28]
 8008386:	f062 027f 	orn	r2, r2, #127	; 0x7f
 800838a:	b2d2      	uxtb	r2, r2
 800838c:	701a      	strb	r2, [r3, #0]
 800838e:	69bb      	ldr	r3, [r7, #24]
 8008390:	09db      	lsrs	r3, r3, #7
 8008392:	61bb      	str	r3, [r7, #24]
 8008394:	69bb      	ldr	r3, [r7, #24]
 8008396:	2b7f      	cmp	r3, #127	; 0x7f
 8008398:	d8f0      	bhi.n	800837c <SEGGER_SYSVIEW_Warn+0x6c>
 800839a:	69fb      	ldr	r3, [r7, #28]
 800839c:	1c5a      	adds	r2, r3, #1
 800839e:	61fa      	str	r2, [r7, #28]
 80083a0:	69ba      	ldr	r2, [r7, #24]
 80083a2:	b2d2      	uxtb	r2, r2
 80083a4:	701a      	strb	r2, [r3, #0]
 80083a6:	69fb      	ldr	r3, [r7, #28]
 80083a8:	60fb      	str	r3, [r7, #12]
  _SendPacket(pPayloadStart, pPayload, SYSVIEW_EVTID_PRINT_FORMATTED);
 80083aa:	221a      	movs	r2, #26
 80083ac:	68f9      	ldr	r1, [r7, #12]
 80083ae:	6938      	ldr	r0, [r7, #16]
 80083b0:	f7ff f854 	bl	800745c <_SendPacket>
  RECORD_END();
 80083b4:	697b      	ldr	r3, [r7, #20]
 80083b6:	f383 8811 	msr	BASEPRI, r3
}
 80083ba:	bf00      	nop
 80083bc:	3728      	adds	r7, #40	; 0x28
 80083be:	46bd      	mov	sp, r7
 80083c0:	bd80      	pop	{r7, pc}
 80083c2:	bf00      	nop
 80083c4:	200020bc 	.word	0x200020bc

080083c8 <__libc_init_array>:
 80083c8:	b570      	push	{r4, r5, r6, lr}
 80083ca:	2500      	movs	r5, #0
 80083cc:	4e0c      	ldr	r6, [pc, #48]	; (8008400 <__libc_init_array+0x38>)
 80083ce:	4c0d      	ldr	r4, [pc, #52]	; (8008404 <__libc_init_array+0x3c>)
 80083d0:	1ba4      	subs	r4, r4, r6
 80083d2:	10a4      	asrs	r4, r4, #2
 80083d4:	42a5      	cmp	r5, r4
 80083d6:	d109      	bne.n	80083ec <__libc_init_array+0x24>
 80083d8:	f000 f83c 	bl	8008454 <_init>
 80083dc:	2500      	movs	r5, #0
 80083de:	4e0a      	ldr	r6, [pc, #40]	; (8008408 <__libc_init_array+0x40>)
 80083e0:	4c0a      	ldr	r4, [pc, #40]	; (800840c <__libc_init_array+0x44>)
 80083e2:	1ba4      	subs	r4, r4, r6
 80083e4:	10a4      	asrs	r4, r4, #2
 80083e6:	42a5      	cmp	r5, r4
 80083e8:	d105      	bne.n	80083f6 <__libc_init_array+0x2e>
 80083ea:	bd70      	pop	{r4, r5, r6, pc}
 80083ec:	f856 3025 	ldr.w	r3, [r6, r5, lsl #2]
 80083f0:	4798      	blx	r3
 80083f2:	3501      	adds	r5, #1
 80083f4:	e7ee      	b.n	80083d4 <__libc_init_array+0xc>
 80083f6:	f856 3025 	ldr.w	r3, [r6, r5, lsl #2]
 80083fa:	4798      	blx	r3
 80083fc:	3501      	adds	r5, #1
 80083fe:	e7f2      	b.n	80083e6 <__libc_init_array+0x1e>
 8008400:	08008564 	.word	0x08008564
 8008404:	08008564 	.word	0x08008564
 8008408:	08008564 	.word	0x08008564
 800840c:	08008568 	.word	0x08008568

08008410 <memcmp>:
 8008410:	b530      	push	{r4, r5, lr}
 8008412:	2400      	movs	r4, #0
 8008414:	42a2      	cmp	r2, r4
 8008416:	d101      	bne.n	800841c <memcmp+0xc>
 8008418:	2000      	movs	r0, #0
 800841a:	e007      	b.n	800842c <memcmp+0x1c>
 800841c:	5d03      	ldrb	r3, [r0, r4]
 800841e:	3401      	adds	r4, #1
 8008420:	190d      	adds	r5, r1, r4
 8008422:	f815 5c01 	ldrb.w	r5, [r5, #-1]
 8008426:	42ab      	cmp	r3, r5
 8008428:	d0f4      	beq.n	8008414 <memcmp+0x4>
 800842a:	1b58      	subs	r0, r3, r5
 800842c:	bd30      	pop	{r4, r5, pc}

0800842e <memcpy>:
 800842e:	b510      	push	{r4, lr}
 8008430:	1e43      	subs	r3, r0, #1
 8008432:	440a      	add	r2, r1
 8008434:	4291      	cmp	r1, r2
 8008436:	d100      	bne.n	800843a <memcpy+0xc>
 8008438:	bd10      	pop	{r4, pc}
 800843a:	f811 4b01 	ldrb.w	r4, [r1], #1
 800843e:	f803 4f01 	strb.w	r4, [r3, #1]!
 8008442:	e7f7      	b.n	8008434 <memcpy+0x6>

08008444 <memset>:
 8008444:	4603      	mov	r3, r0
 8008446:	4402      	add	r2, r0
 8008448:	4293      	cmp	r3, r2
 800844a:	d100      	bne.n	800844e <memset+0xa>
 800844c:	4770      	bx	lr
 800844e:	f803 1b01 	strb.w	r1, [r3], #1
 8008452:	e7f9      	b.n	8008448 <memset+0x4>

08008454 <_init>:
 8008454:	b5f8      	push	{r3, r4, r5, r6, r7, lr}
 8008456:	bf00      	nop
 8008458:	bcf8      	pop	{r3, r4, r5, r6, r7}
 800845a:	bc08      	pop	{r3}
 800845c:	469e      	mov	lr, r3
 800845e:	4770      	bx	lr

08008460 <_fini>:
 8008460:	b5f8      	push	{r3, r4, r5, r6, r7, lr}
 8008462:	bf00      	nop
 8008464:	bcf8      	pop	{r3, r4, r5, r6, r7}
 8008466:	bc08      	pop	{r3}
 8008468:	469e      	mov	lr, r3
 800846a:	4770      	bx	lr
